
out/e6a33ed4-562b-463a-bb7e-ff5e15a493c8.elf:     file format elf64-littleaarch64
out/e6a33ed4-562b-463a-bb7e-ff5e15a493c8.elf
architecture: aarch64, flags 0x00000150:
HAS_SYMS, DYNAMIC, D_PAGED
start address 0x0000000000000020

Program Header:
    LOAD off    0x0000000000010000 vaddr 0x0000000000000000 paddr 0x0000000000000000 align 2**16
         filesz 0x0000000000007458 memsz 0x0000000000007458 flags r-x
    LOAD off    0x0000000000017458 vaddr 0x0000000000007458 paddr 0x0000000000007458 align 2**16
         filesz 0x0000000000001ad4 memsz 0x0000000000001ad4 flags r--
    LOAD off    0x0000000000019000 vaddr 0x0000000000009000 paddr 0x0000000000009000 align 2**16
         filesz 0x00000000000000fc memsz 0x0000000000012b88 flags rw-
 DYNAMIC off    0x0000000000018c50 vaddr 0x0000000000008c50 paddr 0x0000000000008c50 align 2**3
         filesz 0x0000000000000100 memsz 0x0000000000000100 flags rw-

Dynamic Section:
  HASH                 0x0000000000008ee8
  STRTAB               0x0000000000008e70
  SYMTAB               0x0000000000008d50
  STRSZ                0x0000000000000072
  SYMENT               0x0000000000000018
  DEBUG                0x0000000000000000
  RELA                 0x0000000000008948
  RELASZ               0x00000000000002a0
  RELAENT              0x0000000000000018
  FLAGS_1              0x0000000008000000
  RELACOUNT            0x0000000000000013
private flags = 0:

Sections:
Idx Name          Size      VMA               LMA               File off  Algn
  0 .ta_head      00000020  0000000000000000  0000000000000000  00010000  2**3
                  CONTENTS, ALLOC, LOAD, DATA
  1 .text         00007438  0000000000000020  0000000000000020  00010020  2**2
                  CONTENTS, ALLOC, LOAD, READONLY, CODE
  2 .rodata       000014ec  0000000000007458  0000000000007458  00017458  2**3
                  CONTENTS, ALLOC, LOAD, READONLY, DATA
  3 .dynsym       00000120  0000000000008d50  0000000000008d50  00018d50  2**3
                  CONTENTS, ALLOC, LOAD, READONLY, DATA
  4 .rela.dyn     000001c8  0000000000008948  0000000000008948  00018948  2**3
                  CONTENTS, ALLOC, LOAD, READONLY, DATA
  5 .got          00000068  0000000000008b10  0000000000008b10  00018b10  2**3
                  CONTENTS, ALLOC, LOAD, DATA
  6 .rela.got     000000d8  0000000000008b78  0000000000008b78  00018b78  2**3
                  CONTENTS, ALLOC, LOAD, READONLY, DATA
  7 .dynamic      00000100  0000000000008c50  0000000000008c50  00018c50  2**3
                  CONTENTS, ALLOC, LOAD, DATA
  8 .dynstr       00000072  0000000000008e70  0000000000008e70  00018e70  2**0
                  CONTENTS, ALLOC, LOAD, READONLY, DATA
  9 .hash         00000044  0000000000008ee8  0000000000008ee8  00018ee8  2**3
                  CONTENTS, ALLOC, LOAD, READONLY, DATA
 10 .data         000000fc  0000000000009000  0000000000009000  00019000  2**3
                  CONTENTS, ALLOC, LOAD, DATA
 11 .bss          00012a88  0000000000009100  0000000000009100  000190fc  2**3
                  ALLOC
 12 .debug_info   0000eddf  0000000000000000  0000000000000000  000190fc  2**0
                  CONTENTS, READONLY, DEBUGGING
 13 .debug_abbrev 00003c26  0000000000000000  0000000000000000  00027edb  2**0
                  CONTENTS, READONLY, DEBUGGING
 14 .debug_loc    00015a70  0000000000000000  0000000000000000  0002bb01  2**0
                  CONTENTS, READONLY, DEBUGGING
 15 .debug_aranges 00000ba0  0000000000000000  0000000000000000  00041580  2**4
                  CONTENTS, READONLY, DEBUGGING
 16 .debug_macro  00004f83  0000000000000000  0000000000000000  00042120  2**0
                  CONTENTS, READONLY, DEBUGGING
 17 .debug_line   00005fac  0000000000000000  0000000000000000  000470a3  2**0
                  CONTENTS, READONLY, DEBUGGING
 18 .debug_str    0000f10d  0000000000000000  0000000000000000  0004d04f  2**0
                  CONTENTS, READONLY, DEBUGGING
 19 .comment      0000002d  0000000000000000  0000000000000000  0005c15c  2**0
                  CONTENTS, READONLY
 20 .debug_frame  00002260  0000000000000000  0000000000000000  0005c190  2**3
                  CONTENTS, READONLY, DEBUGGING
 21 .debug_ranges 00000ea0  0000000000000000  0000000000000000  0005e3f0  2**4
                  CONTENTS, READONLY, DEBUGGING
SYMBOL TABLE:
0000000000000000 l    d  .ta_head	0000000000000000 .ta_head
0000000000000020 l    d  .text	0000000000000000 .text
0000000000007458 l    d  .rodata	0000000000000000 .rodata
0000000000008948 l    d  .rela.dyn	0000000000000000 .rela.dyn
0000000000008b10 l    d  .got	0000000000000000 .got
0000000000008b78 l    d  .rela.got	0000000000000000 .rela.got
0000000000008c50 l    d  .dynamic	0000000000000000 .dynamic
0000000000008d50 l    d  .dynsym	0000000000000000 .dynsym
0000000000008e70 l    d  .dynstr	0000000000000000 .dynstr
0000000000008ee8 l    d  .hash	0000000000000000 .hash
0000000000009000 l    d  .data	0000000000000000 .data
0000000000009100 l    d  .bss	0000000000000000 .bss
0000000000000000 l    d  .debug_info	0000000000000000 .debug_info
0000000000000000 l    d  .debug_abbrev	0000000000000000 .debug_abbrev
0000000000000000 l    d  .debug_loc	0000000000000000 .debug_loc
0000000000000000 l    d  .debug_aranges	0000000000000000 .debug_aranges
0000000000000000 l    d  .debug_macro	0000000000000000 .debug_macro
0000000000000000 l    d  .debug_line	0000000000000000 .debug_line
0000000000000000 l    d  .debug_str	0000000000000000 .debug_str
0000000000000000 l    d  .comment	0000000000000000 .comment
0000000000000000 l    d  .debug_frame	0000000000000000 .debug_frame
0000000000000000 l    d  .debug_ranges	0000000000000000 .debug_ranges
0000000000000000 l    df *ABS*	0000000000000000 user_ta_header.c
0000000000007460 l     O .rodata	0000000000000004 __compound_literal.4
0000000000007464 l     O .rodata	0000000000000004 __compound_literal.3
0000000000007468 l     O .rodata	0000000000000001 __compound_literal.2
0000000000007469 l     O .rodata	0000000000000001 __compound_literal.1
000000000000746a l     O .rodata	0000000000000001 __compound_literal.0
0000000000000000 l    df *ABS*	0000000000000000 ta_entry.c
0000000000000000 l    df *ABS*	0000000000000000 ta_sims.c
0000000000009100 l     O .bss	0000000000000004 counter
0000000000009108 l     O .bss	0000000000000040 storage
0000000000000000 l    df *ABS*	0000000000000000 tee_api.c
0000000000019148 l     O .bss	0000000000000008 tee_api_instance_data
0000000000007490 l     O .rodata	000000000000000b __func__.4337
0000000000000000 l    df *ABS*	0000000000000000 tee_api_panic.c
0000000000000000 l    df *ABS*	0000000000000000 user_ta_entry.c
0000000000000740 l     F .text	0000000000000028 ta_header_get_session
0000000000000768 l     F .text	0000000000000094 ta_header_remove_session
000000000001bb80 l     O .bss	0000000000000001 init_done
00000000000090b0 l     O .data	0000000000000010 ta_sessions
0000000000000000 l    df *ABS*	0000000000000000 utee_syscalls_a64.o
0000000000000000 l    df *ABS*	0000000000000000 gprof_a64.o
0000000000000000 l    df *ABS*	0000000000000000 tee_api_arith.c
000000000000142c l     F .text	0000000000000028 TEE_BigInt_Panic
0000000000019198 l     O .bss	0000000000001980 mempool_u32
000000000001ab18 l     O .bss	0000000000000010 mem.4074
000000000001ab28 l     O .bss	0000000000000008 mempool
0000000000000000 l    df *ABS*	0000000000000000 trace_ext.c
0000000000000000 l    df *ABS*	0000000000000000 mpa_misc.c
0000000000000000 l    df *ABS*	0000000000000000 mpa_montgomery.c
0000000000000000 l    df *ABS*	0000000000000000 mpa_primetest.c
0000000000008108 l     O .rodata	0000000000000010 const_miller_rabin_proof_limit
0000000000008118 l     O .rodata	000000000000001c proof_a.3550
0000000000008138 l     O .rodata	000000000000000c const_two
0000000000008148 l     O .rodata	00000000000000b8 const_small_prime_factors
0000000000000000 l    df *ABS*	0000000000000000 mpa_conv.c
0000000000000000 l    df *ABS*	0000000000000000 mpa_div.c
0000000000000000 l    df *ABS*	0000000000000000 mpa_gcd.c
00000000000028d8 l     F .text	0000000000000080 __mpa_divby2
0000000000002958 l     F .text	000000000000016c __mpa_gcd.part.0
0000000000002ac4 l     F .text	0000000000000380 __mpa_egcd
0000000000000000 l    df *ABS*	0000000000000000 mpa_mem_static.c
0000000000000000 l    df *ABS*	0000000000000000 mpa_mul.c
0000000000000000 l    df *ABS*	0000000000000000 mpa_random.c
0000000000000000 l    df *ABS*	0000000000000000 mpa_shift.c
0000000000000000 l    df *ABS*	0000000000000000 mpa_addsub.c
0000000000000000 l    df *ABS*	0000000000000000 mpa_cmp.c
0000000000000000 l    df *ABS*	0000000000000000 mpa_expmod.c
0000000000000000 l    df *ABS*	0000000000000000 mpa_init.c
0000000000000000 l    df *ABS*	0000000000000000 mpa_io.c
0000000000004778 l     F .text	0000000000000044 __mpa_word_to_hexstr
00000000000047bc l     F .text	0000000000000114 __mpa_mpanum_to_hexstr
00000000000048d0 l     F .text	000000000000003c __mpa_isspace
0000000000008208 l     O .rodata	000000000000000c __func__.3624
0000000000008218 l     O .rodata	000000000000000c __func__.3638
000000000001ab30 l     O .bss	0000000000001002 buf.3610
0000000000000000 l    df *ABS*	0000000000000000 mpa_modulus.c
0000000000000000 l    df *ABS*	0000000000000000 bget_malloc.c
000000000000516c l     F .text	0000000000000040 raw_malloc_return_hook.isra.3
00000000000051ac l     F .text	0000000000000110 create_free_block.constprop.11
000000000000547c l     F .text	000000000000005c raw_malloc.constprop.15
0000000000008228 l     O .rodata	0000000000000012 __func__.3464
0000000000008240 l     O .rodata	0000000000000005 __func__.3319
0000000000008248 l     O .rodata	0000000000000006 __func__.3334
0000000000008250 l     O .rodata	0000000000000005 __func__.3351
0000000000008258 l     O .rodata	0000000000000006 __func__.3343
0000000000008260 l     O .rodata	0000000000000006 __func__.3360
0000000000008268 l     O .rodata	0000000000000007 __func__.3370
0000000000008270 l     O .rodata	000000000000000d __func__.3500
0000000000008280 l     O .rodata	000000000000000c __func__.3474
0000000000008290 l     O .rodata	000000000000000b __func__.3485
00000000000082a0 l     O .rodata	0000000000000010 __func__.3552
00000000000082b0 l     O .rodata	000000000000000e __func__.3506
00000000000082c0 l     O .rodata	0000000000000013 __func__.3411
000000000001bb38 l     O .bss	0000000000000038 mstats
000000000001bb70 l     O .bss	0000000000000008 malloc_pool_len
000000000001bb78 l     O .bss	0000000000000008 malloc_pool
00000000000090c0 l     O .data	0000000000000038 malloc_poolset
0000000000000000 l    df *ABS*	0000000000000000 snprintf.c
0000000000000000 l    df *ABS*	0000000000000000 memcmp.c
0000000000000000 l    df *ABS*	0000000000000000 memcpy.c
0000000000000000 l    df *ABS*	0000000000000000 memmove.c
0000000000000000 l    df *ABS*	0000000000000000 memset.c
0000000000000000 l    df *ABS*	0000000000000000 strlen.c
0000000000000000 l    df *ABS*	0000000000000000 snprintk.c
00000000000082d8 l     O .rodata	0000000000000011 HEXDIGITS
00000000000082f0 l     O .rodata	0000000000000011 hexdigits
0000000000000000 l    df *ABS*	0000000000000000 trace.c
0000000000008308 l     O .rodata	0000000000000005 lvl_strs.3178
0000000000000000 l    df *ABS*	0000000000000000 mempool.c
0000000000008310 l     O .rodata	0000000000000013 __func__.3181
0000000000000000 l    df *ABS*	0000000000000000 memchr.c
0000000000000000 l    df *ABS*	0000000000000000 assert.c
0000000000000000 l    df *ABS*	0000000000000000 
0000000000008c50 l     O *ABS*	0000000000000000 _DYNAMIC
0000000000008b28 l     O *ABS*	0000000000000000 _GLOBAL_OFFSET_TABLE_
0000000000000d40 g     F .text	000000000000000c utee_se_channel_transmit
0000000000001590 g     F .text	000000000000003c putchar
00000000000046f4 g     F .text	000000000000001c mpa_init_static
0000000000001620 g     F .text	0000000000000054 mpa_copy
000000000000136c g     F .text	000000000000001c TEE_BigIntConvertToFMM
000000000000124c g     F .text	000000000000000c TEE_BigIntSquareMod
0000000000000ec8 g     F .text	0000000000000004 TEE_BigIntShiftRight
0000000000001f28 g     F .text	0000000000000074 mpa_get_S32
00000000000016a4 g     F .text	0000000000000044 mpa_highest_bit_index
0000000000000c08 g     F .text	000000000000000c utee_storage_obj_create
0000000000000d1c g     F .text	000000000000000c utee_se_session_close
0000000000000a10 g     F .text	000000000000000c utee_return
0000000000000cbc g     F .text	000000000000000c utee_se_service_get_readers
0000000000000714 g     F .text	0000000000000008 TEE_Realloc
0000000000002018 g     F .text	0000000000000148 __mpa_div_q_r_internal_word
0000000000003f2c g     F .text	000000000000019c mpa_sub
00000000000000d0 g     F .text	0000000000000004 sims_close_session
0000000000001484 g     F .text	00000000000000cc printf
0000000000000a1c g     F .text	000000000000000c utee_log
0000000000008200 g     O .rodata	0000000000000004 NR_STORED_PRIMES
00000000000003f0 g     F .text	00000000000000b4 TEE_InvokeTACommand
000000000000172c g     F .text	000000000000001c mpa_can_hold
0000000000003200 g     F .text	0000000000000098 __mpa_abs_mul_word
0000000000001ac8 g     F .text	0000000000000088 mpa_montgomery_mul
0000000000006f6c g     F .text	0000000000000054 vsnprintk
0000000000001748 g     F .text	000000000000000c mpa_parity
0000000000006340 g     F .text	000000000000004c memmove
0000000000003ab4 g     F .text	0000000000000020 __mpa_full_adder_ackum
0000000000006220 g     F .text	0000000000000078 snprintf
0000000000000ec4 g     F .text	0000000000000004 TEE_BigIntCmpS32
00000000000000d4 g     F .text	00000000000000a8 sims_read
0000000000000f00 g     F .text	000000000000000c TEE_BigIntAdd
0000000000000a40 g     F .text	000000000000000c utee_get_property_name_to_index
0000000000007470 g     O .rodata	0000000000000008 ta_heap_size
0000000000008204 g     O .rodata	0000000000000004 MAX_TABULATED_PRIME
0000000000000ac4 g     F .text	000000000000000c utee_cryp_state_alloc
0000000000000bcc g     F .text	000000000000000c utee_authenc_enc_final
00000000000031e0 g     F .text	0000000000000020 __mpa_mul_add_word_cum
0000000000000f18 g     F .text	0000000000000004 TEE_BigIntNeg
00000000000027e8 g     F .text	00000000000000f0 mpa_div
0000000000000020 g       .text	0000000000000000 __text_start
00000000000074a0 g     O .rodata	000000000000000c const_one
00000000000061b4 g     F .text	000000000000006c malloc_buffer_overlaps_heap
0000000000004434 g     F .text	0000000000000018 __mpa_abs_less_than
00000000000010d8 g     F .text	00000000000000a8 TEE_BigIntSubMod
0000000000003534 g     F .text	000000000000010c mpa_get_random
0000000000007068 g     F .text	0000000000000240 trace_printf
0000000000000ca4 g     F .text	000000000000000c utee_se_service_open
0000000000006320 g     F .text	0000000000000020 memcpy
0000000000000adc g     F .text	000000000000000c utee_cryp_state_free
00000000000015f0 g     F .text	0000000000000030 mpa_wipe
0000000000001388 g     F .text	0000000000000094 TEE_BigIntConvertFromFMM
0000000000000738 g     F .text	0000000000000008 TEE_Panic
0000000000000d34 g     F .text	000000000000000c utee_se_channel_get_select_resp
0000000000001550 g     F .text	0000000000000040 puts
000000000000141c g     F .text	0000000000000010 TEE_BigIntComputeFMM
0000000000001f9c g     F .text	0000000000000014 mpa_set_word
0000000000005a48 g     F .text	0000000000000030 malloc_get_stats
00000000000037a0 g     F .text	0000000000000190 mpa_shift_left
0000000000000b24 g     F .text	000000000000000c utee_cipher_final
000000000000338c g     F .text	00000000000000e4 mpa_mul
0000000000000690 g     F .text	0000000000000028 TEE_GetREETime
0000000000009000 g     O .data	00000000000000a8 ta_props
0000000000005a78 g     F .text	0000000000000004 malloc
0000000000000b60 g     F .text	000000000000000c utee_cryp_obj_close
0000000000000ce0 g     F .text	000000000000000c utee_se_reader_open_session
0000000000006298 g     F .text	0000000000000054 vsnprintf
00000000000090f8 g     O .data	0000000000000004 trace_level
0000000000000ec0 g     F .text	0000000000000004 TEE_BigIntCmp
0000000000007458 g     O .rodata	0000000000000008 ta_num_props
00000000000057fc g     F .text	00000000000000c8 bgetr
0000000000000bc0 g     F .text	000000000000000c utee_authenc_update_payload
0000000000007394 g     F .text	0000000000000040 mempool_free
0000000000000e5c g     F .text	0000000000000040 TEE_BigIntConvertToOctetString
0000000000000d58 g     F .text	000000000000000c utee_cache_operation
0000000000000ba8 g     F .text	000000000000000c utee_authenc_init
0000000000000ecc g     F .text	000000000000001c TEE_BigIntGetBit
0000000000007478 g     O .rodata	0000000000000003 trace_ext_prefix
0000000000003ad4 g     F .text	00000000000000f4 __mpa_abs_add
00000000000054d8 g     F .text	0000000000000088 bgetz
0000000000000548 g     F .text	000000000000000c TEE_GetInstanceData
0000000000000594 g     F .text	000000000000003c TEE_Wait
0000000000000c74 g     F .text	000000000000000c utee_storage_obj_write
00000000000031ac g     F .text	000000000000001c mpa_free_static_temp_var
0000000000001b50 g     F .text	00000000000003ac mpa_is_prob_prime
0000000000000d4c g     F .text	000000000000000c utee_se_channel_close
0000000000003470 g     F .text	00000000000000c4 mpa_mul_word
0000000000000728 g     F .text	0000000000000008 TEE_CacheFlush
0000000000000028 g     F .text	0000000000000004 TA_DestroyEntryPoint
0000000000007400 g     F .text	0000000000000044 _assert_log
0000000000000e20 g     F .text	0000000000000014 TEE_BigIntFMMContextSizeInU32
0000000000002160 g     F .text	0000000000000688 __mpa_div_q_r
0000000000000d68 g     F .text	0000000000000058 _TEE_MathAPI_Init
0000000000000c5c g     F .text	000000000000000c utee_storage_next_enum
0000000000009148 g     O .bss	0000000000010000 ta_heap
0000000000001258 g     F .text	000000000000006c TEE_BigIntInvMod
0000000000000034 g     F .text	0000000000000004 TA_CloseSessionEntryPoint
0000000000000a28 g     F .text	000000000000000c __utee_panic
0000000000000ad0 g     F .text	000000000000000c utee_cryp_state_copy
0000000000000038 g     F .text	0000000000000048 TA_InvokeCommandEntryPoint
0000000000004c30 g     F .text	0000000000000110 mpa_set_oct_str
0000000000000d10 g     F .text	000000000000000c utee_se_session_open_channel
0000000000007314 g     F .text	0000000000000080 mempool_alloc
00000000000036a4 g     F .text	0000000000000098 __mpa_shift_words_left
000000000000022c g     F .text	0000000000000020 sims_get_counter
0000000000000b54 g     F .text	000000000000000c utee_cryp_obj_alloc
0000000000000ab8 g     F .text	000000000000000c utee_set_ta_time
0000000000000b48 g     F .text	000000000000000c utee_cryp_obj_get_attr
00000000000017d8 g     F .text	0000000000000090 __mpa_montgomery_sub_ack
0000000000005a90 g     F .text	0000000000000070 calloc
00000000000006b8 g     F .text	000000000000005c TEE_Malloc
0000000000000a94 g     F .text	000000000000000c utee_mask_cancellation
0000000000000b6c g     F .text	000000000000000c utee_cryp_obj_reset
0000000000000528 g     F .text	0000000000000014 TEE_CheckMemoryAccessRights
000000000001bb88 g       .bss	0000000000000000 __gprof_buf_end
00000000000040c8 g     F .text	000000000000002c mpa_neg
00000000000074d0 g     O .rodata	0000000000000c38 PRIME_TABLE
000000000000002c g     F .text	0000000000000008 TA_OpenSessionEntryPoint
0000000000002e44 g     F .text	0000000000000120 mpa_gcd
0000000000001674 g     F .text	0000000000000030 mpa_abs
0000000000000c50 g     F .text	000000000000000c utee_storage_start_enum
0000000000004914 g     F .text	0000000000000298 mpa_set_str
0000000000000c20 g     F .text	000000000000000c utee_storage_obj_rename
0000000000019150 g     O .bss	0000000000000004 ta_param_types
0000000000001348 g     F .text	0000000000000024 TEE_BigIntIsProbablePrime
000000000000319c g     F .text	0000000000000010 mpa_alloc_static_temp_var
0000000000000a34 g     F .text	000000000000000c utee_get_property
0000000000000dc0 g     F .text	0000000000000004 TEE_BigIntInit
0000000000000554 g     F .text	0000000000000008 TEE_MemMove
0000000000000e34 g     F .text	0000000000000028 TEE_BigIntConvertFromOctetString
00000000000090a8 g     O .data	0000000000000008 _ref__utee_mcount
00000000000073d4 g     F .text	000000000000002c memchr
00000000000004d0 g     F .text	000000000000002c TEE_UnmaskCancellation
0000000000004fd4 g     F .text	0000000000000084 mpa_mul_mod
0000000000000c14 g     F .text	000000000000000c utee_storage_obj_del
0000000000000c8c g     F .text	000000000000000c utee_storage_obj_seek
000000000000198c g     F .text	000000000000013c mpa_compute_fmm_context
0000000000000af4 g     F .text	000000000000000c utee_hash_update
0000000000000080 g     F .text	0000000000000050 sims_open_session
0000000000000d64  w    F .text	0000000000000004 __utee_mcount
0000000000000f9c g     F .text	0000000000000094 TEE_BigIntMod
0000000000000d28 g     F .text	000000000000000c utee_se_channel_select_next
0000000000000a58 g     F .text	000000000000000c utee_close_ta_session
0000000000000f38 g     F .text	0000000000000064 TEE_BigIntDiv
0000000000005a30 g     F .text	0000000000000018 malloc_reset_stats
0000000000000b18 g     F .text	000000000000000c utee_cipher_update
0000000000000d04 g     F .text	000000000000000c utee_se_session_get_atr
0000000000005b00 g     F .text	000000000000005c realloc
0000000000003bc8 g     F .text	00000000000000cc __mpa_abs_add_ackum
00000000000072ac g     F .text	0000000000000068 mempool_alloc_pool
0000000000000bf0 g     F .text	000000000000000c utee_asymm_verify
0000000000000f1c g     F .text	000000000000000c TEE_BigIntMul
0000000000001fb0 g     F .text	0000000000000018 mpa_get_word
0000000000000564 g     F .text	0000000000000008 TEE_MemFill
00000000000062ec g     F .text	0000000000000034 memcmp
0000000000005f04 g     F .text	0000000000000130 malloc_add_pool
0000000000007058 g     F .text	0000000000000010 trace_get_level
0000000000000b9c g     F .text	000000000000000c utee_cryp_random_number_generate
0000000000000e10 g     F .text	0000000000000010 TEE_BigIntFMMSizeInU32
0000000000000dc4 g     F .text	0000000000000014 TEE_BigIntInitFMM
0000000000000be4 g     F .text	000000000000000c utee_asymm_operate
00000000000007fc g     F .text	0000000000000208 __utee_entry
0000000000007458 g       .text	0000000000000000 __text_end
00000000000012c4 g     F .text	0000000000000078 TEE_BigIntRelativePrime
0000000000003640 g     F .text	0000000000000064 mpa_get_random_digits
00000000000058c4 g     F .text	00000000000000d4 bpool
0000000000001efc g     F .text	000000000000002c mpa_set_S32
0000000000004710 g     F .text	0000000000000068 mpa_init_static_fmm_context
00000000000004a4 g     F .text	000000000000002c TEE_GetCancellationFlag
0000000000000cb0 g     F .text	000000000000000c utee_se_service_close
0000000000000650 g     F .text	0000000000000040 TEE_SetTAPersistentTime
00000000000040f4 g     F .text	000000000000013c mpa_add_word
0000000000000cc8 g     F .text	000000000000000c utee_se_reader_get_prop
000000000000638c g     F .text	000000000000001c memset
00000000000005d0 g     F .text	0000000000000080 TEE_GetTAPersistentTime
00000000000072a8 g     F .text	0000000000000004 dhex_dump
00000000000004fc g     F .text	000000000000002c TEE_MaskCancellation
0000000000003a90 g     F .text	0000000000000024 __mpa_full_sub
0000000000000c68 g     F .text	000000000000000c utee_storage_obj_read
0000000000000b78 g     F .text	000000000000000c utee_cryp_obj_populate
000000000000444c g     F .text	0000000000000068 mpa_cmp
0000000000005058 g     F .text	0000000000000114 mpa_inv_mod
0000000000004230 g     F .text	0000000000000138 mpa_sub_word
00000000000031c8 g     F .text	0000000000000018 __mpa_mul_add_word
0000000000003d98 g     F .text	0000000000000194 mpa_add
0000000000004538 g     F .text	00000000000001bc mpa_exp_mod
000000000000373c g     F .text	0000000000000064 __mpa_shift_words_right
0000000000007034 g     F .text	0000000000000024 trace_set_level
0000000000000cf8 g     F .text	000000000000000c utee_se_session_is_closed
0000000000000b30 g     F .text	000000000000000c utee_cryp_obj_get_info
0000000000000c2c g     F .text	000000000000000c utee_storage_alloc_enum
0000000000000c44 g     F .text	000000000000000c utee_storage_reset_enum
0000000000000c80 g     F .text	000000000000000c utee_storage_obj_trunc
0000000000004eb4 g     F .text	0000000000000018 mpa_mod
0000000000004418 g     F .text	000000000000001c __mpa_abs_greater_than
0000000000000ea0 g     F .text	0000000000000020 TEE_BigIntConvertToS32
0000000000000f0c g     F .text	000000000000000c TEE_BigIntSub
0000000000000a70 g     F .text	000000000000000c utee_get_cancellation_flag
0000000000000ae8 g     F .text	000000000000000c utee_hash_init
000000000000024c g     F .text	0000000000000008 tahead_get_trace_level
0000000000000254 g     F .text	0000000000000078 __utee_from_param
00000000000074b0 g     O .rodata	0000000000000010 Const_1_LShift_Base
00000000000002cc g     F .text	000000000000006c __utee_to_param
0000000000005b5c g     F .text	00000000000003a8 memalign
0000000000000e9c g     F .text	0000000000000004 TEE_BigIntConvertFromS32
0000000000004f50 g     F .text	0000000000000084 mpa_sub_mod
0000000000000b3c g     F .text	000000000000000c utee_cryp_obj_restrict_usage
0000000000006034 g     F .text	0000000000000180 malloc_buffer_is_within_alloced
0000000000000b84 g     F .text	000000000000000c utee_cryp_obj_copy
0000000000003930 g     F .text	0000000000000144 mpa_shift_right
0000000000000dd8 g     F .text	0000000000000038 TEE_BigIntInitFMMContext
0000000000000b90 g     F .text	000000000000000c utee_cryp_derive_key
0000000000001868 g     F .text	0000000000000124 __mpa_montgomery_mul
0000000000004d40 g     F .text	0000000000000174 mpa_get_oct_str
00000000000044b4 g     F .text	0000000000000084 mpa_cmp_short
0000000000000bd8 g     F .text	000000000000000c utee_authenc_dec_final
0000000000004368 g     F .text	00000000000000b0 __mpa_abs_cmp
0000000000000f28 g     F .text	0000000000000010 TEE_BigIntSquare
0000000000000020 g     F .text	0000000000000008 TA_CreateEntryPoint
0000000000006fc0 g     F .text	0000000000000074 snprintk
0000000000000ee8 g     F .text	0000000000000018 TEE_BigIntGetBitCount
0000000000001180 g     F .text	00000000000000cc TEE_BigIntMulMod
0000000000019158 g     O .bss	0000000000000040 ta_params
0000000000003298 g     F .text	00000000000000f4 __mpa_abs_mul
00000000000052bc g     F .text	00000000000001c0 bget
000000000000071c g     F .text	0000000000000004 TEE_Free
0000000000000cd4 g     F .text	000000000000000c utee_se_reader_get_name
0000000000000730 g     F .text	0000000000000008 TEE_CacheInvalidate
0000000000000b0c g     F .text	000000000000000c utee_cipher_init
0000000000007444 g     F .text	0000000000000014 _assert_break
0000000000001030 g     F .text	00000000000000a8 TEE_BigIntAddMod
0000000000000c38 g     F .text	000000000000000c utee_storage_free_enum
0000000000000bb4 g     F .text	000000000000000c utee_authenc_update_aad
00000000000016e8 g     F .text	0000000000000044 mpa_get_bit
000000000000055c g     F .text	0000000000000008 TEE_MemCompare
000000000000017c g     F .text	00000000000000b0 sims_write
00000000000063c4 g     F .text	0000000000000ba8 __vsnprintf
0000000000000a04 g     F .text	000000000000000c utee_panic
0000000000000338 g     F .text	0000000000000090 TEE_OpenTASession
0000000000001454 g     F .text	0000000000000028 trace_ext_puts
000000000000147c g     F .text	0000000000000008 trace_ext_get_thread_id
0000000000000720 g     F .text	0000000000000008 TEE_CacheClean
0000000000000a4c g     F .text	000000000000000c utee_open_ta_session
0000000000001fc8 g     F .text	0000000000000050 __mpa_div_dword
00000000000015cc g     F .text	0000000000000024 __mpa_set_unused_digits_to_zero
00000000000074c0 g     O .rodata	000000000000000c const_largest_deci_base
000000000000490c g     F .text	0000000000000008 mpa_get_str_size
0000000000000b00 g     F .text	000000000000000c utee_hash_final
00000000000063a8 g     F .text	000000000000001c strlen
000000000000133c g     F .text	000000000000000c TEE_BigIntComputeExtendedGcd
0000000000002f64 g     F .text	00000000000001ec mpa_extended_gcd
0000000000004ecc g     F .text	0000000000000084 mpa_add_mod
0000000000000bfc g     F .text	000000000000000c utee_storage_obj_open
0000000000000a64 g     F .text	000000000000000c utee_invoke_ta_command
0000000000004bac g     F .text	0000000000000084 mpa_get_str
0000000000000aa0 g     F .text	000000000000000c utee_wait
000000000000056c g     F .text	0000000000000028 TEE_GetSystemTime
0000000000000000 g     O .ta_head	0000000000000020 ta_head
0000000000005560 g     F .text	000000000000029c brel
0000000000003150 g     F .text	000000000000004c mpa_alloc_static_temp_var_size
0000000000000aac g     F .text	000000000000000c utee_get_time
0000000000001760 g     F .text	0000000000000078 __mpa_montgomery_mul_add
000000000000053c g     F .text	000000000000000c TEE_SetInstanceData
0000000000000a88 g     F .text	000000000000000c utee_unmask_cancellation
0000000000000a7c g     F .text	000000000000000c utee_check_access_rights
0000000000000cec g     F .text	000000000000000c utee_se_reader_close_sessions
0000000000000c98 g     F .text	000000000000000c utee_cryp_obj_generate_key
0000000000001754 g     F .text	000000000000000c mpa_constant_one
00000000000003c8 g     F .text	0000000000000028 TEE_CloseTASession
0000000000003a74 g     F .text	000000000000001c __mpa_full_adder
0000000000003c94 g     F .text	0000000000000104 __mpa_abs_sub
000000000001bb88 g       .bss	0000000000000000 __gprof_buf_start
0000000000005a7c g     F .text	0000000000000014 free
0000000000005998 g     F .text	0000000000000098 bstats



Disassembly of section .text:

0000000000000020 <TA_CreateEntryPoint>:
TA_CreateEntryPoint():
/home/lagadanu/Desktop/qemu/out-br/build/optee_test-1.0/ta/sims/ta_entry.c:40
      20:	52800000 	mov	w0, #0x0                   	// #0
      24:	d65f03c0 	ret

0000000000000028 <TA_DestroyEntryPoint>:
TA_DestroyEntryPoint():
/home/lagadanu/Desktop/qemu/out-br/build/optee_test-1.0/ta/sims/ta_entry.c:44
      28:	d65f03c0 	ret

000000000000002c <TA_OpenSessionEntryPoint>:
TA_OpenSessionEntryPoint():
/home/lagadanu/Desktop/qemu/out-br/build/optee_test-1.0/ta/sims/ta_entry.c:53
      2c:	aa0203e0 	mov	x0, x2
      30:	14000014 	b	80 <sims_open_session>

0000000000000034 <TA_CloseSessionEntryPoint>:
TA_CloseSessionEntryPoint():
/home/lagadanu/Desktop/qemu/out-br/build/optee_test-1.0/ta/sims/ta_entry.c:59
      34:	14000027 	b	d0 <sims_close_session>

0000000000000038 <TA_InvokeCommandEntryPoint>:
TA_InvokeCommandEntryPoint():
/home/lagadanu/Desktop/qemu/out-br/build/optee_test-1.0/ta/sims/ta_entry.c:66
      38:	2a0103e5 	mov	w5, w1
      3c:	2a0203e4 	mov	w4, w2
      40:	aa0303e1 	mov	x1, x3
/home/lagadanu/Desktop/qemu/out-br/build/optee_test-1.0/ta/sims/ta_entry.c:67
      44:	710008bf 	cmp	w5, #0x2
      48:	540000e0 	b.eq	64 <TA_InvokeCommandEntryPoint+0x2c>
      4c:	71000cbf 	cmp	w5, #0x3
      50:	540000e0 	b.eq	6c <TA_InvokeCommandEntryPoint+0x34>
      54:	710004bf 	cmp	w5, #0x1
      58:	54000101 	b.ne	78 <TA_InvokeCommandEntryPoint+0x40>
/home/lagadanu/Desktop/qemu/out-br/build/optee_test-1.0/ta/sims/ta_entry.c:69
      5c:	2a0203e0 	mov	w0, w2
      60:	1400001d 	b	d4 <sims_read>
/home/lagadanu/Desktop/qemu/out-br/build/optee_test-1.0/ta/sims/ta_entry.c:72
      64:	2a0203e0 	mov	w0, w2
      68:	14000045 	b	17c <sims_write>
/home/lagadanu/Desktop/qemu/out-br/build/optee_test-1.0/ta/sims/ta_entry.c:75
      6c:	aa0303e2 	mov	x2, x3
      70:	2a0403e1 	mov	w1, w4
      74:	1400006e 	b	22c <sims_get_counter>
/home/lagadanu/Desktop/qemu/out-br/build/optee_test-1.0/ta/sims/ta_entry.c:80
      78:	129fff20 	mov	w0, #0xffff0006            	// #-65530
      7c:	d65f03c0 	ret

0000000000000080 <sims_open_session>:
sims_open_session():
/home/lagadanu/Desktop/qemu/out-br/build/optee_test-1.0/ta/sims/ta_sims.c:48
      80:	a9be7bfd 	stp	x29, x30, [sp,#-32]!
/home/lagadanu/Desktop/qemu/out-br/build/optee_test-1.0/ta/sims/ta_sims.c:49
      84:	52800001 	mov	w1, #0x0                   	// #0
/home/lagadanu/Desktop/qemu/out-br/build/optee_test-1.0/ta/sims/ta_sims.c:48
      88:	910003fd 	mov	x29, sp
      8c:	f9000bf3 	str	x19, [sp,#16]
      90:	aa0003f3 	mov	x19, x0
/home/lagadanu/Desktop/qemu/out-br/build/optee_test-1.0/ta/sims/ta_sims.c:49
      94:	52840080 	mov	w0, #0x2004                	// #8196
      98:	94000188 	bl	6b8 <TEE_Malloc>
/home/lagadanu/Desktop/qemu/out-br/build/optee_test-1.0/ta/sims/ta_sims.c:51
      9c:	b4000160 	cbz	x0, c8 <sims_open_session+0x48>
/home/lagadanu/Desktop/qemu/out-br/build/optee_test-1.0/ta/sims/ta_sims.c:54
      a0:	b0000042 	adrp	x2, 9000 <ta_props>
      a4:	b9410041 	ldr	w1, [x2,#256]
      a8:	b9000001 	str	w1, [x0]
/home/lagadanu/Desktop/qemu/out-br/build/optee_test-1.0/ta/sims/ta_sims.c:55
      ac:	f9000260 	str	x0, [x19]
/home/lagadanu/Desktop/qemu/out-br/build/optee_test-1.0/ta/sims/ta_sims.c:57
      b0:	11000421 	add	w1, w1, #0x1
/home/lagadanu/Desktop/qemu/out-br/build/optee_test-1.0/ta/sims/ta_sims.c:59
      b4:	52800000 	mov	w0, #0x0                   	// #0
/home/lagadanu/Desktop/qemu/out-br/build/optee_test-1.0/ta/sims/ta_sims.c:57
      b8:	b9010041 	str	w1, [x2,#256]
/home/lagadanu/Desktop/qemu/out-br/build/optee_test-1.0/ta/sims/ta_sims.c:60
      bc:	f9400bf3 	ldr	x19, [sp,#16]
      c0:	a8c27bfd 	ldp	x29, x30, [sp],#32
      c4:	d65f03c0 	ret
/home/lagadanu/Desktop/qemu/out-br/build/optee_test-1.0/ta/sims/ta_sims.c:52
      c8:	129ffe60 	mov	w0, #0xffff000c            	// #-65524
      cc:	17fffffc 	b	bc <sims_open_session+0x3c>

00000000000000d0 <sims_close_session>:
sims_close_session():
/home/lagadanu/Desktop/qemu/out-br/build/optee_test-1.0/ta/sims/ta_sims.c:64
      d0:	14000193 	b	71c <TEE_Free>

00000000000000d4 <sims_read>:
sims_read():
/home/lagadanu/Desktop/qemu/out-br/build/optee_test-1.0/ta/sims/ta_sims.c:72
      d4:	7101841f 	cmp	w0, #0x61
      d8:	540004c1 	b.ne	170 <sims_read+0x9c>
/home/lagadanu/Desktop/qemu/out-br/build/optee_test-1.0/ta/sims/ta_sims.c:77
      dc:	b9400022 	ldr	w2, [x1]
/home/lagadanu/Desktop/qemu/out-br/build/optee_test-1.0/ta/sims/ta_sims.c:75
      e0:	129fff20 	mov	w0, #0xffff0006            	// #-65530
/home/lagadanu/Desktop/qemu/out-br/build/optee_test-1.0/ta/sims/ta_sims.c:78
      e4:	71000c5f 	cmp	w2, #0x3
      e8:	54000488 	b.hi	178 <sims_read+0xa4>
/home/lagadanu/Desktop/qemu/out-br/build/optee_test-1.0/ta/sims/ta_sims.c:68
      ec:	a9bd7bfd 	stp	x29, x30, [sp,#-48]!
/home/lagadanu/Desktop/qemu/out-br/build/optee_test-1.0/ta/sims/ta_sims.c:81
      f0:	b0000040 	adrp	x0, 9000 <ta_props>
      f4:	91040000 	add	x0, x0, #0x100
      f8:	d37c7c42 	ubfiz	x2, x2, #4, #32
      fc:	91002000 	add	x0, x0, #0x8
/home/lagadanu/Desktop/qemu/out-br/build/optee_test-1.0/ta/sims/ta_sims.c:68
     100:	910003fd 	mov	x29, sp
     104:	a9025bf5 	stp	x21, x22, [sp,#32]
/home/lagadanu/Desktop/qemu/out-br/build/optee_test-1.0/ta/sims/ta_sims.c:81
     108:	8b020016 	add	x22, x0, x2
/home/lagadanu/Desktop/qemu/out-br/build/optee_test-1.0/ta/sims/ta_sims.c:68
     10c:	a90153f3 	stp	x19, x20, [sp,#16]
/home/lagadanu/Desktop/qemu/out-br/build/optee_test-1.0/ta/sims/ta_sims.c:81
     110:	91004035 	add	x21, x1, #0x10
     114:	b8626803 	ldr	w3, [x0,x2]
/home/lagadanu/Desktop/qemu/out-br/build/optee_test-1.0/ta/sims/ta_sims.c:82
     118:	1299fe00 	mov	w0, #0xffff300f            	// #-53233
/home/lagadanu/Desktop/qemu/out-br/build/optee_test-1.0/ta/sims/ta_sims.c:81
     11c:	b9401822 	ldr	w2, [x1,#24]
     120:	6b02007f 	cmp	w3, w2
     124:	540001e8 	b.hi	160 <sims_read+0x8c>
     128:	aa0103f3 	mov	x19, x1
/home/lagadanu/Desktop/qemu/out-br/build/optee_test-1.0/ta/sims/ta_sims.c:84
     12c:	5287d000 	mov	w0, #0x3e80                	// #16000
     130:	52800001 	mov	w1, #0x0                   	// #0
     134:	94000161 	bl	6b8 <TEE_Malloc>
     138:	aa0003f4 	mov	x20, x0
/home/lagadanu/Desktop/qemu/out-br/build/optee_test-1.0/ta/sims/ta_sims.c:86
     13c:	129ffe60 	mov	w0, #0xffff000c            	// #-65524
/home/lagadanu/Desktop/qemu/out-br/build/optee_test-1.0/ta/sims/ta_sims.c:85
     140:	b4000114 	cbz	x20, 160 <sims_read+0x8c>
/home/lagadanu/Desktop/qemu/out-br/build/optee_test-1.0/ta/sims/ta_sims.c:88
     144:	b9400aa2 	ldr	w2, [x21,#8]
     148:	f94006c1 	ldr	x1, [x22,#8]
     14c:	f9400a60 	ldr	x0, [x19,#16]
     150:	94000101 	bl	554 <TEE_MemMove>
/home/lagadanu/Desktop/qemu/out-br/build/optee_test-1.0/ta/sims/ta_sims.c:91
     154:	aa1403e0 	mov	x0, x20
     158:	94000171 	bl	71c <TEE_Free>
/home/lagadanu/Desktop/qemu/out-br/build/optee_test-1.0/ta/sims/ta_sims.c:93
     15c:	52800000 	mov	w0, #0x0                   	// #0
/home/lagadanu/Desktop/qemu/out-br/build/optee_test-1.0/ta/sims/ta_sims.c:94
     160:	a94153f3 	ldp	x19, x20, [sp,#16]
     164:	a9425bf5 	ldp	x21, x22, [sp,#32]
     168:	a8c37bfd 	ldp	x29, x30, [sp],#48
     16c:	d65f03c0 	ret
/home/lagadanu/Desktop/qemu/out-br/build/optee_test-1.0/ta/sims/ta_sims.c:75
     170:	129fff20 	mov	w0, #0xffff0006            	// #-65530
     174:	d65f03c0 	ret
/home/lagadanu/Desktop/qemu/out-br/build/optee_test-1.0/ta/sims/ta_sims.c:94
     178:	d65f03c0 	ret

000000000000017c <sims_write>:
sims_write():
/home/lagadanu/Desktop/qemu/out-br/build/optee_test-1.0/ta/sims/ta_sims.c:100
     17c:	7101441f 	cmp	w0, #0x51
     180:	54000501 	b.ne	220 <sims_write+0xa4>
/home/lagadanu/Desktop/qemu/out-br/build/optee_test-1.0/ta/sims/ta_sims.c:105
     184:	b9400024 	ldr	w4, [x1]
/home/lagadanu/Desktop/qemu/out-br/build/optee_test-1.0/ta/sims/ta_sims.c:103
     188:	129fff20 	mov	w0, #0xffff0006            	// #-65530
/home/lagadanu/Desktop/qemu/out-br/build/optee_test-1.0/ta/sims/ta_sims.c:106
     18c:	71000c9f 	cmp	w4, #0x3
     190:	540004c8 	b.hi	228 <sims_write+0xac>
/home/lagadanu/Desktop/qemu/out-br/build/optee_test-1.0/ta/sims/ta_sims.c:97
     194:	a9bd7bfd 	stp	x29, x30, [sp,#-48]!
/home/lagadanu/Desktop/qemu/out-br/build/optee_test-1.0/ta/sims/ta_sims.c:109
     198:	b0000043 	adrp	x3, 9000 <ta_props>
     19c:	91040060 	add	x0, x3, #0x100
/home/lagadanu/Desktop/qemu/out-br/build/optee_test-1.0/ta/sims/ta_sims.c:97
     1a0:	910003fd 	mov	x29, sp
     1a4:	a90153f3 	stp	x19, x20, [sp,#16]
/home/lagadanu/Desktop/qemu/out-br/build/optee_test-1.0/ta/sims/ta_sims.c:109
     1a8:	2a0403f4 	mov	w20, w4
     1ac:	8b141000 	add	x0, x0, x20, lsl #4
/home/lagadanu/Desktop/qemu/out-br/build/optee_test-1.0/ta/sims/ta_sims.c:97
     1b0:	a9025bf5 	stp	x21, x22, [sp,#32]
     1b4:	aa0303f3 	mov	x19, x3
     1b8:	aa0103f5 	mov	x21, x1
/home/lagadanu/Desktop/qemu/out-br/build/optee_test-1.0/ta/sims/ta_sims.c:109
     1bc:	f9400800 	ldr	x0, [x0,#16]
     1c0:	b4000040 	cbz	x0, 1c8 <sims_write+0x4c>
/home/lagadanu/Desktop/qemu/out-br/build/optee_test-1.0/ta/sims/ta_sims.c:110
     1c4:	94000156 	bl	71c <TEE_Free>
/home/lagadanu/Desktop/qemu/out-br/build/optee_test-1.0/ta/sims/ta_sims.c:112
     1c8:	910042b6 	add	x22, x21, #0x10
     1cc:	b9400ac0 	ldr	w0, [x22,#8]
     1d0:	52800001 	mov	w1, #0x0                   	// #0
     1d4:	94000139 	bl	6b8 <TEE_Malloc>
     1d8:	91040263 	add	x3, x19, #0x100
     1dc:	d37cee84 	lsl	x4, x20, #4
     1e0:	91002063 	add	x3, x3, #0x8
     1e4:	8b040062 	add	x2, x3, x4
     1e8:	f9000440 	str	x0, [x2,#8]
/home/lagadanu/Desktop/qemu/out-br/build/optee_test-1.0/ta/sims/ta_sims.c:113
     1ec:	b50000e0 	cbnz	x0, 208 <sims_write+0x8c>
/home/lagadanu/Desktop/qemu/out-br/build/optee_test-1.0/ta/sims/ta_sims.c:114
     1f0:	b824687f 	str	wzr, [x3,x4]
/home/lagadanu/Desktop/qemu/out-br/build/optee_test-1.0/ta/sims/ta_sims.c:115
     1f4:	129ffe60 	mov	w0, #0xffff000c            	// #-65524
/home/lagadanu/Desktop/qemu/out-br/build/optee_test-1.0/ta/sims/ta_sims.c:123
     1f8:	a94153f3 	ldp	x19, x20, [sp,#16]
     1fc:	a9425bf5 	ldp	x21, x22, [sp,#32]
     200:	a8c37bfd 	ldp	x29, x30, [sp],#48
     204:	d65f03c0 	ret
/home/lagadanu/Desktop/qemu/out-br/build/optee_test-1.0/ta/sims/ta_sims.c:117
     208:	b9400ac2 	ldr	w2, [x22,#8]
/home/lagadanu/Desktop/qemu/out-br/build/optee_test-1.0/ta/sims/ta_sims.c:119
     20c:	f9400aa1 	ldr	x1, [x21,#16]
/home/lagadanu/Desktop/qemu/out-br/build/optee_test-1.0/ta/sims/ta_sims.c:117
     210:	b8246862 	str	w2, [x3,x4]
/home/lagadanu/Desktop/qemu/out-br/build/optee_test-1.0/ta/sims/ta_sims.c:119
     214:	940000d0 	bl	554 <TEE_MemMove>
/home/lagadanu/Desktop/qemu/out-br/build/optee_test-1.0/ta/sims/ta_sims.c:122
     218:	52800000 	mov	w0, #0x0                   	// #0
     21c:	17fffff7 	b	1f8 <sims_write+0x7c>
/home/lagadanu/Desktop/qemu/out-br/build/optee_test-1.0/ta/sims/ta_sims.c:103
     220:	129fff20 	mov	w0, #0xffff0006            	// #-65530
     224:	d65f03c0 	ret
/home/lagadanu/Desktop/qemu/out-br/build/optee_test-1.0/ta/sims/ta_sims.c:123
     228:	d65f03c0 	ret

000000000000022c <sims_get_counter>:
sims_get_counter():
/home/lagadanu/Desktop/qemu/out-br/build/optee_test-1.0/ta/sims/ta_sims.c:130
     22c:	7100083f 	cmp	w1, #0x2
     230:	540000a1 	b.ne	244 <sims_get_counter+0x18>
/home/lagadanu/Desktop/qemu/out-br/build/optee_test-1.0/ta/sims/ta_sims.c:134
     234:	b9400000 	ldr	w0, [x0]
     238:	b9000040 	str	w0, [x2]
/home/lagadanu/Desktop/qemu/out-br/build/optee_test-1.0/ta/sims/ta_sims.c:136
     23c:	52800000 	mov	w0, #0x0                   	// #0
     240:	d65f03c0 	ret
/home/lagadanu/Desktop/qemu/out-br/build/optee_test-1.0/ta/sims/ta_sims.c:132
     244:	129fff20 	mov	w0, #0xffff0006            	// #-65530
/home/lagadanu/Desktop/qemu/out-br/build/optee_test-1.0/ta/sims/ta_sims.c:137
     248:	d65f03c0 	ret

000000000000024c <tahead_get_trace_level>:
tahead_get_trace_level():
/home/lagadanu/Desktop/qemu/optee_os/out/arm/export-ta_arm64/src/user_ta_header.c:107
     24c:	52800040 	mov	w0, #0x2                   	// #2
     250:	d65f03c0 	ret

0000000000000254 <__utee_from_param>:
__utee_from_param():
/home/lagadanu/Desktop/qemu/optee_os/lib/libutee/tee_api.c:25
     254:	f0000025 	adrp	x5, 7000 <snprintk+0x40>
     258:	911200a5 	add	x5, x5, #0x480
/home/lagadanu/Desktop/qemu/optee_os/lib/libutee/tee_api.c:23
     25c:	2a0103e3 	mov	w3, w1
     260:	52800004 	mov	w4, #0x0                   	// #0
     264:	f8008403 	str	x3, [x0],#8
/home/lagadanu/Desktop/qemu/optee_os/lib/libutee/tee_api.c:25
     268:	1ac42423 	lsr	w3, w1, w4
     26c:	12000c63 	and	w3, w3, #0xf
     270:	51000463 	sub	w3, w3, #0x1
     274:	7100187f 	cmp	w3, #0x6
     278:	54000268 	b.hi	2c4 <__utee_from_param+0x70>
     27c:	386348a3 	ldrb	w3, [x5,w3,uxtw]
     280:	10000066 	adr	x6, 28c <__utee_from_param+0x38>
     284:	8b2388c3 	add	x3, x6, w3, sxtb #2
     288:	d61f0060 	br	x3
/home/lagadanu/Desktop/qemu/optee_os/lib/libutee/tee_api.c:29
     28c:	b9400043 	ldr	w3, [x2]
     290:	f9000003 	str	x3, [x0]
/home/lagadanu/Desktop/qemu/optee_os/lib/libutee/tee_api.c:30
     294:	b9400443 	ldr	w3, [x2,#4]
/home/lagadanu/Desktop/qemu/optee_os/lib/libutee/tee_api.c:36
     298:	f9000403 	str	x3, [x0,#8]
     29c:	11001084 	add	w4, w4, #0x4
     2a0:	91004042 	add	x2, x2, #0x10
     2a4:	91004000 	add	x0, x0, #0x10
/home/lagadanu/Desktop/qemu/optee_os/lib/libutee/tee_api.c:24 (discriminator 2)
     2a8:	7100409f 	cmp	w4, #0x10
     2ac:	54fffde1 	b.ne	268 <__utee_from_param+0x14>
/home/lagadanu/Desktop/qemu/optee_os/lib/libutee/tee_api.c:44
     2b0:	d65f03c0 	ret
/home/lagadanu/Desktop/qemu/optee_os/lib/libutee/tee_api.c:35
     2b4:	f9400043 	ldr	x3, [x2]
     2b8:	f9000003 	str	x3, [x0]
/home/lagadanu/Desktop/qemu/optee_os/lib/libutee/tee_api.c:36
     2bc:	b9400843 	ldr	w3, [x2,#8]
     2c0:	17fffff6 	b	298 <__utee_from_param+0x44>
/home/lagadanu/Desktop/qemu/optee_os/lib/libutee/tee_api.c:40
     2c4:	a9007c1f 	stp	xzr, xzr, [x0]
/home/lagadanu/Desktop/qemu/optee_os/lib/libutee/tee_api.c:41
     2c8:	17fffff5 	b	29c <__utee_from_param+0x48>

00000000000002cc <__utee_to_param>:
__utee_to_param():
/home/lagadanu/Desktop/qemu/optee_os/lib/libutee/tee_api.c:50
     2cc:	f8408446 	ldr	x6, [x2],#8
/home/lagadanu/Desktop/qemu/optee_os/lib/libutee/tee_api.c:56
     2d0:	f0000025 	adrp	x5, 7000 <snprintk+0x40>
     2d4:	911220a5 	add	x5, x5, #0x488
/home/lagadanu/Desktop/qemu/optee_os/lib/libutee/tee_api.c:50
     2d8:	52800004 	mov	w4, #0x0                   	// #0
     2dc:	2a0603e9 	mov	w9, w6
/home/lagadanu/Desktop/qemu/optee_os/lib/libutee/tee_api.c:56
     2e0:	1ac42523 	lsr	w3, w9, w4
     2e4:	12000c63 	and	w3, w3, #0xf
     2e8:	51000463 	sub	w3, w3, #0x1
     2ec:	7100187f 	cmp	w3, #0x6
/home/lagadanu/Desktop/qemu/optee_os/lib/libutee/tee_api.c:54
     2f0:	a9401c48 	ldp	x8, x7, [x2]
/home/lagadanu/Desktop/qemu/optee_os/lib/libutee/tee_api.c:56
     2f4:	540000c8 	b.hi	30c <__utee_to_param+0x40>
     2f8:	386348a3 	ldrb	w3, [x5,w3,uxtw]
     2fc:	1000006a 	adr	x10, 308 <__utee_to_param+0x3c>
     300:	8b238943 	add	x3, x10, w3, sxtb #2
     304:	d61f0060 	br	x3
/home/lagadanu/Desktop/qemu/optee_os/lib/libutee/tee_api.c:61
     308:	29001c08 	stp	w8, w7, [x0]
     30c:	11001084 	add	w4, w4, #0x4
     310:	91004042 	add	x2, x2, #0x10
     314:	91004000 	add	x0, x0, #0x10
/home/lagadanu/Desktop/qemu/optee_os/lib/libutee/tee_api.c:52 (discriminator 2)
     318:	7100409f 	cmp	w4, #0x10
     31c:	54fffe21 	b.ne	2e0 <__utee_to_param+0x14>
/home/lagadanu/Desktop/qemu/optee_os/lib/libutee/tee_api.c:74
     320:	b4000041 	cbz	x1, 328 <__utee_to_param+0x5c>
/home/lagadanu/Desktop/qemu/optee_os/lib/libutee/tee_api.c:75
     324:	b9000026 	str	w6, [x1]
     328:	d65f03c0 	ret
/home/lagadanu/Desktop/qemu/optee_os/lib/libutee/tee_api.c:66
     32c:	f9000008 	str	x8, [x0]
/home/lagadanu/Desktop/qemu/optee_os/lib/libutee/tee_api.c:67
     330:	b9000807 	str	w7, [x0,#8]
/home/lagadanu/Desktop/qemu/optee_os/lib/libutee/tee_api.c:68
     334:	17fffff6 	b	30c <__utee_to_param+0x40>

0000000000000338 <TEE_OpenTASession>:
TEE_OpenTASession():
/home/lagadanu/Desktop/qemu/optee_os/lib/libutee/tee_api.c:84
     338:	a9b77bfd 	stp	x29, x30, [sp,#-144]!
     33c:	910003fd 	mov	x29, sp
     340:	a90153f3 	stp	x19, x20, [sp,#16]
/home/lagadanu/Desktop/qemu/optee_os/lib/libutee/tee_api.c:89
     344:	910123b3 	add	x19, x29, #0x48
/home/lagadanu/Desktop/qemu/optee_os/lib/libutee/tee_api.c:84
     348:	a9025bf5 	stp	x21, x22, [sp,#32]
     34c:	aa0303f4 	mov	x20, x3
     350:	a90363f7 	stp	x23, x24, [sp,#48]
     354:	aa0003f6 	mov	x22, x0
     358:	aa0503f8 	mov	x24, x5
     35c:	2a0103f7 	mov	w23, w1
     360:	aa0403f5 	mov	x21, x4
     364:	2a0203e1 	mov	w1, w2
/home/lagadanu/Desktop/qemu/optee_os/lib/libutee/tee_api.c:89
     368:	aa1303e0 	mov	x0, x19
     36c:	aa0303e2 	mov	x2, x3
     370:	97ffffb9 	bl	254 <__utee_from_param>
/home/lagadanu/Desktop/qemu/optee_os/lib/libutee/tee_api.c:90
     374:	aa1803e4 	mov	x4, x24
     378:	910113a3 	add	x3, x29, #0x44
     37c:	aa1303e2 	mov	x2, x19
     380:	2a1703e1 	mov	w1, w23
     384:	aa1603e0 	mov	x0, x22
     388:	940001b1 	bl	a4c <utee_open_ta_session>
/home/lagadanu/Desktop/qemu/optee_os/lib/libutee/tee_api.c:92
     38c:	aa1303e2 	mov	x2, x19
/home/lagadanu/Desktop/qemu/optee_os/lib/libutee/tee_api.c:90
     390:	2a0003f6 	mov	w22, w0
/home/lagadanu/Desktop/qemu/optee_os/lib/libutee/tee_api.c:92
     394:	d2800001 	mov	x1, #0x0                   	// #0
     398:	aa1403e0 	mov	x0, x20
     39c:	97ffffcc 	bl	2cc <__utee_to_param>
/home/lagadanu/Desktop/qemu/optee_os/lib/libutee/tee_api.c:98
     3a0:	34000056 	cbz	w22, 3a8 <TEE_OpenTASession+0x70>
/home/lagadanu/Desktop/qemu/optee_os/lib/libutee/tee_api.c:99
     3a4:	b90047bf 	str	wzr, [x29,#68]
/home/lagadanu/Desktop/qemu/optee_os/lib/libutee/tee_api.c:101
     3a8:	b94047a0 	ldr	w0, [x29,#68]
/home/lagadanu/Desktop/qemu/optee_os/lib/libutee/tee_api.c:103
     3ac:	a94153f3 	ldp	x19, x20, [sp,#16]
     3b0:	a94363f7 	ldp	x23, x24, [sp,#48]
/home/lagadanu/Desktop/qemu/optee_os/lib/libutee/tee_api.c:101
     3b4:	f90002a0 	str	x0, [x21]
/home/lagadanu/Desktop/qemu/optee_os/lib/libutee/tee_api.c:103
     3b8:	2a1603e0 	mov	w0, w22
     3bc:	a9425bf5 	ldp	x21, x22, [sp,#32]
     3c0:	a8c97bfd 	ldp	x29, x30, [sp],#144
     3c4:	d65f03c0 	ret

00000000000003c8 <TEE_CloseTASession>:
TEE_CloseTASession():
/home/lagadanu/Desktop/qemu/optee_os/lib/libutee/tee_api.c:107
     3c8:	b4000120 	cbz	x0, 3ec <TEE_CloseTASession+0x24>
/home/lagadanu/Desktop/qemu/optee_os/lib/libutee/tee_api.c:106
     3cc:	a9bf7bfd 	stp	x29, x30, [sp,#-16]!
     3d0:	910003fd 	mov	x29, sp
/home/lagadanu/Desktop/qemu/optee_os/lib/libutee/tee_api.c:108
     3d4:	940001a1 	bl	a58 <utee_close_ta_session>
/home/lagadanu/Desktop/qemu/optee_os/lib/libutee/tee_api.c:110
     3d8:	34000060 	cbz	w0, 3e4 <TEE_CloseTASession+0x1c>
/home/lagadanu/Desktop/qemu/optee_os/lib/libutee/tee_api.c:113
     3dc:	a8c17bfd 	ldp	x29, x30, [sp],#16
/home/lagadanu/Desktop/qemu/optee_os/lib/libutee/tee_api.c:111
     3e0:	140000d6 	b	738 <TEE_Panic>
/home/lagadanu/Desktop/qemu/optee_os/lib/libutee/tee_api.c:113
     3e4:	a8c17bfd 	ldp	x29, x30, [sp],#16
     3e8:	d65f03c0 	ret
     3ec:	d65f03c0 	ret

00000000000003f0 <TEE_InvokeTACommand>:
TEE_InvokeTACommand():
/home/lagadanu/Desktop/qemu/optee_os/lib/libutee/tee_api.c:120
     3f0:	a9b77bfd 	stp	x29, x30, [sp,#-144]!
     3f4:	910003fd 	mov	x29, sp
     3f8:	a90153f3 	stp	x19, x20, [sp,#16]
/home/lagadanu/Desktop/qemu/optee_os/lib/libutee/tee_api.c:125
     3fc:	910123b4 	add	x20, x29, #0x48
/home/lagadanu/Desktop/qemu/optee_os/lib/libutee/tee_api.c:120
     400:	a9025bf5 	stp	x21, x22, [sp,#32]
     404:	aa0003f3 	mov	x19, x0
     408:	a90363f7 	stp	x23, x24, [sp,#48]
     40c:	aa0403f6 	mov	x22, x4
     410:	aa0503f5 	mov	x21, x5
     414:	2a0103f7 	mov	w23, w1
     418:	2a0203f8 	mov	w24, w2
/home/lagadanu/Desktop/qemu/optee_os/lib/libutee/tee_api.c:125
     41c:	2a0303e1 	mov	w1, w3
     420:	aa0403e2 	mov	x2, x4
     424:	aa1403e0 	mov	x0, x20
     428:	97ffff8b 	bl	254 <__utee_from_param>
/home/lagadanu/Desktop/qemu/optee_os/lib/libutee/tee_api.c:126
     42c:	910113a4 	add	x4, x29, #0x44
     430:	aa1403e3 	mov	x3, x20
     434:	2a1803e2 	mov	w2, w24
     438:	2a1703e1 	mov	w1, w23
     43c:	aa1303e0 	mov	x0, x19
     440:	94000189 	bl	a64 <utee_invoke_ta_command>
/home/lagadanu/Desktop/qemu/optee_os/lib/libutee/tee_api.c:129
     444:	aa1403e2 	mov	x2, x20
/home/lagadanu/Desktop/qemu/optee_os/lib/libutee/tee_api.c:126
     448:	2a0003f3 	mov	w19, w0
/home/lagadanu/Desktop/qemu/optee_os/lib/libutee/tee_api.c:129
     44c:	d2800001 	mov	x1, #0x0                   	// #0
     450:	aa1603e0 	mov	x0, x22
     454:	97ffff9e 	bl	2cc <__utee_to_param>
     458:	b94047a0 	ldr	w0, [x29,#68]
/home/lagadanu/Desktop/qemu/optee_os/lib/libutee/tee_api.c:131
     45c:	b4000055 	cbz	x21, 464 <TEE_InvokeTACommand+0x74>
/home/lagadanu/Desktop/qemu/optee_os/lib/libutee/tee_api.c:132
     460:	b90002a0 	str	w0, [x21]
/home/lagadanu/Desktop/qemu/optee_os/lib/libutee/tee_api.c:134
     464:	7100101f 	cmp	w0, #0x4
     468:	54000120 	b.eq	48c <TEE_InvokeTACommand+0x9c>
/home/lagadanu/Desktop/qemu/optee_os/lib/libutee/tee_api.c:138
     46c:	7100027f 	cmp	w19, #0x0
     470:	129ffe60 	mov	w0, #0xffff000c            	// #-65524
     474:	7a401264 	ccmp	w19, w0, #0x4, ne
     478:	1299fb60 	mov	w0, #0xffff3024            	// #-53212
     47c:	7a401264 	ccmp	w19, w0, #0x4, ne
     480:	54000060 	b.eq	48c <TEE_InvokeTACommand+0x9c>
/home/lagadanu/Desktop/qemu/optee_os/lib/libutee/tee_api.c:140
     484:	2a1303e0 	mov	w0, w19
     488:	940000ac 	bl	738 <TEE_Panic>
/home/lagadanu/Desktop/qemu/optee_os/lib/libutee/tee_api.c:143
     48c:	2a1303e0 	mov	w0, w19
     490:	a94153f3 	ldp	x19, x20, [sp,#16]
     494:	a9425bf5 	ldp	x21, x22, [sp,#32]
     498:	a94363f7 	ldp	x23, x24, [sp,#48]
     49c:	a8c97bfd 	ldp	x29, x30, [sp],#144
     4a0:	d65f03c0 	ret

00000000000004a4 <TEE_GetCancellationFlag>:
TEE_GetCancellationFlag():
/home/lagadanu/Desktop/qemu/optee_os/lib/libutee/tee_api.c:148
     4a4:	a9be7bfd 	stp	x29, x30, [sp,#-32]!
     4a8:	910003fd 	mov	x29, sp
/home/lagadanu/Desktop/qemu/optee_os/lib/libutee/tee_api.c:150
     4ac:	910073a0 	add	x0, x29, #0x1c
     4b0:	94000170 	bl	a70 <utee_get_cancellation_flag>
/home/lagadanu/Desktop/qemu/optee_os/lib/libutee/tee_api.c:152
     4b4:	34000040 	cbz	w0, 4bc <TEE_GetCancellationFlag+0x18>
/home/lagadanu/Desktop/qemu/optee_os/lib/libutee/tee_api.c:153
     4b8:	b9001fbf 	str	wzr, [x29,#28]
/home/lagadanu/Desktop/qemu/optee_os/lib/libutee/tee_api.c:154
     4bc:	b9401fa0 	ldr	w0, [x29,#28]
/home/lagadanu/Desktop/qemu/optee_os/lib/libutee/tee_api.c:155
     4c0:	a8c27bfd 	ldp	x29, x30, [sp],#32
/home/lagadanu/Desktop/qemu/optee_os/lib/libutee/tee_api.c:154
     4c4:	7100001f 	cmp	w0, #0x0
/home/lagadanu/Desktop/qemu/optee_os/lib/libutee/tee_api.c:155
     4c8:	1a9f07e0 	cset	w0, ne
     4cc:	d65f03c0 	ret

00000000000004d0 <TEE_UnmaskCancellation>:
TEE_UnmaskCancellation():
/home/lagadanu/Desktop/qemu/optee_os/lib/libutee/tee_api.c:158
     4d0:	a9be7bfd 	stp	x29, x30, [sp,#-32]!
     4d4:	910003fd 	mov	x29, sp
/home/lagadanu/Desktop/qemu/optee_os/lib/libutee/tee_api.c:160
     4d8:	910073a0 	add	x0, x29, #0x1c
     4dc:	9400016b 	bl	a88 <utee_unmask_cancellation>
/home/lagadanu/Desktop/qemu/optee_os/lib/libutee/tee_api.c:162
     4e0:	34000040 	cbz	w0, 4e8 <TEE_UnmaskCancellation+0x18>
/home/lagadanu/Desktop/qemu/optee_os/lib/libutee/tee_api.c:163
     4e4:	94000095 	bl	738 <TEE_Panic>
/home/lagadanu/Desktop/qemu/optee_os/lib/libutee/tee_api.c:164
     4e8:	b9401fa0 	ldr	w0, [x29,#28]
/home/lagadanu/Desktop/qemu/optee_os/lib/libutee/tee_api.c:165
     4ec:	a8c27bfd 	ldp	x29, x30, [sp],#32
/home/lagadanu/Desktop/qemu/optee_os/lib/libutee/tee_api.c:164
     4f0:	7100001f 	cmp	w0, #0x0
/home/lagadanu/Desktop/qemu/optee_os/lib/libutee/tee_api.c:165
     4f4:	1a9f07e0 	cset	w0, ne
     4f8:	d65f03c0 	ret

00000000000004fc <TEE_MaskCancellation>:
TEE_MaskCancellation():
/home/lagadanu/Desktop/qemu/optee_os/lib/libutee/tee_api.c:168
     4fc:	a9be7bfd 	stp	x29, x30, [sp,#-32]!
     500:	910003fd 	mov	x29, sp
/home/lagadanu/Desktop/qemu/optee_os/lib/libutee/tee_api.c:170
     504:	910073a0 	add	x0, x29, #0x1c
     508:	94000163 	bl	a94 <utee_mask_cancellation>
/home/lagadanu/Desktop/qemu/optee_os/lib/libutee/tee_api.c:172
     50c:	34000040 	cbz	w0, 514 <TEE_MaskCancellation+0x18>
/home/lagadanu/Desktop/qemu/optee_os/lib/libutee/tee_api.c:173
     510:	9400008a 	bl	738 <TEE_Panic>
/home/lagadanu/Desktop/qemu/optee_os/lib/libutee/tee_api.c:174
     514:	b9401fa0 	ldr	w0, [x29,#28]
/home/lagadanu/Desktop/qemu/optee_os/lib/libutee/tee_api.c:175
     518:	a8c27bfd 	ldp	x29, x30, [sp],#32
/home/lagadanu/Desktop/qemu/optee_os/lib/libutee/tee_api.c:174
     51c:	7100001f 	cmp	w0, #0x0
/home/lagadanu/Desktop/qemu/optee_os/lib/libutee/tee_api.c:175
     520:	1a9f07e0 	cset	w0, ne
     524:	d65f03c0 	ret

0000000000000528 <TEE_CheckMemoryAccessRights>:
TEE_CheckMemoryAccessRights():
/home/lagadanu/Desktop/qemu/optee_os/lib/libutee/tee_api.c:184
     528:	34000062 	cbz	w2, 534 <TEE_CheckMemoryAccessRights+0xc>
/home/lagadanu/Desktop/qemu/optee_os/lib/libutee/tee_api.c:188
     52c:	2a0203e2 	mov	w2, w2
     530:	14000153 	b	a7c <utee_check_access_rights>
/home/lagadanu/Desktop/qemu/optee_os/lib/libutee/tee_api.c:200
     534:	52800000 	mov	w0, #0x0                   	// #0
     538:	d65f03c0 	ret

000000000000053c <TEE_SetInstanceData>:
TEE_SetInstanceData():
/home/lagadanu/Desktop/qemu/optee_os/lib/libutee/tee_api.c:204
     53c:	b00000c1 	adrp	x1, 19000 <ta_heap+0xfeb8>
     540:	f900a420 	str	x0, [x1,#328]
     544:	d65f03c0 	ret

0000000000000548 <TEE_GetInstanceData>:
TEE_GetInstanceData():
/home/lagadanu/Desktop/qemu/optee_os/lib/libutee/tee_api.c:210
     548:	b00000c0 	adrp	x0, 19000 <ta_heap+0xfeb8>
     54c:	f940a400 	ldr	x0, [x0,#328]
     550:	d65f03c0 	ret

0000000000000554 <TEE_MemMove>:
TEE_MemMove():
/home/lagadanu/Desktop/qemu/optee_os/lib/libutee/tee_api.c:214
     554:	2a0203e2 	mov	w2, w2
     558:	1400177a 	b	6340 <memmove>

000000000000055c <TEE_MemCompare>:
TEE_MemCompare():
/home/lagadanu/Desktop/qemu/optee_os/lib/libutee/tee_api.c:219
     55c:	2a0203e2 	mov	w2, w2
     560:	14001763 	b	62ec <memcmp>

0000000000000564 <TEE_MemFill>:
TEE_MemFill():
/home/lagadanu/Desktop/qemu/optee_os/lib/libutee/tee_api.c:224
     564:	2a0203e2 	mov	w2, w2
     568:	14001789 	b	638c <memset>

000000000000056c <TEE_GetSystemTime>:
TEE_GetSystemTime():
/home/lagadanu/Desktop/qemu/optee_os/lib/libutee/tee_api.c:230
     56c:	a9bf7bfd 	stp	x29, x30, [sp,#-16]!
/home/lagadanu/Desktop/qemu/optee_os/lib/libutee/tee_api.c:231
     570:	aa0003e1 	mov	x1, x0
     574:	d2800000 	mov	x0, #0x0                   	// #0
/home/lagadanu/Desktop/qemu/optee_os/lib/libutee/tee_api.c:230
     578:	910003fd 	mov	x29, sp
/home/lagadanu/Desktop/qemu/optee_os/lib/libutee/tee_api.c:231
     57c:	9400014c 	bl	aac <utee_get_time>
/home/lagadanu/Desktop/qemu/optee_os/lib/libutee/tee_api.c:233
     580:	34000060 	cbz	w0, 58c <TEE_GetSystemTime+0x20>
/home/lagadanu/Desktop/qemu/optee_os/lib/libutee/tee_api.c:235
     584:	a8c17bfd 	ldp	x29, x30, [sp],#16
/home/lagadanu/Desktop/qemu/optee_os/lib/libutee/tee_api.c:234
     588:	1400006c 	b	738 <TEE_Panic>
/home/lagadanu/Desktop/qemu/optee_os/lib/libutee/tee_api.c:235
     58c:	a8c17bfd 	ldp	x29, x30, [sp],#16
     590:	d65f03c0 	ret

0000000000000594 <TEE_Wait>:
TEE_Wait():
/home/lagadanu/Desktop/qemu/optee_os/lib/libutee/tee_api.c:238
     594:	a9be7bfd 	stp	x29, x30, [sp,#-32]!
/home/lagadanu/Desktop/qemu/optee_os/lib/libutee/tee_api.c:239
     598:	2a0003e0 	mov	w0, w0
/home/lagadanu/Desktop/qemu/optee_os/lib/libutee/tee_api.c:238
     59c:	910003fd 	mov	x29, sp
     5a0:	f9000bf3 	str	x19, [sp,#16]
/home/lagadanu/Desktop/qemu/optee_os/lib/libutee/tee_api.c:239
     5a4:	9400013f 	bl	aa0 <utee_wait>
/home/lagadanu/Desktop/qemu/optee_os/lib/libutee/tee_api.c:241
     5a8:	7100001f 	cmp	w0, #0x0
     5ac:	129fffa1 	mov	w1, #0xffff0002            	// #-65534
/home/lagadanu/Desktop/qemu/optee_os/lib/libutee/tee_api.c:239
     5b0:	2a0003f3 	mov	w19, w0
/home/lagadanu/Desktop/qemu/optee_os/lib/libutee/tee_api.c:241
     5b4:	7a411004 	ccmp	w0, w1, #0x4, ne
     5b8:	54000040 	b.eq	5c0 <TEE_Wait+0x2c>
/home/lagadanu/Desktop/qemu/optee_os/lib/libutee/tee_api.c:242
     5bc:	9400005f 	bl	738 <TEE_Panic>
/home/lagadanu/Desktop/qemu/optee_os/lib/libutee/tee_api.c:245
     5c0:	2a1303e0 	mov	w0, w19
     5c4:	f9400bf3 	ldr	x19, [sp,#16]
     5c8:	a8c27bfd 	ldp	x29, x30, [sp],#32
     5cc:	d65f03c0 	ret

00000000000005d0 <TEE_GetTAPersistentTime>:
TEE_GetTAPersistentTime():
/home/lagadanu/Desktop/qemu/optee_os/lib/libutee/tee_api.c:248
     5d0:	a9be7bfd 	stp	x29, x30, [sp,#-32]!
/home/lagadanu/Desktop/qemu/optee_os/lib/libutee/tee_api.c:251
     5d4:	aa0003e1 	mov	x1, x0
/home/lagadanu/Desktop/qemu/optee_os/lib/libutee/tee_api.c:248
     5d8:	910003fd 	mov	x29, sp
     5dc:	a90153f3 	stp	x19, x20, [sp,#16]
     5e0:	aa0003f4 	mov	x20, x0
/home/lagadanu/Desktop/qemu/optee_os/lib/libutee/tee_api.c:251
     5e4:	d2800020 	mov	x0, #0x1                   	// #1
     5e8:	94000131 	bl	aac <utee_get_time>
/home/lagadanu/Desktop/qemu/optee_os/lib/libutee/tee_api.c:253
     5ec:	7100001f 	cmp	w0, #0x0
/home/lagadanu/Desktop/qemu/optee_os/lib/libutee/tee_api.c:251
     5f0:	2a0003f3 	mov	w19, w0
/home/lagadanu/Desktop/qemu/optee_os/lib/libutee/tee_api.c:253
     5f4:	1a9f07e1 	cset	w1, ne
     5f8:	1299fe00 	mov	w0, #0xffff300f            	// #-53233
     5fc:	6b00027f 	cmp	w19, w0
     600:	1a9f07e0 	cset	w0, ne
     604:	6a00003f 	tst	w1, w0
     608:	54000040 	b.eq	610 <TEE_GetTAPersistentTime+0x40>
/home/lagadanu/Desktop/qemu/optee_os/lib/libutee/tee_api.c:255
     60c:	29007e9f 	stp	wzr, wzr, [x20]
/home/lagadanu/Desktop/qemu/optee_os/lib/libutee/tee_api.c:259
     610:	11402e62 	add	w2, w19, #0xb, lsl #12
     614:	7100045f 	cmp	w2, #0x1
     618:	1a9f97e2 	cset	w2, hi
/home/lagadanu/Desktop/qemu/optee_os/lib/libutee/tee_api.c:258
     61c:	6a02003f 	tst	w1, w2
     620:	54000100 	b.eq	640 <TEE_GetTAPersistentTime+0x70>
/home/lagadanu/Desktop/qemu/optee_os/lib/libutee/tee_api.c:261
     624:	129ffe61 	mov	w1, #0xffff000c            	// #-65524
     628:	6b01027f 	cmp	w19, w1
     62c:	1a9f07e1 	cset	w1, ne
     630:	6a01001f 	tst	w0, w1
     634:	54000060 	b.eq	640 <TEE_GetTAPersistentTime+0x70>
/home/lagadanu/Desktop/qemu/optee_os/lib/libutee/tee_api.c:263
     638:	2a1303e0 	mov	w0, w19
     63c:	9400003f 	bl	738 <TEE_Panic>
/home/lagadanu/Desktop/qemu/optee_os/lib/libutee/tee_api.c:266
     640:	2a1303e0 	mov	w0, w19
     644:	a94153f3 	ldp	x19, x20, [sp,#16]
     648:	a8c27bfd 	ldp	x29, x30, [sp],#32
     64c:	d65f03c0 	ret

0000000000000650 <TEE_SetTAPersistentTime>:
TEE_SetTAPersistentTime():
/home/lagadanu/Desktop/qemu/optee_os/lib/libutee/tee_api.c:269
     650:	a9be7bfd 	stp	x29, x30, [sp,#-32]!
     654:	910003fd 	mov	x29, sp
     658:	f9000bf3 	str	x19, [sp,#16]
/home/lagadanu/Desktop/qemu/optee_os/lib/libutee/tee_api.c:272
     65c:	94000117 	bl	ab8 <utee_set_ta_time>
/home/lagadanu/Desktop/qemu/optee_os/lib/libutee/tee_api.c:275
     660:	7100001f 	cmp	w0, #0x0
     664:	129ffe61 	mov	w1, #0xffff000c            	// #-65524
     668:	7a411004 	ccmp	w0, w1, #0x4, ne
/home/lagadanu/Desktop/qemu/optee_os/lib/libutee/tee_api.c:272
     66c:	2a0003f3 	mov	w19, w0
/home/lagadanu/Desktop/qemu/optee_os/lib/libutee/tee_api.c:275
     670:	1299f7c1 	mov	w1, #0xffff3041            	// #-53183
     674:	7a411004 	ccmp	w0, w1, #0x4, ne
     678:	54000040 	b.eq	680 <TEE_SetTAPersistentTime+0x30>
/home/lagadanu/Desktop/qemu/optee_os/lib/libutee/tee_api.c:277
     67c:	9400002f 	bl	738 <TEE_Panic>
/home/lagadanu/Desktop/qemu/optee_os/lib/libutee/tee_api.c:280
     680:	2a1303e0 	mov	w0, w19
     684:	f9400bf3 	ldr	x19, [sp,#16]
     688:	a8c27bfd 	ldp	x29, x30, [sp],#32
     68c:	d65f03c0 	ret

0000000000000690 <TEE_GetREETime>:
TEE_GetREETime():
/home/lagadanu/Desktop/qemu/optee_os/lib/libutee/tee_api.c:283
     690:	a9bf7bfd 	stp	x29, x30, [sp,#-16]!
/home/lagadanu/Desktop/qemu/optee_os/lib/libutee/tee_api.c:284
     694:	aa0003e1 	mov	x1, x0
     698:	d2800040 	mov	x0, #0x2                   	// #2
/home/lagadanu/Desktop/qemu/optee_os/lib/libutee/tee_api.c:283
     69c:	910003fd 	mov	x29, sp
/home/lagadanu/Desktop/qemu/optee_os/lib/libutee/tee_api.c:284
     6a0:	94000103 	bl	aac <utee_get_time>
/home/lagadanu/Desktop/qemu/optee_os/lib/libutee/tee_api.c:286
     6a4:	34000060 	cbz	w0, 6b0 <TEE_GetREETime+0x20>
/home/lagadanu/Desktop/qemu/optee_os/lib/libutee/tee_api.c:288
     6a8:	a8c17bfd 	ldp	x29, x30, [sp],#16
/home/lagadanu/Desktop/qemu/optee_os/lib/libutee/tee_api.c:287
     6ac:	14000023 	b	738 <TEE_Panic>
/home/lagadanu/Desktop/qemu/optee_os/lib/libutee/tee_api.c:288
     6b0:	a8c17bfd 	ldp	x29, x30, [sp],#16
     6b4:	d65f03c0 	ret

00000000000006b8 <TEE_Malloc>:
TEE_Malloc():
/home/lagadanu/Desktop/qemu/optee_os/lib/libutee/tee_api.c:292
     6b8:	35000081 	cbnz	w1, 6c8 <TEE_Malloc+0x10>
/home/lagadanu/Desktop/qemu/optee_os/lib/libutee/tee_api.c:293
     6bc:	2a0003e1 	mov	w1, w0
     6c0:	d2800020 	mov	x0, #0x1                   	// #1
     6c4:	140014f3 	b	5a90 <calloc>
/home/lagadanu/Desktop/qemu/optee_os/lib/libutee/tee_api.c:294
     6c8:	52b00002 	mov	w2, #0x80000000            	// #-2147483648
     6cc:	6b02003f 	cmp	w1, w2
     6d0:	54000061 	b.ne	6dc <TEE_Malloc+0x24>
/home/lagadanu/Desktop/qemu/optee_os/lib/libutee/tee_api.c:295
     6d4:	2a0003e0 	mov	w0, w0
     6d8:	140014e8 	b	5a78 <malloc>
/home/lagadanu/Desktop/qemu/optee_os/lib/libutee/tee_api.c:291
     6dc:	a9bf7bfd 	stp	x29, x30, [sp,#-16]!
     6e0:	2a0103e5 	mov	w5, w1
/home/lagadanu/Desktop/qemu/optee_os/lib/libutee/tee_api.c:297
     6e4:	52800023 	mov	w3, #0x1                   	// #1
     6e8:	52800022 	mov	w2, #0x1                   	// #1
/home/lagadanu/Desktop/qemu/optee_os/lib/libutee/tee_api.c:291
     6ec:	910003fd 	mov	x29, sp
/home/lagadanu/Desktop/qemu/optee_os/lib/libutee/tee_api.c:297
     6f0:	52802521 	mov	w1, #0x129                 	// #297
     6f4:	90000044 	adrp	x4, 8000 <PRIME_TABLE+0xb30>
     6f8:	f0000020 	adrp	x0, 7000 <snprintk+0x40>
     6fc:	910f4484 	add	x4, x4, #0x3d1
     700:	91124000 	add	x0, x0, #0x490
     704:	94001a59 	bl	7068 <trace_printf>
/home/lagadanu/Desktop/qemu/optee_os/lib/libutee/tee_api.c:300
     708:	d2800000 	mov	x0, #0x0                   	// #0
     70c:	a8c17bfd 	ldp	x29, x30, [sp],#16
     710:	d65f03c0 	ret

0000000000000714 <TEE_Realloc>:
TEE_Realloc():
/home/lagadanu/Desktop/qemu/optee_os/lib/libutee/tee_api.c:304
     714:	2a0103e1 	mov	w1, w1
     718:	140014fa 	b	5b00 <realloc>

000000000000071c <TEE_Free>:
TEE_Free():
/home/lagadanu/Desktop/qemu/optee_os/lib/libutee/tee_api.c:309
     71c:	140014d8 	b	5a7c <free>

0000000000000720 <TEE_CacheClean>:
TEE_CacheClean():
/home/lagadanu/Desktop/qemu/optee_os/lib/libutee/tee_api.c:315
     720:	d2800002 	mov	x2, #0x0                   	// #0
     724:	1400018d 	b	d58 <utee_cache_operation>

0000000000000728 <TEE_CacheFlush>:
TEE_CacheFlush():
/home/lagadanu/Desktop/qemu/optee_os/lib/libutee/tee_api.c:319
     728:	d2800022 	mov	x2, #0x1                   	// #1
     72c:	1400018b 	b	d58 <utee_cache_operation>

0000000000000730 <TEE_CacheInvalidate>:
TEE_CacheInvalidate():
/home/lagadanu/Desktop/qemu/optee_os/lib/libutee/tee_api.c:324
     730:	d2800042 	mov	x2, #0x2                   	// #2
     734:	14000189 	b	d58 <utee_cache_operation>

0000000000000738 <TEE_Panic>:
TEE_Panic():
/home/lagadanu/Desktop/qemu/optee_os/lib/libutee/tee_api_panic.c:12
     738:	2a0003e0 	mov	w0, w0
     73c:	140000b2 	b	a04 <utee_panic>

0000000000000740 <ta_header_get_session>:
ta_header_get_session():
/home/lagadanu/Desktop/qemu/optee_os/lib/libutee/arch/arm/user_ta_entry.c:78
     740:	2a0003e1 	mov	w1, w0
/home/lagadanu/Desktop/qemu/optee_os/lib/libutee/arch/arm/user_ta_entry.c:81
     744:	b0000040 	adrp	x0, 9000 <ta_props>
     748:	f9405800 	ldr	x0, [x0,#176]
/home/lagadanu/Desktop/qemu/optee_os/lib/libutee/arch/arm/user_ta_entry.c:81 (discriminator 1)
     74c:	b5000040 	cbnz	x0, 754 <ta_header_get_session+0x14>
/home/lagadanu/Desktop/qemu/optee_os/lib/libutee/arch/arm/user_ta_entry.c:86
     750:	d65f03c0 	ret
/home/lagadanu/Desktop/qemu/optee_os/lib/libutee/arch/arm/user_ta_entry.c:82
     754:	b9400002 	ldr	w2, [x0]
     758:	6b01005f 	cmp	w2, w1
     75c:	54ffffa0 	b.eq	750 <ta_header_get_session+0x10>
/home/lagadanu/Desktop/qemu/optee_os/lib/libutee/arch/arm/user_ta_entry.c:81 (discriminator 2)
     760:	f9400800 	ldr	x0, [x0,#16]
     764:	17fffffa 	b	74c <ta_header_get_session+0xc>

0000000000000768 <ta_header_remove_session>:
ta_header_remove_session():
/home/lagadanu/Desktop/qemu/optee_os/lib/libutee/arch/arm/user_ta_entry.c:115
     768:	a9be7bfd 	stp	x29, x30, [sp,#-32]!
     76c:	2a0003e2 	mov	w2, w0
     770:	910003fd 	mov	x29, sp
     774:	f9000bf3 	str	x19, [sp,#16]
/home/lagadanu/Desktop/qemu/optee_os/lib/libutee/arch/arm/user_ta_entry.c:119
     778:	b0000053 	adrp	x19, 9000 <ta_props>
     77c:	f9405a60 	ldr	x0, [x19,#176]
/home/lagadanu/Desktop/qemu/optee_os/lib/libutee/arch/arm/user_ta_entry.c:119 (discriminator 1)
     780:	b5000080 	cbnz	x0, 790 <ta_header_remove_session+0x28>
/home/lagadanu/Desktop/qemu/optee_os/lib/libutee/arch/arm/user_ta_entry.c:133
     784:	f9400bf3 	ldr	x19, [sp,#16]
     788:	a8c27bfd 	ldp	x29, x30, [sp],#32
     78c:	d65f03c0 	ret
/home/lagadanu/Desktop/qemu/optee_os/lib/libutee/arch/arm/user_ta_entry.c:120
     790:	b9400001 	ldr	w1, [x0]
     794:	6b02003f 	cmp	w1, w2
     798:	f9400801 	ldr	x1, [x0,#16]
     79c:	540002c1 	b.ne	7f4 <ta_header_remove_session+0x8c>
     7a0:	f9400c02 	ldr	x2, [x0,#24]
/home/lagadanu/Desktop/qemu/optee_os/lib/libutee/arch/arm/user_ta_entry.c:121
     7a4:	b4000221 	cbz	x1, 7e8 <ta_header_remove_session+0x80>
/home/lagadanu/Desktop/qemu/optee_os/lib/libutee/arch/arm/user_ta_entry.c:121 (discriminator 1)
     7a8:	f9000c22 	str	x2, [x1,#24]
/home/lagadanu/Desktop/qemu/optee_os/lib/libutee/arch/arm/user_ta_entry.c:121 (discriminator 4)
     7ac:	f9400c02 	ldr	x2, [x0,#24]
     7b0:	f9000041 	str	x1, [x2]
/home/lagadanu/Desktop/qemu/optee_os/lib/libutee/arch/arm/user_ta_entry.c:122 (discriminator 4)
     7b4:	97ffffda 	bl	71c <TEE_Free>
/home/lagadanu/Desktop/qemu/optee_os/lib/libutee/arch/arm/user_ta_entry.c:125 (discriminator 4)
     7b8:	90000040 	adrp	x0, 8000 <PRIME_TABLE+0xb30>
/home/lagadanu/Desktop/qemu/optee_os/lib/libutee/arch/arm/user_ta_entry.c:127 (discriminator 4)
     7bc:	f9405a61 	ldr	x1, [x19,#176]
/home/lagadanu/Desktop/qemu/optee_os/lib/libutee/arch/arm/user_ta_entry.c:125 (discriminator 4)
     7c0:	52800282 	mov	w2, #0x14                  	// #20
     7c4:	f945b800 	ldr	x0, [x0,#2928]
/home/lagadanu/Desktop/qemu/optee_os/lib/libutee/arch/arm/user_ta_entry.c:127 (discriminator 4)
     7c8:	f100003f 	cmp	x1, #0x0
/home/lagadanu/Desktop/qemu/optee_os/lib/libutee/arch/arm/user_ta_entry.c:125 (discriminator 4)
     7cc:	b9401400 	ldr	w0, [x0,#20]
     7d0:	0a020000 	and	w0, w0, w2
/home/lagadanu/Desktop/qemu/optee_os/lib/libutee/arch/arm/user_ta_entry.c:127 (discriminator 4)
     7d4:	7a420004 	ccmp	w0, w2, #0x4, eq
     7d8:	54fffd60 	b.eq	784 <ta_header_remove_session+0x1c>
/home/lagadanu/Desktop/qemu/optee_os/lib/libutee/arch/arm/user_ta_entry.c:133
     7dc:	f9400bf3 	ldr	x19, [sp,#16]
     7e0:	a8c27bfd 	ldp	x29, x30, [sp],#32
uninit_instance():
/home/lagadanu/Desktop/qemu/optee_os/lib/libutee/arch/arm/user_ta_entry.c:63
     7e4:	17fffe11 	b	28 <TA_DestroyEntryPoint>
ta_header_remove_session():
/home/lagadanu/Desktop/qemu/optee_os/lib/libutee/arch/arm/user_ta_entry.c:121 (discriminator 2)
     7e8:	9102c263 	add	x3, x19, #0xb0
     7ec:	f9000462 	str	x2, [x3,#8]
     7f0:	17ffffef 	b	7ac <ta_header_remove_session+0x44>
/home/lagadanu/Desktop/qemu/optee_os/lib/libutee/arch/arm/user_ta_entry.c:119 (discriminator 2)
     7f4:	aa0103e0 	mov	x0, x1
     7f8:	17ffffe2 	b	780 <ta_header_remove_session+0x18>

00000000000007fc <__utee_entry>:
__utee_entry():
/home/lagadanu/Desktop/qemu/optee_os/lib/libutee/arch/arm/user_ta_entry.c:200
     7fc:	a9b77bfd 	stp	x29, x30, [sp,#-144]!
/home/lagadanu/Desktop/qemu/optee_os/lib/libutee/arch/arm/user_ta_entry.c:211
     800:	f100041f 	cmp	x0, #0x1
/home/lagadanu/Desktop/qemu/optee_os/lib/libutee/arch/arm/user_ta_entry.c:200
     804:	910003fd 	mov	x29, sp
     808:	a90153f3 	stp	x19, x20, [sp,#16]
     80c:	aa0103f4 	mov	x20, x1
     810:	a9025bf5 	stp	x21, x22, [sp,#32]
     814:	f9001bf7 	str	x23, [sp,#48]
/home/lagadanu/Desktop/qemu/optee_os/lib/libutee/arch/arm/user_ta_entry.c:211
     818:	54000a60 	b.eq	964 <__utee_entry+0x168>
     81c:	aa0203f6 	mov	x22, x2
     820:	b40000e0 	cbz	x0, 83c <__utee_entry+0x40>
     824:	f100081f 	cmp	x0, #0x2
     828:	54000b20 	b.eq	98c <__utee_entry+0x190>
/home/lagadanu/Desktop/qemu/optee_os/lib/libutee/arch/arm/user_ta_entry.c:223
     82c:	52800000 	mov	w0, #0x0                   	// #0
/home/lagadanu/Desktop/qemu/optee_os/lib/libutee/arch/arm/user_ta_entry.c:222
     830:	12800013 	mov	w19, #0xffffffff            	// #-1
/home/lagadanu/Desktop/qemu/optee_os/lib/libutee/arch/arm/user_ta_entry.c:223
     834:	97ffffc1 	bl	738 <TEE_Panic>
/home/lagadanu/Desktop/qemu/optee_os/lib/libutee/arch/arm/user_ta_entry.c:224
     838:	1400000c 	b	868 <__utee_entry+0x6c>
ta_header_add_session():
/home/lagadanu/Desktop/qemu/optee_os/lib/libutee/arch/arm/user_ta_entry.c:90
     83c:	2a0103e0 	mov	w0, w1
     840:	97ffffc0 	bl	740 <ta_header_get_session>
/home/lagadanu/Desktop/qemu/optee_os/lib/libutee/arch/arm/user_ta_entry.c:93
     844:	b5000520 	cbnz	x0, 8e8 <__utee_entry+0xec>
/home/lagadanu/Desktop/qemu/optee_os/lib/libutee/arch/arm/user_ta_entry.c:96
     848:	f00000c0 	adrp	x0, 1b000 <buf.3610+0x4d0>
     84c:	396e0001 	ldrb	w1, [x0,#2944]
     850:	340001e1 	cbz	w1, 88c <__utee_entry+0x90>
/home/lagadanu/Desktop/qemu/optee_os/lib/libutee/arch/arm/user_ta_entry.c:103
     854:	52b00001 	mov	w1, #0x80000000            	// #-2147483648
     858:	52800400 	mov	w0, #0x20                  	// #32
/home/lagadanu/Desktop/qemu/optee_os/lib/libutee/arch/arm/user_ta_entry.c:106
     85c:	129ffe73 	mov	w19, #0xffff000c            	// #-65524
/home/lagadanu/Desktop/qemu/optee_os/lib/libutee/arch/arm/user_ta_entry.c:103
     860:	97ffff96 	bl	6b8 <TEE_Malloc>
/home/lagadanu/Desktop/qemu/optee_os/lib/libutee/arch/arm/user_ta_entry.c:105
     864:	b5000300 	cbnz	x0, 8c4 <__utee_entry+0xc8>
ta_header_save_params():
/home/lagadanu/Desktop/qemu/optee_os/lib/libutee/arch/arm/user_ta_entry.c:69
     868:	90000040 	adrp	x0, 8000 <PRIME_TABLE+0xb30>
/home/lagadanu/Desktop/qemu/optee_os/lib/libutee/arch/arm/user_ta_entry.c:74
     86c:	d2800802 	mov	x2, #0x40                  	// #64
/home/lagadanu/Desktop/qemu/optee_os/lib/libutee/arch/arm/user_ta_entry.c:69
     870:	f945ac01 	ldr	x1, [x0,#2904]
/home/lagadanu/Desktop/qemu/optee_os/lib/libutee/arch/arm/user_ta_entry.c:74
     874:	f945b400 	ldr	x0, [x0,#2920]
/home/lagadanu/Desktop/qemu/optee_os/lib/libutee/arch/arm/user_ta_entry.c:69
     878:	b900003f 	str	wzr, [x1]
/home/lagadanu/Desktop/qemu/optee_os/lib/libutee/arch/arm/user_ta_entry.c:74
     87c:	52800001 	mov	w1, #0x0                   	// #0
     880:	940016c3 	bl	638c <memset>
__utee_entry():
/home/lagadanu/Desktop/qemu/optee_os/lib/libutee/arch/arm/user_ta_entry.c:227
     884:	2a1303e0 	mov	w0, w19
     888:	94000062 	bl	a10 <utee_return>
ta_header_add_session():
/home/lagadanu/Desktop/qemu/optee_os/lib/libutee/arch/arm/user_ta_entry.c:97
     88c:	52800021 	mov	w1, #0x1                   	// #1
     890:	392e0001 	strb	w1, [x0,#2944]
init_instance():
/home/lagadanu/Desktop/qemu/optee_os/lib/libutee/arch/arm/user_ta_entry.c:53
     894:	97fffe6e 	bl	24c <tahead_get_trace_level>
     898:	940019e7 	bl	7034 <trace_set_level>
/home/lagadanu/Desktop/qemu/optee_os/lib/libutee/arch/arm/user_ta_entry.c:55
     89c:	90000040 	adrp	x0, 8000 <PRIME_TABLE+0xb30>
     8a0:	f9459801 	ldr	x1, [x0,#2864]
     8a4:	f945a800 	ldr	x0, [x0,#2896]
     8a8:	f9400021 	ldr	x1, [x1]
     8ac:	94001596 	bl	5f04 <malloc_add_pool>
/home/lagadanu/Desktop/qemu/optee_os/lib/libutee/arch/arm/user_ta_entry.c:56
     8b0:	9400012e 	bl	d68 <_TEE_MathAPI_Init>
/home/lagadanu/Desktop/qemu/optee_os/lib/libutee/arch/arm/user_ta_entry.c:57
     8b4:	97fffddb 	bl	20 <TA_CreateEntryPoint>
     8b8:	2a0003f3 	mov	w19, w0
ta_header_add_session():
/home/lagadanu/Desktop/qemu/optee_os/lib/libutee/arch/arm/user_ta_entry.c:99
     8bc:	34fffcc0 	cbz	w0, 854 <__utee_entry+0x58>
     8c0:	17ffffea 	b	868 <__utee_entry+0x6c>
/home/lagadanu/Desktop/qemu/optee_os/lib/libutee/arch/arm/user_ta_entry.c:109
     8c4:	b0000041 	adrp	x1, 9000 <ta_props>
     8c8:	9102c021 	add	x1, x1, #0xb0
     8cc:	f9400422 	ldr	x2, [x1,#8]
     8d0:	f9000c02 	str	x2, [x0,#24]
/home/lagadanu/Desktop/qemu/optee_os/lib/libutee/arch/arm/user_ta_entry.c:107
     8d4:	b9000014 	str	w20, [x0]
/home/lagadanu/Desktop/qemu/optee_os/lib/libutee/arch/arm/user_ta_entry.c:109
     8d8:	a900fc1f 	stp	xzr, xzr, [x0,#8]
     8dc:	f9000040 	str	x0, [x2]
     8e0:	91004000 	add	x0, x0, #0x10
     8e4:	f9000420 	str	x0, [x1,#8]
entry_open_session():
/home/lagadanu/Desktop/qemu/optee_os/lib/libutee/arch/arm/user_ta_entry.c:147
     8e8:	2a1403e0 	mov	w0, w20
/home/lagadanu/Desktop/qemu/optee_os/lib/libutee/arch/arm/user_ta_entry.c:149
     8ec:	129fff13 	mov	w19, #0xffff0007            	// #-65529
/home/lagadanu/Desktop/qemu/optee_os/lib/libutee/arch/arm/user_ta_entry.c:147
     8f0:	97ffff94 	bl	740 <ta_header_get_session>
     8f4:	aa0003f7 	mov	x23, x0
/home/lagadanu/Desktop/qemu/optee_os/lib/libutee/arch/arm/user_ta_entry.c:148
     8f8:	b4fffb80 	cbz	x0, 868 <__utee_entry+0x6c>
/home/lagadanu/Desktop/qemu/optee_os/lib/libutee/arch/arm/user_ta_entry.c:151
     8fc:	910143b5 	add	x21, x29, #0x50
     900:	aa1603e2 	mov	x2, x22
     904:	910133a1 	add	x1, x29, #0x4c
     908:	aa1503e0 	mov	x0, x21
     90c:	97fffe70 	bl	2cc <__utee_to_param>
/home/lagadanu/Desktop/qemu/optee_os/lib/libutee/arch/arm/user_ta_entry.c:152
     910:	b9404fb3 	ldr	w19, [x29,#76]
ta_header_save_params():
/home/lagadanu/Desktop/qemu/optee_os/lib/libutee/arch/arm/user_ta_entry.c:69
     914:	90000040 	adrp	x0, 8000 <PRIME_TABLE+0xb30>
/home/lagadanu/Desktop/qemu/optee_os/lib/libutee/arch/arm/user_ta_entry.c:72
     918:	d2800802 	mov	x2, #0x40                  	// #64
/home/lagadanu/Desktop/qemu/optee_os/lib/libutee/arch/arm/user_ta_entry.c:69
     91c:	f945ac01 	ldr	x1, [x0,#2904]
/home/lagadanu/Desktop/qemu/optee_os/lib/libutee/arch/arm/user_ta_entry.c:72
     920:	f945b400 	ldr	x0, [x0,#2920]
/home/lagadanu/Desktop/qemu/optee_os/lib/libutee/arch/arm/user_ta_entry.c:69
     924:	b9000033 	str	w19, [x1]
/home/lagadanu/Desktop/qemu/optee_os/lib/libutee/arch/arm/user_ta_entry.c:72
     928:	aa1503e1 	mov	x1, x21
     92c:	9400167d 	bl	6320 <memcpy>
entry_open_session():
/home/lagadanu/Desktop/qemu/optee_os/lib/libutee/arch/arm/user_ta_entry.c:154
     930:	910022e2 	add	x2, x23, #0x8
     934:	aa1503e1 	mov	x1, x21
     938:	2a1303e0 	mov	w0, w19
     93c:	97fffdbc 	bl	2c <TA_OpenSessionEntryPoint>
/home/lagadanu/Desktop/qemu/optee_os/lib/libutee/arch/arm/user_ta_entry.c:157
     940:	b9404fa1 	ldr	w1, [x29,#76]
/home/lagadanu/Desktop/qemu/optee_os/lib/libutee/arch/arm/user_ta_entry.c:154
     944:	2a0003f3 	mov	w19, w0
/home/lagadanu/Desktop/qemu/optee_os/lib/libutee/arch/arm/user_ta_entry.c:157
     948:	aa1503e2 	mov	x2, x21
     94c:	aa1603e0 	mov	x0, x22
     950:	97fffe41 	bl	254 <__utee_from_param>
/home/lagadanu/Desktop/qemu/optee_os/lib/libutee/arch/arm/user_ta_entry.c:159
     954:	34fff8b3 	cbz	w19, 868 <__utee_entry+0x6c>
/home/lagadanu/Desktop/qemu/optee_os/lib/libutee/arch/arm/user_ta_entry.c:160
     958:	2a1403e0 	mov	w0, w20
     95c:	97ffff83 	bl	768 <ta_header_remove_session>
     960:	17ffffc2 	b	868 <__utee_entry+0x6c>
entry_close_session():
/home/lagadanu/Desktop/qemu/optee_os/lib/libutee/arch/arm/user_ta_entry.c:166
     964:	2a0103e0 	mov	w0, w1
/home/lagadanu/Desktop/qemu/optee_os/lib/libutee/arch/arm/user_ta_entry.c:169
     968:	129fff13 	mov	w19, #0xffff0007            	// #-65529
/home/lagadanu/Desktop/qemu/optee_os/lib/libutee/arch/arm/user_ta_entry.c:166
     96c:	97ffff75 	bl	740 <ta_header_get_session>
/home/lagadanu/Desktop/qemu/optee_os/lib/libutee/arch/arm/user_ta_entry.c:168
     970:	b4fff7c0 	cbz	x0, 868 <__utee_entry+0x6c>
/home/lagadanu/Desktop/qemu/optee_os/lib/libutee/arch/arm/user_ta_entry.c:171
     974:	f9400400 	ldr	x0, [x0,#8]
/home/lagadanu/Desktop/qemu/optee_os/lib/libutee/arch/arm/user_ta_entry.c:174
     978:	52800013 	mov	w19, #0x0                   	// #0
/home/lagadanu/Desktop/qemu/optee_os/lib/libutee/arch/arm/user_ta_entry.c:171
     97c:	97fffdae 	bl	34 <TA_CloseSessionEntryPoint>
/home/lagadanu/Desktop/qemu/optee_os/lib/libutee/arch/arm/user_ta_entry.c:173
     980:	2a1403e0 	mov	w0, w20
     984:	97ffff79 	bl	768 <ta_header_remove_session>
     988:	17ffffb8 	b	868 <__utee_entry+0x6c>
entry_invoke_command():
/home/lagadanu/Desktop/qemu/optee_os/lib/libutee/arch/arm/user_ta_entry.c:183
     98c:	2a0103e0 	mov	w0, w1
/home/lagadanu/Desktop/qemu/optee_os/lib/libutee/arch/arm/user_ta_entry.c:186
     990:	129fff13 	mov	w19, #0xffff0007            	// #-65529
/home/lagadanu/Desktop/qemu/optee_os/lib/libutee/arch/arm/user_ta_entry.c:183
     994:	97ffff6b 	bl	740 <ta_header_get_session>
     998:	aa0003f5 	mov	x21, x0
/home/lagadanu/Desktop/qemu/optee_os/lib/libutee/arch/arm/user_ta_entry.c:185
     99c:	b4fff660 	cbz	x0, 868 <__utee_entry+0x6c>
/home/lagadanu/Desktop/qemu/optee_os/lib/libutee/arch/arm/user_ta_entry.c:188
     9a0:	910143b4 	add	x20, x29, #0x50
     9a4:	aa0303f7 	mov	x23, x3
     9a8:	aa1603e2 	mov	x2, x22
     9ac:	910133a1 	add	x1, x29, #0x4c
     9b0:	aa1403e0 	mov	x0, x20
     9b4:	97fffe46 	bl	2cc <__utee_to_param>
ta_header_save_params():
/home/lagadanu/Desktop/qemu/optee_os/lib/libutee/arch/arm/user_ta_entry.c:69
     9b8:	90000040 	adrp	x0, 8000 <PRIME_TABLE+0xb30>
entry_invoke_command():
/home/lagadanu/Desktop/qemu/optee_os/lib/libutee/arch/arm/user_ta_entry.c:189
     9bc:	b9404fb3 	ldr	w19, [x29,#76]
ta_header_save_params():
/home/lagadanu/Desktop/qemu/optee_os/lib/libutee/arch/arm/user_ta_entry.c:72
     9c0:	d2800802 	mov	x2, #0x40                  	// #64
/home/lagadanu/Desktop/qemu/optee_os/lib/libutee/arch/arm/user_ta_entry.c:69
     9c4:	f945ac01 	ldr	x1, [x0,#2904]
/home/lagadanu/Desktop/qemu/optee_os/lib/libutee/arch/arm/user_ta_entry.c:72
     9c8:	f945b400 	ldr	x0, [x0,#2920]
/home/lagadanu/Desktop/qemu/optee_os/lib/libutee/arch/arm/user_ta_entry.c:69
     9cc:	b9000033 	str	w19, [x1]
/home/lagadanu/Desktop/qemu/optee_os/lib/libutee/arch/arm/user_ta_entry.c:72
     9d0:	aa1403e1 	mov	x1, x20
     9d4:	94001653 	bl	6320 <memcpy>
entry_invoke_command():
/home/lagadanu/Desktop/qemu/optee_os/lib/libutee/arch/arm/user_ta_entry.c:191
     9d8:	f94006a0 	ldr	x0, [x21,#8]
     9dc:	2a1303e2 	mov	w2, w19
     9e0:	2a1703e1 	mov	w1, w23
     9e4:	aa1403e3 	mov	x3, x20
     9e8:	97fffd94 	bl	38 <TA_InvokeCommandEntryPoint>
     9ec:	2a0003f3 	mov	w19, w0
/home/lagadanu/Desktop/qemu/optee_os/lib/libutee/arch/arm/user_ta_entry.c:194
     9f0:	b9404fa1 	ldr	w1, [x29,#76]
     9f4:	aa1403e2 	mov	x2, x20
     9f8:	aa1603e0 	mov	x0, x22
     9fc:	97fffe16 	bl	254 <__utee_from_param>
     a00:	17ffff9a 	b	868 <__utee_entry+0x6c>

0000000000000a04 <utee_panic>:
utee_panic():
/home/lagadanu/Desktop/qemu/optee_os/lib/libutee/arch/arm/utee_syscalls_a64.S:24
     a04:	a9bf7bfd 	stp	x29, x30, [sp,#-16]!
/home/lagadanu/Desktop/qemu/optee_os/lib/libutee/arch/arm/utee_syscalls_a64.S:25
     a08:	910003e1 	mov	x1, sp
/home/lagadanu/Desktop/qemu/optee_os/lib/libutee/arch/arm/utee_syscalls_a64.S:26
     a0c:	94000007 	bl	a28 <__utee_panic>

0000000000000a10 <utee_return>:
utee_return():
/home/lagadanu/Desktop/qemu/optee_os/lib/libutee/arch/arm/utee_syscalls_asm.S:8
     a10:	d2800008 	mov	x8, #0x0                   	// #0
     a14:	d4000001 	svc	#0x0
     a18:	d65f03c0 	ret

0000000000000a1c <utee_log>:
utee_log():
/home/lagadanu/Desktop/qemu/optee_os/lib/libutee/arch/arm/utee_syscalls_asm.S:10
     a1c:	d2800028 	mov	x8, #0x1                   	// #1
     a20:	d4000001 	svc	#0x0
     a24:	d65f03c0 	ret

0000000000000a28 <__utee_panic>:
__utee_panic():
/home/lagadanu/Desktop/qemu/optee_os/lib/libutee/arch/arm/utee_syscalls_asm.S:12
     a28:	d2800048 	mov	x8, #0x2                   	// #2
     a2c:	d4000001 	svc	#0x0
     a30:	d65f03c0 	ret

0000000000000a34 <utee_get_property>:
utee_get_property():
/home/lagadanu/Desktop/qemu/optee_os/lib/libutee/arch/arm/utee_syscalls_asm.S:14
     a34:	d2800068 	mov	x8, #0x3                   	// #3
     a38:	d4000001 	svc	#0x0
     a3c:	d65f03c0 	ret

0000000000000a40 <utee_get_property_name_to_index>:
utee_get_property_name_to_index():
/home/lagadanu/Desktop/qemu/optee_os/lib/libutee/arch/arm/utee_syscalls_asm.S:16
     a40:	d2800088 	mov	x8, #0x4                   	// #4
     a44:	d4000001 	svc	#0x0
     a48:	d65f03c0 	ret

0000000000000a4c <utee_open_ta_session>:
utee_open_ta_session():
/home/lagadanu/Desktop/qemu/optee_os/lib/libutee/arch/arm/utee_syscalls_asm.S:19
     a4c:	d28000a8 	mov	x8, #0x5                   	// #5
     a50:	d4000001 	svc	#0x0
     a54:	d65f03c0 	ret

0000000000000a58 <utee_close_ta_session>:
utee_close_ta_session():
/home/lagadanu/Desktop/qemu/optee_os/lib/libutee/arch/arm/utee_syscalls_asm.S:21
     a58:	d28000c8 	mov	x8, #0x6                   	// #6
     a5c:	d4000001 	svc	#0x0
     a60:	d65f03c0 	ret

0000000000000a64 <utee_invoke_ta_command>:
utee_invoke_ta_command():
/home/lagadanu/Desktop/qemu/optee_os/lib/libutee/arch/arm/utee_syscalls_asm.S:23
     a64:	d28000e8 	mov	x8, #0x7                   	// #7
     a68:	d4000001 	svc	#0x0
     a6c:	d65f03c0 	ret

0000000000000a70 <utee_get_cancellation_flag>:
utee_get_cancellation_flag():
/home/lagadanu/Desktop/qemu/optee_os/lib/libutee/arch/arm/utee_syscalls_asm.S:25
     a70:	d2800128 	mov	x8, #0x9                   	// #9
     a74:	d4000001 	svc	#0x0
     a78:	d65f03c0 	ret

0000000000000a7c <utee_check_access_rights>:
utee_check_access_rights():
/home/lagadanu/Desktop/qemu/optee_os/lib/libutee/arch/arm/utee_syscalls_asm.S:28
     a7c:	d2800108 	mov	x8, #0x8                   	// #8
     a80:	d4000001 	svc	#0x0
     a84:	d65f03c0 	ret

0000000000000a88 <utee_unmask_cancellation>:
utee_unmask_cancellation():
/home/lagadanu/Desktop/qemu/optee_os/lib/libutee/arch/arm/utee_syscalls_asm.S:30
     a88:	d2800148 	mov	x8, #0xa                   	// #10
     a8c:	d4000001 	svc	#0x0
     a90:	d65f03c0 	ret

0000000000000a94 <utee_mask_cancellation>:
utee_mask_cancellation():
/home/lagadanu/Desktop/qemu/optee_os/lib/libutee/arch/arm/utee_syscalls_asm.S:32
     a94:	d2800168 	mov	x8, #0xb                   	// #11
     a98:	d4000001 	svc	#0x0
     a9c:	d65f03c0 	ret

0000000000000aa0 <utee_wait>:
utee_wait():
/home/lagadanu/Desktop/qemu/optee_os/lib/libutee/arch/arm/utee_syscalls_asm.S:34
     aa0:	d2800188 	mov	x8, #0xc                   	// #12
     aa4:	d4000001 	svc	#0x0
     aa8:	d65f03c0 	ret

0000000000000aac <utee_get_time>:
utee_get_time():
/home/lagadanu/Desktop/qemu/optee_os/lib/libutee/arch/arm/utee_syscalls_asm.S:36
     aac:	d28001a8 	mov	x8, #0xd                   	// #13
     ab0:	d4000001 	svc	#0x0
     ab4:	d65f03c0 	ret

0000000000000ab8 <utee_set_ta_time>:
utee_set_ta_time():
/home/lagadanu/Desktop/qemu/optee_os/lib/libutee/arch/arm/utee_syscalls_asm.S:38
     ab8:	d28001c8 	mov	x8, #0xe                   	// #14
     abc:	d4000001 	svc	#0x0
     ac0:	d65f03c0 	ret

0000000000000ac4 <utee_cryp_state_alloc>:
utee_cryp_state_alloc():
/home/lagadanu/Desktop/qemu/optee_os/lib/libutee/arch/arm/utee_syscalls_asm.S:40
     ac4:	d28001e8 	mov	x8, #0xf                   	// #15
     ac8:	d4000001 	svc	#0x0
     acc:	d65f03c0 	ret

0000000000000ad0 <utee_cryp_state_copy>:
utee_cryp_state_copy():
/home/lagadanu/Desktop/qemu/optee_os/lib/libutee/arch/arm/utee_syscalls_asm.S:42
     ad0:	d2800208 	mov	x8, #0x10                  	// #16
     ad4:	d4000001 	svc	#0x0
     ad8:	d65f03c0 	ret

0000000000000adc <utee_cryp_state_free>:
utee_cryp_state_free():
/home/lagadanu/Desktop/qemu/optee_os/lib/libutee/arch/arm/utee_syscalls_asm.S:44
     adc:	d2800228 	mov	x8, #0x11                  	// #17
     ae0:	d4000001 	svc	#0x0
     ae4:	d65f03c0 	ret

0000000000000ae8 <utee_hash_init>:
utee_hash_init():
/home/lagadanu/Desktop/qemu/optee_os/lib/libutee/arch/arm/utee_syscalls_asm.S:46
     ae8:	d2800248 	mov	x8, #0x12                  	// #18
     aec:	d4000001 	svc	#0x0
     af0:	d65f03c0 	ret

0000000000000af4 <utee_hash_update>:
utee_hash_update():
/home/lagadanu/Desktop/qemu/optee_os/lib/libutee/arch/arm/utee_syscalls_asm.S:48
     af4:	d2800268 	mov	x8, #0x13                  	// #19
     af8:	d4000001 	svc	#0x0
     afc:	d65f03c0 	ret

0000000000000b00 <utee_hash_final>:
utee_hash_final():
/home/lagadanu/Desktop/qemu/optee_os/lib/libutee/arch/arm/utee_syscalls_asm.S:50
     b00:	d2800288 	mov	x8, #0x14                  	// #20
     b04:	d4000001 	svc	#0x0
     b08:	d65f03c0 	ret

0000000000000b0c <utee_cipher_init>:
utee_cipher_init():
/home/lagadanu/Desktop/qemu/optee_os/lib/libutee/arch/arm/utee_syscalls_asm.S:52
     b0c:	d28002a8 	mov	x8, #0x15                  	// #21
     b10:	d4000001 	svc	#0x0
     b14:	d65f03c0 	ret

0000000000000b18 <utee_cipher_update>:
utee_cipher_update():
/home/lagadanu/Desktop/qemu/optee_os/lib/libutee/arch/arm/utee_syscalls_asm.S:54
     b18:	d28002c8 	mov	x8, #0x16                  	// #22
     b1c:	d4000001 	svc	#0x0
     b20:	d65f03c0 	ret

0000000000000b24 <utee_cipher_final>:
utee_cipher_final():
/home/lagadanu/Desktop/qemu/optee_os/lib/libutee/arch/arm/utee_syscalls_asm.S:56
     b24:	d28002e8 	mov	x8, #0x17                  	// #23
     b28:	d4000001 	svc	#0x0
     b2c:	d65f03c0 	ret

0000000000000b30 <utee_cryp_obj_get_info>:
utee_cryp_obj_get_info():
/home/lagadanu/Desktop/qemu/optee_os/lib/libutee/arch/arm/utee_syscalls_asm.S:58
     b30:	d2800308 	mov	x8, #0x18                  	// #24
     b34:	d4000001 	svc	#0x0
     b38:	d65f03c0 	ret

0000000000000b3c <utee_cryp_obj_restrict_usage>:
utee_cryp_obj_restrict_usage():
/home/lagadanu/Desktop/qemu/optee_os/lib/libutee/arch/arm/utee_syscalls_asm.S:60
     b3c:	d2800328 	mov	x8, #0x19                  	// #25
     b40:	d4000001 	svc	#0x0
     b44:	d65f03c0 	ret

0000000000000b48 <utee_cryp_obj_get_attr>:
utee_cryp_obj_get_attr():
/home/lagadanu/Desktop/qemu/optee_os/lib/libutee/arch/arm/utee_syscalls_asm.S:63
     b48:	d2800348 	mov	x8, #0x1a                  	// #26
     b4c:	d4000001 	svc	#0x0
     b50:	d65f03c0 	ret

0000000000000b54 <utee_cryp_obj_alloc>:
utee_cryp_obj_alloc():
/home/lagadanu/Desktop/qemu/optee_os/lib/libutee/arch/arm/utee_syscalls_asm.S:65
     b54:	d2800368 	mov	x8, #0x1b                  	// #27
     b58:	d4000001 	svc	#0x0
     b5c:	d65f03c0 	ret

0000000000000b60 <utee_cryp_obj_close>:
utee_cryp_obj_close():
/home/lagadanu/Desktop/qemu/optee_os/lib/libutee/arch/arm/utee_syscalls_asm.S:67
     b60:	d2800388 	mov	x8, #0x1c                  	// #28
     b64:	d4000001 	svc	#0x0
     b68:	d65f03c0 	ret

0000000000000b6c <utee_cryp_obj_reset>:
utee_cryp_obj_reset():
/home/lagadanu/Desktop/qemu/optee_os/lib/libutee/arch/arm/utee_syscalls_asm.S:69
     b6c:	d28003a8 	mov	x8, #0x1d                  	// #29
     b70:	d4000001 	svc	#0x0
     b74:	d65f03c0 	ret

0000000000000b78 <utee_cryp_obj_populate>:
utee_cryp_obj_populate():
/home/lagadanu/Desktop/qemu/optee_os/lib/libutee/arch/arm/utee_syscalls_asm.S:71
     b78:	d28003c8 	mov	x8, #0x1e                  	// #30
     b7c:	d4000001 	svc	#0x0
     b80:	d65f03c0 	ret

0000000000000b84 <utee_cryp_obj_copy>:
utee_cryp_obj_copy():
/home/lagadanu/Desktop/qemu/optee_os/lib/libutee/arch/arm/utee_syscalls_asm.S:73
     b84:	d28003e8 	mov	x8, #0x1f                  	// #31
     b88:	d4000001 	svc	#0x0
     b8c:	d65f03c0 	ret

0000000000000b90 <utee_cryp_derive_key>:
utee_cryp_derive_key():
/home/lagadanu/Desktop/qemu/optee_os/lib/libutee/arch/arm/utee_syscalls_asm.S:75
     b90:	d2800408 	mov	x8, #0x20                  	// #32
     b94:	d4000001 	svc	#0x0
     b98:	d65f03c0 	ret

0000000000000b9c <utee_cryp_random_number_generate>:
utee_cryp_random_number_generate():
/home/lagadanu/Desktop/qemu/optee_os/lib/libutee/arch/arm/utee_syscalls_asm.S:77
     b9c:	d2800428 	mov	x8, #0x21                  	// #33
     ba0:	d4000001 	svc	#0x0
     ba4:	d65f03c0 	ret

0000000000000ba8 <utee_authenc_init>:
utee_authenc_init():
/home/lagadanu/Desktop/qemu/optee_os/lib/libutee/arch/arm/utee_syscalls_asm.S:80
     ba8:	d2800448 	mov	x8, #0x22                  	// #34
     bac:	d4000001 	svc	#0x0
     bb0:	d65f03c0 	ret

0000000000000bb4 <utee_authenc_update_aad>:
utee_authenc_update_aad():
/home/lagadanu/Desktop/qemu/optee_os/lib/libutee/arch/arm/utee_syscalls_asm.S:82
     bb4:	d2800468 	mov	x8, #0x23                  	// #35
     bb8:	d4000001 	svc	#0x0
     bbc:	d65f03c0 	ret

0000000000000bc0 <utee_authenc_update_payload>:
utee_authenc_update_payload():
/home/lagadanu/Desktop/qemu/optee_os/lib/libutee/arch/arm/utee_syscalls_asm.S:84
     bc0:	d2800488 	mov	x8, #0x24                  	// #36
     bc4:	d4000001 	svc	#0x0
     bc8:	d65f03c0 	ret

0000000000000bcc <utee_authenc_enc_final>:
utee_authenc_enc_final():
/home/lagadanu/Desktop/qemu/optee_os/lib/libutee/arch/arm/utee_syscalls_asm.S:87
     bcc:	d28004a8 	mov	x8, #0x25                  	// #37
     bd0:	d4000001 	svc	#0x0
     bd4:	d65f03c0 	ret

0000000000000bd8 <utee_authenc_dec_final>:
utee_authenc_dec_final():
/home/lagadanu/Desktop/qemu/optee_os/lib/libutee/arch/arm/utee_syscalls_asm.S:89
     bd8:	d28004c8 	mov	x8, #0x26                  	// #38
     bdc:	d4000001 	svc	#0x0
     be0:	d65f03c0 	ret

0000000000000be4 <utee_asymm_operate>:
utee_asymm_operate():
/home/lagadanu/Desktop/qemu/optee_os/lib/libutee/arch/arm/utee_syscalls_asm.S:91
     be4:	d28004e8 	mov	x8, #0x27                  	// #39
     be8:	d4000001 	svc	#0x0
     bec:	d65f03c0 	ret

0000000000000bf0 <utee_asymm_verify>:
utee_asymm_verify():
/home/lagadanu/Desktop/qemu/optee_os/lib/libutee/arch/arm/utee_syscalls_asm.S:93
     bf0:	d2800508 	mov	x8, #0x28                  	// #40
     bf4:	d4000001 	svc	#0x0
     bf8:	d65f03c0 	ret

0000000000000bfc <utee_storage_obj_open>:
utee_storage_obj_open():
/home/lagadanu/Desktop/qemu/optee_os/lib/libutee/arch/arm/utee_syscalls_asm.S:95
     bfc:	d2800528 	mov	x8, #0x29                  	// #41
     c00:	d4000001 	svc	#0x0
     c04:	d65f03c0 	ret

0000000000000c08 <utee_storage_obj_create>:
utee_storage_obj_create():
/home/lagadanu/Desktop/qemu/optee_os/lib/libutee/arch/arm/utee_syscalls_asm.S:97
     c08:	d2800548 	mov	x8, #0x2a                  	// #42
     c0c:	d4000001 	svc	#0x0
     c10:	d65f03c0 	ret

0000000000000c14 <utee_storage_obj_del>:
utee_storage_obj_del():
/home/lagadanu/Desktop/qemu/optee_os/lib/libutee/arch/arm/utee_syscalls_asm.S:99
     c14:	d2800568 	mov	x8, #0x2b                  	// #43
     c18:	d4000001 	svc	#0x0
     c1c:	d65f03c0 	ret

0000000000000c20 <utee_storage_obj_rename>:
utee_storage_obj_rename():
/home/lagadanu/Desktop/qemu/optee_os/lib/libutee/arch/arm/utee_syscalls_asm.S:101
     c20:	d2800588 	mov	x8, #0x2c                  	// #44
     c24:	d4000001 	svc	#0x0
     c28:	d65f03c0 	ret

0000000000000c2c <utee_storage_alloc_enum>:
utee_storage_alloc_enum():
/home/lagadanu/Desktop/qemu/optee_os/lib/libutee/arch/arm/utee_syscalls_asm.S:103
     c2c:	d28005a8 	mov	x8, #0x2d                  	// #45
     c30:	d4000001 	svc	#0x0
     c34:	d65f03c0 	ret

0000000000000c38 <utee_storage_free_enum>:
utee_storage_free_enum():
/home/lagadanu/Desktop/qemu/optee_os/lib/libutee/arch/arm/utee_syscalls_asm.S:105
     c38:	d28005c8 	mov	x8, #0x2e                  	// #46
     c3c:	d4000001 	svc	#0x0
     c40:	d65f03c0 	ret

0000000000000c44 <utee_storage_reset_enum>:
utee_storage_reset_enum():
/home/lagadanu/Desktop/qemu/optee_os/lib/libutee/arch/arm/utee_syscalls_asm.S:107
     c44:	d28005e8 	mov	x8, #0x2f                  	// #47
     c48:	d4000001 	svc	#0x0
     c4c:	d65f03c0 	ret

0000000000000c50 <utee_storage_start_enum>:
utee_storage_start_enum():
/home/lagadanu/Desktop/qemu/optee_os/lib/libutee/arch/arm/utee_syscalls_asm.S:109
     c50:	d2800608 	mov	x8, #0x30                  	// #48
     c54:	d4000001 	svc	#0x0
     c58:	d65f03c0 	ret

0000000000000c5c <utee_storage_next_enum>:
utee_storage_next_enum():
/home/lagadanu/Desktop/qemu/optee_os/lib/libutee/arch/arm/utee_syscalls_asm.S:111
     c5c:	d2800628 	mov	x8, #0x31                  	// #49
     c60:	d4000001 	svc	#0x0
     c64:	d65f03c0 	ret

0000000000000c68 <utee_storage_obj_read>:
utee_storage_obj_read():
/home/lagadanu/Desktop/qemu/optee_os/lib/libutee/arch/arm/utee_syscalls_asm.S:113
     c68:	d2800648 	mov	x8, #0x32                  	// #50
     c6c:	d4000001 	svc	#0x0
     c70:	d65f03c0 	ret

0000000000000c74 <utee_storage_obj_write>:
utee_storage_obj_write():
/home/lagadanu/Desktop/qemu/optee_os/lib/libutee/arch/arm/utee_syscalls_asm.S:115
     c74:	d2800668 	mov	x8, #0x33                  	// #51
     c78:	d4000001 	svc	#0x0
     c7c:	d65f03c0 	ret

0000000000000c80 <utee_storage_obj_trunc>:
utee_storage_obj_trunc():
/home/lagadanu/Desktop/qemu/optee_os/lib/libutee/arch/arm/utee_syscalls_asm.S:117
     c80:	d2800688 	mov	x8, #0x34                  	// #52
     c84:	d4000001 	svc	#0x0
     c88:	d65f03c0 	ret

0000000000000c8c <utee_storage_obj_seek>:
utee_storage_obj_seek():
/home/lagadanu/Desktop/qemu/optee_os/lib/libutee/arch/arm/utee_syscalls_asm.S:119
     c8c:	d28006a8 	mov	x8, #0x35                  	// #53
     c90:	d4000001 	svc	#0x0
     c94:	d65f03c0 	ret

0000000000000c98 <utee_cryp_obj_generate_key>:
utee_cryp_obj_generate_key():
/home/lagadanu/Desktop/qemu/optee_os/lib/libutee/arch/arm/utee_syscalls_asm.S:121
     c98:	d28006c8 	mov	x8, #0x36                  	// #54
     c9c:	d4000001 	svc	#0x0
     ca0:	d65f03c0 	ret

0000000000000ca4 <utee_se_service_open>:
utee_se_service_open():
/home/lagadanu/Desktop/qemu/optee_os/lib/libutee/arch/arm/utee_syscalls_asm.S:124
     ca4:	d28006e8 	mov	x8, #0x37                  	// #55
     ca8:	d4000001 	svc	#0x0
     cac:	d65f03c0 	ret

0000000000000cb0 <utee_se_service_close>:
utee_se_service_close():
/home/lagadanu/Desktop/qemu/optee_os/lib/libutee/arch/arm/utee_syscalls_asm.S:126
     cb0:	d2800708 	mov	x8, #0x38                  	// #56
     cb4:	d4000001 	svc	#0x0
     cb8:	d65f03c0 	ret

0000000000000cbc <utee_se_service_get_readers>:
utee_se_service_get_readers():
/home/lagadanu/Desktop/qemu/optee_os/lib/libutee/arch/arm/utee_syscalls_asm.S:128
     cbc:	d2800728 	mov	x8, #0x39                  	// #57
     cc0:	d4000001 	svc	#0x0
     cc4:	d65f03c0 	ret

0000000000000cc8 <utee_se_reader_get_prop>:
utee_se_reader_get_prop():
/home/lagadanu/Desktop/qemu/optee_os/lib/libutee/arch/arm/utee_syscalls_asm.S:131
     cc8:	d2800748 	mov	x8, #0x3a                  	// #58
     ccc:	d4000001 	svc	#0x0
     cd0:	d65f03c0 	ret

0000000000000cd4 <utee_se_reader_get_name>:
utee_se_reader_get_name():
/home/lagadanu/Desktop/qemu/optee_os/lib/libutee/arch/arm/utee_syscalls_asm.S:134
     cd4:	d2800768 	mov	x8, #0x3b                  	// #59
     cd8:	d4000001 	svc	#0x0
     cdc:	d65f03c0 	ret

0000000000000ce0 <utee_se_reader_open_session>:
utee_se_reader_open_session():
/home/lagadanu/Desktop/qemu/optee_os/lib/libutee/arch/arm/utee_syscalls_asm.S:137
     ce0:	d2800788 	mov	x8, #0x3c                  	// #60
     ce4:	d4000001 	svc	#0x0
     ce8:	d65f03c0 	ret

0000000000000cec <utee_se_reader_close_sessions>:
utee_se_reader_close_sessions():
/home/lagadanu/Desktop/qemu/optee_os/lib/libutee/arch/arm/utee_syscalls_asm.S:140
     cec:	d28007a8 	mov	x8, #0x3d                  	// #61
     cf0:	d4000001 	svc	#0x0
     cf4:	d65f03c0 	ret

0000000000000cf8 <utee_se_session_is_closed>:
utee_se_session_is_closed():
/home/lagadanu/Desktop/qemu/optee_os/lib/libutee/arch/arm/utee_syscalls_asm.S:143
     cf8:	d28007c8 	mov	x8, #0x3e                  	// #62
     cfc:	d4000001 	svc	#0x0
     d00:	d65f03c0 	ret

0000000000000d04 <utee_se_session_get_atr>:
utee_se_session_get_atr():
/home/lagadanu/Desktop/qemu/optee_os/lib/libutee/arch/arm/utee_syscalls_asm.S:146
     d04:	d28007e8 	mov	x8, #0x3f                  	// #63
     d08:	d4000001 	svc	#0x0
     d0c:	d65f03c0 	ret

0000000000000d10 <utee_se_session_open_channel>:
utee_se_session_open_channel():
/home/lagadanu/Desktop/qemu/optee_os/lib/libutee/arch/arm/utee_syscalls_asm.S:149
     d10:	d2800808 	mov	x8, #0x40                  	// #64
     d14:	d4000001 	svc	#0x0
     d18:	d65f03c0 	ret

0000000000000d1c <utee_se_session_close>:
utee_se_session_close():
/home/lagadanu/Desktop/qemu/optee_os/lib/libutee/arch/arm/utee_syscalls_asm.S:152
     d1c:	d2800828 	mov	x8, #0x41                  	// #65
     d20:	d4000001 	svc	#0x0
     d24:	d65f03c0 	ret

0000000000000d28 <utee_se_channel_select_next>:
utee_se_channel_select_next():
/home/lagadanu/Desktop/qemu/optee_os/lib/libutee/arch/arm/utee_syscalls_asm.S:155
     d28:	d2800848 	mov	x8, #0x42                  	// #66
     d2c:	d4000001 	svc	#0x0
     d30:	d65f03c0 	ret

0000000000000d34 <utee_se_channel_get_select_resp>:
utee_se_channel_get_select_resp():
/home/lagadanu/Desktop/qemu/optee_os/lib/libutee/arch/arm/utee_syscalls_asm.S:158
     d34:	d2800868 	mov	x8, #0x43                  	// #67
     d38:	d4000001 	svc	#0x0
     d3c:	d65f03c0 	ret

0000000000000d40 <utee_se_channel_transmit>:
utee_se_channel_transmit():
/home/lagadanu/Desktop/qemu/optee_os/lib/libutee/arch/arm/utee_syscalls_asm.S:161
     d40:	d2800888 	mov	x8, #0x44                  	// #68
     d44:	d4000001 	svc	#0x0
     d48:	d65f03c0 	ret

0000000000000d4c <utee_se_channel_close>:
utee_se_channel_close():
/home/lagadanu/Desktop/qemu/optee_os/lib/libutee/arch/arm/utee_syscalls_asm.S:164
     d4c:	d28008a8 	mov	x8, #0x45                  	// #69
     d50:	d4000001 	svc	#0x0
     d54:	d65f03c0 	ret

0000000000000d58 <utee_cache_operation>:
utee_cache_operation():
/home/lagadanu/Desktop/qemu/optee_os/lib/libutee/arch/arm/utee_syscalls_asm.S:167
     d58:	d28008c8 	mov	x8, #0x46                  	// #70
     d5c:	d4000001 	svc	#0x0
     d60:	d65f03c0 	ret

0000000000000d64 <__utee_mcount>:
__utee_mcount():
/home/lagadanu/Desktop/qemu/optee_os/lib/libutee/arch/arm/gprof/gprof_a64.S:52
     d64:	d65f03c0 	ret

0000000000000d68 <_TEE_MathAPI_Init>:
_TEE_MathAPI_Init():
/home/lagadanu/Desktop/qemu/optee_os/lib/libutee/tee_api_arith.c:50
     d68:	a9be7bfd 	stp	x29, x30, [sp,#-32]!
/home/lagadanu/Desktop/qemu/optee_os/lib/libutee/tee_api_arith.c:53
     d6c:	d2800002 	mov	x2, #0x0                   	// #0
     d70:	d2833001 	mov	x1, #0x1980                	// #6528
     d74:	b00000c0 	adrp	x0, 19000 <ta_heap+0xfeb8>
/home/lagadanu/Desktop/qemu/optee_os/lib/libutee/tee_api_arith.c:50
     d78:	910003fd 	mov	x29, sp
     d7c:	f9000bf3 	str	x19, [sp,#16]
/home/lagadanu/Desktop/qemu/optee_os/lib/libutee/tee_api_arith.c:53
     d80:	91066000 	add	x0, x0, #0x198
     d84:	9400194a 	bl	72ac <mempool_alloc_pool>
     d88:	d00000c1 	adrp	x1, 1a000 <mempool_u32+0xe68>
     d8c:	910a6022 	add	x2, x1, #0x298
     d90:	aa0103f3 	mov	x19, x1
     d94:	f9044040 	str	x0, [x2,#2176]
/home/lagadanu/Desktop/qemu/optee_os/lib/libutee/tee_api_arith.c:54
     d98:	b5000040 	cbnz	x0, da0 <_TEE_MathAPI_Init+0x38>
/home/lagadanu/Desktop/qemu/optee_os/lib/libutee/tee_api_arith.c:55
     d9c:	97fffe67 	bl	738 <TEE_Panic>
/home/lagadanu/Desktop/qemu/optee_os/lib/libutee/tee_api_arith.c:61
     da0:	910a6260 	add	x0, x19, #0x298
     da4:	52820002 	mov	w2, #0x1000                	// #4096
/home/lagadanu/Desktop/qemu/optee_os/lib/libutee/tee_api_arith.c:63
     da8:	f9400bf3 	ldr	x19, [sp,#16]
/home/lagadanu/Desktop/qemu/optee_os/lib/libutee/tee_api_arith.c:61
     dac:	91220001 	add	x1, x0, #0x880
     db0:	b9088802 	str	w2, [x0,#2184]
/home/lagadanu/Desktop/qemu/optee_os/lib/libutee/tee_api_arith.c:62
     db4:	f9044801 	str	x1, [x0,#2192]
/home/lagadanu/Desktop/qemu/optee_os/lib/libutee/tee_api_arith.c:63
     db8:	a8c27bfd 	ldp	x29, x30, [sp],#32
     dbc:	d65f03c0 	ret

0000000000000dc0 <TEE_BigIntInit>:
TEE_BigIntInit():
/home/lagadanu/Desktop/qemu/optee_os/lib/libutee/tee_api_arith.c:70
     dc0:	14000e4d 	b	46f4 <mpa_init_static>

0000000000000dc4 <TEE_BigIntInitFMM>:
TEE_BigIntInitFMM():
/home/lagadanu/Desktop/qemu/optee_os/lib/libutee/tee_api_arith.c:80
     dc4:	531e7421 	lsl	w1, w1, #2
     dc8:	51002021 	sub	w1, w1, #0x8
     dcc:	d3427c21 	ubfx	x1, x1, #2, #30
/home/lagadanu/Desktop/qemu/optee_os/lib/libutee/tee_api_arith.c:81
     dd0:	29007c01 	stp	w1, wzr, [x0]
     dd4:	d65f03c0 	ret

0000000000000dd8 <TEE_BigIntInitFMMContext>:
TEE_BigIntInitFMMContext():
/home/lagadanu/Desktop/qemu/optee_os/lib/libutee/tee_api_arith.c:89
     dd8:	a9be7bfd 	stp	x29, x30, [sp,#-32]!
     ddc:	910003fd 	mov	x29, sp
     de0:	a90153f3 	stp	x19, x20, [sp,#16]
     de4:	aa0003f3 	mov	x19, x0
     de8:	aa0203f4 	mov	x20, x2
/home/lagadanu/Desktop/qemu/optee_os/lib/libutee/tee_api_arith.c:93
     dec:	94000e49 	bl	4710 <mpa_init_static_fmm_context>
/home/lagadanu/Desktop/qemu/optee_os/lib/libutee/tee_api_arith.c:94
     df0:	d00000c0 	adrp	x0, 1a000 <mempool_u32+0xe68>
     df4:	91004263 	add	x3, x19, #0x10
     df8:	a9400a61 	ldp	x1, x2, [x19]
     dfc:	f9459404 	ldr	x4, [x0,#2856]
     e00:	aa1403e0 	mov	x0, x20
/home/lagadanu/Desktop/qemu/optee_os/lib/libutee/tee_api_arith.c:97
     e04:	a94153f3 	ldp	x19, x20, [sp,#16]
     e08:	a8c27bfd 	ldp	x29, x30, [sp],#32
/home/lagadanu/Desktop/qemu/optee_os/lib/libutee/tee_api_arith.c:94
     e0c:	140002e0 	b	198c <mpa_compute_fmm_context>

0000000000000e10 <TEE_BigIntFMMSizeInU32>:
TEE_BigIntFMMSizeInU32():
/home/lagadanu/Desktop/qemu/optee_os/lib/libutee/tee_api_arith.c:108
     e10:	11007c00 	add	w0, w0, #0x1f
     e14:	53057c00 	lsr	w0, w0, #5
/home/lagadanu/Desktop/qemu/optee_os/lib/libutee/tee_api_arith.c:109
     e18:	11000c00 	add	w0, w0, #0x3
     e1c:	d65f03c0 	ret

0000000000000e20 <TEE_BigIntFMMContextSizeInU32>:
TEE_BigIntFMMContextSizeInU32():
/home/lagadanu/Desktop/qemu/optee_os/lib/libutee/tee_api_arith.c:116
     e20:	11007c00 	add	w0, w0, #0x1f
     e24:	53057c00 	lsr	w0, w0, #5
     e28:	11001c00 	add	w0, w0, #0x7
/home/lagadanu/Desktop/qemu/optee_os/lib/libutee/tee_api_arith.c:117
     e2c:	531f7800 	lsl	w0, w0, #1
     e30:	d65f03c0 	ret

0000000000000e34 <TEE_BigIntConvertFromOctetString>:
TEE_BigIntConvertFromOctetString():
/home/lagadanu/Desktop/qemu/optee_os/lib/libutee/tee_api_arith.c:130
     e34:	a9bf7bfd 	stp	x29, x30, [sp,#-16]!
/home/lagadanu/Desktop/qemu/optee_os/lib/libutee/tee_api_arith.c:135
     e38:	531f7c63 	lsr	w3, w3, #31
     e3c:	2a0203e2 	mov	w2, w2
/home/lagadanu/Desktop/qemu/optee_os/lib/libutee/tee_api_arith.c:130
     e40:	910003fd 	mov	x29, sp
/home/lagadanu/Desktop/qemu/optee_os/lib/libutee/tee_api_arith.c:135
     e44:	94000f7b 	bl	4c30 <mpa_set_oct_str>
/home/lagadanu/Desktop/qemu/optee_os/lib/libutee/tee_api_arith.c:136
     e48:	7100001f 	cmp	w0, #0x0
/home/lagadanu/Desktop/qemu/optee_os/lib/libutee/tee_api_arith.c:145
     e4c:	a8c17bfd 	ldp	x29, x30, [sp],#16
     e50:	1299fe00 	mov	w0, #0xffff300f            	// #-53233
     e54:	1a9f1000 	csel	w0, w0, wzr, ne
     e58:	d65f03c0 	ret

0000000000000e5c <TEE_BigIntConvertToOctetString>:
TEE_BigIntConvertToOctetString():
/home/lagadanu/Desktop/qemu/optee_os/lib/libutee/tee_api_arith.c:153
     e5c:	a9bd7bfd 	stp	x29, x30, [sp,#-48]!
     e60:	910003fd 	mov	x29, sp
     e64:	f9000bf3 	str	x19, [sp,#16]
     e68:	aa0103f3 	mov	x19, x1
/home/lagadanu/Desktop/qemu/optee_os/lib/libutee/tee_api_arith.c:155
     e6c:	9100c3a1 	add	x1, x29, #0x30
     e70:	b9400263 	ldr	w3, [x19]
     e74:	f81f8c23 	str	x3, [x1,#-8]!
/home/lagadanu/Desktop/qemu/optee_os/lib/libutee/tee_api_arith.c:158
     e78:	94000fb2 	bl	4d40 <mpa_get_oct_str>
/home/lagadanu/Desktop/qemu/optee_os/lib/libutee/tee_api_arith.c:159
     e7c:	7100001f 	cmp	w0, #0x0
/home/lagadanu/Desktop/qemu/optee_os/lib/libutee/tee_api_arith.c:163
     e80:	f94017a0 	ldr	x0, [x29,#40]
     e84:	b9000260 	str	w0, [x19]
/home/lagadanu/Desktop/qemu/optee_os/lib/libutee/tee_api_arith.c:170
     e88:	f9400bf3 	ldr	x19, [sp,#16]
     e8c:	129ffde0 	mov	w0, #0xffff0010            	// #-65520
     e90:	1a9f1000 	csel	w0, w0, wzr, ne
     e94:	a8c37bfd 	ldp	x29, x30, [sp],#48
     e98:	d65f03c0 	ret

0000000000000e9c <TEE_BigIntConvertFromS32>:
TEE_BigIntConvertFromS32():
/home/lagadanu/Desktop/qemu/optee_os/lib/libutee/tee_api_arith.c:180
     e9c:	14000418 	b	1efc <mpa_set_S32>

0000000000000ea0 <TEE_BigIntConvertToS32>:
TEE_BigIntConvertToS32():
/home/lagadanu/Desktop/qemu/optee_os/lib/libutee/tee_api_arith.c:190
     ea0:	a9bf7bfd 	stp	x29, x30, [sp,#-16]!
     ea4:	910003fd 	mov	x29, sp
/home/lagadanu/Desktop/qemu/optee_os/lib/libutee/tee_api_arith.c:194
     ea8:	94000420 	bl	1f28 <mpa_get_S32>
/home/lagadanu/Desktop/qemu/optee_os/lib/libutee/tee_api_arith.c:195
     eac:	7100001f 	cmp	w0, #0x0
/home/lagadanu/Desktop/qemu/optee_os/lib/libutee/tee_api_arith.c:204
     eb0:	a8c17bfd 	ldp	x29, x30, [sp],#16
     eb4:	1299fe00 	mov	w0, #0xffff300f            	// #-53233
     eb8:	1a9f1000 	csel	w0, w0, wzr, ne
     ebc:	d65f03c0 	ret

0000000000000ec0 <TEE_BigIntCmp>:
TEE_BigIntCmp():
/home/lagadanu/Desktop/qemu/optee_os/lib/libutee/tee_api_arith.c:218
     ec0:	14000d63 	b	444c <mpa_cmp>

0000000000000ec4 <TEE_BigIntCmpS32>:
TEE_BigIntCmpS32():
/home/lagadanu/Desktop/qemu/optee_os/lib/libutee/tee_api_arith.c:228
     ec4:	14000d7c 	b	44b4 <mpa_cmp_short>

0000000000000ec8 <TEE_BigIntShiftRight>:
TEE_BigIntShiftRight():
/home/lagadanu/Desktop/qemu/optee_os/lib/libutee/tee_api_arith.c:240
     ec8:	14000a9a 	b	3930 <mpa_shift_right>

0000000000000ecc <TEE_BigIntGetBit>:
TEE_BigIntGetBit():
/home/lagadanu/Desktop/qemu/optee_os/lib/libutee/tee_api_arith.c:247
     ecc:	a9bf7bfd 	stp	x29, x30, [sp,#-16]!
     ed0:	910003fd 	mov	x29, sp
/home/lagadanu/Desktop/qemu/optee_os/lib/libutee/tee_api_arith.c:250
     ed4:	94000205 	bl	16e8 <mpa_get_bit>
     ed8:	7100001f 	cmp	w0, #0x0
/home/lagadanu/Desktop/qemu/optee_os/lib/libutee/tee_api_arith.c:251
     edc:	1a9f07e0 	cset	w0, ne
     ee0:	a8c17bfd 	ldp	x29, x30, [sp],#16
     ee4:	d65f03c0 	ret

0000000000000ee8 <TEE_BigIntGetBitCount>:
TEE_BigIntGetBitCount():
/home/lagadanu/Desktop/qemu/optee_os/lib/libutee/tee_api_arith.c:257
     ee8:	a9bf7bfd 	stp	x29, x30, [sp,#-16]!
     eec:	910003fd 	mov	x29, sp
/home/lagadanu/Desktop/qemu/optee_os/lib/libutee/tee_api_arith.c:260
     ef0:	940001ed 	bl	16a4 <mpa_highest_bit_index>
/home/lagadanu/Desktop/qemu/optee_os/lib/libutee/tee_api_arith.c:261
     ef4:	11000400 	add	w0, w0, #0x1
     ef8:	a8c17bfd 	ldp	x29, x30, [sp],#16
     efc:	d65f03c0 	ret

0000000000000f00 <TEE_BigIntAdd>:
TEE_BigIntAdd():
/home/lagadanu/Desktop/qemu/optee_os/lib/libutee/tee_api_arith.c:277
     f00:	d00000c3 	adrp	x3, 1a000 <mempool_u32+0xe68>
     f04:	f9459463 	ldr	x3, [x3,#2856]
     f08:	14000ba4 	b	3d98 <mpa_add>

0000000000000f0c <TEE_BigIntSub>:
TEE_BigIntSub():
/home/lagadanu/Desktop/qemu/optee_os/lib/libutee/tee_api_arith.c:290
     f0c:	d00000c3 	adrp	x3, 1a000 <mempool_u32+0xe68>
     f10:	f9459463 	ldr	x3, [x3,#2856]
     f14:	14000c06 	b	3f2c <mpa_sub>

0000000000000f18 <TEE_BigIntNeg>:
TEE_BigIntNeg():
/home/lagadanu/Desktop/qemu/optee_os/lib/libutee/tee_api_arith.c:301
     f18:	14000c6c 	b	40c8 <mpa_neg>

0000000000000f1c <TEE_BigIntMul>:
TEE_BigIntMul():
/home/lagadanu/Desktop/qemu/optee_os/lib/libutee/tee_api_arith.c:314
     f1c:	d00000c3 	adrp	x3, 1a000 <mempool_u32+0xe68>
     f20:	f9459463 	ldr	x3, [x3,#2856]
     f24:	1400091a 	b	338c <mpa_mul>

0000000000000f28 <TEE_BigIntSquare>:
TEE_BigIntSquare():
/home/lagadanu/Desktop/qemu/optee_os/lib/libutee/tee_api_arith.c:325
     f28:	d00000c2 	adrp	x2, 1a000 <mempool_u32+0xe68>
     f2c:	f9459443 	ldr	x3, [x2,#2856]
     f30:	aa0103e2 	mov	x2, x1
     f34:	14000916 	b	338c <mpa_mul>

0000000000000f38 <TEE_BigIntDiv>:
TEE_BigIntDiv():
/home/lagadanu/Desktop/qemu/optee_os/lib/libutee/tee_api_arith.c:333
     f38:	a9bd7bfd 	stp	x29, x30, [sp,#-48]!
     f3c:	910003fd 	mov	x29, sp
     f40:	a90153f3 	stp	x19, x20, [sp,#16]
     f44:	aa0003f4 	mov	x20, x0
     f48:	a9025bf5 	stp	x21, x22, [sp,#32]
     f4c:	aa0303f3 	mov	x19, x3
     f50:	aa0103f5 	mov	x21, x1
     f54:	aa0203f6 	mov	x22, x2
TEE_BigIntCmpS32():
/home/lagadanu/Desktop/qemu/optee_os/lib/libutee/tee_api_arith.c:228
     f58:	52800001 	mov	w1, #0x0                   	// #0
     f5c:	aa0303e0 	mov	x0, x3
     f60:	94000d55 	bl	44b4 <mpa_cmp_short>
TEE_BigIntDiv():
/home/lagadanu/Desktop/qemu/optee_os/lib/libutee/tee_api_arith.c:339
     f64:	35000080 	cbnz	w0, f74 <TEE_BigIntDiv+0x3c>
/home/lagadanu/Desktop/qemu/optee_os/lib/libutee/tee_api_arith.c:340
     f68:	90000040 	adrp	x0, 8000 <PRIME_TABLE+0xb30>
     f6c:	910fb400 	add	x0, x0, #0x3ed
     f70:	9400012f 	bl	142c <TEE_BigInt_Panic>
/home/lagadanu/Desktop/qemu/optee_os/lib/libutee/tee_api_arith.c:342
     f74:	d00000c0 	adrp	x0, 1a000 <mempool_u32+0xe68>
     f78:	aa1303e3 	mov	x3, x19
     f7c:	aa1603e2 	mov	x2, x22
     f80:	aa1503e1 	mov	x1, x21
     f84:	f9459404 	ldr	x4, [x0,#2856]
     f88:	aa1403e0 	mov	x0, x20
/home/lagadanu/Desktop/qemu/optee_os/lib/libutee/tee_api_arith.c:343
     f8c:	a9425bf5 	ldp	x21, x22, [sp,#32]
     f90:	a94153f3 	ldp	x19, x20, [sp,#16]
     f94:	a8c37bfd 	ldp	x29, x30, [sp],#48
/home/lagadanu/Desktop/qemu/optee_os/lib/libutee/tee_api_arith.c:342
     f98:	14000614 	b	27e8 <mpa_div>

0000000000000f9c <TEE_BigIntMod>:
TEE_BigIntMod():
/home/lagadanu/Desktop/qemu/optee_os/lib/libutee/tee_api_arith.c:354
     f9c:	a9bd7bfd 	stp	x29, x30, [sp,#-48]!
     fa0:	910003fd 	mov	x29, sp
     fa4:	a9025bf5 	stp	x21, x22, [sp,#32]
     fa8:	aa0103f6 	mov	x22, x1
     fac:	a90153f3 	stp	x19, x20, [sp,#16]
     fb0:	aa0203f5 	mov	x21, x2
     fb4:	aa0003f4 	mov	x20, x0
TEE_BigIntCmpS32():
/home/lagadanu/Desktop/qemu/optee_os/lib/libutee/tee_api_arith.c:228
     fb8:	52800041 	mov	w1, #0x2                   	// #2
     fbc:	aa0203e0 	mov	x0, x2
     fc0:	94000d3d 	bl	44b4 <mpa_cmp_short>
TEE_BigIntMod():
/home/lagadanu/Desktop/qemu/optee_os/lib/libutee/tee_api_arith.c:359
     fc4:	36f80080 	tbz	w0, #31, fd4 <TEE_BigIntMod+0x38>
/home/lagadanu/Desktop/qemu/optee_os/lib/libutee/tee_api_arith.c:360
     fc8:	90000040 	adrp	x0, 8000 <PRIME_TABLE+0xb30>
     fcc:	910ff400 	add	x0, x0, #0x3fd
     fd0:	94000117 	bl	142c <TEE_BigInt_Panic>
/home/lagadanu/Desktop/qemu/optee_os/lib/libutee/tee_api_arith.c:362
     fd4:	d00000d3 	adrp	x19, 1a000 <mempool_u32+0xe68>
     fd8:	910a6273 	add	x19, x19, #0x298
     fdc:	aa1503e2 	mov	x2, x21
     fe0:	aa1603e1 	mov	x1, x22
     fe4:	aa1403e0 	mov	x0, x20
     fe8:	f9444a63 	ldr	x3, [x19,#2192]
     fec:	94000fb2 	bl	4eb4 <mpa_mod>
/home/lagadanu/Desktop/qemu/optee_os/lib/libutee/tee_api_arith.c:364
     ff0:	52800001 	mov	w1, #0x0                   	// #0
     ff4:	aa1403e0 	mov	x0, x20
     ff8:	94000d2f 	bl	44b4 <mpa_cmp_short>
     ffc:	36f80120 	tbz	w0, #31, 1020 <TEE_BigIntMod+0x84>
/home/lagadanu/Desktop/qemu/optee_os/lib/libutee/tee_api_arith.c:365
    1000:	aa1503e2 	mov	x2, x21
    1004:	aa1403e1 	mov	x1, x20
    1008:	aa1403e0 	mov	x0, x20
    100c:	f9444a63 	ldr	x3, [x19,#2192]
/home/lagadanu/Desktop/qemu/optee_os/lib/libutee/tee_api_arith.c:366
    1010:	a9425bf5 	ldp	x21, x22, [sp,#32]
    1014:	a94153f3 	ldp	x19, x20, [sp,#16]
    1018:	a8c37bfd 	ldp	x29, x30, [sp],#48
/home/lagadanu/Desktop/qemu/optee_os/lib/libutee/tee_api_arith.c:365
    101c:	14000b5f 	b	3d98 <mpa_add>
/home/lagadanu/Desktop/qemu/optee_os/lib/libutee/tee_api_arith.c:366
    1020:	a94153f3 	ldp	x19, x20, [sp,#16]
    1024:	a9425bf5 	ldp	x21, x22, [sp,#32]
    1028:	a8c37bfd 	ldp	x29, x30, [sp],#48
    102c:	d65f03c0 	ret

0000000000001030 <TEE_BigIntAddMod>:
TEE_BigIntAddMod():
/home/lagadanu/Desktop/qemu/optee_os/lib/libutee/tee_api_arith.c:373
    1030:	a9bc7bfd 	stp	x29, x30, [sp,#-64]!
    1034:	910003fd 	mov	x29, sp
    1038:	a9025bf5 	stp	x21, x22, [sp,#32]
    103c:	aa0103f6 	mov	x22, x1
    1040:	a90153f3 	stp	x19, x20, [sp,#16]
    1044:	aa0303f5 	mov	x21, x3
    1048:	f9001bf7 	str	x23, [sp,#48]
    104c:	aa0003f4 	mov	x20, x0
TEE_BigIntCmpS32():
/home/lagadanu/Desktop/qemu/optee_os/lib/libutee/tee_api_arith.c:228
    1050:	52800041 	mov	w1, #0x2                   	// #2
    1054:	aa0303e0 	mov	x0, x3
TEE_BigIntAddMod():
/home/lagadanu/Desktop/qemu/optee_os/lib/libutee/tee_api_arith.c:373
    1058:	aa0203f7 	mov	x23, x2
TEE_BigIntCmpS32():
/home/lagadanu/Desktop/qemu/optee_os/lib/libutee/tee_api_arith.c:228
    105c:	94000d16 	bl	44b4 <mpa_cmp_short>
TEE_BigIntAddMod():
/home/lagadanu/Desktop/qemu/optee_os/lib/libutee/tee_api_arith.c:379
    1060:	36f80080 	tbz	w0, #31, 1070 <TEE_BigIntAddMod+0x40>
/home/lagadanu/Desktop/qemu/optee_os/lib/libutee/tee_api_arith.c:380
    1064:	f0000020 	adrp	x0, 8000 <PRIME_TABLE+0xb30>
    1068:	910ff400 	add	x0, x0, #0x3fd
    106c:	940000f0 	bl	142c <TEE_BigInt_Panic>
/home/lagadanu/Desktop/qemu/optee_os/lib/libutee/tee_api_arith.c:382
    1070:	b00000d3 	adrp	x19, 1a000 <mempool_u32+0xe68>
    1074:	910a6273 	add	x19, x19, #0x298
    1078:	aa1503e3 	mov	x3, x21
    107c:	aa1703e2 	mov	x2, x23
    1080:	aa1603e1 	mov	x1, x22
    1084:	aa1403e0 	mov	x0, x20
    1088:	f9444a64 	ldr	x4, [x19,#2192]
    108c:	94000f90 	bl	4ecc <mpa_add_mod>
/home/lagadanu/Desktop/qemu/optee_os/lib/libutee/tee_api_arith.c:383
    1090:	52800001 	mov	w1, #0x0                   	// #0
    1094:	aa1403e0 	mov	x0, x20
    1098:	94000d07 	bl	44b4 <mpa_cmp_short>
    109c:	36f80140 	tbz	w0, #31, 10c4 <TEE_BigIntAddMod+0x94>
/home/lagadanu/Desktop/qemu/optee_os/lib/libutee/tee_api_arith.c:384
    10a0:	aa1503e2 	mov	x2, x21
    10a4:	aa1403e1 	mov	x1, x20
    10a8:	aa1403e0 	mov	x0, x20
    10ac:	f9444a63 	ldr	x3, [x19,#2192]
/home/lagadanu/Desktop/qemu/optee_os/lib/libutee/tee_api_arith.c:385
    10b0:	a9425bf5 	ldp	x21, x22, [sp,#32]
    10b4:	a94153f3 	ldp	x19, x20, [sp,#16]
    10b8:	f9401bf7 	ldr	x23, [sp,#48]
    10bc:	a8c47bfd 	ldp	x29, x30, [sp],#64
/home/lagadanu/Desktop/qemu/optee_os/lib/libutee/tee_api_arith.c:384
    10c0:	14000b36 	b	3d98 <mpa_add>
/home/lagadanu/Desktop/qemu/optee_os/lib/libutee/tee_api_arith.c:385
    10c4:	a94153f3 	ldp	x19, x20, [sp,#16]
    10c8:	a9425bf5 	ldp	x21, x22, [sp,#32]
    10cc:	f9401bf7 	ldr	x23, [sp,#48]
    10d0:	a8c47bfd 	ldp	x29, x30, [sp],#64
    10d4:	d65f03c0 	ret

00000000000010d8 <TEE_BigIntSubMod>:
TEE_BigIntSubMod():
/home/lagadanu/Desktop/qemu/optee_os/lib/libutee/tee_api_arith.c:392
    10d8:	a9bc7bfd 	stp	x29, x30, [sp,#-64]!
    10dc:	910003fd 	mov	x29, sp
    10e0:	a9025bf5 	stp	x21, x22, [sp,#32]
    10e4:	aa0103f6 	mov	x22, x1
    10e8:	a90153f3 	stp	x19, x20, [sp,#16]
    10ec:	aa0303f5 	mov	x21, x3
    10f0:	f9001bf7 	str	x23, [sp,#48]
    10f4:	aa0003f4 	mov	x20, x0
TEE_BigIntCmpS32():
/home/lagadanu/Desktop/qemu/optee_os/lib/libutee/tee_api_arith.c:228
    10f8:	52800041 	mov	w1, #0x2                   	// #2
    10fc:	aa0303e0 	mov	x0, x3
TEE_BigIntSubMod():
/home/lagadanu/Desktop/qemu/optee_os/lib/libutee/tee_api_arith.c:392
    1100:	aa0203f7 	mov	x23, x2
TEE_BigIntCmpS32():
/home/lagadanu/Desktop/qemu/optee_os/lib/libutee/tee_api_arith.c:228
    1104:	94000cec 	bl	44b4 <mpa_cmp_short>
TEE_BigIntSubMod():
/home/lagadanu/Desktop/qemu/optee_os/lib/libutee/tee_api_arith.c:398
    1108:	36f80080 	tbz	w0, #31, 1118 <TEE_BigIntSubMod+0x40>
/home/lagadanu/Desktop/qemu/optee_os/lib/libutee/tee_api_arith.c:399
    110c:	f0000020 	adrp	x0, 8000 <PRIME_TABLE+0xb30>
    1110:	910ff400 	add	x0, x0, #0x3fd
    1114:	940000c6 	bl	142c <TEE_BigInt_Panic>
/home/lagadanu/Desktop/qemu/optee_os/lib/libutee/tee_api_arith.c:401
    1118:	b00000d3 	adrp	x19, 1a000 <mempool_u32+0xe68>
    111c:	910a6273 	add	x19, x19, #0x298
    1120:	aa1503e3 	mov	x3, x21
    1124:	aa1703e2 	mov	x2, x23
    1128:	aa1603e1 	mov	x1, x22
    112c:	aa1403e0 	mov	x0, x20
    1130:	f9444a64 	ldr	x4, [x19,#2192]
    1134:	94000f87 	bl	4f50 <mpa_sub_mod>
/home/lagadanu/Desktop/qemu/optee_os/lib/libutee/tee_api_arith.c:402
    1138:	52800001 	mov	w1, #0x0                   	// #0
    113c:	aa1403e0 	mov	x0, x20
    1140:	94000cdd 	bl	44b4 <mpa_cmp_short>
    1144:	36f80140 	tbz	w0, #31, 116c <TEE_BigIntSubMod+0x94>
/home/lagadanu/Desktop/qemu/optee_os/lib/libutee/tee_api_arith.c:403
    1148:	aa1503e2 	mov	x2, x21
    114c:	aa1403e1 	mov	x1, x20
    1150:	aa1403e0 	mov	x0, x20
    1154:	f9444a63 	ldr	x3, [x19,#2192]
/home/lagadanu/Desktop/qemu/optee_os/lib/libutee/tee_api_arith.c:404
    1158:	a9425bf5 	ldp	x21, x22, [sp,#32]
    115c:	a94153f3 	ldp	x19, x20, [sp,#16]
    1160:	f9401bf7 	ldr	x23, [sp,#48]
    1164:	a8c47bfd 	ldp	x29, x30, [sp],#64
/home/lagadanu/Desktop/qemu/optee_os/lib/libutee/tee_api_arith.c:403
    1168:	14000b0c 	b	3d98 <mpa_add>
/home/lagadanu/Desktop/qemu/optee_os/lib/libutee/tee_api_arith.c:404
    116c:	a94153f3 	ldp	x19, x20, [sp,#16]
    1170:	a9425bf5 	ldp	x21, x22, [sp,#32]
    1174:	f9401bf7 	ldr	x23, [sp,#48]
    1178:	a8c47bfd 	ldp	x29, x30, [sp],#64
    117c:	d65f03c0 	ret

0000000000001180 <TEE_BigIntMulMod>:
TEE_BigIntMulMod():
/home/lagadanu/Desktop/qemu/optee_os/lib/libutee/tee_api_arith.c:411
    1180:	a9ba7bfd 	stp	x29, x30, [sp,#-96]!
    1184:	910003fd 	mov	x29, sp
    1188:	a90363f7 	stp	x23, x24, [sp,#48]
    118c:	aa0003f7 	mov	x23, x0
    1190:	a90153f3 	stp	x19, x20, [sp,#16]
    1194:	aa0103f8 	mov	x24, x1
    1198:	f90023f9 	str	x25, [sp,#64]
    119c:	aa0303f4 	mov	x20, x3
    11a0:	a9025bf5 	stp	x21, x22, [sp,#32]
TEE_BigIntCmpS32():
/home/lagadanu/Desktop/qemu/optee_os/lib/libutee/tee_api_arith.c:228
    11a4:	52800041 	mov	w1, #0x2                   	// #2
    11a8:	aa0303e0 	mov	x0, x3
TEE_BigIntMulMod():
/home/lagadanu/Desktop/qemu/optee_os/lib/libutee/tee_api_arith.c:411
    11ac:	aa0203f9 	mov	x25, x2
TEE_BigIntCmpS32():
/home/lagadanu/Desktop/qemu/optee_os/lib/libutee/tee_api_arith.c:228
    11b0:	94000cc1 	bl	44b4 <mpa_cmp_short>
TEE_BigIntMulMod():
/home/lagadanu/Desktop/qemu/optee_os/lib/libutee/tee_api_arith.c:418
    11b4:	36f80080 	tbz	w0, #31, 11c4 <TEE_BigIntMulMod+0x44>
/home/lagadanu/Desktop/qemu/optee_os/lib/libutee/tee_api_arith.c:419
    11b8:	f0000020 	adrp	x0, 8000 <PRIME_TABLE+0xb30>
    11bc:	910ff400 	add	x0, x0, #0x3fd
    11c0:	9400009b 	bl	142c <TEE_BigInt_Panic>
/home/lagadanu/Desktop/qemu/optee_os/lib/libutee/tee_api_arith.c:429
    11c4:	b00000d3 	adrp	x19, 1a000 <mempool_u32+0xe68>
    11c8:	910a6275 	add	x21, x19, #0x298
    11cc:	910163b6 	add	x22, x29, #0x58
    11d0:	aa1603e0 	mov	x0, x22
    11d4:	f9444aa1 	ldr	x1, [x21,#2192]
    11d8:	940007f1 	bl	319c <mpa_alloc_static_temp_var>
/home/lagadanu/Desktop/qemu/optee_os/lib/libutee/tee_api_arith.c:430
    11dc:	f9402fa0 	ldr	x0, [x29,#88]
    11e0:	aa1803e1 	mov	x1, x24
    11e4:	f9444aa4 	ldr	x4, [x21,#2192]
    11e8:	aa1403e3 	mov	x3, x20
    11ec:	aa1903e2 	mov	x2, x25
    11f0:	94000f79 	bl	4fd4 <mpa_mul_mod>
/home/lagadanu/Desktop/qemu/optee_os/lib/libutee/tee_api_arith.c:431
    11f4:	f9402fa0 	ldr	x0, [x29,#88]
    11f8:	52800001 	mov	w1, #0x0                   	// #0
    11fc:	94000cae 	bl	44b4 <mpa_cmp_short>
    1200:	36f800c0 	tbz	w0, #31, 1218 <TEE_BigIntMulMod+0x98>
/home/lagadanu/Desktop/qemu/optee_os/lib/libutee/tee_api_arith.c:432
    1204:	f9402fa1 	ldr	x1, [x29,#88]
    1208:	aa1403e2 	mov	x2, x20
    120c:	f9444aa3 	ldr	x3, [x21,#2192]
    1210:	aa0103e0 	mov	x0, x1
    1214:	94000ae1 	bl	3d98 <mpa_add>
/home/lagadanu/Desktop/qemu/optee_os/lib/libutee/tee_api_arith.c:433
    1218:	f9402fa1 	ldr	x1, [x29,#88]
/home/lagadanu/Desktop/qemu/optee_os/lib/libutee/tee_api_arith.c:434
    121c:	910a6273 	add	x19, x19, #0x298
/home/lagadanu/Desktop/qemu/optee_os/lib/libutee/tee_api_arith.c:433
    1220:	aa1703e0 	mov	x0, x23
    1224:	940000ff 	bl	1620 <mpa_copy>
/home/lagadanu/Desktop/qemu/optee_os/lib/libutee/tee_api_arith.c:434
    1228:	f9444a61 	ldr	x1, [x19,#2192]
    122c:	aa1603e0 	mov	x0, x22
    1230:	940007df 	bl	31ac <mpa_free_static_temp_var>
/home/lagadanu/Desktop/qemu/optee_os/lib/libutee/tee_api_arith.c:435
    1234:	f94023f9 	ldr	x25, [sp,#64]
    1238:	a94153f3 	ldp	x19, x20, [sp,#16]
    123c:	a9425bf5 	ldp	x21, x22, [sp,#32]
    1240:	a94363f7 	ldp	x23, x24, [sp,#48]
    1244:	a8c67bfd 	ldp	x29, x30, [sp],#96
    1248:	d65f03c0 	ret

000000000000124c <TEE_BigIntSquareMod>:
TEE_BigIntSquareMod():
/home/lagadanu/Desktop/qemu/optee_os/lib/libutee/tee_api_arith.c:443
    124c:	aa0203e3 	mov	x3, x2
    1250:	aa0103e2 	mov	x2, x1
    1254:	17ffffcb 	b	1180 <TEE_BigIntMulMod>

0000000000001258 <TEE_BigIntInvMod>:
TEE_BigIntInvMod():
/home/lagadanu/Desktop/qemu/optee_os/lib/libutee/tee_api_arith.c:451
    1258:	a9bd7bfd 	stp	x29, x30, [sp,#-48]!
    125c:	910003fd 	mov	x29, sp
    1260:	a90153f3 	stp	x19, x20, [sp,#16]
    1264:	aa0103f3 	mov	x19, x1
    1268:	f90013f5 	str	x21, [sp,#32]
    126c:	aa0203f4 	mov	x20, x2
    1270:	aa0003f5 	mov	x21, x0
TEE_BigIntCmpS32():
/home/lagadanu/Desktop/qemu/optee_os/lib/libutee/tee_api_arith.c:228
    1274:	52800041 	mov	w1, #0x2                   	// #2
    1278:	aa0203e0 	mov	x0, x2
    127c:	94000c8e 	bl	44b4 <mpa_cmp_short>
TEE_BigIntInvMod():
/home/lagadanu/Desktop/qemu/optee_os/lib/libutee/tee_api_arith.c:456
    1280:	36f80080 	tbz	w0, #31, 1290 <TEE_BigIntInvMod+0x38>
/home/lagadanu/Desktop/qemu/optee_os/lib/libutee/tee_api_arith.c:457
    1284:	f0000020 	adrp	x0, 8000 <PRIME_TABLE+0xb30>
    1288:	91104800 	add	x0, x0, #0x412
    128c:	94000068 	bl	142c <TEE_BigInt_Panic>
TEE_BigIntCmpS32():
/home/lagadanu/Desktop/qemu/optee_os/lib/libutee/tee_api_arith.c:228
    1290:	52800001 	mov	w1, #0x0                   	// #0
    1294:	aa1303e0 	mov	x0, x19
    1298:	94000c87 	bl	44b4 <mpa_cmp_short>
TEE_BigIntInvMod():
/home/lagadanu/Desktop/qemu/optee_os/lib/libutee/tee_api_arith.c:456
    129c:	34ffff40 	cbz	w0, 1284 <TEE_BigIntInvMod+0x2c>
/home/lagadanu/Desktop/qemu/optee_os/lib/libutee/tee_api_arith.c:459
    12a0:	b00000c0 	adrp	x0, 1a000 <mempool_u32+0xe68>
    12a4:	aa1403e2 	mov	x2, x20
    12a8:	aa1303e1 	mov	x1, x19
    12ac:	f9459403 	ldr	x3, [x0,#2856]
    12b0:	aa1503e0 	mov	x0, x21
/home/lagadanu/Desktop/qemu/optee_os/lib/libutee/tee_api_arith.c:460
    12b4:	a94153f3 	ldp	x19, x20, [sp,#16]
    12b8:	f94013f5 	ldr	x21, [sp,#32]
    12bc:	a8c37bfd 	ldp	x29, x30, [sp],#48
/home/lagadanu/Desktop/qemu/optee_os/lib/libutee/tee_api_arith.c:459
    12c0:	14000f66 	b	5058 <mpa_inv_mod>

00000000000012c4 <TEE_BigIntRelativePrime>:
TEE_BigIntRelativePrime():
/home/lagadanu/Desktop/qemu/optee_os/lib/libutee/tee_api_arith.c:470
    12c4:	a9bc7bfd 	stp	x29, x30, [sp,#-64]!
    12c8:	910003fd 	mov	x29, sp
    12cc:	a90153f3 	stp	x19, x20, [sp,#16]
/home/lagadanu/Desktop/qemu/optee_os/lib/libutee/tee_api_arith.c:476
    12d0:	b00000d3 	adrp	x19, 1a000 <mempool_u32+0xe68>
    12d4:	910a6273 	add	x19, x19, #0x298
/home/lagadanu/Desktop/qemu/optee_os/lib/libutee/tee_api_arith.c:470
    12d8:	a9025bf5 	stp	x21, x22, [sp,#32]
    12dc:	aa0103f6 	mov	x22, x1
/home/lagadanu/Desktop/qemu/optee_os/lib/libutee/tee_api_arith.c:476
    12e0:	9100e3b4 	add	x20, x29, #0x38
/home/lagadanu/Desktop/qemu/optee_os/lib/libutee/tee_api_arith.c:470
    12e4:	aa0003f5 	mov	x21, x0
/home/lagadanu/Desktop/qemu/optee_os/lib/libutee/tee_api_arith.c:476
    12e8:	aa1403e0 	mov	x0, x20
    12ec:	f9444a61 	ldr	x1, [x19,#2192]
    12f0:	940007ab 	bl	319c <mpa_alloc_static_temp_var>
/home/lagadanu/Desktop/qemu/optee_os/lib/libutee/tee_api_arith.c:478
    12f4:	f9444a63 	ldr	x3, [x19,#2192]
    12f8:	aa1603e2 	mov	x2, x22
    12fc:	f9401fa0 	ldr	x0, [x29,#56]
    1300:	aa1503e1 	mov	x1, x21
    1304:	940006d0 	bl	2e44 <mpa_gcd>
/home/lagadanu/Desktop/qemu/optee_os/lib/libutee/tee_api_arith.c:479
    1308:	f9401fa0 	ldr	x0, [x29,#56]
    130c:	52800021 	mov	w1, #0x1                   	// #1
    1310:	94000c69 	bl	44b4 <mpa_cmp_short>
    1314:	2a0003f5 	mov	w21, w0
/home/lagadanu/Desktop/qemu/optee_os/lib/libutee/tee_api_arith.c:481
    1318:	f9444a61 	ldr	x1, [x19,#2192]
    131c:	aa1403e0 	mov	x0, x20
    1320:	940007a3 	bl	31ac <mpa_free_static_temp_var>
/home/lagadanu/Desktop/qemu/optee_os/lib/libutee/tee_api_arith.c:483
    1324:	710002bf 	cmp	w21, #0x0
/home/lagadanu/Desktop/qemu/optee_os/lib/libutee/tee_api_arith.c:484
    1328:	a94153f3 	ldp	x19, x20, [sp,#16]
    132c:	1a9f17e0 	cset	w0, eq
    1330:	a9425bf5 	ldp	x21, x22, [sp,#32]
    1334:	a8c47bfd 	ldp	x29, x30, [sp],#64
    1338:	d65f03c0 	ret

000000000000133c <TEE_BigIntComputeExtendedGcd>:
TEE_BigIntComputeExtendedGcd():
/home/lagadanu/Desktop/qemu/optee_os/lib/libutee/tee_api_arith.c:499
    133c:	b00000c5 	adrp	x5, 1a000 <mempool_u32+0xe68>
    1340:	f94594a5 	ldr	x5, [x5,#2856]
    1344:	14000708 	b	2f64 <mpa_extended_gcd>

0000000000001348 <TEE_BigIntIsProbablePrime>:
TEE_BigIntIsProbablePrime():
/home/lagadanu/Desktop/qemu/optee_os/lib/libutee/tee_api_arith.c:507
    1348:	7104003f 	cmp	w1, #0x100
    134c:	52802002 	mov	w2, #0x100                 	// #256
    1350:	1a829021 	csel	w1, w1, w2, ls
/home/lagadanu/Desktop/qemu/optee_os/lib/libutee/tee_api_arith.c:516
    1354:	b00000c2 	adrp	x2, 1a000 <mempool_u32+0xe68>
    1358:	7101403f 	cmp	w1, #0x50
    135c:	52800a03 	mov	w3, #0x50                  	// #80
    1360:	f9459442 	ldr	x2, [x2,#2856]
    1364:	1a832021 	csel	w1, w1, w3, cs
    1368:	140001fa 	b	1b50 <mpa_is_prob_prime>

000000000000136c <TEE_BigIntConvertToFMM>:
TEE_BigIntConvertToFMM():
/home/lagadanu/Desktop/qemu/optee_os/lib/libutee/tee_api_arith.c:530
    136c:	aa0303e6 	mov	x6, x3
/home/lagadanu/Desktop/qemu/optee_os/lib/libutee/tee_api_arith.c:537
    1370:	b00000c3 	adrp	x3, 1a000 <mempool_u32+0xe68>
    1374:	f9459465 	ldr	x5, [x3,#2856]
    1378:	aa0203e3 	mov	x3, x2
    137c:	b94010c4 	ldr	w4, [x6,#16]
    1380:	f94004c2 	ldr	x2, [x6,#8]
    1384:	140001d1 	b	1ac8 <mpa_montgomery_mul>

0000000000001388 <TEE_BigIntConvertFromFMM>:
TEE_BigIntConvertFromFMM():
/home/lagadanu/Desktop/qemu/optee_os/lib/libutee/tee_api_arith.c:548
    1388:	a9ba7bfd 	stp	x29, x30, [sp,#-96]!
    138c:	910003fd 	mov	x29, sp
    1390:	a90153f3 	stp	x19, x20, [sp,#16]
/home/lagadanu/Desktop/qemu/optee_os/lib/libutee/tee_api_arith.c:560
    1394:	b00000d3 	adrp	x19, 1a000 <mempool_u32+0xe68>
    1398:	910a6273 	add	x19, x19, #0x298
/home/lagadanu/Desktop/qemu/optee_os/lib/libutee/tee_api_arith.c:548
    139c:	a90363f7 	stp	x23, x24, [sp,#48]
    13a0:	aa0103f7 	mov	x23, x1
/home/lagadanu/Desktop/qemu/optee_os/lib/libutee/tee_api_arith.c:560
    13a4:	910163b4 	add	x20, x29, #0x58
/home/lagadanu/Desktop/qemu/optee_os/lib/libutee/tee_api_arith.c:548
    13a8:	f90023f9 	str	x25, [sp,#64]
    13ac:	aa0303f9 	mov	x25, x3
/home/lagadanu/Desktop/qemu/optee_os/lib/libutee/tee_api_arith.c:560
    13b0:	f9444a61 	ldr	x1, [x19,#2192]
/home/lagadanu/Desktop/qemu/optee_os/lib/libutee/tee_api_arith.c:548
    13b4:	aa0203f8 	mov	x24, x2
    13b8:	a9025bf5 	stp	x21, x22, [sp,#32]
    13bc:	aa0003f5 	mov	x21, x0
/home/lagadanu/Desktop/qemu/optee_os/lib/libutee/tee_api_arith.c:560
    13c0:	aa1403e0 	mov	x0, x20
    13c4:	94000776 	bl	319c <mpa_alloc_static_temp_var>
/home/lagadanu/Desktop/qemu/optee_os/lib/libutee/tee_api_arith.c:563
    13c8:	f9402fb6 	ldr	x22, [x29,#88]
    13cc:	940000e2 	bl	1754 <mpa_constant_one>
    13d0:	aa0003e1 	mov	x1, x0
    13d4:	b9401324 	ldr	w4, [x25,#16]
    13d8:	aa1803e3 	mov	x3, x24
    13dc:	f9444a65 	ldr	x5, [x19,#2192]
    13e0:	aa1703e2 	mov	x2, x23
    13e4:	aa1603e0 	mov	x0, x22
    13e8:	940001b8 	bl	1ac8 <mpa_montgomery_mul>
/home/lagadanu/Desktop/qemu/optee_os/lib/libutee/tee_api_arith.c:566
    13ec:	f9402fa1 	ldr	x1, [x29,#88]
    13f0:	aa1503e0 	mov	x0, x21
    13f4:	9400008b 	bl	1620 <mpa_copy>
/home/lagadanu/Desktop/qemu/optee_os/lib/libutee/tee_api_arith.c:567
    13f8:	f9444a61 	ldr	x1, [x19,#2192]
    13fc:	aa1403e0 	mov	x0, x20
    1400:	9400076b 	bl	31ac <mpa_free_static_temp_var>
/home/lagadanu/Desktop/qemu/optee_os/lib/libutee/tee_api_arith.c:568
    1404:	f94023f9 	ldr	x25, [sp,#64]
    1408:	a94153f3 	ldp	x19, x20, [sp,#16]
    140c:	a9425bf5 	ldp	x21, x22, [sp,#32]
    1410:	a94363f7 	ldp	x23, x24, [sp,#48]
    1414:	a8c67bfd 	ldp	x29, x30, [sp],#96
    1418:	d65f03c0 	ret

000000000000141c <TEE_BigIntComputeFMM>:
TEE_BigIntComputeFMM():
/home/lagadanu/Desktop/qemu/optee_os/lib/libutee/tee_api_arith.c:585
    141c:	b00000c5 	adrp	x5, 1a000 <mempool_u32+0xe68>
    1420:	b9401084 	ldr	w4, [x4,#16]
    1424:	f94594a5 	ldr	x5, [x5,#2856]
    1428:	140001a8 	b	1ac8 <mpa_montgomery_mul>

000000000000142c <TEE_BigInt_Panic>:
TEE_BigInt_Panic():
/home/lagadanu/Desktop/qemu/optee_os/lib/libutee/tee_api_arith.c:35
    142c:	a9bf7bfd 	stp	x29, x30, [sp,#-16]!
/home/lagadanu/Desktop/qemu/optee_os/lib/libutee/tee_api_arith.c:36
    1430:	aa0003e1 	mov	x1, x0
    1434:	f0000020 	adrp	x0, 8000 <PRIME_TABLE+0xb30>
    1438:	910f8800 	add	x0, x0, #0x3e2
/home/lagadanu/Desktop/qemu/optee_os/lib/libutee/tee_api_arith.c:35
    143c:	910003fd 	mov	x29, sp
/home/lagadanu/Desktop/qemu/optee_os/lib/libutee/tee_api_arith.c:36
    1440:	94000011 	bl	1484 <printf>
/home/lagadanu/Desktop/qemu/optee_os/lib/libutee/tee_api_arith.c:37
    1444:	528c24e0 	mov	w0, #0x6127                	// #24871
    1448:	72a01620 	movk	w0, #0xb1, lsl #16
    144c:	97fffcbb 	bl	738 <TEE_Panic>
    1450:	14000000 	b	1450 <TEE_BigInt_Panic+0x24>

0000000000001454 <trace_ext_puts>:
trace_ext_puts():
/home/lagadanu/Desktop/qemu/optee_os/lib/libutee/trace_ext.c:17
    1454:	a9be7bfd 	stp	x29, x30, [sp,#-32]!
    1458:	910003fd 	mov	x29, sp
    145c:	f9000bf3 	str	x19, [sp,#16]
    1460:	aa0003f3 	mov	x19, x0
/home/lagadanu/Desktop/qemu/optee_os/lib/libutee/trace_ext.c:18
    1464:	940013d1 	bl	63a8 <strlen>
    1468:	aa0003e1 	mov	x1, x0
    146c:	aa1303e0 	mov	x0, x19
/home/lagadanu/Desktop/qemu/optee_os/lib/libutee/trace_ext.c:19
    1470:	f9400bf3 	ldr	x19, [sp,#16]
    1474:	a8c27bfd 	ldp	x29, x30, [sp],#32
/home/lagadanu/Desktop/qemu/optee_os/lib/libutee/trace_ext.c:18
    1478:	17fffd69 	b	a1c <utee_log>

000000000000147c <trace_ext_get_thread_id>:
trace_ext_get_thread_id():
/home/lagadanu/Desktop/qemu/optee_os/lib/libutee/trace_ext.c:24
    147c:	12800000 	mov	w0, #0xffffffff            	// #-1
    1480:	d65f03c0 	ret

0000000000001484 <printf>:
printf():
/home/lagadanu/Desktop/qemu/optee_os/lib/libutee/trace_ext.c:32
    1484:	d10883ff 	sub	sp, sp, #0x220
    1488:	a9007bfd 	stp	x29, x30, [sp]
    148c:	910003fd 	mov	x29, sp
    1490:	a90153f3 	stp	x19, x20, [sp,#16]
    1494:	aa0003f3 	mov	x19, x0
    1498:	910403a0 	add	x0, x29, #0x100
    149c:	a91e8ba1 	stp	x1, x2, [x29,#488]
    14a0:	a91f93a3 	stp	x3, x4, [x29,#504]
    14a4:	f90107a5 	str	x5, [x29,#520]
    14a8:	f9010ba6 	str	x6, [x29,#528]
    14ac:	f9010fa7 	str	x7, [x29,#536]
    14b0:	3d801800 	str	q0, [x0,#96]
    14b4:	3d801c01 	str	q1, [x0,#112]
    14b8:	3d802002 	str	q2, [x0,#128]
    14bc:	3d802403 	str	q3, [x0,#144]
    14c0:	3d802804 	str	q4, [x0,#160]
    14c4:	3d802c05 	str	q5, [x0,#176]
    14c8:	3d803006 	str	q6, [x0,#192]
    14cc:	3d803407 	str	q7, [x0,#208]
/home/lagadanu/Desktop/qemu/optee_os/lib/libutee/trace_ext.c:37
    14d0:	940016e2 	bl	7058 <trace_get_level>
    14d4:	7100001f 	cmp	w0, #0x0
    14d8:	5400038d 	b.le	1548 <printf+0xc4>
/home/lagadanu/Desktop/qemu/optee_os/lib/libutee/trace_ext.c:40
    14dc:	910883a0 	add	x0, x29, #0x220
    14e0:	a90403a0 	stp	x0, x0, [x29,#64]
    14e4:	910783a0 	add	x0, x29, #0x1e0
    14e8:	f9002ba0 	str	x0, [x29,#80]
    14ec:	128006e0 	mov	w0, #0xffffffc8            	// #-56
    14f0:	b9005ba0 	str	w0, [x29,#88]
    14f4:	12800fe0 	mov	w0, #0xffffff80            	// #-128
    14f8:	b9005fa0 	str	w0, [x29,#92]
/home/lagadanu/Desktop/qemu/optee_os/lib/libutee/trace_ext.c:41
    14fc:	a94407a0 	ldp	x0, x1, [x29,#64]
    1500:	a90207a0 	stp	x0, x1, [x29,#32]
    1504:	a94507a0 	ldp	x0, x1, [x29,#80]
    1508:	910183b4 	add	x20, x29, #0x60
    150c:	a90307a0 	stp	x0, x1, [x29,#48]
    1510:	aa1303e2 	mov	x2, x19
    1514:	910083a3 	add	x3, x29, #0x20
    1518:	d2802001 	mov	x1, #0x100                 	// #256
    151c:	aa1403e0 	mov	x0, x20
    1520:	9400135e 	bl	6298 <vsnprintf>
    1524:	2a0003f3 	mov	w19, w0
/home/lagadanu/Desktop/qemu/optee_os/lib/libutee/trace_ext.c:44
    1528:	37f80060 	tbnz	w0, #31, 1534 <printf+0xb0>
/home/lagadanu/Desktop/qemu/optee_os/lib/libutee/trace_ext.c:47
    152c:	aa1403e0 	mov	x0, x20
    1530:	97ffffc9 	bl	1454 <trace_ext_puts>
/home/lagadanu/Desktop/qemu/optee_os/lib/libutee/trace_ext.c:50
    1534:	2a1303e0 	mov	w0, w19
    1538:	a94153f3 	ldp	x19, x20, [sp,#16]
    153c:	a9407bfd 	ldp	x29, x30, [sp]
    1540:	910883ff 	add	sp, sp, #0x220
    1544:	d65f03c0 	ret
/home/lagadanu/Desktop/qemu/optee_os/lib/libutee/trace_ext.c:38
    1548:	52800013 	mov	w19, #0x0                   	// #0
    154c:	17fffffa 	b	1534 <printf+0xb0>

0000000000001550 <puts>:
puts():
/home/lagadanu/Desktop/qemu/optee_os/lib/libutee/trace_ext.c:53
    1550:	a9be7bfd 	stp	x29, x30, [sp,#-32]!
    1554:	910003fd 	mov	x29, sp
    1558:	f9000bf3 	str	x19, [sp,#16]
    155c:	aa0003f3 	mov	x19, x0
/home/lagadanu/Desktop/qemu/optee_os/lib/libutee/trace_ext.c:54
    1560:	940016be 	bl	7058 <trace_get_level>
    1564:	7100001f 	cmp	w0, #0x0
    1568:	540000cd 	b.le	1580 <puts+0x30>
/home/lagadanu/Desktop/qemu/optee_os/lib/libutee/trace_ext.c:55
    156c:	aa1303e0 	mov	x0, x19
    1570:	97ffffb9 	bl	1454 <trace_ext_puts>
/home/lagadanu/Desktop/qemu/optee_os/lib/libutee/trace_ext.c:56
    1574:	f0000020 	adrp	x0, 8000 <PRIME_TABLE+0xb30>
    1578:	910fac00 	add	x0, x0, #0x3eb
    157c:	97ffffb6 	bl	1454 <trace_ext_puts>
/home/lagadanu/Desktop/qemu/optee_os/lib/libutee/trace_ext.c:59
    1580:	52800020 	mov	w0, #0x1                   	// #1
    1584:	f9400bf3 	ldr	x19, [sp,#16]
    1588:	a8c27bfd 	ldp	x29, x30, [sp],#32
    158c:	d65f03c0 	ret

0000000000001590 <putchar>:
putchar():
/home/lagadanu/Desktop/qemu/optee_os/lib/libutee/trace_ext.c:62
    1590:	a9bd7bfd 	stp	x29, x30, [sp,#-48]!
    1594:	910003fd 	mov	x29, sp
    1598:	f9000bf3 	str	x19, [sp,#16]
    159c:	2a0003f3 	mov	w19, w0
/home/lagadanu/Desktop/qemu/optee_os/lib/libutee/trace_ext.c:63
    15a0:	3900a3a0 	strb	w0, [x29,#40]
    15a4:	3900a7bf 	strb	wzr, [x29,#41]
/home/lagadanu/Desktop/qemu/optee_os/lib/libutee/trace_ext.c:65
    15a8:	940016ac 	bl	7058 <trace_get_level>
    15ac:	7100001f 	cmp	w0, #0x0
    15b0:	5400006d 	b.le	15bc <putchar+0x2c>
/home/lagadanu/Desktop/qemu/optee_os/lib/libutee/trace_ext.c:66
    15b4:	9100a3a0 	add	x0, x29, #0x28
    15b8:	97ffffa7 	bl	1454 <trace_ext_puts>
/home/lagadanu/Desktop/qemu/optee_os/lib/libutee/trace_ext.c:73
    15bc:	12001e60 	and	w0, w19, #0xff
    15c0:	f9400bf3 	ldr	x19, [sp,#16]
    15c4:	a8c37bfd 	ldp	x29, x30, [sp],#48
    15c8:	d65f03c0 	ret

00000000000015cc <__mpa_set_unused_digits_to_zero>:
__mpa_set_unused_digits_to_zero():
/home/lagadanu/Desktop/qemu/optee_os/lib/libmpa/mpa_misc.c:37
    15cc:	b9400401 	ldr	w1, [x0,#4]
/home/lagadanu/Desktop/qemu/optee_os/lib/libmpa/mpa_misc.c:38
    15d0:	b8408402 	ldr	w2, [x0],#8
/home/lagadanu/Desktop/qemu/optee_os/lib/libmpa/mpa_misc.c:37
    15d4:	7100003f 	cmp	w1, #0x0
    15d8:	5a81a423 	cneg	w3, w1, lt
/home/lagadanu/Desktop/qemu/optee_os/lib/libmpa/mpa_misc.c:38
    15dc:	52800001 	mov	w1, #0x0                   	// #0
    15e0:	4b030042 	sub	w2, w2, w3
    15e4:	8b23c800 	add	x0, x0, w3, sxtw #2
    15e8:	d37e7442 	ubfiz	x2, x2, #2, #30
    15ec:	14001368 	b	638c <memset>

00000000000015f0 <mpa_wipe>:
mpa_wipe():
/home/lagadanu/Desktop/qemu/optee_os/lib/libmpa/mpa_misc.c:55
    15f0:	a9be7bfd 	stp	x29, x30, [sp,#-32]!
/home/lagadanu/Desktop/qemu/optee_os/lib/libmpa/mpa_misc.c:56
    15f4:	52800001 	mov	w1, #0x0                   	// #0
/home/lagadanu/Desktop/qemu/optee_os/lib/libmpa/mpa_misc.c:55
    15f8:	910003fd 	mov	x29, sp
    15fc:	f9000bf3 	str	x19, [sp,#16]
    1600:	aa0003f3 	mov	x19, x0
/home/lagadanu/Desktop/qemu/optee_os/lib/libmpa/mpa_misc.c:56
    1604:	b8408402 	ldr	w2, [x0],#8
    1608:	d37e7442 	ubfiz	x2, x2, #2, #30
    160c:	94001360 	bl	638c <memset>
/home/lagadanu/Desktop/qemu/optee_os/lib/libmpa/mpa_misc.c:57
    1610:	b900067f 	str	wzr, [x19,#4]
/home/lagadanu/Desktop/qemu/optee_os/lib/libmpa/mpa_misc.c:58
    1614:	f9400bf3 	ldr	x19, [sp,#16]
    1618:	a8c27bfd 	ldp	x29, x30, [sp],#32
    161c:	d65f03c0 	ret

0000000000001620 <mpa_copy>:
mpa_copy():
/home/lagadanu/Desktop/qemu/optee_os/lib/libmpa/mpa_misc.c:71
    1620:	eb01001f 	cmp	x0, x1
    1624:	54000260 	b.eq	1670 <mpa_copy+0x50>
/home/lagadanu/Desktop/qemu/optee_os/lib/libmpa/mpa_misc.c:70
    1628:	a9be7bfd 	stp	x29, x30, [sp,#-32]!
    162c:	910003fd 	mov	x29, sp
    1630:	a90153f3 	stp	x19, x20, [sp,#16]
    1634:	aa0103f3 	mov	x19, x1
    1638:	aa0003f4 	mov	x20, x0
/home/lagadanu/Desktop/qemu/optee_os/lib/libmpa/mpa_misc.c:74
    163c:	91002021 	add	x1, x1, #0x8
    1640:	91002000 	add	x0, x0, #0x8
    1644:	b9400662 	ldr	w2, [x19,#4]
    1648:	7100005f 	cmp	w2, #0x0
    164c:	5a82a442 	cneg	w2, w2, lt
    1650:	531e7442 	lsl	w2, w2, #2
    1654:	93407c42 	sxtw	x2, w2
    1658:	94001332 	bl	6320 <memcpy>
/home/lagadanu/Desktop/qemu/optee_os/lib/libmpa/mpa_misc.c:75
    165c:	b9400660 	ldr	w0, [x19,#4]
    1660:	b9000680 	str	w0, [x20,#4]
/home/lagadanu/Desktop/qemu/optee_os/lib/libmpa/mpa_misc.c:76
    1664:	a94153f3 	ldp	x19, x20, [sp,#16]
    1668:	a8c27bfd 	ldp	x29, x30, [sp],#32
    166c:	d65f03c0 	ret
    1670:	d65f03c0 	ret

0000000000001674 <mpa_abs>:
mpa_abs():
/home/lagadanu/Desktop/qemu/optee_os/lib/libmpa/mpa_misc.c:84
    1674:	a9be7bfd 	stp	x29, x30, [sp,#-32]!
    1678:	910003fd 	mov	x29, sp
    167c:	f9000bf3 	str	x19, [sp,#16]
    1680:	aa0003f3 	mov	x19, x0
/home/lagadanu/Desktop/qemu/optee_os/lib/libmpa/mpa_misc.c:85
    1684:	97ffffe7 	bl	1620 <mpa_copy>
/home/lagadanu/Desktop/qemu/optee_os/lib/libmpa/mpa_misc.c:86
    1688:	b9400660 	ldr	w0, [x19,#4]
    168c:	36f80060 	tbz	w0, #31, 1698 <mpa_abs+0x24>
/home/lagadanu/Desktop/qemu/optee_os/lib/libmpa/mpa_misc.c:86 (discriminator 1)
    1690:	4b0003e0 	neg	w0, w0
    1694:	b9000660 	str	w0, [x19,#4]
/home/lagadanu/Desktop/qemu/optee_os/lib/libmpa/mpa_misc.c:87
    1698:	f9400bf3 	ldr	x19, [sp,#16]
    169c:	a8c27bfd 	ldp	x29, x30, [sp],#32
    16a0:	d65f03c0 	ret

00000000000016a4 <mpa_highest_bit_index>:
mpa_highest_bit_index():
/home/lagadanu/Desktop/qemu/optee_os/lib/libmpa/mpa_misc.c:101
    16a4:	b9400401 	ldr	w1, [x0,#4]
    16a8:	7100003f 	cmp	w1, #0x0
    16ac:	540001a0 	b.eq	16e0 <mpa_highest_bit_index+0x3c>
/home/lagadanu/Desktop/qemu/optee_os/lib/libmpa/mpa_misc.c:104
    16b0:	5a81a421 	cneg	w1, w1, lt
    16b4:	51000421 	sub	w1, w1, #0x1
    16b8:	8b21c800 	add	x0, x0, w1, sxtw #2
    16bc:	b9400802 	ldr	w2, [x0,#8]
/home/lagadanu/Desktop/qemu/optee_os/lib/libmpa/mpa_misc.c:106
    16c0:	52800000 	mov	w0, #0x0                   	// #0
/home/lagadanu/Desktop/qemu/optee_os/lib/libmpa/mpa_misc.c:107
    16c4:	53017c42 	lsr	w2, w2, #1
/home/lagadanu/Desktop/qemu/optee_os/lib/libmpa/mpa_misc.c:108
    16c8:	34000082 	cbz	w2, 16d8 <mpa_highest_bit_index+0x34>
/home/lagadanu/Desktop/qemu/optee_os/lib/libmpa/mpa_misc.c:106 (discriminator 2)
    16cc:	11000400 	add	w0, w0, #0x1
    16d0:	7100801f 	cmp	w0, #0x20
    16d4:	54ffff81 	b.ne	16c4 <mpa_highest_bit_index+0x20>
/home/lagadanu/Desktop/qemu/optee_os/lib/libmpa/mpa_misc.c:111
    16d8:	0b011400 	add	w0, w0, w1, lsl #5
    16dc:	d65f03c0 	ret
/home/lagadanu/Desktop/qemu/optee_os/lib/libmpa/mpa_misc.c:102
    16e0:	12800000 	mov	w0, #0xffffffff            	// #-1
/home/lagadanu/Desktop/qemu/optee_os/lib/libmpa/mpa_misc.c:112
    16e4:	d65f03c0 	ret

00000000000016e8 <mpa_get_bit>:
mpa_get_bit():
/home/lagadanu/Desktop/qemu/optee_os/lib/libmpa/mpa_misc.c:131
    16e8:	b9400402 	ldr	w2, [x0,#4]
/home/lagadanu/Desktop/qemu/optee_os/lib/libmpa/mpa_misc.c:128
    16ec:	53057c23 	lsr	w3, w1, #5
/home/lagadanu/Desktop/qemu/optee_os/lib/libmpa/mpa_misc.c:131
    16f0:	7100005f 	cmp	w2, #0x0
    16f4:	5a82a442 	cneg	w2, w2, lt
    16f8:	6b02007f 	cmp	w3, w2
    16fc:	54000148 	b.hi	1724 <mpa_get_bit+0x3c>
/home/lagadanu/Desktop/qemu/optee_os/lib/libmpa/mpa_misc.c:134
    1700:	d37e6863 	ubfiz	x3, x3, #2, #27
/home/lagadanu/Desktop/qemu/optee_os/lib/libmpa/mpa_misc.c:133
    1704:	12001021 	and	w1, w1, #0x1f
/home/lagadanu/Desktop/qemu/optee_os/lib/libmpa/mpa_misc.c:134
    1708:	8b030000 	add	x0, x0, x3
/home/lagadanu/Desktop/qemu/optee_os/lib/libmpa/mpa_misc.c:133
    170c:	d2800022 	mov	x2, #0x1                   	// #1
    1710:	9ac12041 	lsl	x1, x2, x1
/home/lagadanu/Desktop/qemu/optee_os/lib/libmpa/mpa_misc.c:134
    1714:	b9400800 	ldr	w0, [x0,#8]
    1718:	ea00003f 	tst	x1, x0
    171c:	1a9f07e0 	cset	w0, ne
    1720:	d65f03c0 	ret
    1724:	52800000 	mov	w0, #0x0                   	// #0
/home/lagadanu/Desktop/qemu/optee_os/lib/libmpa/mpa_misc.c:135
    1728:	d65f03c0 	ret

000000000000172c <mpa_can_hold>:
mpa_can_hold():
/home/lagadanu/Desktop/qemu/optee_os/lib/libmpa/mpa_misc.c:145
    172c:	b9400421 	ldr	w1, [x1,#4]
    1730:	b9400000 	ldr	w0, [x0]
    1734:	7100003f 	cmp	w1, #0x0
    1738:	5a81a421 	cneg	w1, w1, lt
    173c:	6b01001f 	cmp	w0, w1
/home/lagadanu/Desktop/qemu/optee_os/lib/libmpa/mpa_misc.c:146
    1740:	1a9f37e0 	cset	w0, cs
    1744:	d65f03c0 	ret

0000000000001748 <mpa_parity>:
mpa_parity():
/home/lagadanu/Desktop/qemu/optee_os/lib/libmpa/mpa_misc.c:156
    1748:	b9400800 	ldr	w0, [x0,#8]
/home/lagadanu/Desktop/qemu/optee_os/lib/libmpa/mpa_misc.c:157
    174c:	12000000 	and	w0, w0, #0x1
    1750:	d65f03c0 	ret

0000000000001754 <mpa_constant_one>:
mpa_constant_one():
/home/lagadanu/Desktop/qemu/optee_os/lib/libmpa/mpa_misc.c:167
    1754:	d0000020 	adrp	x0, 7000 <snprintk+0x40>
    1758:	91128000 	add	x0, x0, #0x4a0
    175c:	d65f03c0 	ret

0000000000001760 <__mpa_montgomery_mul_add>:
__mpa_montgomery_mul_add():
/home/lagadanu/Desktop/qemu/optee_os/lib/libmpa/mpa_montgomery.c:34
    1760:	34000222 	cbz	w2, 17a4 <__mpa_montgomery_mul_add+0x44>
/home/lagadanu/Desktop/qemu/optee_os/lib/libmpa/mpa_montgomery.c:36
    1764:	91002007 	add	x7, x0, #0x8
    1768:	d2800025 	mov	x5, #0x1                   	// #1
/home/lagadanu/Desktop/qemu/optee_os/lib/libmpa/mpa_montgomery.c:37
    176c:	aa0703e3 	mov	x3, x7
/home/lagadanu/Desktop/qemu/optee_os/lib/libmpa/mpa_montgomery.c:38
    1770:	52800004 	mov	w4, #0x0                   	// #0
/home/lagadanu/Desktop/qemu/optee_os/lib/libmpa/mpa_montgomery.c:39
    1774:	b9400428 	ldr	w8, [x1,#4]
    1778:	510004a6 	sub	w6, w5, #0x1
    177c:	910004a5 	add	x5, x5, #0x1
    1780:	6b0800df 	cmp	w6, w8
    1784:	5400012b 	b.lt	17a8 <__mpa_montgomery_mul_add+0x48>
/home/lagadanu/Desktop/qemu/optee_os/lib/libmpa/mpa_montgomery.c:46
    1788:	350001e4 	cbnz	w4, 17c4 <__mpa_montgomery_mul_add+0x64>
/home/lagadanu/Desktop/qemu/optee_os/lib/libmpa/mpa_montgomery.c:51
    178c:	cb070063 	sub	x3, x3, x7
/home/lagadanu/Desktop/qemu/optee_os/lib/libmpa/mpa_montgomery.c:52
    1790:	b9400401 	ldr	w1, [x0,#4]
/home/lagadanu/Desktop/qemu/optee_os/lib/libmpa/mpa_montgomery.c:51
    1794:	9342fc63 	asr	x3, x3, #2
/home/lagadanu/Desktop/qemu/optee_os/lib/libmpa/mpa_montgomery.c:52
    1798:	6b01007f 	cmp	w3, w1
    179c:	5400004d 	b.le	17a4 <__mpa_montgomery_mul_add+0x44>
/home/lagadanu/Desktop/qemu/optee_os/lib/libmpa/mpa_montgomery.c:53
    17a0:	b9000403 	str	w3, [x0,#4]
    17a4:	d65f03c0 	ret
/home/lagadanu/Desktop/qemu/optee_os/lib/libmpa/mpa_montgomery.c:40
    17a8:	b9400066 	ldr	w6, [x3]
    17ac:	8b2440c4 	add	x4, x6, w4, uxtw
    17b0:	b8657826 	ldr	w6, [x1,x5,lsl #2]
    17b4:	9ba210c4 	umaddl	x4, w6, w2, x4
/home/lagadanu/Desktop/qemu/optee_os/lib/libmpa/mpa_montgomery.c:43
    17b8:	b8004464 	str	w4, [x3],#4
/home/lagadanu/Desktop/qemu/optee_os/lib/libmpa/mpa_montgomery.c:44
    17bc:	d360fc84 	lsr	x4, x4, #32
    17c0:	17ffffed 	b	1774 <__mpa_montgomery_mul_add+0x14>
/home/lagadanu/Desktop/qemu/optee_os/lib/libmpa/mpa_montgomery.c:47
    17c4:	b9400061 	ldr	w1, [x3]
    17c8:	8b244024 	add	x4, x1, w4, uxtw
/home/lagadanu/Desktop/qemu/optee_os/lib/libmpa/mpa_montgomery.c:48
    17cc:	b8004464 	str	w4, [x3],#4
/home/lagadanu/Desktop/qemu/optee_os/lib/libmpa/mpa_montgomery.c:49
    17d0:	d360fc84 	lsr	x4, x4, #32
    17d4:	17ffffed 	b	1788 <__mpa_montgomery_mul_add+0x28>

00000000000017d8 <__mpa_montgomery_sub_ack>:
__mpa_montgomery_sub_ack():
/home/lagadanu/Desktop/qemu/optee_os/lib/libmpa/mpa_montgomery.c:75
    17d8:	91002002 	add	x2, x0, #0x8
/home/lagadanu/Desktop/qemu/optee_os/lib/libmpa/mpa_montgomery.c:78
    17dc:	d2800026 	mov	x6, #0x1                   	// #1
/home/lagadanu/Desktop/qemu/optee_os/lib/libmpa/mpa_montgomery.c:76
    17e0:	52800004 	mov	w4, #0x0                   	// #0
/home/lagadanu/Desktop/qemu/optee_os/lib/libmpa/mpa_montgomery.c:78
    17e4:	b9400423 	ldr	w3, [x1,#4]
    17e8:	510004c5 	sub	w5, w6, #0x1
    17ec:	910004c6 	add	x6, x6, #0x1
    17f0:	6b05007f 	cmp	w3, w5
    17f4:	540000cc 	b.gt	180c <__mpa_montgomery_sub_ack+0x34>
/home/lagadanu/Desktop/qemu/optee_os/lib/libmpa/mpa_montgomery.c:87
    17f8:	350001a4 	cbnz	w4, 182c <__mpa_montgomery_sub_ack+0x54>
/home/lagadanu/Desktop/qemu/optee_os/lib/libmpa/mpa_montgomery.c:93
    17fc:	b9400401 	ldr	w1, [x0,#4]
    1800:	6b0100bf 	cmp	w5, w1
    1804:	5400026a 	b.ge	1850 <__mpa_montgomery_sub_ack+0x78>
    1808:	d65f03c0 	ret
/home/lagadanu/Desktop/qemu/optee_os/lib/libmpa/mpa_montgomery.c:79
    180c:	b8667825 	ldr	w5, [x1,x6,lsl #2]
    1810:	b9400043 	ldr	w3, [x2]
    1814:	cb050063 	sub	x3, x3, x5
    1818:	cb244063 	sub	x3, x3, w4, uxtw
/home/lagadanu/Desktop/qemu/optee_os/lib/libmpa/mpa_montgomery.c:81
    181c:	b8004443 	str	w3, [x2],#4
/home/lagadanu/Desktop/qemu/optee_os/lib/libmpa/mpa_montgomery.c:82
    1820:	d360fc63 	lsr	x3, x3, #32
    1824:	4b0303e4 	neg	w4, w3
    1828:	17ffffef 	b	17e4 <__mpa_montgomery_sub_ack+0xc>
/home/lagadanu/Desktop/qemu/optee_os/lib/libmpa/mpa_montgomery.c:88
    182c:	b9400041 	ldr	w1, [x2]
/home/lagadanu/Desktop/qemu/optee_os/lib/libmpa/mpa_montgomery.c:91
    1830:	110004a5 	add	w5, w5, #0x1
/home/lagadanu/Desktop/qemu/optee_os/lib/libmpa/mpa_montgomery.c:88
    1834:	cb244023 	sub	x3, x1, w4, uxtw
/home/lagadanu/Desktop/qemu/optee_os/lib/libmpa/mpa_montgomery.c:89
    1838:	b8004443 	str	w3, [x2],#4
/home/lagadanu/Desktop/qemu/optee_os/lib/libmpa/mpa_montgomery.c:90
    183c:	d360fc63 	lsr	x3, x3, #32
    1840:	4b0303e4 	neg	w4, w3
    1844:	17ffffed 	b	17f8 <__mpa_montgomery_sub_ack+0x20>
/home/lagadanu/Desktop/qemu/optee_os/lib/libmpa/mpa_montgomery.c:96
    1848:	51000421 	sub	w1, w1, #0x1
    184c:	b9000401 	str	w1, [x0,#4]
/home/lagadanu/Desktop/qemu/optee_os/lib/libmpa/mpa_montgomery.c:95
    1850:	b9400401 	ldr	w1, [x0,#4]
    1854:	7100003f 	cmp	w1, #0x0
    1858:	5400006d 	b.le	1864 <__mpa_montgomery_sub_ack+0x8c>
/home/lagadanu/Desktop/qemu/optee_os/lib/libmpa/mpa_montgomery.c:95 (discriminator 1)
    185c:	b85fcc43 	ldr	w3, [x2,#-4]!
    1860:	34ffff43 	cbz	w3, 1848 <__mpa_montgomery_sub_ack+0x70>
    1864:	d65f03c0 	ret

0000000000001868 <__mpa_montgomery_mul>:
__mpa_montgomery_mul():
/home/lagadanu/Desktop/qemu/optee_os/lib/libmpa/mpa_montgomery.c:115
    1868:	a9bb7bfd 	stp	x29, x30, [sp,#-80]!
    186c:	910003fd 	mov	x29, sp
    1870:	a90363f7 	stp	x23, x24, [sp,#48]
    1874:	aa0103f7 	mov	x23, x1
    1878:	a9046bf9 	stp	x25, x26, [sp,#64]
    187c:	910022f9 	add	x25, x23, #0x8
/home/lagadanu/Desktop/qemu/optee_os/lib/libmpa/mpa_montgomery.c:122
    1880:	52800018 	mov	w24, #0x0                   	// #0
/home/lagadanu/Desktop/qemu/optee_os/lib/libmpa/mpa_montgomery.c:115
    1884:	a90153f3 	stp	x19, x20, [sp,#16]
    1888:	a9025bf5 	stp	x21, x22, [sp,#32]
    188c:	aa0003f3 	mov	x19, x0
    1890:	aa0203f6 	mov	x22, x2
    1894:	aa0303f4 	mov	x20, x3
    1898:	2a0403f5 	mov	w21, w4
/home/lagadanu/Desktop/qemu/optee_os/lib/libmpa/mpa_montgomery.c:120
    189c:	97ffff55 	bl	15f0 <mpa_wipe>
/home/lagadanu/Desktop/qemu/optee_os/lib/libmpa/mpa_montgomery.c:122 (discriminator 1)
    18a0:	b9400680 	ldr	w0, [x20,#4]
    18a4:	6b00031f 	cmp	w24, w0
    18a8:	540001ab 	b.lt	18dc <__mpa_montgomery_mul+0x74>
/home/lagadanu/Desktop/qemu/optee_os/lib/libmpa/mpa_montgomery.c:139
    18ac:	aa1403e1 	mov	x1, x20
    18b0:	aa1303e0 	mov	x0, x19
    18b4:	94000aad 	bl	4368 <__mpa_abs_cmp>
    18b8:	37f805e0 	tbnz	w0, #31, 1974 <__mpa_montgomery_mul+0x10c>
/home/lagadanu/Desktop/qemu/optee_os/lib/libmpa/mpa_montgomery.c:140
    18bc:	aa1403e1 	mov	x1, x20
    18c0:	aa1303e0 	mov	x0, x19
/home/lagadanu/Desktop/qemu/optee_os/lib/libmpa/mpa_montgomery.c:141
    18c4:	a9425bf5 	ldp	x21, x22, [sp,#32]
    18c8:	a94153f3 	ldp	x19, x20, [sp,#16]
    18cc:	a94363f7 	ldp	x23, x24, [sp,#48]
    18d0:	a9446bf9 	ldp	x25, x26, [sp,#64]
    18d4:	a8c57bfd 	ldp	x29, x30, [sp],#80
/home/lagadanu/Desktop/qemu/optee_os/lib/libmpa/mpa_montgomery.c:140
    18d8:	17ffffc0 	b	17d8 <__mpa_montgomery_sub_ack>
/home/lagadanu/Desktop/qemu/optee_os/lib/libmpa/mpa_montgomery.c:124
    18dc:	b94006e1 	ldr	w1, [x23,#4]
    18e0:	52800002 	mov	w2, #0x0                   	// #0
/home/lagadanu/Desktop/qemu/optee_os/lib/libmpa/mpa_montgomery.c:123
    18e4:	b9400a69 	ldr	w9, [x19,#8]
/home/lagadanu/Desktop/qemu/optee_os/lib/libmpa/mpa_montgomery.c:124
    18e8:	7100003f 	cmp	w1, #0x0
    18ec:	5a81a421 	cneg	w1, w1, lt
    18f0:	6b01031f 	cmp	w24, w1
    18f4:	5400004a 	b.ge	18fc <__mpa_montgomery_mul+0x94>
/home/lagadanu/Desktop/qemu/optee_os/lib/libmpa/mpa_montgomery.c:124 (discriminator 1)
    18f8:	b9400322 	ldr	w2, [x25]
/home/lagadanu/Desktop/qemu/optee_os/lib/libmpa/mpa_montgomery.c:125
    18fc:	b94006c1 	ldr	w1, [x22,#4]
    1900:	52800000 	mov	w0, #0x0                   	// #0
    1904:	34000041 	cbz	w1, 190c <__mpa_montgomery_mul+0xa4>
/home/lagadanu/Desktop/qemu/optee_os/lib/libmpa/mpa_montgomery.c:125 (discriminator 1)
    1908:	b9400ac0 	ldr	w0, [x22,#8]
/home/lagadanu/Desktop/qemu/optee_os/lib/libmpa/mpa_montgomery.c:123
    190c:	1b002440 	madd	w0, w2, w0, w9
/home/lagadanu/Desktop/qemu/optee_os/lib/libmpa/mpa_montgomery.c:127
    1910:	aa1603e1 	mov	x1, x22
/home/lagadanu/Desktop/qemu/optee_os/lib/libmpa/mpa_montgomery.c:123
    1914:	1b157c1a 	mul	w26, w0, w21
/home/lagadanu/Desktop/qemu/optee_os/lib/libmpa/mpa_montgomery.c:127
    1918:	aa1303e0 	mov	x0, x19
    191c:	97ffff91 	bl	1760 <__mpa_montgomery_mul_add>
/home/lagadanu/Desktop/qemu/optee_os/lib/libmpa/mpa_montgomery.c:129
    1920:	2a1a03e2 	mov	w2, w26
    1924:	aa1403e1 	mov	x1, x20
    1928:	aa1303e0 	mov	x0, x19
    192c:	97ffff8d 	bl	1760 <__mpa_montgomery_mul_add>
/home/lagadanu/Desktop/qemu/optee_os/lib/libmpa/mpa_montgomery.c:132
    1930:	b9400660 	ldr	w0, [x19,#4]
    1934:	91002261 	add	x1, x19, #0x8
/home/lagadanu/Desktop/qemu/optee_os/lib/libmpa/mpa_montgomery.c:133
    1938:	52800002 	mov	w2, #0x0                   	// #0
/home/lagadanu/Desktop/qemu/optee_os/lib/libmpa/mpa_montgomery.c:132
    193c:	51000400 	sub	w0, w0, #0x1
    1940:	b9000660 	str	w0, [x19,#4]
    1944:	91001021 	add	x1, x1, #0x4
/home/lagadanu/Desktop/qemu/optee_os/lib/libmpa/mpa_montgomery.c:133 (discriminator 1)
    1948:	6b00005f 	cmp	w2, w0
    194c:	540000cb 	b.lt	1964 <__mpa_montgomery_mul+0xfc>
/home/lagadanu/Desktop/qemu/optee_os/lib/libmpa/mpa_montgomery.c:135 (discriminator 2)
    1950:	8b20ca60 	add	x0, x19, w0, sxtw #2
/home/lagadanu/Desktop/qemu/optee_os/lib/libmpa/mpa_montgomery.c:122 (discriminator 2)
    1954:	11000718 	add	w24, w24, #0x1
    1958:	91001339 	add	x25, x25, #0x4
/home/lagadanu/Desktop/qemu/optee_os/lib/libmpa/mpa_montgomery.c:135 (discriminator 2)
    195c:	b900081f 	str	wzr, [x0,#8]
    1960:	17ffffd0 	b	18a0 <__mpa_montgomery_mul+0x38>
/home/lagadanu/Desktop/qemu/optee_os/lib/libmpa/mpa_montgomery.c:134 (discriminator 3)
    1964:	b9400023 	ldr	w3, [x1]
    1968:	11000442 	add	w2, w2, #0x1
    196c:	b81fc023 	stur	w3, [x1,#-4]
    1970:	17fffff5 	b	1944 <__mpa_montgomery_mul+0xdc>
/home/lagadanu/Desktop/qemu/optee_os/lib/libmpa/mpa_montgomery.c:141
    1974:	a94153f3 	ldp	x19, x20, [sp,#16]
    1978:	a9425bf5 	ldp	x21, x22, [sp,#32]
    197c:	a94363f7 	ldp	x23, x24, [sp,#48]
    1980:	a9446bf9 	ldp	x25, x26, [sp,#64]
    1984:	a8c57bfd 	ldp	x29, x30, [sp],#80
    1988:	d65f03c0 	ret

000000000000198c <mpa_compute_fmm_context>:
mpa_compute_fmm_context():
/home/lagadanu/Desktop/qemu/optee_os/lib/libmpa/mpa_montgomery.c:157
    198c:	a9ba7bfd 	stp	x29, x30, [sp,#-96]!
    1990:	910003fd 	mov	x29, sp
    1994:	a90363f7 	stp	x23, x24, [sp,#48]
    1998:	aa0203f8 	mov	x24, x2
/home/lagadanu/Desktop/qemu/optee_os/lib/libmpa/mpa_montgomery.c:171
    199c:	b9400402 	ldr	w2, [x0,#4]
/home/lagadanu/Desktop/qemu/optee_os/lib/libmpa/mpa_montgomery.c:157
    19a0:	aa0303f7 	mov	x23, x3
    19a4:	a90153f3 	stp	x19, x20, [sp,#16]
    19a8:	aa0103f4 	mov	x20, x1
/home/lagadanu/Desktop/qemu/optee_os/lib/libmpa/mpa_montgomery.c:171
    19ac:	7100005f 	cmp	w2, #0x0
/home/lagadanu/Desktop/qemu/optee_os/lib/libmpa/mpa_montgomery.c:157
    19b0:	aa0403f3 	mov	x19, x4
    19b4:	a9025bf5 	stp	x21, x22, [sp,#32]
/home/lagadanu/Desktop/qemu/optee_os/lib/libmpa/mpa_montgomery.c:172
    19b8:	52800021 	mov	w1, #0x1                   	// #1
/home/lagadanu/Desktop/qemu/optee_os/lib/libmpa/mpa_montgomery.c:171
    19bc:	5a82a455 	cneg	w21, w2, lt
/home/lagadanu/Desktop/qemu/optee_os/lib/libmpa/mpa_montgomery.c:157
    19c0:	aa0003f6 	mov	x22, x0
/home/lagadanu/Desktop/qemu/optee_os/lib/libmpa/mpa_montgomery.c:172
    19c4:	aa1403e0 	mov	x0, x20
    19c8:	94000175 	bl	1f9c <mpa_set_word>
/home/lagadanu/Desktop/qemu/optee_os/lib/libmpa/mpa_montgomery.c:173
    19cc:	531b6aa2 	lsl	w2, w21, #5
    19d0:	aa1403e1 	mov	x1, x20
    19d4:	aa1403e0 	mov	x0, x20
    19d8:	94000772 	bl	37a0 <mpa_shift_left>
/home/lagadanu/Desktop/qemu/optee_os/lib/libmpa/mpa_montgomery.c:174
    19dc:	aa1603e2 	mov	x2, x22
    19e0:	aa1403e1 	mov	x1, x20
    19e4:	aa1403e0 	mov	x0, x20
    19e8:	aa1303e3 	mov	x3, x19
    19ec:	94000d32 	bl	4eb4 <mpa_mod>
/home/lagadanu/Desktop/qemu/optee_os/lib/libmpa/mpa_montgomery.c:180
    19f0:	52800035 	mov	w21, #0x1                   	// #1
/home/lagadanu/Desktop/qemu/optee_os/lib/libmpa/mpa_montgomery.c:177
    19f4:	aa1603e3 	mov	x3, x22
    19f8:	aa1403e2 	mov	x2, x20
    19fc:	aa1303e4 	mov	x4, x19
    1a00:	aa1403e1 	mov	x1, x20
    1a04:	aa1803e0 	mov	x0, x24
    1a08:	94000d73 	bl	4fd4 <mpa_mul_mod>
/home/lagadanu/Desktop/qemu/optee_os/lib/libmpa/mpa_montgomery.c:182
    1a0c:	b9400ac0 	ldr	w0, [x22,#8]
/home/lagadanu/Desktop/qemu/optee_os/lib/libmpa/mpa_montgomery.c:184
    1a10:	910103b6 	add	x22, x29, #0x40
    1a14:	aa1303e1 	mov	x1, x19
/home/lagadanu/Desktop/qemu/optee_os/lib/libmpa/mpa_montgomery.c:181
    1a18:	290a57b5 	stp	w21, w21, [x29,#80]
/home/lagadanu/Desktop/qemu/optee_os/lib/libmpa/mpa_montgomery.c:182
    1a1c:	b9005ba0 	str	w0, [x29,#88]
/home/lagadanu/Desktop/qemu/optee_os/lib/libmpa/mpa_montgomery.c:185
    1a20:	910123b8 	add	x24, x29, #0x48
/home/lagadanu/Desktop/qemu/optee_os/lib/libmpa/mpa_montgomery.c:184
    1a24:	aa1603e0 	mov	x0, x22
    1a28:	940005dd 	bl	319c <mpa_alloc_static_temp_var>
/home/lagadanu/Desktop/qemu/optee_os/lib/libmpa/mpa_montgomery.c:185
    1a2c:	aa1303e1 	mov	x1, x19
    1a30:	aa1803e0 	mov	x0, x24
    1a34:	940005da 	bl	319c <mpa_alloc_static_temp_var>
/home/lagadanu/Desktop/qemu/optee_os/lib/libmpa/mpa_montgomery.c:187
    1a38:	f0000034 	adrp	x20, 8000 <PRIME_TABLE+0xb30>
    1a3c:	a94403a1 	ldp	x1, x0, [x29,#64]
    1a40:	aa1303e5 	mov	x5, x19
    1a44:	f945b294 	ldr	x20, [x20,#2912]
    1a48:	910143a3 	add	x3, x29, #0x50
    1a4c:	d2800002 	mov	x2, #0x0                   	// #0
    1a50:	aa1403e4 	mov	x4, x20
    1a54:	94000544 	bl	2f64 <mpa_extended_gcd>
/home/lagadanu/Desktop/qemu/optee_os/lib/libmpa/mpa_montgomery.c:189
    1a58:	f94027a0 	ldr	x0, [x29,#72]
    1a5c:	2a1503e1 	mov	w1, w21
    1a60:	94000a95 	bl	44b4 <mpa_cmp_short>
    1a64:	2a0003f5 	mov	w21, w0
/home/lagadanu/Desktop/qemu/optee_os/lib/libmpa/mpa_montgomery.c:191
    1a68:	35000160 	cbnz	w0, 1a94 <mpa_compute_fmm_context+0x108>
/home/lagadanu/Desktop/qemu/optee_os/lib/libmpa/mpa_montgomery.c:207
    1a6c:	f94023a1 	ldr	x1, [x29,#64]
    1a70:	b9400420 	ldr	w0, [x1,#4]
    1a74:	37f800a0 	tbnz	w0, #31, 1a88 <mpa_compute_fmm_context+0xfc>
/home/lagadanu/Desktop/qemu/optee_os/lib/libmpa/mpa_montgomery.c:208
    1a78:	aa1303e3 	mov	x3, x19
    1a7c:	aa1403e2 	mov	x2, x20
    1a80:	aa0103e0 	mov	x0, x1
    1a84:	9400092a 	bl	3f2c <mpa_sub>
/home/lagadanu/Desktop/qemu/optee_os/lib/libmpa/mpa_montgomery.c:212
    1a88:	f94023a0 	ldr	x0, [x29,#64]
    1a8c:	b9400800 	ldr	w0, [x0,#8]
    1a90:	b90002e0 	str	w0, [x23]
/home/lagadanu/Desktop/qemu/optee_os/lib/libmpa/mpa_montgomery.c:216
    1a94:	aa1303e1 	mov	x1, x19
    1a98:	aa1803e0 	mov	x0, x24
    1a9c:	940005c4 	bl	31ac <mpa_free_static_temp_var>
/home/lagadanu/Desktop/qemu/optee_os/lib/libmpa/mpa_montgomery.c:217
    1aa0:	aa1303e1 	mov	x1, x19
    1aa4:	aa1603e0 	mov	x0, x22
    1aa8:	940005c1 	bl	31ac <mpa_free_static_temp_var>
/home/lagadanu/Desktop/qemu/optee_os/lib/libmpa/mpa_montgomery.c:219
    1aac:	710002bf 	cmp	w21, #0x0
/home/lagadanu/Desktop/qemu/optee_os/lib/libmpa/mpa_montgomery.c:222
    1ab0:	a94153f3 	ldp	x19, x20, [sp,#16]
    1ab4:	5a9f03e0 	csetm	w0, ne
    1ab8:	a9425bf5 	ldp	x21, x22, [sp,#32]
    1abc:	a94363f7 	ldp	x23, x24, [sp,#48]
    1ac0:	a8c67bfd 	ldp	x29, x30, [sp],#96
    1ac4:	d65f03c0 	ret

0000000000001ac8 <mpa_montgomery_mul>:
mpa_montgomery_mul():
/home/lagadanu/Desktop/qemu/optee_os/lib/libmpa/mpa_montgomery.c:235
    1ac8:	a9ba7bfd 	stp	x29, x30, [sp,#-96]!
    1acc:	910003fd 	mov	x29, sp
    1ad0:	a90153f3 	stp	x19, x20, [sp,#16]
/home/lagadanu/Desktop/qemu/optee_os/lib/libmpa/mpa_montgomery.c:238
    1ad4:	910163b3 	add	x19, x29, #0x58
/home/lagadanu/Desktop/qemu/optee_os/lib/libmpa/mpa_montgomery.c:235
    1ad8:	aa0503f4 	mov	x20, x5
    1adc:	a9025bf5 	stp	x21, x22, [sp,#32]
    1ae0:	a90363f7 	stp	x23, x24, [sp,#48]
    1ae4:	aa0003f5 	mov	x21, x0
    1ae8:	f90023f9 	str	x25, [sp,#64]
    1aec:	aa0103f6 	mov	x22, x1
    1af0:	aa0203f7 	mov	x23, x2
/home/lagadanu/Desktop/qemu/optee_os/lib/libmpa/mpa_montgomery.c:238
    1af4:	aa0503e1 	mov	x1, x5
/home/lagadanu/Desktop/qemu/optee_os/lib/libmpa/mpa_montgomery.c:235
    1af8:	aa0303f8 	mov	x24, x3
    1afc:	2a0403f9 	mov	w25, w4
/home/lagadanu/Desktop/qemu/optee_os/lib/libmpa/mpa_montgomery.c:238
    1b00:	aa1303e0 	mov	x0, x19
    1b04:	940005a6 	bl	319c <mpa_alloc_static_temp_var>
/home/lagadanu/Desktop/qemu/optee_os/lib/libmpa/mpa_montgomery.c:240
    1b08:	f9402fa0 	ldr	x0, [x29,#88]
    1b0c:	2a1903e4 	mov	w4, w25
    1b10:	aa1803e3 	mov	x3, x24
    1b14:	aa1703e2 	mov	x2, x23
    1b18:	aa1603e1 	mov	x1, x22
    1b1c:	97ffff53 	bl	1868 <__mpa_montgomery_mul>
/home/lagadanu/Desktop/qemu/optee_os/lib/libmpa/mpa_montgomery.c:242
    1b20:	f9402fa1 	ldr	x1, [x29,#88]
    1b24:	aa1503e0 	mov	x0, x21
    1b28:	97fffebe 	bl	1620 <mpa_copy>
/home/lagadanu/Desktop/qemu/optee_os/lib/libmpa/mpa_montgomery.c:243
    1b2c:	aa1403e1 	mov	x1, x20
    1b30:	aa1303e0 	mov	x0, x19
    1b34:	9400059e 	bl	31ac <mpa_free_static_temp_var>
/home/lagadanu/Desktop/qemu/optee_os/lib/libmpa/mpa_montgomery.c:244
    1b38:	f94023f9 	ldr	x25, [sp,#64]
    1b3c:	a94153f3 	ldp	x19, x20, [sp,#16]
    1b40:	a9425bf5 	ldp	x21, x22, [sp,#32]
    1b44:	a94363f7 	ldp	x23, x24, [sp,#48]
    1b48:	a8c67bfd 	ldp	x29, x30, [sp],#96
    1b4c:	d65f03c0 	ret

0000000000001b50 <mpa_is_prob_prime>:
mpa_is_prob_prime():
/home/lagadanu/Desktop/qemu/optee_os/lib/libmpa/mpa_primetest.c:67
    1b50:	a9b37bfd 	stp	x29, x30, [sp,#-208]!
    1b54:	910003fd 	mov	x29, sp
    1b58:	a9025bf5 	stp	x21, x22, [sp,#32]
    1b5c:	2a0103f6 	mov	w22, w1
is_small_prime():
/home/lagadanu/Desktop/qemu/optee_os/lib/libmpa/mpa_primetest.c:114
    1b60:	b9400401 	ldr	w1, [x0,#4]
mpa_is_prob_prime():
/home/lagadanu/Desktop/qemu/optee_os/lib/libmpa/mpa_primetest.c:67
    1b64:	a90153f3 	stp	x19, x20, [sp,#16]
    1b68:	aa0003f4 	mov	x20, x0
is_small_prime():
/home/lagadanu/Desktop/qemu/optee_os/lib/libmpa/mpa_primetest.c:114
    1b6c:	7100003f 	cmp	w1, #0x0
mpa_is_prob_prime():
/home/lagadanu/Desktop/qemu/optee_os/lib/libmpa/mpa_primetest.c:67
    1b70:	a90363f7 	stp	x23, x24, [sp,#48]
    1b74:	a9046bf9 	stp	x25, x26, [sp,#64]
is_small_prime():
/home/lagadanu/Desktop/qemu/optee_os/lib/libmpa/mpa_primetest.c:114
    1b78:	5a81a421 	cneg	w1, w1, lt
mpa_is_prob_prime():
/home/lagadanu/Desktop/qemu/optee_os/lib/libmpa/mpa_primetest.c:67
    1b7c:	a90573fb 	stp	x27, x28, [sp,#80]
    1b80:	aa0203f3 	mov	x19, x2
is_small_prime():
/home/lagadanu/Desktop/qemu/optee_os/lib/libmpa/mpa_primetest.c:114
    1b84:	7100043f 	cmp	w1, #0x1
    1b88:	5400018d 	b.le	1bb8 <mpa_is_prob_prime+0x68>
/home/lagadanu/Desktop/qemu/optee_os/lib/libmpa/mpa_primetest.c:115
    1b8c:	97fffeef 	bl	1748 <mpa_parity>
    1b90:	35000d80 	cbnz	w0, 1d40 <mpa_is_prob_prime+0x1f0>
    1b94:	52800019 	mov	w25, #0x0                   	// #0
mpa_is_prob_prime():
/home/lagadanu/Desktop/qemu/optee_os/lib/libmpa/mpa_primetest.c:85
    1b98:	2a1903e0 	mov	w0, w25
    1b9c:	a94153f3 	ldp	x19, x20, [sp,#16]
    1ba0:	a9425bf5 	ldp	x21, x22, [sp,#32]
    1ba4:	a94363f7 	ldp	x23, x24, [sp,#48]
    1ba8:	a9446bf9 	ldp	x25, x26, [sp,#64]
    1bac:	a94573fb 	ldp	x27, x28, [sp,#80]
    1bb0:	a8cd7bfd 	ldp	x29, x30, [sp],#208
    1bb4:	d65f03c0 	ret
is_small_prime():
/home/lagadanu/Desktop/qemu/optee_os/lib/libmpa/mpa_primetest.c:117
    1bb8:	940000fe 	bl	1fb0 <mpa_get_word>
    1bbc:	2a0003f5 	mov	w21, w0
/home/lagadanu/Desktop/qemu/optee_os/lib/libmpa/mpa_primetest.c:118
    1bc0:	32000000 	orr	w0, w0, #0x1
    1bc4:	7100041f 	cmp	w0, #0x1
    1bc8:	54fffe60 	b.eq	1b94 <mpa_is_prob_prime+0x44>
/home/lagadanu/Desktop/qemu/optee_os/lib/libmpa/mpa_primetest.c:121
    1bcc:	52800039 	mov	w25, #0x1                   	// #1
/home/lagadanu/Desktop/qemu/optee_os/lib/libmpa/mpa_primetest.c:120
    1bd0:	71000abf 	cmp	w21, #0x2
    1bd4:	54fffe20 	b.eq	1b98 <mpa_is_prob_prime+0x48>
/home/lagadanu/Desktop/qemu/optee_os/lib/libmpa/mpa_primetest.c:122
    1bd8:	3607fdf5 	tbz	w21, #0, 1b94 <mpa_is_prob_prime+0x44>
/home/lagadanu/Desktop/qemu/optee_os/lib/libmpa/mpa_primetest.c:126
    1bdc:	529869e1 	mov	w1, #0xc34f                	// #49999
    1be0:	aa1403e0 	mov	x0, x20
    1be4:	94000a34 	bl	44b4 <mpa_cmp_short>
    1be8:	7100001f 	cmp	w0, #0x0
    1bec:	54000aac 	b.gt	1d40 <mpa_is_prob_prime+0x1f0>
/home/lagadanu/Desktop/qemu/optee_os/lib/libmpa/mpa_primetest.c:128
    1bf0:	51000eb5 	sub	w21, w21, #0x3
check_table():
/home/lagadanu/Desktop/qemu/optee_os/lib/libmpa/mpa_primetest.c:95
    1bf4:	d0000020 	adrp	x0, 7000 <snprintk+0x40>
    1bf8:	91134000 	add	x0, x0, #0x4d0
    1bfc:	d3467ea1 	ubfx	x1, x21, #6, #26
    1c00:	d34116b5 	ubfx	x21, x21, #1, #5
    1c04:	b8617802 	ldr	w2, [x0,x1,lsl #2]
    1c08:	1ad52440 	lsr	w0, w2, w21
    1c0c:	0a190019 	and	w25, w0, w25
    1c10:	17ffffe2 	b	1b98 <mpa_is_prob_prime+0x48>
primality_test_miller_rabin():
/home/lagadanu/Desktop/qemu/optee_os/lib/libmpa/mpa_primetest.c:206
    1c14:	f94057a1 	ldr	x1, [x29,#168]
    1c18:	52800022 	mov	w2, #0x1                   	// #1
/home/lagadanu/Desktop/qemu/optee_os/lib/libmpa/mpa_primetest.c:207
    1c1c:	11000718 	add	w24, w24, #0x1
/home/lagadanu/Desktop/qemu/optee_os/lib/libmpa/mpa_primetest.c:206
    1c20:	aa0103e0 	mov	x0, x1
    1c24:	94000743 	bl	3930 <mpa_shift_right>
    1c28:	1400008e 	b	1e60 <mpa_is_prob_prime+0x310>
/home/lagadanu/Desktop/qemu/optee_os/lib/libmpa/mpa_primetest.c:212
    1c2c:	36f803b7 	tbz	w23, #31, 1ca0 <mpa_is_prob_prime+0x150>
/home/lagadanu/Desktop/qemu/optee_os/lib/libmpa/mpa_primetest.c:213
    1c30:	f9403ba0 	ldr	x0, [x29,#112]
/home/lagadanu/Desktop/qemu/optee_os/lib/libmpa/mpa_primetest.c:215
    1c34:	52800039 	mov	w25, #0x1                   	// #1
/home/lagadanu/Desktop/qemu/optee_os/lib/libmpa/mpa_primetest.c:213
    1c38:	91312000 	add	x0, x0, #0xc48
    1c3c:	b8767801 	ldr	w1, [x0,x22,lsl #2]
    1c40:	f94053a0 	ldr	x0, [x29,#160]
    1c44:	940000ae 	bl	1efc <mpa_set_S32>
/home/lagadanu/Desktop/qemu/optee_os/lib/libmpa/mpa_primetest.c:214
    1c48:	f94053a1 	ldr	x1, [x29,#160]
    1c4c:	aa1403e0 	mov	x0, x20
    1c50:	940009ff 	bl	444c <mpa_cmp>
    1c54:	34000220 	cbz	w0, 1c98 <mpa_is_prob_prime+0x148>
/home/lagadanu/Desktop/qemu/optee_os/lib/libmpa/mpa_primetest.c:232
    1c58:	b9409fa6 	ldr	w6, [x29,#156]
    1c5c:	aa1303e7 	mov	x7, x19
    1c60:	a94a0ba1 	ldp	x1, x2, [x29,#160]
    1c64:	aa1403e3 	mov	x3, x20
    1c68:	a94b93a0 	ldp	x0, x4, [x29,#184]
/home/lagadanu/Desktop/qemu/optee_os/lib/libmpa/mpa_primetest.c:233
    1c6c:	52800019 	mov	w25, #0x0                   	// #0
/home/lagadanu/Desktop/qemu/optee_os/lib/libmpa/mpa_primetest.c:232
    1c70:	f94067a5 	ldr	x5, [x29,#200]
    1c74:	94000a31 	bl	4538 <mpa_exp_mod>
/home/lagadanu/Desktop/qemu/optee_os/lib/libmpa/mpa_primetest.c:236
    1c78:	f9405fa0 	ldr	x0, [x29,#184]
    1c7c:	52800021 	mov	w1, #0x1                   	// #1
    1c80:	94000a0d 	bl	44b4 <mpa_cmp_short>
/home/lagadanu/Desktop/qemu/optee_os/lib/libmpa/mpa_primetest.c:237
    1c84:	7100001f 	cmp	w0, #0x0
/home/lagadanu/Desktop/qemu/optee_os/lib/libmpa/mpa_primetest.c:236
    1c88:	2a0003e2 	mov	w2, w0
/home/lagadanu/Desktop/qemu/optee_os/lib/libmpa/mpa_primetest.c:237
    1c8c:	7a400b24 	ccmp	w25, #0x0, #0x4, eq
    1c90:	540002ed 	b.le	1cec <mpa_is_prob_prime+0x19c>
/home/lagadanu/Desktop/qemu/optee_os/lib/libmpa/mpa_primetest.c:238
    1c94:	52800019 	mov	w25, #0x0                   	// #0
    1c98:	910006d6 	add	x22, x22, #0x1
    1c9c:	1400007b 	b	1e88 <mpa_is_prob_prime+0x338>
/home/lagadanu/Desktop/qemu/optee_os/lib/libmpa/mpa_primetest.c:224
    1ca0:	f9405ba1 	ldr	x1, [x29,#176]
    1ca4:	aa1303e3 	mov	x3, x19
    1ca8:	52800022 	mov	w2, #0x1                   	// #1
    1cac:	aa0103e0 	mov	x0, x1
    1cb0:	94000960 	bl	4230 <mpa_sub_word>
/home/lagadanu/Desktop/qemu/optee_os/lib/libmpa/mpa_primetest.c:226
    1cb4:	f94053a0 	ldr	x0, [x29,#160]
    1cb8:	f9405ba1 	ldr	x1, [x29,#176]
    1cbc:	9400061e 	bl	3534 <mpa_get_random>
/home/lagadanu/Desktop/qemu/optee_os/lib/libmpa/mpa_primetest.c:227
    1cc0:	f9405ba1 	ldr	x1, [x29,#176]
    1cc4:	aa1303e3 	mov	x3, x19
    1cc8:	52800022 	mov	w2, #0x1                   	// #1
    1ccc:	aa0103e0 	mov	x0, x1
    1cd0:	94000909 	bl	40f4 <mpa_add_word>
/home/lagadanu/Desktop/qemu/optee_os/lib/libmpa/mpa_primetest.c:229
    1cd4:	f94053a1 	ldr	x1, [x29,#160]
    1cd8:	aa1303e3 	mov	x3, x19
    1cdc:	52800042 	mov	w2, #0x2                   	// #2
    1ce0:	aa0103e0 	mov	x0, x1
    1ce4:	94000904 	bl	40f4 <mpa_add_word>
    1ce8:	17ffffdc 	b	1c58 <mpa_is_prob_prime+0x108>
/home/lagadanu/Desktop/qemu/optee_os/lib/libmpa/mpa_primetest.c:242
    1cec:	a94b03a1 	ldp	x1, x0, [x29,#176]
    1cf0:	b90067a2 	str	w2, [x29,#100]
    1cf4:	940009d6 	bl	444c <mpa_cmp>
    1cf8:	34000200 	cbz	w0, 1d38 <mpa_is_prob_prime+0x1e8>
/home/lagadanu/Desktop/qemu/optee_os/lib/libmpa/mpa_primetest.c:243
    1cfc:	b94067a2 	ldr	w2, [x29,#100]
    1d00:	2a190042 	orr	w2, w2, w25
/home/lagadanu/Desktop/qemu/optee_os/lib/libmpa/mpa_primetest.c:242
    1d04:	340001a2 	cbz	w2, 1d38 <mpa_is_prob_prime+0x1e8>
/home/lagadanu/Desktop/qemu/optee_os/lib/libmpa/mpa_primetest.c:248
    1d08:	11000739 	add	w25, w25, #0x1
/home/lagadanu/Desktop/qemu/optee_os/lib/libmpa/mpa_primetest.c:249
    1d0c:	6b19031f 	cmp	w24, w25
    1d10:	54fffc2d 	b.le	1c94 <mpa_is_prob_prime+0x144>
/home/lagadanu/Desktop/qemu/optee_os/lib/libmpa/mpa_primetest.c:250
    1d14:	a94b93a1 	ldp	x1, x4, [x29,#184]
    1d18:	aa1303e7 	mov	x7, x19
    1d1c:	b9409fa6 	ldr	w6, [x29,#156]
    1d20:	aa1403e3 	mov	x3, x20
    1d24:	f94037a2 	ldr	x2, [x29,#104]
    1d28:	aa0103e0 	mov	x0, x1
    1d2c:	f94067a5 	ldr	x5, [x29,#200]
    1d30:	94000a02 	bl	4538 <mpa_exp_mod>
    1d34:	17ffffd1 	b	1c78 <mpa_is_prob_prime+0x128>
/home/lagadanu/Desktop/qemu/optee_os/lib/libmpa/mpa_primetest.c:242
    1d38:	12800019 	mov	w25, #0xffffffff            	// #-1
    1d3c:	17ffffd7 	b	1c98 <mpa_is_prob_prime+0x148>
has_small_factors():
/home/lagadanu/Desktop/qemu/optee_os/lib/libmpa/mpa_primetest.c:148
    1d40:	910323b5 	add	x21, x29, #0xc8
    1d44:	aa1303e1 	mov	x1, x19
    1d48:	aa1503e0 	mov	x0, x21
    1d4c:	94000514 	bl	319c <mpa_alloc_static_temp_var>
/home/lagadanu/Desktop/qemu/optee_os/lib/libmpa/mpa_primetest.c:149
    1d50:	f94067a0 	ldr	x0, [x29,#200]
    1d54:	d0000038 	adrp	x24, 7000 <snprintk+0x40>
    1d58:	91134317 	add	x23, x24, #0x4d0
    1d5c:	aa1303e3 	mov	x3, x19
    1d60:	9131e2e2 	add	x2, x23, #0xc78
    1d64:	aa1403e1 	mov	x1, x20
    1d68:	94000437 	bl	2e44 <mpa_gcd>
/home/lagadanu/Desktop/qemu/optee_os/lib/libmpa/mpa_primetest.c:150
    1d6c:	f94067a0 	ldr	x0, [x29,#200]
    1d70:	52800021 	mov	w1, #0x1                   	// #1
    1d74:	940009d0 	bl	44b4 <mpa_cmp_short>
    1d78:	2a0003f9 	mov	w25, w0
/home/lagadanu/Desktop/qemu/optee_os/lib/libmpa/mpa_primetest.c:151
    1d7c:	aa1303e1 	mov	x1, x19
    1d80:	aa1503e0 	mov	x0, x21
    1d84:	9400050a 	bl	31ac <mpa_free_static_temp_var>
    1d88:	f9003bb8 	str	x24, [x29,#112]
mpa_is_prob_prime():
/home/lagadanu/Desktop/qemu/optee_os/lib/libmpa/mpa_primetest.c:76
    1d8c:	35fff059 	cbnz	w25, 1b94 <mpa_is_prob_prime+0x44>
primality_test_miller_rabin():
/home/lagadanu/Desktop/qemu/optee_os/lib/libmpa/mpa_primetest.c:180
    1d90:	910303a0 	add	x0, x29, #0xc0
    1d94:	aa1303e1 	mov	x1, x19
    1d98:	f90043a0 	str	x0, [x29,#128]
    1d9c:	94000500 	bl	319c <mpa_alloc_static_temp_var>
/home/lagadanu/Desktop/qemu/optee_os/lib/libmpa/mpa_primetest.c:181
    1da0:	aa1303e1 	mov	x1, x19
    1da4:	aa1503e0 	mov	x0, x21
    1da8:	940004fd 	bl	319c <mpa_alloc_static_temp_var>
/home/lagadanu/Desktop/qemu/optee_os/lib/libmpa/mpa_primetest.c:184
    1dac:	52800019 	mov	w25, #0x0                   	// #0
/home/lagadanu/Desktop/qemu/optee_os/lib/libmpa/mpa_primetest.c:183
    1db0:	a94c0ba1 	ldp	x1, x2, [x29,#192]
    1db4:	aa1303e4 	mov	x4, x19
    1db8:	910273a3 	add	x3, x29, #0x9c
    1dbc:	aa1403e0 	mov	x0, x20
    1dc0:	97fffef3 	bl	198c <mpa_compute_fmm_context>
    1dc4:	3100041f 	cmn	w0, #0x1
    1dc8:	540008c0 	b.eq	1ee0 <mpa_is_prob_prime+0x390>
/home/lagadanu/Desktop/qemu/optee_os/lib/libmpa/mpa_primetest.c:188
    1dcc:	910283bc 	add	x28, x29, #0xa0
    1dd0:	aa1303e1 	mov	x1, x19
    1dd4:	aa1c03e0 	mov	x0, x28
/home/lagadanu/Desktop/qemu/optee_os/lib/libmpa/mpa_primetest.c:189
    1dd8:	9102a3bb 	add	x27, x29, #0xa8
/home/lagadanu/Desktop/qemu/optee_os/lib/libmpa/mpa_primetest.c:188
    1ddc:	940004f0 	bl	319c <mpa_alloc_static_temp_var>
/home/lagadanu/Desktop/qemu/optee_os/lib/libmpa/mpa_primetest.c:190
    1de0:	9102c3ba 	add	x26, x29, #0xb0
/home/lagadanu/Desktop/qemu/optee_os/lib/libmpa/mpa_primetest.c:189
    1de4:	aa1303e1 	mov	x1, x19
    1de8:	aa1b03e0 	mov	x0, x27
    1dec:	940004ec 	bl	319c <mpa_alloc_static_temp_var>
/home/lagadanu/Desktop/qemu/optee_os/lib/libmpa/mpa_primetest.c:190
    1df0:	aa1303e1 	mov	x1, x19
    1df4:	aa1a03e0 	mov	x0, x26
    1df8:	940004e9 	bl	319c <mpa_alloc_static_temp_var>
/home/lagadanu/Desktop/qemu/optee_os/lib/libmpa/mpa_primetest.c:191
    1dfc:	9102e3a0 	add	x0, x29, #0xb8
    1e00:	aa1303e1 	mov	x1, x19
    1e04:	f9003fa0 	str	x0, [x29,#120]
    1e08:	940004e5 	bl	319c <mpa_alloc_static_temp_var>
/home/lagadanu/Desktop/qemu/optee_os/lib/libmpa/mpa_primetest.c:194
    1e0c:	9130e2e1 	add	x1, x23, #0xc38
    1e10:	aa1403e0 	mov	x0, x20
    1e14:	9400098e 	bl	444c <mpa_cmp>
    1e18:	2a0003f7 	mov	w23, w0
/home/lagadanu/Desktop/qemu/optee_os/lib/libmpa/mpa_primetest.c:193
    1e1c:	531f7c00 	lsr	w0, w0, #31
    1e20:	b9008ba0 	str	w0, [x29,#136]
/home/lagadanu/Desktop/qemu/optee_os/lib/libmpa/mpa_primetest.c:197
    1e24:	528000e0 	mov	w0, #0x7                   	// #7
    1e28:	b9008fa0 	str	w0, [x29,#140]
/home/lagadanu/Desktop/qemu/optee_os/lib/libmpa/mpa_primetest.c:196
    1e2c:	37f800b7 	tbnz	w23, #31, 1e40 <mpa_is_prob_prime+0x2f0>
/home/lagadanu/Desktop/qemu/optee_os/lib/libmpa/mpa_primetest.c:199
    1e30:	110006d6 	add	w22, w22, #0x1
    1e34:	52800040 	mov	w0, #0x2                   	// #2
    1e38:	1ac00ec0 	sdiv	w0, w22, w0
    1e3c:	b9008fa0 	str	w0, [x29,#140]
/home/lagadanu/Desktop/qemu/optee_os/lib/libmpa/mpa_primetest.c:201
    1e40:	f9405ba0 	ldr	x0, [x29,#176]
    1e44:	aa1403e1 	mov	x1, x20
    1e48:	aa1303e3 	mov	x3, x19
    1e4c:	52800022 	mov	w2, #0x1                   	// #1
/home/lagadanu/Desktop/qemu/optee_os/lib/libmpa/mpa_primetest.c:203
    1e50:	52800018 	mov	w24, #0x0                   	// #0
/home/lagadanu/Desktop/qemu/optee_os/lib/libmpa/mpa_primetest.c:201
    1e54:	940008f7 	bl	4230 <mpa_sub_word>
/home/lagadanu/Desktop/qemu/optee_os/lib/libmpa/mpa_primetest.c:202
    1e58:	a94a87a0 	ldp	x0, x1, [x29,#168]
    1e5c:	97fffdf1 	bl	1620 <mpa_copy>
/home/lagadanu/Desktop/qemu/optee_os/lib/libmpa/mpa_primetest.c:205
    1e60:	f94057a0 	ldr	x0, [x29,#168]
    1e64:	97fffe39 	bl	1748 <mpa_parity>
    1e68:	34ffed60 	cbz	w0, 1c14 <mpa_is_prob_prime+0xc4>
/home/lagadanu/Desktop/qemu/optee_os/lib/libmpa/mpa_primetest.c:250
    1e6c:	f9403ba0 	ldr	x0, [x29,#112]
/home/lagadanu/Desktop/qemu/optee_os/lib/libmpa/mpa_primetest.c:205
    1e70:	d2800016 	mov	x22, #0x0                   	// #0
    1e74:	12800019 	mov	w25, #0xffffffff            	// #-1
/home/lagadanu/Desktop/qemu/optee_os/lib/libmpa/mpa_primetest.c:250
    1e78:	91134000 	add	x0, x0, #0x4d0
    1e7c:	f9003ba0 	str	x0, [x29,#112]
    1e80:	9131a000 	add	x0, x0, #0xc68
    1e84:	f90037a0 	str	x0, [x29,#104]
/home/lagadanu/Desktop/qemu/optee_os/lib/libmpa/mpa_primetest.c:211
    1e88:	b9408fa1 	ldr	w1, [x29,#140]
    1e8c:	3100073f 	cmn	w25, #0x1
    1e90:	1a9f17e0 	cset	w0, eq
    1e94:	6b16003f 	cmp	w1, w22
    1e98:	1a9fd7e1 	cset	w1, gt
    1e9c:	6a01001f 	tst	w0, w1
    1ea0:	54ffec61 	b.ne	1c2c <mpa_is_prob_prime+0xdc>
/home/lagadanu/Desktop/qemu/optee_os/lib/libmpa/mpa_primetest.c:258
    1ea4:	b9408ba1 	ldr	w1, [x29,#136]
    1ea8:	6a00003f 	tst	w1, w0
/home/lagadanu/Desktop/qemu/optee_os/lib/libmpa/mpa_primetest.c:260
    1eac:	aa1303e1 	mov	x1, x19
/home/lagadanu/Desktop/qemu/optee_os/lib/libmpa/mpa_primetest.c:258
    1eb0:	1a9f0739 	csinc	w25, w25, wzr, eq
/home/lagadanu/Desktop/qemu/optee_os/lib/libmpa/mpa_primetest.c:260
    1eb4:	aa1c03e0 	mov	x0, x28
    1eb8:	940004bd 	bl	31ac <mpa_free_static_temp_var>
/home/lagadanu/Desktop/qemu/optee_os/lib/libmpa/mpa_primetest.c:261
    1ebc:	aa1303e1 	mov	x1, x19
    1ec0:	aa1b03e0 	mov	x0, x27
    1ec4:	940004ba 	bl	31ac <mpa_free_static_temp_var>
/home/lagadanu/Desktop/qemu/optee_os/lib/libmpa/mpa_primetest.c:262
    1ec8:	aa1303e1 	mov	x1, x19
    1ecc:	aa1a03e0 	mov	x0, x26
    1ed0:	940004b7 	bl	31ac <mpa_free_static_temp_var>
/home/lagadanu/Desktop/qemu/optee_os/lib/libmpa/mpa_primetest.c:263
    1ed4:	f9403fa0 	ldr	x0, [x29,#120]
    1ed8:	aa1303e1 	mov	x1, x19
    1edc:	940004b4 	bl	31ac <mpa_free_static_temp_var>
/home/lagadanu/Desktop/qemu/optee_os/lib/libmpa/mpa_primetest.c:265
    1ee0:	f94043a0 	ldr	x0, [x29,#128]
    1ee4:	aa1303e1 	mov	x1, x19
    1ee8:	940004b1 	bl	31ac <mpa_free_static_temp_var>
/home/lagadanu/Desktop/qemu/optee_os/lib/libmpa/mpa_primetest.c:266
    1eec:	aa1303e1 	mov	x1, x19
    1ef0:	aa1503e0 	mov	x0, x21
    1ef4:	940004ae 	bl	31ac <mpa_free_static_temp_var>
    1ef8:	17ffff28 	b	1b98 <mpa_is_prob_prime+0x48>

0000000000001efc <mpa_set_S32>:
mpa_set_S32():
/home/lagadanu/Desktop/qemu/optee_os/lib/libmpa/mpa_conv.c:15
    1efc:	7100003f 	cmp	w1, #0x0
    1f00:	54000100 	b.eq	1f20 <mpa_set_S32+0x24>
/home/lagadanu/Desktop/qemu/optee_os/lib/libmpa/mpa_conv.c:16
    1f04:	52800022 	mov	w2, #0x1                   	// #1
    1f08:	5a82a442 	cneg	w2, w2, lt
    1f0c:	b9000402 	str	w2, [x0,#4]
/home/lagadanu/Desktop/qemu/optee_os/lib/libmpa/mpa_conv.c:19
    1f10:	7100003f 	cmp	w1, #0x0
    1f14:	5a81a421 	cneg	w1, w1, lt
    1f18:	b9000801 	str	w1, [x0,#8]
    1f1c:	d65f03c0 	ret
/home/lagadanu/Desktop/qemu/optee_os/lib/libmpa/mpa_conv.c:18
    1f20:	b900041f 	str	wzr, [x0,#4]
    1f24:	17fffffb 	b	1f10 <mpa_set_S32+0x14>

0000000000001f28 <mpa_get_S32>:
mpa_get_S32():
/home/lagadanu/Desktop/qemu/optee_os/lib/libmpa/mpa_conv.c:35
    1f28:	b9400422 	ldr	w2, [x1,#4]
/home/lagadanu/Desktop/qemu/optee_os/lib/libmpa/mpa_conv.c:33
    1f2c:	aa0003e4 	mov	x4, x0
/home/lagadanu/Desktop/qemu/optee_os/lib/libmpa/mpa_conv.c:35
    1f30:	7100005f 	cmp	w2, #0x0
    1f34:	5a82a440 	cneg	w0, w2, lt
    1f38:	7100041f 	cmp	w0, #0x1
    1f3c:	540002cc 	b.gt	1f94 <mpa_get_S32+0x6c>
/home/lagadanu/Desktop/qemu/optee_os/lib/libmpa/mpa_conv.c:37
    1f40:	b9400823 	ldr	w3, [x1,#8]
    1f44:	52b00000 	mov	w0, #0x80000000            	// #-2147483648
    1f48:	7100005f 	cmp	w2, #0x0
    1f4c:	7a40b060 	ccmp	w3, w0, #0x0, lt
/home/lagadanu/Desktop/qemu/optee_os/lib/libmpa/mpa_conv.c:36
    1f50:	12800000 	mov	w0, #0xffffffff            	// #-1
/home/lagadanu/Desktop/qemu/optee_os/lib/libmpa/mpa_conv.c:37
    1f54:	54000088 	b.hi	1f64 <mpa_get_S32+0x3c>
/home/lagadanu/Desktop/qemu/optee_os/lib/libmpa/mpa_conv.c:39
    1f58:	36f80083 	tbz	w3, #31, 1f68 <mpa_get_S32+0x40>
/home/lagadanu/Desktop/qemu/optee_os/lib/libmpa/mpa_conv.c:42 (discriminator 1)
    1f5c:	2a0003e1 	mov	w1, w0
/home/lagadanu/Desktop/qemu/optee_os/lib/libmpa/mpa_conv.c:39 (discriminator 1)
    1f60:	37f800c2 	tbnz	w2, #31, 1f78 <mpa_get_S32+0x50>
/home/lagadanu/Desktop/qemu/optee_os/lib/libmpa/mpa_conv.c:48
    1f64:	d65f03c0 	ret
/home/lagadanu/Desktop/qemu/optee_os/lib/libmpa/mpa_conv.c:42
    1f68:	34000102 	cbz	w2, 1f88 <mpa_get_S32+0x60>
/home/lagadanu/Desktop/qemu/optee_os/lib/libmpa/mpa_conv.c:42 (discriminator 4)
    1f6c:	12800001 	mov	w1, #0xffffffff            	// #-1
    1f70:	6b01005f 	cmp	w2, w1
    1f74:	5a81d421 	cneg	w1, w1, gt
/home/lagadanu/Desktop/qemu/optee_os/lib/libmpa/mpa_conv.c:42 (discriminator 8)
    1f78:	1b037c21 	mul	w1, w1, w3
/home/lagadanu/Desktop/qemu/optee_os/lib/libmpa/mpa_conv.c:43 (discriminator 8)
    1f7c:	52800000 	mov	w0, #0x0                   	// #0
/home/lagadanu/Desktop/qemu/optee_os/lib/libmpa/mpa_conv.c:42 (discriminator 8)
    1f80:	b9000081 	str	w1, [x4]
/home/lagadanu/Desktop/qemu/optee_os/lib/libmpa/mpa_conv.c:43 (discriminator 8)
    1f84:	d65f03c0 	ret
/home/lagadanu/Desktop/qemu/optee_os/lib/libmpa/mpa_conv.c:42
    1f88:	52800003 	mov	w3, #0x0                   	// #0
    1f8c:	52800021 	mov	w1, #0x1                   	// #1
    1f90:	17fffffa 	b	1f78 <mpa_get_S32+0x50>
/home/lagadanu/Desktop/qemu/optee_os/lib/libmpa/mpa_conv.c:36
    1f94:	12800000 	mov	w0, #0xffffffff            	// #-1
    1f98:	17fffff3 	b	1f64 <mpa_get_S32+0x3c>

0000000000001f9c <mpa_set_word>:
mpa_set_word():
/home/lagadanu/Desktop/qemu/optee_os/lib/libmpa/mpa_conv.c:58
    1f9c:	7100003f 	cmp	w1, #0x0
/home/lagadanu/Desktop/qemu/optee_os/lib/libmpa/mpa_conv.c:57
    1fa0:	b9000801 	str	w1, [x0,#8]
/home/lagadanu/Desktop/qemu/optee_os/lib/libmpa/mpa_conv.c:58
    1fa4:	1a9f07e1 	cset	w1, ne
    1fa8:	b9000401 	str	w1, [x0,#4]
    1fac:	d65f03c0 	ret

0000000000001fb0 <mpa_get_word>:
mpa_get_word():
/home/lagadanu/Desktop/qemu/optee_os/lib/libmpa/mpa_conv.c:69
    1fb0:	b9400401 	ldr	w1, [x0,#4]
    1fb4:	34000061 	cbz	w1, 1fc0 <mpa_get_word+0x10>
/home/lagadanu/Desktop/qemu/optee_os/lib/libmpa/mpa_conv.c:69 (discriminator 1)
    1fb8:	b9400800 	ldr	w0, [x0,#8]
    1fbc:	d65f03c0 	ret
/home/lagadanu/Desktop/qemu/optee_os/lib/libmpa/mpa_conv.c:69
    1fc0:	52800000 	mov	w0, #0x0                   	// #0
/home/lagadanu/Desktop/qemu/optee_os/lib/libmpa/mpa_conv.c:70
    1fc4:	d65f03c0 	ret

0000000000001fc8 <__mpa_div_dword>:
__mpa_div_dword():
/home/lagadanu/Desktop/qemu/optee_os/lib/libmpa/mpa_div.c:59
    1fc8:	2a0003e0 	mov	w0, w0
__mpa_soft_div():
/home/lagadanu/Desktop/qemu/optee_os/lib/libmpa/mpa_div.c:24
    1fcc:	2a0203e2 	mov	w2, w2
__mpa_div_dword():
/home/lagadanu/Desktop/qemu/optee_os/lib/libmpa/mpa_div.c:59
    1fd0:	8b018001 	add	x1, x0, x1, lsl #32
__mpa_soft_div():
/home/lagadanu/Desktop/qemu/optee_os/lib/libmpa/mpa_div.c:23
    1fd4:	d2800024 	mov	x4, #0x1                   	// #1
/home/lagadanu/Desktop/qemu/optee_os/lib/libmpa/mpa_div.c:26
    1fd8:	b6f800c2 	tbz	x2, #63, 1ff0 <__mpa_div_dword+0x28>
    1fdc:	d2800000 	mov	x0, #0x0                   	// #0
/home/lagadanu/Desktop/qemu/optee_os/lib/libmpa/mpa_div.c:31
    1fe0:	b50000e4 	cbnz	x4, 1ffc <__mpa_div_dword+0x34>
/home/lagadanu/Desktop/qemu/optee_os/lib/libmpa/mpa_div.c:40
    1fe4:	b4000043 	cbz	x3, 1fec <__mpa_div_dword+0x24>
/home/lagadanu/Desktop/qemu/optee_os/lib/libmpa/mpa_div.c:41
    1fe8:	b9000061 	str	w1, [x3]
__mpa_div_dword():
/home/lagadanu/Desktop/qemu/optee_os/lib/libmpa/mpa_div.c:67
    1fec:	d65f03c0 	ret
__mpa_soft_div():
/home/lagadanu/Desktop/qemu/optee_os/lib/libmpa/mpa_div.c:27
    1ff0:	d37ff842 	lsl	x2, x2, #1
/home/lagadanu/Desktop/qemu/optee_os/lib/libmpa/mpa_div.c:28
    1ff4:	d37ff884 	lsl	x4, x4, #1
    1ff8:	17fffff8 	b	1fd8 <__mpa_div_dword+0x10>
/home/lagadanu/Desktop/qemu/optee_os/lib/libmpa/mpa_div.c:32
    1ffc:	eb02003f 	cmp	x1, x2
    2000:	54000063 	b.cc	200c <__mpa_div_dword+0x44>
/home/lagadanu/Desktop/qemu/optee_os/lib/libmpa/mpa_div.c:33
    2004:	cb020021 	sub	x1, x1, x2
/home/lagadanu/Desktop/qemu/optee_os/lib/libmpa/mpa_div.c:34
    2008:	8b040000 	add	x0, x0, x4
/home/lagadanu/Desktop/qemu/optee_os/lib/libmpa/mpa_div.c:36
    200c:	d341fc42 	lsr	x2, x2, #1
/home/lagadanu/Desktop/qemu/optee_os/lib/libmpa/mpa_div.c:37
    2010:	d341fc84 	lsr	x4, x4, #1
    2014:	17fffff3 	b	1fe0 <__mpa_div_dword+0x18>

0000000000002018 <__mpa_div_q_r_internal_word>:
__mpa_div_q_r_internal_word():
/home/lagadanu/Desktop/qemu/optee_os/lib/libmpa/mpa_div.c:247
    2018:	a9ba7bfd 	stp	x29, x30, [sp,#-96]!
    201c:	910003fd 	mov	x29, sp
    2020:	a9025bf5 	stp	x21, x22, [sp,#32]
    2024:	aa0103f5 	mov	x21, x1
/home/lagadanu/Desktop/qemu/optee_os/lib/libmpa/mpa_div.c:255
    2028:	b9400441 	ldr	w1, [x2,#4]
/home/lagadanu/Desktop/qemu/optee_os/lib/libmpa/mpa_div.c:247
    202c:	aa0203f6 	mov	x22, x2
    2030:	a90153f3 	stp	x19, x20, [sp,#16]
    2034:	2a0303f4 	mov	w20, w3
/home/lagadanu/Desktop/qemu/optee_os/lib/libmpa/mpa_div.c:255
    2038:	7100003f 	cmp	w1, #0x0
/home/lagadanu/Desktop/qemu/optee_os/lib/libmpa/mpa_div.c:247
    203c:	a90363f7 	stp	x23, x24, [sp,#48]
    2040:	a9046bf9 	stp	x25, x26, [sp,#64]
/home/lagadanu/Desktop/qemu/optee_os/lib/libmpa/mpa_div.c:255
    2044:	5a81a421 	cneg	w1, w1, lt
    2048:	7100043f 	cmp	w1, #0x1
    204c:	540001e1 	b.ne	2088 <__mpa_div_q_r_internal_word+0x70>
/home/lagadanu/Desktop/qemu/optee_os/lib/libmpa/mpa_div.c:256
    2050:	b9400841 	ldr	w1, [x2,#8]
    2054:	1ac30821 	udiv	w1, w1, w3
    2058:	97ffffd1 	bl	1f9c <mpa_set_word>
/home/lagadanu/Desktop/qemu/optee_os/lib/libmpa/mpa_div.c:257
    205c:	b9400ac0 	ldr	w0, [x22,#8]
    2060:	1ad40801 	udiv	w1, w0, w20
    2064:	1b148021 	msub	w1, w1, w20, w0
    2068:	aa1503e0 	mov	x0, x21
    206c:	97ffffcc 	bl	1f9c <mpa_set_word>
/home/lagadanu/Desktop/qemu/optee_os/lib/libmpa/mpa_div.c:279
    2070:	a94153f3 	ldp	x19, x20, [sp,#16]
    2074:	a9425bf5 	ldp	x21, x22, [sp,#32]
    2078:	a94363f7 	ldp	x23, x24, [sp,#48]
    207c:	a9446bf9 	ldp	x25, x26, [sp,#64]
    2080:	a8c67bfd 	ldp	x29, x30, [sp],#96
    2084:	d65f03c0 	ret
/home/lagadanu/Desktop/qemu/optee_os/lib/libmpa/mpa_div.c:260
    2088:	aa0203e1 	mov	x1, x2
    208c:	aa0003f3 	mov	x19, x0
    2090:	aa1503e0 	mov	x0, x21
    2094:	97fffd63 	bl	1620 <mpa_copy>
/home/lagadanu/Desktop/qemu/optee_os/lib/libmpa/mpa_div.c:261
    2098:	52800001 	mov	w1, #0x0                   	// #0
    209c:	aa1303e0 	mov	x0, x19
    20a0:	97ffffbf 	bl	1f9c <mpa_set_word>
/home/lagadanu/Desktop/qemu/optee_os/lib/libmpa/mpa_div.c:267
    20a4:	910173ba 	add	x26, x29, #0x5c
/home/lagadanu/Desktop/qemu/optee_os/lib/libmpa/mpa_div.c:263
    20a8:	b94006a1 	ldr	w1, [x21,#4]
    20ac:	7100003f 	cmp	w1, #0x0
    20b0:	5a81a421 	cneg	w1, w1, lt
    20b4:	51000422 	sub	w2, w1, #0x1
/home/lagadanu/Desktop/qemu/optee_os/lib/libmpa/mpa_div.c:265
    20b8:	93407c42 	sxtw	x2, w2
    20bc:	8b020aa0 	add	x0, x21, x2, lsl #2
    20c0:	91000843 	add	x3, x2, #0x2
    20c4:	d37ef477 	lsl	x23, x3, #2
    20c8:	cb21c063 	sub	x3, x3, w1, sxtw
    20cc:	51000821 	sub	w1, w1, #0x2
    20d0:	d37ef478 	lsl	x24, x3, #2
    20d4:	937e7c21 	sbfiz	x1, x1, #2, #32
    20d8:	b9400800 	ldr	w0, [x0,#8]
    20dc:	cb020821 	sub	x1, x1, x2, lsl #2
    20e0:	8b0102b9 	add	x25, x21, x1
/home/lagadanu/Desktop/qemu/optee_os/lib/libmpa/mpa_div.c:264
    20e4:	52800001 	mov	w1, #0x0                   	// #0
/home/lagadanu/Desktop/qemu/optee_os/lib/libmpa/mpa_div.c:266
    20e8:	eb1802ff 	cmp	x23, x24
    20ec:	54000281 	b.ne	213c <__mpa_div_q_r_internal_word+0x124>
/home/lagadanu/Desktop/qemu/optee_os/lib/libmpa/mpa_div.c:274
    20f0:	b9400aa0 	ldr	w0, [x21,#8]
    20f4:	7100001f 	cmp	w0, #0x0
    20f8:	1a9f07e0 	cset	w0, ne
    20fc:	b90006a0 	str	w0, [x21,#4]
/home/lagadanu/Desktop/qemu/optee_os/lib/libmpa/mpa_div.c:275
    2100:	b94006c0 	ldr	w0, [x22,#4]
    2104:	7100001f 	cmp	w0, #0x0
    2108:	5a80a400 	cneg	w0, w0, lt
    210c:	51000400 	sub	w0, w0, #0x1
    2110:	93407c00 	sxtw	x0, w0
    2114:	2a0003e1 	mov	w1, w0
/home/lagadanu/Desktop/qemu/optee_os/lib/libmpa/mpa_div.c:276
    2118:	3100041f 	cmn	w0, #0x1
    211c:	540000a0 	b.eq	2130 <__mpa_div_q_r_internal_word+0x118>
    2120:	d1000400 	sub	x0, x0, #0x1
/home/lagadanu/Desktop/qemu/optee_os/lib/libmpa/mpa_div.c:276 (discriminator 1)
    2124:	8b000a62 	add	x2, x19, x0, lsl #2
    2128:	b9400c42 	ldr	w2, [x2,#12]
    212c:	34ffff42 	cbz	w2, 2114 <__mpa_div_q_r_internal_word+0xfc>
/home/lagadanu/Desktop/qemu/optee_os/lib/libmpa/mpa_div.c:278
    2130:	11000420 	add	w0, w1, #0x1
    2134:	b9000660 	str	w0, [x19,#4]
    2138:	17ffffce 	b	2070 <__mpa_div_q_r_internal_word+0x58>
/home/lagadanu/Desktop/qemu/optee_os/lib/libmpa/mpa_div.c:267
    213c:	aa1a03e3 	mov	x3, x26
    2140:	2a1403e2 	mov	w2, w20
    2144:	97ffffa1 	bl	1fc8 <__mpa_div_dword>
/home/lagadanu/Desktop/qemu/optee_os/lib/libmpa/mpa_div.c:268
    2148:	b8376a60 	str	w0, [x19,x23]
/home/lagadanu/Desktop/qemu/optee_os/lib/libmpa/mpa_div.c:269
    214c:	b9405fa1 	ldr	w1, [x29,#92]
    2150:	b8376aa1 	str	w1, [x21,x23]
/home/lagadanu/Desktop/qemu/optee_os/lib/libmpa/mpa_div.c:271
    2154:	b8776b20 	ldr	w0, [x25,x23]
    2158:	d10012f7 	sub	x23, x23, #0x4
    215c:	17ffffe3 	b	20e8 <__mpa_div_q_r_internal_word+0xd0>

0000000000002160 <__mpa_div_q_r>:
__mpa_div_q_r():
/home/lagadanu/Desktop/qemu/optee_os/lib/libmpa/mpa_div.c:302
    2160:	a9b07bfd 	stp	x29, x30, [sp,#-256]!
    2164:	910003fd 	mov	x29, sp
    2168:	a90363f7 	stp	x23, x24, [sp,#48]
    216c:	aa0103f8 	mov	x24, x1
/home/lagadanu/Desktop/qemu/optee_os/lib/libmpa/mpa_div.c:306
    2170:	b9400441 	ldr	w1, [x2,#4]
/home/lagadanu/Desktop/qemu/optee_os/lib/libmpa/mpa_div.c:302
    2174:	a90153f3 	stp	x19, x20, [sp,#16]
    2178:	a9025bf5 	stp	x21, x22, [sp,#32]
    217c:	a9046bf9 	stp	x25, x26, [sp,#64]
    2180:	a90573fb 	stp	x27, x28, [sp,#80]
/home/lagadanu/Desktop/qemu/optee_os/lib/libmpa/mpa_div.c:306
    2184:	35000181 	cbnz	w1, 21b4 <__mpa_div_q_r+0x54>
/home/lagadanu/Desktop/qemu/optee_os/lib/libmpa/mpa_div.c:322
    2188:	97ffff85 	bl	1f9c <mpa_set_word>
/home/lagadanu/Desktop/qemu/optee_os/lib/libmpa/mpa_div.c:323
    218c:	52800001 	mov	w1, #0x0                   	// #0
    2190:	aa1803e0 	mov	x0, x24
    2194:	97ffff82 	bl	1f9c <mpa_set_word>
/home/lagadanu/Desktop/qemu/optee_os/lib/libmpa/mpa_div.c:338
    2198:	a94153f3 	ldp	x19, x20, [sp,#16]
    219c:	a9425bf5 	ldp	x21, x22, [sp,#32]
    21a0:	a94363f7 	ldp	x23, x24, [sp,#48]
    21a4:	a9446bf9 	ldp	x25, x26, [sp,#64]
    21a8:	a94573fb 	ldp	x27, x28, [sp,#80]
    21ac:	a8d07bfd 	ldp	x29, x30, [sp],#256
    21b0:	d65f03c0 	ret
    21b4:	aa0003f3 	mov	x19, x0
/home/lagadanu/Desktop/qemu/optee_os/lib/libmpa/mpa_div.c:311
    21b8:	b9400460 	ldr	w0, [x3,#4]
    21bc:	aa0303f4 	mov	x20, x3
    21c0:	34fffec0 	cbz	w0, 2198 <__mpa_div_q_r+0x38>
    21c4:	aa0203fa 	mov	x26, x2
    21c8:	aa0403f7 	mov	x23, x4
/home/lagadanu/Desktop/qemu/optee_os/lib/libmpa/mpa_div.c:318
    21cc:	36f82ee1 	tbz	w1, #31, 27a8 <__mpa_div_q_r+0x648>
/home/lagadanu/Desktop/qemu/optee_os/lib/libmpa/mpa_div.c:319
    21d0:	7100001f 	cmp	w0, #0x0
    21d4:	12800001 	mov	w1, #0xffffffff            	// #-1
    21d8:	5a81a420 	cneg	w0, w1, lt
    21dc:	14000176 	b	27b4 <__mpa_div_q_r+0x654>
/home/lagadanu/Desktop/qemu/optee_os/lib/libmpa/mpa_div.c:326
    21e0:	54002d6d 	b.le	278c <__mpa_div_q_r+0x62c>
/home/lagadanu/Desktop/qemu/optee_os/lib/libmpa/mpa_div.c:327
    21e4:	b9400680 	ldr	w0, [x20,#4]
    21e8:	7100001f 	cmp	w0, #0x0
    21ec:	5a80a400 	cneg	w0, w0, lt
    21f0:	7100041f 	cmp	w0, #0x1
    21f4:	54002c0d 	b.le	2774 <__mpa_div_q_r+0x614>
__mpa_div_q_r_internal():
/home/lagadanu/Desktop/qemu/optee_os/lib/libmpa/mpa_div.c:103
    21f8:	9103a3a0 	add	x0, x29, #0xe8
    21fc:	aa1703e1 	mov	x1, x23
    2200:	f9005fa0 	str	x0, [x29,#184]
    2204:	940003e6 	bl	319c <mpa_alloc_static_temp_var>
/home/lagadanu/Desktop/qemu/optee_os/lib/libmpa/mpa_div.c:104
    2208:	9103c3a0 	add	x0, x29, #0xf0
    220c:	aa1703e1 	mov	x1, x23
    2210:	f9005ba0 	str	x0, [x29,#176]
    2214:	940003e2 	bl	319c <mpa_alloc_static_temp_var>
/home/lagadanu/Desktop/qemu/optee_os/lib/libmpa/mpa_div.c:105
    2218:	f9407ba0 	ldr	x0, [x29,#240]
    221c:	aa1403e1 	mov	x1, x20
    2220:	97fffd00 	bl	1620 <mpa_copy>
/home/lagadanu/Desktop/qemu/optee_os/lib/libmpa/mpa_div.c:112
    2224:	9103e3a0 	add	x0, x29, #0xf8
    2228:	aa1703e1 	mov	x1, x23
    222c:	f90057a0 	str	x0, [x29,#168]
    2230:	940003db 	bl	319c <mpa_alloc_static_temp_var>
/home/lagadanu/Desktop/qemu/optee_os/lib/libmpa/mpa_div.c:113
    2234:	f9407fa0 	ldr	x0, [x29,#248]
    2238:	aa1a03e1 	mov	x1, x26
    223c:	97fffcf9 	bl	1620 <mpa_copy>
/home/lagadanu/Desktop/qemu/optee_os/lib/libmpa/mpa_div.c:114
    2240:	f9407fa1 	ldr	x1, [x29,#248]
    2244:	b9400420 	ldr	w0, [x1,#4]
    2248:	36f80060 	tbz	w0, #31, 2254 <__mpa_div_q_r+0xf4>
    224c:	4b0003e0 	neg	w0, w0
    2250:	b9000420 	str	w0, [x1,#4]
/home/lagadanu/Desktop/qemu/optee_os/lib/libmpa/mpa_div.c:115
    2254:	f9407ba2 	ldr	x2, [x29,#240]
    2258:	b9400440 	ldr	w0, [x2,#4]
    225c:	36f80060 	tbz	w0, #31, 2268 <__mpa_div_q_r+0x108>
    2260:	4b0003e0 	neg	w0, w0
    2264:	b9000440 	str	w0, [x2,#4]
/home/lagadanu/Desktop/qemu/optee_os/lib/libmpa/mpa_div.c:121
    2268:	b9400440 	ldr	w0, [x2,#4]
/home/lagadanu/Desktop/qemu/optee_os/lib/libmpa/mpa_div.c:120
    226c:	52800019 	mov	w25, #0x0                   	// #0
/home/lagadanu/Desktop/qemu/optee_os/lib/libmpa/mpa_div.c:121
    2270:	7100001f 	cmp	w0, #0x0
    2274:	5a80a400 	cneg	w0, w0, lt
    2278:	51000400 	sub	w0, w0, #0x1
    227c:	8b20c840 	add	x0, x2, w0, sxtw #2
    2280:	52800002 	mov	w2, #0x0                   	// #0
    2284:	b9400800 	ldr	w0, [x0,#8]
    2288:	b900d7a0 	str	w0, [x29,#212]
/home/lagadanu/Desktop/qemu/optee_os/lib/libmpa/mpa_div.c:122
    228c:	36f80fc0 	tbz	w0, #31, 2484 <__mpa_div_q_r+0x324>
    2290:	34000042 	cbz	w2, 2298 <__mpa_div_q_r+0x138>
    2294:	b900d7a0 	str	w0, [x29,#212]
/home/lagadanu/Desktop/qemu/optee_os/lib/libmpa/mpa_div.c:126
    2298:	34000119 	cbz	w25, 22b8 <__mpa_div_q_r+0x158>
/home/lagadanu/Desktop/qemu/optee_os/lib/libmpa/mpa_div.c:127
    229c:	aa0103e0 	mov	x0, x1
    22a0:	2a1903e2 	mov	w2, w25
    22a4:	9400053f 	bl	37a0 <mpa_shift_left>
/home/lagadanu/Desktop/qemu/optee_os/lib/libmpa/mpa_div.c:128
    22a8:	f9407ba1 	ldr	x1, [x29,#240]
    22ac:	2a1903e2 	mov	w2, w25
    22b0:	aa0103e0 	mov	x0, x1
    22b4:	9400053b 	bl	37a0 <mpa_shift_left>
/home/lagadanu/Desktop/qemu/optee_os/lib/libmpa/mpa_div.c:131
    22b8:	f9407fa0 	ldr	x0, [x29,#248]
    22bc:	b9400416 	ldr	w22, [x0,#4]
/home/lagadanu/Desktop/qemu/optee_os/lib/libmpa/mpa_div.c:132
    22c0:	f9407ba0 	ldr	x0, [x29,#240]
    22c4:	b9400400 	ldr	w0, [x0,#4]
    22c8:	b900cfa0 	str	w0, [x29,#204]
/home/lagadanu/Desktop/qemu/optee_os/lib/libmpa/mpa_div.c:133
    22cc:	2a0003e0 	mov	w0, w0
    22d0:	4b0002c0 	sub	w0, w22, w0
    22d4:	b900cba0 	str	w0, [x29,#200]
/home/lagadanu/Desktop/qemu/optee_os/lib/libmpa/mpa_div.c:135
    22d8:	aa1303e0 	mov	x0, x19
    22dc:	97fffcc5 	bl	15f0 <mpa_wipe>
/home/lagadanu/Desktop/qemu/optee_os/lib/libmpa/mpa_div.c:141
    22e0:	b940cba1 	ldr	w1, [x29,#200]
    22e4:	f9407ba0 	ldr	x0, [x29,#240]
    22e8:	940004ef 	bl	36a4 <__mpa_shift_words_left>
/home/lagadanu/Desktop/qemu/optee_os/lib/libmpa/mpa_div.c:147
    22ec:	a94f07a2 	ldp	x2, x1, [x29,#240]
/home/lagadanu/Desktop/qemu/optee_os/lib/libmpa/mpa_div.c:144
    22f0:	52800025 	mov	w5, #0x1                   	// #1
/home/lagadanu/Desktop/qemu/optee_os/lib/libmpa/mpa_div.c:143
    22f4:	b9400444 	ldr	w4, [x2,#4]
    22f8:	7100009f 	cmp	w4, #0x0
    22fc:	5a84a484 	cneg	w4, w4, lt
    2300:	51000483 	sub	w3, w4, #0x1
    2304:	2a0403e0 	mov	w0, w4
    2308:	93407c63 	sxtw	x3, w3
    230c:	91000863 	add	x3, x3, #0x2
    2310:	d37ef463 	lsl	x3, x3, #2
/home/lagadanu/Desktop/qemu/optee_os/lib/libmpa/mpa_div.c:145
    2314:	7100001f 	cmp	w0, #0x0
    2318:	1a9fd7e6 	cset	w6, gt
    231c:	6a0500df 	tst	w6, w5
    2320:	54000ba1 	b.ne	2494 <__mpa_div_q_r+0x334>
/home/lagadanu/Desktop/qemu/optee_os/lib/libmpa/mpa_div.c:149
    2324:	350002a5 	cbnz	w5, 2378 <__mpa_div_q_r+0x218>
    2328:	b9400423 	ldr	w3, [x1,#4]
    232c:	7100007f 	cmp	w3, #0x0
    2330:	5a83a463 	cneg	w3, w3, lt
    2334:	6b03001f 	cmp	w0, w3
    2338:	5400250a 	b.ge	27d8 <__mpa_div_q_r+0x678>
    233c:	8b20c823 	add	x3, x1, w0, sxtw #2
    2340:	6b00009f 	cmp	w4, w0
    2344:	b9400863 	ldr	w3, [x3,#8]
    2348:	5400006d 	b.le	2354 <__mpa_div_q_r+0x1f4>
    234c:	8b20c840 	add	x0, x2, w0, sxtw #2
    2350:	b9400805 	ldr	w5, [x0,#8]
    2354:	6b0300bf 	cmp	w5, w3
    2358:	54000102 	b.cs	2378 <__mpa_div_q_r+0x218>
/home/lagadanu/Desktop/qemu/optee_os/lib/libmpa/mpa_div.c:150
    235c:	b940cba0 	ldr	w0, [x29,#200]
    2360:	52800023 	mov	w3, #0x1                   	// #1
    2364:	8b20ca60 	add	x0, x19, w0, sxtw #2
    2368:	b9000803 	str	w3, [x0,#8]
/home/lagadanu/Desktop/qemu/optee_os/lib/libmpa/mpa_div.c:151
    236c:	aa1703e3 	mov	x3, x23
    2370:	aa0103e0 	mov	x0, x1
    2374:	940006ee 	bl	3f2c <mpa_sub>
/home/lagadanu/Desktop/qemu/optee_os/lib/libmpa/mpa_div.c:155
    2378:	f9407fa0 	ldr	x0, [x29,#248]
    237c:	510006d6 	sub	w22, w22, #0x1
    2380:	b9400415 	ldr	w21, [x0,#4]
    2384:	b940cfa0 	ldr	w0, [x29,#204]
    2388:	510006b4 	sub	w20, w21, #0x1
    238c:	51000ab5 	sub	w21, w21, #0x2
    2390:	93407e9b 	sxtw	x27, w20
    2394:	4b000294 	sub	w20, w20, w0
/home/lagadanu/Desktop/qemu/optee_os/lib/libmpa/mpa_div.c:173
    2398:	910353a0 	add	x0, x29, #0xd4
    239c:	f9003ba0 	str	x0, [x29,#112]
    23a0:	910363a0 	add	x0, x29, #0xd8
    23a4:	8b34ca74 	add	x20, x19, w20, sxtw #2
    23a8:	f90053a0 	str	x0, [x29,#160]
/home/lagadanu/Desktop/qemu/optee_os/lib/libmpa/mpa_div.c:180
    23ac:	910373a0 	add	x0, x29, #0xdc
    23b0:	93407eb5 	sxtw	x21, w21
    23b4:	f9004fa0 	str	x0, [x29,#152]
    23b8:	91002294 	add	x20, x20, #0x8
    23bc:	910383a0 	add	x0, x29, #0xe0
    23c0:	f90037a0 	str	x0, [x29,#104]
/home/lagadanu/Desktop/qemu/optee_os/lib/libmpa/mpa_div.c:184
    23c4:	910393a0 	add	x0, x29, #0xe4
    23c8:	f9004ba0 	str	x0, [x29,#144]
/home/lagadanu/Desktop/qemu/optee_os/lib/libmpa/mpa_div.c:156
    23cc:	b940cfa0 	ldr	w0, [x29,#204]
    23d0:	2a1b03fc 	mov	w28, w27
    23d4:	6b1b001f 	cmp	w0, w27
    23d8:	540007ed 	b.le	24d4 <__mpa_div_q_r+0x374>
    23dc:	b980cba0 	ldrsw	x0, [x29,#200]
    23e0:	2a0003e1 	mov	w1, w0
/home/lagadanu/Desktop/qemu/optee_os/lib/libmpa/mpa_div.c:217
    23e4:	36f81be0 	tbz	w0, #31, 2760 <__mpa_div_q_r+0x600>
/home/lagadanu/Desktop/qemu/optee_os/lib/libmpa/mpa_div.c:219
    23e8:	11000421 	add	w1, w1, #0x1
    23ec:	b9000661 	str	w1, [x19,#4]
/home/lagadanu/Desktop/qemu/optee_os/lib/libmpa/mpa_div.c:223
    23f0:	f9407fa1 	ldr	x1, [x29,#248]
    23f4:	2a1903e2 	mov	w2, w25
    23f8:	aa0103e0 	mov	x0, x1
    23fc:	9400054d 	bl	3930 <mpa_shift_right>
/home/lagadanu/Desktop/qemu/optee_os/lib/libmpa/mpa_div.c:224
    2400:	f9407fa1 	ldr	x1, [x29,#248]
    2404:	aa1803e0 	mov	x0, x24
    2408:	97fffc86 	bl	1620 <mpa_copy>
/home/lagadanu/Desktop/qemu/optee_os/lib/libmpa/mpa_div.c:229
    240c:	f9405fa0 	ldr	x0, [x29,#184]
    2410:	aa1703e1 	mov	x1, x23
    2414:	94000366 	bl	31ac <mpa_free_static_temp_var>
/home/lagadanu/Desktop/qemu/optee_os/lib/libmpa/mpa_div.c:230
    2418:	f9405ba0 	ldr	x0, [x29,#176]
    241c:	aa1703e1 	mov	x1, x23
    2420:	94000363 	bl	31ac <mpa_free_static_temp_var>
/home/lagadanu/Desktop/qemu/optee_os/lib/libmpa/mpa_div.c:231
    2424:	f94057a0 	ldr	x0, [x29,#168]
    2428:	aa1703e1 	mov	x1, x23
    242c:	94000360 	bl	31ac <mpa_free_static_temp_var>
__mpa_div_q_r():
/home/lagadanu/Desktop/qemu/optee_os/lib/libmpa/mpa_div.c:336
    2430:	b9400660 	ldr	w0, [x19,#4]
    2434:	12800001 	mov	w1, #0xffffffff            	// #-1
    2438:	b940c3a2 	ldr	w2, [x29,#192]
    243c:	6b01001f 	cmp	w0, w1
    2440:	5a81d421 	cneg	w1, w1, gt
    2444:	6b01005f 	cmp	w2, w1
    2448:	54000060 	b.eq	2454 <__mpa_div_q_r+0x2f4>
/home/lagadanu/Desktop/qemu/optee_os/lib/libmpa/mpa_div.c:336 (discriminator 5)
    244c:	4b0003e0 	neg	w0, w0
    2450:	b9000660 	str	w0, [x19,#4]
/home/lagadanu/Desktop/qemu/optee_os/lib/libmpa/mpa_div.c:337
    2454:	b9400701 	ldr	w1, [x24,#4]
    2458:	12800000 	mov	w0, #0xffffffff            	// #-1
    245c:	b9400743 	ldr	w3, [x26,#4]
    2460:	6b00003f 	cmp	w1, w0
    2464:	5a80d402 	cneg	w2, w0, gt
    2468:	6b00007f 	cmp	w3, w0
    246c:	5a80d400 	cneg	w0, w0, gt
    2470:	6b00005f 	cmp	w2, w0
    2474:	54ffe920 	b.eq	2198 <__mpa_div_q_r+0x38>
/home/lagadanu/Desktop/qemu/optee_os/lib/libmpa/mpa_div.c:337 (discriminator 9)
    2478:	4b0103e1 	neg	w1, w1
    247c:	b9000701 	str	w1, [x24,#4]
    2480:	17ffff46 	b	2198 <__mpa_div_q_r+0x38>
__mpa_div_q_r_internal():
/home/lagadanu/Desktop/qemu/optee_os/lib/libmpa/mpa_div.c:123
    2484:	11000739 	add	w25, w25, #0x1
/home/lagadanu/Desktop/qemu/optee_os/lib/libmpa/mpa_div.c:124
    2488:	531f7800 	lsl	w0, w0, #1
    248c:	52800022 	mov	w2, #0x1                   	// #1
    2490:	17ffff7f 	b	228c <__mpa_div_q_r+0x12c>
/home/lagadanu/Desktop/qemu/optee_os/lib/libmpa/mpa_div.c:147
    2494:	b9400425 	ldr	w5, [x1,#4]
/home/lagadanu/Desktop/qemu/optee_os/lib/libmpa/mpa_div.c:146
    2498:	51000400 	sub	w0, w0, #0x1
/home/lagadanu/Desktop/qemu/optee_os/lib/libmpa/mpa_div.c:147
    249c:	52800006 	mov	w6, #0x0                   	// #0
    24a0:	710000bf 	cmp	w5, #0x0
    24a4:	5a85a4a5 	cneg	w5, w5, lt
    24a8:	6b05001f 	cmp	w0, w5
    24ac:	5400004a 	b.ge	24b4 <__mpa_div_q_r+0x354>
    24b0:	b8636826 	ldr	w6, [x1,x3]
    24b4:	52800005 	mov	w5, #0x0                   	// #0
    24b8:	6b00009f 	cmp	w4, w0
    24bc:	5400004d 	b.le	24c4 <__mpa_div_q_r+0x364>
    24c0:	b8636845 	ldr	w5, [x2,x3]
    24c4:	6b0500df 	cmp	w6, w5
    24c8:	d1001063 	sub	x3, x3, #0x4
    24cc:	1a9f17e5 	cset	w5, eq
    24d0:	17ffff91 	b	2314 <__mpa_div_q_r+0x1b4>
/home/lagadanu/Desktop/qemu/optee_os/lib/libmpa/mpa_div.c:157
    24d4:	f9407fa5 	ldr	x5, [x29,#248]
    24d8:	52800001 	mov	w1, #0x0                   	// #0
    24dc:	b94004a0 	ldr	w0, [x5,#4]
    24e0:	7100001f 	cmp	w0, #0x0
    24e4:	5a80a403 	cneg	w3, w0, lt
    24e8:	6b1b007f 	cmp	w3, w27
    24ec:	5400006d 	b.le	24f8 <__mpa_div_q_r+0x398>
    24f0:	8b3cc8a0 	add	x0, x5, w28, sxtw #2
    24f4:	b9400801 	ldr	w1, [x0,#8]
/home/lagadanu/Desktop/qemu/optee_os/lib/libmpa/mpa_div.c:158
    24f8:	f9407ba6 	ldr	x6, [x29,#240]
    24fc:	110006c0 	add	w0, w22, #0x1
    2500:	b9008fa0 	str	w0, [x29,#140]
    2504:	110006c4 	add	w4, w22, #0x1
    2508:	52800002 	mov	w2, #0x0                   	// #0
    250c:	b94004c0 	ldr	w0, [x6,#4]
    2510:	7100001f 	cmp	w0, #0x0
    2514:	5a80a400 	cneg	w0, w0, lt
    2518:	6b04001f 	cmp	w0, w4
    251c:	5400006b 	b.lt	2528 <__mpa_div_q_r+0x3c8>
    2520:	8b36c8c6 	add	x6, x6, w22, sxtw #2
    2524:	b94008c2 	ldr	w2, [x6,#8]
    2528:	b940cfa0 	ldr	w0, [x29,#204]
/home/lagadanu/Desktop/qemu/optee_os/lib/libmpa/mpa_div.c:157
    252c:	6b02003f 	cmp	w1, w2
    2530:	4b000360 	sub	w0, w27, w0
    2534:	b900c7a0 	str	w0, [x29,#196]
    2538:	54000561 	b.ne	25e4 <__mpa_div_q_r+0x484>
/home/lagadanu/Desktop/qemu/optee_os/lib/libmpa/mpa_div.c:159
    253c:	8b20ca60 	add	x0, x19, w0, sxtw #2
    2540:	12800001 	mov	w1, #0xffffffff            	// #-1
    2544:	b9000801 	str	w1, [x0,#8]
/home/lagadanu/Desktop/qemu/optee_os/lib/libmpa/mpa_div.c:195
    2548:	510006a0 	sub	w0, w21, #0x1
    254c:	937e7c00 	sbfiz	x0, x0, #2, #32
    2550:	f90043a0 	str	x0, [x29,#128]
/home/lagadanu/Desktop/qemu/optee_os/lib/libmpa/mpa_div.c:180
    2554:	510006c0 	sub	w0, w22, #0x1
    2558:	93407c00 	sxtw	x0, w0
    255c:	f9003fa0 	str	x0, [x29,#120]
/home/lagadanu/Desktop/qemu/optee_os/lib/libmpa/mpa_div.c:174
    2560:	f9407ba3 	ldr	x3, [x29,#240]
/home/lagadanu/Desktop/qemu/optee_os/lib/libmpa/mpa_div.c:173
    2564:	b9408fa4 	ldr	w4, [x29,#140]
/home/lagadanu/Desktop/qemu/optee_os/lib/libmpa/mpa_div.c:170
    2568:	b900d7bf 	str	wzr, [x29,#212]
/home/lagadanu/Desktop/qemu/optee_os/lib/libmpa/mpa_div.c:171
    256c:	b900dfbf 	str	wzr, [x29,#220]
/home/lagadanu/Desktop/qemu/optee_os/lib/libmpa/mpa_div.c:174
    2570:	b9400461 	ldr	w1, [x3,#4]
/home/lagadanu/Desktop/qemu/optee_os/lib/libmpa/mpa_div.c:172
    2574:	b900e7bf 	str	wzr, [x29,#228]
/home/lagadanu/Desktop/qemu/optee_os/lib/libmpa/mpa_div.c:174
    2578:	7100003f 	cmp	w1, #0x0
/home/lagadanu/Desktop/qemu/optee_os/lib/libmpa/mpa_div.c:173
    257c:	b9400280 	ldr	w0, [x20]
/home/lagadanu/Desktop/qemu/optee_os/lib/libmpa/mpa_div.c:174
    2580:	5a81a422 	cneg	w2, w1, lt
/home/lagadanu/Desktop/qemu/optee_os/lib/libmpa/mpa_div.c:173
    2584:	52800001 	mov	w1, #0x0                   	// #0
    2588:	6b04005f 	cmp	w2, w4
    258c:	5400006b 	b.lt	2598 <__mpa_div_q_r+0x438>
    2590:	8b36c863 	add	x3, x3, w22, sxtw #2
    2594:	b9400861 	ldr	w1, [x3,#8]
    2598:	f94053a2 	ldr	x2, [x29,#160]
    259c:	f9403ba3 	ldr	x3, [x29,#112]
    25a0:	9400030a 	bl	31c8 <__mpa_mul_add_word>
/home/lagadanu/Desktop/qemu/optee_os/lib/libmpa/mpa_div.c:177
    25a4:	f9407fa1 	ldr	x1, [x29,#248]
    25a8:	52800002 	mov	w2, #0x0                   	// #0
    25ac:	b9400420 	ldr	w0, [x1,#4]
    25b0:	7100001f 	cmp	w0, #0x0
    25b4:	5a80a400 	cneg	w0, w0, lt
    25b8:	6b00039f 	cmp	w28, w0
    25bc:	5400006a 	b.ge	25c8 <__mpa_div_q_r+0x468>
    25c0:	8b3cc821 	add	x1, x1, w28, sxtw #2
    25c4:	b9400822 	ldr	w2, [x1,#8]
    25c8:	b940d7a0 	ldr	w0, [x29,#212]
    25cc:	6b02001f 	cmp	w0, w2
    25d0:	54000209 	b.ls	2610 <__mpa_div_q_r+0x4b0>
/home/lagadanu/Desktop/qemu/optee_os/lib/libmpa/mpa_div.c:199
    25d4:	b9400280 	ldr	w0, [x20]
    25d8:	51000400 	sub	w0, w0, #0x1
    25dc:	b9000280 	str	w0, [x20]
    25e0:	17ffffe0 	b	2560 <__mpa_div_q_r+0x400>
/home/lagadanu/Desktop/qemu/optee_os/lib/libmpa/mpa_div.c:162
    25e4:	52800000 	mov	w0, #0x0                   	// #0
    25e8:	6b1c007f 	cmp	w3, w28
    25ec:	5400006b 	b.lt	25f8 <__mpa_div_q_r+0x498>
    25f0:	8b35c8a5 	add	x5, x5, w21, sxtw #2
    25f4:	b94008a0 	ldr	w0, [x5,#8]
    25f8:	d2800003 	mov	x3, #0x0                   	// #0
    25fc:	97fffe73 	bl	1fc8 <__mpa_div_dword>
/home/lagadanu/Desktop/qemu/optee_os/lib/libmpa/mpa_div.c:161
    2600:	b940c7a1 	ldr	w1, [x29,#196]
    2604:	8b21ca61 	add	x1, x19, w1, sxtw #2
    2608:	b9000820 	str	w0, [x1,#8]
    260c:	17ffffcf 	b	2548 <__mpa_div_q_r+0x3e8>
/home/lagadanu/Desktop/qemu/optee_os/lib/libmpa/mpa_div.c:181
    2610:	f9407ba3 	ldr	x3, [x29,#240]
/home/lagadanu/Desktop/qemu/optee_os/lib/libmpa/mpa_div.c:180
    2614:	b9400280 	ldr	w0, [x20]
/home/lagadanu/Desktop/qemu/optee_os/lib/libmpa/mpa_div.c:181
    2618:	b9400461 	ldr	w1, [x3,#4]
    261c:	7100003f 	cmp	w1, #0x0
    2620:	5a81a422 	cneg	w2, w1, lt
/home/lagadanu/Desktop/qemu/optee_os/lib/libmpa/mpa_div.c:180
    2624:	52800001 	mov	w1, #0x0                   	// #0
    2628:	6b0202df 	cmp	w22, w2
    262c:	5400008c 	b.gt	263c <__mpa_div_q_r+0x4dc>
    2630:	f9403fa1 	ldr	x1, [x29,#120]
    2634:	8b010863 	add	x3, x3, x1, lsl #2
    2638:	b9400861 	ldr	w1, [x3,#8]
    263c:	f94037a2 	ldr	x2, [x29,#104]
    2640:	f9404fa3 	ldr	x3, [x29,#152]
    2644:	940002e1 	bl	31c8 <__mpa_mul_add_word>
/home/lagadanu/Desktop/qemu/optee_os/lib/libmpa/mpa_div.c:184
    2648:	295b07a0 	ldp	w0, w1, [x29,#216]
    264c:	a9490ba3 	ldp	x3, x2, [x29,#144]
    2650:	94000509 	bl	3a74 <__mpa_full_adder>
/home/lagadanu/Desktop/qemu/optee_os/lib/libmpa/mpa_div.c:185
    2654:	b900dbbf 	str	wzr, [x29,#216]
/home/lagadanu/Desktop/qemu/optee_os/lib/libmpa/mpa_div.c:186
    2658:	f9404ba2 	ldr	x2, [x29,#144]
    265c:	b940d7a0 	ldr	w0, [x29,#212]
    2660:	b940e7a1 	ldr	w1, [x29,#228]
    2664:	f94053a3 	ldr	x3, [x29,#160]
    2668:	94000503 	bl	3a74 <__mpa_full_adder>
/home/lagadanu/Desktop/qemu/optee_os/lib/libmpa/mpa_div.c:187
    266c:	b940dba2 	ldr	w2, [x29,#216]
    2670:	35fffb22 	cbnz	w2, 25d4 <__mpa_div_q_r+0x474>
    2674:	f9407fa1 	ldr	x1, [x29,#248]
    2678:	52800003 	mov	w3, #0x0                   	// #0
    267c:	b9400420 	ldr	w0, [x1,#4]
    2680:	7100001f 	cmp	w0, #0x0
    2684:	5a80a400 	cneg	w0, w0, lt
    2688:	6b00039f 	cmp	w28, w0
    268c:	5400006a 	b.ge	2698 <__mpa_div_q_r+0x538>
    2690:	8b3cc823 	add	x3, x1, w28, sxtw #2
    2694:	b9400863 	ldr	w3, [x3,#8]
    2698:	b940e7a5 	ldr	w5, [x29,#228]
    269c:	6b0300bf 	cmp	w5, w3
    26a0:	54fff9a8 	b.hi	25d4 <__mpa_div_q_r+0x474>
/home/lagadanu/Desktop/qemu/optee_os/lib/libmpa/mpa_div.c:189
    26a4:	54000243 	b.cc	26ec <__mpa_div_q_r+0x58c>
/home/lagadanu/Desktop/qemu/optee_os/lib/libmpa/mpa_div.c:191
    26a8:	52800003 	mov	w3, #0x0                   	// #0
    26ac:	6b00039f 	cmp	w28, w0
    26b0:	5400006c 	b.gt	26bc <__mpa_div_q_r+0x55c>
    26b4:	8b35c823 	add	x3, x1, w21, sxtw #2
    26b8:	b9400863 	ldr	w3, [x3,#8]
    26bc:	b940dfa5 	ldr	w5, [x29,#220]
    26c0:	6b0300bf 	cmp	w5, w3
    26c4:	54fff888 	b.hi	25d4 <__mpa_div_q_r+0x474>
/home/lagadanu/Desktop/qemu/optee_os/lib/libmpa/mpa_div.c:193
    26c8:	54000123 	b.cc	26ec <__mpa_div_q_r+0x58c>
/home/lagadanu/Desktop/qemu/optee_os/lib/libmpa/mpa_div.c:195
    26cc:	6b15001f 	cmp	w0, w21
    26d0:	5400008b 	b.lt	26e0 <__mpa_div_q_r+0x580>
    26d4:	f94043a0 	ldr	x0, [x29,#128]
    26d8:	8b000021 	add	x1, x1, x0
    26dc:	b9400822 	ldr	w2, [x1,#8]
    26e0:	b940e3a0 	ldr	w0, [x29,#224]
    26e4:	6b02001f 	cmp	w0, w2
    26e8:	54fff768 	b.hi	25d4 <__mpa_div_q_r+0x474>
/home/lagadanu/Desktop/qemu/optee_os/lib/libmpa/mpa_div.c:203
    26ec:	f9407ba0 	ldr	x0, [x29,#240]
    26f0:	52800021 	mov	w1, #0x1                   	// #1
    26f4:	94000412 	bl	373c <__mpa_shift_words_right>
    26f8:	b940c7a0 	ldr	w0, [x29,#196]
/home/lagadanu/Desktop/qemu/optee_os/lib/libmpa/mpa_div.c:205
    26fc:	aa1703e3 	mov	x3, x23
    2700:	8b20ca7c 	add	x28, x19, w0, sxtw #2
    2704:	a94e87a0 	ldp	x0, x1, [x29,#232]
    2708:	b9400b82 	ldr	w2, [x28,#8]
    270c:	94000359 	bl	3470 <mpa_mul_word>
/home/lagadanu/Desktop/qemu/optee_os/lib/libmpa/mpa_div.c:206
    2710:	f9407fa1 	ldr	x1, [x29,#248]
    2714:	aa1703e3 	mov	x3, x23
    2718:	f94077a2 	ldr	x2, [x29,#232]
    271c:	aa0103e0 	mov	x0, x1
    2720:	94000603 	bl	3f2c <mpa_sub>
/home/lagadanu/Desktop/qemu/optee_os/lib/libmpa/mpa_div.c:207
    2724:	f9407fa1 	ldr	x1, [x29,#248]
    2728:	b9400420 	ldr	w0, [x1,#4]
    272c:	36f80100 	tbz	w0, #31, 274c <__mpa_div_q_r+0x5ec>
/home/lagadanu/Desktop/qemu/optee_os/lib/libmpa/mpa_div.c:208
    2730:	f9407ba2 	ldr	x2, [x29,#240]
    2734:	aa0103e0 	mov	x0, x1
    2738:	aa1703e3 	mov	x3, x23
    273c:	94000597 	bl	3d98 <mpa_add>
/home/lagadanu/Desktop/qemu/optee_os/lib/libmpa/mpa_div.c:209
    2740:	b9400b80 	ldr	w0, [x28,#8]
    2744:	51000400 	sub	w0, w0, #0x1
    2748:	b9000b80 	str	w0, [x28,#8]
    274c:	d100077b 	sub	x27, x27, #0x1
    2750:	d10006b5 	sub	x21, x21, #0x1
    2754:	d1001294 	sub	x20, x20, #0x4
    2758:	510006d6 	sub	w22, w22, #0x1
    275c:	17ffff1c 	b	23cc <__mpa_div_q_r+0x26c>
    2760:	d1000400 	sub	x0, x0, #0x1
/home/lagadanu/Desktop/qemu/optee_os/lib/libmpa/mpa_div.c:217
    2764:	8b000a62 	add	x2, x19, x0, lsl #2
    2768:	b9400c42 	ldr	w2, [x2,#12]
    276c:	34ffe3a2 	cbz	w2, 23e0 <__mpa_div_q_r+0x280>
    2770:	17ffff1e 	b	23e8 <__mpa_div_q_r+0x288>
__mpa_div_q_r():
/home/lagadanu/Desktop/qemu/optee_os/lib/libmpa/mpa_div.c:330
    2774:	b9400a83 	ldr	w3, [x20,#8]
    2778:	aa1a03e2 	mov	x2, x26
    277c:	aa1803e1 	mov	x1, x24
    2780:	aa1303e0 	mov	x0, x19
    2784:	97fffe25 	bl	2018 <__mpa_div_q_r_internal_word>
    2788:	17ffff2a 	b	2430 <__mpa_div_q_r+0x2d0>
/home/lagadanu/Desktop/qemu/optee_os/lib/libmpa/mpa_div.c:332
    278c:	aa1303e0 	mov	x0, x19
    2790:	52800001 	mov	w1, #0x0                   	// #0
    2794:	97fffe02 	bl	1f9c <mpa_set_word>
/home/lagadanu/Desktop/qemu/optee_os/lib/libmpa/mpa_div.c:333
    2798:	aa1a03e1 	mov	x1, x26
    279c:	aa1803e0 	mov	x0, x24
    27a0:	97fffba0 	bl	1620 <mpa_copy>
/home/lagadanu/Desktop/qemu/optee_os/lib/libmpa/mpa_div.c:334
    27a4:	17fffe7d 	b	2198 <__mpa_div_q_r+0x38>
/home/lagadanu/Desktop/qemu/optee_os/lib/libmpa/mpa_div.c:319
    27a8:	12800001 	mov	w1, #0xffffffff            	// #-1
    27ac:	6b01001f 	cmp	w0, w1
    27b0:	5a81d420 	cneg	w0, w1, gt
    27b4:	b900c3a0 	str	w0, [x29,#192]
/home/lagadanu/Desktop/qemu/optee_os/lib/libmpa/mpa_div.c:320
    27b8:	aa1403e1 	mov	x1, x20
    27bc:	aa1a03e0 	mov	x0, x26
    27c0:	940006ea 	bl	4368 <__mpa_abs_cmp>
/home/lagadanu/Desktop/qemu/optee_os/lib/libmpa/mpa_div.c:321
    27c4:	7100001f 	cmp	w0, #0x0
    27c8:	54ffd0c1 	b.ne	21e0 <__mpa_div_q_r+0x80>
/home/lagadanu/Desktop/qemu/optee_os/lib/libmpa/mpa_div.c:322
    27cc:	52800021 	mov	w1, #0x1                   	// #1
    27d0:	aa1303e0 	mov	x0, x19
    27d4:	17fffe6d 	b	2188 <__mpa_div_q_r+0x28>
__mpa_div_q_r_internal():
/home/lagadanu/Desktop/qemu/optee_os/lib/libmpa/mpa_div.c:149
    27d8:	6b00009f 	cmp	w4, w0
    27dc:	54ffdced 	b.le	2378 <__mpa_div_q_r+0x218>
    27e0:	52800003 	mov	w3, #0x0                   	// #0
    27e4:	17fffeda 	b	234c <__mpa_div_q_r+0x1ec>

00000000000027e8 <mpa_div>:
mpa_div():
/home/lagadanu/Desktop/qemu/optee_os/lib/libmpa/mpa_div.c:357
    27e8:	a9ba7bfd 	stp	x29, x30, [sp,#-96]!
/home/lagadanu/Desktop/qemu/optee_os/lib/libmpa/mpa_div.c:364
    27ec:	eb02001f 	cmp	x0, x2
    27f0:	fa431004 	ccmp	x0, x3, #0x4, ne
/home/lagadanu/Desktop/qemu/optee_os/lib/libmpa/mpa_div.c:357
    27f4:	910003fd 	mov	x29, sp
    27f8:	a90153f3 	stp	x19, x20, [sp,#16]
/home/lagadanu/Desktop/qemu/optee_os/lib/libmpa/mpa_div.c:364
    27fc:	fa401804 	ccmp	x0, #0x0, #0x4, ne
/home/lagadanu/Desktop/qemu/optee_os/lib/libmpa/mpa_div.c:357
    2800:	a9025bf5 	stp	x21, x22, [sp,#32]
    2804:	aa0003f4 	mov	x20, x0
    2808:	a90363f7 	stp	x23, x24, [sp,#48]
    280c:	aa0103f3 	mov	x19, x1
    2810:	f90023f9 	str	x25, [sp,#64]
    2814:	aa0203f6 	mov	x22, x2
    2818:	aa0303f7 	mov	x23, x3
    281c:	aa0403f5 	mov	x21, x4
/home/lagadanu/Desktop/qemu/optee_os/lib/libmpa/mpa_div.c:364
    2820:	54000501 	b.ne	28c0 <mpa_div+0xd8>
/home/lagadanu/Desktop/qemu/optee_os/lib/libmpa/mpa_div.c:366
    2824:	52800039 	mov	w25, #0x1                   	// #1
/home/lagadanu/Desktop/qemu/optee_os/lib/libmpa/mpa_div.c:365
    2828:	aa0403e1 	mov	x1, x4
    282c:	910143a0 	add	x0, x29, #0x50
    2830:	9400025b 	bl	319c <mpa_alloc_static_temp_var>
/home/lagadanu/Desktop/qemu/optee_os/lib/libmpa/mpa_div.c:373
    2834:	f100027f 	cmp	x19, #0x0
    2838:	fa5312e4 	ccmp	x23, x19, #0x4, ne
    283c:	fa5312c4 	ccmp	x22, x19, #0x4, ne
    2840:	54000461 	b.ne	28cc <mpa_div+0xe4>
/home/lagadanu/Desktop/qemu/optee_os/lib/libmpa/mpa_div.c:375
    2844:	52800038 	mov	w24, #0x1                   	// #1
/home/lagadanu/Desktop/qemu/optee_os/lib/libmpa/mpa_div.c:374
    2848:	aa1503e1 	mov	x1, x21
    284c:	910163a0 	add	x0, x29, #0x58
    2850:	94000253 	bl	319c <mpa_alloc_static_temp_var>
/home/lagadanu/Desktop/qemu/optee_os/lib/libmpa/mpa_div.c:381
    2854:	a94507a0 	ldp	x0, x1, [x29,#80]
    2858:	aa1503e4 	mov	x4, x21
    285c:	aa1703e3 	mov	x3, x23
    2860:	aa1603e2 	mov	x2, x22
    2864:	97fffe3f 	bl	2160 <__mpa_div_q_r>
/home/lagadanu/Desktop/qemu/optee_os/lib/libmpa/mpa_div.c:383
    2868:	b4000094 	cbz	x20, 2878 <mpa_div+0x90>
/home/lagadanu/Desktop/qemu/optee_os/lib/libmpa/mpa_div.c:384
    286c:	f9402ba1 	ldr	x1, [x29,#80]
    2870:	aa1403e0 	mov	x0, x20
    2874:	97fffb6b 	bl	1620 <mpa_copy>
/home/lagadanu/Desktop/qemu/optee_os/lib/libmpa/mpa_div.c:385
    2878:	34000099 	cbz	w25, 2888 <mpa_div+0xa0>
/home/lagadanu/Desktop/qemu/optee_os/lib/libmpa/mpa_div.c:386
    287c:	aa1503e1 	mov	x1, x21
    2880:	910143a0 	add	x0, x29, #0x50
    2884:	9400024a 	bl	31ac <mpa_free_static_temp_var>
/home/lagadanu/Desktop/qemu/optee_os/lib/libmpa/mpa_div.c:387
    2888:	b4000093 	cbz	x19, 2898 <mpa_div+0xb0>
/home/lagadanu/Desktop/qemu/optee_os/lib/libmpa/mpa_div.c:388
    288c:	f9402fa1 	ldr	x1, [x29,#88]
    2890:	aa1303e0 	mov	x0, x19
    2894:	97fffb63 	bl	1620 <mpa_copy>
/home/lagadanu/Desktop/qemu/optee_os/lib/libmpa/mpa_div.c:389
    2898:	34000098 	cbz	w24, 28a8 <mpa_div+0xc0>
/home/lagadanu/Desktop/qemu/optee_os/lib/libmpa/mpa_div.c:390
    289c:	aa1503e1 	mov	x1, x21
    28a0:	910163a0 	add	x0, x29, #0x58
    28a4:	94000242 	bl	31ac <mpa_free_static_temp_var>
/home/lagadanu/Desktop/qemu/optee_os/lib/libmpa/mpa_div.c:391
    28a8:	a94153f3 	ldp	x19, x20, [sp,#16]
    28ac:	a9425bf5 	ldp	x21, x22, [sp,#32]
    28b0:	a94363f7 	ldp	x23, x24, [sp,#48]
    28b4:	f94023f9 	ldr	x25, [sp,#64]
    28b8:	a8c67bfd 	ldp	x29, x30, [sp],#96
    28bc:	d65f03c0 	ret
/home/lagadanu/Desktop/qemu/optee_os/lib/libmpa/mpa_div.c:369
    28c0:	52800019 	mov	w25, #0x0                   	// #0
/home/lagadanu/Desktop/qemu/optee_os/lib/libmpa/mpa_div.c:368
    28c4:	f9002ba0 	str	x0, [x29,#80]
    28c8:	17ffffdb 	b	2834 <mpa_div+0x4c>
/home/lagadanu/Desktop/qemu/optee_os/lib/libmpa/mpa_div.c:378
    28cc:	52800018 	mov	w24, #0x0                   	// #0
/home/lagadanu/Desktop/qemu/optee_os/lib/libmpa/mpa_div.c:377
    28d0:	f9002fb3 	str	x19, [x29,#88]
    28d4:	17ffffe0 	b	2854 <mpa_div+0x6c>

00000000000028d8 <__mpa_divby2>:
__mpa_divby2():
/home/lagadanu/Desktop/qemu/optee_os/lib/libmpa/mpa_gcd.c:25
    28d8:	b9400403 	ldr	w3, [x0,#4]
    28dc:	7100007f 	cmp	w3, #0x0
    28e0:	540002a0 	b.eq	2934 <__mpa_divby2+0x5c>
/home/lagadanu/Desktop/qemu/optee_os/lib/libmpa/mpa_gcd.c:28
    28e4:	5a83a466 	cneg	w6, w3, lt
/home/lagadanu/Desktop/qemu/optee_os/lib/libmpa/mpa_gcd.c:30
    28e8:	b9400804 	ldr	w4, [x0,#8]
/home/lagadanu/Desktop/qemu/optee_os/lib/libmpa/mpa_gcd.c:28
    28ec:	510004c1 	sub	w1, w6, #0x1
/home/lagadanu/Desktop/qemu/optee_os/lib/libmpa/mpa_gcd.c:31
    28f0:	52800025 	mov	w5, #0x1                   	// #1
/home/lagadanu/Desktop/qemu/optee_os/lib/libmpa/mpa_gcd.c:28
    28f4:	8b21c801 	add	x1, x0, w1, sxtw #2
/home/lagadanu/Desktop/qemu/optee_os/lib/libmpa/mpa_gcd.c:30
    28f8:	53017c84 	lsr	w4, w4, #1
/home/lagadanu/Desktop/qemu/optee_os/lib/libmpa/mpa_gcd.c:28
    28fc:	b9400821 	ldr	w1, [x1,#8]
    2900:	53017c21 	lsr	w1, w1, #1
    2904:	7100003f 	cmp	w1, #0x0
/home/lagadanu/Desktop/qemu/optee_os/lib/libmpa/mpa_gcd.c:30
    2908:	aa0003e1 	mov	x1, x0
/home/lagadanu/Desktop/qemu/optee_os/lib/libmpa/mpa_gcd.c:28
    290c:	1a9f17e2 	cset	w2, eq
/home/lagadanu/Desktop/qemu/optee_os/lib/libmpa/mpa_gcd.c:30
    2910:	b8008c24 	str	w4, [x1,#8]!
    2914:	91001021 	add	x1, x1, #0x4
/home/lagadanu/Desktop/qemu/optee_os/lib/libmpa/mpa_gcd.c:31 (discriminator 1)
    2918:	6b0600bf 	cmp	w5, w6
    291c:	540000e3 	b.cc	2938 <__mpa_divby2+0x60>
/home/lagadanu/Desktop/qemu/optee_os/lib/libmpa/mpa_gcd.c:38
    2920:	4b020061 	sub	w1, w3, w2
    2924:	7100007f 	cmp	w3, #0x0
    2928:	0b020062 	add	w2, w3, w2
    292c:	1a81b042 	csel	w2, w2, w1, lt
    2930:	b9000402 	str	w2, [x0,#4]
    2934:	d65f03c0 	ret
/home/lagadanu/Desktop/qemu/optee_os/lib/libmpa/mpa_gcd.c:32 (discriminator 3)
    2938:	b9400024 	ldr	w4, [x1]
/home/lagadanu/Desktop/qemu/optee_os/lib/libmpa/mpa_gcd.c:31 (discriminator 3)
    293c:	110004a5 	add	w5, w5, #0x1
/home/lagadanu/Desktop/qemu/optee_os/lib/libmpa/mpa_gcd.c:33 (discriminator 3)
    2940:	53017c87 	lsr	w7, w4, #1
    2944:	b9000027 	str	w7, [x1]
/home/lagadanu/Desktop/qemu/optee_os/lib/libmpa/mpa_gcd.c:34 (discriminator 3)
    2948:	b85fc027 	ldur	w7, [x1,#-4]
    294c:	4a047ce4 	eor	w4, w7, w4, lsl #31
    2950:	b81fc024 	stur	w4, [x1,#-4]
    2954:	17fffff0 	b	2914 <__mpa_divby2+0x3c>

0000000000002958 <__mpa_gcd.part.0>:
__mpa_gcd():
/home/lagadanu/Desktop/qemu/optee_os/lib/libmpa/mpa_gcd.c:190
    2958:	a9ba7bfd 	stp	x29, x30, [sp,#-96]!
    295c:	910003fd 	mov	x29, sp
    2960:	a9025bf5 	stp	x21, x22, [sp,#32]
/home/lagadanu/Desktop/qemu/optee_os/lib/libmpa/mpa_gcd.c:204
    2964:	910123b6 	add	x22, x29, #0x48
/home/lagadanu/Desktop/qemu/optee_os/lib/libmpa/mpa_gcd.c:190
    2968:	a90153f3 	stp	x19, x20, [sp,#16]
    296c:	aa0103f5 	mov	x21, x1
    2970:	aa0203f4 	mov	x20, x2
    2974:	aa0303f3 	mov	x19, x3
/home/lagadanu/Desktop/qemu/optee_os/lib/libmpa/mpa_gcd.c:204
    2978:	aa0303e1 	mov	x1, x3
/home/lagadanu/Desktop/qemu/optee_os/lib/libmpa/mpa_gcd.c:190
    297c:	a90363f7 	stp	x23, x24, [sp,#48]
    2980:	aa0003f8 	mov	x24, x0
/home/lagadanu/Desktop/qemu/optee_os/lib/libmpa/mpa_gcd.c:204
    2984:	aa1603e0 	mov	x0, x22
    2988:	94000205 	bl	319c <mpa_alloc_static_temp_var>
/home/lagadanu/Desktop/qemu/optee_os/lib/libmpa/mpa_gcd.c:205
    298c:	f94027a0 	ldr	x0, [x29,#72]
    2990:	aa1503e1 	mov	x1, x21
/home/lagadanu/Desktop/qemu/optee_os/lib/libmpa/mpa_gcd.c:206
    2994:	910143b5 	add	x21, x29, #0x50
/home/lagadanu/Desktop/qemu/optee_os/lib/libmpa/mpa_gcd.c:205
    2998:	97fffb22 	bl	1620 <mpa_copy>
/home/lagadanu/Desktop/qemu/optee_os/lib/libmpa/mpa_gcd.c:206
    299c:	aa1303e1 	mov	x1, x19
    29a0:	aa1503e0 	mov	x0, x21
    29a4:	940001fe 	bl	319c <mpa_alloc_static_temp_var>
/home/lagadanu/Desktop/qemu/optee_os/lib/libmpa/mpa_gcd.c:207
    29a8:	f9402ba0 	ldr	x0, [x29,#80]
    29ac:	aa1403e1 	mov	x1, x20
/home/lagadanu/Desktop/qemu/optee_os/lib/libmpa/mpa_gcd.c:209
    29b0:	52800014 	mov	w20, #0x0                   	// #0
/home/lagadanu/Desktop/qemu/optee_os/lib/libmpa/mpa_gcd.c:207
    29b4:	97fffb1b 	bl	1620 <mpa_copy>
/home/lagadanu/Desktop/qemu/optee_os/lib/libmpa/mpa_gcd.c:210
    29b8:	f94027a0 	ldr	x0, [x29,#72]
    29bc:	97fffb63 	bl	1748 <mpa_parity>
    29c0:	34000340 	cbz	w0, 2a28 <__mpa_gcd.part.0+0xd0>
/home/lagadanu/Desktop/qemu/optee_os/lib/libmpa/mpa_gcd.c:216
    29c4:	910163b7 	add	x23, x29, #0x58
    29c8:	aa1303e1 	mov	x1, x19
    29cc:	aa1703e0 	mov	x0, x23
    29d0:	940001f3 	bl	319c <mpa_alloc_static_temp_var>
/home/lagadanu/Desktop/qemu/optee_os/lib/libmpa/mpa_gcd.c:217
    29d4:	f94027a0 	ldr	x0, [x29,#72]
    29d8:	b9400400 	ldr	w0, [x0,#4]
    29dc:	350003c0 	cbnz	w0, 2a54 <__mpa_gcd.part.0+0xfc>
/home/lagadanu/Desktop/qemu/optee_os/lib/libmpa/mpa_gcd.c:234
    29e0:	f9402ba1 	ldr	x1, [x29,#80]
    29e4:	2a1403e2 	mov	w2, w20
    29e8:	aa1803e0 	mov	x0, x24
    29ec:	9400036d 	bl	37a0 <mpa_shift_left>
/home/lagadanu/Desktop/qemu/optee_os/lib/libmpa/mpa_gcd.c:235
    29f0:	aa1303e1 	mov	x1, x19
    29f4:	aa1703e0 	mov	x0, x23
    29f8:	940001ed 	bl	31ac <mpa_free_static_temp_var>
/home/lagadanu/Desktop/qemu/optee_os/lib/libmpa/mpa_gcd.c:236
    29fc:	aa1303e1 	mov	x1, x19
    2a00:	aa1603e0 	mov	x0, x22
    2a04:	940001ea 	bl	31ac <mpa_free_static_temp_var>
/home/lagadanu/Desktop/qemu/optee_os/lib/libmpa/mpa_gcd.c:237
    2a08:	aa1303e1 	mov	x1, x19
    2a0c:	aa1503e0 	mov	x0, x21
    2a10:	940001e7 	bl	31ac <mpa_free_static_temp_var>
/home/lagadanu/Desktop/qemu/optee_os/lib/libmpa/mpa_gcd.c:238
    2a14:	a94153f3 	ldp	x19, x20, [sp,#16]
    2a18:	a9425bf5 	ldp	x21, x22, [sp,#32]
    2a1c:	a94363f7 	ldp	x23, x24, [sp,#48]
    2a20:	a8c67bfd 	ldp	x29, x30, [sp],#96
    2a24:	d65f03c0 	ret
/home/lagadanu/Desktop/qemu/optee_os/lib/libmpa/mpa_gcd.c:210
    2a28:	f9402ba0 	ldr	x0, [x29,#80]
    2a2c:	97fffb47 	bl	1748 <mpa_parity>
    2a30:	35fffca0 	cbnz	w0, 29c4 <__mpa_gcd.part.0+0x6c>
/home/lagadanu/Desktop/qemu/optee_os/lib/libmpa/mpa_gcd.c:212
    2a34:	f94027a0 	ldr	x0, [x29,#72]
/home/lagadanu/Desktop/qemu/optee_os/lib/libmpa/mpa_gcd.c:211
    2a38:	11000694 	add	w20, w20, #0x1
/home/lagadanu/Desktop/qemu/optee_os/lib/libmpa/mpa_gcd.c:212
    2a3c:	97ffffa7 	bl	28d8 <__mpa_divby2>
/home/lagadanu/Desktop/qemu/optee_os/lib/libmpa/mpa_gcd.c:213
    2a40:	f9402ba0 	ldr	x0, [x29,#80]
    2a44:	97ffffa5 	bl	28d8 <__mpa_divby2>
    2a48:	17ffffdc 	b	29b8 <__mpa_gcd.part.0+0x60>
/home/lagadanu/Desktop/qemu/optee_os/lib/libmpa/mpa_gcd.c:219
    2a4c:	f94027a0 	ldr	x0, [x29,#72]
    2a50:	97ffffa2 	bl	28d8 <__mpa_divby2>
/home/lagadanu/Desktop/qemu/optee_os/lib/libmpa/mpa_gcd.c:218
    2a54:	f94027a0 	ldr	x0, [x29,#72]
    2a58:	97fffb3c 	bl	1748 <mpa_parity>
    2a5c:	34ffff80 	cbz	w0, 2a4c <__mpa_gcd.part.0+0xf4>
/home/lagadanu/Desktop/qemu/optee_os/lib/libmpa/mpa_gcd.c:221
    2a60:	f9402ba0 	ldr	x0, [x29,#80]
    2a64:	97fffb39 	bl	1748 <mpa_parity>
    2a68:	34000240 	cbz	w0, 2ab0 <__mpa_gcd.part.0+0x158>
/home/lagadanu/Desktop/qemu/optee_os/lib/libmpa/mpa_gcd.c:224
    2a6c:	a9448ba1 	ldp	x1, x2, [x29,#72]
    2a70:	aa1303e3 	mov	x3, x19
    2a74:	f9402fa0 	ldr	x0, [x29,#88]
    2a78:	9400052d 	bl	3f2c <mpa_sub>
/home/lagadanu/Desktop/qemu/optee_os/lib/libmpa/mpa_gcd.c:226
    2a7c:	f9402fa0 	ldr	x0, [x29,#88]
    2a80:	b9400401 	ldr	w1, [x0,#4]
    2a84:	36f80061 	tbz	w1, #31, 2a90 <__mpa_gcd.part.0+0x138>
    2a88:	4b0103e1 	neg	w1, w1
    2a8c:	b9000401 	str	w1, [x0,#4]
/home/lagadanu/Desktop/qemu/optee_os/lib/libmpa/mpa_gcd.c:227
    2a90:	97ffff92 	bl	28d8 <__mpa_divby2>
/home/lagadanu/Desktop/qemu/optee_os/lib/libmpa/mpa_gcd.c:228
    2a94:	a94487a0 	ldp	x0, x1, [x29,#72]
    2a98:	9400066d 	bl	444c <mpa_cmp>
/home/lagadanu/Desktop/qemu/optee_os/lib/libmpa/mpa_gcd.c:229
    2a9c:	f9402fa1 	ldr	x1, [x29,#88]
/home/lagadanu/Desktop/qemu/optee_os/lib/libmpa/mpa_gcd.c:228
    2aa0:	37f800e0 	tbnz	w0, #31, 2abc <__mpa_gcd.part.0+0x164>
/home/lagadanu/Desktop/qemu/optee_os/lib/libmpa/mpa_gcd.c:229
    2aa4:	f94027a0 	ldr	x0, [x29,#72]
/home/lagadanu/Desktop/qemu/optee_os/lib/libmpa/mpa_gcd.c:231
    2aa8:	97fffade 	bl	1620 <mpa_copy>
    2aac:	17ffffca 	b	29d4 <__mpa_gcd.part.0+0x7c>
/home/lagadanu/Desktop/qemu/optee_os/lib/libmpa/mpa_gcd.c:222
    2ab0:	f9402ba0 	ldr	x0, [x29,#80]
    2ab4:	97ffff89 	bl	28d8 <__mpa_divby2>
    2ab8:	17ffffea 	b	2a60 <__mpa_gcd.part.0+0x108>
/home/lagadanu/Desktop/qemu/optee_os/lib/libmpa/mpa_gcd.c:231
    2abc:	f9402ba0 	ldr	x0, [x29,#80]
    2ac0:	17fffffa 	b	2aa8 <__mpa_gcd.part.0+0x150>

0000000000002ac4 <__mpa_egcd>:
__mpa_egcd():
/home/lagadanu/Desktop/qemu/optee_os/lib/libmpa/mpa_gcd.c:94
    2ac4:	a9b57bfd 	stp	x29, x30, [sp,#-176]!
    2ac8:	910003fd 	mov	x29, sp
    2acc:	a90153f3 	stp	x19, x20, [sp,#16]
    2ad0:	aa0003f4 	mov	x20, x0
/home/lagadanu/Desktop/qemu/optee_os/lib/libmpa/mpa_gcd.c:105
    2ad4:	b9400480 	ldr	w0, [x4,#4]
/home/lagadanu/Desktop/qemu/optee_os/lib/libmpa/mpa_gcd.c:94
    2ad8:	a9025bf5 	stp	x21, x22, [sp,#32]
    2adc:	aa0103f6 	mov	x22, x1
    2ae0:	a9046bf9 	stp	x25, x26, [sp,#64]
    2ae4:	aa0203f5 	mov	x21, x2
    2ae8:	a90363f7 	stp	x23, x24, [sp,#48]
    2aec:	aa0303f9 	mov	x25, x3
    2af0:	a90573fb 	stp	x27, x28, [sp,#80]
/home/lagadanu/Desktop/qemu/optee_os/lib/libmpa/mpa_gcd.c:105
    2af4:	35000260 	cbnz	w0, 2b40 <__mpa_egcd+0x7c>
/home/lagadanu/Desktop/qemu/optee_os/lib/libmpa/mpa_gcd.c:106
    2af8:	b4000081 	cbz	x1, 2b08 <__mpa_egcd+0x44>
/home/lagadanu/Desktop/qemu/optee_os/lib/libmpa/mpa_gcd.c:107
    2afc:	52800021 	mov	w1, #0x1                   	// #1
    2b00:	aa1603e0 	mov	x0, x22
    2b04:	97fffd26 	bl	1f9c <mpa_set_word>
/home/lagadanu/Desktop/qemu/optee_os/lib/libmpa/mpa_gcd.c:108
    2b08:	b4000095 	cbz	x21, 2b18 <__mpa_egcd+0x54>
/home/lagadanu/Desktop/qemu/optee_os/lib/libmpa/mpa_gcd.c:109
    2b0c:	52800001 	mov	w1, #0x0                   	// #0
    2b10:	aa1503e0 	mov	x0, x21
    2b14:	97fffd22 	bl	1f9c <mpa_set_word>
/home/lagadanu/Desktop/qemu/optee_os/lib/libmpa/mpa_gcd.c:110
    2b18:	aa1903e1 	mov	x1, x25
    2b1c:	aa1403e0 	mov	x0, x20
    2b20:	97fffac0 	bl	1620 <mpa_copy>
/home/lagadanu/Desktop/qemu/optee_os/lib/libmpa/mpa_gcd.c:183
    2b24:	a94153f3 	ldp	x19, x20, [sp,#16]
    2b28:	a9425bf5 	ldp	x21, x22, [sp,#32]
    2b2c:	a94363f7 	ldp	x23, x24, [sp,#48]
    2b30:	a9446bf9 	ldp	x25, x26, [sp,#64]
    2b34:	a94573fb 	ldp	x27, x28, [sp,#80]
    2b38:	a8cb7bfd 	ldp	x29, x30, [sp],#176
    2b3c:	d65f03c0 	ret
/home/lagadanu/Desktop/qemu/optee_os/lib/libmpa/mpa_gcd.c:113
    2b40:	910263b8 	add	x24, x29, #0x98
    2b44:	aa0403f7 	mov	x23, x4
    2b48:	aa0503f3 	mov	x19, x5
    2b4c:	aa0503e1 	mov	x1, x5
    2b50:	aa1803e0 	mov	x0, x24
    2b54:	94000192 	bl	319c <mpa_alloc_static_temp_var>
/home/lagadanu/Desktop/qemu/optee_os/lib/libmpa/mpa_gcd.c:114
    2b58:	f9404fa0 	ldr	x0, [x29,#152]
    2b5c:	aa1903e1 	mov	x1, x25
    2b60:	97fffab0 	bl	1620 <mpa_copy>
/home/lagadanu/Desktop/qemu/optee_os/lib/libmpa/mpa_gcd.c:115
    2b64:	910283a0 	add	x0, x29, #0xa0
    2b68:	aa1303e1 	mov	x1, x19
    2b6c:	f90037a0 	str	x0, [x29,#104]
    2b70:	9400018b 	bl	319c <mpa_alloc_static_temp_var>
/home/lagadanu/Desktop/qemu/optee_os/lib/libmpa/mpa_gcd.c:116
    2b74:	f94053a0 	ldr	x0, [x29,#160]
    2b78:	aa1703e1 	mov	x1, x23
/home/lagadanu/Desktop/qemu/optee_os/lib/libmpa/mpa_gcd.c:118
    2b7c:	52800017 	mov	w23, #0x0                   	// #0
/home/lagadanu/Desktop/qemu/optee_os/lib/libmpa/mpa_gcd.c:116
    2b80:	97fffaa8 	bl	1620 <mpa_copy>
/home/lagadanu/Desktop/qemu/optee_os/lib/libmpa/mpa_gcd.c:119
    2b84:	f9404fa0 	ldr	x0, [x29,#152]
    2b88:	97fffaf0 	bl	1748 <mpa_parity>
    2b8c:	34000980 	cbz	w0, 2cbc <__mpa_egcd+0x1f8>
/home/lagadanu/Desktop/qemu/optee_os/lib/libmpa/mpa_gcd.c:125
    2b90:	9102a3a0 	add	x0, x29, #0xa8
    2b94:	aa1303e1 	mov	x1, x19
    2b98:	f90033a0 	str	x0, [x29,#96]
    2b9c:	94000180 	bl	319c <mpa_alloc_static_temp_var>
/home/lagadanu/Desktop/qemu/optee_os/lib/libmpa/mpa_gcd.c:126
    2ba0:	f9404fa1 	ldr	x1, [x29,#152]
/home/lagadanu/Desktop/qemu/optee_os/lib/libmpa/mpa_gcd.c:128
    2ba4:	9101e3bc 	add	x28, x29, #0x78
/home/lagadanu/Desktop/qemu/optee_os/lib/libmpa/mpa_gcd.c:126
    2ba8:	f94057a0 	ldr	x0, [x29,#168]
/home/lagadanu/Desktop/qemu/optee_os/lib/libmpa/mpa_gcd.c:130
    2bac:	910203bb 	add	x27, x29, #0x80
/home/lagadanu/Desktop/qemu/optee_os/lib/libmpa/mpa_gcd.c:132
    2bb0:	910223ba 	add	x26, x29, #0x88
/home/lagadanu/Desktop/qemu/optee_os/lib/libmpa/mpa_gcd.c:134
    2bb4:	910243b9 	add	x25, x29, #0x90
/home/lagadanu/Desktop/qemu/optee_os/lib/libmpa/mpa_gcd.c:126
    2bb8:	97fffa9a 	bl	1620 <mpa_copy>
/home/lagadanu/Desktop/qemu/optee_os/lib/libmpa/mpa_gcd.c:127
    2bbc:	f94053a1 	ldr	x1, [x29,#160]
    2bc0:	aa1403e0 	mov	x0, x20
    2bc4:	97fffa97 	bl	1620 <mpa_copy>
/home/lagadanu/Desktop/qemu/optee_os/lib/libmpa/mpa_gcd.c:128
    2bc8:	aa1303e1 	mov	x1, x19
    2bcc:	aa1c03e0 	mov	x0, x28
    2bd0:	94000173 	bl	319c <mpa_alloc_static_temp_var>
/home/lagadanu/Desktop/qemu/optee_os/lib/libmpa/mpa_gcd.c:129
    2bd4:	f9403fa0 	ldr	x0, [x29,#120]
    2bd8:	52800021 	mov	w1, #0x1                   	// #1
    2bdc:	97fffcf0 	bl	1f9c <mpa_set_word>
/home/lagadanu/Desktop/qemu/optee_os/lib/libmpa/mpa_gcd.c:130
    2be0:	aa1303e1 	mov	x1, x19
    2be4:	aa1b03e0 	mov	x0, x27
    2be8:	9400016d 	bl	319c <mpa_alloc_static_temp_var>
/home/lagadanu/Desktop/qemu/optee_os/lib/libmpa/mpa_gcd.c:131
    2bec:	f94043a0 	ldr	x0, [x29,#128]
    2bf0:	52800001 	mov	w1, #0x0                   	// #0
    2bf4:	97fffcea 	bl	1f9c <mpa_set_word>
/home/lagadanu/Desktop/qemu/optee_os/lib/libmpa/mpa_gcd.c:132
    2bf8:	aa1303e1 	mov	x1, x19
    2bfc:	aa1a03e0 	mov	x0, x26
    2c00:	94000167 	bl	319c <mpa_alloc_static_temp_var>
/home/lagadanu/Desktop/qemu/optee_os/lib/libmpa/mpa_gcd.c:133
    2c04:	f94047a0 	ldr	x0, [x29,#136]
    2c08:	52800001 	mov	w1, #0x0                   	// #0
    2c0c:	97fffce4 	bl	1f9c <mpa_set_word>
/home/lagadanu/Desktop/qemu/optee_os/lib/libmpa/mpa_gcd.c:134
    2c10:	aa1303e1 	mov	x1, x19
    2c14:	aa1903e0 	mov	x0, x25
    2c18:	94000161 	bl	319c <mpa_alloc_static_temp_var>
/home/lagadanu/Desktop/qemu/optee_os/lib/libmpa/mpa_gcd.c:135
    2c1c:	f9404ba0 	ldr	x0, [x29,#144]
    2c20:	52800021 	mov	w1, #0x1                   	// #1
    2c24:	97fffcde 	bl	1f9c <mpa_set_word>
/home/lagadanu/Desktop/qemu/optee_os/lib/libmpa/mpa_gcd.c:137
    2c28:	f94057a0 	ldr	x0, [x29,#168]
    2c2c:	b9400400 	ldr	w0, [x0,#4]
    2c30:	35000800 	cbnz	w0, 2d30 <__mpa_egcd+0x26c>
/home/lagadanu/Desktop/qemu/optee_os/lib/libmpa/mpa_gcd.c:170
    2c34:	b4000096 	cbz	x22, 2c44 <__mpa_egcd+0x180>
/home/lagadanu/Desktop/qemu/optee_os/lib/libmpa/mpa_gcd.c:171
    2c38:	f94047a1 	ldr	x1, [x29,#136]
    2c3c:	aa1603e0 	mov	x0, x22
    2c40:	97fffa78 	bl	1620 <mpa_copy>
/home/lagadanu/Desktop/qemu/optee_os/lib/libmpa/mpa_gcd.c:172
    2c44:	b4000095 	cbz	x21, 2c54 <__mpa_egcd+0x190>
/home/lagadanu/Desktop/qemu/optee_os/lib/libmpa/mpa_gcd.c:173
    2c48:	f9404ba1 	ldr	x1, [x29,#144]
    2c4c:	aa1503e0 	mov	x0, x21
    2c50:	97fffa74 	bl	1620 <mpa_copy>
/home/lagadanu/Desktop/qemu/optee_os/lib/libmpa/mpa_gcd.c:174
    2c54:	2a1703e2 	mov	w2, w23
    2c58:	aa1403e1 	mov	x1, x20
    2c5c:	aa1403e0 	mov	x0, x20
    2c60:	940002d0 	bl	37a0 <mpa_shift_left>
/home/lagadanu/Desktop/qemu/optee_os/lib/libmpa/mpa_gcd.c:176
    2c64:	aa1303e1 	mov	x1, x19
    2c68:	aa1c03e0 	mov	x0, x28
    2c6c:	94000150 	bl	31ac <mpa_free_static_temp_var>
/home/lagadanu/Desktop/qemu/optee_os/lib/libmpa/mpa_gcd.c:177
    2c70:	aa1303e1 	mov	x1, x19
    2c74:	aa1b03e0 	mov	x0, x27
    2c78:	9400014d 	bl	31ac <mpa_free_static_temp_var>
/home/lagadanu/Desktop/qemu/optee_os/lib/libmpa/mpa_gcd.c:178
    2c7c:	aa1303e1 	mov	x1, x19
    2c80:	aa1a03e0 	mov	x0, x26
    2c84:	9400014a 	bl	31ac <mpa_free_static_temp_var>
/home/lagadanu/Desktop/qemu/optee_os/lib/libmpa/mpa_gcd.c:179
    2c88:	aa1303e1 	mov	x1, x19
    2c8c:	aa1903e0 	mov	x0, x25
    2c90:	94000147 	bl	31ac <mpa_free_static_temp_var>
/home/lagadanu/Desktop/qemu/optee_os/lib/libmpa/mpa_gcd.c:180
    2c94:	aa1303e1 	mov	x1, x19
    2c98:	aa1803e0 	mov	x0, x24
    2c9c:	94000144 	bl	31ac <mpa_free_static_temp_var>
/home/lagadanu/Desktop/qemu/optee_os/lib/libmpa/mpa_gcd.c:181
    2ca0:	f94037a0 	ldr	x0, [x29,#104]
    2ca4:	aa1303e1 	mov	x1, x19
    2ca8:	94000141 	bl	31ac <mpa_free_static_temp_var>
/home/lagadanu/Desktop/qemu/optee_os/lib/libmpa/mpa_gcd.c:182
    2cac:	f94033a0 	ldr	x0, [x29,#96]
    2cb0:	aa1303e1 	mov	x1, x19
    2cb4:	9400013e 	bl	31ac <mpa_free_static_temp_var>
    2cb8:	17ffff9b 	b	2b24 <__mpa_egcd+0x60>
/home/lagadanu/Desktop/qemu/optee_os/lib/libmpa/mpa_gcd.c:119
    2cbc:	f94053a0 	ldr	x0, [x29,#160]
    2cc0:	97fffaa2 	bl	1748 <mpa_parity>
    2cc4:	35fff660 	cbnz	w0, 2b90 <__mpa_egcd+0xcc>
/home/lagadanu/Desktop/qemu/optee_os/lib/libmpa/mpa_gcd.c:121
    2cc8:	f9404fa0 	ldr	x0, [x29,#152]
/home/lagadanu/Desktop/qemu/optee_os/lib/libmpa/mpa_gcd.c:120
    2ccc:	110006f7 	add	w23, w23, #0x1
/home/lagadanu/Desktop/qemu/optee_os/lib/libmpa/mpa_gcd.c:121
    2cd0:	97ffff02 	bl	28d8 <__mpa_divby2>
/home/lagadanu/Desktop/qemu/optee_os/lib/libmpa/mpa_gcd.c:122
    2cd4:	f94053a0 	ldr	x0, [x29,#160]
    2cd8:	97ffff00 	bl	28d8 <__mpa_divby2>
    2cdc:	17ffffaa 	b	2b84 <__mpa_egcd+0xc0>
/home/lagadanu/Desktop/qemu/optee_os/lib/libmpa/mpa_gcd.c:139
    2ce0:	f94057a0 	ldr	x0, [x29,#168]
    2ce4:	97fffefd 	bl	28d8 <__mpa_divby2>
/home/lagadanu/Desktop/qemu/optee_os/lib/libmpa/mpa_gcd.c:140
    2ce8:	f9403fa0 	ldr	x0, [x29,#120]
    2cec:	97fffa97 	bl	1748 <mpa_parity>
    2cf0:	7100041f 	cmp	w0, #0x1
    2cf4:	54000521 	b.ne	2d98 <__mpa_egcd+0x2d4>
/home/lagadanu/Desktop/qemu/optee_os/lib/libmpa/mpa_gcd.c:141
    2cf8:	f9403fa1 	ldr	x1, [x29,#120]
    2cfc:	aa1303e3 	mov	x3, x19
    2d00:	f94053a2 	ldr	x2, [x29,#160]
    2d04:	aa0103e0 	mov	x0, x1
    2d08:	94000424 	bl	3d98 <mpa_add>
/home/lagadanu/Desktop/qemu/optee_os/lib/libmpa/mpa_gcd.c:142
    2d0c:	f94043a1 	ldr	x1, [x29,#128]
    2d10:	aa1303e3 	mov	x3, x19
    2d14:	f9404fa2 	ldr	x2, [x29,#152]
    2d18:	aa0103e0 	mov	x0, x1
    2d1c:	94000484 	bl	3f2c <mpa_sub>
/home/lagadanu/Desktop/qemu/optee_os/lib/libmpa/mpa_gcd.c:144
    2d20:	f9403fa0 	ldr	x0, [x29,#120]
    2d24:	97fffeed 	bl	28d8 <__mpa_divby2>
/home/lagadanu/Desktop/qemu/optee_os/lib/libmpa/mpa_gcd.c:145
    2d28:	f94043a0 	ldr	x0, [x29,#128]
    2d2c:	97fffeeb 	bl	28d8 <__mpa_divby2>
/home/lagadanu/Desktop/qemu/optee_os/lib/libmpa/mpa_gcd.c:138
    2d30:	f94057a0 	ldr	x0, [x29,#168]
    2d34:	97fffa85 	bl	1748 <mpa_parity>
    2d38:	34fffd40 	cbz	w0, 2ce0 <__mpa_egcd+0x21c>
/home/lagadanu/Desktop/qemu/optee_os/lib/libmpa/mpa_gcd.c:148
    2d3c:	aa1403e0 	mov	x0, x20
    2d40:	97fffa82 	bl	1748 <mpa_parity>
    2d44:	34000340 	cbz	w0, 2dac <__mpa_egcd+0x2e8>
/home/lagadanu/Desktop/qemu/optee_os/lib/libmpa/mpa_gcd.c:158
    2d48:	f94057a0 	ldr	x0, [x29,#168]
    2d4c:	aa1403e1 	mov	x1, x20
    2d50:	940005bf 	bl	444c <mpa_cmp>
/home/lagadanu/Desktop/qemu/optee_os/lib/libmpa/mpa_gcd.c:159
    2d54:	aa1303e3 	mov	x3, x19
/home/lagadanu/Desktop/qemu/optee_os/lib/libmpa/mpa_gcd.c:158
    2d58:	37f805c0 	tbnz	w0, #31, 2e10 <__mpa_egcd+0x34c>
/home/lagadanu/Desktop/qemu/optee_os/lib/libmpa/mpa_gcd.c:159
    2d5c:	f94057a1 	ldr	x1, [x29,#168]
    2d60:	aa1403e2 	mov	x2, x20
    2d64:	aa0103e0 	mov	x0, x1
    2d68:	94000471 	bl	3f2c <mpa_sub>
/home/lagadanu/Desktop/qemu/optee_os/lib/libmpa/mpa_gcd.c:160
    2d6c:	f9403fa1 	ldr	x1, [x29,#120]
    2d70:	aa1303e3 	mov	x3, x19
    2d74:	f94047a2 	ldr	x2, [x29,#136]
    2d78:	aa0103e0 	mov	x0, x1
    2d7c:	9400046c 	bl	3f2c <mpa_sub>
/home/lagadanu/Desktop/qemu/optee_os/lib/libmpa/mpa_gcd.c:161
    2d80:	f94043a1 	ldr	x1, [x29,#128]
    2d84:	aa1303e3 	mov	x3, x19
    2d88:	f9404ba2 	ldr	x2, [x29,#144]
/home/lagadanu/Desktop/qemu/optee_os/lib/libmpa/mpa_gcd.c:165
    2d8c:	aa0103e0 	mov	x0, x1
    2d90:	94000467 	bl	3f2c <mpa_sub>
    2d94:	17ffffa5 	b	2c28 <__mpa_egcd+0x164>
/home/lagadanu/Desktop/qemu/optee_os/lib/libmpa/mpa_gcd.c:140
    2d98:	f94043a0 	ldr	x0, [x29,#128]
    2d9c:	97fffa6b 	bl	1748 <mpa_parity>
    2da0:	7100041f 	cmp	w0, #0x1
    2da4:	54fffbe1 	b.ne	2d20 <__mpa_egcd+0x25c>
    2da8:	17ffffd4 	b	2cf8 <__mpa_egcd+0x234>
/home/lagadanu/Desktop/qemu/optee_os/lib/libmpa/mpa_gcd.c:149
    2dac:	aa1403e0 	mov	x0, x20
    2db0:	97fffeca 	bl	28d8 <__mpa_divby2>
/home/lagadanu/Desktop/qemu/optee_os/lib/libmpa/mpa_gcd.c:150
    2db4:	f94047a0 	ldr	x0, [x29,#136]
    2db8:	97fffa64 	bl	1748 <mpa_parity>
    2dbc:	7100041f 	cmp	w0, #0x1
    2dc0:	540001e1 	b.ne	2dfc <__mpa_egcd+0x338>
/home/lagadanu/Desktop/qemu/optee_os/lib/libmpa/mpa_gcd.c:151
    2dc4:	f94047a1 	ldr	x1, [x29,#136]
    2dc8:	aa1303e3 	mov	x3, x19
    2dcc:	f94053a2 	ldr	x2, [x29,#160]
    2dd0:	aa0103e0 	mov	x0, x1
    2dd4:	940003f1 	bl	3d98 <mpa_add>
/home/lagadanu/Desktop/qemu/optee_os/lib/libmpa/mpa_gcd.c:152
    2dd8:	a9490ba1 	ldp	x1, x2, [x29,#144]
    2ddc:	aa1303e3 	mov	x3, x19
    2de0:	aa0103e0 	mov	x0, x1
    2de4:	94000452 	bl	3f2c <mpa_sub>
/home/lagadanu/Desktop/qemu/optee_os/lib/libmpa/mpa_gcd.c:154
    2de8:	f94047a0 	ldr	x0, [x29,#136]
    2dec:	97fffebb 	bl	28d8 <__mpa_divby2>
/home/lagadanu/Desktop/qemu/optee_os/lib/libmpa/mpa_gcd.c:155
    2df0:	f9404ba0 	ldr	x0, [x29,#144]
    2df4:	97fffeb9 	bl	28d8 <__mpa_divby2>
    2df8:	17ffffd1 	b	2d3c <__mpa_egcd+0x278>
/home/lagadanu/Desktop/qemu/optee_os/lib/libmpa/mpa_gcd.c:150
    2dfc:	f9404ba0 	ldr	x0, [x29,#144]
    2e00:	97fffa52 	bl	1748 <mpa_parity>
    2e04:	7100041f 	cmp	w0, #0x1
    2e08:	54ffff01 	b.ne	2de8 <__mpa_egcd+0x324>
    2e0c:	17ffffee 	b	2dc4 <__mpa_egcd+0x300>
/home/lagadanu/Desktop/qemu/optee_os/lib/libmpa/mpa_gcd.c:163
    2e10:	f94057a2 	ldr	x2, [x29,#168]
    2e14:	aa1403e1 	mov	x1, x20
    2e18:	aa1403e0 	mov	x0, x20
    2e1c:	94000444 	bl	3f2c <mpa_sub>
/home/lagadanu/Desktop/qemu/optee_os/lib/libmpa/mpa_gcd.c:164
    2e20:	f94047a1 	ldr	x1, [x29,#136]
    2e24:	aa1303e3 	mov	x3, x19
    2e28:	f9403fa2 	ldr	x2, [x29,#120]
    2e2c:	aa0103e0 	mov	x0, x1
    2e30:	9400043f 	bl	3f2c <mpa_sub>
/home/lagadanu/Desktop/qemu/optee_os/lib/libmpa/mpa_gcd.c:165
    2e34:	aa1303e3 	mov	x3, x19
    2e38:	f94043a2 	ldr	x2, [x29,#128]
    2e3c:	f9404ba1 	ldr	x1, [x29,#144]
    2e40:	17ffffd3 	b	2d8c <__mpa_egcd+0x2c8>

0000000000002e44 <mpa_gcd>:
mpa_gcd():
/home/lagadanu/Desktop/qemu/optee_os/lib/libmpa/mpa_gcd.c:253
    2e44:	a9bc7bfd 	stp	x29, x30, [sp,#-64]!
    2e48:	910003fd 	mov	x29, sp
    2e4c:	a90153f3 	stp	x19, x20, [sp,#16]
    2e50:	aa0203f3 	mov	x19, x2
    2e54:	a9025bf5 	stp	x21, x22, [sp,#32]
    2e58:	aa0003f6 	mov	x22, x0
/home/lagadanu/Desktop/qemu/optee_os/lib/libmpa/mpa_gcd.c:259
    2e5c:	b9400420 	ldr	w0, [x1,#4]
/home/lagadanu/Desktop/qemu/optee_os/lib/libmpa/mpa_gcd.c:253
    2e60:	aa0103f4 	mov	x20, x1
/home/lagadanu/Desktop/qemu/optee_os/lib/libmpa/mpa_gcd.c:260
    2e64:	b9400661 	ldr	w1, [x19,#4]
/home/lagadanu/Desktop/qemu/optee_os/lib/libmpa/mpa_gcd.c:259
    2e68:	52800022 	mov	w2, #0x1                   	// #1
    2e6c:	7100001f 	cmp	w0, #0x0
/home/lagadanu/Desktop/qemu/optee_os/lib/libmpa/mpa_gcd.c:253
    2e70:	a90363f7 	stp	x23, x24, [sp,#48]
    2e74:	aa0303f8 	mov	x24, x3
/home/lagadanu/Desktop/qemu/optee_os/lib/libmpa/mpa_gcd.c:259
    2e78:	5a82a457 	cneg	w23, w2, lt
/home/lagadanu/Desktop/qemu/optee_os/lib/libmpa/mpa_gcd.c:260
    2e7c:	36f806e1 	tbz	w1, #31, 2f58 <mpa_gcd+0x114>
    2e80:	12800015 	mov	w21, #0xffffffff            	// #-1
/home/lagadanu/Desktop/qemu/optee_os/lib/libmpa/mpa_gcd.c:261
    2e84:	36f800a0 	tbz	w0, #31, 2e98 <mpa_gcd+0x54>
/home/lagadanu/Desktop/qemu/optee_os/lib/libmpa/mpa_gcd.c:261 (discriminator 1)
    2e88:	4b0003e0 	neg	w0, w0
    2e8c:	b9000680 	str	w0, [x20,#4]
/home/lagadanu/Desktop/qemu/optee_os/lib/libmpa/mpa_gcd.c:262 (discriminator 1)
    2e90:	b9400661 	ldr	w1, [x19,#4]
    2e94:	36f80061 	tbz	w1, #31, 2ea0 <mpa_gcd+0x5c>
    2e98:	4b0103e1 	neg	w1, w1
    2e9c:	b9000661 	str	w1, [x19,#4]
/home/lagadanu/Desktop/qemu/optee_os/lib/libmpa/mpa_gcd.c:264
    2ea0:	aa1303e1 	mov	x1, x19
    2ea4:	aa1403e0 	mov	x0, x20
    2ea8:	94000569 	bl	444c <mpa_cmp>
/home/lagadanu/Desktop/qemu/optee_os/lib/libmpa/mpa_gcd.c:265
    2eac:	7100001f 	cmp	w0, #0x0
    2eb0:	54000321 	b.ne	2f14 <mpa_gcd+0xd0>
/home/lagadanu/Desktop/qemu/optee_os/lib/libmpa/mpa_gcd.c:266
    2eb4:	aa1403e1 	mov	x1, x20
__mpa_gcd():
/home/lagadanu/Desktop/qemu/optee_os/lib/libmpa/mpa_gcd.c:201
    2eb8:	aa1603e0 	mov	x0, x22
    2ebc:	97fff9d9 	bl	1620 <mpa_copy>
mpa_gcd():
/home/lagadanu/Desktop/qemu/optee_os/lib/libmpa/mpa_gcd.c:277
    2ec0:	b9400680 	ldr	w0, [x20,#4]
    2ec4:	52800021 	mov	w1, #0x1                   	// #1
    2ec8:	7100001f 	cmp	w0, #0x0
    2ecc:	5a81a421 	cneg	w1, w1, lt
    2ed0:	6b0102ff 	cmp	w23, w1
    2ed4:	54000060 	b.eq	2ee0 <mpa_gcd+0x9c>
/home/lagadanu/Desktop/qemu/optee_os/lib/libmpa/mpa_gcd.c:277 (discriminator 5)
    2ed8:	4b0003e0 	neg	w0, w0
    2edc:	b9000680 	str	w0, [x20,#4]
/home/lagadanu/Desktop/qemu/optee_os/lib/libmpa/mpa_gcd.c:278
    2ee0:	b9400660 	ldr	w0, [x19,#4]
    2ee4:	52800021 	mov	w1, #0x1                   	// #1
    2ee8:	7100001f 	cmp	w0, #0x0
    2eec:	5a81a421 	cneg	w1, w1, lt
    2ef0:	6b15003f 	cmp	w1, w21
    2ef4:	54000060 	b.eq	2f00 <mpa_gcd+0xbc>
/home/lagadanu/Desktop/qemu/optee_os/lib/libmpa/mpa_gcd.c:278 (discriminator 5)
    2ef8:	4b0003e0 	neg	w0, w0
    2efc:	b9000660 	str	w0, [x19,#4]
/home/lagadanu/Desktop/qemu/optee_os/lib/libmpa/mpa_gcd.c:279
    2f00:	a94153f3 	ldp	x19, x20, [sp,#16]
    2f04:	a9425bf5 	ldp	x21, x22, [sp,#32]
    2f08:	a94363f7 	ldp	x23, x24, [sp,#48]
    2f0c:	a8c47bfd 	ldp	x29, x30, [sp],#64
    2f10:	d65f03c0 	ret
/home/lagadanu/Desktop/qemu/optee_os/lib/libmpa/mpa_gcd.c:269
    2f14:	5400016a 	b.ge	2f40 <mpa_gcd+0xfc>
__mpa_gcd():
/home/lagadanu/Desktop/qemu/optee_os/lib/libmpa/mpa_gcd.c:200
    2f18:	b9400680 	ldr	w0, [x20,#4]
    2f1c:	35000060 	cbnz	w0, 2f28 <mpa_gcd+0xe4>
/home/lagadanu/Desktop/qemu/optee_os/lib/libmpa/mpa_gcd.c:201
    2f20:	aa1303e1 	mov	x1, x19
    2f24:	17ffffe5 	b	2eb8 <mpa_gcd+0x74>
    2f28:	aa1803e3 	mov	x3, x24
    2f2c:	aa1403e2 	mov	x2, x20
    2f30:	aa1303e1 	mov	x1, x19
    2f34:	aa1603e0 	mov	x0, x22
    2f38:	97fffe88 	bl	2958 <__mpa_gcd.part.0>
    2f3c:	17ffffe1 	b	2ec0 <mpa_gcd+0x7c>
/home/lagadanu/Desktop/qemu/optee_os/lib/libmpa/mpa_gcd.c:200
    2f40:	b9400660 	ldr	w0, [x19,#4]
    2f44:	34fffb80 	cbz	w0, 2eb4 <mpa_gcd+0x70>
    2f48:	aa1803e3 	mov	x3, x24
    2f4c:	aa1303e2 	mov	x2, x19
    2f50:	aa1403e1 	mov	x1, x20
    2f54:	17fffff8 	b	2f34 <mpa_gcd+0xf0>
mpa_gcd():
/home/lagadanu/Desktop/qemu/optee_os/lib/libmpa/mpa_gcd.c:260
    2f58:	2a0203f5 	mov	w21, w2
/home/lagadanu/Desktop/qemu/optee_os/lib/libmpa/mpa_gcd.c:261
    2f5c:	36fffa20 	tbz	w0, #31, 2ea0 <mpa_gcd+0x5c>
    2f60:	17ffffca 	b	2e88 <mpa_gcd+0x44>

0000000000002f64 <mpa_extended_gcd>:
mpa_extended_gcd():
/home/lagadanu/Desktop/qemu/optee_os/lib/libmpa/mpa_gcd.c:295
    2f64:	a9b97bfd 	stp	x29, x30, [sp,#-112]!
/home/lagadanu/Desktop/qemu/optee_os/lib/libmpa/mpa_gcd.c:302
    2f68:	f100003f 	cmp	x1, #0x0
    2f6c:	fa400840 	ccmp	x2, #0x0, #0x0, eq
/home/lagadanu/Desktop/qemu/optee_os/lib/libmpa/mpa_gcd.c:295
    2f70:	910003fd 	mov	x29, sp
    2f74:	a90153f3 	stp	x19, x20, [sp,#16]
    2f78:	aa0303f3 	mov	x19, x3
    2f7c:	a9025bf5 	stp	x21, x22, [sp,#32]
    2f80:	aa0403f4 	mov	x20, x4
    2f84:	a9046bf9 	stp	x25, x26, [sp,#64]
    2f88:	aa0003f6 	mov	x22, x0
    2f8c:	a90363f7 	stp	x23, x24, [sp,#48]
    2f90:	aa0503f9 	mov	x25, x5
    2f94:	a90573fb 	stp	x27, x28, [sp,#80]
/home/lagadanu/Desktop/qemu/optee_os/lib/libmpa/mpa_gcd.c:302
    2f98:	540001a1 	b.ne	2fcc <mpa_extended_gcd+0x68>
/home/lagadanu/Desktop/qemu/optee_os/lib/libmpa/mpa_gcd.c:303
    2f9c:	b40000a0 	cbz	x0, 2fb0 <mpa_extended_gcd+0x4c>
/home/lagadanu/Desktop/qemu/optee_os/lib/libmpa/mpa_gcd.c:304
    2fa0:	aa0503e3 	mov	x3, x5
    2fa4:	aa0403e2 	mov	x2, x4
    2fa8:	aa1303e1 	mov	x1, x19
    2fac:	97ffffa6 	bl	2e44 <mpa_gcd>
/home/lagadanu/Desktop/qemu/optee_os/lib/libmpa/mpa_gcd.c:350
    2fb0:	a94153f3 	ldp	x19, x20, [sp,#16]
    2fb4:	a9425bf5 	ldp	x21, x22, [sp,#32]
    2fb8:	a94363f7 	ldp	x23, x24, [sp,#48]
    2fbc:	a9446bf9 	ldp	x25, x26, [sp,#64]
    2fc0:	a94573fb 	ldp	x27, x28, [sp,#80]
    2fc4:	a8c77bfd 	ldp	x29, x30, [sp],#112
    2fc8:	d65f03c0 	ret
/home/lagadanu/Desktop/qemu/optee_os/lib/libmpa/mpa_gcd.c:309
    2fcc:	b9400460 	ldr	w0, [x3,#4]
    2fd0:	aa0103f7 	mov	x23, x1
/home/lagadanu/Desktop/qemu/optee_os/lib/libmpa/mpa_gcd.c:310
    2fd4:	b9400481 	ldr	w1, [x4,#4]
/home/lagadanu/Desktop/qemu/optee_os/lib/libmpa/mpa_gcd.c:309
    2fd8:	52800035 	mov	w21, #0x1                   	// #1
    2fdc:	7100001f 	cmp	w0, #0x0
    2fe0:	aa0203f8 	mov	x24, x2
    2fe4:	5a95a6ba 	cneg	w26, w21, lt
/home/lagadanu/Desktop/qemu/optee_os/lib/libmpa/mpa_gcd.c:310
    2fe8:	36f80b01 	tbz	w1, #31, 3148 <mpa_extended_gcd+0x1e4>
    2fec:	12800015 	mov	w21, #0xffffffff            	// #-1
/home/lagadanu/Desktop/qemu/optee_os/lib/libmpa/mpa_gcd.c:311
    2ff0:	36f800a0 	tbz	w0, #31, 3004 <mpa_extended_gcd+0xa0>
/home/lagadanu/Desktop/qemu/optee_os/lib/libmpa/mpa_gcd.c:311 (discriminator 1)
    2ff4:	4b0003e0 	neg	w0, w0
    2ff8:	b9000660 	str	w0, [x19,#4]
/home/lagadanu/Desktop/qemu/optee_os/lib/libmpa/mpa_gcd.c:312 (discriminator 1)
    2ffc:	b9400681 	ldr	w1, [x20,#4]
    3000:	36f80061 	tbz	w1, #31, 300c <mpa_extended_gcd+0xa8>
    3004:	4b0103e1 	neg	w1, w1
    3008:	b9000681 	str	w1, [x20,#4]
/home/lagadanu/Desktop/qemu/optee_os/lib/libmpa/mpa_gcd.c:314
    300c:	aa1403e1 	mov	x1, x20
    3010:	aa1303e0 	mov	x0, x19
    3014:	9400050e 	bl	444c <mpa_cmp>
    3018:	2a0003fc 	mov	w28, w0
/home/lagadanu/Desktop/qemu/optee_os/lib/libmpa/mpa_gcd.c:315
    301c:	35000540 	cbnz	w0, 30c4 <mpa_extended_gcd+0x160>
/home/lagadanu/Desktop/qemu/optee_os/lib/libmpa/mpa_gcd.c:316
    3020:	b4000096 	cbz	x22, 3030 <mpa_extended_gcd+0xcc>
/home/lagadanu/Desktop/qemu/optee_os/lib/libmpa/mpa_gcd.c:317
    3024:	aa1303e1 	mov	x1, x19
    3028:	aa1603e0 	mov	x0, x22
    302c:	97fff97d 	bl	1620 <mpa_copy>
/home/lagadanu/Desktop/qemu/optee_os/lib/libmpa/mpa_gcd.c:318
    3030:	b4000097 	cbz	x23, 3040 <mpa_extended_gcd+0xdc>
/home/lagadanu/Desktop/qemu/optee_os/lib/libmpa/mpa_gcd.c:319
    3034:	52800021 	mov	w1, #0x1                   	// #1
    3038:	aa1703e0 	mov	x0, x23
    303c:	97fffbd8 	bl	1f9c <mpa_set_word>
/home/lagadanu/Desktop/qemu/optee_os/lib/libmpa/mpa_gcd.c:320
    3040:	b4000098 	cbz	x24, 3050 <mpa_extended_gcd+0xec>
/home/lagadanu/Desktop/qemu/optee_os/lib/libmpa/mpa_gcd.c:321
    3044:	52800001 	mov	w1, #0x0                   	// #0
    3048:	aa1803e0 	mov	x0, x24
    304c:	97fffbd4 	bl	1f9c <mpa_set_word>
/home/lagadanu/Desktop/qemu/optee_os/lib/libmpa/mpa_gcd.c:343
    3050:	b9400660 	ldr	w0, [x19,#4]
    3054:	52800021 	mov	w1, #0x1                   	// #1
    3058:	7100001f 	cmp	w0, #0x0
    305c:	5a81a421 	cneg	w1, w1, lt
    3060:	6b01035f 	cmp	w26, w1
    3064:	54000060 	b.eq	3070 <mpa_extended_gcd+0x10c>
/home/lagadanu/Desktop/qemu/optee_os/lib/libmpa/mpa_gcd.c:343 (discriminator 5)
    3068:	4b0003e0 	neg	w0, w0
    306c:	b9000660 	str	w0, [x19,#4]
/home/lagadanu/Desktop/qemu/optee_os/lib/libmpa/mpa_gcd.c:344
    3070:	b9400680 	ldr	w0, [x20,#4]
    3074:	52800021 	mov	w1, #0x1                   	// #1
    3078:	7100001f 	cmp	w0, #0x0
    307c:	5a81a421 	cneg	w1, w1, lt
    3080:	6b15003f 	cmp	w1, w21
    3084:	54000060 	b.eq	3090 <mpa_extended_gcd+0x12c>
/home/lagadanu/Desktop/qemu/optee_os/lib/libmpa/mpa_gcd.c:344 (discriminator 5)
    3088:	4b0003e0 	neg	w0, w0
    308c:	b9000680 	str	w0, [x20,#4]
/home/lagadanu/Desktop/qemu/optee_os/lib/libmpa/mpa_gcd.c:346
    3090:	f10002ff 	cmp	x23, #0x0
    3094:	3a411b40 	ccmn	w26, #0x1, #0x0, ne
    3098:	54000081 	b.ne	30a8 <mpa_extended_gcd+0x144>
/home/lagadanu/Desktop/qemu/optee_os/lib/libmpa/mpa_gcd.c:347
    309c:	b94006e0 	ldr	w0, [x23,#4]
    30a0:	4b0003e0 	neg	w0, w0
    30a4:	b90006e0 	str	w0, [x23,#4]
/home/lagadanu/Desktop/qemu/optee_os/lib/libmpa/mpa_gcd.c:348
    30a8:	f100031f 	cmp	x24, #0x0
    30ac:	3a411aa0 	ccmn	w21, #0x1, #0x0, ne
    30b0:	54fff801 	b.ne	2fb0 <mpa_extended_gcd+0x4c>
/home/lagadanu/Desktop/qemu/optee_os/lib/libmpa/mpa_gcd.c:349
    30b4:	b9400700 	ldr	w0, [x24,#4]
    30b8:	4b0003e0 	neg	w0, w0
    30bc:	b9000700 	str	w0, [x24,#4]
    30c0:	17ffffbc 	b	2fb0 <mpa_extended_gcd+0x4c>
/home/lagadanu/Desktop/qemu/optee_os/lib/libmpa/mpa_gcd.c:325
    30c4:	f10002df 	cmp	x22, #0x0
    30c8:	fa561284 	ccmp	x20, x22, #0x4, ne
    30cc:	fa561264 	ccmp	x19, x22, #0x4, ne
    30d0:	54000361 	b.ne	313c <mpa_extended_gcd+0x1d8>
    30d4:	5280003b 	mov	w27, #0x1                   	// #1
/home/lagadanu/Desktop/qemu/optee_os/lib/libmpa/mpa_gcd.c:327
    30d8:	aa1903e1 	mov	x1, x25
    30dc:	9101a3a0 	add	x0, x29, #0x68
    30e0:	9400002f 	bl	319c <mpa_alloc_static_temp_var>
/home/lagadanu/Desktop/qemu/optee_os/lib/libmpa/mpa_gcd.c:332
    30e4:	aa1903e5 	mov	x5, x25
/home/lagadanu/Desktop/qemu/optee_os/lib/libmpa/mpa_gcd.c:331
    30e8:	36f8021c 	tbz	w28, #31, 3128 <mpa_extended_gcd+0x1c4>
/home/lagadanu/Desktop/qemu/optee_os/lib/libmpa/mpa_gcd.c:332
    30ec:	aa1303e4 	mov	x4, x19
    30f0:	aa1403e3 	mov	x3, x20
    30f4:	aa1703e2 	mov	x2, x23
    30f8:	aa1803e1 	mov	x1, x24
/home/lagadanu/Desktop/qemu/optee_os/lib/libmpa/mpa_gcd.c:334
    30fc:	f94037a0 	ldr	x0, [x29,#104]
    3100:	97fffe71 	bl	2ac4 <__mpa_egcd>
/home/lagadanu/Desktop/qemu/optee_os/lib/libmpa/mpa_gcd.c:336
    3104:	b4000096 	cbz	x22, 3114 <mpa_extended_gcd+0x1b0>
/home/lagadanu/Desktop/qemu/optee_os/lib/libmpa/mpa_gcd.c:337
    3108:	f94037a1 	ldr	x1, [x29,#104]
    310c:	aa1603e0 	mov	x0, x22
    3110:	97fff944 	bl	1620 <mpa_copy>
/home/lagadanu/Desktop/qemu/optee_os/lib/libmpa/mpa_gcd.c:338
    3114:	34fff9fb 	cbz	w27, 3050 <mpa_extended_gcd+0xec>
/home/lagadanu/Desktop/qemu/optee_os/lib/libmpa/mpa_gcd.c:339
    3118:	aa1903e1 	mov	x1, x25
    311c:	9101a3a0 	add	x0, x29, #0x68
    3120:	94000023 	bl	31ac <mpa_free_static_temp_var>
    3124:	17ffffcb 	b	3050 <mpa_extended_gcd+0xec>
/home/lagadanu/Desktop/qemu/optee_os/lib/libmpa/mpa_gcd.c:334
    3128:	aa1403e4 	mov	x4, x20
    312c:	aa1303e3 	mov	x3, x19
    3130:	aa1803e2 	mov	x2, x24
    3134:	aa1703e1 	mov	x1, x23
    3138:	17fffff1 	b	30fc <mpa_extended_gcd+0x198>
/home/lagadanu/Desktop/qemu/optee_os/lib/libmpa/mpa_gcd.c:325
    313c:	5280001b 	mov	w27, #0x0                   	// #0
/home/lagadanu/Desktop/qemu/optee_os/lib/libmpa/mpa_gcd.c:329
    3140:	f90037b6 	str	x22, [x29,#104]
    3144:	17ffffe8 	b	30e4 <mpa_extended_gcd+0x180>
/home/lagadanu/Desktop/qemu/optee_os/lib/libmpa/mpa_gcd.c:311
    3148:	36fff620 	tbz	w0, #31, 300c <mpa_extended_gcd+0xa8>
    314c:	17ffffaa 	b	2ff4 <mpa_extended_gcd+0x90>

0000000000003150 <mpa_alloc_static_temp_var_size>:
mpa_alloc_static_temp_var_size():
/home/lagadanu/Desktop/qemu/optee_os/lib/libmpa/mpa_mem_static.c:11
    3150:	a9be7bfd 	stp	x29, x30, [sp,#-32]!
    3154:	910003fd 	mov	x29, sp
    3158:	a90153f3 	stp	x19, x20, [sp,#16]
/home/lagadanu/Desktop/qemu/optee_os/lib/libmpa/mpa_mem_static.c:12
    315c:	11007c13 	add	w19, w0, #0x1f
    3160:	52800400 	mov	w0, #0x20                  	// #32
/home/lagadanu/Desktop/qemu/optee_os/lib/libmpa/mpa_mem_static.c:11
    3164:	aa0103f4 	mov	x20, x1
/home/lagadanu/Desktop/qemu/optee_os/lib/libmpa/mpa_mem_static.c:12
    3168:	1ac00e73 	sdiv	w19, w19, w0
    316c:	f9400040 	ldr	x0, [x2]
    3170:	11000a73 	add	w19, w19, #0x2
    3174:	937e7e61 	sbfiz	x1, x19, #2, #32
    3178:	94001067 	bl	7314 <mempool_alloc>
    317c:	f9000280 	str	x0, [x20]
/home/lagadanu/Desktop/qemu/optee_os/lib/libmpa/mpa_mem_static.c:14
    3180:	b4000060 	cbz	x0, 318c <mpa_alloc_static_temp_var_size+0x3c>
/home/lagadanu/Desktop/qemu/optee_os/lib/libmpa/mpa_mem_static.c:15
    3184:	2a1303e1 	mov	w1, w19
    3188:	9400055b 	bl	46f4 <mpa_init_static>
/home/lagadanu/Desktop/qemu/optee_os/lib/libmpa/mpa_mem_static.c:18
    318c:	f9400280 	ldr	x0, [x20]
    3190:	a94153f3 	ldp	x19, x20, [sp,#16]
    3194:	a8c27bfd 	ldp	x29, x30, [sp],#32
    3198:	d65f03c0 	ret

000000000000319c <mpa_alloc_static_temp_var>:
mpa_alloc_static_temp_var():
/home/lagadanu/Desktop/qemu/optee_os/lib/libmpa/mpa_mem_static.c:22
    319c:	aa0103e2 	mov	x2, x1
    31a0:	aa0003e1 	mov	x1, x0
    31a4:	b9400840 	ldr	w0, [x2,#8]
    31a8:	17ffffea 	b	3150 <mpa_alloc_static_temp_var_size>

00000000000031ac <mpa_free_static_temp_var>:
mpa_free_static_temp_var():
/home/lagadanu/Desktop/qemu/optee_os/lib/libmpa/mpa_mem_static.c:31
    31ac:	aa0103e2 	mov	x2, x1
/home/lagadanu/Desktop/qemu/optee_os/lib/libmpa/mpa_mem_static.c:32
    31b0:	b40000a0 	cbz	x0, 31c4 <mpa_free_static_temp_var+0x18>
/home/lagadanu/Desktop/qemu/optee_os/lib/libmpa/mpa_mem_static.c:32 (discriminator 1)
    31b4:	f9400001 	ldr	x1, [x0]
    31b8:	b4000061 	cbz	x1, 31c4 <mpa_free_static_temp_var+0x18>
/home/lagadanu/Desktop/qemu/optee_os/lib/libmpa/mpa_mem_static.c:35
    31bc:	f9400040 	ldr	x0, [x2]
    31c0:	14001075 	b	7394 <mempool_free>
    31c4:	d65f03c0 	ret

00000000000031c8 <__mpa_mul_add_word>:
__mpa_mul_add_word():
/home/lagadanu/Desktop/qemu/optee_os/lib/libmpa/mpa_mul.c:32
    31c8:	b9400064 	ldr	w4, [x3]
    31cc:	9ba11000 	umaddl	x0, w0, w1, x4
/home/lagadanu/Desktop/qemu/optee_os/lib/libmpa/mpa_mul.c:33
    31d0:	b9000040 	str	w0, [x2]
/home/lagadanu/Desktop/qemu/optee_os/lib/libmpa/mpa_mul.c:34
    31d4:	d360fc00 	lsr	x0, x0, #32
    31d8:	b9000060 	str	w0, [x3]
    31dc:	d65f03c0 	ret

00000000000031e0 <__mpa_mul_add_word_cum>:
__mpa_mul_add_word_cum():
/home/lagadanu/Desktop/qemu/optee_os/lib/libmpa/mpa_mul.c:54
    31e0:	b9400044 	ldr	w4, [x2]
/home/lagadanu/Desktop/qemu/optee_os/lib/libmpa/mpa_mul.c:55
    31e4:	b9400065 	ldr	w5, [x3]
/home/lagadanu/Desktop/qemu/optee_os/lib/libmpa/mpa_mul.c:53
    31e8:	8b050084 	add	x4, x4, x5
    31ec:	9ba11000 	umaddl	x0, w0, w1, x4
/home/lagadanu/Desktop/qemu/optee_os/lib/libmpa/mpa_mul.c:56
    31f0:	b9000040 	str	w0, [x2]
/home/lagadanu/Desktop/qemu/optee_os/lib/libmpa/mpa_mul.c:57
    31f4:	d360fc00 	lsr	x0, x0, #32
    31f8:	b9000060 	str	w0, [x3]
    31fc:	d65f03c0 	ret

0000000000003200 <__mpa_abs_mul_word>:
__mpa_abs_mul_word():
/home/lagadanu/Desktop/qemu/optee_os/lib/libmpa/mpa_mul.c:73
    3200:	a9bd7bfd 	stp	x29, x30, [sp,#-48]!
    3204:	910003fd 	mov	x29, sp
    3208:	a9025bf5 	stp	x21, x22, [sp,#32]
    320c:	2a0203f6 	mov	w22, w2
/home/lagadanu/Desktop/qemu/optee_os/lib/libmpa/mpa_mul.c:80
    3210:	b9400002 	ldr	w2, [x0]
/home/lagadanu/Desktop/qemu/optee_os/lib/libmpa/mpa_mul.c:73
    3214:	aa0103f5 	mov	x21, x1
    3218:	a90153f3 	stp	x19, x20, [sp,#16]
/home/lagadanu/Desktop/qemu/optee_os/lib/libmpa/mpa_mul.c:80
    321c:	91002014 	add	x20, x0, #0x8
    3220:	52800001 	mov	w1, #0x0                   	// #0
/home/lagadanu/Desktop/qemu/optee_os/lib/libmpa/mpa_mul.c:73
    3224:	aa0003f3 	mov	x19, x0
/home/lagadanu/Desktop/qemu/optee_os/lib/libmpa/mpa_mul.c:80
    3228:	d37e7442 	ubfiz	x2, x2, #2, #30
    322c:	aa1403e0 	mov	x0, x20
    3230:	94000c57 	bl	638c <memset>
/home/lagadanu/Desktop/qemu/optee_os/lib/libmpa/mpa_mul.c:82
    3234:	910022a3 	add	x3, x21, #0x8
/home/lagadanu/Desktop/qemu/optee_os/lib/libmpa/mpa_mul.c:85
    3238:	d2800000 	mov	x0, #0x0                   	// #0
/home/lagadanu/Desktop/qemu/optee_os/lib/libmpa/mpa_mul.c:84
    323c:	52800001 	mov	w1, #0x0                   	// #0
/home/lagadanu/Desktop/qemu/optee_os/lib/libmpa/mpa_mul.c:85 (discriminator 1)
    3240:	b94006a2 	ldr	w2, [x21,#4]
    3244:	7100005f 	cmp	w2, #0x0
    3248:	5a82a442 	cneg	w2, w2, lt
    324c:	6b00005f 	cmp	w2, w0
    3250:	54000168 	b.hi	327c <__mpa_abs_mul_word+0x7c>
/home/lagadanu/Desktop/qemu/optee_os/lib/libmpa/mpa_mul.c:89
    3254:	b9000660 	str	w0, [x19,#4]
/home/lagadanu/Desktop/qemu/optee_os/lib/libmpa/mpa_mul.c:90
    3258:	340000a1 	cbz	w1, 326c <__mpa_abs_mul_word+0x6c>
/home/lagadanu/Desktop/qemu/optee_os/lib/libmpa/mpa_mul.c:91
    325c:	b8205a81 	str	w1, [x20,w0,uxtw #2]
/home/lagadanu/Desktop/qemu/optee_os/lib/libmpa/mpa_mul.c:92
    3260:	b9400660 	ldr	w0, [x19,#4]
    3264:	11000400 	add	w0, w0, #0x1
    3268:	b9000660 	str	w0, [x19,#4]
/home/lagadanu/Desktop/qemu/optee_os/lib/libmpa/mpa_mul.c:94
    326c:	a94153f3 	ldp	x19, x20, [sp,#16]
    3270:	a9425bf5 	ldp	x21, x22, [sp,#32]
    3274:	a8c37bfd 	ldp	x29, x30, [sp],#48
    3278:	d65f03c0 	ret
__mpa_mul_add_word():
/home/lagadanu/Desktop/qemu/optee_os/lib/libmpa/mpa_mul.c:32 (discriminator 3)
    327c:	b8607862 	ldr	w2, [x3,x0,lsl #2]
    3280:	2a0103e1 	mov	w1, w1
    3284:	9bb60441 	umaddl	x1, w2, w22, x1
/home/lagadanu/Desktop/qemu/optee_os/lib/libmpa/mpa_mul.c:33 (discriminator 3)
    3288:	b8205a81 	str	w1, [x20,w0,uxtw #2]
    328c:	91000400 	add	x0, x0, #0x1
/home/lagadanu/Desktop/qemu/optee_os/lib/libmpa/mpa_mul.c:34 (discriminator 3)
    3290:	d360fc21 	lsr	x1, x1, #32
    3294:	17ffffeb 	b	3240 <__mpa_abs_mul_word+0x40>

0000000000003298 <__mpa_abs_mul>:
__mpa_abs_mul():
/home/lagadanu/Desktop/qemu/optee_os/lib/libmpa/mpa_mul.c:104
    3298:	a9b97bfd 	stp	x29, x30, [sp,#-112]!
    329c:	910003fd 	mov	x29, sp
    32a0:	a90153f3 	stp	x19, x20, [sp,#16]
/home/lagadanu/Desktop/qemu/optee_os/lib/libmpa/mpa_mul.c:107
    32a4:	9101c3b4 	add	x20, x29, #0x70
/home/lagadanu/Desktop/qemu/optee_os/lib/libmpa/mpa_mul.c:104
    32a8:	a90573fb 	stp	x27, x28, [sp,#80]
/home/lagadanu/Desktop/qemu/optee_os/lib/libmpa/mpa_mul.c:118
    32ac:	9100205c 	add	x28, x2, #0x8
/home/lagadanu/Desktop/qemu/optee_os/lib/libmpa/mpa_mul.c:104
    32b0:	a90363f7 	stp	x23, x24, [sp,#48]
    32b4:	aa0203f7 	mov	x23, x2
/home/lagadanu/Desktop/qemu/optee_os/lib/libmpa/mpa_mul.c:113
    32b8:	b9400002 	ldr	w2, [x0]
/home/lagadanu/Desktop/qemu/optee_os/lib/libmpa/mpa_mul.c:104
    32bc:	aa0003f3 	mov	x19, x0
    32c0:	a9025bf5 	stp	x21, x22, [sp,#32]
    32c4:	aa0103f6 	mov	x22, x1
/home/lagadanu/Desktop/qemu/optee_os/lib/libmpa/mpa_mul.c:113
    32c8:	91002015 	add	x21, x0, #0x8
/home/lagadanu/Desktop/qemu/optee_os/lib/libmpa/mpa_mul.c:104
    32cc:	a9046bf9 	stp	x25, x26, [sp,#64]
/home/lagadanu/Desktop/qemu/optee_os/lib/libmpa/mpa_mul.c:113
    32d0:	d37e7442 	ubfiz	x2, x2, #2, #30
/home/lagadanu/Desktop/qemu/optee_os/lib/libmpa/mpa_mul.c:107
    32d4:	b81fce9f 	str	wzr, [x20,#-4]!
/home/lagadanu/Desktop/qemu/optee_os/lib/libmpa/mpa_mul.c:113
    32d8:	52800001 	mov	w1, #0x0                   	// #0
    32dc:	aa1503e0 	mov	x0, x21
/home/lagadanu/Desktop/qemu/optee_os/lib/libmpa/mpa_mul.c:115
    32e0:	910022db 	add	x27, x22, #0x8
/home/lagadanu/Desktop/qemu/optee_os/lib/libmpa/mpa_mul.c:113
    32e4:	94000c2a 	bl	638c <memset>
/home/lagadanu/Desktop/qemu/optee_os/lib/libmpa/mpa_mul.c:117
    32e8:	d2800019 	mov	x25, #0x0                   	// #0
/home/lagadanu/Desktop/qemu/optee_os/lib/libmpa/mpa_mul.c:106
    32ec:	52800002 	mov	w2, #0x0                   	// #0
/home/lagadanu/Desktop/qemu/optee_os/lib/libmpa/mpa_mul.c:117 (discriminator 1)
    32f0:	b94006c0 	ldr	w0, [x22,#4]
    32f4:	8b190aba 	add	x26, x21, x25, lsl #2
    32f8:	7100001f 	cmp	w0, #0x0
    32fc:	5a80a400 	cneg	w0, w0, lt
    3300:	6b00033f 	cmp	w25, w0
    3304:	540001c3 	b.cc	333c <__mpa_abs_mul+0xa4>
/home/lagadanu/Desktop/qemu/optee_os/lib/libmpa/mpa_mul.c:129
    3308:	0b020320 	add	w0, w25, w2
    330c:	51000401 	sub	w1, w0, #0x1
    3310:	b9000661 	str	w1, [x19,#4]
/home/lagadanu/Desktop/qemu/optee_os/lib/libmpa/mpa_mul.c:130
    3314:	b9406fa1 	ldr	w1, [x29,#108]
    3318:	34000041 	cbz	w1, 3320 <__mpa_abs_mul+0x88>
/home/lagadanu/Desktop/qemu/optee_os/lib/libmpa/mpa_mul.c:131
    331c:	b9000660 	str	w0, [x19,#4]
/home/lagadanu/Desktop/qemu/optee_os/lib/libmpa/mpa_mul.c:132
    3320:	a94153f3 	ldp	x19, x20, [sp,#16]
    3324:	a9425bf5 	ldp	x21, x22, [sp,#32]
    3328:	a94363f7 	ldp	x23, x24, [sp,#48]
    332c:	a9446bf9 	ldp	x25, x26, [sp,#64]
    3330:	a94573fb 	ldp	x27, x28, [sp,#80]
    3334:	a8c77bfd 	ldp	x29, x30, [sp],#112
    3338:	d65f03c0 	ret
/home/lagadanu/Desktop/qemu/optee_os/lib/libmpa/mpa_mul.c:120
    333c:	d2800018 	mov	x24, #0x0                   	// #0
/home/lagadanu/Desktop/qemu/optee_os/lib/libmpa/mpa_mul.c:119
    3340:	b9006fbf 	str	wzr, [x29,#108]
/home/lagadanu/Desktop/qemu/optee_os/lib/libmpa/mpa_mul.c:120 (discriminator 1)
    3344:	b94006e0 	ldr	w0, [x23,#4]
    3348:	2a1803e2 	mov	w2, w24
    334c:	7100001f 	cmp	w0, #0x0
    3350:	5a80a400 	cneg	w0, w0, lt
    3354:	6b00031f 	cmp	w24, w0
    3358:	540000c3 	b.cc	3370 <__mpa_abs_mul+0xd8>
/home/lagadanu/Desktop/qemu/optee_os/lib/libmpa/mpa_mul.c:124
    335c:	b9406fa0 	ldr	w0, [x29,#108]
    3360:	34000040 	cbz	w0, 3368 <__mpa_abs_mul+0xd0>
/home/lagadanu/Desktop/qemu/optee_os/lib/libmpa/mpa_mul.c:125
    3364:	b8385b40 	str	w0, [x26,w24,uxtw #2]
    3368:	91000739 	add	x25, x25, #0x1
    336c:	17ffffe1 	b	32f0 <__mpa_abs_mul+0x58>
/home/lagadanu/Desktop/qemu/optee_os/lib/libmpa/mpa_mul.c:121 (discriminator 3)
    3370:	b8787b81 	ldr	w1, [x28,x24,lsl #2]
    3374:	8b384b42 	add	x2, x26, w24, uxtw #2
    3378:	b8797b60 	ldr	w0, [x27,x25,lsl #2]
    337c:	aa1403e3 	mov	x3, x20
    3380:	91000718 	add	x24, x24, #0x1
    3384:	97ffff97 	bl	31e0 <__mpa_mul_add_word_cum>
    3388:	17ffffef 	b	3344 <__mpa_abs_mul+0xac>

000000000000338c <mpa_mul>:
mpa_mul():
/home/lagadanu/Desktop/qemu/optee_os/lib/libmpa/mpa_mul.c:147
    338c:	a9bb7bfd 	stp	x29, x30, [sp,#-80]!
    3390:	910003fd 	mov	x29, sp
    3394:	a90153f3 	stp	x19, x20, [sp,#16]
    3398:	aa0003f3 	mov	x19, x0
/home/lagadanu/Desktop/qemu/optee_os/lib/libmpa/mpa_mul.c:151
    339c:	b9400420 	ldr	w0, [x1,#4]
/home/lagadanu/Desktop/qemu/optee_os/lib/libmpa/mpa_mul.c:147
    33a0:	a9025bf5 	stp	x21, x22, [sp,#32]
    33a4:	f9001bf7 	str	x23, [sp,#48]
/home/lagadanu/Desktop/qemu/optee_os/lib/libmpa/mpa_mul.c:151
    33a8:	34000080 	cbz	w0, 33b8 <mpa_mul+0x2c>
/home/lagadanu/Desktop/qemu/optee_os/lib/libmpa/mpa_mul.c:151 (discriminator 1)
    33ac:	b9400440 	ldr	w0, [x2,#4]
    33b0:	aa0203f5 	mov	x21, x2
    33b4:	35000120 	cbnz	w0, 33d8 <mpa_mul+0x4c>
/home/lagadanu/Desktop/qemu/optee_os/lib/libmpa/mpa_mul.c:152
    33b8:	52800001 	mov	w1, #0x0                   	// #0
    33bc:	aa1303e0 	mov	x0, x19
    33c0:	97fffaf7 	bl	1f9c <mpa_set_word>
/home/lagadanu/Desktop/qemu/optee_os/lib/libmpa/mpa_mul.c:171
    33c4:	a94153f3 	ldp	x19, x20, [sp,#16]
    33c8:	a9425bf5 	ldp	x21, x22, [sp,#32]
    33cc:	f9401bf7 	ldr	x23, [sp,#48]
    33d0:	a8c57bfd 	ldp	x29, x30, [sp],#80
    33d4:	d65f03c0 	ret
/home/lagadanu/Desktop/qemu/optee_os/lib/libmpa/mpa_mul.c:157
    33d8:	eb13003f 	cmp	x1, x19
    33dc:	aa0103f6 	mov	x22, x1
    33e0:	1a9f17f4 	cset	w20, eq
    33e4:	eb13005f 	cmp	x2, x19
    33e8:	1a9f17e0 	cset	w0, eq
    33ec:	aa0303f7 	mov	x23, x3
    33f0:	2a000294 	orr	w20, w20, w0
/home/lagadanu/Desktop/qemu/optee_os/lib/libmpa/mpa_mul.c:158
    33f4:	340003b4 	cbz	w20, 3468 <mpa_mul+0xdc>
/home/lagadanu/Desktop/qemu/optee_os/lib/libmpa/mpa_mul.c:159
    33f8:	aa0303e1 	mov	x1, x3
    33fc:	910123a0 	add	x0, x29, #0x48
    3400:	97ffff67 	bl	319c <mpa_alloc_static_temp_var>
/home/lagadanu/Desktop/qemu/optee_os/lib/libmpa/mpa_mul.c:163
    3404:	f94027a0 	ldr	x0, [x29,#72]
    3408:	aa1503e2 	mov	x2, x21
    340c:	aa1603e1 	mov	x1, x22
    3410:	97ffffa2 	bl	3298 <__mpa_abs_mul>
/home/lagadanu/Desktop/qemu/optee_os/lib/libmpa/mpa_mul.c:165
    3414:	b94006c1 	ldr	w1, [x22,#4]
    3418:	12800000 	mov	w0, #0xffffffff            	// #-1
    341c:	b94006a2 	ldr	w2, [x21,#4]
    3420:	6b00003f 	cmp	w1, w0
    3424:	5a80d401 	cneg	w1, w0, gt
    3428:	6b00005f 	cmp	w2, w0
    342c:	5a80d400 	cneg	w0, w0, gt
    3430:	6b00003f 	cmp	w1, w0
    3434:	540000a0 	b.eq	3448 <mpa_mul+0xbc>
/home/lagadanu/Desktop/qemu/optee_os/lib/libmpa/mpa_mul.c:166
    3438:	f94027a1 	ldr	x1, [x29,#72]
    343c:	b9400420 	ldr	w0, [x1,#4]
    3440:	4b0003e0 	neg	w0, w0
    3444:	b9000420 	str	w0, [x1,#4]
/home/lagadanu/Desktop/qemu/optee_os/lib/libmpa/mpa_mul.c:168
    3448:	f94027a1 	ldr	x1, [x29,#72]
    344c:	aa1303e0 	mov	x0, x19
    3450:	97fff874 	bl	1620 <mpa_copy>
/home/lagadanu/Desktop/qemu/optee_os/lib/libmpa/mpa_mul.c:169
    3454:	34fffb94 	cbz	w20, 33c4 <mpa_mul+0x38>
/home/lagadanu/Desktop/qemu/optee_os/lib/libmpa/mpa_mul.c:170
    3458:	aa1703e1 	mov	x1, x23
    345c:	910123a0 	add	x0, x29, #0x48
    3460:	97ffff53 	bl	31ac <mpa_free_static_temp_var>
    3464:	17ffffd8 	b	33c4 <mpa_mul+0x38>
/home/lagadanu/Desktop/qemu/optee_os/lib/libmpa/mpa_mul.c:161
    3468:	f90027b3 	str	x19, [x29,#72]
    346c:	17ffffe6 	b	3404 <mpa_mul+0x78>

0000000000003470 <mpa_mul_word>:
mpa_mul_word():
/home/lagadanu/Desktop/qemu/optee_os/lib/libmpa/mpa_mul.c:180
    3470:	a9bb7bfd 	stp	x29, x30, [sp,#-80]!
    3474:	910003fd 	mov	x29, sp
    3478:	a90153f3 	stp	x19, x20, [sp,#16]
    347c:	aa0103f4 	mov	x20, x1
/home/lagadanu/Desktop/qemu/optee_os/lib/libmpa/mpa_mul.c:185
    3480:	b9400421 	ldr	w1, [x1,#4]
/home/lagadanu/Desktop/qemu/optee_os/lib/libmpa/mpa_mul.c:180
    3484:	a9025bf5 	stp	x21, x22, [sp,#32]
    3488:	f9001bf7 	str	x23, [sp,#48]
/home/lagadanu/Desktop/qemu/optee_os/lib/libmpa/mpa_mul.c:185
    348c:	7100003f 	cmp	w1, #0x0
    3490:	7a401844 	ccmp	w2, #0x0, #0x4, ne
    3494:	54000101 	b.ne	34b4 <mpa_mul_word+0x44>
/home/lagadanu/Desktop/qemu/optee_os/lib/libmpa/mpa_mul.c:186
    3498:	52800001 	mov	w1, #0x0                   	// #0
    349c:	97fffac0 	bl	1f9c <mpa_set_word>
/home/lagadanu/Desktop/qemu/optee_os/lib/libmpa/mpa_mul.c:206
    34a0:	a94153f3 	ldp	x19, x20, [sp,#16]
    34a4:	a9425bf5 	ldp	x21, x22, [sp,#32]
    34a8:	f9401bf7 	ldr	x23, [sp,#48]
    34ac:	a8c57bfd 	ldp	x29, x30, [sp],#80
    34b0:	d65f03c0 	ret
    34b4:	aa0003f3 	mov	x19, x0
/home/lagadanu/Desktop/qemu/optee_os/lib/libmpa/mpa_mul.c:190
    34b8:	12800000 	mov	w0, #0xffffffff            	// #-1
    34bc:	6b00003f 	cmp	w1, w0
    34c0:	2a0203f7 	mov	w23, w2
    34c4:	5a80d415 	cneg	w21, w0, gt
    34c8:	aa0303f6 	mov	x22, x3
/home/lagadanu/Desktop/qemu/optee_os/lib/libmpa/mpa_mul.c:194
    34cc:	eb13029f 	cmp	x20, x19
    34d0:	540002e1 	b.ne	352c <mpa_mul_word+0xbc>
/home/lagadanu/Desktop/qemu/optee_os/lib/libmpa/mpa_mul.c:195
    34d4:	aa0303e1 	mov	x1, x3
    34d8:	910123a0 	add	x0, x29, #0x48
    34dc:	97ffff30 	bl	319c <mpa_alloc_static_temp_var>
/home/lagadanu/Desktop/qemu/optee_os/lib/libmpa/mpa_mul.c:199
    34e0:	f94027a0 	ldr	x0, [x29,#72]
    34e4:	2a1703e2 	mov	w2, w23
    34e8:	aa1403e1 	mov	x1, x20
    34ec:	97ffff45 	bl	3200 <__mpa_abs_mul_word>
/home/lagadanu/Desktop/qemu/optee_os/lib/libmpa/mpa_mul.c:201
    34f0:	310006bf 	cmn	w21, #0x1
    34f4:	540000a1 	b.ne	3508 <mpa_mul_word+0x98>
/home/lagadanu/Desktop/qemu/optee_os/lib/libmpa/mpa_mul.c:202
    34f8:	f94027a1 	ldr	x1, [x29,#72]
    34fc:	b9400420 	ldr	w0, [x1,#4]
    3500:	4b0003e0 	neg	w0, w0
    3504:	b9000420 	str	w0, [x1,#4]
/home/lagadanu/Desktop/qemu/optee_os/lib/libmpa/mpa_mul.c:203
    3508:	f94027a1 	ldr	x1, [x29,#72]
    350c:	aa1303e0 	mov	x0, x19
    3510:	97fff844 	bl	1620 <mpa_copy>
/home/lagadanu/Desktop/qemu/optee_os/lib/libmpa/mpa_mul.c:204
    3514:	eb13029f 	cmp	x20, x19
    3518:	54fffc41 	b.ne	34a0 <mpa_mul_word+0x30>
/home/lagadanu/Desktop/qemu/optee_os/lib/libmpa/mpa_mul.c:205
    351c:	aa1603e1 	mov	x1, x22
    3520:	910123a0 	add	x0, x29, #0x48
    3524:	97ffff22 	bl	31ac <mpa_free_static_temp_var>
    3528:	17ffffde 	b	34a0 <mpa_mul_word+0x30>
/home/lagadanu/Desktop/qemu/optee_os/lib/libmpa/mpa_mul.c:197
    352c:	f90027b3 	str	x19, [x29,#72]
    3530:	17ffffec 	b	34e0 <mpa_mul_word+0x70>

0000000000003534 <mpa_get_random>:
mpa_get_random():
/home/lagadanu/Desktop/qemu/optee_os/lib/libmpa/mpa_random.c:43
    3534:	a9ba7bfd 	stp	x29, x30, [sp,#-96]!
    3538:	910003fd 	mov	x29, sp
    353c:	a9025bf5 	stp	x21, x22, [sp,#32]
    3540:	aa0103f5 	mov	x21, x1
    3544:	a90153f3 	stp	x19, x20, [sp,#16]
    3548:	aa0003f4 	mov	x20, x0
    354c:	a90363f7 	stp	x23, x24, [sp,#48]
get_rng_array():
/home/lagadanu/Desktop/qemu/optee_os/lib/libmpa/mpa_random.c:24
    3550:	91017fb7 	add	x23, x29, #0x5f
mpa_get_random():
/home/lagadanu/Desktop/qemu/optee_os/lib/libmpa/mpa_random.c:43
    3554:	f90023f9 	str	x25, [sp,#64]
/home/lagadanu/Desktop/qemu/optee_os/lib/libmpa/mpa_random.c:46
    3558:	97fff826 	bl	15f0 <mpa_wipe>
/home/lagadanu/Desktop/qemu/optee_os/lib/libmpa/mpa_random.c:47
    355c:	b94006a0 	ldr	w0, [x21,#4]
    3560:	52800013 	mov	w19, #0x0                   	// #0
    3564:	b9400281 	ldr	w1, [x20]
    3568:	7100001f 	cmp	w0, #0x0
    356c:	5a80a400 	cneg	w0, w0, lt
/home/lagadanu/Desktop/qemu/optee_os/lib/libmpa/mpa_random.c:48
    3570:	6b00003f 	cmp	w1, w0
    3574:	1a812000 	csel	w0, w0, w1, cs
    3578:	b9000680 	str	w0, [x20,#4]
/home/lagadanu/Desktop/qemu/optee_os/lib/libmpa/mpa_random.c:51
    357c:	35000573 	cbnz	w19, 3628 <mpa_get_random+0xf4>
    3580:	91002299 	add	x25, x20, #0x8
    3584:	1400000e 	b	35bc <mpa_get_random+0x88>
    3588:	52800098 	mov	w24, #0x4                   	// #4
    358c:	52800000 	mov	w0, #0x0                   	// #0
/home/lagadanu/Desktop/qemu/optee_os/lib/libmpa/mpa_random.c:55 (discriminator 3)
    3590:	53185c16 	lsl	w22, w0, #8
get_rng_array():
/home/lagadanu/Desktop/qemu/optee_os/lib/libmpa/mpa_random.c:24
    3594:	d2800021 	mov	x1, #0x1                   	// #1
    3598:	aa1703e0 	mov	x0, x23
    359c:	97fff580 	bl	b9c <utee_cryp_random_number_generate>
get_random_byte():
/home/lagadanu/Desktop/qemu/optee_os/lib/libmpa/mpa_random.c:31
    35a0:	35ffffa0 	cbnz	w0, 3594 <mpa_get_random+0x60>
/home/lagadanu/Desktop/qemu/optee_os/lib/libmpa/mpa_random.c:34
    35a4:	39417fa0 	ldrb	w0, [x29,#95]
mpa_get_random():
/home/lagadanu/Desktop/qemu/optee_os/lib/libmpa/mpa_random.c:54
    35a8:	71000718 	subs	w24, w24, #0x1
/home/lagadanu/Desktop/qemu/optee_os/lib/libmpa/mpa_random.c:55
    35ac:	4a160000 	eor	w0, w0, w22
/home/lagadanu/Desktop/qemu/optee_os/lib/libmpa/mpa_random.c:54
    35b0:	54ffff01 	b.ne	3590 <mpa_get_random+0x5c>
/home/lagadanu/Desktop/qemu/optee_os/lib/libmpa/mpa_random.c:52 (discriminator 2)
    35b4:	11000673 	add	w19, w19, #0x1
/home/lagadanu/Desktop/qemu/optee_os/lib/libmpa/mpa_random.c:56 (discriminator 2)
    35b8:	b8004720 	str	w0, [x25],#4
/home/lagadanu/Desktop/qemu/optee_os/lib/libmpa/mpa_random.c:52 (discriminator 1)
    35bc:	b9400681 	ldr	w1, [x20,#4]
    35c0:	6b01027f 	cmp	w19, w1
    35c4:	54fffe2b 	b.lt	3588 <mpa_get_random+0x54>
/home/lagadanu/Desktop/qemu/optee_os/lib/libmpa/mpa_random.c:58
    35c8:	b94006a0 	ldr	w0, [x21,#4]
/home/lagadanu/Desktop/qemu/optee_os/lib/libmpa/mpa_random.c:59
    35cc:	52800033 	mov	w19, #0x1                   	// #1
/home/lagadanu/Desktop/qemu/optee_os/lib/libmpa/mpa_random.c:58
    35d0:	7100001f 	cmp	w0, #0x0
    35d4:	5a80a400 	cneg	w0, w0, lt
    35d8:	6b00003f 	cmp	w1, w0
    35dc:	5400026b 	b.lt	3628 <mpa_get_random+0xf4>
/home/lagadanu/Desktop/qemu/optee_os/lib/libmpa/mpa_random.c:62
    35e0:	aa1503e0 	mov	x0, x21
    35e4:	97fff830 	bl	16a4 <mpa_highest_bit_index>
/home/lagadanu/Desktop/qemu/optee_os/lib/libmpa/mpa_random.c:64
    35e8:	12001000 	and	w0, w0, #0x1f
    35ec:	0b130000 	add	w0, w0, w19
/home/lagadanu/Desktop/qemu/optee_os/lib/libmpa/mpa_random.c:65
    35f0:	7100801f 	cmp	w0, #0x20
    35f4:	54000100 	b.eq	3614 <mpa_get_random+0xe0>
/home/lagadanu/Desktop/qemu/optee_os/lib/libmpa/mpa_random.c:66
    35f8:	1ac02273 	lsl	w19, w19, w0
    35fc:	b9800680 	ldrsw	x0, [x20,#4]
    3600:	51000673 	sub	w19, w19, #0x1
    3604:	8b000a80 	add	x0, x20, x0, lsl #2
/home/lagadanu/Desktop/qemu/optee_os/lib/libmpa/mpa_random.c:67
    3608:	b9400401 	ldr	w1, [x0,#4]
    360c:	0a130033 	and	w19, w1, w19
    3610:	b9000413 	str	w19, [x0,#4]
/home/lagadanu/Desktop/qemu/optee_os/lib/libmpa/mpa_random.c:69
    3614:	aa1503e1 	mov	x1, x21
    3618:	aa1403e0 	mov	x0, x20
    361c:	9400038c 	bl	444c <mpa_cmp>
    3620:	531f7c13 	lsr	w19, w0, #31
    3624:	17ffffd6 	b	357c <mpa_get_random+0x48>
/home/lagadanu/Desktop/qemu/optee_os/lib/libmpa/mpa_random.c:72
    3628:	a94153f3 	ldp	x19, x20, [sp,#16]
    362c:	a9425bf5 	ldp	x21, x22, [sp,#32]
    3630:	a94363f7 	ldp	x23, x24, [sp,#48]
    3634:	f94023f9 	ldr	x25, [sp,#64]
    3638:	a8c67bfd 	ldp	x29, x30, [sp],#96
    363c:	d65f03c0 	ret

0000000000003640 <mpa_get_random_digits>:
mpa_get_random_digits():
/home/lagadanu/Desktop/qemu/optee_os/lib/libmpa/mpa_random.c:75
    3640:	a9be7bfd 	stp	x29, x30, [sp,#-32]!
    3644:	910003fd 	mov	x29, sp
    3648:	a90153f3 	stp	x19, x20, [sp,#16]
    364c:	aa0003f4 	mov	x20, x0
    3650:	2a0103f3 	mov	w19, w1
/home/lagadanu/Desktop/qemu/optee_os/lib/libmpa/mpa_random.c:76
    3654:	97fff7e7 	bl	15f0 <mpa_wipe>
/home/lagadanu/Desktop/qemu/optee_os/lib/libmpa/mpa_random.c:78
    3658:	b9400280 	ldr	w0, [x20]
    365c:	6b13001f 	cmp	w0, w19
    3660:	540000a2 	b.cs	3674 <mpa_get_random_digits+0x34>
/home/lagadanu/Desktop/qemu/optee_os/lib/libmpa/mpa_random.c:79
    3664:	52800000 	mov	w0, #0x0                   	// #0
/home/lagadanu/Desktop/qemu/optee_os/lib/libmpa/mpa_random.c:87
    3668:	a94153f3 	ldp	x19, x20, [sp,#16]
    366c:	a8c27bfd 	ldp	x29, x30, [sp],#32
    3670:	d65f03c0 	ret
/home/lagadanu/Desktop/qemu/optee_os/lib/libmpa/mpa_random.c:83
    3674:	7100027f 	cmp	w19, #0x0
/home/lagadanu/Desktop/qemu/optee_os/lib/libmpa/mpa_random.c:81
    3678:	b9000693 	str	w19, [x20,#4]
/home/lagadanu/Desktop/qemu/optee_os/lib/libmpa/mpa_random.c:83
    367c:	5a93a673 	cneg	w19, w19, lt
get_rng_array():
/home/lagadanu/Desktop/qemu/optee_os/lib/libmpa/mpa_random.c:24
    3680:	91002280 	add	x0, x20, #0x8
mpa_get_random_digits():
/home/lagadanu/Desktop/qemu/optee_os/lib/libmpa/mpa_random.c:83
    3684:	531e7661 	lsl	w1, w19, #2
get_rng_array():
/home/lagadanu/Desktop/qemu/optee_os/lib/libmpa/mpa_random.c:24
    3688:	93407c21 	sxtw	x1, w1
    368c:	97fff544 	bl	b9c <utee_cryp_random_number_generate>
mpa_get_random_digits():
/home/lagadanu/Desktop/qemu/optee_os/lib/libmpa/mpa_random.c:83
    3690:	35fffea0 	cbnz	w0, 3664 <mpa_get_random_digits+0x24>
/home/lagadanu/Desktop/qemu/optee_os/lib/libmpa/mpa_random.c:86
    3694:	b9400680 	ldr	w0, [x20,#4]
    3698:	7100001f 	cmp	w0, #0x0
    369c:	5a80a400 	cneg	w0, w0, lt
    36a0:	17fffff2 	b	3668 <mpa_get_random_digits+0x28>

00000000000036a4 <__mpa_shift_words_left>:
__mpa_shift_words_left():
/home/lagadanu/Desktop/qemu/optee_os/lib/libmpa/mpa_shift.c:22
    36a4:	340004a1 	cbz	w1, 3738 <__mpa_shift_words_left+0x94>
/home/lagadanu/Desktop/qemu/optee_os/lib/libmpa/mpa_shift.c:19 (discriminator 1)
    36a8:	a9bd7bfd 	stp	x29, x30, [sp,#-48]!
    36ac:	910003fd 	mov	x29, sp
    36b0:	f90013f5 	str	x21, [sp,#32]
    36b4:	a90153f3 	stp	x19, x20, [sp,#16]
/home/lagadanu/Desktop/qemu/optee_os/lib/libmpa/mpa_shift.c:22 (discriminator 1)
    36b8:	b9400415 	ldr	w21, [x0,#4]
    36bc:	710002bf 	cmp	w21, #0x0
    36c0:	54000280 	b.eq	3710 <__mpa_shift_words_left+0x6c>
    36c4:	51000425 	sub	w5, w1, #0x1
/home/lagadanu/Desktop/qemu/optee_os/lib/libmpa/mpa_shift.c:24
    36c8:	5a95a6a2 	cneg	w2, w21, lt
    36cc:	0b050042 	add	w2, w2, w5
    36d0:	d37e7c43 	ubfiz	x3, x2, #2, #32
    36d4:	91002063 	add	x3, x3, #0x8
    36d8:	8b030003 	add	x3, x0, x3
/home/lagadanu/Desktop/qemu/optee_os/lib/libmpa/mpa_shift.c:24 (discriminator 1)
    36dc:	6b05005f 	cmp	w2, w5
    36e0:	54000208 	b.hi	3720 <__mpa_shift_words_left+0x7c>
    36e4:	2a0103f3 	mov	w19, w1
    36e8:	aa0003f4 	mov	x20, x0
/home/lagadanu/Desktop/qemu/optee_os/lib/libmpa/mpa_shift.c:27
    36ec:	52800001 	mov	w1, #0x0                   	// #0
    36f0:	d37e7662 	ubfiz	x2, x19, #2, #30
    36f4:	91002000 	add	x0, x0, #0x8
    36f8:	94000b25 	bl	638c <memset>
/home/lagadanu/Desktop/qemu/optee_os/lib/libmpa/mpa_shift.c:31
    36fc:	4b1302a0 	sub	w0, w21, w19
    3700:	0b1302a1 	add	w1, w21, w19
    3704:	710002bf 	cmp	w21, #0x0
    3708:	1a80c021 	csel	w1, w1, w0, gt
    370c:	b9000681 	str	w1, [x20,#4]
/home/lagadanu/Desktop/qemu/optee_os/lib/libmpa/mpa_shift.c:34
    3710:	a94153f3 	ldp	x19, x20, [sp,#16]
    3714:	f94013f5 	ldr	x21, [sp,#32]
    3718:	a8c37bfd 	ldp	x29, x30, [sp],#48
    371c:	d65f03c0 	ret
/home/lagadanu/Desktop/qemu/optee_os/lib/libmpa/mpa_shift.c:25 (discriminator 3)
    3720:	4b010044 	sub	w4, w2, w1
/home/lagadanu/Desktop/qemu/optee_os/lib/libmpa/mpa_shift.c:24 (discriminator 3)
    3724:	51000442 	sub	w2, w2, #0x1
/home/lagadanu/Desktop/qemu/optee_os/lib/libmpa/mpa_shift.c:25 (discriminator 3)
    3728:	8b040804 	add	x4, x0, x4, lsl #2
    372c:	b9400884 	ldr	w4, [x4,#8]
    3730:	b81fc464 	str	w4, [x3],#-4
    3734:	17ffffea 	b	36dc <__mpa_shift_words_left+0x38>
    3738:	d65f03c0 	ret

000000000000373c <__mpa_shift_words_right>:
__mpa_shift_words_right():
/home/lagadanu/Desktop/qemu/optee_os/lib/libmpa/mpa_shift.c:42
    373c:	aa0003e3 	mov	x3, x0
/home/lagadanu/Desktop/qemu/optee_os/lib/libmpa/mpa_shift.c:45
    3740:	34000201 	cbz	w1, 3780 <__mpa_shift_words_right+0x44>
/home/lagadanu/Desktop/qemu/optee_os/lib/libmpa/mpa_shift.c:45 (discriminator 1)
    3744:	b9400402 	ldr	w2, [x0,#4]
    3748:	7100005f 	cmp	w2, #0x0
    374c:	540001a0 	b.eq	3780 <__mpa_shift_words_right+0x44>
/home/lagadanu/Desktop/qemu/optee_os/lib/libmpa/mpa_shift.c:48
    3750:	5a82a444 	cneg	w4, w2, lt
    3754:	6b04003f 	cmp	w1, w4
    3758:	54000162 	b.cs	3784 <__mpa_shift_words_right+0x48>
    375c:	91002005 	add	x5, x0, #0x8
    3760:	2a0103e0 	mov	w0, w1
/home/lagadanu/Desktop/qemu/optee_os/lib/libmpa/mpa_shift.c:53 (discriminator 1)
    3764:	6b04001f 	cmp	w0, w4
    3768:	54000121 	b.ne	378c <__mpa_shift_words_right+0x50>
/home/lagadanu/Desktop/qemu/optee_os/lib/libmpa/mpa_shift.c:58
    376c:	0b010040 	add	w0, w2, w1
    3770:	7100005f 	cmp	w2, #0x0
    3774:	4b010041 	sub	w1, w2, w1
    3778:	1a80c021 	csel	w1, w1, w0, gt
    377c:	b9000461 	str	w1, [x3,#4]
    3780:	d65f03c0 	ret
/home/lagadanu/Desktop/qemu/optee_os/lib/libmpa/mpa_shift.c:49
    3784:	52800001 	mov	w1, #0x0                   	// #0
    3788:	17fffa05 	b	1f9c <mpa_set_word>
/home/lagadanu/Desktop/qemu/optee_os/lib/libmpa/mpa_shift.c:54 (discriminator 3)
    378c:	8b204866 	add	x6, x3, w0, uxtw #2
    3790:	11000400 	add	w0, w0, #0x1
    3794:	b94008c6 	ldr	w6, [x6,#8]
    3798:	b80044a6 	str	w6, [x5],#4
    379c:	17fffff2 	b	3764 <__mpa_shift_words_right+0x28>

00000000000037a0 <mpa_shift_left>:
mpa_shift_left():
/home/lagadanu/Desktop/qemu/optee_os/lib/libmpa/mpa_shift.c:76
    37a0:	a9bd7bfd 	stp	x29, x30, [sp,#-48]!
    37a4:	910003fd 	mov	x29, sp
    37a8:	a90153f3 	stp	x19, x20, [sp,#16]
    37ac:	aa0003f3 	mov	x19, x0
    37b0:	a9025bf5 	stp	x21, x22, [sp,#32]
    37b4:	2a0203f6 	mov	w22, w2
/home/lagadanu/Desktop/qemu/optee_os/lib/libmpa/mpa_shift.c:88
    37b8:	97fff79a 	bl	1620 <mpa_copy>
/home/lagadanu/Desktop/qemu/optee_os/lib/libmpa/mpa_shift.c:89
    37bc:	aa1303e0 	mov	x0, x19
    37c0:	97fff783 	bl	15cc <__mpa_set_unused_digits_to_zero>
/home/lagadanu/Desktop/qemu/optee_os/lib/libmpa/mpa_shift.c:90
    37c4:	34000316 	cbz	w22, 3824 <mpa_shift_left+0x84>
/home/lagadanu/Desktop/qemu/optee_os/lib/libmpa/mpa_shift.c:90 (discriminator 1)
    37c8:	b9400674 	ldr	w20, [x19,#4]
    37cc:	340002d4 	cbz	w20, 3824 <mpa_shift_left+0x84>
/home/lagadanu/Desktop/qemu/optee_os/lib/libmpa/mpa_shift.c:94
    37d0:	53057ed5 	lsr	w21, w22, #5
/home/lagadanu/Desktop/qemu/optee_os/lib/libmpa/mpa_shift.c:110
    37d4:	720012d6 	ands	w22, w22, #0x1f
    37d8:	540003a1 	b.ne	384c <mpa_shift_left+0xac>
/home/lagadanu/Desktop/qemu/optee_os/lib/libmpa/mpa_shift.c:114
    37dc:	7100029f 	cmp	w20, #0x0
    37e0:	510006a3 	sub	w3, w21, #0x1
    37e4:	5a94a680 	cneg	w0, w20, lt
    37e8:	0b030000 	add	w0, w0, w3
    37ec:	d37e7c01 	ubfiz	x1, x0, #2, #32
    37f0:	91002021 	add	x1, x1, #0x8
    37f4:	8b010261 	add	x1, x19, x1
/home/lagadanu/Desktop/qemu/optee_os/lib/libmpa/mpa_shift.c:114 (discriminator 1)
    37f8:	6b03001f 	cmp	w0, w3
    37fc:	540001c8 	b.hi	3834 <mpa_shift_left+0x94>
/home/lagadanu/Desktop/qemu/optee_os/lib/libmpa/mpa_shift.c:140
    3800:	d37e6aa2 	ubfiz	x2, x21, #2, #27
    3804:	52800001 	mov	w1, #0x0                   	// #0
    3808:	91002260 	add	x0, x19, #0x8
    380c:	94000ae0 	bl	638c <memset>
/home/lagadanu/Desktop/qemu/optee_os/lib/libmpa/mpa_shift.c:142
    3810:	7100029f 	cmp	w20, #0x0
    3814:	5400088d 	b.le	3924 <mpa_shift_left+0x184>
/home/lagadanu/Desktop/qemu/optee_os/lib/libmpa/mpa_shift.c:143
    3818:	0b150294 	add	w20, w20, w21
    381c:	0b160294 	add	w20, w20, w22
/home/lagadanu/Desktop/qemu/optee_os/lib/libmpa/mpa_shift.c:145
    3820:	b9000674 	str	w20, [x19,#4]
/home/lagadanu/Desktop/qemu/optee_os/lib/libmpa/mpa_shift.c:146
    3824:	a94153f3 	ldp	x19, x20, [sp,#16]
    3828:	a9425bf5 	ldp	x21, x22, [sp,#32]
    382c:	a8c37bfd 	ldp	x29, x30, [sp],#48
    3830:	d65f03c0 	ret
/home/lagadanu/Desktop/qemu/optee_os/lib/libmpa/mpa_shift.c:115 (discriminator 3)
    3834:	4b150002 	sub	w2, w0, w21
/home/lagadanu/Desktop/qemu/optee_os/lib/libmpa/mpa_shift.c:114 (discriminator 3)
    3838:	51000400 	sub	w0, w0, #0x1
/home/lagadanu/Desktop/qemu/optee_os/lib/libmpa/mpa_shift.c:115 (discriminator 3)
    383c:	8b020a62 	add	x2, x19, x2, lsl #2
    3840:	b9400842 	ldr	w2, [x2,#8]
    3844:	b81fc422 	str	w2, [x1],#-4
    3848:	17ffffec 	b	37f8 <mpa_shift_left+0x58>
/home/lagadanu/Desktop/qemu/optee_os/lib/libmpa/mpa_shift.c:117
    384c:	7100029f 	cmp	w20, #0x0
/home/lagadanu/Desktop/qemu/optee_os/lib/libmpa/mpa_shift.c:118
    3850:	52800021 	mov	w1, #0x1                   	// #1
/home/lagadanu/Desktop/qemu/optee_os/lib/libmpa/mpa_shift.c:117
    3854:	5a94a680 	cneg	w0, w20, lt
/home/lagadanu/Desktop/qemu/optee_os/lib/libmpa/mpa_shift.c:118
    3858:	52800403 	mov	w3, #0x20                  	// #32
/home/lagadanu/Desktop/qemu/optee_os/lib/libmpa/mpa_shift.c:117
    385c:	51000402 	sub	w2, w0, #0x1
/home/lagadanu/Desktop/qemu/optee_os/lib/libmpa/mpa_shift.c:118
    3860:	4b160063 	sub	w3, w3, w22
/home/lagadanu/Desktop/qemu/optee_os/lib/libmpa/mpa_shift.c:117
    3864:	8b22ca62 	add	x2, x19, w2, sxtw #2
/home/lagadanu/Desktop/qemu/optee_os/lib/libmpa/mpa_shift.c:118
    3868:	1ad62021 	lsl	w1, w1, w22
    386c:	51000421 	sub	w1, w1, #0x1
/home/lagadanu/Desktop/qemu/optee_os/lib/libmpa/mpa_shift.c:126
    3870:	0b150000 	add	w0, w0, w21
/home/lagadanu/Desktop/qemu/optee_os/lib/libmpa/mpa_shift.c:117
    3874:	b9400842 	ldr	w2, [x2,#8]
/home/lagadanu/Desktop/qemu/optee_os/lib/libmpa/mpa_shift.c:118
    3878:	1ac32021 	lsl	w1, w1, w3
/home/lagadanu/Desktop/qemu/optee_os/lib/libmpa/mpa_shift.c:117
    387c:	6a020021 	ands	w1, w1, w2
    3880:	1a9f07e6 	cset	w6, ne
/home/lagadanu/Desktop/qemu/optee_os/lib/libmpa/mpa_shift.c:126
    3884:	0b060000 	add	w0, w0, w6
/home/lagadanu/Desktop/qemu/optee_os/lib/libmpa/mpa_shift.c:127
    3888:	34000141 	cbz	w1, 38b0 <mpa_shift_left+0x110>
/home/lagadanu/Desktop/qemu/optee_os/lib/libmpa/mpa_shift.c:128
    388c:	2a3503e1 	mvn	w1, w21
    3890:	8b204a64 	add	x4, x19, w0, uxtw #2
    3894:	0b000021 	add	w1, w1, w0
    3898:	8b010a61 	add	x1, x19, x1, lsl #2
    389c:	b9400821 	ldr	w1, [x1,#8]
    38a0:	1ac32422 	lsr	w2, w1, w3
/home/lagadanu/Desktop/qemu/optee_os/lib/libmpa/mpa_shift.c:129
    38a4:	b9400881 	ldr	w1, [x4,#8]
    38a8:	4a020021 	eor	w1, w1, w2
    38ac:	b9000881 	str	w1, [x4,#8]
/home/lagadanu/Desktop/qemu/optee_os/lib/libmpa/mpa_shift.c:131
    38b0:	51000401 	sub	w1, w0, #0x1
    38b4:	4b150000 	sub	w0, w0, w21
/home/lagadanu/Desktop/qemu/optee_os/lib/libmpa/mpa_shift.c:132
    38b8:	4b150024 	sub	w4, w1, w21
    38bc:	8b010a65 	add	x5, x19, x1, lsl #2
    38c0:	8b040a64 	add	x4, x19, x4, lsl #2
/home/lagadanu/Desktop/qemu/optee_os/lib/libmpa/mpa_shift.c:131
    38c4:	aa0103e2 	mov	x2, x1
    38c8:	91000821 	add	x1, x1, #0x2
    38cc:	51000800 	sub	w0, w0, #0x2
    38d0:	8b010a61 	add	x1, x19, x1, lsl #2
/home/lagadanu/Desktop/qemu/optee_os/lib/libmpa/mpa_shift.c:132
    38d4:	b9400884 	ldr	w4, [x4,#8]
    38d8:	1ad62084 	lsl	w4, w4, w22
    38dc:	b90008a4 	str	w4, [x5,#8]
/home/lagadanu/Desktop/qemu/optee_os/lib/libmpa/mpa_shift.c:133
    38e0:	6b15005f 	cmp	w2, w21
    38e4:	54000068 	b.hi	38f0 <mpa_shift_left+0x150>
/home/lagadanu/Desktop/qemu/optee_os/lib/libmpa/mpa_shift.c:108
    38e8:	2a0603f6 	mov	w22, w6
    38ec:	17ffffc5 	b	3800 <mpa_shift_left+0x60>
/home/lagadanu/Desktop/qemu/optee_os/lib/libmpa/mpa_shift.c:134
    38f0:	8b204a67 	add	x7, x19, w0, uxtw #2
/home/lagadanu/Desktop/qemu/optee_os/lib/libmpa/mpa_shift.c:136
    38f4:	51000442 	sub	w2, w2, #0x1
    38f8:	51000400 	sub	w0, w0, #0x1
/home/lagadanu/Desktop/qemu/optee_os/lib/libmpa/mpa_shift.c:134
    38fc:	b94008e4 	ldr	w4, [x7,#8]
    3900:	1ac32485 	lsr	w5, w4, w3
/home/lagadanu/Desktop/qemu/optee_os/lib/libmpa/mpa_shift.c:135
    3904:	b9400024 	ldr	w4, [x1]
    3908:	4a050084 	eor	w4, w4, w5
    390c:	b81fc424 	str	w4, [x1],#-4
/home/lagadanu/Desktop/qemu/optee_os/lib/libmpa/mpa_shift.c:137
    3910:	8b224a65 	add	x5, x19, w2, uxtw #2
    3914:	b94008e4 	ldr	w4, [x7,#8]
    3918:	1ad62084 	lsl	w4, w4, w22
    391c:	b90008a4 	str	w4, [x5,#8]
    3920:	17fffff0 	b	38e0 <mpa_shift_left+0x140>
/home/lagadanu/Desktop/qemu/optee_os/lib/libmpa/mpa_shift.c:145
    3924:	4b150294 	sub	w20, w20, w21
    3928:	4b160294 	sub	w20, w20, w22
    392c:	17ffffbd 	b	3820 <mpa_shift_left+0x80>

0000000000003930 <mpa_shift_right>:
mpa_shift_right():
/home/lagadanu/Desktop/qemu/optee_os/lib/libmpa/mpa_shift.c:157
    3930:	a9be7bfd 	stp	x29, x30, [sp,#-32]!
    3934:	910003fd 	mov	x29, sp
    3938:	a90153f3 	stp	x19, x20, [sp,#16]
    393c:	aa0003f3 	mov	x19, x0
    3940:	2a0203f4 	mov	w20, w2
/home/lagadanu/Desktop/qemu/optee_os/lib/libmpa/mpa_shift.c:168
    3944:	97fff737 	bl	1620 <mpa_copy>
/home/lagadanu/Desktop/qemu/optee_os/lib/libmpa/mpa_shift.c:169
    3948:	aa1303e0 	mov	x0, x19
    394c:	97fff720 	bl	15cc <__mpa_set_unused_digits_to_zero>
/home/lagadanu/Desktop/qemu/optee_os/lib/libmpa/mpa_shift.c:170
    3950:	34000674 	cbz	w20, 3a1c <mpa_shift_right+0xec>
/home/lagadanu/Desktop/qemu/optee_os/lib/libmpa/mpa_shift.c:170 (discriminator 1)
    3954:	b9400663 	ldr	w3, [x19,#4]
    3958:	7100007f 	cmp	w3, #0x0
    395c:	54000600 	b.eq	3a1c <mpa_shift_right+0xec>
/home/lagadanu/Desktop/qemu/optee_os/lib/libmpa/mpa_shift.c:174
    3960:	53057e82 	lsr	w2, w20, #5
/home/lagadanu/Desktop/qemu/optee_os/lib/libmpa/mpa_shift.c:176
    3964:	5a83a466 	cneg	w6, w3, lt
/home/lagadanu/Desktop/qemu/optee_os/lib/libmpa/mpa_shift.c:173
    3968:	12001284 	and	w4, w20, #0x1f
/home/lagadanu/Desktop/qemu/optee_os/lib/libmpa/mpa_shift.c:176
    396c:	6b06005f 	cmp	w2, w6
    3970:	540000c3 	b.cc	3988 <mpa_shift_right+0x58>
/home/lagadanu/Desktop/qemu/optee_os/lib/libmpa/mpa_shift.c:177
    3974:	aa1303e0 	mov	x0, x19
    3978:	52800001 	mov	w1, #0x0                   	// #0
/home/lagadanu/Desktop/qemu/optee_os/lib/libmpa/mpa_shift.c:215
    397c:	a94153f3 	ldp	x19, x20, [sp,#16]
    3980:	a8c27bfd 	ldp	x29, x30, [sp],#32
/home/lagadanu/Desktop/qemu/optee_os/lib/libmpa/mpa_shift.c:177
    3984:	17fff986 	b	1f9c <mpa_set_word>
    3988:	91002260 	add	x0, x19, #0x8
/home/lagadanu/Desktop/qemu/optee_os/lib/libmpa/mpa_shift.c:186
    398c:	34000264 	cbz	w4, 39d8 <mpa_shift_right+0xa8>
/home/lagadanu/Desktop/qemu/optee_os/lib/libmpa/mpa_shift.c:194 (discriminator 1)
    3990:	d2800025 	mov	x5, #0x1                   	// #1
/home/lagadanu/Desktop/qemu/optee_os/lib/libmpa/mpa_shift.c:196 (discriminator 1)
    3994:	52800409 	mov	w9, #0x20                  	// #32
/home/lagadanu/Desktop/qemu/optee_os/lib/libmpa/mpa_shift.c:194 (discriminator 1)
    3998:	9ac420a5 	lsl	x5, x5, x4
    399c:	2a0203e1 	mov	w1, w2
    39a0:	510004a5 	sub	w5, w5, #0x1
/home/lagadanu/Desktop/qemu/optee_os/lib/libmpa/mpa_shift.c:196 (discriminator 1)
    39a4:	4b040129 	sub	w9, w9, w4
    39a8:	11000428 	add	w8, w1, #0x1
/home/lagadanu/Desktop/qemu/optee_os/lib/libmpa/mpa_shift.c:192 (discriminator 1)
    39ac:	6b0800df 	cmp	w6, w8
    39b0:	54000461 	b.ne	3a3c <mpa_shift_right+0x10c>
    39b4:	2a2203e0 	mvn	w0, w2
    39b8:	0b060000 	add	w0, w0, w6
/home/lagadanu/Desktop/qemu/optee_os/lib/libmpa/mpa_shift.c:199
    39bc:	8b204a61 	add	x1, x19, w0, uxtw #2
    39c0:	0b000040 	add	w0, w2, w0
    39c4:	8b000a60 	add	x0, x19, x0, lsl #2
    39c8:	b9400800 	ldr	w0, [x0,#8]
    39cc:	1ac42404 	lsr	w4, w0, w4
    39d0:	b9000824 	str	w4, [x1,#8]
    39d4:	14000004 	b	39e4 <mpa_shift_right+0xb4>
/home/lagadanu/Desktop/qemu/optee_os/lib/libmpa/mpa_shift.c:186 (discriminator 1)
    39d8:	2a0203e1 	mov	w1, w2
/home/lagadanu/Desktop/qemu/optee_os/lib/libmpa/mpa_shift.c:188 (discriminator 1)
    39dc:	6b0100df 	cmp	w6, w1
    39e0:	54000241 	b.ne	3a28 <mpa_shift_right+0xf8>
/home/lagadanu/Desktop/qemu/optee_os/lib/libmpa/mpa_shift.c:204
    39e4:	0b020060 	add	w0, w3, w2
    39e8:	7100007f 	cmp	w3, #0x0
    39ec:	4b020062 	sub	w2, w3, w2
    39f0:	1a80c042 	csel	w2, w2, w0, gt
    39f4:	b9000662 	str	w2, [x19,#4]
/home/lagadanu/Desktop/qemu/optee_os/lib/libmpa/mpa_shift.c:209
    39f8:	7100005f 	cmp	w2, #0x0
    39fc:	5a82a440 	cneg	w0, w2, lt
    3a00:	51000400 	sub	w0, w0, #0x1
    3a04:	8b20ca60 	add	x0, x19, w0, sxtw #2
    3a08:	b9400800 	ldr	w0, [x0,#8]
    3a0c:	35000080 	cbnz	w0, 3a1c <mpa_shift_right+0xec>
/home/lagadanu/Desktop/qemu/optee_os/lib/libmpa/mpa_shift.c:210
    3a10:	540002ed 	b.le	3a6c <mpa_shift_right+0x13c>
/home/lagadanu/Desktop/qemu/optee_os/lib/libmpa/mpa_shift.c:211
    3a14:	51000442 	sub	w2, w2, #0x1
/home/lagadanu/Desktop/qemu/optee_os/lib/libmpa/mpa_shift.c:213
    3a18:	b9000662 	str	w2, [x19,#4]
/home/lagadanu/Desktop/qemu/optee_os/lib/libmpa/mpa_shift.c:215
    3a1c:	a94153f3 	ldp	x19, x20, [sp,#16]
    3a20:	a8c27bfd 	ldp	x29, x30, [sp],#32
    3a24:	d65f03c0 	ret
/home/lagadanu/Desktop/qemu/optee_os/lib/libmpa/mpa_shift.c:189 (discriminator 3)
    3a28:	8b214a64 	add	x4, x19, w1, uxtw #2
    3a2c:	11000421 	add	w1, w1, #0x1
    3a30:	b9400884 	ldr	w4, [x4,#8]
    3a34:	b8004404 	str	w4, [x0],#4
    3a38:	17ffffe9 	b	39dc <mpa_shift_right+0xac>
/home/lagadanu/Desktop/qemu/optee_os/lib/libmpa/mpa_shift.c:193 (discriminator 3)
    3a3c:	8b214a61 	add	x1, x19, w1, uxtw #2
    3a40:	b9400827 	ldr	w7, [x1,#8]
/home/lagadanu/Desktop/qemu/optee_os/lib/libmpa/mpa_shift.c:194 (discriminator 3)
    3a44:	8b284a61 	add	x1, x19, w8, uxtw #2
/home/lagadanu/Desktop/qemu/optee_os/lib/libmpa/mpa_shift.c:193 (discriminator 3)
    3a48:	b9000007 	str	w7, [x0]
/home/lagadanu/Desktop/qemu/optee_os/lib/libmpa/mpa_shift.c:194 (discriminator 3)
    3a4c:	b9400821 	ldr	w1, [x1,#8]
/home/lagadanu/Desktop/qemu/optee_os/lib/libmpa/mpa_shift.c:196 (discriminator 3)
    3a50:	1ac424e7 	lsr	w7, w7, w4
/home/lagadanu/Desktop/qemu/optee_os/lib/libmpa/mpa_shift.c:194 (discriminator 3)
    3a54:	0a0100a1 	and	w1, w5, w1
/home/lagadanu/Desktop/qemu/optee_os/lib/libmpa/mpa_shift.c:196 (discriminator 3)
    3a58:	1ac92021 	lsl	w1, w1, w9
    3a5c:	4a070021 	eor	w1, w1, w7
/home/lagadanu/Desktop/qemu/optee_os/lib/libmpa/mpa_shift.c:195 (discriminator 3)
    3a60:	b8004401 	str	w1, [x0],#4
    3a64:	2a0803e1 	mov	w1, w8
    3a68:	17ffffd0 	b	39a8 <mpa_shift_right+0x78>
/home/lagadanu/Desktop/qemu/optee_os/lib/libmpa/mpa_shift.c:213
    3a6c:	11000442 	add	w2, w2, #0x1
    3a70:	17ffffea 	b	3a18 <mpa_shift_right+0xe8>

0000000000003a74 <__mpa_full_adder>:
__mpa_full_adder():
/home/lagadanu/Desktop/qemu/optee_os/lib/libmpa/mpa_addsub.c:32
    3a74:	b9400064 	ldr	w4, [x3]
    3a78:	8b214081 	add	x1, x4, w1, uxtw
    3a7c:	8b204020 	add	x0, x1, w0, uxtw
/home/lagadanu/Desktop/qemu/optee_os/lib/libmpa/mpa_addsub.c:33
    3a80:	b9000040 	str	w0, [x2]
/home/lagadanu/Desktop/qemu/optee_os/lib/libmpa/mpa_addsub.c:34
    3a84:	d360fc00 	lsr	x0, x0, #32
    3a88:	b9000060 	str	w0, [x3]
    3a8c:	d65f03c0 	ret

0000000000003a90 <__mpa_full_sub>:
__mpa_full_sub():
/home/lagadanu/Desktop/qemu/optee_os/lib/libmpa/mpa_addsub.c:55
    3a90:	2a0003e0 	mov	w0, w0
    3a94:	cb214001 	sub	x1, x0, w1, uxtw
    3a98:	b9400060 	ldr	w0, [x3]
    3a9c:	cb000021 	sub	x1, x1, x0
/home/lagadanu/Desktop/qemu/optee_os/lib/libmpa/mpa_addsub.c:56
    3aa0:	b9000041 	str	w1, [x2]
/home/lagadanu/Desktop/qemu/optee_os/lib/libmpa/mpa_addsub.c:57
    3aa4:	d360fc21 	lsr	x1, x1, #32
    3aa8:	4b0103e1 	neg	w1, w1
    3aac:	b9000061 	str	w1, [x3]
    3ab0:	d65f03c0 	ret

0000000000003ab4 <__mpa_full_adder_ackum>:
__mpa_full_adder_ackum():
/home/lagadanu/Desktop/qemu/optee_os/lib/libmpa/mpa_addsub.c:79
    3ab4:	b9400043 	ldr	w3, [x2]
    3ab8:	8b214061 	add	x1, x3, w1, uxtw
    3abc:	b9400003 	ldr	w3, [x0]
    3ac0:	8b030021 	add	x1, x1, x3
/home/lagadanu/Desktop/qemu/optee_os/lib/libmpa/mpa_addsub.c:80
    3ac4:	b9000001 	str	w1, [x0]
/home/lagadanu/Desktop/qemu/optee_os/lib/libmpa/mpa_addsub.c:81
    3ac8:	d360fc21 	lsr	x1, x1, #32
    3acc:	b9000041 	str	w1, [x2]
    3ad0:	d65f03c0 	ret

0000000000003ad4 <__mpa_abs_add>:
__mpa_abs_add():
/home/lagadanu/Desktop/qemu/optee_os/lib/libmpa/mpa_addsub.c:105
    3ad4:	a9bd7bfd 	stp	x29, x30, [sp,#-48]!
/home/lagadanu/Desktop/qemu/optee_os/lib/libmpa/mpa_addsub.c:115
    3ad8:	6b05007f 	cmp	w3, w5
/home/lagadanu/Desktop/qemu/optee_os/lib/libmpa/mpa_addsub.c:105
    3adc:	910003fd 	mov	x29, sp
    3ae0:	a90153f3 	stp	x19, x20, [sp,#16]
    3ae4:	aa0003f4 	mov	x20, x0
    3ae8:	f90013f5 	str	x21, [sp,#32]
    3aec:	aa0103f5 	mov	x21, x1
/home/lagadanu/Desktop/qemu/optee_os/lib/libmpa/mpa_addsub.c:115
    3af0:	540000ec 	b.gt	3b0c <__mpa_abs_add+0x38>
    3af4:	2a0503e0 	mov	w0, w5
    3af8:	2a0303e5 	mov	w5, w3
    3afc:	2a0003e3 	mov	w3, w0
    3b00:	aa0403e0 	mov	x0, x4
/home/lagadanu/Desktop/qemu/optee_os/lib/libmpa/mpa_addsub.c:122
    3b04:	aa0203e4 	mov	x4, x2
/home/lagadanu/Desktop/qemu/optee_os/lib/libmpa/mpa_addsub.c:121
    3b08:	aa0003e2 	mov	x2, x0
/home/lagadanu/Desktop/qemu/optee_os/lib/libmpa/mpa_addsub.c:130
    3b0c:	d2800001 	mov	x1, #0x0                   	// #0
/home/lagadanu/Desktop/qemu/optee_os/lib/libmpa/mpa_addsub.c:128
    3b10:	52800008 	mov	w8, #0x0                   	// #0
/home/lagadanu/Desktop/qemu/optee_os/lib/libmpa/mpa_addsub.c:130
    3b14:	6b0100bf 	cmp	w5, w1
    3b18:	540001ac 	b.gt	3b4c <__mpa_abs_add+0x78>
    3b1c:	710000bf 	cmp	w5, #0x0
    3b20:	1a9fa0a5 	csel	w5, w5, wzr, ge
    3b24:	937e7ca1 	sbfiz	x1, x5, #2, #32
    3b28:	8b010284 	add	x4, x20, x1
    3b2c:	8b010041 	add	x1, x2, x1
/home/lagadanu/Desktop/qemu/optee_os/lib/libmpa/mpa_addsub.c:134
    3b30:	6b05007f 	cmp	w3, w5
    3b34:	340002c8 	cbz	w8, 3b8c <__mpa_abs_add+0xb8>
    3b38:	91001080 	add	x0, x4, #0x4
/home/lagadanu/Desktop/qemu/optee_os/lib/libmpa/mpa_addsub.c:134 (discriminator 1)
    3b3c:	540001ac 	b.gt	3b70 <__mpa_abs_add+0x9c>
/home/lagadanu/Desktop/qemu/optee_os/lib/libmpa/mpa_addsub.c:146
    3b40:	52800021 	mov	w1, #0x1                   	// #1
    3b44:	b9000081 	str	w1, [x4]
    3b48:	14000019 	b	3bac <__mpa_abs_add+0xd8>
__mpa_full_adder():
/home/lagadanu/Desktop/qemu/optee_os/lib/libmpa/mpa_addsub.c:32
    3b4c:	b8617886 	ldr	w6, [x4,x1,lsl #2]
    3b50:	2a0803e0 	mov	w0, w8
    3b54:	b8617847 	ldr	w7, [x2,x1,lsl #2]
    3b58:	8b0700c6 	add	x6, x6, x7
    3b5c:	8b0000c0 	add	x0, x6, x0
/home/lagadanu/Desktop/qemu/optee_os/lib/libmpa/mpa_addsub.c:33
    3b60:	b8217a80 	str	w0, [x20,x1,lsl #2]
/home/lagadanu/Desktop/qemu/optee_os/lib/libmpa/mpa_addsub.c:34
    3b64:	d360fc08 	lsr	x8, x0, #32
    3b68:	91000421 	add	x1, x1, #0x1
    3b6c:	17ffffea 	b	3b14 <__mpa_abs_add+0x40>
__mpa_abs_add():
/home/lagadanu/Desktop/qemu/optee_os/lib/libmpa/mpa_addsub.c:135
    3b70:	aa0003e4 	mov	x4, x0
__mpa_full_adder():
/home/lagadanu/Desktop/qemu/optee_os/lib/libmpa/mpa_addsub.c:32
    3b74:	b8404420 	ldr	w0, [x1],#4
__mpa_abs_add():
/home/lagadanu/Desktop/qemu/optee_os/lib/libmpa/mpa_addsub.c:136
    3b78:	110004a5 	add	w5, w5, #0x1
__mpa_full_adder():
/home/lagadanu/Desktop/qemu/optee_os/lib/libmpa/mpa_addsub.c:32
    3b7c:	91000400 	add	x0, x0, #0x1
/home/lagadanu/Desktop/qemu/optee_os/lib/libmpa/mpa_addsub.c:34
    3b80:	d360fc08 	lsr	x8, x0, #32
/home/lagadanu/Desktop/qemu/optee_os/lib/libmpa/mpa_addsub.c:33
    3b84:	b81fc080 	stur	w0, [x4,#-4]
    3b88:	17ffffea 	b	3b30 <__mpa_abs_add+0x5c>
__mpa_abs_add():
/home/lagadanu/Desktop/qemu/optee_os/lib/libmpa/mpa_addsub.c:139
    3b8c:	540000ed 	b.le	3ba8 <__mpa_abs_add+0xd4>
/home/lagadanu/Desktop/qemu/optee_os/lib/libmpa/mpa_addsub.c:141
    3b90:	4b050073 	sub	w19, w3, w5
    3b94:	aa0403e0 	mov	x0, x4
    3b98:	531e7662 	lsl	w2, w19, #2
    3b9c:	93407c42 	sxtw	x2, w2
    3ba0:	940009e0 	bl	6320 <memcpy>
/home/lagadanu/Desktop/qemu/optee_os/lib/libmpa/mpa_addsub.c:142
    3ba4:	8b33c804 	add	x4, x0, w19, sxtw #2
/home/lagadanu/Desktop/qemu/optee_os/lib/libmpa/mpa_addsub.c:128
    3ba8:	aa0403e0 	mov	x0, x4
/home/lagadanu/Desktop/qemu/optee_os/lib/libmpa/mpa_addsub.c:147
    3bac:	cb140001 	sub	x1, x0, x20
    3bb0:	9342fc20 	asr	x0, x1, #2
    3bb4:	b90002a0 	str	w0, [x21]
/home/lagadanu/Desktop/qemu/optee_os/lib/libmpa/mpa_addsub.c:148
    3bb8:	a94153f3 	ldp	x19, x20, [sp,#16]
    3bbc:	f94013f5 	ldr	x21, [sp,#32]
    3bc0:	a8c37bfd 	ldp	x29, x30, [sp],#48
    3bc4:	d65f03c0 	ret

0000000000003bc8 <__mpa_abs_add_ackum>:
__mpa_abs_add_ackum():
/home/lagadanu/Desktop/qemu/optee_os/lib/libmpa/mpa_addsub.c:157
    3bc8:	a9bb7bfd 	stp	x29, x30, [sp,#-80]!
    3bcc:	910003fd 	mov	x29, sp
    3bd0:	a90153f3 	stp	x19, x20, [sp,#16]
/home/lagadanu/Desktop/qemu/optee_os/lib/libmpa/mpa_addsub.c:168
    3bd4:	91002014 	add	x20, x0, #0x8
/home/lagadanu/Desktop/qemu/optee_os/lib/libmpa/mpa_addsub.c:157
    3bd8:	a9025bf5 	stp	x21, x22, [sp,#32]
    3bdc:	aa0003f3 	mov	x19, x0
    3be0:	a90363f7 	stp	x23, x24, [sp,#48]
    3be4:	aa0103f5 	mov	x21, x1
/home/lagadanu/Desktop/qemu/optee_os/lib/libmpa/mpa_addsub.c:165
    3be8:	b9400400 	ldr	w0, [x0,#4]
/home/lagadanu/Desktop/qemu/optee_os/lib/libmpa/mpa_addsub.c:171
    3bec:	91002038 	add	x24, x1, #0x8
/home/lagadanu/Desktop/qemu/optee_os/lib/libmpa/mpa_addsub.c:165
    3bf0:	b9400421 	ldr	w1, [x1,#4]
/home/lagadanu/Desktop/qemu/optee_os/lib/libmpa/mpa_addsub.c:174
    3bf4:	910143b7 	add	x23, x29, #0x50
/home/lagadanu/Desktop/qemu/optee_os/lib/libmpa/mpa_addsub.c:175
    3bf8:	d2800016 	mov	x22, #0x0                   	// #0
/home/lagadanu/Desktop/qemu/optee_os/lib/libmpa/mpa_addsub.c:168
    3bfc:	6b000022 	subs	w2, w1, w0
    3c00:	52800001 	mov	w1, #0x0                   	// #0
    3c04:	1a9f5042 	csel	w2, w2, wzr, pl
    3c08:	8b20ca80 	add	x0, x20, w0, sxtw #2
    3c0c:	11000442 	add	w2, w2, #0x1
    3c10:	531e7442 	lsl	w2, w2, #2
    3c14:	93407c42 	sxtw	x2, w2
    3c18:	940009dd 	bl	638c <memset>
/home/lagadanu/Desktop/qemu/optee_os/lib/libmpa/mpa_addsub.c:174
    3c1c:	b81fceff 	str	wzr, [x23,#-4]!
/home/lagadanu/Desktop/qemu/optee_os/lib/libmpa/mpa_addsub.c:175
    3c20:	b94006a1 	ldr	w1, [x21,#4]
    3c24:	8b160a80 	add	x0, x20, x22, lsl #2
    3c28:	6b16003f 	cmp	w1, w22
    3c2c:	540001ec 	b.gt	3c68 <__mpa_abs_add_ackum+0xa0>
/home/lagadanu/Desktop/qemu/optee_os/lib/libmpa/mpa_addsub.c:186
    3c30:	910133b6 	add	x22, x29, #0x4c
/home/lagadanu/Desktop/qemu/optee_os/lib/libmpa/mpa_addsub.c:185
    3c34:	b9404fa1 	ldr	w1, [x29,#76]
    3c38:	35000221 	cbnz	w1, 3c7c <__mpa_abs_add_ackum+0xb4>
/home/lagadanu/Desktop/qemu/optee_os/lib/libmpa/mpa_addsub.c:193
    3c3c:	cb140000 	sub	x0, x0, x20
/home/lagadanu/Desktop/qemu/optee_os/lib/libmpa/mpa_addsub.c:194
    3c40:	b9400661 	ldr	w1, [x19,#4]
/home/lagadanu/Desktop/qemu/optee_os/lib/libmpa/mpa_addsub.c:193
    3c44:	9342fc02 	asr	x2, x0, #2
/home/lagadanu/Desktop/qemu/optee_os/lib/libmpa/mpa_addsub.c:194
    3c48:	6b01005f 	cmp	w2, w1
    3c4c:	5400004d 	b.le	3c54 <__mpa_abs_add_ackum+0x8c>
/home/lagadanu/Desktop/qemu/optee_os/lib/libmpa/mpa_addsub.c:195
    3c50:	b9000662 	str	w2, [x19,#4]
/home/lagadanu/Desktop/qemu/optee_os/lib/libmpa/mpa_addsub.c:196
    3c54:	a94153f3 	ldp	x19, x20, [sp,#16]
    3c58:	a9425bf5 	ldp	x21, x22, [sp,#32]
    3c5c:	a94363f7 	ldp	x23, x24, [sp,#48]
    3c60:	a8c57bfd 	ldp	x29, x30, [sp],#80
    3c64:	d65f03c0 	ret
/home/lagadanu/Desktop/qemu/optee_os/lib/libmpa/mpa_addsub.c:176
    3c68:	b8767b01 	ldr	w1, [x24,x22,lsl #2]
    3c6c:	aa1703e2 	mov	x2, x23
    3c70:	910006d6 	add	x22, x22, #0x1
    3c74:	97ffff90 	bl	3ab4 <__mpa_full_adder_ackum>
    3c78:	17ffffea 	b	3c20 <__mpa_abs_add_ackum+0x58>
/home/lagadanu/Desktop/qemu/optee_os/lib/libmpa/mpa_addsub.c:186
    3c7c:	91001015 	add	x21, x0, #0x4
    3c80:	aa1603e2 	mov	x2, x22
    3c84:	52800001 	mov	w1, #0x0                   	// #0
    3c88:	97ffff8b 	bl	3ab4 <__mpa_full_adder_ackum>
    3c8c:	aa1503e0 	mov	x0, x21
    3c90:	17ffffe9 	b	3c34 <__mpa_abs_add_ackum+0x6c>

0000000000003c94 <__mpa_abs_sub>:
__mpa_abs_sub():
/home/lagadanu/Desktop/qemu/optee_os/lib/libmpa/mpa_addsub.c:211
    3c94:	a9ba7bfd 	stp	x29, x30, [sp,#-96]!
    3c98:	910003fd 	mov	x29, sp
    3c9c:	a9046bf9 	stp	x25, x26, [sp,#64]
/home/lagadanu/Desktop/qemu/optee_os/lib/libmpa/mpa_addsub.c:215
    3ca0:	910183b9 	add	x25, x29, #0x60
/home/lagadanu/Desktop/qemu/optee_os/lib/libmpa/mpa_addsub.c:211
    3ca4:	a90153f3 	stp	x19, x20, [sp,#16]
    3ca8:	aa0403fa 	mov	x26, x4
    3cac:	a9025bf5 	stp	x21, x22, [sp,#32]
    3cb0:	2a0303f4 	mov	w20, w3
    3cb4:	a90363f7 	stp	x23, x24, [sp,#48]
    3cb8:	aa0103f5 	mov	x21, x1
    3cbc:	aa0003f7 	mov	x23, x0
    3cc0:	aa0203f8 	mov	x24, x2
    3cc4:	2a0503f6 	mov	w22, w5
/home/lagadanu/Desktop/qemu/optee_os/lib/libmpa/mpa_addsub.c:215
    3cc8:	b81fcf3f 	str	wzr, [x25,#-4]!
/home/lagadanu/Desktop/qemu/optee_os/lib/libmpa/mpa_addsub.c:217
    3ccc:	d2800013 	mov	x19, #0x0                   	// #0
    3cd0:	8b130ae2 	add	x2, x23, x19, lsl #2
    3cd4:	6b1302df 	cmp	w22, w19
    3cd8:	5400028c 	b.gt	3d28 <__mpa_abs_sub+0x94>
    3cdc:	710002df 	cmp	w22, #0x0
    3ce0:	1a9fa2d3 	csel	w19, w22, wzr, ge
    3ce4:	937e7e60 	sbfiz	x0, x19, #2, #32
    3ce8:	8b000316 	add	x22, x24, x0
    3cec:	8b0002e4 	add	x4, x23, x0
/home/lagadanu/Desktop/qemu/optee_os/lib/libmpa/mpa_addsub.c:226
    3cf0:	910173b8 	add	x24, x29, #0x5c
/home/lagadanu/Desktop/qemu/optee_os/lib/libmpa/mpa_addsub.c:225
    3cf4:	b9405fa0 	ldr	w0, [x29,#92]
    3cf8:	6b14027f 	cmp	w19, w20
    3cfc:	34000340 	cbz	w0, 3d64 <__mpa_abs_sub+0xd0>
/home/lagadanu/Desktop/qemu/optee_os/lib/libmpa/mpa_addsub.c:225 (discriminator 1)
    3d00:	5400020b 	b.lt	3d40 <__mpa_abs_sub+0xac>
/home/lagadanu/Desktop/qemu/optee_os/lib/libmpa/mpa_addsub.c:240
    3d04:	7100029f 	cmp	w20, #0x0
    3d08:	5400040c 	b.gt	3d88 <__mpa_abs_sub+0xf4>
/home/lagadanu/Desktop/qemu/optee_os/lib/libmpa/mpa_addsub.c:242
    3d0c:	b90002b4 	str	w20, [x21]
/home/lagadanu/Desktop/qemu/optee_os/lib/libmpa/mpa_addsub.c:243
    3d10:	a94363f7 	ldp	x23, x24, [sp,#48]
    3d14:	a94153f3 	ldp	x19, x20, [sp,#16]
    3d18:	a9425bf5 	ldp	x21, x22, [sp,#32]
    3d1c:	a9446bf9 	ldp	x25, x26, [sp,#64]
    3d20:	a8c67bfd 	ldp	x29, x30, [sp],#96
    3d24:	d65f03c0 	ret
/home/lagadanu/Desktop/qemu/optee_os/lib/libmpa/mpa_addsub.c:218
    3d28:	b8737b41 	ldr	w1, [x26,x19,lsl #2]
    3d2c:	aa1903e3 	mov	x3, x25
    3d30:	b8737b00 	ldr	w0, [x24,x19,lsl #2]
    3d34:	91000673 	add	x19, x19, #0x1
    3d38:	97ffff56 	bl	3a90 <__mpa_full_sub>
    3d3c:	17ffffe5 	b	3cd0 <__mpa_abs_sub+0x3c>
/home/lagadanu/Desktop/qemu/optee_os/lib/libmpa/mpa_addsub.c:226
    3d40:	b84046c0 	ldr	w0, [x22],#4
    3d44:	91001097 	add	x23, x4, #0x4
    3d48:	aa0403e2 	mov	x2, x4
    3d4c:	aa1803e3 	mov	x3, x24
    3d50:	52800001 	mov	w1, #0x0                   	// #0
/home/lagadanu/Desktop/qemu/optee_os/lib/libmpa/mpa_addsub.c:227
    3d54:	11000673 	add	w19, w19, #0x1
/home/lagadanu/Desktop/qemu/optee_os/lib/libmpa/mpa_addsub.c:226
    3d58:	97ffff4e 	bl	3a90 <__mpa_full_sub>
    3d5c:	aa1703e4 	mov	x4, x23
    3d60:	17ffffe5 	b	3cf4 <__mpa_abs_sub+0x60>
/home/lagadanu/Desktop/qemu/optee_os/lib/libmpa/mpa_addsub.c:230
    3d64:	54fffd0a 	b.ge	3d04 <__mpa_abs_sub+0x70>
/home/lagadanu/Desktop/qemu/optee_os/lib/libmpa/mpa_addsub.c:235
    3d68:	4b130293 	sub	w19, w20, w19
    3d6c:	aa0403e0 	mov	x0, x4
    3d70:	531e7662 	lsl	w2, w19, #2
    3d74:	aa1603e1 	mov	x1, x22
    3d78:	93407c42 	sxtw	x2, w2
    3d7c:	94000969 	bl	6320 <memcpy>
/home/lagadanu/Desktop/qemu/optee_os/lib/libmpa/mpa_addsub.c:236
    3d80:	8b33c804 	add	x4, x0, w19, sxtw #2
/home/lagadanu/Desktop/qemu/optee_os/lib/libmpa/mpa_addsub.c:240
    3d84:	17ffffe0 	b	3d04 <__mpa_abs_sub+0x70>
/home/lagadanu/Desktop/qemu/optee_os/lib/libmpa/mpa_addsub.c:240 (discriminator 1)
    3d88:	b85fcc80 	ldr	w0, [x4,#-4]!
    3d8c:	35fffc00 	cbnz	w0, 3d0c <__mpa_abs_sub+0x78>
/home/lagadanu/Desktop/qemu/optee_os/lib/libmpa/mpa_addsub.c:241
    3d90:	51000694 	sub	w20, w20, #0x1
    3d94:	17ffffdc 	b	3d04 <__mpa_abs_sub+0x70>

0000000000003d98 <mpa_add>:
mpa_add():
/home/lagadanu/Desktop/qemu/optee_os/lib/libmpa/mpa_addsub.c:259
    3d98:	a9b97bfd 	stp	x29, x30, [sp,#-112]!
    3d9c:	910003fd 	mov	x29, sp
    3da0:	a90363f7 	stp	x23, x24, [sp,#48]
    3da4:	aa0203f8 	mov	x24, x2
/home/lagadanu/Desktop/qemu/optee_os/lib/libmpa/mpa_addsub.c:267
    3da8:	b9400422 	ldr	w2, [x1,#4]
/home/lagadanu/Desktop/qemu/optee_os/lib/libmpa/mpa_addsub.c:259
    3dac:	aa0103f7 	mov	x23, x1
    3db0:	a9025bf5 	stp	x21, x22, [sp,#32]
/home/lagadanu/Desktop/qemu/optee_os/lib/libmpa/mpa_addsub.c:268
    3db4:	b9400701 	ldr	w1, [x24,#4]
/home/lagadanu/Desktop/qemu/optee_os/lib/libmpa/mpa_addsub.c:267
    3db8:	7100005f 	cmp	w2, #0x0
    3dbc:	5a82a456 	cneg	w22, w2, lt
/home/lagadanu/Desktop/qemu/optee_os/lib/libmpa/mpa_addsub.c:259
    3dc0:	a90153f3 	stp	x19, x20, [sp,#16]
/home/lagadanu/Desktop/qemu/optee_os/lib/libmpa/mpa_addsub.c:268
    3dc4:	7100003f 	cmp	w1, #0x0
/home/lagadanu/Desktop/qemu/optee_os/lib/libmpa/mpa_addsub.c:259
    3dc8:	a9046bf9 	stp	x25, x26, [sp,#64]
/home/lagadanu/Desktop/qemu/optee_os/lib/libmpa/mpa_addsub.c:268
    3dcc:	5a81a434 	cneg	w20, w1, lt
/home/lagadanu/Desktop/qemu/optee_os/lib/libmpa/mpa_addsub.c:259
    3dd0:	aa0003f9 	mov	x25, x0
/home/lagadanu/Desktop/qemu/optee_os/lib/libmpa/mpa_addsub.c:270
    3dd4:	12800000 	mov	w0, #0xffffffff            	// #-1
    3dd8:	6b00005f 	cmp	w2, w0
/home/lagadanu/Desktop/qemu/optee_os/lib/libmpa/mpa_addsub.c:259
    3ddc:	a90573fb 	stp	x27, x28, [sp,#80]
/home/lagadanu/Desktop/qemu/optee_os/lib/libmpa/mpa_addsub.c:270
    3de0:	5a80d41c 	cneg	w28, w0, gt
/home/lagadanu/Desktop/qemu/optee_os/lib/libmpa/mpa_addsub.c:271
    3de4:	6b00003f 	cmp	w1, w0
/home/lagadanu/Desktop/qemu/optee_os/lib/libmpa/mpa_addsub.c:259
    3de8:	aa0303fa 	mov	x26, x3
/home/lagadanu/Desktop/qemu/optee_os/lib/libmpa/mpa_addsub.c:271
    3dec:	5a80d413 	cneg	w19, w0, gt
/home/lagadanu/Desktop/qemu/optee_os/lib/libmpa/mpa_addsub.c:274
    3df0:	eb1902ff 	cmp	x23, x25
    3df4:	1a9f17fb 	cset	w27, eq
    3df8:	eb19031f 	cmp	x24, x25
    3dfc:	1a9f17e0 	cset	w0, eq
    3e00:	2a00037b 	orr	w27, w27, w0
/home/lagadanu/Desktop/qemu/optee_os/lib/libmpa/mpa_addsub.c:275
    3e04:	3400049b 	cbz	w27, 3e94 <mpa_add+0xfc>
/home/lagadanu/Desktop/qemu/optee_os/lib/libmpa/mpa_addsub.c:276
    3e08:	aa0303e1 	mov	x1, x3
    3e0c:	9101a3a0 	add	x0, x29, #0x68
    3e10:	97fffce3 	bl	319c <mpa_alloc_static_temp_var>
/home/lagadanu/Desktop/qemu/optee_os/lib/libmpa/mpa_addsub.c:284
    3e14:	6b13039f 	cmp	w28, w19
    3e18:	910022f5 	add	x21, x23, #0x8
    3e1c:	91002313 	add	x19, x24, #0x8
    3e20:	540003e1 	b.ne	3e9c <mpa_add+0x104>
/home/lagadanu/Desktop/qemu/optee_os/lib/libmpa/mpa_addsub.c:286
    3e24:	f94037a0 	ldr	x0, [x29,#104]
    3e28:	2a1403e5 	mov	w5, w20
    3e2c:	aa1303e4 	mov	x4, x19
    3e30:	2a1603e3 	mov	w3, w22
    3e34:	91001001 	add	x1, x0, #0x4
    3e38:	aa1503e2 	mov	x2, x21
    3e3c:	91002000 	add	x0, x0, #0x8
    3e40:	97ffff25 	bl	3ad4 <__mpa_abs_add>
/home/lagadanu/Desktop/qemu/optee_os/lib/libmpa/mpa_addsub.c:289
    3e44:	3100079f 	cmn	w28, #0x1
    3e48:	540000a1 	b.ne	3e5c <mpa_add+0xc4>
/home/lagadanu/Desktop/qemu/optee_os/lib/libmpa/mpa_addsub.c:305
    3e4c:	f94037a1 	ldr	x1, [x29,#104]
    3e50:	b9400420 	ldr	w0, [x1,#4]
    3e54:	4b0003e0 	neg	w0, w0
    3e58:	b9000420 	str	w0, [x1,#4]
/home/lagadanu/Desktop/qemu/optee_os/lib/libmpa/mpa_addsub.c:324
    3e5c:	f94037a1 	ldr	x1, [x29,#104]
    3e60:	aa1903e0 	mov	x0, x25
    3e64:	97fff5ef 	bl	1620 <mpa_copy>
/home/lagadanu/Desktop/qemu/optee_os/lib/libmpa/mpa_addsub.c:325
    3e68:	3400009b 	cbz	w27, 3e78 <mpa_add+0xe0>
/home/lagadanu/Desktop/qemu/optee_os/lib/libmpa/mpa_addsub.c:326
    3e6c:	aa1a03e1 	mov	x1, x26
    3e70:	9101a3a0 	add	x0, x29, #0x68
    3e74:	97fffcce 	bl	31ac <mpa_free_static_temp_var>
/home/lagadanu/Desktop/qemu/optee_os/lib/libmpa/mpa_addsub.c:327
    3e78:	a94153f3 	ldp	x19, x20, [sp,#16]
    3e7c:	a9425bf5 	ldp	x21, x22, [sp,#32]
    3e80:	a94363f7 	ldp	x23, x24, [sp,#48]
    3e84:	a9446bf9 	ldp	x25, x26, [sp,#64]
    3e88:	a94573fb 	ldp	x27, x28, [sp,#80]
    3e8c:	a8c77bfd 	ldp	x29, x30, [sp],#112
    3e90:	d65f03c0 	ret
/home/lagadanu/Desktop/qemu/optee_os/lib/libmpa/mpa_addsub.c:278
    3e94:	f90037b9 	str	x25, [x29,#104]
    3e98:	17ffffdf 	b	3e14 <mpa_add+0x7c>
/home/lagadanu/Desktop/qemu/optee_os/lib/libmpa/mpa_addsub.c:294
    3e9c:	aa1803e1 	mov	x1, x24
    3ea0:	aa1703e0 	mov	x0, x23
/home/lagadanu/Desktop/qemu/optee_os/lib/libmpa/mpa_addsub.c:293
    3ea4:	7100079f 	cmp	w28, #0x1
    3ea8:	54000281 	b.ne	3ef8 <mpa_add+0x160>
/home/lagadanu/Desktop/qemu/optee_os/lib/libmpa/mpa_addsub.c:294
    3eac:	9400015b 	bl	4418 <__mpa_abs_greater_than>
    3eb0:	f94037a6 	ldr	x6, [x29,#104]
    3eb4:	34000120 	cbz	w0, 3ed8 <mpa_add+0x140>
/home/lagadanu/Desktop/qemu/optee_os/lib/libmpa/mpa_addsub.c:298
    3eb8:	2a1403e5 	mov	w5, w20
    3ebc:	aa1303e4 	mov	x4, x19
    3ec0:	2a1603e3 	mov	w3, w22
    3ec4:	aa1503e2 	mov	x2, x21
/home/lagadanu/Desktop/qemu/optee_os/lib/libmpa/mpa_addsub.c:318
    3ec8:	910010c1 	add	x1, x6, #0x4
    3ecc:	910020c0 	add	x0, x6, #0x8
    3ed0:	97ffff71 	bl	3c94 <__mpa_abs_sub>
    3ed4:	17ffffe2 	b	3e5c <mpa_add+0xc4>
/home/lagadanu/Desktop/qemu/optee_os/lib/libmpa/mpa_addsub.c:303
    3ed8:	2a1603e5 	mov	w5, w22
    3edc:	aa1503e4 	mov	x4, x21
    3ee0:	2a1403e3 	mov	w3, w20
    3ee4:	aa1303e2 	mov	x2, x19
    3ee8:	910010c1 	add	x1, x6, #0x4
    3eec:	910020c0 	add	x0, x6, #0x8
    3ef0:	97ffff69 	bl	3c94 <__mpa_abs_sub>
    3ef4:	17ffffd6 	b	3e4c <mpa_add+0xb4>
/home/lagadanu/Desktop/qemu/optee_os/lib/libmpa/mpa_addsub.c:309
    3ef8:	94000148 	bl	4418 <__mpa_abs_greater_than>
    3efc:	f94037a6 	ldr	x6, [x29,#104]
    3f00:	340000c0 	cbz	w0, 3f18 <mpa_add+0x180>
/home/lagadanu/Desktop/qemu/optee_os/lib/libmpa/mpa_addsub.c:313
    3f04:	2a1403e5 	mov	w5, w20
    3f08:	aa1303e4 	mov	x4, x19
    3f0c:	2a1603e3 	mov	w3, w22
    3f10:	aa1503e2 	mov	x2, x21
    3f14:	17fffff5 	b	3ee8 <mpa_add+0x150>
/home/lagadanu/Desktop/qemu/optee_os/lib/libmpa/mpa_addsub.c:318
    3f18:	2a1603e5 	mov	w5, w22
    3f1c:	aa1503e4 	mov	x4, x21
    3f20:	2a1403e3 	mov	w3, w20
    3f24:	aa1303e2 	mov	x2, x19
    3f28:	17ffffe8 	b	3ec8 <mpa_add+0x130>

0000000000003f2c <mpa_sub>:
mpa_sub():
/home/lagadanu/Desktop/qemu/optee_os/lib/libmpa/mpa_addsub.c:337
    3f2c:	a9b97bfd 	stp	x29, x30, [sp,#-112]!
    3f30:	910003fd 	mov	x29, sp
    3f34:	a90363f7 	stp	x23, x24, [sp,#48]
    3f38:	aa0203f8 	mov	x24, x2
/home/lagadanu/Desktop/qemu/optee_os/lib/libmpa/mpa_addsub.c:345
    3f3c:	b9400422 	ldr	w2, [x1,#4]
/home/lagadanu/Desktop/qemu/optee_os/lib/libmpa/mpa_addsub.c:337
    3f40:	aa0103f7 	mov	x23, x1
    3f44:	a90153f3 	stp	x19, x20, [sp,#16]
/home/lagadanu/Desktop/qemu/optee_os/lib/libmpa/mpa_addsub.c:346
    3f48:	b9400701 	ldr	w1, [x24,#4]
/home/lagadanu/Desktop/qemu/optee_os/lib/libmpa/mpa_addsub.c:345
    3f4c:	7100005f 	cmp	w2, #0x0
    3f50:	5a82a454 	cneg	w20, w2, lt
/home/lagadanu/Desktop/qemu/optee_os/lib/libmpa/mpa_addsub.c:337
    3f54:	a9046bf9 	stp	x25, x26, [sp,#64]
/home/lagadanu/Desktop/qemu/optee_os/lib/libmpa/mpa_addsub.c:346
    3f58:	7100003f 	cmp	w1, #0x0
/home/lagadanu/Desktop/qemu/optee_os/lib/libmpa/mpa_addsub.c:337
    3f5c:	aa0003f9 	mov	x25, x0
    3f60:	a9025bf5 	stp	x21, x22, [sp,#32]
/home/lagadanu/Desktop/qemu/optee_os/lib/libmpa/mpa_addsub.c:348
    3f64:	12800000 	mov	w0, #0xffffffff            	// #-1
/home/lagadanu/Desktop/qemu/optee_os/lib/libmpa/mpa_addsub.c:346
    3f68:	5a81a436 	cneg	w22, w1, lt
/home/lagadanu/Desktop/qemu/optee_os/lib/libmpa/mpa_addsub.c:348
    3f6c:	6b00005f 	cmp	w2, w0
/home/lagadanu/Desktop/qemu/optee_os/lib/libmpa/mpa_addsub.c:337
    3f70:	a90573fb 	stp	x27, x28, [sp,#80]
/home/lagadanu/Desktop/qemu/optee_os/lib/libmpa/mpa_addsub.c:348
    3f74:	5a80d41c 	cneg	w28, w0, gt
/home/lagadanu/Desktop/qemu/optee_os/lib/libmpa/mpa_addsub.c:349
    3f78:	6b00003f 	cmp	w1, w0
/home/lagadanu/Desktop/qemu/optee_os/lib/libmpa/mpa_addsub.c:337
    3f7c:	aa0303fa 	mov	x26, x3
/home/lagadanu/Desktop/qemu/optee_os/lib/libmpa/mpa_addsub.c:349
    3f80:	5a80d413 	cneg	w19, w0, gt
/home/lagadanu/Desktop/qemu/optee_os/lib/libmpa/mpa_addsub.c:352
    3f84:	eb1902ff 	cmp	x23, x25
    3f88:	1a9f17fb 	cset	w27, eq
    3f8c:	eb19031f 	cmp	x24, x25
    3f90:	1a9f17e0 	cset	w0, eq
    3f94:	2a00037b 	orr	w27, w27, w0
/home/lagadanu/Desktop/qemu/optee_os/lib/libmpa/mpa_addsub.c:353
    3f98:	3400049b 	cbz	w27, 4028 <mpa_sub+0xfc>
/home/lagadanu/Desktop/qemu/optee_os/lib/libmpa/mpa_addsub.c:354
    3f9c:	aa0303e1 	mov	x1, x3
    3fa0:	9101a3a0 	add	x0, x29, #0x68
    3fa4:	97fffc7e 	bl	319c <mpa_alloc_static_temp_var>
/home/lagadanu/Desktop/qemu/optee_os/lib/libmpa/mpa_addsub.c:362
    3fa8:	6b13039f 	cmp	w28, w19
    3fac:	91002315 	add	x21, x24, #0x8
    3fb0:	910022f3 	add	x19, x23, #0x8
    3fb4:	54000701 	b.ne	4094 <mpa_sub+0x168>
/home/lagadanu/Desktop/qemu/optee_os/lib/libmpa/mpa_addsub.c:364
    3fb8:	aa1803e1 	mov	x1, x24
    3fbc:	aa1703e0 	mov	x0, x23
/home/lagadanu/Desktop/qemu/optee_os/lib/libmpa/mpa_addsub.c:363
    3fc0:	7100079f 	cmp	w28, #0x1
    3fc4:	540004e1 	b.ne	4060 <mpa_sub+0x134>
/home/lagadanu/Desktop/qemu/optee_os/lib/libmpa/mpa_addsub.c:364
    3fc8:	94000114 	bl	4418 <__mpa_abs_greater_than>
    3fcc:	f94037a6 	ldr	x6, [x29,#104]
    3fd0:	34000300 	cbz	w0, 4030 <mpa_sub+0x104>
/home/lagadanu/Desktop/qemu/optee_os/lib/libmpa/mpa_addsub.c:367
    3fd4:	2a1603e5 	mov	w5, w22
    3fd8:	aa1503e4 	mov	x4, x21
    3fdc:	2a1403e3 	mov	w3, w20
    3fe0:	aa1303e2 	mov	x2, x19
/home/lagadanu/Desktop/qemu/optee_os/lib/libmpa/mpa_addsub.c:387
    3fe4:	910010c1 	add	x1, x6, #0x4
    3fe8:	910020c0 	add	x0, x6, #0x8
    3fec:	97ffff2a 	bl	3c94 <__mpa_abs_sub>
/home/lagadanu/Desktop/qemu/optee_os/lib/libmpa/mpa_addsub.c:404
    3ff0:	f94037a1 	ldr	x1, [x29,#104]
    3ff4:	aa1903e0 	mov	x0, x25
    3ff8:	97fff58a 	bl	1620 <mpa_copy>
/home/lagadanu/Desktop/qemu/optee_os/lib/libmpa/mpa_addsub.c:405
    3ffc:	3400009b 	cbz	w27, 400c <mpa_sub+0xe0>
/home/lagadanu/Desktop/qemu/optee_os/lib/libmpa/mpa_addsub.c:406
    4000:	aa1a03e1 	mov	x1, x26
    4004:	9101a3a0 	add	x0, x29, #0x68
    4008:	97fffc69 	bl	31ac <mpa_free_static_temp_var>
/home/lagadanu/Desktop/qemu/optee_os/lib/libmpa/mpa_addsub.c:407
    400c:	a94153f3 	ldp	x19, x20, [sp,#16]
    4010:	a9425bf5 	ldp	x21, x22, [sp,#32]
    4014:	a94363f7 	ldp	x23, x24, [sp,#48]
    4018:	a9446bf9 	ldp	x25, x26, [sp,#64]
    401c:	a94573fb 	ldp	x27, x28, [sp,#80]
    4020:	a8c77bfd 	ldp	x29, x30, [sp],#112
    4024:	d65f03c0 	ret
/home/lagadanu/Desktop/qemu/optee_os/lib/libmpa/mpa_addsub.c:356
    4028:	f90037b9 	str	x25, [x29,#104]
    402c:	17ffffdf 	b	3fa8 <mpa_sub+0x7c>
/home/lagadanu/Desktop/qemu/optee_os/lib/libmpa/mpa_addsub.c:371
    4030:	2a1403e5 	mov	w5, w20
    4034:	aa1303e4 	mov	x4, x19
    4038:	2a1603e3 	mov	w3, w22
    403c:	aa1503e2 	mov	x2, x21
/home/lagadanu/Desktop/qemu/optee_os/lib/libmpa/mpa_addsub.c:382
    4040:	910010c1 	add	x1, x6, #0x4
    4044:	910020c0 	add	x0, x6, #0x8
    4048:	97ffff13 	bl	3c94 <__mpa_abs_sub>
/home/lagadanu/Desktop/qemu/optee_os/lib/libmpa/mpa_addsub.c:400
    404c:	f94037a1 	ldr	x1, [x29,#104]
    4050:	b9400420 	ldr	w0, [x1,#4]
    4054:	4b0003e0 	neg	w0, w0
    4058:	b9000420 	str	w0, [x1,#4]
    405c:	17ffffe5 	b	3ff0 <mpa_sub+0xc4>
/home/lagadanu/Desktop/qemu/optee_os/lib/libmpa/mpa_addsub.c:378
    4060:	940000ee 	bl	4418 <__mpa_abs_greater_than>
    4064:	f94037a6 	ldr	x6, [x29,#104]
    4068:	340000c0 	cbz	w0, 4080 <mpa_sub+0x154>
/home/lagadanu/Desktop/qemu/optee_os/lib/libmpa/mpa_addsub.c:382
    406c:	2a1603e5 	mov	w5, w22
    4070:	aa1503e4 	mov	x4, x21
    4074:	2a1403e3 	mov	w3, w20
    4078:	aa1303e2 	mov	x2, x19
    407c:	17fffff1 	b	4040 <mpa_sub+0x114>
/home/lagadanu/Desktop/qemu/optee_os/lib/libmpa/mpa_addsub.c:387
    4080:	2a1403e5 	mov	w5, w20
    4084:	aa1303e4 	mov	x4, x19
    4088:	2a1603e3 	mov	w3, w22
    408c:	aa1503e2 	mov	x2, x21
    4090:	17ffffd5 	b	3fe4 <mpa_sub+0xb8>
    4094:	f94037a0 	ldr	x0, [x29,#104]
/home/lagadanu/Desktop/qemu/optee_os/lib/libmpa/mpa_addsub.c:394
    4098:	2a1603e5 	mov	w5, w22
    409c:	aa1503e4 	mov	x4, x21
    40a0:	2a1403e3 	mov	w3, w20
    40a4:	91001001 	add	x1, x0, #0x4
    40a8:	aa1303e2 	mov	x2, x19
/home/lagadanu/Desktop/qemu/optee_os/lib/libmpa/mpa_addsub.c:392
    40ac:	7100079f 	cmp	w28, #0x1
/home/lagadanu/Desktop/qemu/optee_os/lib/libmpa/mpa_addsub.c:394
    40b0:	91002000 	add	x0, x0, #0x8
/home/lagadanu/Desktop/qemu/optee_os/lib/libmpa/mpa_addsub.c:392
    40b4:	54000061 	b.ne	40c0 <mpa_sub+0x194>
/home/lagadanu/Desktop/qemu/optee_os/lib/libmpa/mpa_addsub.c:394
    40b8:	97fffe87 	bl	3ad4 <__mpa_abs_add>
    40bc:	17ffffcd 	b	3ff0 <mpa_sub+0xc4>
/home/lagadanu/Desktop/qemu/optee_os/lib/libmpa/mpa_addsub.c:398
    40c0:	97fffe85 	bl	3ad4 <__mpa_abs_add>
    40c4:	17ffffe2 	b	404c <mpa_sub+0x120>

00000000000040c8 <mpa_neg>:
mpa_neg():
/home/lagadanu/Desktop/qemu/optee_os/lib/libmpa/mpa_addsub.c:416
    40c8:	a9be7bfd 	stp	x29, x30, [sp,#-32]!
    40cc:	910003fd 	mov	x29, sp
    40d0:	f9000bf3 	str	x19, [sp,#16]
    40d4:	aa0003f3 	mov	x19, x0
/home/lagadanu/Desktop/qemu/optee_os/lib/libmpa/mpa_addsub.c:417
    40d8:	97fff552 	bl	1620 <mpa_copy>
/home/lagadanu/Desktop/qemu/optee_os/lib/libmpa/mpa_addsub.c:418
    40dc:	b9400660 	ldr	w0, [x19,#4]
    40e0:	4b0003e0 	neg	w0, w0
    40e4:	b9000660 	str	w0, [x19,#4]
/home/lagadanu/Desktop/qemu/optee_os/lib/libmpa/mpa_addsub.c:419
    40e8:	f9400bf3 	ldr	x19, [sp,#16]
    40ec:	a8c27bfd 	ldp	x29, x30, [sp],#32
    40f0:	d65f03c0 	ret

00000000000040f4 <mpa_add_word>:
mpa_add_word():
/home/lagadanu/Desktop/qemu/optee_os/lib/libmpa/mpa_addsub.c:428
    40f4:	a9ba7bfd 	stp	x29, x30, [sp,#-96]!
    40f8:	910003fd 	mov	x29, sp
    40fc:	a90153f3 	stp	x19, x20, [sp,#16]
    4100:	a9025bf5 	stp	x21, x22, [sp,#32]
    4104:	b9004fa2 	str	w2, [x29,#76]
    4108:	f9001bf7 	str	x23, [sp,#48]
/home/lagadanu/Desktop/qemu/optee_os/lib/libmpa/mpa_addsub.c:434
    410c:	350000e2 	cbnz	w2, 4128 <mpa_add_word+0x34>
/home/lagadanu/Desktop/qemu/optee_os/lib/libmpa/mpa_addsub.c:435
    4110:	97fff544 	bl	1620 <mpa_copy>
/home/lagadanu/Desktop/qemu/optee_os/lib/libmpa/mpa_addsub.c:478
    4114:	a94153f3 	ldp	x19, x20, [sp,#16]
    4118:	a9425bf5 	ldp	x21, x22, [sp,#32]
    411c:	f9401bf7 	ldr	x23, [sp,#48]
    4120:	a8c67bfd 	ldp	x29, x30, [sp],#96
    4124:	d65f03c0 	ret
    4128:	aa0303f6 	mov	x22, x3
/home/lagadanu/Desktop/qemu/optee_os/lib/libmpa/mpa_addsub.c:439
    412c:	b9400423 	ldr	w3, [x1,#4]
    4130:	aa0003f5 	mov	x21, x0
    4134:	aa0103f4 	mov	x20, x1
    4138:	35000083 	cbnz	w3, 4148 <mpa_add_word+0x54>
/home/lagadanu/Desktop/qemu/optee_os/lib/libmpa/mpa_addsub.c:440
    413c:	52800020 	mov	w0, #0x1                   	// #1
/home/lagadanu/Desktop/qemu/optee_os/lib/libmpa/mpa_addsub.c:441
    4140:	29008aa0 	stp	w0, w2, [x21,#4]
/home/lagadanu/Desktop/qemu/optee_os/lib/libmpa/mpa_addsub.c:442
    4144:	17fffff4 	b	4114 <mpa_add_word+0x20>
/home/lagadanu/Desktop/qemu/optee_os/lib/libmpa/mpa_addsub.c:445
    4148:	12800017 	mov	w23, #0xffffffff            	// #-1
    414c:	6b17007f 	cmp	w3, w23
    4150:	5a97d6f7 	cneg	w23, w23, gt
/home/lagadanu/Desktop/qemu/optee_os/lib/libmpa/mpa_addsub.c:446
    4154:	7100007f 	cmp	w3, #0x0
    4158:	5a83a473 	cneg	w19, w3, lt
/home/lagadanu/Desktop/qemu/optee_os/lib/libmpa/mpa_addsub.c:450
    415c:	eb00003f 	cmp	x1, x0
    4160:	540002e1 	b.ne	41bc <mpa_add_word+0xc8>
/home/lagadanu/Desktop/qemu/optee_os/lib/libmpa/mpa_addsub.c:451
    4164:	aa1603e1 	mov	x1, x22
    4168:	910163a0 	add	x0, x29, #0x58
    416c:	97fffc0c 	bl	319c <mpa_alloc_static_temp_var>
/home/lagadanu/Desktop/qemu/optee_os/lib/libmpa/mpa_addsub.c:456
    4170:	710006ff 	cmp	w23, #0x1
    4174:	f9402fa0 	ldr	x0, [x29,#88]
    4178:	54000261 	b.ne	41c4 <mpa_add_word+0xd0>
/home/lagadanu/Desktop/qemu/optee_os/lib/libmpa/mpa_addsub.c:458
    417c:	91001001 	add	x1, x0, #0x4
    4180:	2a1703e5 	mov	w5, w23
    4184:	910133a4 	add	x4, x29, #0x4c
    4188:	2a1303e3 	mov	w3, w19
    418c:	91002282 	add	x2, x20, #0x8
    4190:	91002000 	add	x0, x0, #0x8
    4194:	97fffe50 	bl	3ad4 <__mpa_abs_add>
/home/lagadanu/Desktop/qemu/optee_os/lib/libmpa/mpa_addsub.c:475
    4198:	f9402fa1 	ldr	x1, [x29,#88]
    419c:	aa1503e0 	mov	x0, x21
    41a0:	97fff520 	bl	1620 <mpa_copy>
/home/lagadanu/Desktop/qemu/optee_os/lib/libmpa/mpa_addsub.c:476
    41a4:	eb15029f 	cmp	x20, x21
    41a8:	54fffb61 	b.ne	4114 <mpa_add_word+0x20>
/home/lagadanu/Desktop/qemu/optee_os/lib/libmpa/mpa_addsub.c:477
    41ac:	aa1603e1 	mov	x1, x22
    41b0:	910163a0 	add	x0, x29, #0x58
    41b4:	97fffbfe 	bl	31ac <mpa_free_static_temp_var>
    41b8:	17ffffd7 	b	4114 <mpa_add_word+0x20>
/home/lagadanu/Desktop/qemu/optee_os/lib/libmpa/mpa_addsub.c:453
    41bc:	f9002fa0 	str	x0, [x29,#88]
    41c0:	17ffffec 	b	4170 <mpa_add_word+0x7c>
/home/lagadanu/Desktop/qemu/optee_os/lib/libmpa/mpa_addsub.c:461
    41c4:	b9400681 	ldr	w1, [x20,#4]
    41c8:	7100003f 	cmp	w1, #0x0
    41cc:	5a81a421 	cneg	w1, w1, lt
    41d0:	7100043f 	cmp	w1, #0x1
    41d4:	540000ac 	b.gt	41e8 <mpa_add_word+0xf4>
/home/lagadanu/Desktop/qemu/optee_os/lib/libmpa/mpa_addsub.c:461 (discriminator 1)
    41d8:	b9400a82 	ldr	w2, [x20,#8]
    41dc:	b9404fa1 	ldr	w1, [x29,#76]
    41e0:	6b01005f 	cmp	w2, w1
    41e4:	540001a9 	b.ls	4218 <mpa_add_word+0x124>
/home/lagadanu/Desktop/qemu/optee_os/lib/libmpa/mpa_addsub.c:465
    41e8:	91001001 	add	x1, x0, #0x4
    41ec:	52800025 	mov	w5, #0x1                   	// #1
    41f0:	91002000 	add	x0, x0, #0x8
    41f4:	910133a4 	add	x4, x29, #0x4c
    41f8:	2a1303e3 	mov	w3, w19
    41fc:	91002282 	add	x2, x20, #0x8
    4200:	97fffea5 	bl	3c94 <__mpa_abs_sub>
/home/lagadanu/Desktop/qemu/optee_os/lib/libmpa/mpa_addsub.c:467
    4204:	f9402fa1 	ldr	x1, [x29,#88]
    4208:	b9400420 	ldr	w0, [x1,#4]
    420c:	4b0003e0 	neg	w0, w0
    4210:	b9000420 	str	w0, [x1,#4]
    4214:	17ffffe1 	b	4198 <mpa_add_word+0xa4>
/home/lagadanu/Desktop/qemu/optee_os/lib/libmpa/mpa_addsub.c:470
    4218:	4b020021 	sub	w1, w1, w2
    421c:	b9000801 	str	w1, [x0,#8]
/home/lagadanu/Desktop/qemu/optee_os/lib/libmpa/mpa_addsub.c:471
    4220:	7100003f 	cmp	w1, #0x0
    4224:	1a9f07e1 	cset	w1, ne
    4228:	b9000401 	str	w1, [x0,#4]
    422c:	17ffffdb 	b	4198 <mpa_add_word+0xa4>

0000000000004230 <mpa_sub_word>:
mpa_sub_word():
/home/lagadanu/Desktop/qemu/optee_os/lib/libmpa/mpa_addsub.c:487
    4230:	a9ba7bfd 	stp	x29, x30, [sp,#-96]!
    4234:	910003fd 	mov	x29, sp
    4238:	a90153f3 	stp	x19, x20, [sp,#16]
    423c:	a9025bf5 	stp	x21, x22, [sp,#32]
    4240:	b9004fa2 	str	w2, [x29,#76]
    4244:	f9001bf7 	str	x23, [sp,#48]
/home/lagadanu/Desktop/qemu/optee_os/lib/libmpa/mpa_addsub.c:493
    4248:	350000e2 	cbnz	w2, 4264 <mpa_sub_word+0x34>
/home/lagadanu/Desktop/qemu/optee_os/lib/libmpa/mpa_addsub.c:494
    424c:	97fff4f5 	bl	1620 <mpa_copy>
/home/lagadanu/Desktop/qemu/optee_os/lib/libmpa/mpa_addsub.c:539
    4250:	a94153f3 	ldp	x19, x20, [sp,#16]
    4254:	a9425bf5 	ldp	x21, x22, [sp,#32]
    4258:	f9401bf7 	ldr	x23, [sp,#48]
    425c:	a8c67bfd 	ldp	x29, x30, [sp],#96
    4260:	d65f03c0 	ret
    4264:	aa0303f6 	mov	x22, x3
/home/lagadanu/Desktop/qemu/optee_os/lib/libmpa/mpa_addsub.c:498
    4268:	b9400423 	ldr	w3, [x1,#4]
    426c:	aa0003f5 	mov	x21, x0
    4270:	aa0103f4 	mov	x20, x1
/home/lagadanu/Desktop/qemu/optee_os/lib/libmpa/mpa_addsub.c:499
    4274:	12800000 	mov	w0, #0xffffffff            	// #-1
/home/lagadanu/Desktop/qemu/optee_os/lib/libmpa/mpa_addsub.c:498
    4278:	35000063 	cbnz	w3, 4284 <mpa_sub_word+0x54>
/home/lagadanu/Desktop/qemu/optee_os/lib/libmpa/mpa_addsub.c:500
    427c:	29008aa0 	stp	w0, w2, [x21,#4]
/home/lagadanu/Desktop/qemu/optee_os/lib/libmpa/mpa_addsub.c:501
    4280:	17fffff4 	b	4250 <mpa_sub_word+0x20>
/home/lagadanu/Desktop/qemu/optee_os/lib/libmpa/mpa_addsub.c:504
    4284:	6b00007f 	cmp	w3, w0
    4288:	5a80d417 	cneg	w23, w0, gt
/home/lagadanu/Desktop/qemu/optee_os/lib/libmpa/mpa_addsub.c:505
    428c:	7100007f 	cmp	w3, #0x0
    4290:	5a83a473 	cneg	w19, w3, lt
/home/lagadanu/Desktop/qemu/optee_os/lib/libmpa/mpa_addsub.c:509
    4294:	eb15003f 	cmp	x1, x21
    4298:	54000401 	b.ne	4318 <mpa_sub_word+0xe8>
/home/lagadanu/Desktop/qemu/optee_os/lib/libmpa/mpa_addsub.c:510
    429c:	aa1603e1 	mov	x1, x22
    42a0:	910163a0 	add	x0, x29, #0x58
    42a4:	97fffbbe 	bl	319c <mpa_alloc_static_temp_var>
/home/lagadanu/Desktop/qemu/optee_os/lib/libmpa/mpa_addsub.c:522
    42a8:	710006ff 	cmp	w23, #0x1
    42ac:	f9402fa0 	ldr	x0, [x29,#88]
    42b0:	54000441 	b.ne	4338 <mpa_sub_word+0x108>
/home/lagadanu/Desktop/qemu/optee_os/lib/libmpa/mpa_addsub.c:523
    42b4:	b9400681 	ldr	w1, [x20,#4]
    42b8:	7100003f 	cmp	w1, #0x0
    42bc:	5a81a421 	cneg	w1, w1, lt
    42c0:	7100043f 	cmp	w1, #0x1
    42c4:	540000ac 	b.gt	42d8 <mpa_sub_word+0xa8>
/home/lagadanu/Desktop/qemu/optee_os/lib/libmpa/mpa_addsub.c:523 (discriminator 1)
    42c8:	b9400a82 	ldr	w2, [x20,#8]
    42cc:	b9404fa1 	ldr	w1, [x29,#76]
    42d0:	6b01005f 	cmp	w2, w1
    42d4:	54000269 	b.ls	4320 <mpa_sub_word+0xf0>
/home/lagadanu/Desktop/qemu/optee_os/lib/libmpa/mpa_addsub.c:524
    42d8:	91001001 	add	x1, x0, #0x4
    42dc:	52800025 	mov	w5, #0x1                   	// #1
    42e0:	910133a4 	add	x4, x29, #0x4c
    42e4:	2a1303e3 	mov	w3, w19
    42e8:	91002282 	add	x2, x20, #0x8
    42ec:	91002000 	add	x0, x0, #0x8
    42f0:	97fffe69 	bl	3c94 <__mpa_abs_sub>
/home/lagadanu/Desktop/qemu/optee_os/lib/libmpa/mpa_addsub.c:536
    42f4:	f9402fa1 	ldr	x1, [x29,#88]
    42f8:	aa1503e0 	mov	x0, x21
    42fc:	97fff4c9 	bl	1620 <mpa_copy>
/home/lagadanu/Desktop/qemu/optee_os/lib/libmpa/mpa_addsub.c:537
    4300:	eb15029f 	cmp	x20, x21
    4304:	54fffa61 	b.ne	4250 <mpa_sub_word+0x20>
/home/lagadanu/Desktop/qemu/optee_os/lib/libmpa/mpa_addsub.c:538
    4308:	aa1603e1 	mov	x1, x22
    430c:	910163a0 	add	x0, x29, #0x58
    4310:	97fffba7 	bl	31ac <mpa_free_static_temp_var>
    4314:	17ffffcf 	b	4250 <mpa_sub_word+0x20>
/home/lagadanu/Desktop/qemu/optee_os/lib/libmpa/mpa_addsub.c:512
    4318:	f9002fb5 	str	x21, [x29,#88]
    431c:	17ffffe3 	b	42a8 <mpa_sub_word+0x78>
/home/lagadanu/Desktop/qemu/optee_os/lib/libmpa/mpa_addsub.c:527
    4320:	4b020021 	sub	w1, w1, w2
    4324:	b9000801 	str	w1, [x0,#8]
/home/lagadanu/Desktop/qemu/optee_os/lib/libmpa/mpa_addsub.c:528
    4328:	7100003f 	cmp	w1, #0x0
    432c:	5a9f03e1 	csetm	w1, ne
    4330:	b9000401 	str	w1, [x0,#4]
    4334:	17fffff0 	b	42f4 <mpa_sub_word+0xc4>
/home/lagadanu/Desktop/qemu/optee_os/lib/libmpa/mpa_addsub.c:531
    4338:	91001001 	add	x1, x0, #0x4
    433c:	52800025 	mov	w5, #0x1                   	// #1
    4340:	91002000 	add	x0, x0, #0x8
    4344:	910133a4 	add	x4, x29, #0x4c
    4348:	2a1303e3 	mov	w3, w19
    434c:	91002282 	add	x2, x20, #0x8
    4350:	97fffde1 	bl	3ad4 <__mpa_abs_add>
/home/lagadanu/Desktop/qemu/optee_os/lib/libmpa/mpa_addsub.c:533
    4354:	f9402fa1 	ldr	x1, [x29,#88]
    4358:	b9400420 	ldr	w0, [x1,#4]
    435c:	4b0003e0 	neg	w0, w0
    4360:	b9000420 	str	w0, [x1,#4]
    4364:	17ffffe4 	b	42f4 <mpa_sub_word+0xc4>

0000000000004368 <__mpa_abs_cmp>:
__mpa_abs_cmp():
/home/lagadanu/Desktop/qemu/optee_os/lib/libmpa/mpa_cmp.c:21
    4368:	aa0003e4 	mov	x4, x0
/home/lagadanu/Desktop/qemu/optee_os/lib/libmpa/mpa_cmp.c:26
    436c:	eb01001f 	cmp	x0, x1
    4370:	54000500 	b.eq	4410 <__mpa_abs_cmp+0xa8>
/home/lagadanu/Desktop/qemu/optee_os/lib/libmpa/mpa_cmp.c:30
    4374:	b9400482 	ldr	w2, [x4,#4]
    4378:	b9400420 	ldr	w0, [x1,#4]
    437c:	7100005f 	cmp	w2, #0x0
    4380:	5a82a443 	cneg	w3, w2, lt
    4384:	7100001f 	cmp	w0, #0x0
    4388:	5a80a405 	cneg	w5, w0, lt
    438c:	6b05007f 	cmp	w3, w5
    4390:	54000060 	b.eq	439c <__mpa_abs_cmp+0x34>
/home/lagadanu/Desktop/qemu/optee_os/lib/libmpa/mpa_cmp.c:31
    4394:	4b050060 	sub	w0, w3, w5
    4398:	d65f03c0 	ret
/home/lagadanu/Desktop/qemu/optee_os/lib/libmpa/mpa_cmp.c:33 (discriminator 1)
    439c:	2a000040 	orr	w0, w2, w0
    43a0:	340003a0 	cbz	w0, 4414 <__mpa_abs_cmp+0xac>
/home/lagadanu/Desktop/qemu/optee_os/lib/libmpa/mpa_cmp.c:37
    43a4:	51000462 	sub	w2, w3, #0x1
/home/lagadanu/Desktop/qemu/optee_os/lib/libmpa/mpa_cmp.c:38
    43a8:	52800025 	mov	w5, #0x1                   	// #1
    43ac:	93407c43 	sxtw	x3, w2
    43b0:	91000863 	add	x3, x3, #0x2
    43b4:	d37ef463 	lsl	x3, x3, #2
/home/lagadanu/Desktop/qemu/optee_os/lib/libmpa/mpa_cmp.c:39
    43b8:	2a2203e0 	mvn	w0, w2
    43bc:	6a407cbf 	tst	w5, w0, lsr #31
    43c0:	540001a1 	b.ne	43f4 <__mpa_abs_cmp+0x8c>
/home/lagadanu/Desktop/qemu/optee_os/lib/libmpa/mpa_cmp.c:27
    43c4:	52800000 	mov	w0, #0x0                   	// #0
/home/lagadanu/Desktop/qemu/optee_os/lib/libmpa/mpa_cmp.c:43
    43c8:	35000265 	cbnz	w5, 4414 <__mpa_abs_cmp+0xac>
/home/lagadanu/Desktop/qemu/optee_os/lib/libmpa/mpa_cmp.c:45
    43cc:	11000442 	add	w2, w2, #0x1
/home/lagadanu/Desktop/qemu/optee_os/lib/libmpa/mpa_cmp.c:46
    43d0:	12800000 	mov	w0, #0xffffffff            	// #-1
    43d4:	937e7c42 	sbfiz	x2, x2, #2, #32
    43d8:	8b020084 	add	x4, x4, x2
    43dc:	8b020022 	add	x2, x1, x2
    43e0:	b9400883 	ldr	w3, [x4,#8]
    43e4:	b9400841 	ldr	w1, [x2,#8]
    43e8:	6b01007f 	cmp	w3, w1
    43ec:	5a809400 	cneg	w0, w0, hi
    43f0:	d65f03c0 	ret
/home/lagadanu/Desktop/qemu/optee_os/lib/libmpa/mpa_cmp.c:40
    43f4:	b8636885 	ldr	w5, [x4,x3]
/home/lagadanu/Desktop/qemu/optee_os/lib/libmpa/mpa_cmp.c:41
    43f8:	51000442 	sub	w2, w2, #0x1
/home/lagadanu/Desktop/qemu/optee_os/lib/libmpa/mpa_cmp.c:40
    43fc:	b8636820 	ldr	w0, [x1,x3]
    4400:	d1001063 	sub	x3, x3, #0x4
    4404:	6b0000bf 	cmp	w5, w0
    4408:	1a9f17e5 	cset	w5, eq
    440c:	17ffffeb 	b	43b8 <__mpa_abs_cmp+0x50>
/home/lagadanu/Desktop/qemu/optee_os/lib/libmpa/mpa_cmp.c:27
    4410:	52800000 	mov	w0, #0x0                   	// #0
/home/lagadanu/Desktop/qemu/optee_os/lib/libmpa/mpa_cmp.c:47
    4414:	d65f03c0 	ret

0000000000004418 <__mpa_abs_greater_than>:
__mpa_abs_greater_than():
/home/lagadanu/Desktop/qemu/optee_os/lib/libmpa/mpa_cmp.c:55
    4418:	a9bf7bfd 	stp	x29, x30, [sp,#-16]!
    441c:	910003fd 	mov	x29, sp
/home/lagadanu/Desktop/qemu/optee_os/lib/libmpa/mpa_cmp.c:56
    4420:	97ffffd2 	bl	4368 <__mpa_abs_cmp>
    4424:	7100001f 	cmp	w0, #0x0
/home/lagadanu/Desktop/qemu/optee_os/lib/libmpa/mpa_cmp.c:57
    4428:	1a9fd7e0 	cset	w0, gt
    442c:	a8c17bfd 	ldp	x29, x30, [sp],#16
    4430:	d65f03c0 	ret

0000000000004434 <__mpa_abs_less_than>:
__mpa_abs_less_than():
/home/lagadanu/Desktop/qemu/optee_os/lib/libmpa/mpa_cmp.c:65
    4434:	a9bf7bfd 	stp	x29, x30, [sp,#-16]!
    4438:	910003fd 	mov	x29, sp
/home/lagadanu/Desktop/qemu/optee_os/lib/libmpa/mpa_cmp.c:66
    443c:	97ffffcb 	bl	4368 <__mpa_abs_cmp>
/home/lagadanu/Desktop/qemu/optee_os/lib/libmpa/mpa_cmp.c:67
    4440:	531f7c00 	lsr	w0, w0, #31
    4444:	a8c17bfd 	ldp	x29, x30, [sp],#16
    4448:	d65f03c0 	ret

000000000000444c <mpa_cmp>:
mpa_cmp():
/home/lagadanu/Desktop/qemu/optee_os/lib/libmpa/mpa_cmp.c:83
    444c:	a9be7bfd 	stp	x29, x30, [sp,#-32]!
/home/lagadanu/Desktop/qemu/optee_os/lib/libmpa/mpa_cmp.c:88
    4450:	12800002 	mov	w2, #0xffffffff            	// #-1
/home/lagadanu/Desktop/qemu/optee_os/lib/libmpa/mpa_cmp.c:83
    4454:	910003fd 	mov	x29, sp
/home/lagadanu/Desktop/qemu/optee_os/lib/libmpa/mpa_cmp.c:88
    4458:	b9400404 	ldr	w4, [x0,#4]
/home/lagadanu/Desktop/qemu/optee_os/lib/libmpa/mpa_cmp.c:89
    445c:	b9400423 	ldr	w3, [x1,#4]
/home/lagadanu/Desktop/qemu/optee_os/lib/libmpa/mpa_cmp.c:88
    4460:	6b02009f 	cmp	w4, w2
/home/lagadanu/Desktop/qemu/optee_os/lib/libmpa/mpa_cmp.c:83
    4464:	f9000bf3 	str	x19, [sp,#16]
/home/lagadanu/Desktop/qemu/optee_os/lib/libmpa/mpa_cmp.c:88
    4468:	5a82d453 	cneg	w19, w2, gt
/home/lagadanu/Desktop/qemu/optee_os/lib/libmpa/mpa_cmp.c:89
    446c:	6b02007f 	cmp	w3, w2
    4470:	5a82d442 	cneg	w2, w2, gt
    4474:	6b02027f 	cmp	w19, w2
    4478:	540000e1 	b.ne	4494 <mpa_cmp+0x48>
/home/lagadanu/Desktop/qemu/optee_os/lib/libmpa/mpa_cmp.c:93
    447c:	35000144 	cbnz	w4, 44a4 <mpa_cmp+0x58>
/home/lagadanu/Desktop/qemu/optee_os/lib/libmpa/mpa_cmp.c:94
    4480:	52800013 	mov	w19, #0x0                   	// #0
    4484:	34000083 	cbz	w3, 4494 <mpa_cmp+0x48>
/home/lagadanu/Desktop/qemu/optee_os/lib/libmpa/mpa_cmp.c:94 (discriminator 1)
    4488:	3100047f 	cmn	w3, #0x1
    448c:	52800026 	mov	w6, #0x1                   	// #1
    4490:	5a86d4d3 	cneg	w19, w6, gt
/home/lagadanu/Desktop/qemu/optee_os/lib/libmpa/mpa_cmp.c:104
    4494:	2a1303e0 	mov	w0, w19
    4498:	f9400bf3 	ldr	x19, [sp,#16]
    449c:	a8c27bfd 	ldp	x29, x30, [sp],#32
    44a0:	d65f03c0 	ret
/home/lagadanu/Desktop/qemu/optee_os/lib/libmpa/mpa_cmp.c:100
    44a4:	97ffffb1 	bl	4368 <__mpa_abs_cmp>
/home/lagadanu/Desktop/qemu/optee_os/lib/libmpa/mpa_cmp.c:102
    44a8:	7100067f 	cmp	w19, #0x1
    44ac:	5a800413 	cneg	w19, w0, ne
    44b0:	17fffff9 	b	4494 <mpa_cmp+0x48>

00000000000044b4 <mpa_cmp_short>:
mpa_cmp_short():
/home/lagadanu/Desktop/qemu/optee_os/lib/libmpa/mpa_cmp.c:122
    44b4:	b9400403 	ldr	w3, [x0,#4]
/home/lagadanu/Desktop/qemu/optee_os/lib/libmpa/mpa_cmp.c:115
    44b8:	aa0003e4 	mov	x4, x0
/home/lagadanu/Desktop/qemu/optee_os/lib/libmpa/mpa_cmp.c:122
    44bc:	37f80343 	tbnz	w3, #31, 4524 <mpa_cmp_short+0x70>
/home/lagadanu/Desktop/qemu/optee_os/lib/libmpa/mpa_cmp.c:123 (discriminator 4)
    44c0:	37f802a1 	tbnz	w1, #31, 4514 <mpa_cmp_short+0x60>
/home/lagadanu/Desktop/qemu/optee_os/lib/libmpa/mpa_cmp.c:126 (discriminator 4)
    44c4:	350000c3 	cbnz	w3, 44dc <mpa_cmp_short+0x28>
/home/lagadanu/Desktop/qemu/optee_os/lib/libmpa/mpa_cmp.c:127
    44c8:	52800000 	mov	w0, #0x0                   	// #0
    44cc:	34000341 	cbz	w1, 4534 <mpa_cmp_short+0x80>
/home/lagadanu/Desktop/qemu/optee_os/lib/libmpa/mpa_cmp.c:123
    44d0:	52800022 	mov	w2, #0x1                   	// #1
/home/lagadanu/Desktop/qemu/optee_os/lib/libmpa/mpa_cmp.c:127 (discriminator 1)
    44d4:	4b0203e0 	neg	w0, w2
    44d8:	d65f03c0 	ret
/home/lagadanu/Desktop/qemu/optee_os/lib/libmpa/mpa_cmp.c:122
    44dc:	52800020 	mov	w0, #0x1                   	// #1
/home/lagadanu/Desktop/qemu/optee_os/lib/libmpa/mpa_cmp.c:123
    44e0:	52800022 	mov	w2, #0x1                   	// #1
/home/lagadanu/Desktop/qemu/optee_os/lib/libmpa/mpa_cmp.c:130
    44e4:	7100007f 	cmp	w3, #0x0
    44e8:	5a83a463 	cneg	w3, w3, lt
/home/lagadanu/Desktop/qemu/optee_os/lib/libmpa/mpa_cmp.c:134
    44ec:	7100047f 	cmp	w3, #0x1
    44f0:	7a420000 	ccmp	w0, w2, #0x0, eq
    44f4:	54000201 	b.ne	4534 <mpa_cmp_short+0x80>
/home/lagadanu/Desktop/qemu/optee_os/lib/libmpa/mpa_cmp.c:139
    44f8:	7100003f 	cmp	w1, #0x0
/home/lagadanu/Desktop/qemu/optee_os/lib/libmpa/mpa_cmp.c:141
    44fc:	b9400882 	ldr	w2, [x4,#8]
/home/lagadanu/Desktop/qemu/optee_os/lib/libmpa/mpa_cmp.c:139
    4500:	5a81a421 	cneg	w1, w1, lt
/home/lagadanu/Desktop/qemu/optee_os/lib/libmpa/mpa_cmp.c:141
    4504:	6b02003f 	cmp	w1, w2
/home/lagadanu/Desktop/qemu/optee_os/lib/libmpa/mpa_cmp.c:144
    4508:	5a803400 	cneg	w0, w0, cs
    450c:	1a9f1000 	csel	w0, w0, wzr, ne
    4510:	d65f03c0 	ret
/home/lagadanu/Desktop/qemu/optee_os/lib/libmpa/mpa_cmp.c:123
    4514:	12800002 	mov	w2, #0xffffffff            	// #-1
/home/lagadanu/Desktop/qemu/optee_os/lib/libmpa/mpa_cmp.c:122
    4518:	52800020 	mov	w0, #0x1                   	// #1
/home/lagadanu/Desktop/qemu/optee_os/lib/libmpa/mpa_cmp.c:126
    451c:	34fffdc3 	cbz	w3, 44d4 <mpa_cmp_short+0x20>
    4520:	17fffff1 	b	44e4 <mpa_cmp_short+0x30>
/home/lagadanu/Desktop/qemu/optee_os/lib/libmpa/mpa_cmp.c:122
    4524:	12800000 	mov	w0, #0xffffffff            	// #-1
/home/lagadanu/Desktop/qemu/optee_os/lib/libmpa/mpa_cmp.c:123
    4528:	2a0003e2 	mov	w2, w0
    452c:	36fffda1 	tbz	w1, #31, 44e0 <mpa_cmp_short+0x2c>
    4530:	17ffffed 	b	44e4 <mpa_cmp_short+0x30>
/home/lagadanu/Desktop/qemu/optee_os/lib/libmpa/mpa_cmp.c:149
    4534:	d65f03c0 	ret

0000000000004538 <mpa_exp_mod>:
mpa_exp_mod():
/home/lagadanu/Desktop/qemu/optee_os/lib/libmpa/mpa_expmod.c:29
    4538:	a9b67bfd 	stp	x29, x30, [sp,#-160]!
    453c:	910003fd 	mov	x29, sp
    4540:	a90573fb 	stp	x27, x28, [sp,#80]
/home/lagadanu/Desktop/qemu/optee_os/lib/libmpa/mpa_expmod.c:40
    4544:	910203bc 	add	x28, x29, #0x80
/home/lagadanu/Desktop/qemu/optee_os/lib/libmpa/mpa_expmod.c:29
    4548:	a90153f3 	stp	x19, x20, [sp,#16]
/home/lagadanu/Desktop/qemu/optee_os/lib/libmpa/mpa_expmod.c:41
    454c:	910223bb 	add	x27, x29, #0x88
/home/lagadanu/Desktop/qemu/optee_os/lib/libmpa/mpa_expmod.c:29
    4550:	aa0703f3 	mov	x19, x7
    4554:	aa0403f4 	mov	x20, x4
    4558:	a9060ba0 	stp	x0, x2, [x29,#96]
/home/lagadanu/Desktop/qemu/optee_os/lib/libmpa/mpa_expmod.c:40
    455c:	aa1c03e0 	mov	x0, x28
/home/lagadanu/Desktop/qemu/optee_os/lib/libmpa/mpa_expmod.c:29
    4560:	a9025bf5 	stp	x21, x22, [sp,#32]
    4564:	2a0603f6 	mov	w22, w6
    4568:	aa0303f5 	mov	x21, x3
    456c:	a90363f7 	stp	x23, x24, [sp,#48]
    4570:	a9046bf9 	stp	x25, x26, [sp,#64]
    4574:	aa0503f8 	mov	x24, x5
    4578:	aa0103f7 	mov	x23, x1
/home/lagadanu/Desktop/qemu/optee_os/lib/libmpa/mpa_expmod.c:40
    457c:	aa0703e1 	mov	x1, x7
    4580:	97fffb07 	bl	319c <mpa_alloc_static_temp_var>
/home/lagadanu/Desktop/qemu/optee_os/lib/libmpa/mpa_expmod.c:53
    4584:	aa1c03fa 	mov	x26, x28
/home/lagadanu/Desktop/qemu/optee_os/lib/libmpa/mpa_expmod.c:41
    4588:	aa1303e1 	mov	x1, x19
    458c:	aa1b03e0 	mov	x0, x27
    4590:	97fffb03 	bl	319c <mpa_alloc_static_temp_var>
/home/lagadanu/Desktop/qemu/optee_os/lib/libmpa/mpa_expmod.c:42
    4594:	910243a0 	add	x0, x29, #0x90
    4598:	aa1303e1 	mov	x1, x19
    459c:	f9003fa0 	str	x0, [x29,#120]
    45a0:	97fffaff 	bl	319c <mpa_alloc_static_temp_var>
/home/lagadanu/Desktop/qemu/optee_os/lib/libmpa/mpa_expmod.c:43
    45a4:	910263a0 	add	x0, x29, #0x98
    45a8:	aa1303e1 	mov	x1, x19
    45ac:	f9003ba0 	str	x0, [x29,#112]
    45b0:	97fffafb 	bl	319c <mpa_alloc_static_temp_var>
/home/lagadanu/Desktop/qemu/optee_os/lib/libmpa/mpa_expmod.c:49
    45b4:	f9404ba0 	ldr	x0, [x29,#144]
    45b8:	aa1803e2 	mov	x2, x24
    45bc:	2a1603e4 	mov	w4, w22
    45c0:	aa1503e3 	mov	x3, x21
    45c4:	aa1703e1 	mov	x1, x23
    45c8:	97fff4a8 	bl	1868 <__mpa_montgomery_mul>
/home/lagadanu/Desktop/qemu/optee_os/lib/libmpa/mpa_expmod.c:51
    45cc:	f94043a0 	ldr	x0, [x29,#128]
    45d0:	aa1403e1 	mov	x1, x20
/home/lagadanu/Desktop/qemu/optee_os/lib/libmpa/mpa_expmod.c:54
    45d4:	aa1b03f4 	mov	x20, x27
/home/lagadanu/Desktop/qemu/optee_os/lib/libmpa/mpa_expmod.c:51
    45d8:	97fff412 	bl	1620 <mpa_copy>
/home/lagadanu/Desktop/qemu/optee_os/lib/libmpa/mpa_expmod.c:58
    45dc:	f94043a0 	ldr	x0, [x29,#128]
    45e0:	97fff3fb 	bl	15cc <__mpa_set_unused_digits_to_zero>
/home/lagadanu/Desktop/qemu/optee_os/lib/libmpa/mpa_expmod.c:59
    45e4:	f9404ba0 	ldr	x0, [x29,#144]
    45e8:	97fff3f9 	bl	15cc <__mpa_set_unused_digits_to_zero>
/home/lagadanu/Desktop/qemu/optee_os/lib/libmpa/mpa_expmod.c:61
    45ec:	f94037a0 	ldr	x0, [x29,#104]
    45f0:	97fff42d 	bl	16a4 <mpa_highest_bit_index>
    45f4:	2a0003f8 	mov	w24, w0
/home/lagadanu/Desktop/qemu/optee_os/lib/libmpa/mpa_expmod.c:55
    45f8:	a9475fb9 	ldp	x25, x23, [x29,#112]
/home/lagadanu/Desktop/qemu/optee_os/lib/libmpa/mpa_expmod.c:61 (discriminator 1)
    45fc:	36f803d8 	tbz	w24, #31, 4674 <mpa_exp_mod+0x13c>
/home/lagadanu/Desktop/qemu/optee_os/lib/libmpa/mpa_expmod.c:89
    4600:	90000021 	adrp	x1, 8000 <PRIME_TABLE+0xb30>
    4604:	f9400342 	ldr	x2, [x26]
    4608:	f9400280 	ldr	x0, [x20]
    460c:	2a1603e4 	mov	w4, w22
    4610:	f9459c21 	ldr	x1, [x1,#2872]
    4614:	aa1503e3 	mov	x3, x21
    4618:	97fff494 	bl	1868 <__mpa_montgomery_mul>
/home/lagadanu/Desktop/qemu/optee_os/lib/libmpa/mpa_expmod.c:92
    461c:	f9400281 	ldr	x1, [x20]
    4620:	f94033a0 	ldr	x0, [x29,#96]
    4624:	97fff3ff 	bl	1620 <mpa_copy>
/home/lagadanu/Desktop/qemu/optee_os/lib/libmpa/mpa_expmod.c:94
    4628:	aa1303e1 	mov	x1, x19
    462c:	aa1c03e0 	mov	x0, x28
    4630:	97fffadf 	bl	31ac <mpa_free_static_temp_var>
/home/lagadanu/Desktop/qemu/optee_os/lib/libmpa/mpa_expmod.c:95
    4634:	aa1303e1 	mov	x1, x19
    4638:	aa1b03e0 	mov	x0, x27
    463c:	97fffadc 	bl	31ac <mpa_free_static_temp_var>
/home/lagadanu/Desktop/qemu/optee_os/lib/libmpa/mpa_expmod.c:96
    4640:	f9403fa0 	ldr	x0, [x29,#120]
    4644:	aa1303e1 	mov	x1, x19
    4648:	97fffad9 	bl	31ac <mpa_free_static_temp_var>
/home/lagadanu/Desktop/qemu/optee_os/lib/libmpa/mpa_expmod.c:97
    464c:	f9403ba0 	ldr	x0, [x29,#112]
    4650:	aa1303e1 	mov	x1, x19
    4654:	97fffad6 	bl	31ac <mpa_free_static_temp_var>
/home/lagadanu/Desktop/qemu/optee_os/lib/libmpa/mpa_expmod.c:98
    4658:	a94153f3 	ldp	x19, x20, [sp,#16]
    465c:	a9425bf5 	ldp	x21, x22, [sp,#32]
    4660:	a94363f7 	ldp	x23, x24, [sp,#48]
    4664:	a9446bf9 	ldp	x25, x26, [sp,#64]
    4668:	a94573fb 	ldp	x27, x28, [sp,#80]
    466c:	a8ca7bfd 	ldp	x29, x30, [sp],#160
    4670:	d65f03c0 	ret
/home/lagadanu/Desktop/qemu/optee_os/lib/libmpa/mpa_expmod.c:62
    4674:	f94037a0 	ldr	x0, [x29,#104]
    4678:	2a1803e1 	mov	w1, w24
    467c:	97fff41b 	bl	16e8 <mpa_get_bit>
/home/lagadanu/Desktop/qemu/optee_os/lib/libmpa/mpa_expmod.c:64
    4680:	2a1603e4 	mov	w4, w22
    4684:	aa1503e3 	mov	x3, x21
    4688:	f94002e2 	ldr	x2, [x23]
    468c:	f9400341 	ldr	x1, [x26]
/home/lagadanu/Desktop/qemu/optee_os/lib/libmpa/mpa_expmod.c:62
    4690:	35000220 	cbnz	w0, 46d4 <mpa_exp_mod+0x19c>
/home/lagadanu/Desktop/qemu/optee_os/lib/libmpa/mpa_expmod.c:64
    4694:	f9400320 	ldr	x0, [x25]
    4698:	97fff474 	bl	1868 <__mpa_montgomery_mul>
/home/lagadanu/Desktop/qemu/optee_os/lib/libmpa/mpa_expmod.c:68
    469c:	f9400342 	ldr	x2, [x26]
    46a0:	2a1603e4 	mov	w4, w22
    46a4:	f9400280 	ldr	x0, [x20]
    46a8:	aa1503e3 	mov	x3, x21
    46ac:	aa0203e1 	mov	x1, x2
/home/lagadanu/Desktop/qemu/optee_os/lib/libmpa/mpa_expmod.c:76
    46b0:	97fff46e 	bl	1868 <__mpa_montgomery_mul>
/home/lagadanu/Desktop/qemu/optee_os/lib/libmpa/mpa_expmod.c:61
    46b4:	51000718 	sub	w24, w24, #0x1
    46b8:	aa1703e0 	mov	x0, x23
    46bc:	aa1903f7 	mov	x23, x25
    46c0:	aa0003f9 	mov	x25, x0
    46c4:	aa1a03e0 	mov	x0, x26
    46c8:	aa1403fa 	mov	x26, x20
    46cc:	aa0003f4 	mov	x20, x0
    46d0:	17ffffcb 	b	45fc <mpa_exp_mod+0xc4>
/home/lagadanu/Desktop/qemu/optee_os/lib/libmpa/mpa_expmod.c:72
    46d4:	f9400280 	ldr	x0, [x20]
    46d8:	97fff464 	bl	1868 <__mpa_montgomery_mul>
/home/lagadanu/Desktop/qemu/optee_os/lib/libmpa/mpa_expmod.c:76
    46dc:	f94002e2 	ldr	x2, [x23]
    46e0:	2a1603e4 	mov	w4, w22
    46e4:	aa1503e3 	mov	x3, x21
    46e8:	f9400320 	ldr	x0, [x25]
    46ec:	aa0203e1 	mov	x1, x2
    46f0:	17fffff0 	b	46b0 <mpa_exp_mod+0x178>

00000000000046f4 <mpa_init_static>:
mpa_init_static():
/home/lagadanu/Desktop/qemu/optee_os/lib/libmpa/mpa_init.c:13
    46f4:	531e7421 	lsl	w1, w1, #2
    46f8:	51002021 	sub	w1, w1, #0x8
    46fc:	d3427c21 	ubfx	x1, x1, #2, #30
/home/lagadanu/Desktop/qemu/optee_os/lib/libmpa/mpa_init.c:14
    4700:	29007c01 	stp	w1, wzr, [x0]
/home/lagadanu/Desktop/qemu/optee_os/lib/libmpa/mpa_init.c:15
    4704:	b4000041 	cbz	x1, 470c <mpa_init_static+0x18>
/home/lagadanu/Desktop/qemu/optee_os/lib/libmpa/mpa_init.c:16
    4708:	b900081f 	str	wzr, [x0,#8]
    470c:	d65f03c0 	ret

0000000000004710 <mpa_init_static_fmm_context>:
mpa_init_static_fmm_context():
/home/lagadanu/Desktop/qemu/optee_os/lib/libmpa/mpa_init.c:25
    4710:	a9bd7bfd 	stp	x29, x30, [sp,#-48]!
    4714:	910003fd 	mov	x29, sp
    4718:	a90153f3 	stp	x19, x20, [sp,#16]
/home/lagadanu/Desktop/qemu/optee_os/lib/libmpa/mpa_init.c:29
    471c:	531e7433 	lsl	w19, w1, #2
    4720:	51006273 	sub	w19, w19, #0x18
/home/lagadanu/Desktop/qemu/optee_os/lib/libmpa/mpa_init.c:32
    4724:	91005014 	add	x20, x0, #0x14
/home/lagadanu/Desktop/qemu/optee_os/lib/libmpa/mpa_init.c:25
    4728:	f90013f5 	str	x21, [sp,#32]
/home/lagadanu/Desktop/qemu/optee_os/lib/libmpa/mpa_init.c:32
    472c:	52800001 	mov	w1, #0x0                   	// #0
/home/lagadanu/Desktop/qemu/optee_os/lib/libmpa/mpa_init.c:29
    4730:	d3427e73 	ubfx	x19, x19, #2, #30
/home/lagadanu/Desktop/qemu/optee_os/lib/libmpa/mpa_init.c:25
    4734:	aa0003f5 	mov	x21, x0
/home/lagadanu/Desktop/qemu/optee_os/lib/libmpa/mpa_init.c:32
    4738:	d37ef662 	lsl	x2, x19, #2
    473c:	aa1403e0 	mov	x0, x20
/home/lagadanu/Desktop/qemu/optee_os/lib/libmpa/mpa_init.c:33
    4740:	53017e73 	lsr	w19, w19, #1
/home/lagadanu/Desktop/qemu/optee_os/lib/libmpa/mpa_init.c:32
    4744:	94000712 	bl	638c <memset>
/home/lagadanu/Desktop/qemu/optee_os/lib/libmpa/mpa_init.c:40
    4748:	51000a61 	sub	w1, w19, #0x2
/home/lagadanu/Desktop/qemu/optee_os/lib/libmpa/mpa_init.c:43
    474c:	d37e7273 	ubfiz	x19, x19, #2, #29
    4750:	8b130280 	add	x0, x20, x19
/home/lagadanu/Desktop/qemu/optee_os/lib/libmpa/mpa_init.c:39
    4754:	290206bf 	stp	wzr, w1, [x21,#16]
/home/lagadanu/Desktop/qemu/optee_os/lib/libmpa/mpa_init.c:43
    4758:	a90002b4 	stp	x20, x0, [x21]
/home/lagadanu/Desktop/qemu/optee_os/lib/libmpa/mpa_init.c:41
    475c:	b9001abf 	str	wzr, [x21,#24]
/home/lagadanu/Desktop/qemu/optee_os/lib/libmpa/mpa_init.c:44
    4760:	b8336a81 	str	w1, [x20,x19]
/home/lagadanu/Desktop/qemu/optee_os/lib/libmpa/mpa_init.c:47
    4764:	f94013f5 	ldr	x21, [sp,#32]
    4768:	a94153f3 	ldp	x19, x20, [sp,#16]
/home/lagadanu/Desktop/qemu/optee_os/lib/libmpa/mpa_init.c:46
    476c:	b900041f 	str	wzr, [x0,#4]
/home/lagadanu/Desktop/qemu/optee_os/lib/libmpa/mpa_init.c:47
    4770:	a8c37bfd 	ldp	x29, x30, [sp],#48
    4774:	d65f03c0 	ret

0000000000004778 <__mpa_word_to_hexstr>:
__mpa_word_to_hexstr():
/home/lagadanu/Desktop/qemu/optee_os/lib/libmpa/mpa_io.c:107
    4778:	d28000e4 	mov	x4, #0x7                   	// #7
/home/lagadanu/Desktop/qemu/optee_os/lib/libmpa/mpa_io.c:111 (discriminator 3)
    477c:	531e7483 	lsl	w3, w4, #2
    4780:	1ac32423 	lsr	w3, w1, w3
    4784:	12000c63 	and	w3, w3, #0xf
__mpa_nibble_to_char():
/home/lagadanu/Desktop/qemu/optee_os/lib/libmpa/mpa_io.c:96 (discriminator 3)
    4788:	7100247f 	cmp	w3, #0x9
    478c:	540000e8 	b.hi	47a8 <__mpa_word_to_hexstr+0x30>
/home/lagadanu/Desktop/qemu/optee_os/lib/libmpa/mpa_io.c:97
    4790:	1100c063 	add	w3, w3, #0x30
__mpa_word_to_hexstr():
/home/lagadanu/Desktop/qemu/optee_os/lib/libmpa/mpa_io.c:110
    4794:	38246803 	strb	w3, [x0,x4]
    4798:	d1000484 	sub	x4, x4, #0x1
/home/lagadanu/Desktop/qemu/optee_os/lib/libmpa/mpa_io.c:109
    479c:	b100049f 	cmn	x4, #0x1
    47a0:	54fffee1 	b.ne	477c <__mpa_word_to_hexstr+0x4>
/home/lagadanu/Desktop/qemu/optee_os/lib/libmpa/mpa_io.c:113
    47a4:	d65f03c0 	ret
__mpa_nibble_to_char():
/home/lagadanu/Desktop/qemu/optee_os/lib/libmpa/mpa_io.c:98
    47a8:	1100dc65 	add	w5, w3, #0x37
    47ac:	7100005f 	cmp	w2, #0x0
    47b0:	11015c63 	add	w3, w3, #0x57
    47b4:	1a851063 	csel	w3, w3, w5, ne
    47b8:	17fffff7 	b	4794 <__mpa_word_to_hexstr+0x1c>

00000000000047bc <__mpa_mpanum_to_hexstr>:
__mpa_mpanum_to_hexstr():
/home/lagadanu/Desktop/qemu/optee_os/lib/libmpa/mpa_io.c:129
    47bc:	b9400447 	ldr	w7, [x2,#4]
/home/lagadanu/Desktop/qemu/optee_os/lib/libmpa/mpa_io.c:130
    47c0:	710000ff 	cmp	w7, #0x0
    47c4:	540000c1 	b.ne	47dc <__mpa_mpanum_to_hexstr+0x20>
/home/lagadanu/Desktop/qemu/optee_os/lib/libmpa/mpa_io.c:131
    47c8:	52800601 	mov	w1, #0x30                  	// #48
/home/lagadanu/Desktop/qemu/optee_os/lib/libmpa/mpa_io.c:132
    47cc:	3900041f 	strb	wzr, [x0,#1]
/home/lagadanu/Desktop/qemu/optee_os/lib/libmpa/mpa_io.c:131
    47d0:	39000001 	strb	w1, [x0]
/home/lagadanu/Desktop/qemu/optee_os/lib/libmpa/mpa_io.c:133
    47d4:	52800020 	mov	w0, #0x1                   	// #1
    47d8:	d65f03c0 	ret
/home/lagadanu/Desktop/qemu/optee_os/lib/libmpa/mpa_io.c:121
    47dc:	a9bb7bfd 	stp	x29, x30, [sp,#-80]!
    47e0:	910003fd 	mov	x29, sp
    47e4:	a9025bf5 	stp	x21, x22, [sp,#32]
/home/lagadanu/Desktop/qemu/optee_os/lib/libmpa/mpa_io.c:129
    47e8:	5a87a4f6 	cneg	w22, w7, lt
    47ec:	aa0003f5 	mov	x21, x0
/home/lagadanu/Desktop/qemu/optee_os/lib/libmpa/mpa_io.c:135
    47f0:	510006c0 	sub	w0, w22, #0x1
/home/lagadanu/Desktop/qemu/optee_os/lib/libmpa/mpa_io.c:141
    47f4:	8b20c840 	add	x0, x2, w0, sxtw #2
/home/lagadanu/Desktop/qemu/optee_os/lib/libmpa/mpa_io.c:121
    47f8:	a90363f7 	stp	x23, x24, [sp,#48]
    47fc:	aa0203f8 	mov	x24, x2
    4800:	2a0103f7 	mov	w23, w1
/home/lagadanu/Desktop/qemu/optee_os/lib/libmpa/mpa_io.c:141
    4804:	2a0103e2 	mov	w2, w1
/home/lagadanu/Desktop/qemu/optee_os/lib/libmpa/mpa_io.c:121
    4808:	a90153f3 	stp	x19, x20, [sp,#16]
/home/lagadanu/Desktop/qemu/optee_os/lib/libmpa/mpa_io.c:141
    480c:	b9400801 	ldr	w1, [x0,#8]
    4810:	910123b4 	add	x20, x29, #0x48
    4814:	aa1403e0 	mov	x0, x20
    4818:	97ffffd8 	bl	4778 <__mpa_word_to_hexstr>
/home/lagadanu/Desktop/qemu/optee_os/lib/libmpa/mpa_io.c:145
    481c:	d28000e6 	mov	x6, #0x7                   	// #7
    4820:	93407cc0 	sxtw	x0, w6
    4824:	b10004df 	cmn	x6, #0x1
    4828:	54000181 	b.ne	4858 <__mpa_mpanum_to_hexstr+0x9c>
    482c:	aa1503f3 	mov	x19, x21
/home/lagadanu/Desktop/qemu/optee_os/lib/libmpa/mpa_io.c:152
    4830:	51000ac7 	sub	w7, w22, #0x2
    4834:	93407cf6 	sxtw	x22, w7
/home/lagadanu/Desktop/qemu/optee_os/lib/libmpa/mpa_io.c:153
    4838:	36f802f6 	tbz	w22, #31, 4894 <__mpa_mpanum_to_hexstr+0xd8>
/home/lagadanu/Desktop/qemu/optee_os/lib/libmpa/mpa_io.c:161
    483c:	3900027f 	strb	wzr, [x19]
/home/lagadanu/Desktop/qemu/optee_os/lib/libmpa/mpa_io.c:160
    4840:	4b150260 	sub	w0, w19, w21
/home/lagadanu/Desktop/qemu/optee_os/lib/libmpa/mpa_io.c:163
    4844:	a94153f3 	ldp	x19, x20, [sp,#16]
    4848:	a9425bf5 	ldp	x21, x22, [sp,#32]
    484c:	a94363f7 	ldp	x23, x24, [sp,#48]
    4850:	a8c57bfd 	ldp	x29, x30, [sp],#80
    4854:	d65f03c0 	ret
/home/lagadanu/Desktop/qemu/optee_os/lib/libmpa/mpa_io.c:146
    4858:	38666a82 	ldrb	w2, [x20,x6]
    485c:	d10004c1 	sub	x1, x6, #0x1
    4860:	7100c05f 	cmp	w2, #0x30
    4864:	540000c0 	b.eq	487c <__mpa_mpanum_to_hexstr+0xc0>
    4868:	aa1503e1 	mov	x1, x21
/home/lagadanu/Desktop/qemu/optee_os/lib/libmpa/mpa_io.c:148
    486c:	36f800c0 	tbz	w0, #31, 4884 <__mpa_mpanum_to_hexstr+0xc8>
    4870:	110004c6 	add	w6, w6, #0x1
    4874:	8b0602b3 	add	x19, x21, x6
    4878:	17ffffee 	b	4830 <__mpa_mpanum_to_hexstr+0x74>
    487c:	aa0103e6 	mov	x6, x1
    4880:	17ffffe8 	b	4820 <__mpa_mpanum_to_hexstr+0x64>
/home/lagadanu/Desktop/qemu/optee_os/lib/libmpa/mpa_io.c:149
    4884:	38606a82 	ldrb	w2, [x20,x0]
    4888:	d1000400 	sub	x0, x0, #0x1
    488c:	38001422 	strb	w2, [x1],#1
    4890:	17fffff7 	b	486c <__mpa_mpanum_to_hexstr+0xb0>
/home/lagadanu/Desktop/qemu/optee_os/lib/libmpa/mpa_io.c:154
    4894:	8b160b00 	add	x0, x24, x22, lsl #2
    4898:	2a1703e2 	mov	w2, w23
    489c:	b9400801 	ldr	w1, [x0,#8]
    48a0:	aa1403e0 	mov	x0, x20
    48a4:	97ffffb5 	bl	4778 <__mpa_word_to_hexstr>
    48a8:	d28000e0 	mov	x0, #0x7                   	// #7
/home/lagadanu/Desktop/qemu/optee_os/lib/libmpa/mpa_io.c:157
    48ac:	cb000261 	sub	x1, x19, x0
    48b0:	38606a82 	ldrb	w2, [x20,x0]
    48b4:	d1000400 	sub	x0, x0, #0x1
/home/lagadanu/Desktop/qemu/optee_os/lib/libmpa/mpa_io.c:156
    48b8:	b100041f 	cmn	x0, #0x1
/home/lagadanu/Desktop/qemu/optee_os/lib/libmpa/mpa_io.c:157
    48bc:	39001c22 	strb	w2, [x1,#7]
/home/lagadanu/Desktop/qemu/optee_os/lib/libmpa/mpa_io.c:156
    48c0:	54ffff61 	b.ne	48ac <__mpa_mpanum_to_hexstr+0xf0>
    48c4:	91002273 	add	x19, x19, #0x8
    48c8:	d10006d6 	sub	x22, x22, #0x1
    48cc:	17ffffdb 	b	4838 <__mpa_mpanum_to_hexstr+0x7c>

00000000000048d0 <__mpa_isspace>:
__mpa_isspace():
/home/lagadanu/Desktop/qemu/optee_os/lib/libmpa/mpa_io.c:27
    48d0:	12001c02 	and	w2, w0, #0xff
/home/lagadanu/Desktop/qemu/optee_os/lib/libmpa/mpa_io.c:28
    48d4:	71017c5f 	cmp	w2, #0x5f
    48d8:	1a9f17e1 	cset	w1, eq
/home/lagadanu/Desktop/qemu/optee_os/lib/libmpa/mpa_io.c:30
    48dc:	7100805f 	cmp	w2, #0x20
    48e0:	1a9f17e0 	cset	w0, eq
/home/lagadanu/Desktop/qemu/optee_os/lib/libmpa/mpa_io.c:28
    48e4:	2a000020 	orr	w0, w1, w0
/home/lagadanu/Desktop/qemu/optee_os/lib/libmpa/mpa_io.c:32
    48e8:	35000100 	cbnz	w0, 4908 <__mpa_isspace+0x38>
    48ec:	51002440 	sub	w0, w2, #0x9
    48f0:	12001c00 	and	w0, w0, #0xff
    48f4:	7100041f 	cmp	w0, #0x1
    48f8:	1a9f87e1 	cset	w1, ls
    48fc:	7100345f 	cmp	w2, #0xd
    4900:	1a9f17e0 	cset	w0, eq
    4904:	2a000020 	orr	w0, w1, w0
/home/lagadanu/Desktop/qemu/optee_os/lib/libmpa/mpa_io.c:34 (discriminator 5)
    4908:	d65f03c0 	ret

000000000000490c <mpa_get_str_size>:
mpa_get_str_size():
/home/lagadanu/Desktop/qemu/optee_os/lib/libmpa/mpa_io.c:215
    490c:	52820040 	mov	w0, #0x1002                	// #4098
    4910:	d65f03c0 	ret

0000000000004914 <mpa_set_str>:
mpa_set_str():
/home/lagadanu/Desktop/qemu/optee_os/lib/libmpa/mpa_io.c:239
    4914:	a9bc7bfd 	stp	x29, x30, [sp,#-64]!
    4918:	910003fd 	mov	x29, sp
    491c:	a90153f3 	stp	x19, x20, [sp,#16]
    4920:	aa0003f4 	mov	x20, x0
    4924:	a90363f7 	stp	x23, x24, [sp,#48]
    4928:	aa0103f8 	mov	x24, x1
    492c:	a9025bf5 	stp	x21, x22, [sp,#32]
/home/lagadanu/Desktop/qemu/optee_os/lib/libmpa/mpa_io.c:258
    4930:	39400020 	ldrb	w0, [x1]
    4934:	35000080 	cbnz	w0, 4944 <mpa_set_str+0x30>
/home/lagadanu/Desktop/qemu/optee_os/lib/libmpa/mpa_io.c:259
    4938:	52800013 	mov	w19, #0x0                   	// #0
    493c:	14000013 	b	4988 <mpa_set_str+0x74>
    4940:	aa1703f8 	mov	x24, x23
/home/lagadanu/Desktop/qemu/optee_os/lib/libmpa/mpa_io.c:263 (discriminator 1)
    4944:	aa1803f7 	mov	x23, x24
    4948:	384016f5 	ldrb	w21, [x23],#1
/home/lagadanu/Desktop/qemu/optee_os/lib/libmpa/mpa_io.c:264 (discriminator 1)
    494c:	2a1503e0 	mov	w0, w21
    4950:	97ffffe0 	bl	48d0 <__mpa_isspace>
    4954:	2a0003f3 	mov	w19, w0
    4958:	35ffff40 	cbnz	w0, 4940 <mpa_set_str+0x2c>
/home/lagadanu/Desktop/qemu/optee_os/lib/libmpa/mpa_io.c:263
    495c:	2a1503f6 	mov	w22, w21
/home/lagadanu/Desktop/qemu/optee_os/lib/libmpa/mpa_io.c:267
    4960:	52800015 	mov	w21, #0x0                   	// #0
/home/lagadanu/Desktop/qemu/optee_os/lib/libmpa/mpa_io.c:268
    4964:	7100b6df 	cmp	w22, #0x2d
    4968:	54000081 	b.ne	4978 <mpa_set_str+0x64>
/home/lagadanu/Desktop/qemu/optee_os/lib/libmpa/mpa_io.c:270
    496c:	394002f6 	ldrb	w22, [x23]
    4970:	91000b17 	add	x23, x24, #0x2
/home/lagadanu/Desktop/qemu/optee_os/lib/libmpa/mpa_io.c:269
    4974:	52800035 	mov	w21, #0x1                   	// #1
/home/lagadanu/Desktop/qemu/optee_os/lib/libmpa/mpa_io.c:272
    4978:	35000156 	cbnz	w22, 49a0 <mpa_set_str+0x8c>
/home/lagadanu/Desktop/qemu/optee_os/lib/libmpa/mpa_io.c:273
    497c:	52800001 	mov	w1, #0x0                   	// #0
    4980:	aa1403e0 	mov	x0, x20
    4984:	97fff586 	bl	1f9c <mpa_set_word>
/home/lagadanu/Desktop/qemu/optee_os/lib/libmpa/mpa_io.c:360
    4988:	2a1303e0 	mov	w0, w19
    498c:	a94153f3 	ldp	x19, x20, [sp,#16]
    4990:	a9425bf5 	ldp	x21, x22, [sp,#32]
    4994:	a94363f7 	ldp	x23, x24, [sp,#48]
    4998:	a8c47bfd 	ldp	x29, x30, [sp],#64
    499c:	d65f03c0 	ret
/home/lagadanu/Desktop/qemu/optee_os/lib/libmpa/mpa_io.c:278
    49a0:	7100c2df 	cmp	w22, #0x30
    49a4:	540000e1 	b.ne	49c0 <mpa_set_str+0xac>
/home/lagadanu/Desktop/qemu/optee_os/lib/libmpa/mpa_io.c:279
    49a8:	394002e3 	ldrb	w3, [x23]
/home/lagadanu/Desktop/qemu/optee_os/lib/libmpa/mpa_io.c:280
    49ac:	121a7860 	and	w0, w3, #0xffffffdf
    49b0:	7101601f 	cmp	w0, #0x58
    49b4:	54000540 	b.eq	4a5c <mpa_set_str+0x148>
/home/lagadanu/Desktop/qemu/optee_os/lib/libmpa/mpa_io.c:279
    49b8:	910006f7 	add	x23, x23, #0x1
    49bc:	2a0303f6 	mov	w22, w3
/home/lagadanu/Desktop/qemu/optee_os/lib/libmpa/mpa_io.c:285
    49c0:	7100c2df 	cmp	w22, #0x30
    49c4:	54000520 	b.eq	4a68 <mpa_set_str+0x154>
/home/lagadanu/Desktop/qemu/optee_os/lib/libmpa/mpa_io.c:285 (discriminator 1)
    49c8:	2a1603e0 	mov	w0, w22
    49cc:	97ffffc1 	bl	48d0 <__mpa_isspace>
    49d0:	350004c0 	cbnz	w0, 4a68 <mpa_set_str+0x154>
    49d4:	aa1703e5 	mov	x5, x23
/home/lagadanu/Desktop/qemu/optee_os/lib/libmpa/mpa_io.c:289
    49d8:	34fffd36 	cbz	w22, 497c <mpa_set_str+0x68>
/home/lagadanu/Desktop/qemu/optee_os/lib/libmpa/mpa_io.c:296
    49dc:	394000a0 	ldrb	w0, [x5]
    49e0:	35000480 	cbnz	w0, 4a70 <mpa_set_str+0x15c>
/home/lagadanu/Desktop/qemu/optee_os/lib/libmpa/mpa_io.c:300
    49e4:	cb1700a5 	sub	x5, x5, x23
/home/lagadanu/Desktop/qemu/optee_os/lib/libmpa/mpa_io.c:301
    49e8:	52820046 	mov	w6, #0x1002                	// #4098
/home/lagadanu/Desktop/qemu/optee_os/lib/libmpa/mpa_io.c:300
    49ec:	110004a5 	add	w5, w5, #0x1
/home/lagadanu/Desktop/qemu/optee_os/lib/libmpa/mpa_io.c:301
    49f0:	6b0600bf 	cmp	w5, w6
    49f4:	5400042c 	b.gt	4a78 <mpa_set_str+0x164>
/home/lagadanu/Desktop/qemu/optee_os/lib/libmpa/mpa_io.c:311
    49f8:	d00000a5 	adrp	x5, 1a000 <mempool_u32+0xe68>
    49fc:	912cc0b8 	add	x24, x5, #0xb30
/home/lagadanu/Desktop/qemu/optee_os/lib/libmpa/mpa_io.c:301
    4a00:	52800013 	mov	w19, #0x0                   	// #0
__mpa_is_char_in_base():
/home/lagadanu/Desktop/qemu/optee_os/lib/libmpa/mpa_io.c:44
    4a04:	2a1603e0 	mov	w0, w22
    4a08:	97ffffb2 	bl	48d0 <__mpa_isspace>
    4a0c:	350005c0 	cbnz	w0, 4ac4 <mpa_set_str+0x1b0>
/home/lagadanu/Desktop/qemu/optee_os/lib/libmpa/mpa_io.c:52
    4a10:	121a7ac1 	and	w1, w22, #0xffffffdf
/home/lagadanu/Desktop/qemu/optee_os/lib/libmpa/mpa_io.c:51
    4a14:	5100c2c0 	sub	w0, w22, #0x30
/home/lagadanu/Desktop/qemu/optee_os/lib/libmpa/mpa_io.c:52
    4a18:	51010421 	sub	w1, w1, #0x41
    4a1c:	7100143f 	cmp	w1, #0x5
    4a20:	7a498800 	ccmp	w0, #0x9, #0x0, hi
    4a24:	540003e9 	b.ls	4aa0 <mpa_set_str+0x18c>
mpa_set_str():
/home/lagadanu/Desktop/qemu/optee_os/lib/libmpa/mpa_io.c:315
    4a28:	34000393 	cbz	w19, 4a98 <mpa_set_str+0x184>
__mpa_digitstr_to_binary_wsize_base_16():
/home/lagadanu/Desktop/qemu/optee_os/lib/libmpa/mpa_io.c:85
    4a2c:	11001e65 	add	w5, w19, #0x7
mpa_set_str():
/home/lagadanu/Desktop/qemu/optee_os/lib/libmpa/mpa_io.c:320
    4a30:	b9400286 	ldr	w6, [x20]
__mpa_digitstr_to_binary_wsize_base_16():
/home/lagadanu/Desktop/qemu/optee_os/lib/libmpa/mpa_io.c:85
    4a34:	13037ca0 	asr	w0, w5, #3
mpa_set_str():
/home/lagadanu/Desktop/qemu/optee_os/lib/libmpa/mpa_io.c:319
    4a38:	6b06001f 	cmp	w0, w6
    4a3c:	54000529 	b.ls	4ae0 <mpa_set_str+0x1cc>
/home/lagadanu/Desktop/qemu/optee_os/lib/libmpa/mpa_io.c:321
    4a40:	90000024 	adrp	x4, 8000 <PRIME_TABLE+0xb30>
    4a44:	2a0003e5 	mov	w5, w0
    4a48:	91116c84 	add	x4, x4, #0x45b
    4a4c:	52800023 	mov	w3, #0x1                   	// #1
    4a50:	52800022 	mov	w2, #0x1                   	// #1
    4a54:	52802861 	mov	w1, #0x143                 	// #323
    4a58:	1400000d 	b	4a8c <mpa_set_str+0x178>
/home/lagadanu/Desktop/qemu/optee_os/lib/libmpa/mpa_io.c:281
    4a5c:	394006f6 	ldrb	w22, [x23,#1]
    4a60:	91000af7 	add	x23, x23, #0x2
    4a64:	17ffffd7 	b	49c0 <mpa_set_str+0xac>
/home/lagadanu/Desktop/qemu/optee_os/lib/libmpa/mpa_io.c:286
    4a68:	384016f6 	ldrb	w22, [x23],#1
    4a6c:	17ffffd5 	b	49c0 <mpa_set_str+0xac>
/home/lagadanu/Desktop/qemu/optee_os/lib/libmpa/mpa_io.c:297
    4a70:	910004a5 	add	x5, x5, #0x1
    4a74:	17ffffda 	b	49dc <mpa_set_str+0xc8>
/home/lagadanu/Desktop/qemu/optee_os/lib/libmpa/mpa_io.c:302
    4a78:	90000024 	adrp	x4, 8000 <PRIME_TABLE+0xb30>
    4a7c:	9110f484 	add	x4, x4, #0x43d
    4a80:	52800023 	mov	w3, #0x1                   	// #1
    4a84:	52800022 	mov	w2, #0x1                   	// #1
    4a88:	528025c1 	mov	w1, #0x12e                 	// #302
/home/lagadanu/Desktop/qemu/optee_os/lib/libmpa/mpa_io.c:321
    4a8c:	90000020 	adrp	x0, 8000 <PRIME_TABLE+0xb30>
    4a90:	91082000 	add	x0, x0, #0x208
    4a94:	94000975 	bl	7068 <trace_printf>
/home/lagadanu/Desktop/qemu/optee_os/lib/libmpa/mpa_io.c:324
    4a98:	12800013 	mov	w19, #0xffffffff            	// #-1
/home/lagadanu/Desktop/qemu/optee_os/lib/libmpa/mpa_io.c:325
    4a9c:	17ffffbb 	b	4988 <mpa_set_str+0x74>
/home/lagadanu/Desktop/qemu/optee_os/lib/libmpa/mpa_io.c:311
    4aa0:	11000661 	add	w1, w19, #0x1
__mpa_digit_value():
/home/lagadanu/Desktop/qemu/optee_os/lib/libmpa/mpa_io.c:66
    4aa4:	7100241f 	cmp	w0, #0x9
    4aa8:	540000a9 	b.ls	4abc <mpa_set_str+0x1a8>
/home/lagadanu/Desktop/qemu/optee_os/lib/libmpa/mpa_io.c:68
    4aac:	510106c0 	sub	w0, w22, #0x41
    4ab0:	7100141f 	cmp	w0, #0x5
    4ab4:	540000c8 	b.hi	4acc <mpa_set_str+0x1b8>
/home/lagadanu/Desktop/qemu/optee_os/lib/libmpa/mpa_io.c:69
    4ab8:	5100dec0 	sub	w0, w22, #0x37
mpa_set_str():
/home/lagadanu/Desktop/qemu/optee_os/lib/libmpa/mpa_io.c:311
    4abc:	3833cb00 	strb	w0, [x24,w19,sxtw]
    4ac0:	2a0103f3 	mov	w19, w1
/home/lagadanu/Desktop/qemu/optee_os/lib/libmpa/mpa_io.c:312
    4ac4:	384016f6 	ldrb	w22, [x23],#1
    4ac8:	17ffffcf 	b	4a04 <mpa_set_str+0xf0>
__mpa_digit_value():
/home/lagadanu/Desktop/qemu/optee_os/lib/libmpa/mpa_io.c:70
    4acc:	510186c0 	sub	w0, w22, #0x61
/home/lagadanu/Desktop/qemu/optee_os/lib/libmpa/mpa_io.c:71
    4ad0:	51015ec3 	sub	w3, w22, #0x57
    4ad4:	7100141f 	cmp	w0, #0x5
    4ad8:	1a9f9060 	csel	w0, w3, wzr, ls
    4adc:	17fffff8 	b	4abc <mpa_set_str+0x1a8>
mpa_set_str():
/home/lagadanu/Desktop/qemu/optee_os/lib/libmpa/mpa_io.c:330
    4ae0:	aa1403e0 	mov	x0, x20
    4ae4:	52800001 	mov	w1, #0x0                   	// #0
    4ae8:	97fff52d 	bl	1f9c <mpa_set_word>
/home/lagadanu/Desktop/qemu/optee_os/lib/libmpa/mpa_io.c:329
    4aec:	91002296 	add	x22, x20, #0x8
/home/lagadanu/Desktop/qemu/optee_os/lib/libmpa/mpa_io.c:334
    4af0:	52800020 	mov	w0, #0x1                   	// #1
/home/lagadanu/Desktop/qemu/optee_os/lib/libmpa/mpa_io.c:335
    4af4:	51000666 	sub	w6, w19, #0x1
    4af8:	d00000a4 	adrp	x4, 1a000 <mempool_u32+0xe68>
/home/lagadanu/Desktop/qemu/optee_os/lib/libmpa/mpa_io.c:332
    4afc:	2900fe80 	stp	w0, wzr, [x20,#4]
    4b00:	93407cc3 	sxtw	x3, w6
/home/lagadanu/Desktop/qemu/optee_os/lib/libmpa/mpa_io.c:333
    4b04:	52800080 	mov	w0, #0x4                   	// #4
/home/lagadanu/Desktop/qemu/optee_os/lib/libmpa/mpa_io.c:337
    4b08:	912cc087 	add	x7, x4, #0xb30
/home/lagadanu/Desktop/qemu/optee_os/lib/libmpa/mpa_io.c:338
    4b0c:	2a0003e8 	mov	w8, w0
/home/lagadanu/Desktop/qemu/optee_os/lib/libmpa/mpa_io.c:336
    4b10:	7100047f 	cmp	w3, #0x1
    4b14:	b94002c2 	ldr	w2, [x22]
    4b18:	5400024c 	b.gt	4b60 <mpa_set_str+0x24c>
/home/lagadanu/Desktop/qemu/optee_os/lib/libmpa/mpa_io.c:352
    4b1c:	396cc081 	ldrb	w1, [x4,#2864]
/home/lagadanu/Desktop/qemu/optee_os/lib/libmpa/mpa_io.c:348
    4b20:	360000a6 	tbz	w6, #0, 4b34 <mpa_set_str+0x220>
/home/lagadanu/Desktop/qemu/optee_os/lib/libmpa/mpa_io.c:349
    4b24:	912cc083 	add	x3, x4, #0xb30
    4b28:	396cc081 	ldrb	w1, [x4,#2864]
    4b2c:	39400463 	ldrb	w3, [x3,#1]
    4b30:	4a011061 	eor	w1, w3, w1, lsl #4
/home/lagadanu/Desktop/qemu/optee_os/lib/libmpa/mpa_io.c:350
    4b34:	52800083 	mov	w3, #0x4                   	// #4
    4b38:	4b000060 	sub	w0, w3, w0
    4b3c:	531d7000 	lsl	w0, w0, #3
/home/lagadanu/Desktop/qemu/optee_os/lib/libmpa/mpa_io.c:349
    4b40:	1ac02020 	lsl	w0, w1, w0
    4b44:	4a000040 	eor	w0, w2, w0
    4b48:	b90002c0 	str	w0, [x22]
/home/lagadanu/Desktop/qemu/optee_os/lib/libmpa/mpa_io.c:355
    4b4c:	34fff1f5 	cbz	w21, 4988 <mpa_set_str+0x74>
/home/lagadanu/Desktop/qemu/optee_os/lib/libmpa/mpa_io.c:356
    4b50:	b9400680 	ldr	w0, [x20,#4]
    4b54:	4b0003e0 	neg	w0, w0
    4b58:	b9000680 	str	w0, [x20,#4]
    4b5c:	17ffff8b 	b	4988 <mpa_set_str+0x74>
/home/lagadanu/Desktop/qemu/optee_os/lib/libmpa/mpa_io.c:337
    4b60:	8b0300e1 	add	x1, x7, x3
    4b64:	38676865 	ldrb	w5, [x3,x7]
    4b68:	385ff021 	ldurb	w1, [x1,#-1]
    4b6c:	4a0110a1 	eor	w1, w5, w1, lsl #4
/home/lagadanu/Desktop/qemu/optee_os/lib/libmpa/mpa_io.c:338
    4b70:	4b000105 	sub	w5, w8, w0
    4b74:	531d70a5 	lsl	w5, w5, #3
/home/lagadanu/Desktop/qemu/optee_os/lib/libmpa/mpa_io.c:341
    4b78:	71000400 	subs	w0, w0, #0x1
/home/lagadanu/Desktop/qemu/optee_os/lib/libmpa/mpa_io.c:337
    4b7c:	1ac52021 	lsl	w1, w1, w5
    4b80:	4a010041 	eor	w1, w2, w1
    4b84:	b90002c1 	str	w1, [x22]
/home/lagadanu/Desktop/qemu/optee_os/lib/libmpa/mpa_io.c:341
    4b88:	540000e1 	b.ne	4ba4 <mpa_set_str+0x290>
/home/lagadanu/Desktop/qemu/optee_os/lib/libmpa/mpa_io.c:343
    4b8c:	b90006df 	str	wzr, [x22,#4]
/home/lagadanu/Desktop/qemu/optee_os/lib/libmpa/mpa_io.c:342
    4b90:	910012d6 	add	x22, x22, #0x4
/home/lagadanu/Desktop/qemu/optee_os/lib/libmpa/mpa_io.c:345
    4b94:	b9400680 	ldr	w0, [x20,#4]
    4b98:	11000400 	add	w0, w0, #0x1
    4b9c:	b9000680 	str	w0, [x20,#4]
/home/lagadanu/Desktop/qemu/optee_os/lib/libmpa/mpa_io.c:344
    4ba0:	52800080 	mov	w0, #0x4                   	// #4
    4ba4:	d1000863 	sub	x3, x3, #0x2
    4ba8:	17ffffda 	b	4b10 <mpa_set_str+0x1fc>

0000000000004bac <mpa_get_str>:
mpa_get_str():
/home/lagadanu/Desktop/qemu/optee_os/lib/libmpa/mpa_io.c:376
    4bac:	a9be7bfd 	stp	x29, x30, [sp,#-32]!
    4bb0:	910003fd 	mov	x29, sp
    4bb4:	f9000bf3 	str	x19, [sp,#16]
/home/lagadanu/Desktop/qemu/optee_os/lib/libmpa/mpa_io.c:379
    4bb8:	b5000160 	cbnz	x0, 4be4 <mpa_get_str+0x38>
/home/lagadanu/Desktop/qemu/optee_os/lib/libmpa/mpa_io.c:379 (discriminator 1)
    4bbc:	90000023 	adrp	x3, 8000 <PRIME_TABLE+0xb30>
    4bc0:	91082063 	add	x3, x3, #0x208
    4bc4:	91004063 	add	x3, x3, #0x10
    4bc8:	90000021 	adrp	x1, 8000 <PRIME_TABLE+0xb30>
    4bcc:	90000020 	adrp	x0, 8000 <PRIME_TABLE+0xb30>
    4bd0:	91121021 	add	x1, x1, #0x484
    4bd4:	91126000 	add	x0, x0, #0x498
    4bd8:	52802f62 	mov	w2, #0x17b                 	// #379
    4bdc:	94000a09 	bl	7400 <_assert_log>
    4be0:	94000a19 	bl	7444 <_assert_break>
/home/lagadanu/Desktop/qemu/optee_os/lib/libmpa/mpa_io.c:382
    4be4:	b9400443 	ldr	w3, [x2,#4]
    4be8:	aa0003f3 	mov	x19, x0
    4bec:	36f80063 	tbz	w3, #31, 4bf8 <mpa_get_str+0x4c>
/home/lagadanu/Desktop/qemu/optee_os/lib/libmpa/mpa_io.c:383
    4bf0:	528005a3 	mov	w3, #0x2d                  	// #45
    4bf4:	38001403 	strb	w3, [x0],#1
/home/lagadanu/Desktop/qemu/optee_os/lib/libmpa/mpa_io.c:386
    4bf8:	7100403f 	cmp	w1, #0x10
    4bfc:	540000a0 	b.eq	4c10 <mpa_get_str+0x64>
    4c00:	7100443f 	cmp	w1, #0x11
    4c04:	54000120 	b.eq	4c28 <mpa_get_str+0x7c>
/home/lagadanu/Desktop/qemu/optee_os/lib/libmpa/mpa_io.c:394
    4c08:	d2800013 	mov	x19, #0x0                   	// #0
    4c0c:	14000003 	b	4c18 <mpa_get_str+0x6c>
/home/lagadanu/Desktop/qemu/optee_os/lib/libmpa/mpa_io.c:388
    4c10:	52800001 	mov	w1, #0x0                   	// #0
/home/lagadanu/Desktop/qemu/optee_os/lib/libmpa/mpa_io.c:391
    4c14:	97fffeea 	bl	47bc <__mpa_mpanum_to_hexstr>
/home/lagadanu/Desktop/qemu/optee_os/lib/libmpa/mpa_io.c:398
    4c18:	aa1303e0 	mov	x0, x19
    4c1c:	f9400bf3 	ldr	x19, [sp,#16]
    4c20:	a8c27bfd 	ldp	x29, x30, [sp],#32
    4c24:	d65f03c0 	ret
/home/lagadanu/Desktop/qemu/optee_os/lib/libmpa/mpa_io.c:391
    4c28:	52800021 	mov	w1, #0x1                   	// #1
    4c2c:	17fffffa 	b	4c14 <mpa_get_str+0x68>

0000000000004c30 <mpa_set_oct_str>:
mpa_set_oct_str():
/home/lagadanu/Desktop/qemu/optee_os/lib/libmpa/mpa_io.c:415
    4c30:	a9bc7bfd 	stp	x29, x30, [sp,#-64]!
    4c34:	910003fd 	mov	x29, sp
    4c38:	a90153f3 	stp	x19, x20, [sp,#16]
    4c3c:	aa0003f4 	mov	x20, x0
    4c40:	a9025bf5 	stp	x21, x22, [sp,#32]
/home/lagadanu/Desktop/qemu/optee_os/lib/libmpa/mpa_io.c:417
    4c44:	2a0203f3 	mov	w19, w2
/home/lagadanu/Desktop/qemu/optee_os/lib/libmpa/mpa_io.c:415
    4c48:	f9001bf7 	str	x23, [sp,#48]
    4c4c:	aa0103f5 	mov	x21, x1
    4c50:	12001c77 	and	w23, w3, #0xff
/home/lagadanu/Desktop/qemu/optee_os/lib/libmpa/mpa_io.c:421
    4c54:	7100027f 	cmp	w19, #0x0
    4c58:	5400016c 	b.gt	4c84 <mpa_set_oct_str+0x54>
/home/lagadanu/Desktop/qemu/optee_os/lib/libmpa/mpa_io.c:428
    4c5c:	540001e1 	b.ne	4c98 <mpa_set_oct_str+0x68>
/home/lagadanu/Desktop/qemu/optee_os/lib/libmpa/mpa_io.c:429
    4c60:	52800001 	mov	w1, #0x0                   	// #0
    4c64:	aa1403e0 	mov	x0, x20
    4c68:	97fff4cd 	bl	1f9c <mpa_set_word>
/home/lagadanu/Desktop/qemu/optee_os/lib/libmpa/mpa_io.c:458
    4c6c:	2a1303e0 	mov	w0, w19
    4c70:	f9401bf7 	ldr	x23, [sp,#48]
    4c74:	a94153f3 	ldp	x19, x20, [sp,#16]
    4c78:	a9425bf5 	ldp	x21, x22, [sp,#32]
    4c7c:	a8c47bfd 	ldp	x29, x30, [sp],#64
    4c80:	d65f03c0 	ret
/home/lagadanu/Desktop/qemu/optee_os/lib/libmpa/mpa_io.c:422
    4c84:	394002a0 	ldrb	w0, [x21]
    4c88:	35000080 	cbnz	w0, 4c98 <mpa_set_oct_str+0x68>
/home/lagadanu/Desktop/qemu/optee_os/lib/libmpa/mpa_io.c:424
    4c8c:	51000673 	sub	w19, w19, #0x1
/home/lagadanu/Desktop/qemu/optee_os/lib/libmpa/mpa_io.c:425
    4c90:	910006b5 	add	x21, x21, #0x1
    4c94:	17fffff0 	b	4c54 <mpa_set_oct_str+0x24>
/home/lagadanu/Desktop/qemu/optee_os/lib/libmpa/mpa_io.c:438
    4c98:	b9400280 	ldr	w0, [x20]
    4c9c:	51000661 	sub	w1, w19, #0x1
    4ca0:	d37e7400 	ubfiz	x0, x0, #2, #30
    4ca4:	eb21c01f 	cmp	x0, w1, sxtw
    4ca8:	54000483 	b.cc	4d38 <mpa_set_oct_str+0x108>
/home/lagadanu/Desktop/qemu/optee_os/lib/libmpa/mpa_io.c:442
    4cac:	52800001 	mov	w1, #0x0                   	// #0
    4cb0:	aa1403e0 	mov	x0, x20
/home/lagadanu/Desktop/qemu/optee_os/lib/libmpa/mpa_io.c:441
    4cb4:	91002296 	add	x22, x20, #0x8
/home/lagadanu/Desktop/qemu/optee_os/lib/libmpa/mpa_io.c:442
    4cb8:	97fff4b9 	bl	1f9c <mpa_set_word>
/home/lagadanu/Desktop/qemu/optee_os/lib/libmpa/mpa_io.c:446
    4cbc:	52800083 	mov	w3, #0x4                   	// #4
    4cc0:	12bc0005 	mov	w5, #0x1fffffff            	// #536870911
/home/lagadanu/Desktop/qemu/optee_os/lib/libmpa/mpa_io.c:444
    4cc4:	b900069f 	str	wzr, [x20,#4]
/home/lagadanu/Desktop/qemu/optee_os/lib/libmpa/mpa_io.c:445
    4cc8:	7100027f 	cmp	w19, #0x0
    4ccc:	540000ec 	b.gt	4ce8 <mpa_set_oct_str+0xb8>
/home/lagadanu/Desktop/qemu/optee_os/lib/libmpa/mpa_io.c:457
    4cd0:	52800013 	mov	w19, #0x0                   	// #0
/home/lagadanu/Desktop/qemu/optee_os/lib/libmpa/mpa_io.c:454
    4cd4:	34fffcd7 	cbz	w23, 4c6c <mpa_set_oct_str+0x3c>
/home/lagadanu/Desktop/qemu/optee_os/lib/libmpa/mpa_io.c:455
    4cd8:	b9400680 	ldr	w0, [x20,#4]
    4cdc:	4b0003e0 	neg	w0, w0
    4ce0:	b9000680 	str	w0, [x20,#4]
    4ce4:	17ffffe2 	b	4c6c <mpa_set_oct_str+0x3c>
/home/lagadanu/Desktop/qemu/optee_os/lib/libmpa/mpa_io.c:446
    4ce8:	7100127f 	cmp	w19, #0x4
    4cec:	110004a1 	add	w1, w5, #0x1
    4cf0:	1a83d260 	csel	w0, w19, w3, le
    4cf4:	531d7021 	lsl	w1, w1, #3
/home/lagadanu/Desktop/qemu/optee_os/lib/libmpa/mpa_io.c:448
    4cf8:	4b000273 	sub	w19, w19, w0
    4cfc:	51000400 	sub	w0, w0, #0x1
set_word():
/home/lagadanu/Desktop/qemu/optee_os/lib/libmpa/mpa_io.c:409
    4d00:	8b33c2a6 	add	x6, x21, w19, sxtw
/home/lagadanu/Desktop/qemu/optee_os/lib/libmpa/mpa_io.c:407
    4d04:	52800002 	mov	w2, #0x0                   	// #0
/home/lagadanu/Desktop/qemu/optee_os/lib/libmpa/mpa_io.c:409
    4d08:	386068c4 	ldrb	w4, [x6,x0]
    4d0c:	d1000400 	sub	x0, x0, #0x1
/home/lagadanu/Desktop/qemu/optee_os/lib/libmpa/mpa_io.c:408
    4d10:	3100041f 	cmn	w0, #0x1
/home/lagadanu/Desktop/qemu/optee_os/lib/libmpa/mpa_io.c:409
    4d14:	1ac12084 	lsl	w4, w4, w1
    4d18:	11002021 	add	w1, w1, #0x8
    4d1c:	2a040042 	orr	w2, w2, w4
/home/lagadanu/Desktop/qemu/optee_os/lib/libmpa/mpa_io.c:408
    4d20:	54ffff41 	b.ne	4d08 <mpa_set_oct_str+0xd8>
mpa_set_oct_str():
/home/lagadanu/Desktop/qemu/optee_os/lib/libmpa/mpa_io.c:449
    4d24:	b80046c2 	str	w2, [x22],#4
/home/lagadanu/Desktop/qemu/optee_os/lib/libmpa/mpa_io.c:451
    4d28:	b9400680 	ldr	w0, [x20,#4]
    4d2c:	11000400 	add	w0, w0, #0x1
    4d30:	b9000680 	str	w0, [x20,#4]
    4d34:	17ffffe5 	b	4cc8 <mpa_set_oct_str+0x98>
/home/lagadanu/Desktop/qemu/optee_os/lib/libmpa/mpa_io.c:439
    4d38:	12800013 	mov	w19, #0xffffffff            	// #-1
    4d3c:	17ffffcc 	b	4c6c <mpa_set_oct_str+0x3c>

0000000000004d40 <mpa_get_oct_str>:
mpa_get_oct_str():
/home/lagadanu/Desktop/qemu/optee_os/lib/libmpa/mpa_io.c:471
    4d40:	a9bb7bfd 	stp	x29, x30, [sp,#-80]!
    4d44:	52800024 	mov	w4, #0x1                   	// #1
    4d48:	910003fd 	mov	x29, sp
    4d4c:	a90153f3 	stp	x19, x20, [sp,#16]
__mpa_size_in_base_255():
/home/lagadanu/Desktop/qemu/optee_os/lib/libmpa/mpa_io.c:197
    4d50:	b9400443 	ldr	w3, [x2,#4]
mpa_get_oct_str():
/home/lagadanu/Desktop/qemu/optee_os/lib/libmpa/mpa_io.c:471
    4d54:	a9025bf5 	stp	x21, x22, [sp,#32]
    4d58:	f9001bf7 	str	x23, [sp,#48]
__mpa_size_in_base_255():
/home/lagadanu/Desktop/qemu/optee_os/lib/libmpa/mpa_io.c:197
    4d5c:	7100007f 	cmp	w3, #0x0
    4d60:	540001e0 	b.eq	4d9c <mpa_get_oct_str+0x5c>
/home/lagadanu/Desktop/qemu/optee_os/lib/libmpa/mpa_io.c:201
    4d64:	5a83a464 	cneg	w4, w3, lt
    4d68:	51000485 	sub	w5, w4, #0x1
/home/lagadanu/Desktop/qemu/optee_os/lib/libmpa/mpa_io.c:200
    4d6c:	8b25c845 	add	x5, x2, w5, sxtw #2
    4d70:	b94008a7 	ldr	w7, [x5,#8]
__mpa_count_leading_zero_bits():
/home/lagadanu/Desktop/qemu/optee_os/lib/libmpa/mpa_io.c:176
    4d74:	52800405 	mov	w5, #0x20                  	// #32
/home/lagadanu/Desktop/qemu/optee_os/lib/libmpa/mpa_io.c:175
    4d78:	340000a7 	cbz	w7, 4d8c <mpa_get_oct_str+0x4c>
    4d7c:	52800005 	mov	w5, #0x0                   	// #0
    4d80:	52b00006 	mov	w6, #0x80000000            	// #-2147483648
/home/lagadanu/Desktop/qemu/optee_os/lib/libmpa/mpa_io.c:179
    4d84:	6a0600ff 	tst	w7, w6
    4d88:	54000180 	b.eq	4db8 <mpa_get_oct_str+0x78>
__mpa_size_in_base_255():
/home/lagadanu/Desktop/qemu/optee_os/lib/libmpa/mpa_io.c:202
    4d8c:	531b6893 	lsl	w19, w4, #5
/home/lagadanu/Desktop/qemu/optee_os/lib/libmpa/mpa_io.c:204
    4d90:	11001e73 	add	w19, w19, #0x7
    4d94:	4b050273 	sub	w19, w19, w5
    4d98:	53037e64 	lsr	w4, w19, #3
mpa_get_oct_str():
/home/lagadanu/Desktop/qemu/optee_os/lib/libmpa/mpa_io.c:478
    4d9c:	f9400025 	ldr	x5, [x1]
/home/lagadanu/Desktop/qemu/optee_os/lib/libmpa/mpa_io.c:472
    4da0:	2a0403f3 	mov	w19, w4
/home/lagadanu/Desktop/qemu/optee_os/lib/libmpa/mpa_io.c:478
    4da4:	eb05027f 	cmp	x19, x5
    4da8:	540000e9 	b.ls	4dc4 <mpa_get_oct_str+0x84>
/home/lagadanu/Desktop/qemu/optee_os/lib/libmpa/mpa_io.c:479
    4dac:	f9000033 	str	x19, [x1]
/home/lagadanu/Desktop/qemu/optee_os/lib/libmpa/mpa_io.c:504
    4db0:	12800000 	mov	w0, #0xffffffff            	// #-1
    4db4:	1400000e 	b	4dec <mpa_get_oct_str+0xac>
__mpa_count_leading_zero_bits():
/home/lagadanu/Desktop/qemu/optee_os/lib/libmpa/mpa_io.c:180
    4db8:	110004a5 	add	w5, w5, #0x1
/home/lagadanu/Desktop/qemu/optee_os/lib/libmpa/mpa_io.c:181
    4dbc:	53017cc6 	lsr	w6, w6, #1
    4dc0:	17fffff1 	b	4d84 <mpa_get_oct_str+0x44>
    4dc4:	aa0203f7 	mov	x23, x2
    4dc8:	aa0103f6 	mov	x22, x1
    4dcc:	aa0003e4 	mov	x4, x0
mpa_get_oct_str():
/home/lagadanu/Desktop/qemu/optee_os/lib/libmpa/mpa_io.c:484
    4dd0:	7100007f 	cmp	w3, #0x0
    4dd4:	54000161 	b.ne	4e00 <mpa_get_oct_str+0xc0>
/home/lagadanu/Desktop/qemu/optee_os/lib/libmpa/mpa_io.c:485
    4dd8:	aa0503e2 	mov	x2, x5
    4ddc:	52800001 	mov	w1, #0x0                   	// #0
    4de0:	9400056b 	bl	638c <memset>
/home/lagadanu/Desktop/qemu/optee_os/lib/libmpa/mpa_io.c:513
    4de4:	52800000 	mov	w0, #0x0                   	// #0
/home/lagadanu/Desktop/qemu/optee_os/lib/libmpa/mpa_io.c:512
    4de8:	f90002d3 	str	x19, [x22]
/home/lagadanu/Desktop/qemu/optee_os/lib/libmpa/mpa_io.c:514
    4dec:	a94153f3 	ldp	x19, x20, [sp,#16]
    4df0:	a9425bf5 	ldp	x21, x22, [sp,#32]
    4df4:	f9401bf7 	ldr	x23, [sp,#48]
    4df8:	a8c57bfd 	ldp	x29, x30, [sp],#80
    4dfc:	d65f03c0 	ret
/home/lagadanu/Desktop/qemu/optee_os/lib/libmpa/mpa_io.c:483
    4e00:	5a83a474 	cneg	w20, w3, lt
/home/lagadanu/Desktop/qemu/optee_os/lib/libmpa/mpa_io.c:488
    4e04:	51000680 	sub	w0, w20, #0x1
/home/lagadanu/Desktop/qemu/optee_os/lib/libmpa/mpa_io.c:491
    4e08:	8b20c840 	add	x0, x2, w0, sxtw #2
    4e0c:	b9400801 	ldr	w1, [x0,#8]
get_word():
/home/lagadanu/Desktop/qemu/optee_os/lib/libmpa/mpa_io.c:465
    4e10:	39012fa1 	strb	w1, [x29,#75]
/home/lagadanu/Desktop/qemu/optee_os/lib/libmpa/mpa_io.c:466
    4e14:	53087c20 	lsr	w0, w1, #8
    4e18:	53187c23 	lsr	w3, w1, #24
/home/lagadanu/Desktop/qemu/optee_os/lib/libmpa/mpa_io.c:465
    4e1c:	39012ba0 	strb	w0, [x29,#74]
/home/lagadanu/Desktop/qemu/optee_os/lib/libmpa/mpa_io.c:466
    4e20:	53107c20 	lsr	w0, w1, #16
/home/lagadanu/Desktop/qemu/optee_os/lib/libmpa/mpa_io.c:465
    4e24:	910143a1 	add	x1, x29, #0x50
    4e28:	390127a0 	strb	w0, [x29,#73]
    4e2c:	d2800000 	mov	x0, #0x0                   	// #0
    4e30:	381f8c23 	strb	w3, [x1,#-8]!
mpa_get_oct_str():
/home/lagadanu/Desktop/qemu/optee_os/lib/libmpa/mpa_io.c:494
    4e34:	38616802 	ldrb	w2, [x0,x1]
    4e38:	34000342 	cbz	w2, 4ea0 <mpa_get_oct_str+0x160>
/home/lagadanu/Desktop/qemu/optee_os/lib/libmpa/mpa_io.c:495
    4e3c:	52800095 	mov	w21, #0x4                   	// #4
    4e40:	4b0002b5 	sub	w21, w21, w0
    4e44:	93407eb5 	sxtw	x21, w21
    4e48:	8b20c021 	add	x1, x1, w0, sxtw
    4e4c:	aa1503e2 	mov	x2, x21
    4e50:	aa0403e0 	mov	x0, x4
    4e54:	94000533 	bl	6320 <memcpy>
    4e58:	aa0003e4 	mov	x4, x0
/home/lagadanu/Desktop/qemu/optee_os/lib/libmpa/mpa_io.c:500
    4e5c:	51000a83 	sub	w3, w20, #0x2
    4e60:	93407c63 	sxtw	x3, w3
/home/lagadanu/Desktop/qemu/optee_os/lib/libmpa/mpa_io.c:502
    4e64:	37fffc03 	tbnz	w3, #31, 4de4 <mpa_get_oct_str+0xa4>
/home/lagadanu/Desktop/qemu/optee_os/lib/libmpa/mpa_io.c:503
    4e68:	eb1302bf 	cmp	x21, x19
    4e6c:	54fffa28 	b.hi	4db0 <mpa_get_oct_str+0x70>
/home/lagadanu/Desktop/qemu/optee_os/lib/libmpa/mpa_io.c:505
    4e70:	8b030ae0 	add	x0, x23, x3, lsl #2
get_word():
/home/lagadanu/Desktop/qemu/optee_os/lib/libmpa/mpa_io.c:465
    4e74:	8b150082 	add	x2, x4, x21
mpa_get_oct_str():
/home/lagadanu/Desktop/qemu/optee_os/lib/libmpa/mpa_io.c:505
    4e78:	b9400801 	ldr	w1, [x0,#8]
    4e7c:	d2800060 	mov	x0, #0x3                   	// #3
get_word():
/home/lagadanu/Desktop/qemu/optee_os/lib/libmpa/mpa_io.c:465
    4e80:	38206841 	strb	w1, [x2,x0]
    4e84:	d1000400 	sub	x0, x0, #0x1
/home/lagadanu/Desktop/qemu/optee_os/lib/libmpa/mpa_io.c:466
    4e88:	53087c21 	lsr	w1, w1, #8
/home/lagadanu/Desktop/qemu/optee_os/lib/libmpa/mpa_io.c:464
    4e8c:	b100041f 	cmn	x0, #0x1
    4e90:	54ffff81 	b.ne	4e80 <mpa_get_oct_str+0x140>
mpa_get_oct_str():
/home/lagadanu/Desktop/qemu/optee_os/lib/libmpa/mpa_io.c:507
    4e94:	910012b5 	add	x21, x21, #0x4
    4e98:	d1000463 	sub	x3, x3, #0x1
    4e9c:	17fffff2 	b	4e64 <mpa_get_oct_str+0x124>
    4ea0:	91000400 	add	x0, x0, #0x1
/home/lagadanu/Desktop/qemu/optee_os/lib/libmpa/mpa_io.c:493 (discriminator 2)
    4ea4:	f100101f 	cmp	x0, #0x4
    4ea8:	54fffc61 	b.ne	4e34 <mpa_get_oct_str+0xf4>
/home/lagadanu/Desktop/qemu/optee_os/lib/libmpa/mpa_io.c:474
    4eac:	d2800015 	mov	x21, #0x0                   	// #0
    4eb0:	17ffffeb 	b	4e5c <mpa_get_oct_str+0x11c>

0000000000004eb4 <mpa_mod>:
mpa_mod():
/home/lagadanu/Desktop/qemu/optee_os/lib/libmpa/mpa_modulus.c:20
    4eb4:	aa0303e4 	mov	x4, x3
    4eb8:	aa0203e3 	mov	x3, x2
    4ebc:	aa0103e2 	mov	x2, x1
    4ec0:	aa0003e1 	mov	x1, x0
    4ec4:	d2800000 	mov	x0, #0x0                   	// #0
    4ec8:	17fff648 	b	27e8 <mpa_div>

0000000000004ecc <mpa_add_mod>:
mpa_add_mod():
/home/lagadanu/Desktop/qemu/optee_os/lib/libmpa/mpa_modulus.c:31
    4ecc:	a9bb7bfd 	stp	x29, x30, [sp,#-80]!
    4ed0:	910003fd 	mov	x29, sp
    4ed4:	a90153f3 	stp	x19, x20, [sp,#16]
/home/lagadanu/Desktop/qemu/optee_os/lib/libmpa/mpa_modulus.c:34
    4ed8:	910123b3 	add	x19, x29, #0x48
/home/lagadanu/Desktop/qemu/optee_os/lib/libmpa/mpa_modulus.c:31
    4edc:	aa0403f4 	mov	x20, x4
    4ee0:	a9025bf5 	stp	x21, x22, [sp,#32]
    4ee4:	a90363f7 	stp	x23, x24, [sp,#48]
    4ee8:	aa0303f6 	mov	x22, x3
    4eec:	aa0003f5 	mov	x21, x0
    4ef0:	aa0103f7 	mov	x23, x1
    4ef4:	aa0203f8 	mov	x24, x2
/home/lagadanu/Desktop/qemu/optee_os/lib/libmpa/mpa_modulus.c:34
    4ef8:	aa0403e1 	mov	x1, x4
    4efc:	aa1303e0 	mov	x0, x19
    4f00:	97fff8a7 	bl	319c <mpa_alloc_static_temp_var>
/home/lagadanu/Desktop/qemu/optee_os/lib/libmpa/mpa_modulus.c:36
    4f04:	f94027a0 	ldr	x0, [x29,#72]
    4f08:	aa1403e3 	mov	x3, x20
    4f0c:	aa1803e2 	mov	x2, x24
    4f10:	aa1703e1 	mov	x1, x23
    4f14:	97fffba1 	bl	3d98 <mpa_add>
/home/lagadanu/Desktop/qemu/optee_os/lib/libmpa/mpa_modulus.c:37
    4f18:	f94027a2 	ldr	x2, [x29,#72]
    4f1c:	aa1403e4 	mov	x4, x20
    4f20:	aa1603e3 	mov	x3, x22
    4f24:	aa1503e1 	mov	x1, x21
    4f28:	d2800000 	mov	x0, #0x0                   	// #0
    4f2c:	97fff62f 	bl	27e8 <mpa_div>
/home/lagadanu/Desktop/qemu/optee_os/lib/libmpa/mpa_modulus.c:39
    4f30:	aa1403e1 	mov	x1, x20
    4f34:	aa1303e0 	mov	x0, x19
    4f38:	97fff89d 	bl	31ac <mpa_free_static_temp_var>
/home/lagadanu/Desktop/qemu/optee_os/lib/libmpa/mpa_modulus.c:40
    4f3c:	a94153f3 	ldp	x19, x20, [sp,#16]
    4f40:	a9425bf5 	ldp	x21, x22, [sp,#32]
    4f44:	a94363f7 	ldp	x23, x24, [sp,#48]
    4f48:	a8c57bfd 	ldp	x29, x30, [sp],#80
    4f4c:	d65f03c0 	ret

0000000000004f50 <mpa_sub_mod>:
mpa_sub_mod():
/home/lagadanu/Desktop/qemu/optee_os/lib/libmpa/mpa_modulus.c:50
    4f50:	a9bb7bfd 	stp	x29, x30, [sp,#-80]!
    4f54:	910003fd 	mov	x29, sp
    4f58:	a90153f3 	stp	x19, x20, [sp,#16]
/home/lagadanu/Desktop/qemu/optee_os/lib/libmpa/mpa_modulus.c:53
    4f5c:	910123b3 	add	x19, x29, #0x48
/home/lagadanu/Desktop/qemu/optee_os/lib/libmpa/mpa_modulus.c:50
    4f60:	aa0403f4 	mov	x20, x4
    4f64:	a9025bf5 	stp	x21, x22, [sp,#32]
    4f68:	a90363f7 	stp	x23, x24, [sp,#48]
    4f6c:	aa0303f6 	mov	x22, x3
    4f70:	aa0003f5 	mov	x21, x0
    4f74:	aa0103f7 	mov	x23, x1
    4f78:	aa0203f8 	mov	x24, x2
/home/lagadanu/Desktop/qemu/optee_os/lib/libmpa/mpa_modulus.c:53
    4f7c:	aa0403e1 	mov	x1, x4
    4f80:	aa1303e0 	mov	x0, x19
    4f84:	97fff886 	bl	319c <mpa_alloc_static_temp_var>
/home/lagadanu/Desktop/qemu/optee_os/lib/libmpa/mpa_modulus.c:55
    4f88:	f94027a0 	ldr	x0, [x29,#72]
    4f8c:	aa1403e3 	mov	x3, x20
    4f90:	aa1803e2 	mov	x2, x24
    4f94:	aa1703e1 	mov	x1, x23
    4f98:	97fffbe5 	bl	3f2c <mpa_sub>
/home/lagadanu/Desktop/qemu/optee_os/lib/libmpa/mpa_modulus.c:56
    4f9c:	f94027a2 	ldr	x2, [x29,#72]
    4fa0:	aa1403e4 	mov	x4, x20
    4fa4:	aa1603e3 	mov	x3, x22
    4fa8:	aa1503e1 	mov	x1, x21
    4fac:	d2800000 	mov	x0, #0x0                   	// #0
    4fb0:	97fff60e 	bl	27e8 <mpa_div>
/home/lagadanu/Desktop/qemu/optee_os/lib/libmpa/mpa_modulus.c:58
    4fb4:	aa1403e1 	mov	x1, x20
    4fb8:	aa1303e0 	mov	x0, x19
    4fbc:	97fff87c 	bl	31ac <mpa_free_static_temp_var>
/home/lagadanu/Desktop/qemu/optee_os/lib/libmpa/mpa_modulus.c:59
    4fc0:	a94153f3 	ldp	x19, x20, [sp,#16]
    4fc4:	a9425bf5 	ldp	x21, x22, [sp,#32]
    4fc8:	a94363f7 	ldp	x23, x24, [sp,#48]
    4fcc:	a8c57bfd 	ldp	x29, x30, [sp],#80
    4fd0:	d65f03c0 	ret

0000000000004fd4 <mpa_mul_mod>:
mpa_mul_mod():
/home/lagadanu/Desktop/qemu/optee_os/lib/libmpa/mpa_modulus.c:69
    4fd4:	a9bb7bfd 	stp	x29, x30, [sp,#-80]!
    4fd8:	910003fd 	mov	x29, sp
    4fdc:	a90153f3 	stp	x19, x20, [sp,#16]
/home/lagadanu/Desktop/qemu/optee_os/lib/libmpa/mpa_modulus.c:72
    4fe0:	910123b3 	add	x19, x29, #0x48
/home/lagadanu/Desktop/qemu/optee_os/lib/libmpa/mpa_modulus.c:69
    4fe4:	aa0403f4 	mov	x20, x4
    4fe8:	a9025bf5 	stp	x21, x22, [sp,#32]
    4fec:	a90363f7 	stp	x23, x24, [sp,#48]
    4ff0:	aa0303f6 	mov	x22, x3
    4ff4:	aa0003f5 	mov	x21, x0
    4ff8:	aa0103f7 	mov	x23, x1
    4ffc:	aa0203f8 	mov	x24, x2
/home/lagadanu/Desktop/qemu/optee_os/lib/libmpa/mpa_modulus.c:72
    5000:	aa0403e1 	mov	x1, x4
    5004:	aa1303e0 	mov	x0, x19
    5008:	97fff865 	bl	319c <mpa_alloc_static_temp_var>
/home/lagadanu/Desktop/qemu/optee_os/lib/libmpa/mpa_modulus.c:74
    500c:	f94027a0 	ldr	x0, [x29,#72]
    5010:	aa1403e3 	mov	x3, x20
    5014:	aa1803e2 	mov	x2, x24
    5018:	aa1703e1 	mov	x1, x23
    501c:	97fff8dc 	bl	338c <mpa_mul>
/home/lagadanu/Desktop/qemu/optee_os/lib/libmpa/mpa_modulus.c:75
    5020:	f94027a2 	ldr	x2, [x29,#72]
    5024:	aa1403e4 	mov	x4, x20
    5028:	aa1603e3 	mov	x3, x22
    502c:	aa1503e1 	mov	x1, x21
    5030:	d2800000 	mov	x0, #0x0                   	// #0
    5034:	97fff5ed 	bl	27e8 <mpa_div>
/home/lagadanu/Desktop/qemu/optee_os/lib/libmpa/mpa_modulus.c:77
    5038:	aa1403e1 	mov	x1, x20
    503c:	aa1303e0 	mov	x0, x19
    5040:	97fff85b 	bl	31ac <mpa_free_static_temp_var>
/home/lagadanu/Desktop/qemu/optee_os/lib/libmpa/mpa_modulus.c:78
    5044:	a94153f3 	ldp	x19, x20, [sp,#16]
    5048:	a9425bf5 	ldp	x21, x22, [sp,#32]
    504c:	a94363f7 	ldp	x23, x24, [sp,#48]
    5050:	a8c57bfd 	ldp	x29, x30, [sp],#80
    5054:	d65f03c0 	ret

0000000000005058 <mpa_inv_mod>:
mpa_inv_mod():
/home/lagadanu/Desktop/qemu/optee_os/lib/libmpa/mpa_modulus.c:87
    5058:	a9bb7bfd 	stp	x29, x30, [sp,#-80]!
    505c:	910003fd 	mov	x29, sp
    5060:	a9025bf5 	stp	x21, x22, [sp,#32]
    5064:	aa0103f6 	mov	x22, x1
    5068:	a90153f3 	stp	x19, x20, [sp,#16]
/home/lagadanu/Desktop/qemu/optee_os/lib/libmpa/mpa_modulus.c:93
    506c:	52800021 	mov	w1, #0x1                   	// #1
/home/lagadanu/Desktop/qemu/optee_os/lib/libmpa/mpa_modulus.c:87
    5070:	a90363f7 	stp	x23, x24, [sp,#48]
    5074:	aa0003f3 	mov	x19, x0
    5078:	aa0203f7 	mov	x23, x2
    507c:	aa0303f4 	mov	x20, x3
/home/lagadanu/Desktop/qemu/optee_os/lib/libmpa/mpa_modulus.c:93
    5080:	aa1603e0 	mov	x0, x22
    5084:	97fffd0c 	bl	44b4 <mpa_cmp_short>
    5088:	35000160 	cbnz	w0, 50b4 <mpa_inv_mod+0x5c>
/home/lagadanu/Desktop/qemu/optee_os/lib/libmpa/mpa_modulus.c:95
    508c:	52800015 	mov	w21, #0x0                   	// #0
/home/lagadanu/Desktop/qemu/optee_os/lib/libmpa/mpa_modulus.c:94
    5090:	52800021 	mov	w1, #0x1                   	// #1
    5094:	aa1303e0 	mov	x0, x19
    5098:	97fff399 	bl	1efc <mpa_set_S32>
/home/lagadanu/Desktop/qemu/optee_os/lib/libmpa/mpa_modulus.c:122
    509c:	2a1503e0 	mov	w0, w21
    50a0:	a94153f3 	ldp	x19, x20, [sp,#16]
    50a4:	a9425bf5 	ldp	x21, x22, [sp,#32]
    50a8:	a94363f7 	ldp	x23, x24, [sp,#48]
    50ac:	a8c57bfd 	ldp	x29, x30, [sp],#80
    50b0:	d65f03c0 	ret
/home/lagadanu/Desktop/qemu/optee_os/lib/libmpa/mpa_modulus.c:99
    50b4:	eb1302df 	cmp	x22, x19
    50b8:	54000421 	b.ne	513c <mpa_inv_mod+0xe4>
/home/lagadanu/Desktop/qemu/optee_os/lib/libmpa/mpa_modulus.c:100
    50bc:	aa1403e1 	mov	x1, x20
    50c0:	910123a0 	add	x0, x29, #0x48
    50c4:	97fff836 	bl	319c <mpa_alloc_static_temp_var>
/home/lagadanu/Desktop/qemu/optee_os/lib/libmpa/mpa_modulus.c:104
    50c8:	910103b8 	add	x24, x29, #0x40
    50cc:	aa1403e1 	mov	x1, x20
    50d0:	aa1803e0 	mov	x0, x24
    50d4:	97fff832 	bl	319c <mpa_alloc_static_temp_var>
/home/lagadanu/Desktop/qemu/optee_os/lib/libmpa/mpa_modulus.c:106
    50d8:	a94407a0 	ldp	x0, x1, [x29,#64]
    50dc:	aa1403e5 	mov	x5, x20
    50e0:	aa1703e4 	mov	x4, x23
    50e4:	aa1603e3 	mov	x3, x22
    50e8:	d2800002 	mov	x2, #0x0                   	// #0
    50ec:	97fff79e 	bl	2f64 <mpa_extended_gcd>
/home/lagadanu/Desktop/qemu/optee_os/lib/libmpa/mpa_modulus.c:107
    50f0:	f94023a0 	ldr	x0, [x29,#64]
    50f4:	52800021 	mov	w1, #0x1                   	// #1
    50f8:	97fffcef 	bl	44b4 <mpa_cmp_short>
    50fc:	2a0003f5 	mov	w21, w0
/home/lagadanu/Desktop/qemu/optee_os/lib/libmpa/mpa_modulus.c:109
    5100:	eb1302df 	cmp	x22, x19
    5104:	54000101 	b.ne	5124 <mpa_inv_mod+0xcc>
/home/lagadanu/Desktop/qemu/optee_os/lib/libmpa/mpa_modulus.c:110
    5108:	910143b6 	add	x22, x29, #0x50
    510c:	aa1303e0 	mov	x0, x19
    5110:	f85f8ec1 	ldr	x1, [x22,#-8]!
    5114:	97fff143 	bl	1620 <mpa_copy>
/home/lagadanu/Desktop/qemu/optee_os/lib/libmpa/mpa_modulus.c:111
    5118:	aa1403e1 	mov	x1, x20
    511c:	aa1603e0 	mov	x0, x22
    5120:	97fff823 	bl	31ac <mpa_free_static_temp_var>
/home/lagadanu/Desktop/qemu/optee_os/lib/libmpa/mpa_modulus.c:114
    5124:	aa1403e1 	mov	x1, x20
    5128:	aa1803e0 	mov	x0, x24
    512c:	97fff820 	bl	31ac <mpa_free_static_temp_var>
/home/lagadanu/Desktop/qemu/optee_os/lib/libmpa/mpa_modulus.c:115
    5130:	34000155 	cbz	w21, 5158 <mpa_inv_mod+0x100>
/home/lagadanu/Desktop/qemu/optee_os/lib/libmpa/mpa_modulus.c:120
    5134:	12800015 	mov	w21, #0xffffffff            	// #-1
    5138:	17ffffd9 	b	509c <mpa_inv_mod+0x44>
/home/lagadanu/Desktop/qemu/optee_os/lib/libmpa/mpa_modulus.c:102
    513c:	f90027b3 	str	x19, [x29,#72]
    5140:	17ffffe2 	b	50c8 <mpa_inv_mod+0x70>
/home/lagadanu/Desktop/qemu/optee_os/lib/libmpa/mpa_modulus.c:117
    5144:	aa1403e3 	mov	x3, x20
    5148:	aa1703e2 	mov	x2, x23
    514c:	aa1303e1 	mov	x1, x19
    5150:	aa1303e0 	mov	x0, x19
    5154:	97fffb11 	bl	3d98 <mpa_add>
/home/lagadanu/Desktop/qemu/optee_os/lib/libmpa/mpa_modulus.c:116
    5158:	52800001 	mov	w1, #0x0                   	// #0
    515c:	aa1303e0 	mov	x0, x19
    5160:	97fffcd5 	bl	44b4 <mpa_cmp_short>
    5164:	37ffff00 	tbnz	w0, #31, 5144 <mpa_inv_mod+0xec>
    5168:	17ffffcd 	b	509c <mpa_inv_mod+0x44>

000000000000516c <raw_malloc_return_hook.isra.3>:
raw_malloc_return_hook():
/home/lagadanu/Desktop/qemu/optee_os/lib/libutils/isoc/bget_malloc.c:167
    516c:	d00000a3 	adrp	x3, 1b000 <buf.3610+0x4d0>
    5170:	912ce064 	add	x4, x3, #0xb38
    5174:	b9402485 	ldr	w5, [x4,#36]
    5178:	eb0200bf 	cmp	x5, x2
    517c:	5400004a 	b.ge	5184 <raw_malloc_return_hook.isra.3+0x18>
/home/lagadanu/Desktop/qemu/optee_os/lib/libutils/isoc/bget_malloc.c:168
    5180:	b9002482 	str	w2, [x4,#36]
/home/lagadanu/Desktop/qemu/optee_os/lib/libutils/isoc/bget_malloc.c:170
    5184:	b5000120 	cbnz	x0, 51a8 <raw_malloc_return_hook.isra.3+0x3c>
/home/lagadanu/Desktop/qemu/optee_os/lib/libutils/isoc/bget_malloc.c:171
    5188:	912ce060 	add	x0, x3, #0xb38
    518c:	b9402c03 	ldr	w3, [x0,#44]
    5190:	11000463 	add	w3, w3, #0x1
    5194:	b9002c03 	str	w3, [x0,#44]
/home/lagadanu/Desktop/qemu/optee_os/lib/libutils/isoc/bget_malloc.c:172
    5198:	b9403003 	ldr	w3, [x0,#48]
    519c:	eb01007f 	cmp	x3, x1
    51a0:	54000042 	b.cs	51a8 <raw_malloc_return_hook.isra.3+0x3c>
/home/lagadanu/Desktop/qemu/optee_os/lib/libutils/isoc/bget_malloc.c:174
    51a4:	29060801 	stp	w1, w2, [x0,#48]
    51a8:	d65f03c0 	ret

00000000000051ac <create_free_block.constprop.11>:
create_free_block():
/home/lagadanu/Desktop/qemu/optee_os/lib/libutils/isoc/bget_malloc.c:380
    51ac:	a9bf7bfd 	stp	x29, x30, [sp,#-16]!
/home/lagadanu/Desktop/qemu/optee_os/lib/libutils/isoc/bget_malloc.c:383
    51b0:	8b010003 	add	x3, x0, x1
    51b4:	eb02007f 	cmp	x3, x2
/home/lagadanu/Desktop/qemu/optee_os/lib/libutils/isoc/bget_malloc.c:380
    51b8:	910003fd 	mov	x29, sp
/home/lagadanu/Desktop/qemu/optee_os/lib/libutils/isoc/bget_malloc.c:383
    51bc:	54000140 	b.eq	51e4 <create_free_block.constprop.11+0x38>
    51c0:	f0000003 	adrp	x3, 8000 <PRIME_TABLE+0xb30>
    51c4:	f0000001 	adrp	x1, 8000 <PRIME_TABLE+0xb30>
    51c8:	f0000000 	adrp	x0, 8000 <PRIME_TABLE+0xb30>
    51cc:	9108a063 	add	x3, x3, #0x228
    51d0:	91127021 	add	x1, x1, #0x49c
    51d4:	9112f000 	add	x0, x0, #0x4bc
    51d8:	52802fe2 	mov	w2, #0x17f                 	// #383
/home/lagadanu/Desktop/qemu/optee_os/lib/libutils/isoc/bget_malloc.c:384
    51dc:	94000889 	bl	7400 <_assert_log>
    51e0:	94000899 	bl	7444 <_assert_break>
    51e4:	f9400462 	ldr	x2, [x3,#8]
    51e8:	b7f80122 	tbnz	x2, #63, 520c <create_free_block.constprop.11+0x60>
    51ec:	f0000003 	adrp	x3, 8000 <PRIME_TABLE+0xb30>
    51f0:	f0000001 	adrp	x1, 8000 <PRIME_TABLE+0xb30>
    51f4:	f0000000 	adrp	x0, 8000 <PRIME_TABLE+0xb30>
    51f8:	9108a063 	add	x3, x3, #0x228
    51fc:	52803002 	mov	w2, #0x180                 	// #384
    5200:	91127021 	add	x1, x1, #0x49c
    5204:	91136000 	add	x0, x0, #0x4d8
    5208:	17fffff5 	b	51dc <create_free_block.constprop.11+0x30>
/home/lagadanu/Desktop/qemu/optee_os/lib/libutils/isoc/bget_malloc.c:386
    520c:	f8616802 	ldr	x2, [x0,x1]
    5210:	b4000122 	cbz	x2, 5234 <create_free_block.constprop.11+0x88>
    5214:	f0000003 	adrp	x3, 8000 <PRIME_TABLE+0xb30>
    5218:	f0000001 	adrp	x1, 8000 <PRIME_TABLE+0xb30>
    521c:	f0000000 	adrp	x0, 8000 <PRIME_TABLE+0xb30>
    5220:	9108a063 	add	x3, x3, #0x228
    5224:	52803042 	mov	w2, #0x182                 	// #386
    5228:	91127021 	add	x1, x1, #0x49c
    522c:	91139800 	add	x0, x0, #0x4e6
    5230:	17ffffeb 	b	51dc <create_free_block.constprop.11+0x30>
/home/lagadanu/Desktop/qemu/optee_os/lib/libutils/isoc/bget_malloc.c:389
    5234:	a900041f 	stp	xzr, x1, [x0]
/home/lagadanu/Desktop/qemu/optee_os/lib/libutils/isoc/bget_malloc.c:393
    5238:	f8216801 	str	x1, [x0,x1]
/home/lagadanu/Desktop/qemu/optee_os/lib/libutils/isoc/bget_malloc.c:396
    523c:	90000021 	adrp	x1, 9000 <ta_props>
    5240:	91030021 	add	x1, x1, #0xc0
    5244:	f9400c23 	ldr	x3, [x1,#24]
    5248:	f9400862 	ldr	x2, [x3,#16]
    524c:	eb01005f 	cmp	x2, x1
    5250:	54000120 	b.eq	5274 <create_free_block.constprop.11+0xc8>
    5254:	f0000003 	adrp	x3, 8000 <PRIME_TABLE+0xb30>
    5258:	f0000001 	adrp	x1, 8000 <PRIME_TABLE+0xb30>
    525c:	f0000000 	adrp	x0, 8000 <PRIME_TABLE+0xb30>
    5260:	9108a063 	add	x3, x3, #0x228
    5264:	52803182 	mov	w2, #0x18c                 	// #396
    5268:	91127021 	add	x1, x1, #0x49c
    526c:	9113e000 	add	x0, x0, #0x4f8
    5270:	17ffffdb 	b	51dc <create_free_block.constprop.11+0x30>
/home/lagadanu/Desktop/qemu/optee_os/lib/libutils/isoc/bget_malloc.c:397
    5274:	f9400841 	ldr	x1, [x2,#16]
    5278:	f9400c21 	ldr	x1, [x1,#24]
    527c:	eb02003f 	cmp	x1, x2
    5280:	54000120 	b.eq	52a4 <create_free_block.constprop.11+0xf8>
    5284:	f0000003 	adrp	x3, 8000 <PRIME_TABLE+0xb30>
    5288:	f0000001 	adrp	x1, 8000 <PRIME_TABLE+0xb30>
    528c:	f0000000 	adrp	x0, 8000 <PRIME_TABLE+0xb30>
    5290:	9108a063 	add	x3, x3, #0x228
    5294:	528031a2 	mov	w2, #0x18d                 	// #397
    5298:	91127021 	add	x1, x1, #0x49c
    529c:	9114cc00 	add	x0, x0, #0x533
    52a0:	17ffffcf 	b	51dc <create_free_block.constprop.11+0x30>
/home/lagadanu/Desktop/qemu/optee_os/lib/libutils/isoc/bget_malloc.c:399
    52a4:	a9010c01 	stp	x1, x3, [x0,#16]
/home/lagadanu/Desktop/qemu/optee_os/lib/libutils/isoc/bget_malloc.c:400
    52a8:	f9000c20 	str	x0, [x1,#24]
/home/lagadanu/Desktop/qemu/optee_os/lib/libutils/isoc/bget_malloc.c:401
    52ac:	f9400c01 	ldr	x1, [x0,#24]
    52b0:	f9000820 	str	x0, [x1,#16]
/home/lagadanu/Desktop/qemu/optee_os/lib/libutils/isoc/bget_malloc.c:402
    52b4:	a8c17bfd 	ldp	x29, x30, [sp],#16
    52b8:	d65f03c0 	ret

00000000000052bc <bget>:
bget():
/home/lagadanu/Desktop/qemu/optee_os/lib/libutils/isoc/bget.c:576
    52bc:	a9bf7bfd 	stp	x29, x30, [sp,#-16]!
/home/lagadanu/Desktop/qemu/optee_os/lib/libutils/isoc/bget.c:587
    52c0:	f100001f 	cmp	x0, #0x0
/home/lagadanu/Desktop/qemu/optee_os/lib/libutils/isoc/bget.c:576
    52c4:	910003fd 	mov	x29, sp
/home/lagadanu/Desktop/qemu/optee_os/lib/libutils/isoc/bget.c:587
    52c8:	5400016c 	b.gt	52f4 <bget+0x38>
/home/lagadanu/Desktop/qemu/optee_os/lib/libutils/isoc/bget.c:587 (discriminator 1)
    52cc:	f0000003 	adrp	x3, 8000 <PRIME_TABLE+0xb30>
    52d0:	9108a063 	add	x3, x3, #0x228
    52d4:	f0000001 	adrp	x1, 8000 <PRIME_TABLE+0xb30>
    52d8:	f0000000 	adrp	x0, 8000 <PRIME_TABLE+0xb30>
    52dc:	91006063 	add	x3, x3, #0x18
    52e0:	9115b821 	add	x1, x1, #0x56e
    52e4:	911d9400 	add	x0, x0, #0x765
    52e8:	52804962 	mov	w2, #0x24b                 	// #587
/home/lagadanu/Desktop/qemu/optee_os/lib/libutils/isoc/bget.c:647 (discriminator 1)
    52ec:	94000845 	bl	7400 <_assert_log>
    52f0:	94000855 	bl	7444 <_assert_break>
/home/lagadanu/Desktop/qemu/optee_os/lib/libutils/isoc/bget.c:594
    52f4:	f100401f 	cmp	x0, #0x10
    52f8:	d2800202 	mov	x2, #0x10                  	// #16
    52fc:	9a82a002 	csel	x2, x0, x2, ge
/home/lagadanu/Desktop/qemu/optee_os/lib/libutils/isoc/bget.c:608
    5300:	f9400820 	ldr	x0, [x1,#16]
/home/lagadanu/Desktop/qemu/optee_os/lib/libutils/isoc/bget.c:594
    5304:	91003c42 	add	x2, x2, #0xf
    5308:	927cec42 	and	x2, x2, #0xfffffffffffffff0
/home/lagadanu/Desktop/qemu/optee_os/lib/libutils/isoc/bget.c:598
    530c:	91004042 	add	x2, x2, #0x10
/home/lagadanu/Desktop/qemu/optee_os/lib/libutils/isoc/bget.c:630
    5310:	eb01001f 	cmp	x0, x1
    5314:	54000061 	b.ne	5320 <bget+0x64>
/home/lagadanu/Desktop/qemu/optee_os/lib/libutils/isoc/bget.c:758
    5318:	d2800000 	mov	x0, #0x0                   	// #0
    531c:	1400001f 	b	5398 <bget+0xdc>
/home/lagadanu/Desktop/qemu/optee_os/lib/libutils/isoc/bget.c:631
    5320:	f9400403 	ldr	x3, [x0,#8]
    5324:	eb03005f 	cmp	x2, x3
    5328:	54000a6c 	b.gt	5474 <bget+0x1b8>
/home/lagadanu/Desktop/qemu/optee_os/lib/libutils/isoc/bget.c:642
    532c:	cb020064 	sub	x4, x3, x2
    5330:	f100809f 	cmp	x4, #0x20
    5334:	5400036d 	b.le	53a0 <bget+0xe4>
/home/lagadanu/Desktop/qemu/optee_os/lib/libutils/isoc/bget.c:645
    5338:	8b040005 	add	x5, x0, x4
/home/lagadanu/Desktop/qemu/optee_os/lib/libutils/isoc/bget.c:647
    533c:	f86268a6 	ldr	x6, [x5,x2]
    5340:	eb06007f 	cmp	x3, x6
    5344:	54000140 	b.eq	536c <bget+0xb0>
/home/lagadanu/Desktop/qemu/optee_os/lib/libutils/isoc/bget.c:647 (discriminator 1)
    5348:	f0000003 	adrp	x3, 8000 <PRIME_TABLE+0xb30>
    534c:	9108a063 	add	x3, x3, #0x228
    5350:	f0000001 	adrp	x1, 8000 <PRIME_TABLE+0xb30>
    5354:	f0000000 	adrp	x0, 8000 <PRIME_TABLE+0xb30>
    5358:	91006063 	add	x3, x3, #0x18
    535c:	528050e2 	mov	w2, #0x287                 	// #647
    5360:	9115b821 	add	x1, x1, #0x56e
    5364:	91161c00 	add	x0, x0, #0x587
    5368:	17ffffe1 	b	52ec <bget+0x30>
/home/lagadanu/Desktop/qemu/optee_os/lib/libutils/isoc/bget.c:649
    536c:	f9000404 	str	x4, [x0,#8]
/home/lagadanu/Desktop/qemu/optee_os/lib/libutils/isoc/bget.c:651
    5370:	f8246804 	str	x4, [x0,x4]
/home/lagadanu/Desktop/qemu/optee_os/lib/libutils/isoc/bget.c:653
    5374:	cb0203e0 	neg	x0, x2
    5378:	f90004a0 	str	x0, [x5,#8]
/home/lagadanu/Desktop/qemu/optee_os/lib/libutils/isoc/bget.c:658
    537c:	f9401020 	ldr	x0, [x1,#32]
/home/lagadanu/Desktop/qemu/optee_os/lib/libutils/isoc/bget.c:655
    5380:	f82268bf 	str	xzr, [x5,x2]
/home/lagadanu/Desktop/qemu/optee_os/lib/libutils/isoc/bget.c:658
    5384:	8b020002 	add	x2, x0, x2
/home/lagadanu/Desktop/qemu/optee_os/lib/libutils/isoc/bget.c:659
    5388:	f9401420 	ldr	x0, [x1,#40]
    538c:	91000400 	add	x0, x0, #0x1
    5390:	a9020022 	stp	x2, x0, [x1,#32]
/home/lagadanu/Desktop/qemu/optee_os/lib/libutils/isoc/bget.c:661
    5394:	910040a0 	add	x0, x5, #0x10
/home/lagadanu/Desktop/qemu/optee_os/lib/libutils/isoc/bget.c:759
    5398:	a8c17bfd 	ldp	x29, x30, [sp],#16
    539c:	d65f03c0 	ret
/home/lagadanu/Desktop/qemu/optee_os/lib/libutils/isoc/bget.c:668
    53a0:	f8636802 	ldr	x2, [x0,x3]
/home/lagadanu/Desktop/qemu/optee_os/lib/libutils/isoc/bget.c:667
    53a4:	8b030005 	add	x5, x0, x3
/home/lagadanu/Desktop/qemu/optee_os/lib/libutils/isoc/bget.c:668
    53a8:	eb02007f 	cmp	x3, x2
    53ac:	54000140 	b.eq	53d4 <bget+0x118>
/home/lagadanu/Desktop/qemu/optee_os/lib/libutils/isoc/bget.c:668 (discriminator 1)
    53b0:	f0000003 	adrp	x3, 8000 <PRIME_TABLE+0xb30>
    53b4:	9108a063 	add	x3, x3, #0x228
    53b8:	f0000001 	adrp	x1, 8000 <PRIME_TABLE+0xb30>
    53bc:	f0000000 	adrp	x0, 8000 <PRIME_TABLE+0xb30>
    53c0:	91006063 	add	x3, x3, #0x18
    53c4:	52805382 	mov	w2, #0x29c                 	// #668
    53c8:	9115b821 	add	x1, x1, #0x56e
    53cc:	91168c00 	add	x0, x0, #0x5a3
    53d0:	17ffffc7 	b	52ec <bget+0x30>
/home/lagadanu/Desktop/qemu/optee_os/lib/libutils/isoc/bget.c:673
    53d4:	f9400c02 	ldr	x2, [x0,#24]
    53d8:	f9400844 	ldr	x4, [x2,#16]
    53dc:	eb04001f 	cmp	x0, x4
    53e0:	54000140 	b.eq	5408 <bget+0x14c>
/home/lagadanu/Desktop/qemu/optee_os/lib/libutils/isoc/bget.c:673 (discriminator 1)
    53e4:	f0000003 	adrp	x3, 8000 <PRIME_TABLE+0xb30>
    53e8:	9108a063 	add	x3, x3, #0x228
    53ec:	f0000001 	adrp	x1, 8000 <PRIME_TABLE+0xb30>
    53f0:	f0000000 	adrp	x0, 8000 <PRIME_TABLE+0xb30>
    53f4:	91006063 	add	x3, x3, #0x18
    53f8:	52805422 	mov	w2, #0x2a1                 	// #673
    53fc:	9115b821 	add	x1, x1, #0x56e
    5400:	9116fc00 	add	x0, x0, #0x5bf
    5404:	17ffffba 	b	52ec <bget+0x30>
/home/lagadanu/Desktop/qemu/optee_os/lib/libutils/isoc/bget.c:674
    5408:	f9400804 	ldr	x4, [x0,#16]
    540c:	f9400c86 	ldr	x6, [x4,#24]
    5410:	eb06001f 	cmp	x0, x6
    5414:	54000140 	b.eq	543c <bget+0x180>
/home/lagadanu/Desktop/qemu/optee_os/lib/libutils/isoc/bget.c:674 (discriminator 1)
    5418:	f0000003 	adrp	x3, 8000 <PRIME_TABLE+0xb30>
    541c:	9108a063 	add	x3, x3, #0x228
    5420:	f0000001 	adrp	x1, 8000 <PRIME_TABLE+0xb30>
    5424:	f0000000 	adrp	x0, 8000 <PRIME_TABLE+0xb30>
    5428:	91006063 	add	x3, x3, #0x18
    542c:	52805442 	mov	w2, #0x2a2                 	// #674
    5430:	9115b821 	add	x1, x1, #0x56e
    5434:	91176800 	add	x0, x0, #0x5da
    5438:	17ffffad 	b	52ec <bget+0x30>
/home/lagadanu/Desktop/qemu/optee_os/lib/libutils/isoc/bget.c:675
    543c:	f9000844 	str	x4, [x2,#16]
/home/lagadanu/Desktop/qemu/optee_os/lib/libutils/isoc/bget.c:690
    5440:	91004000 	add	x0, x0, #0x10
/home/lagadanu/Desktop/qemu/optee_os/lib/libutils/isoc/bget.c:676
    5444:	f9400004 	ldr	x4, [x0]
    5448:	f9000c82 	str	x2, [x4,#24]
/home/lagadanu/Desktop/qemu/optee_os/lib/libutils/isoc/bget.c:679
    544c:	f9401022 	ldr	x2, [x1,#32]
    5450:	8b030042 	add	x2, x2, x3
    5454:	f9001022 	str	x2, [x1,#32]
/home/lagadanu/Desktop/qemu/optee_os/lib/libutils/isoc/bget.c:680
    5458:	f9401422 	ldr	x2, [x1,#40]
/home/lagadanu/Desktop/qemu/optee_os/lib/libutils/isoc/bget.c:683
    545c:	cb0303e3 	neg	x3, x3
/home/lagadanu/Desktop/qemu/optee_os/lib/libutils/isoc/bget.c:680
    5460:	91000442 	add	x2, x2, #0x1
    5464:	f9001422 	str	x2, [x1,#40]
/home/lagadanu/Desktop/qemu/optee_os/lib/libutils/isoc/bget.c:683
    5468:	f81f8003 	stur	x3, [x0,#-8]
/home/lagadanu/Desktop/qemu/optee_os/lib/libutils/isoc/bget.c:687
    546c:	f90000bf 	str	xzr, [x5]
/home/lagadanu/Desktop/qemu/optee_os/lib/libutils/isoc/bget.c:692
    5470:	17ffffca 	b	5398 <bget+0xdc>
/home/lagadanu/Desktop/qemu/optee_os/lib/libutils/isoc/bget.c:695
    5474:	f9400800 	ldr	x0, [x0,#16]
    5478:	17ffffa6 	b	5310 <bget+0x54>

000000000000547c <raw_malloc.constprop.15>:
raw_malloc():
/home/lagadanu/Desktop/qemu/optee_os/lib/libutils/isoc/bget_malloc.c:288
    547c:	a9bd7bfd 	stp	x29, x30, [sp,#-48]!
    5480:	910003fd 	mov	x29, sp
    5484:	a90153f3 	stp	x19, x20, [sp,#16]
    5488:	aa0003f3 	mov	x19, x0
    548c:	f90013f5 	str	x21, [sp,#32]
    5490:	90000034 	adrp	x20, 9000 <ta_props>
/home/lagadanu/Desktop/qemu/optee_os/lib/libutils/isoc/bget_malloc.c:291
    5494:	d2800015 	mov	x21, #0x0                   	// #0
/home/lagadanu/Desktop/qemu/optee_os/lib/libutils/isoc/bget_malloc.c:304
    5498:	b7f800c0 	tbnz	x0, #63, 54b0 <raw_malloc.constprop.15+0x34>
/home/lagadanu/Desktop/qemu/optee_os/lib/libutils/isoc/bget_malloc.c:311
    549c:	f100001f 	cmp	x0, #0x0
/home/lagadanu/Desktop/qemu/optee_os/lib/libutils/isoc/bget_malloc.c:313
    54a0:	91030281 	add	x1, x20, #0xc0
    54a4:	9a9f1400 	csinc	x0, x0, xzr, ne
    54a8:	97ffff85 	bl	52bc <bget>
    54ac:	aa0003f5 	mov	x21, x0
/home/lagadanu/Desktop/qemu/optee_os/lib/libutils/isoc/bget_malloc.c:315
    54b0:	91030294 	add	x20, x20, #0xc0
    54b4:	aa1303e1 	mov	x1, x19
    54b8:	aa1503e0 	mov	x0, x21
    54bc:	f9401282 	ldr	x2, [x20,#32]
    54c0:	97ffff2b 	bl	516c <raw_malloc_return_hook.isra.3>
/home/lagadanu/Desktop/qemu/optee_os/lib/libutils/isoc/bget_malloc.c:318
    54c4:	aa1503e0 	mov	x0, x21
    54c8:	f94013f5 	ldr	x21, [sp,#32]
    54cc:	a94153f3 	ldp	x19, x20, [sp,#16]
    54d0:	a8c37bfd 	ldp	x29, x30, [sp],#48
    54d4:	d65f03c0 	ret

00000000000054d8 <bgetz>:
bgetz():
/home/lagadanu/Desktop/qemu/optee_os/lib/libutils/isoc/bget.c:768
    54d8:	a9be7bfd 	stp	x29, x30, [sp,#-32]!
    54dc:	910003fd 	mov	x29, sp
    54e0:	a90153f3 	stp	x19, x20, [sp,#16]
    54e4:	aa0003f4 	mov	x20, x0
/home/lagadanu/Desktop/qemu/optee_os/lib/libutils/isoc/bget.c:769
    54e8:	97ffff75 	bl	52bc <bget>
    54ec:	aa0003f3 	mov	x19, x0
/home/lagadanu/Desktop/qemu/optee_os/lib/libutils/isoc/bget.c:771
    54f0:	b4000300 	cbz	x0, 5550 <bgetz+0x78>
/home/lagadanu/Desktop/qemu/optee_os/lib/libutils/isoc/bget.c:776
    54f4:	f85f8000 	ldur	x0, [x0,#-8]
/home/lagadanu/Desktop/qemu/optee_os/lib/libutils/isoc/bget.c:777
    54f8:	b50001e0 	cbnz	x0, 5534 <bgetz+0x5c>
/home/lagadanu/Desktop/qemu/optee_os/lib/libutils/isoc/bget.c:781
    54fc:	f85e8262 	ldur	x2, [x19,#-24]
    5500:	d1006042 	sub	x2, x2, #0x18
/home/lagadanu/Desktop/qemu/optee_os/lib/libutils/isoc/bget.c:785
    5504:	eb14005f 	cmp	x2, x20
    5508:	540001ca 	b.ge	5540 <bgetz+0x68>
    550c:	f0000003 	adrp	x3, 8000 <PRIME_TABLE+0xb30>
    5510:	9108a063 	add	x3, x3, #0x228
    5514:	91008063 	add	x3, x3, #0x20
    5518:	f0000001 	adrp	x1, 8000 <PRIME_TABLE+0xb30>
    551c:	f0000000 	adrp	x0, 8000 <PRIME_TABLE+0xb30>
    5520:	9115b821 	add	x1, x1, #0x56e
    5524:	9117d400 	add	x0, x0, #0x5f5
    5528:	52806222 	mov	w2, #0x311                 	// #785
    552c:	940007b5 	bl	7400 <_assert_log>
    5530:	940007c5 	bl	7444 <_assert_break>
/home/lagadanu/Desktop/qemu/optee_os/lib/libutils/isoc/bget.c:783
    5534:	928001e2 	mov	x2, #0xfffffffffffffff0    	// #-16
    5538:	cb000042 	sub	x2, x2, x0
    553c:	17fffff2 	b	5504 <bgetz+0x2c>
memset_unchecked():
/home/lagadanu/Desktop/qemu/optee_os/lib/libutils/isoc/bget_malloc.c:141
    5540:	93407c42 	sxtw	x2, w2
    5544:	52800001 	mov	w1, #0x0                   	// #0
    5548:	aa1303e0 	mov	x0, x19
    554c:	94000390 	bl	638c <memset>
bgetz():
/home/lagadanu/Desktop/qemu/optee_os/lib/libutils/isoc/bget.c:789
    5550:	aa1303e0 	mov	x0, x19
    5554:	a94153f3 	ldp	x19, x20, [sp,#16]
    5558:	a8c27bfd 	ldp	x29, x30, [sp],#32
    555c:	d65f03c0 	ret

0000000000005560 <brel>:
brel():
/home/lagadanu/Desktop/qemu/optee_os/lib/libutils/isoc/bget.c:840
    5560:	a9bf7bfd 	stp	x29, x30, [sp,#-16]!
    5564:	910003fd 	mov	x29, sp
/home/lagadanu/Desktop/qemu/optee_os/lib/libutils/isoc/bget.c:846
    5568:	f9401823 	ldr	x3, [x1,#48]
    556c:	91000463 	add	x3, x3, #0x1
    5570:	f9001823 	str	x3, [x1,#48]
/home/lagadanu/Desktop/qemu/optee_os/lib/libutils/isoc/bget.c:848
    5574:	b5000160 	cbnz	x0, 55a0 <brel+0x40>
/home/lagadanu/Desktop/qemu/optee_os/lib/libutils/isoc/bget.c:848 (discriminator 1)
    5578:	f0000003 	adrp	x3, 8000 <PRIME_TABLE+0xb30>
    557c:	9108a063 	add	x3, x3, #0x228
    5580:	f0000001 	adrp	x1, 8000 <PRIME_TABLE+0xb30>
    5584:	f0000000 	adrp	x0, 8000 <PRIME_TABLE+0xb30>
    5588:	9100a063 	add	x3, x3, #0x28
    558c:	9115b821 	add	x1, x1, #0x56e
    5590:	91180c00 	add	x0, x0, #0x603
    5594:	52806a02 	mov	w2, #0x350                 	// #848
/home/lagadanu/Desktop/qemu/optee_os/lib/libutils/isoc/bget.c:879 (discriminator 1)
    5598:	9400079a 	bl	7400 <_assert_log>
    559c:	940007aa 	bl	7444 <_assert_break>
/home/lagadanu/Desktop/qemu/optee_os/lib/libutils/isoc/bget.c:876
    55a0:	f85f8003 	ldur	x3, [x0,#-8]
/home/lagadanu/Desktop/qemu/optee_os/lib/libutils/isoc/bget.c:879
    55a4:	b7f80143 	tbnz	x3, #63, 55cc <brel+0x6c>
/home/lagadanu/Desktop/qemu/optee_os/lib/libutils/isoc/bget.c:879 (discriminator 1)
    55a8:	f0000003 	adrp	x3, 8000 <PRIME_TABLE+0xb30>
    55ac:	9108a063 	add	x3, x3, #0x228
    55b0:	f0000001 	adrp	x1, 8000 <PRIME_TABLE+0xb30>
    55b4:	f0000000 	adrp	x0, 8000 <PRIME_TABLE+0xb30>
    55b8:	9100a063 	add	x3, x3, #0x28
    55bc:	52806de2 	mov	w2, #0x36f                 	// #879
    55c0:	9115b821 	add	x1, x1, #0x56e
    55c4:	91183c00 	add	x0, x0, #0x60f
    55c8:	17fffff4 	b	5598 <brel+0x38>
    55cc:	d1004002 	sub	x2, x0, #0x10
/home/lagadanu/Desktop/qemu/optee_os/lib/libutils/isoc/bget.c:885
    55d0:	cb030044 	sub	x4, x2, x3
    55d4:	f9400084 	ldr	x4, [x4]
    55d8:	b4000144 	cbz	x4, 5600 <brel+0xa0>
/home/lagadanu/Desktop/qemu/optee_os/lib/libutils/isoc/bget.c:885 (discriminator 1)
    55dc:	f0000003 	adrp	x3, 8000 <PRIME_TABLE+0xb30>
    55e0:	9108a063 	add	x3, x3, #0x228
    55e4:	f0000001 	adrp	x1, 8000 <PRIME_TABLE+0xb30>
    55e8:	f0000000 	adrp	x0, 8000 <PRIME_TABLE+0xb30>
    55ec:	9100a063 	add	x3, x3, #0x28
    55f0:	52806ea2 	mov	w2, #0x375                 	// #885
    55f4:	9115b821 	add	x1, x1, #0x56e
    55f8:	91187c00 	add	x0, x0, #0x61f
    55fc:	17ffffe7 	b	5598 <brel+0x38>
/home/lagadanu/Desktop/qemu/optee_os/lib/libutils/isoc/bget.c:888
    5600:	f9401024 	ldr	x4, [x1,#32]
    5604:	8b040064 	add	x4, x3, x4
    5608:	f9001024 	str	x4, [x1,#32]
/home/lagadanu/Desktop/qemu/optee_os/lib/libutils/isoc/bget.c:889
    560c:	b6f80144 	tbz	x4, #63, 5634 <brel+0xd4>
/home/lagadanu/Desktop/qemu/optee_os/lib/libutils/isoc/bget.c:889 (discriminator 1)
    5610:	f0000003 	adrp	x3, 8000 <PRIME_TABLE+0xb30>
    5614:	9108a063 	add	x3, x3, #0x228
    5618:	f0000001 	adrp	x1, 8000 <PRIME_TABLE+0xb30>
    561c:	f0000000 	adrp	x0, 8000 <PRIME_TABLE+0xb30>
    5620:	9100a063 	add	x3, x3, #0x28
    5624:	52806f22 	mov	w2, #0x379                 	// #889
    5628:	9115b821 	add	x1, x1, #0x56e
    562c:	91192c00 	add	x0, x0, #0x64b
    5630:	17ffffda 	b	5598 <brel+0x38>
/home/lagadanu/Desktop/qemu/optee_os/lib/libutils/isoc/bget.c:894
    5634:	f85f0004 	ldur	x4, [x0,#-16]
    5638:	b4000424 	cbz	x4, 56bc <brel+0x15c>
/home/lagadanu/Desktop/qemu/optee_os/lib/libutils/isoc/bget.c:905
    563c:	cb040042 	sub	x2, x2, x4
    5640:	f9400440 	ldr	x0, [x2,#8]
    5644:	eb00009f 	cmp	x4, x0
    5648:	54000140 	b.eq	5670 <brel+0x110>
/home/lagadanu/Desktop/qemu/optee_os/lib/libutils/isoc/bget.c:905 (discriminator 1)
    564c:	f0000003 	adrp	x3, 8000 <PRIME_TABLE+0xb30>
    5650:	9108a063 	add	x3, x3, #0x228
    5654:	f0000001 	adrp	x1, 8000 <PRIME_TABLE+0xb30>
    5658:	f0000000 	adrp	x0, 8000 <PRIME_TABLE+0xb30>
    565c:	9100a063 	add	x3, x3, #0x28
    5660:	52807122 	mov	w2, #0x389                 	// #905
    5664:	9115b821 	add	x1, x1, #0x56e
    5668:	91198800 	add	x0, x0, #0x662
    566c:	17ffffcb 	b	5598 <brel+0x38>
/home/lagadanu/Desktop/qemu/optee_os/lib/libutils/isoc/bget.c:907
    5670:	cb030083 	sub	x3, x4, x3
    5674:	f9000443 	str	x3, [x2,#8]
/home/lagadanu/Desktop/qemu/optee_os/lib/libutils/isoc/bget.c:927
    5678:	f9400441 	ldr	x1, [x2,#8]
    567c:	8b010040 	add	x0, x2, x1
/home/lagadanu/Desktop/qemu/optee_os/lib/libutils/isoc/bget.c:928
    5680:	f9400403 	ldr	x3, [x0,#8]
    5684:	f100007f 	cmp	x3, #0x0
    5688:	540009cd 	b.le	57c0 <brel+0x260>
/home/lagadanu/Desktop/qemu/optee_os/lib/libutils/isoc/bget.c:933
    568c:	f8636804 	ldr	x4, [x0,x3]
    5690:	eb04007f 	cmp	x3, x4
    5694:	54000560 	b.eq	5740 <brel+0x1e0>
/home/lagadanu/Desktop/qemu/optee_os/lib/libutils/isoc/bget.c:933 (discriminator 1)
    5698:	f0000003 	adrp	x3, 8000 <PRIME_TABLE+0xb30>
    569c:	9108a063 	add	x3, x3, #0x228
    56a0:	f0000001 	adrp	x1, 8000 <PRIME_TABLE+0xb30>
    56a4:	f0000000 	adrp	x0, 8000 <PRIME_TABLE+0xb30>
    56a8:	9100a063 	add	x3, x3, #0x28
    56ac:	528074a2 	mov	w2, #0x3a5                 	// #933
    56b0:	9115b821 	add	x1, x1, #0x56e
    56b4:	911a6c00 	add	x0, x0, #0x69b
    56b8:	17ffffb8 	b	5598 <brel+0x38>
/home/lagadanu/Desktop/qemu/optee_os/lib/libutils/isoc/bget.c:913
    56bc:	f9400c25 	ldr	x5, [x1,#24]
    56c0:	f94008a4 	ldr	x4, [x5,#16]
    56c4:	eb01009f 	cmp	x4, x1
    56c8:	54000140 	b.eq	56f0 <brel+0x190>
/home/lagadanu/Desktop/qemu/optee_os/lib/libutils/isoc/bget.c:913 (discriminator 1)
    56cc:	f0000003 	adrp	x3, 8000 <PRIME_TABLE+0xb30>
    56d0:	9108a063 	add	x3, x3, #0x228
    56d4:	f0000001 	adrp	x1, 8000 <PRIME_TABLE+0xb30>
    56d8:	f0000000 	adrp	x0, 8000 <PRIME_TABLE+0xb30>
    56dc:	9100a063 	add	x3, x3, #0x28
    56e0:	52807222 	mov	w2, #0x391                 	// #913
    56e4:	9115b821 	add	x1, x1, #0x56e
    56e8:	9113e000 	add	x0, x0, #0x4f8
    56ec:	17ffffab 	b	5598 <brel+0x38>
/home/lagadanu/Desktop/qemu/optee_os/lib/libutils/isoc/bget.c:914
    56f0:	f9400881 	ldr	x1, [x4,#16]
    56f4:	f9400c21 	ldr	x1, [x1,#24]
    56f8:	eb01009f 	cmp	x4, x1
    56fc:	54000140 	b.eq	5724 <brel+0x1c4>
/home/lagadanu/Desktop/qemu/optee_os/lib/libutils/isoc/bget.c:914 (discriminator 1)
    5700:	f0000003 	adrp	x3, 8000 <PRIME_TABLE+0xb30>
    5704:	9108a063 	add	x3, x3, #0x228
    5708:	f0000001 	adrp	x1, 8000 <PRIME_TABLE+0xb30>
    570c:	f0000000 	adrp	x0, 8000 <PRIME_TABLE+0xb30>
    5710:	9100a063 	add	x3, x3, #0x28
    5714:	52807242 	mov	w2, #0x392                 	// #914
    5718:	9115b821 	add	x1, x1, #0x56e
    571c:	9114cc00 	add	x0, x0, #0x533
    5720:	17ffff9e 	b	5598 <brel+0x38>
/home/lagadanu/Desktop/qemu/optee_os/lib/libutils/isoc/bget.c:916
    5724:	a9011444 	stp	x4, x5, [x2,#16]
/home/lagadanu/Desktop/qemu/optee_os/lib/libutils/isoc/bget.c:880
    5728:	cb0303e3 	neg	x3, x3
/home/lagadanu/Desktop/qemu/optee_os/lib/libutils/isoc/bget.c:917
    572c:	f9000c82 	str	x2, [x4,#24]
/home/lagadanu/Desktop/qemu/optee_os/lib/libutils/isoc/bget.c:918
    5730:	f9400c41 	ldr	x1, [x2,#24]
    5734:	f9000822 	str	x2, [x1,#16]
/home/lagadanu/Desktop/qemu/optee_os/lib/libutils/isoc/bget.c:919
    5738:	f81f8003 	stur	x3, [x0,#-8]
    573c:	17ffffcf 	b	5678 <brel+0x118>
/home/lagadanu/Desktop/qemu/optee_os/lib/libutils/isoc/bget.c:934
    5740:	f9400c04 	ldr	x4, [x0,#24]
    5744:	f9400885 	ldr	x5, [x4,#16]
    5748:	eb05001f 	cmp	x0, x5
    574c:	54000140 	b.eq	5774 <brel+0x214>
/home/lagadanu/Desktop/qemu/optee_os/lib/libutils/isoc/bget.c:934 (discriminator 1)
    5750:	f0000003 	adrp	x3, 8000 <PRIME_TABLE+0xb30>
    5754:	9108a063 	add	x3, x3, #0x228
    5758:	f0000001 	adrp	x1, 8000 <PRIME_TABLE+0xb30>
    575c:	f0000000 	adrp	x0, 8000 <PRIME_TABLE+0xb30>
    5760:	9100a063 	add	x3, x3, #0x28
    5764:	528074c2 	mov	w2, #0x3a6                 	// #934
    5768:	9115b821 	add	x1, x1, #0x56e
    576c:	911b5000 	add	x0, x0, #0x6d4
    5770:	17ffff8a 	b	5598 <brel+0x38>
/home/lagadanu/Desktop/qemu/optee_os/lib/libutils/isoc/bget.c:935
    5774:	f9400805 	ldr	x5, [x0,#16]
    5778:	f9400ca6 	ldr	x6, [x5,#24]
    577c:	eb06001f 	cmp	x0, x6
    5780:	54000140 	b.eq	57a8 <brel+0x248>
/home/lagadanu/Desktop/qemu/optee_os/lib/libutils/isoc/bget.c:935 (discriminator 1)
    5784:	f0000003 	adrp	x3, 8000 <PRIME_TABLE+0xb30>
    5788:	9108a063 	add	x3, x3, #0x228
    578c:	f0000001 	adrp	x1, 8000 <PRIME_TABLE+0xb30>
    5790:	f0000000 	adrp	x0, 8000 <PRIME_TABLE+0xb30>
    5794:	9100a063 	add	x3, x3, #0x28
    5798:	528074e2 	mov	w2, #0x3a7                 	// #935
    579c:	9115b821 	add	x1, x1, #0x56e
    57a0:	911bc400 	add	x0, x0, #0x6f1
    57a4:	17ffff7d 	b	5598 <brel+0x38>
/home/lagadanu/Desktop/qemu/optee_os/lib/libutils/isoc/bget.c:936
    57a8:	f9000885 	str	x5, [x4,#16]
/home/lagadanu/Desktop/qemu/optee_os/lib/libutils/isoc/bget.c:937
    57ac:	f9400800 	ldr	x0, [x0,#16]
    57b0:	f9000c04 	str	x4, [x0,#24]
/home/lagadanu/Desktop/qemu/optee_os/lib/libutils/isoc/bget.c:938
    57b4:	8b030020 	add	x0, x1, x3
    57b8:	f9000440 	str	x0, [x2,#8]
/home/lagadanu/Desktop/qemu/optee_os/lib/libutils/isoc/bget.c:947
    57bc:	8b000040 	add	x0, x2, x0
/home/lagadanu/Desktop/qemu/optee_os/lib/libutils/isoc/bget.c:953
    57c0:	f9400401 	ldr	x1, [x0,#8]
    57c4:	b7f80141 	tbnz	x1, #63, 57ec <brel+0x28c>
/home/lagadanu/Desktop/qemu/optee_os/lib/libutils/isoc/bget.c:953 (discriminator 1)
    57c8:	f0000003 	adrp	x3, 8000 <PRIME_TABLE+0xb30>
    57cc:	9108a063 	add	x3, x3, #0x228
    57d0:	f0000001 	adrp	x1, 8000 <PRIME_TABLE+0xb30>
    57d4:	f0000000 	adrp	x0, 8000 <PRIME_TABLE+0xb30>
    57d8:	9100a063 	add	x3, x3, #0x28
    57dc:	52807722 	mov	w2, #0x3b9                 	// #953
    57e0:	9115b821 	add	x1, x1, #0x56e
    57e4:	911c3800 	add	x0, x0, #0x70e
    57e8:	17ffff6c 	b	5598 <brel+0x38>
/home/lagadanu/Desktop/qemu/optee_os/lib/libutils/isoc/bget.c:958
    57ec:	f9400441 	ldr	x1, [x2,#8]
    57f0:	f9000001 	str	x1, [x0]
/home/lagadanu/Desktop/qemu/optee_os/lib/libutils/isoc/bget.c:986
    57f4:	a8c17bfd 	ldp	x29, x30, [sp],#16
    57f8:	d65f03c0 	ret

00000000000057fc <bgetr>:
bgetr():
/home/lagadanu/Desktop/qemu/optee_os/lib/libutils/isoc/bget.c:800
    57fc:	a9bc7bfd 	stp	x29, x30, [sp,#-64]!
    5800:	910003fd 	mov	x29, sp
    5804:	a90153f3 	stp	x19, x20, [sp,#16]
    5808:	aa0103f4 	mov	x20, x1
    580c:	a9025bf5 	stp	x21, x22, [sp,#32]
/home/lagadanu/Desktop/qemu/optee_os/lib/libutils/isoc/bget.c:805
    5810:	aa0203e1 	mov	x1, x2
/home/lagadanu/Desktop/qemu/optee_os/lib/libutils/isoc/bget.c:800
    5814:	f9001bf7 	str	x23, [sp,#48]
    5818:	aa0003f5 	mov	x21, x0
    581c:	aa0203f7 	mov	x23, x2
/home/lagadanu/Desktop/qemu/optee_os/lib/libutils/isoc/bget.c:805
    5820:	aa1403e0 	mov	x0, x20
    5824:	97fffea6 	bl	52bc <bget>
    5828:	aa0003f6 	mov	x22, x0
    582c:	b4000400 	cbz	x0, 58ac <bgetr+0xb0>
/home/lagadanu/Desktop/qemu/optee_os/lib/libutils/isoc/bget.c:808
    5830:	b40003f5 	cbz	x21, 58ac <bgetr+0xb0>
/home/lagadanu/Desktop/qemu/optee_os/lib/libutils/isoc/bget.c:822
    5834:	f85f82a1 	ldur	x1, [x21,#-8]
    5838:	928001f3 	mov	x19, #0xfffffffffffffff0    	// #-16
    583c:	cb010273 	sub	x19, x19, x1
/home/lagadanu/Desktop/qemu/optee_os/lib/libutils/isoc/bget.c:823
    5840:	f100027f 	cmp	x19, #0x0
    5844:	5400016c 	b.gt	5870 <bgetr+0x74>
    5848:	f0000003 	adrp	x3, 8000 <PRIME_TABLE+0xb30>
    584c:	9108a063 	add	x3, x3, #0x228
    5850:	9100c063 	add	x3, x3, #0x30
    5854:	f0000001 	adrp	x1, 8000 <PRIME_TABLE+0xb30>
    5858:	f0000000 	adrp	x0, 8000 <PRIME_TABLE+0xb30>
    585c:	9115b821 	add	x1, x1, #0x56e
    5860:	911c7c00 	add	x0, x0, #0x71f
    5864:	528066e2 	mov	w2, #0x337                 	// #823
    5868:	940006e6 	bl	7400 <_assert_log>
    586c:	940006f6 	bl	7444 <_assert_break>
/home/lagadanu/Desktop/qemu/optee_os/lib/libutils/isoc/bget.c:824
    5870:	eb13029f 	cmp	x20, x19
    5874:	93407e81 	sxtw	x1, w20
    5878:	93407e62 	sxtw	x2, w19
    587c:	9a81a042 	csel	x2, x2, x1, ge
    5880:	aa1503e1 	mov	x1, x21
    5884:	940002a7 	bl	6320 <memcpy>
/home/lagadanu/Desktop/qemu/optee_os/lib/libutils/isoc/bget.c:828
    5888:	eb13029f 	cmp	x20, x19
    588c:	540000ad 	b.le	58a0 <bgetr+0xa4>
/home/lagadanu/Desktop/qemu/optee_os/lib/libutils/isoc/bget.c:829
    5890:	cb130282 	sub	x2, x20, x19
    5894:	52800001 	mov	w1, #0x0                   	// #0
    5898:	8b1302c0 	add	x0, x22, x19
    589c:	940002bc 	bl	638c <memset>
/home/lagadanu/Desktop/qemu/optee_os/lib/libutils/isoc/bget.c:831
    58a0:	aa1703e1 	mov	x1, x23
    58a4:	aa1503e0 	mov	x0, x21
    58a8:	97ffff2e 	bl	5560 <brel>
/home/lagadanu/Desktop/qemu/optee_os/lib/libutils/isoc/bget.c:833
    58ac:	aa1603e0 	mov	x0, x22
    58b0:	f9401bf7 	ldr	x23, [sp,#48]
    58b4:	a94153f3 	ldp	x19, x20, [sp,#16]
    58b8:	a9425bf5 	ldp	x21, x22, [sp,#32]
    58bc:	a8c47bfd 	ldp	x29, x30, [sp],#64
    58c0:	d65f03c0 	ret

00000000000058c4 <bpool>:
bpool():
/home/lagadanu/Desktop/qemu/optee_os/lib/libutils/isoc/bget.c:1012
    58c4:	a9bf7bfd 	stp	x29, x30, [sp,#-16]!
/home/lagadanu/Desktop/qemu/optee_os/lib/libutils/isoc/bget.c:1017
    58c8:	927cec21 	and	x1, x1, #0xfffffffffffffff0
/home/lagadanu/Desktop/qemu/optee_os/lib/libutils/isoc/bget.c:1036
    58cc:	f1004021 	subs	x1, x1, #0x10
/home/lagadanu/Desktop/qemu/optee_os/lib/libutils/isoc/bget.c:1012
    58d0:	910003fd 	mov	x29, sp
/home/lagadanu/Desktop/qemu/optee_os/lib/libutils/isoc/bget.c:1036
    58d4:	54000165 	b.pl	5900 <bpool+0x3c>
    58d8:	f0000003 	adrp	x3, 8000 <PRIME_TABLE+0xb30>
    58dc:	9108a063 	add	x3, x3, #0x228
    58e0:	f0000001 	adrp	x1, 8000 <PRIME_TABLE+0xb30>
    58e4:	f0000000 	adrp	x0, 8000 <PRIME_TABLE+0xb30>
    58e8:	9100e063 	add	x3, x3, #0x38
    58ec:	9115b821 	add	x1, x1, #0x56e
    58f0:	911ca400 	add	x0, x0, #0x729
    58f4:	52808182 	mov	w2, #0x40c                 	// #1036
/home/lagadanu/Desktop/qemu/optee_os/lib/libutils/isoc/bget.c:1046 (discriminator 1)
    58f8:	940006c2 	bl	7400 <_assert_log>
    58fc:	940006d2 	bl	7444 <_assert_break>
/home/lagadanu/Desktop/qemu/optee_os/lib/libutils/isoc/bget.c:1046
    5900:	f9400c44 	ldr	x4, [x2,#24]
    5904:	f9400883 	ldr	x3, [x4,#16]
/home/lagadanu/Desktop/qemu/optee_os/lib/libutils/isoc/bget.c:1042
    5908:	f900001f 	str	xzr, [x0]
/home/lagadanu/Desktop/qemu/optee_os/lib/libutils/isoc/bget.c:1046
    590c:	eb02007f 	cmp	x3, x2
    5910:	54000140 	b.eq	5938 <bpool+0x74>
/home/lagadanu/Desktop/qemu/optee_os/lib/libutils/isoc/bget.c:1046 (discriminator 1)
    5914:	f0000003 	adrp	x3, 8000 <PRIME_TABLE+0xb30>
    5918:	9108a063 	add	x3, x3, #0x228
    591c:	f0000001 	adrp	x1, 8000 <PRIME_TABLE+0xb30>
    5920:	f0000000 	adrp	x0, 8000 <PRIME_TABLE+0xb30>
    5924:	9100e063 	add	x3, x3, #0x38
    5928:	528082c2 	mov	w2, #0x416                 	// #1046
    592c:	9115b821 	add	x1, x1, #0x56e
    5930:	9113e000 	add	x0, x0, #0x4f8
    5934:	17fffff1 	b	58f8 <bpool+0x34>
/home/lagadanu/Desktop/qemu/optee_os/lib/libutils/isoc/bget.c:1047
    5938:	f9400862 	ldr	x2, [x3,#16]
    593c:	f9400c42 	ldr	x2, [x2,#24]
    5940:	eb02007f 	cmp	x3, x2
    5944:	54000140 	b.eq	596c <bpool+0xa8>
/home/lagadanu/Desktop/qemu/optee_os/lib/libutils/isoc/bget.c:1047 (discriminator 1)
    5948:	f0000003 	adrp	x3, 8000 <PRIME_TABLE+0xb30>
    594c:	9108a063 	add	x3, x3, #0x228
    5950:	f0000001 	adrp	x1, 8000 <PRIME_TABLE+0xb30>
    5954:	f0000000 	adrp	x0, 8000 <PRIME_TABLE+0xb30>
    5958:	9100e063 	add	x3, x3, #0x38
    595c:	528082e2 	mov	w2, #0x417                 	// #1047
    5960:	9115b821 	add	x1, x1, #0x56e
    5964:	9114cc00 	add	x0, x0, #0x533
    5968:	17ffffe4 	b	58f8 <bpool+0x34>
/home/lagadanu/Desktop/qemu/optee_os/lib/libutils/isoc/bget.c:1049
    596c:	a9011003 	stp	x3, x4, [x0,#16]
/home/lagadanu/Desktop/qemu/optee_os/lib/libutils/isoc/bget.c:1050
    5970:	f9000c60 	str	x0, [x3,#24]
/home/lagadanu/Desktop/qemu/optee_os/lib/libutils/isoc/bget.c:1051
    5974:	f9400c02 	ldr	x2, [x0,#24]
    5978:	f9000840 	str	x0, [x2,#16]
/home/lagadanu/Desktop/qemu/optee_os/lib/libutils/isoc/bget.c:1067
    597c:	8b010002 	add	x2, x0, x1
/home/lagadanu/Desktop/qemu/optee_os/lib/libutils/isoc/bget.c:1062
    5980:	f9000401 	str	x1, [x0,#8]
/home/lagadanu/Desktop/qemu/optee_os/lib/libutils/isoc/bget.c:1068
    5984:	f8216801 	str	x1, [x0,x1]
/home/lagadanu/Desktop/qemu/optee_os/lib/libutils/isoc/bget.c:1071
    5988:	d2f00000 	mov	x0, #0x8000000000000000    	// #-9223372036854775808
    598c:	f9000440 	str	x0, [x2,#8]
/home/lagadanu/Desktop/qemu/optee_os/lib/libutils/isoc/bget.c:1072
    5990:	a8c17bfd 	ldp	x29, x30, [sp],#16
    5994:	d65f03c0 	ret

0000000000005998 <bstats>:
bstats():
/home/lagadanu/Desktop/qemu/optee_os/lib/libutils/isoc/bget.c:1085
    5998:	f94014a7 	ldr	x7, [x5,#40]
/home/lagadanu/Desktop/qemu/optee_os/lib/libutils/isoc/bget.c:1083
    599c:	f94008a6 	ldr	x6, [x5,#16]
/home/lagadanu/Desktop/qemu/optee_os/lib/libutils/isoc/bget.c:1085
    59a0:	f9000067 	str	x7, [x3]
/home/lagadanu/Desktop/qemu/optee_os/lib/libutils/isoc/bget.c:1086
    59a4:	f94018a3 	ldr	x3, [x5,#48]
    59a8:	f9000083 	str	x3, [x4]
/home/lagadanu/Desktop/qemu/optee_os/lib/libutils/isoc/bget.c:1087
    59ac:	f94010a3 	ldr	x3, [x5,#32]
    59b0:	f9000003 	str	x3, [x0]
/home/lagadanu/Desktop/qemu/optee_os/lib/libutils/isoc/bget.c:1089
    59b4:	92800000 	mov	x0, #0xffffffffffffffff    	// #-1
/home/lagadanu/Desktop/qemu/optee_os/lib/libutils/isoc/bget.c:1088
    59b8:	f900003f 	str	xzr, [x1]
/home/lagadanu/Desktop/qemu/optee_os/lib/libutils/isoc/bget.c:1089
    59bc:	f9000040 	str	x0, [x2]
/home/lagadanu/Desktop/qemu/optee_os/lib/libutils/isoc/bget.c:1090
    59c0:	eb0500df 	cmp	x6, x5
    59c4:	54000041 	b.ne	59cc <bstats+0x34>
    59c8:	d65f03c0 	ret
/home/lagadanu/Desktop/qemu/optee_os/lib/libutils/isoc/bget.c:1091
    59cc:	f94004c3 	ldr	x3, [x6,#8]
    59d0:	f100007f 	cmp	x3, #0x0
    59d4:	540001ac 	b.gt	5a08 <bstats+0x70>
/home/lagadanu/Desktop/qemu/optee_os/lib/libutils/isoc/bget.c:1091 (discriminator 1)
    59d8:	f0000003 	adrp	x3, 8000 <PRIME_TABLE+0xb30>
    59dc:	9108a063 	add	x3, x3, #0x228
    59e0:	91010063 	add	x3, x3, #0x40
    59e4:	f0000001 	adrp	x1, 8000 <PRIME_TABLE+0xb30>
    59e8:	f0000000 	adrp	x0, 8000 <PRIME_TABLE+0xb30>
    59ec:	9115b821 	add	x1, x1, #0x56e
    59f0:	911d7800 	add	x0, x0, #0x75e
/home/lagadanu/Desktop/qemu/optee_os/lib/libutils/isoc/bget.c:1082 (discriminator 1)
    59f4:	a9bf7bfd 	stp	x29, x30, [sp,#-16]!
/home/lagadanu/Desktop/qemu/optee_os/lib/libutils/isoc/bget.c:1091 (discriminator 1)
    59f8:	52808862 	mov	w2, #0x443                 	// #1091
/home/lagadanu/Desktop/qemu/optee_os/lib/libutils/isoc/bget.c:1082 (discriminator 1)
    59fc:	910003fd 	mov	x29, sp
/home/lagadanu/Desktop/qemu/optee_os/lib/libutils/isoc/bget.c:1091 (discriminator 1)
    5a00:	94000680 	bl	7400 <_assert_log>
    5a04:	94000690 	bl	7444 <_assert_break>
/home/lagadanu/Desktop/qemu/optee_os/lib/libutils/isoc/bget.c:1092
    5a08:	f9400020 	ldr	x0, [x1]
    5a0c:	8b030000 	add	x0, x0, x3
    5a10:	f9000020 	str	x0, [x1]
/home/lagadanu/Desktop/qemu/optee_os/lib/libutils/isoc/bget.c:1093
    5a14:	f9400043 	ldr	x3, [x2]
    5a18:	f94004c0 	ldr	x0, [x6,#8]
    5a1c:	eb03001f 	cmp	x0, x3
    5a20:	5400004d 	b.le	5a28 <bstats+0x90>
/home/lagadanu/Desktop/qemu/optee_os/lib/libutils/isoc/bget.c:1094
    5a24:	f9000040 	str	x0, [x2]
/home/lagadanu/Desktop/qemu/optee_os/lib/libutils/isoc/bget.c:1096
    5a28:	f94008c6 	ldr	x6, [x6,#16]
    5a2c:	17ffffe5 	b	59c0 <bstats+0x28>

0000000000005a30 <malloc_reset_stats>:
malloc_reset_stats():
/home/lagadanu/Desktop/qemu/optee_os/lib/libutils/isoc/bget_malloc.c:183
    5a30:	d00000a0 	adrp	x0, 1b000 <buf.3610+0x4d0>
    5a34:	912ce000 	add	x0, x0, #0xb38
    5a38:	b900241f 	str	wzr, [x0,#36]
/home/lagadanu/Desktop/qemu/optee_os/lib/libutils/isoc/bget_malloc.c:185
    5a3c:	2905fc1f 	stp	wzr, wzr, [x0,#44]
/home/lagadanu/Desktop/qemu/optee_os/lib/libutils/isoc/bget_malloc.c:186
    5a40:	b900341f 	str	wzr, [x0,#52]
    5a44:	d65f03c0 	ret

0000000000005a48 <malloc_get_stats>:
malloc_get_stats():
/home/lagadanu/Desktop/qemu/optee_os/lib/libutils/isoc/bget_malloc.c:191
    5a48:	a9bf7bfd 	stp	x29, x30, [sp,#-16]!
/home/lagadanu/Desktop/qemu/optee_os/lib/libutils/isoc/bget_malloc.c:194
    5a4c:	d2800702 	mov	x2, #0x38                  	// #56
    5a50:	d00000a1 	adrp	x1, 1b000 <buf.3610+0x4d0>
    5a54:	912ce021 	add	x1, x1, #0xb38
/home/lagadanu/Desktop/qemu/optee_os/lib/libutils/isoc/bget_malloc.c:191
    5a58:	910003fd 	mov	x29, sp
/home/lagadanu/Desktop/qemu/optee_os/lib/libutils/isoc/bget_malloc.c:194
    5a5c:	94000231 	bl	6320 <memcpy>
    5a60:	aa0003e3 	mov	x3, x0
/home/lagadanu/Desktop/qemu/optee_os/lib/libutils/isoc/bget_malloc.c:195
    5a64:	90000020 	adrp	x0, 9000 <ta_props>
    5a68:	f9407000 	ldr	x0, [x0,#224]
    5a6c:	b9002060 	str	w0, [x3,#32]
/home/lagadanu/Desktop/qemu/optee_os/lib/libutils/isoc/bget_malloc.c:197
    5a70:	a8c17bfd 	ldp	x29, x30, [sp],#16
    5a74:	d65f03c0 	ret

0000000000005a78 <malloc>:
malloc():
/home/lagadanu/Desktop/qemu/optee_os/lib/libutils/isoc/bget_malloc.c:821
    5a78:	17fffe81 	b	547c <raw_malloc.constprop.15>

0000000000005a7c <free>:
raw_free():
/home/lagadanu/Desktop/qemu/optee_os/lib/libutils/isoc/bget_malloc.c:324
    5a7c:	b4000080 	cbz	x0, 5a8c <free+0x10>
/home/lagadanu/Desktop/qemu/optee_os/lib/libutils/isoc/bget_malloc.c:325
    5a80:	90000021 	adrp	x1, 9000 <ta_props>
    5a84:	91030021 	add	x1, x1, #0xc0
    5a88:	17fffeb6 	b	5560 <brel>
    5a8c:	d65f03c0 	ret

0000000000005a90 <calloc>:
calloc():
/home/lagadanu/Desktop/qemu/optee_os/lib/libutils/isoc/bget_malloc.c:835
    5a90:	a9bd7bfd 	stp	x29, x30, [sp,#-48]!
    5a94:	910003fd 	mov	x29, sp
    5a98:	a90153f3 	stp	x19, x20, [sp,#16]
raw_calloc():
/home/lagadanu/Desktop/qemu/optee_os/lib/libutils/isoc/bget_malloc.c:337
    5a9c:	9b017c13 	mul	x19, x0, x1
    5aa0:	9bc17c01 	umulh	x1, x0, x1
calloc():
/home/lagadanu/Desktop/qemu/optee_os/lib/libutils/isoc/bget_malloc.c:835
    5aa4:	f90013f5 	str	x21, [sp,#32]
raw_calloc():
/home/lagadanu/Desktop/qemu/optee_os/lib/libutils/isoc/bget_malloc.c:337
    5aa8:	d2800020 	mov	x0, #0x1                   	// #1
    5aac:	90000034 	adrp	x20, 9000 <ta_props>
    5ab0:	f100003f 	cmp	x1, #0x0
/home/lagadanu/Desktop/qemu/optee_os/lib/libutils/isoc/bget_malloc.c:331
    5ab4:	d2800015 	mov	x21, #0x0                   	// #0
/home/lagadanu/Desktop/qemu/optee_os/lib/libutils/isoc/bget_malloc.c:337
    5ab8:	9a9f07e1 	cset	x1, ne
    5abc:	f100027f 	cmp	x19, #0x0
    5ac0:	9a80a021 	csel	x1, x1, x0, ge
    5ac4:	b50000a1 	cbnz	x1, 5ad8 <calloc+0x48>
/home/lagadanu/Desktop/qemu/optee_os/lib/libutils/isoc/bget_malloc.c:348
    5ac8:	91030281 	add	x1, x20, #0xc0
    5acc:	9a801260 	csel	x0, x19, x0, ne
    5ad0:	97fffe82 	bl	54d8 <bgetz>
    5ad4:	aa0003f5 	mov	x21, x0
/home/lagadanu/Desktop/qemu/optee_os/lib/libutils/isoc/bget_malloc.c:350
    5ad8:	91030294 	add	x20, x20, #0xc0
    5adc:	aa1303e1 	mov	x1, x19
    5ae0:	aa1503e0 	mov	x0, x21
    5ae4:	f9401282 	ldr	x2, [x20,#32]
    5ae8:	97fffda1 	bl	516c <raw_malloc_return_hook.isra.3>
calloc():
/home/lagadanu/Desktop/qemu/optee_os/lib/libutils/isoc/bget_malloc.c:842
    5aec:	aa1503e0 	mov	x0, x21
    5af0:	f94013f5 	ldr	x21, [sp,#32]
    5af4:	a94153f3 	ldp	x19, x20, [sp,#16]
    5af8:	a8c37bfd 	ldp	x29, x30, [sp],#48
    5afc:	d65f03c0 	ret

0000000000005b00 <realloc>:
realloc():
/home/lagadanu/Desktop/qemu/optee_os/lib/libutils/isoc/bget_malloc.c:850
    5b00:	a9bd7bfd 	stp	x29, x30, [sp,#-48]!
    5b04:	910003fd 	mov	x29, sp
    5b08:	a90153f3 	stp	x19, x20, [sp,#16]
    5b0c:	aa0103f3 	mov	x19, x1
    5b10:	f90013f5 	str	x21, [sp,#32]
    5b14:	90000034 	adrp	x20, 9000 <ta_props>
raw_realloc():
/home/lagadanu/Desktop/qemu/optee_os/lib/libutils/isoc/bget_malloc.c:358
    5b18:	d2800015 	mov	x21, #0x0                   	// #0
/home/lagadanu/Desktop/qemu/optee_os/lib/libutils/isoc/bget_malloc.c:362
    5b1c:	b7f800c1 	tbnz	x1, #63, 5b34 <realloc+0x34>
/home/lagadanu/Desktop/qemu/optee_os/lib/libutils/isoc/bget_malloc.c:371
    5b20:	f100003f 	cmp	x1, #0x0
/home/lagadanu/Desktop/qemu/optee_os/lib/libutils/isoc/bget_malloc.c:373
    5b24:	91030282 	add	x2, x20, #0xc0
    5b28:	9a9f1421 	csinc	x1, x1, xzr, ne
    5b2c:	97ffff34 	bl	57fc <bgetr>
    5b30:	aa0003f5 	mov	x21, x0
/home/lagadanu/Desktop/qemu/optee_os/lib/libutils/isoc/bget_malloc.c:375
    5b34:	91030294 	add	x20, x20, #0xc0
    5b38:	aa1303e1 	mov	x1, x19
    5b3c:	aa1503e0 	mov	x0, x21
    5b40:	f9401282 	ldr	x2, [x20,#32]
    5b44:	97fffd8a 	bl	516c <raw_malloc_return_hook.isra.3>
realloc():
/home/lagadanu/Desktop/qemu/optee_os/lib/libutils/isoc/bget_malloc.c:857
    5b48:	aa1503e0 	mov	x0, x21
    5b4c:	f94013f5 	ldr	x21, [sp,#32]
    5b50:	a94153f3 	ldp	x19, x20, [sp,#16]
    5b54:	a8c37bfd 	ldp	x29, x30, [sp],#48
    5b58:	d65f03c0 	ret

0000000000005b5c <memalign>:
memalign():
/home/lagadanu/Desktop/qemu/optee_os/lib/libutils/isoc/bget_malloc.c:860
    5b5c:	a9bc7bfd 	stp	x29, x30, [sp,#-64]!
    5b60:	910003fd 	mov	x29, sp
    5b64:	a90153f3 	stp	x19, x20, [sp,#16]
    5b68:	aa0003f4 	mov	x20, x0
    5b6c:	a9025bf5 	stp	x21, x22, [sp,#32]
    5b70:	f9001bf7 	str	x23, [sp,#48]
raw_memalign():
/home/lagadanu/Desktop/qemu/optee_os/lib/libutils/isoc/bget_malloc.c:535
    5b74:	b4001c40 	cbz	x0, 5efc <memalign+0x3a0>
    5b78:	cb0003f3 	neg	x19, x0
    5b7c:	ea33001f 	bics	xzr, x0, x19
    5b80:	54001be1 	b.ne	5efc <memalign+0x3a0>
    5b84:	aa0103e0 	mov	x0, x1
/home/lagadanu/Desktop/qemu/optee_os/lib/libutils/isoc/bget_malloc.c:542
    5b88:	f100429f 	cmp	x20, #0x10
    5b8c:	540000c8 	b.hi	5ba4 <memalign+0x48>
memalign():
/home/lagadanu/Desktop/qemu/optee_os/lib/libutils/isoc/bget_malloc.c:867
    5b90:	a94153f3 	ldp	x19, x20, [sp,#16]
    5b94:	a9425bf5 	ldp	x21, x22, [sp,#32]
    5b98:	f9401bf7 	ldr	x23, [sp,#48]
    5b9c:	a8c47bfd 	ldp	x29, x30, [sp],#64
raw_memalign():
/home/lagadanu/Desktop/qemu/optee_os/lib/libutils/isoc/bget_malloc.c:543
    5ba0:	17fffe37 	b	547c <raw_malloc.constprop.15>
/home/lagadanu/Desktop/qemu/optee_os/lib/libutils/isoc/bget_malloc.c:545
    5ba4:	91008037 	add	x23, x1, #0x20
    5ba8:	8b1402f7 	add	x23, x23, x20
/home/lagadanu/Desktop/qemu/optee_os/lib/libutils/isoc/bget_malloc.c:549
    5bac:	eb17029f 	cmp	x20, x23
    5bb0:	fa579022 	ccmp	x1, x23, #0x2, ls
    5bb4:	54001a48 	b.hi	5efc <memalign+0x3a0>
    5bb8:	aa0103f5 	mov	x21, x1
/home/lagadanu/Desktop/qemu/optee_os/lib/libutils/isoc/bget_malloc.c:552
    5bbc:	90000036 	adrp	x22, 9000 <ta_props>
    5bc0:	910302c1 	add	x1, x22, #0xc0
    5bc4:	aa1703e0 	mov	x0, x23
    5bc8:	97fffdbd 	bl	52bc <bget>
    5bcc:	aa0003e1 	mov	x1, x0
/home/lagadanu/Desktop/qemu/optee_os/lib/libutils/isoc/bget_malloc.c:553
    5bd0:	b40017e0 	cbz	x0, 5ecc <memalign+0x370>
/home/lagadanu/Desktop/qemu/optee_os/lib/libutils/isoc/bget_malloc.c:556
    5bd4:	d1000680 	sub	x0, x20, #0x1
    5bd8:	ea00003f 	tst	x1, x0
    5bdc:	54000a80 	b.eq	5d2c <memalign+0x1d0>
/home/lagadanu/Desktop/qemu/optee_os/lib/libutils/isoc/bget_malloc.c:569
    5be0:	8b010280 	add	x0, x20, x1
/home/lagadanu/Desktop/qemu/optee_os/lib/libutils/isoc/bget_malloc.c:574
    5be4:	8b170037 	add	x23, x1, x23
/home/lagadanu/Desktop/qemu/optee_os/lib/libutils/isoc/bget_malloc.c:570
    5be8:	8a000273 	and	x19, x19, x0
/home/lagadanu/Desktop/qemu/optee_os/lib/libutils/isoc/bget_malloc.c:572
    5bec:	cb010260 	sub	x0, x19, x1
/home/lagadanu/Desktop/qemu/optee_os/lib/libutils/isoc/bget_malloc.c:573
    5bf0:	8b140262 	add	x2, x19, x20
    5bf4:	f1007c1f 	cmp	x0, #0x1f
    5bf8:	9a939053 	csel	x19, x2, x19, ls
/home/lagadanu/Desktop/qemu/optee_os/lib/libutils/isoc/bget_malloc.c:574
    5bfc:	8b1302a0 	add	x0, x21, x19
    5c00:	eb17001f 	cmp	x0, x23
    5c04:	54000169 	b.ls	5c30 <memalign+0xd4>
    5c08:	f0000003 	adrp	x3, 8000 <PRIME_TABLE+0xb30>
    5c0c:	9108a063 	add	x3, x3, #0x228
    5c10:	f0000001 	adrp	x1, 8000 <PRIME_TABLE+0xb30>
    5c14:	f0000000 	adrp	x0, 8000 <PRIME_TABLE+0xb30>
    5c18:	91012063 	add	x3, x3, #0x48
    5c1c:	91127021 	add	x1, x1, #0x49c
    5c20:	911db800 	add	x0, x0, #0x76e
    5c24:	528047c2 	mov	w2, #0x23e                 	// #574
brel_before():
/home/lagadanu/Desktop/qemu/optee_os/lib/libutils/isoc/bget_malloc.c:411
    5c28:	940005f6 	bl	7400 <_assert_log>
    5c2c:	94000606 	bl	7444 <_assert_break>
    5c30:	eb13003f 	cmp	x1, x19
    5c34:	54000143 	b.cc	5c5c <memalign+0x100>
    5c38:	f0000003 	adrp	x3, 8000 <PRIME_TABLE+0xb30>
    5c3c:	9108a063 	add	x3, x3, #0x228
    5c40:	f0000001 	adrp	x1, 8000 <PRIME_TABLE+0xb30>
    5c44:	f0000000 	adrp	x0, 8000 <PRIME_TABLE+0xb30>
    5c48:	91016063 	add	x3, x3, #0x58
    5c4c:	52803362 	mov	w2, #0x19b                 	// #411
    5c50:	91127021 	add	x1, x1, #0x49c
    5c54:	911e6800 	add	x0, x0, #0x79a
    5c58:	17fffff4 	b	5c28 <memalign+0xcc>
/home/lagadanu/Desktop/qemu/optee_os/lib/libutils/isoc/bget_malloc.c:413
    5c5c:	cb010274 	sub	x20, x19, x1
/home/lagadanu/Desktop/qemu/optee_os/lib/libutils/isoc/bget_malloc.c:414
    5c60:	f1007e9f 	cmp	x20, #0x1f
    5c64:	54000148 	b.hi	5c8c <memalign+0x130>
    5c68:	f0000003 	adrp	x3, 8000 <PRIME_TABLE+0xb30>
    5c6c:	9108a063 	add	x3, x3, #0x228
    5c70:	f0000001 	adrp	x1, 8000 <PRIME_TABLE+0xb30>
    5c74:	f0000000 	adrp	x0, 8000 <PRIME_TABLE+0xb30>
    5c78:	91016063 	add	x3, x3, #0x58
    5c7c:	528033c2 	mov	w2, #0x19e                 	// #414
    5c80:	91127021 	add	x1, x1, #0x49c
    5c84:	911eb400 	add	x0, x0, #0x7ad
    5c88:	17ffffe8 	b	5c28 <memalign+0xcc>
/home/lagadanu/Desktop/qemu/optee_os/lib/libutils/isoc/bget_malloc.c:418
    5c8c:	f85f8022 	ldur	x2, [x1,#-8]
/home/lagadanu/Desktop/qemu/optee_os/lib/libutils/isoc/bget_malloc.c:417
    5c90:	d1004020 	sub	x0, x1, #0x10
/home/lagadanu/Desktop/qemu/optee_os/lib/libutils/isoc/bget_malloc.c:423
    5c94:	f85f0021 	ldur	x1, [x1,#-16]
    5c98:	8b020282 	add	x2, x20, x2
    5c9c:	b40003e1 	cbz	x1, 5d18 <memalign+0x1bc>
/home/lagadanu/Desktop/qemu/optee_os/lib/libutils/isoc/bget_malloc.c:428
    5ca0:	cb010000 	sub	x0, x0, x1
/home/lagadanu/Desktop/qemu/optee_os/lib/libutils/isoc/bget_malloc.c:429
    5ca4:	f9400403 	ldr	x3, [x0,#8]
    5ca8:	eb03003f 	cmp	x1, x3
    5cac:	54000140 	b.eq	5cd4 <memalign+0x178>
    5cb0:	f0000003 	adrp	x3, 8000 <PRIME_TABLE+0xb30>
    5cb4:	9108a063 	add	x3, x3, #0x228
    5cb8:	f0000001 	adrp	x1, 8000 <PRIME_TABLE+0xb30>
    5cbc:	f0000000 	adrp	x0, 8000 <PRIME_TABLE+0xb30>
    5cc0:	91016063 	add	x3, x3, #0x58
    5cc4:	528035a2 	mov	w2, #0x1ad                 	// #429
    5cc8:	91127021 	add	x1, x1, #0x49c
    5ccc:	911f5000 	add	x0, x0, #0x7d4
    5cd0:	17ffffd6 	b	5c28 <memalign+0xcc>
/home/lagadanu/Desktop/qemu/optee_os/lib/libutils/isoc/bget_malloc.c:430
    5cd4:	8b010281 	add	x1, x20, x1
    5cd8:	f9000401 	str	x1, [x0,#8]
/home/lagadanu/Desktop/qemu/optee_os/lib/libutils/isoc/bget_malloc.c:435
    5cdc:	a93f0a61 	stp	x1, x2, [x19,#-16]
/home/lagadanu/Desktop/qemu/optee_os/lib/libutils/isoc/bget_malloc.c:449
    5ce0:	910302c1 	add	x1, x22, #0xc0
    5ce4:	f9401020 	ldr	x0, [x1,#32]
    5ce8:	cb140014 	sub	x20, x0, x20
    5cec:	f9001034 	str	x20, [x1,#32]
/home/lagadanu/Desktop/qemu/optee_os/lib/libutils/isoc/bget_malloc.c:450
    5cf0:	b6f80214 	tbz	x20, #63, 5d30 <memalign+0x1d4>
    5cf4:	f0000003 	adrp	x3, 8000 <PRIME_TABLE+0xb30>
    5cf8:	9108a063 	add	x3, x3, #0x228
    5cfc:	91016063 	add	x3, x3, #0x58
    5d00:	52803842 	mov	w2, #0x1c2                 	// #450
brel_after():
/home/lagadanu/Desktop/qemu/optee_os/lib/libutils/isoc/bget_malloc.c:522
    5d04:	f0000001 	adrp	x1, 8000 <PRIME_TABLE+0xb30>
    5d08:	f0000000 	adrp	x0, 8000 <PRIME_TABLE+0xb30>
    5d0c:	91127021 	add	x1, x1, #0x49c
    5d10:	91192c00 	add	x0, x0, #0x64b
    5d14:	17ffffc5 	b	5c28 <memalign+0xcc>
brel_before():
/home/lagadanu/Desktop/qemu/optee_os/lib/libutils/isoc/bget_malloc.c:443
    5d18:	f81f8262 	stur	x2, [x19,#-8]
/home/lagadanu/Desktop/qemu/optee_os/lib/libutils/isoc/bget_malloc.c:445
    5d1c:	aa1403e1 	mov	x1, x20
    5d20:	d1004262 	sub	x2, x19, #0x10
    5d24:	97fffd22 	bl	51ac <create_free_block.constprop.11>
    5d28:	17ffffee 	b	5ce0 <memalign+0x184>
raw_memalign():
/home/lagadanu/Desktop/qemu/optee_os/lib/libutils/isoc/bget_malloc.c:556
    5d2c:	aa0103f3 	mov	x19, x1
brel_after():
/home/lagadanu/Desktop/qemu/optee_os/lib/libutils/isoc/bget_malloc.c:466
    5d30:	f10042bf 	cmp	x21, #0x10
    5d34:	d2800200 	mov	x0, #0x10                  	// #16
    5d38:	9a8022a0 	csel	x0, x21, x0, cs
/home/lagadanu/Desktop/qemu/optee_os/lib/libutils/isoc/bget_malloc.c:470
    5d3c:	f85f8262 	ldur	x2, [x19,#-8]
/home/lagadanu/Desktop/qemu/optee_os/lib/libutils/isoc/bget_malloc.c:466
    5d40:	91003c00 	add	x0, x0, #0xf
/home/lagadanu/Desktop/qemu/optee_os/lib/libutils/isoc/bget_malloc.c:470
    5d44:	d1004264 	sub	x4, x19, #0x10
/home/lagadanu/Desktop/qemu/optee_os/lib/libutils/isoc/bget_malloc.c:466
    5d48:	927cec00 	and	x0, x0, #0xfffffffffffffff0
/home/lagadanu/Desktop/qemu/optee_os/lib/libutils/isoc/bget_malloc.c:470
    5d4c:	cb0203f4 	neg	x20, x2
/home/lagadanu/Desktop/qemu/optee_os/lib/libutils/isoc/bget_malloc.c:469
    5d50:	91004001 	add	x1, x0, #0x10
/home/lagadanu/Desktop/qemu/optee_os/lib/libutils/isoc/bget_malloc.c:470
    5d54:	eb14003f 	cmp	x1, x20
    5d58:	5400014d 	b.le	5d80 <memalign+0x224>
    5d5c:	f0000003 	adrp	x3, 8000 <PRIME_TABLE+0xb30>
    5d60:	9108a063 	add	x3, x3, #0x228
    5d64:	f0000001 	adrp	x1, 8000 <PRIME_TABLE+0xb30>
    5d68:	f0000000 	adrp	x0, 8000 <PRIME_TABLE+0xb30>
    5d6c:	9101a063 	add	x3, x3, #0x68
    5d70:	52803ac2 	mov	w2, #0x1d6                 	// #470
    5d74:	91127021 	add	x1, x1, #0x49c
    5d78:	911fd400 	add	x0, x0, #0x7f5
    5d7c:	17ffffab 	b	5c28 <memalign+0xcc>
/home/lagadanu/Desktop/qemu/optee_os/lib/libutils/isoc/bget_malloc.c:476
    5d80:	cb010294 	sub	x20, x20, x1
/home/lagadanu/Desktop/qemu/optee_os/lib/libutils/isoc/bget_malloc.c:477
    5d84:	f1007e9f 	cmp	x20, #0x1f
    5d88:	54000a4d 	b.le	5ed0 <memalign+0x374>
/home/lagadanu/Desktop/qemu/optee_os/lib/libutils/isoc/bget_malloc.c:480
    5d8c:	928001e3 	mov	x3, #0xfffffffffffffff0    	// #-16
    5d90:	cb020063 	sub	x3, x3, x2
    5d94:	8b030262 	add	x2, x19, x3
/home/lagadanu/Desktop/qemu/optee_os/lib/libutils/isoc/bget_malloc.c:484
    5d98:	cb0103e1 	neg	x1, x1
    5d9c:	f9000481 	str	x1, [x4,#8]
    5da0:	8b000260 	add	x0, x19, x0
/home/lagadanu/Desktop/qemu/optee_os/lib/libutils/isoc/bget_malloc.c:485
    5da4:	f9400441 	ldr	x1, [x2,#8]
    5da8:	f100003f 	cmp	x1, #0x0
    5dac:	540008ad 	b.le	5ec0 <memalign+0x364>
/home/lagadanu/Desktop/qemu/optee_os/lib/libutils/isoc/bget_malloc.c:491
    5db0:	f8636a63 	ldr	x3, [x19,x3]
    5db4:	b4000143 	cbz	x3, 5ddc <memalign+0x280>
    5db8:	f0000003 	adrp	x3, 8000 <PRIME_TABLE+0xb30>
    5dbc:	9108a063 	add	x3, x3, #0x228
    5dc0:	f0000001 	adrp	x1, 8000 <PRIME_TABLE+0xb30>
    5dc4:	f0000000 	adrp	x0, 8000 <PRIME_TABLE+0xb30>
    5dc8:	9101a063 	add	x3, x3, #0x68
    5dcc:	52803d62 	mov	w2, #0x1eb                 	// #491
    5dd0:	91127021 	add	x1, x1, #0x49c
    5dd4:	91202c00 	add	x0, x0, #0x80b
    5dd8:	17ffff94 	b	5c28 <memalign+0xcc>
/home/lagadanu/Desktop/qemu/optee_os/lib/libutils/isoc/bget_malloc.c:492
    5ddc:	f8616843 	ldr	x3, [x2,x1]
    5de0:	eb03003f 	cmp	x1, x3
    5de4:	54000140 	b.eq	5e0c <memalign+0x2b0>
    5de8:	f0000003 	adrp	x3, 8000 <PRIME_TABLE+0xb30>
    5dec:	9108a063 	add	x3, x3, #0x228
    5df0:	f0000001 	adrp	x1, 8000 <PRIME_TABLE+0xb30>
    5df4:	f0000000 	adrp	x0, 8000 <PRIME_TABLE+0xb30>
    5df8:	9101a063 	add	x3, x3, #0x68
    5dfc:	52803d82 	mov	w2, #0x1ec                 	// #492
    5e00:	91127021 	add	x1, x1, #0x49c
    5e04:	91208400 	add	x0, x0, #0x821
    5e08:	17ffff88 	b	5c28 <memalign+0xcc>
/home/lagadanu/Desktop/qemu/optee_os/lib/libutils/isoc/bget_malloc.c:496
    5e0c:	8b010283 	add	x3, x20, x1
    5e10:	a9000c1f 	stp	xzr, x3, [x0]
/home/lagadanu/Desktop/qemu/optee_os/lib/libutils/isoc/bget_malloc.c:499
    5e14:	f8616843 	ldr	x3, [x2,x1]
    5e18:	8b140063 	add	x3, x3, x20
    5e1c:	f8216843 	str	x3, [x2,x1]
/home/lagadanu/Desktop/qemu/optee_os/lib/libutils/isoc/bget_malloc.c:505
    5e20:	f9400c41 	ldr	x1, [x2,#24]
    5e24:	f9400823 	ldr	x3, [x1,#16]
    5e28:	eb03005f 	cmp	x2, x3
    5e2c:	54000140 	b.eq	5e54 <memalign+0x2f8>
    5e30:	f0000003 	adrp	x3, 8000 <PRIME_TABLE+0xb30>
    5e34:	9108a063 	add	x3, x3, #0x228
    5e38:	f0000001 	adrp	x1, 8000 <PRIME_TABLE+0xb30>
    5e3c:	f0000000 	adrp	x0, 8000 <PRIME_TABLE+0xb30>
    5e40:	9101a063 	add	x3, x3, #0x68
    5e44:	52803f22 	mov	w2, #0x1f9                 	// #505
    5e48:	91127021 	add	x1, x1, #0x49c
    5e4c:	91210000 	add	x0, x0, #0x840
    5e50:	17ffff76 	b	5c28 <memalign+0xcc>
/home/lagadanu/Desktop/qemu/optee_os/lib/libutils/isoc/bget_malloc.c:506
    5e54:	f9400843 	ldr	x3, [x2,#16]
    5e58:	f9400c64 	ldr	x4, [x3,#24]
    5e5c:	eb04005f 	cmp	x2, x4
    5e60:	54000140 	b.eq	5e88 <memalign+0x32c>
    5e64:	f0000003 	adrp	x3, 8000 <PRIME_TABLE+0xb30>
    5e68:	9108a063 	add	x3, x3, #0x228
    5e6c:	f0000001 	adrp	x1, 8000 <PRIME_TABLE+0xb30>
    5e70:	f0000000 	adrp	x0, 8000 <PRIME_TABLE+0xb30>
    5e74:	9101a063 	add	x3, x3, #0x68
    5e78:	52803f42 	mov	w2, #0x1fa                 	// #506
    5e7c:	91127021 	add	x1, x1, #0x49c
    5e80:	91217c00 	add	x0, x0, #0x85f
    5e84:	17ffff69 	b	5c28 <memalign+0xcc>
/home/lagadanu/Desktop/qemu/optee_os/lib/libutils/isoc/bget_malloc.c:509
    5e88:	a9010403 	stp	x3, x1, [x0,#16]
/home/lagadanu/Desktop/qemu/optee_os/lib/libutils/isoc/bget_malloc.c:513
    5e8c:	f9000820 	str	x0, [x1,#16]
/home/lagadanu/Desktop/qemu/optee_os/lib/libutils/isoc/bget_malloc.c:514
    5e90:	f9400801 	ldr	x1, [x0,#16]
    5e94:	f9000c20 	str	x0, [x1,#24]
/home/lagadanu/Desktop/qemu/optee_os/lib/libutils/isoc/bget_malloc.c:521
    5e98:	910302c1 	add	x1, x22, #0xc0
    5e9c:	f9401020 	ldr	x0, [x1,#32]
    5ea0:	cb140014 	sub	x20, x0, x20
    5ea4:	f9001034 	str	x20, [x1,#32]
/home/lagadanu/Desktop/qemu/optee_os/lib/libutils/isoc/bget_malloc.c:522
    5ea8:	b6f80154 	tbz	x20, #63, 5ed0 <memalign+0x374>
    5eac:	f0000003 	adrp	x3, 8000 <PRIME_TABLE+0xb30>
    5eb0:	9108a063 	add	x3, x3, #0x228
    5eb4:	9101a063 	add	x3, x3, #0x68
    5eb8:	52804142 	mov	w2, #0x20a                 	// #522
    5ebc:	17ffff92 	b	5d04 <memalign+0x1a8>
/home/lagadanu/Desktop/qemu/optee_os/lib/libutils/isoc/bget_malloc.c:517
    5ec0:	aa1403e1 	mov	x1, x20
    5ec4:	97fffcba 	bl	51ac <create_free_block.constprop.11>
    5ec8:	17fffff4 	b	5e98 <memalign+0x33c>
raw_memalign():
/home/lagadanu/Desktop/qemu/optee_os/lib/libutils/isoc/bget_malloc.c:553
    5ecc:	d2800013 	mov	x19, #0x0                   	// #0
/home/lagadanu/Desktop/qemu/optee_os/lib/libutils/isoc/bget_malloc.c:589
    5ed0:	910302d6 	add	x22, x22, #0xc0
    5ed4:	aa1503e1 	mov	x1, x21
    5ed8:	aa1303e0 	mov	x0, x19
    5edc:	f94012c2 	ldr	x2, [x22,#32]
    5ee0:	97fffca3 	bl	516c <raw_malloc_return_hook.isra.3>
memalign():
/home/lagadanu/Desktop/qemu/optee_os/lib/libutils/isoc/bget_malloc.c:867
    5ee4:	aa1303e0 	mov	x0, x19
    5ee8:	f9401bf7 	ldr	x23, [sp,#48]
    5eec:	a94153f3 	ldp	x19, x20, [sp,#16]
    5ef0:	a9425bf5 	ldp	x21, x22, [sp,#32]
    5ef4:	a8c47bfd 	ldp	x29, x30, [sp],#64
    5ef8:	d65f03c0 	ret
raw_memalign():
/home/lagadanu/Desktop/qemu/optee_os/lib/libutils/isoc/bget_malloc.c:536
    5efc:	d2800013 	mov	x19, #0x0                   	// #0
memalign():
/home/lagadanu/Desktop/qemu/optee_os/lib/libutils/isoc/bget_malloc.c:866
    5f00:	17fffff9 	b	5ee4 <memalign+0x388>

0000000000005f04 <malloc_add_pool>:
malloc_add_pool():
/home/lagadanu/Desktop/qemu/optee_os/lib/libutils/isoc/bget_malloc.c:878
    5f04:	a9bb7bfd 	stp	x29, x30, [sp,#-80]!
    5f08:	910003fd 	mov	x29, sp
    5f0c:	a90153f3 	stp	x19, x20, [sp,#16]
/home/lagadanu/Desktop/qemu/optee_os/lib/libutils/isoc/bget_malloc.c:883
    5f10:	8b010014 	add	x20, x0, x1
/home/lagadanu/Desktop/qemu/optee_os/lib/libutils/isoc/bget_malloc.c:878
    5f14:	a9025bf5 	stp	x21, x22, [sp,#32]
/home/lagadanu/Desktop/qemu/optee_os/lib/libutils/isoc/bget_malloc.c:889
    5f18:	91003c00 	add	x0, x0, #0xf
/home/lagadanu/Desktop/qemu/optee_os/lib/libutils/isoc/bget_malloc.c:878
    5f1c:	a90363f7 	stp	x23, x24, [sp,#48]
/home/lagadanu/Desktop/qemu/optee_os/lib/libutils/isoc/bget_malloc.c:889
    5f20:	927cec15 	and	x21, x0, #0xfffffffffffffff0
/home/lagadanu/Desktop/qemu/optee_os/lib/libutils/isoc/bget_malloc.c:878
    5f24:	a9046bf9 	stp	x25, x26, [sp,#64]
/home/lagadanu/Desktop/qemu/optee_os/lib/libutils/isoc/bget_malloc.c:890
    5f28:	927cee94 	and	x20, x20, #0xfffffffffffffff0
/home/lagadanu/Desktop/qemu/optee_os/lib/libutils/isoc/bget_malloc.c:891
    5f2c:	eb1402bf 	cmp	x21, x20
    5f30:	54000163 	b.cc	5f5c <malloc_add_pool+0x58>
/home/lagadanu/Desktop/qemu/optee_os/lib/libutils/isoc/bget_malloc.c:891 (discriminator 1)
    5f34:	f0000003 	adrp	x3, 8000 <PRIME_TABLE+0xb30>
    5f38:	9108a063 	add	x3, x3, #0x228
    5f3c:	f0000001 	adrp	x1, 8000 <PRIME_TABLE+0xb30>
    5f40:	f0000000 	adrp	x0, 8000 <PRIME_TABLE+0xb30>
    5f44:	9101e063 	add	x3, x3, #0x78
    5f48:	91127021 	add	x1, x1, #0x49c
    5f4c:	9121f800 	add	x0, x0, #0x87e
    5f50:	52806f62 	mov	w2, #0x37b                 	// #891
/home/lagadanu/Desktop/qemu/optee_os/lib/libutils/isoc/bget_malloc.c:904 (discriminator 1)
    5f54:	9400052b 	bl	7400 <_assert_log>
    5f58:	9400053b 	bl	7444 <_assert_break>
/home/lagadanu/Desktop/qemu/optee_os/lib/libutils/isoc/bget_malloc.c:893
    5f5c:	cb150294 	sub	x20, x20, x21
    5f60:	f100be9f 	cmp	x20, #0x2f
    5f64:	540005c9 	b.ls	601c <malloc_add_pool+0x118>
/home/lagadanu/Desktop/qemu/optee_os/lib/libutils/isoc/bget_malloc.c:901
    5f68:	90000036 	adrp	x22, 9000 <ta_props>
    5f6c:	910302d9 	add	x25, x22, #0xc0
    5f70:	aa1503e0 	mov	x0, x21
    5f74:	aa1903e2 	mov	x2, x25
    5f78:	aa1403e1 	mov	x1, x20
    5f7c:	97fffe52 	bl	58c4 <bpool>
/home/lagadanu/Desktop/qemu/optee_os/lib/libutils/isoc/bget_malloc.c:902
    5f80:	d00000a0 	adrp	x0, 1b000 <buf.3610+0x4d0>
    5f84:	912ce003 	add	x3, x0, #0xb38
    5f88:	aa0003f3 	mov	x19, x0
raw_realloc():
/home/lagadanu/Desktop/qemu/optee_os/lib/libutils/isoc/bget_malloc.c:358
    5f8c:	d280001a 	mov	x26, #0x0                   	// #0
malloc_add_pool():
/home/lagadanu/Desktop/qemu/optee_os/lib/libutils/isoc/bget_malloc.c:902
    5f90:	f9401c77 	ldr	x23, [x3,#56]
    5f94:	910006f7 	add	x23, x23, #0x1
/home/lagadanu/Desktop/qemu/optee_os/lib/libutils/isoc/bget_malloc.c:903
    5f98:	d37ceef8 	lsl	x24, x23, #4
raw_realloc():
/home/lagadanu/Desktop/qemu/optee_os/lib/libutils/isoc/bget_malloc.c:362
    5f9c:	b7f800f8 	tbnz	x24, #63, 5fb8 <malloc_add_pool+0xb4>
/home/lagadanu/Desktop/qemu/optee_os/lib/libutils/isoc/bget_malloc.c:373
    5fa0:	f9402060 	ldr	x0, [x3,#64]
/home/lagadanu/Desktop/qemu/optee_os/lib/libutils/isoc/bget_malloc.c:371
    5fa4:	f100031f 	cmp	x24, #0x0
/home/lagadanu/Desktop/qemu/optee_os/lib/libutils/isoc/bget_malloc.c:373
    5fa8:	aa1903e2 	mov	x2, x25
    5fac:	9a9f1701 	csinc	x1, x24, xzr, ne
    5fb0:	97fffe13 	bl	57fc <bgetr>
    5fb4:	aa0003fa 	mov	x26, x0
/home/lagadanu/Desktop/qemu/optee_os/lib/libutils/isoc/bget_malloc.c:375
    5fb8:	910302d6 	add	x22, x22, #0xc0
    5fbc:	aa1803e1 	mov	x1, x24
    5fc0:	aa1a03e0 	mov	x0, x26
    5fc4:	f94012c2 	ldr	x2, [x22,#32]
    5fc8:	97fffc69 	bl	516c <raw_malloc_return_hook.isra.3>
malloc_add_pool():
/home/lagadanu/Desktop/qemu/optee_os/lib/libutils/isoc/bget_malloc.c:904
    5fcc:	b500015a 	cbnz	x26, 5ff4 <malloc_add_pool+0xf0>
/home/lagadanu/Desktop/qemu/optee_os/lib/libutils/isoc/bget_malloc.c:904 (discriminator 1)
    5fd0:	f0000003 	adrp	x3, 8000 <PRIME_TABLE+0xb30>
    5fd4:	9108a063 	add	x3, x3, #0x228
    5fd8:	f0000001 	adrp	x1, 8000 <PRIME_TABLE+0xb30>
    5fdc:	f0000000 	adrp	x0, 8000 <PRIME_TABLE+0xb30>
    5fe0:	9101e063 	add	x3, x3, #0x78
    5fe4:	52807102 	mov	w2, #0x388                 	// #904
    5fe8:	91127021 	add	x1, x1, #0x49c
    5fec:	91222800 	add	x0, x0, #0x88a
    5ff0:	17ffffd9 	b	5f54 <malloc_add_pool+0x50>
/home/lagadanu/Desktop/qemu/optee_os/lib/libutils/isoc/bget_malloc.c:905
    5ff4:	912ce260 	add	x0, x19, #0xb38
/home/lagadanu/Desktop/qemu/optee_os/lib/libutils/isoc/bget_malloc.c:906
    5ff8:	f9401c01 	ldr	x1, [x0,#56]
/home/lagadanu/Desktop/qemu/optee_os/lib/libutils/isoc/bget_malloc.c:905
    5ffc:	a903e817 	stp	x23, x26, [x0,#56]
/home/lagadanu/Desktop/qemu/optee_os/lib/libutils/isoc/bget_malloc.c:906
    6000:	d37cec21 	lsl	x1, x1, #4
    6004:	8b010342 	add	x2, x26, x1
    6008:	f8216b55 	str	x21, [x26,x1]
/home/lagadanu/Desktop/qemu/optee_os/lib/libutils/isoc/bget_malloc.c:909
    600c:	b9402801 	ldr	w1, [x0,#40]
/home/lagadanu/Desktop/qemu/optee_os/lib/libutils/isoc/bget_malloc.c:907
    6010:	f9000454 	str	x20, [x2,#8]
/home/lagadanu/Desktop/qemu/optee_os/lib/libutils/isoc/bget_malloc.c:909
    6014:	0b140034 	add	w20, w1, w20
    6018:	b9002814 	str	w20, [x0,#40]
/home/lagadanu/Desktop/qemu/optee_os/lib/libutils/isoc/bget_malloc.c:913
    601c:	a94153f3 	ldp	x19, x20, [sp,#16]
    6020:	a9425bf5 	ldp	x21, x22, [sp,#32]
    6024:	a94363f7 	ldp	x23, x24, [sp,#48]
    6028:	a9446bf9 	ldp	x25, x26, [sp,#64]
    602c:	a8c57bfd 	ldp	x29, x30, [sp],#80
    6030:	d65f03c0 	ret

0000000000006034 <malloc_buffer_is_within_alloced>:
malloc_buffer_is_within_alloced():
/home/lagadanu/Desktop/qemu/optee_os/lib/libutils/isoc/bget_malloc.c:920
    6034:	8b010001 	add	x1, x0, x1
/home/lagadanu/Desktop/qemu/optee_os/lib/libutils/isoc/bget_malloc.c:927
    6038:	eb01001f 	cmp	x0, x1
    603c:	54000b88 	b.hi	61ac <malloc_buffer_is_within_alloced+0x178>
    6040:	aa0003e5 	mov	x5, x0
bpool_foreach_iterator_init():
/home/lagadanu/Desktop/qemu/optee_os/lib/libutils/isoc/bget_malloc.c:230
    6044:	b00000a0 	adrp	x0, 1b000 <buf.3610+0x4d0>
    6048:	912ce000 	add	x0, x0, #0xb38
/home/lagadanu/Desktop/qemu/optee_os/lib/libutils/isoc/bget_malloc.c:229
    604c:	d2800006 	mov	x6, #0x0                   	// #0
bpool_foreach_pool():
/home/lagadanu/Desktop/qemu/optee_os/lib/libutils/isoc/bget_malloc.c:239
    6050:	d2f0000b 	mov	x11, #0x8000000000000000    	// #-9223372036854775808
bget_buf_size():
/home/lagadanu/Desktop/qemu/optee_os/lib/libutils/isoc/bget_malloc.c:611
    6054:	928001e9 	mov	x9, #0xfffffffffffffff0    	// #-16
bpool_foreach_iterator_init():
/home/lagadanu/Desktop/qemu/optee_os/lib/libutils/isoc/bget_malloc.c:230
    6058:	a9439c0a 	ldp	x10, x7, [x0,#56]
    605c:	f94000e3 	ldr	x3, [x7]
bpool_foreach_pool():
/home/lagadanu/Desktop/qemu/optee_os/lib/libutils/isoc/bget_malloc.c:237
    6060:	f9400462 	ldr	x2, [x3,#8]
bpool_foreach():
/home/lagadanu/Desktop/qemu/optee_os/lib/libutils/isoc/bget_malloc.c:279
    6064:	aa0303e4 	mov	x4, x3
bpool_foreach_pool():
/home/lagadanu/Desktop/qemu/optee_os/lib/libutils/isoc/bget_malloc.c:239
    6068:	eb0b005f 	cmp	x2, x11
    606c:	540009a0 	b.eq	61a0 <malloc_buffer_is_within_alloced+0x16c>
malloc_buffer_is_within_alloced():
/home/lagadanu/Desktop/qemu/optee_os/lib/libutils/isoc/bget_malloc.c:916
    6070:	a9bf7bfd 	stp	x29, x30, [sp,#-16]!
    6074:	910003fd 	mov	x29, sp
    6078:	1400000d 	b	60ac <malloc_buffer_is_within_alloced+0x78>
bpool_foreach_pool():
/home/lagadanu/Desktop/qemu/optee_os/lib/libutils/isoc/bget_malloc.c:256
    607c:	91004084 	add	x4, x4, #0x10
malloc_buffer_is_within_alloced():
/home/lagadanu/Desktop/qemu/optee_os/lib/libutils/isoc/bget_malloc.c:936
    6080:	8b020082 	add	x2, x4, x2
/home/lagadanu/Desktop/qemu/optee_os/lib/libutils/isoc/bget_malloc.c:938
    6084:	eb02003f 	cmp	x1, x2
    6088:	1a9f87e2 	cset	w2, ls
    608c:	eb0400bf 	cmp	x5, x4
    6090:	1a9f37e0 	cset	w0, cs
    6094:	6a000040 	ands	w0, w2, w0
    6098:	540007a1 	b.ne	618c <malloc_buffer_is_within_alloced+0x158>
bpool_foreach_pool():
/home/lagadanu/Desktop/qemu/optee_os/lib/libutils/isoc/bget_malloc.c:237
    609c:	f9400462 	ldr	x2, [x3,#8]
bpool_foreach():
/home/lagadanu/Desktop/qemu/optee_os/lib/libutils/isoc/bget_malloc.c:279
    60a0:	aa0303e4 	mov	x4, x3
bpool_foreach_pool():
/home/lagadanu/Desktop/qemu/optee_os/lib/libutils/isoc/bget_malloc.c:239
    60a4:	eb0b005f 	cmp	x2, x11
    60a8:	540006a0 	b.eq	617c <malloc_buffer_is_within_alloced+0x148>
/home/lagadanu/Desktop/qemu/optee_os/lib/libutils/isoc/bget_malloc.c:242
    60ac:	b6f80242 	tbz	x2, #63, 60f4 <malloc_buffer_is_within_alloced+0xc0>
/home/lagadanu/Desktop/qemu/optee_os/lib/libutils/isoc/bget_malloc.c:244
    60b0:	cb0203e8 	neg	x8, x2
/home/lagadanu/Desktop/qemu/optee_os/lib/libutils/isoc/bget_malloc.c:246
    60b4:	52800000 	mov	w0, #0x0                   	// #0
/home/lagadanu/Desktop/qemu/optee_os/lib/libutils/isoc/bget_malloc.c:259
    60b8:	8b080063 	add	x3, x3, x8
bpool_foreach():
/home/lagadanu/Desktop/qemu/optee_os/lib/libutils/isoc/bget_malloc.c:270
    60bc:	35ffff00 	cbnz	w0, 609c <malloc_buffer_is_within_alloced+0x68>
bget_buf_size():
/home/lagadanu/Desktop/qemu/optee_os/lib/libutils/isoc/bget_malloc.c:611
    60c0:	cb020122 	sub	x2, x9, x2
/home/lagadanu/Desktop/qemu/optee_os/lib/libutils/isoc/bget_malloc.c:612
    60c4:	f100005f 	cmp	x2, #0x0
    60c8:	54fffdac 	b.gt	607c <malloc_buffer_is_within_alloced+0x48>
    60cc:	d0000003 	adrp	x3, 8000 <PRIME_TABLE+0xb30>
    60d0:	9108a063 	add	x3, x3, #0x228
    60d4:	91022063 	add	x3, x3, #0x88
    60d8:	d0000001 	adrp	x1, 8000 <PRIME_TABLE+0xb30>
    60dc:	d0000000 	adrp	x0, 8000 <PRIME_TABLE+0xb30>
    60e0:	91127021 	add	x1, x1, #0x49c
    60e4:	911c7c00 	add	x0, x0, #0x71f
    60e8:	52804c82 	mov	w2, #0x264                 	// #612
    60ec:	940004c5 	bl	7400 <_assert_log>
    60f0:	940004d5 	bl	7444 <_assert_break>
bpool_foreach_pool():
/home/lagadanu/Desktop/qemu/optee_os/lib/libutils/isoc/bget_malloc.c:252
    60f4:	f9400c60 	ldr	x0, [x3,#24]
    60f8:	f9400800 	ldr	x0, [x0,#16]
    60fc:	eb00007f 	cmp	x3, x0
    6100:	54000160 	b.eq	612c <malloc_buffer_is_within_alloced+0xf8>
    6104:	d0000003 	adrp	x3, 8000 <PRIME_TABLE+0xb30>
    6108:	9108a063 	add	x3, x3, #0x228
    610c:	91026063 	add	x3, x3, #0x98
    6110:	d0000001 	adrp	x1, 8000 <PRIME_TABLE+0xb30>
    6114:	d0000000 	adrp	x0, 8000 <PRIME_TABLE+0xb30>
    6118:	91127021 	add	x1, x1, #0x49c
    611c:	9116fc00 	add	x0, x0, #0x5bf
    6120:	52801f82 	mov	w2, #0xfc                  	// #252
    6124:	940004b7 	bl	7400 <_assert_log>
    6128:	940004c7 	bl	7444 <_assert_break>
/home/lagadanu/Desktop/qemu/optee_os/lib/libutils/isoc/bget_malloc.c:253
    612c:	f9400860 	ldr	x0, [x3,#16]
    6130:	f9400c00 	ldr	x0, [x0,#24]
    6134:	eb00007f 	cmp	x3, x0
    6138:	54000160 	b.eq	6164 <malloc_buffer_is_within_alloced+0x130>
    613c:	d0000003 	adrp	x3, 8000 <PRIME_TABLE+0xb30>
    6140:	9108a063 	add	x3, x3, #0x228
    6144:	91026063 	add	x3, x3, #0x98
    6148:	d0000001 	adrp	x1, 8000 <PRIME_TABLE+0xb30>
    614c:	d0000000 	adrp	x0, 8000 <PRIME_TABLE+0xb30>
    6150:	91127021 	add	x1, x1, #0x49c
    6154:	91176800 	add	x0, x0, #0x5da
    6158:	52801fa2 	mov	w2, #0xfd                  	// #253
    615c:	940004a9 	bl	7400 <_assert_log>
    6160:	940004b9 	bl	7444 <_assert_break>
    6164:	aa0203e8 	mov	x8, x2
/home/lagadanu/Desktop/qemu/optee_os/lib/libutils/isoc/bget_malloc.c:249
    6168:	52800020 	mov	w0, #0x1                   	// #1
    616c:	17ffffd3 	b	60b8 <malloc_buffer_is_within_alloced+0x84>
bpool_foreach():
/home/lagadanu/Desktop/qemu/optee_os/lib/libutils/isoc/bget_malloc.c:279
    6170:	d37cecc0 	lsl	x0, x6, #4
    6174:	f86068e3 	ldr	x3, [x7,x0]
    6178:	17ffffc9 	b	609c <malloc_buffer_is_within_alloced+0x68>
/home/lagadanu/Desktop/qemu/optee_os/lib/libutils/isoc/bget_malloc.c:275
    617c:	910004c6 	add	x6, x6, #0x1
    6180:	eb0a00df 	cmp	x6, x10
    6184:	54ffff63 	b.cc	6170 <malloc_buffer_is_within_alloced+0x13c>
malloc_buffer_is_within_alloced():
/home/lagadanu/Desktop/qemu/optee_os/lib/libutils/isoc/bget_malloc.c:921
    6188:	52800000 	mov	w0, #0x0                   	// #0
/home/lagadanu/Desktop/qemu/optee_os/lib/libutils/isoc/bget_malloc.c:948
    618c:	a8c17bfd 	ldp	x29, x30, [sp],#16
    6190:	d65f03c0 	ret
bpool_foreach():
/home/lagadanu/Desktop/qemu/optee_os/lib/libutils/isoc/bget_malloc.c:279
    6194:	d37cecc0 	lsl	x0, x6, #4
    6198:	f86068e3 	ldr	x3, [x7,x0]
    619c:	17ffffb1 	b	6060 <malloc_buffer_is_within_alloced+0x2c>
/home/lagadanu/Desktop/qemu/optee_os/lib/libutils/isoc/bget_malloc.c:275
    61a0:	910004c6 	add	x6, x6, #0x1
    61a4:	eb0a00df 	cmp	x6, x10
    61a8:	54ffff63 	b.cc	6194 <malloc_buffer_is_within_alloced+0x160>
malloc_buffer_is_within_alloced():
/home/lagadanu/Desktop/qemu/optee_os/lib/libutils/isoc/bget_malloc.c:921
    61ac:	52800000 	mov	w0, #0x0                   	// #0
/home/lagadanu/Desktop/qemu/optee_os/lib/libutils/isoc/bget_malloc.c:947
    61b0:	d65f03c0 	ret

00000000000061b4 <malloc_buffer_overlaps_heap>:
malloc_buffer_overlaps_heap():
/home/lagadanu/Desktop/qemu/optee_os/lib/libutils/isoc/bget_malloc.c:960
    61b4:	b00000a2 	adrp	x2, 1b000 <buf.3610+0x4d0>
    61b8:	912ce042 	add	x2, x2, #0xb38
/home/lagadanu/Desktop/qemu/optee_os/lib/libutils/isoc/bget_malloc.c:953
    61bc:	8b010001 	add	x1, x0, x1
/home/lagadanu/Desktop/qemu/optee_os/lib/libutils/isoc/bget_malloc.c:960
    61c0:	d2800005 	mov	x5, #0x0                   	// #0
    61c4:	a9438c47 	ldp	x7, x3, [x2,#56]
/home/lagadanu/Desktop/qemu/optee_os/lib/libutils/isoc/bget_malloc.c:960 (discriminator 1)
    61c8:	eb0700bf 	cmp	x5, x7
    61cc:	54000081 	b.ne	61dc <malloc_buffer_overlaps_heap+0x28>
/home/lagadanu/Desktop/qemu/optee_os/lib/libutils/isoc/bget_malloc.c:955
    61d0:	52800002 	mov	w2, #0x0                   	// #0
/home/lagadanu/Desktop/qemu/optee_os/lib/libutils/isoc/bget_malloc.c:978
    61d4:	2a0203e0 	mov	w0, w2
    61d8:	d65f03c0 	ret
/home/lagadanu/Desktop/qemu/optee_os/lib/libutils/isoc/bget_malloc.c:962
    61dc:	a9401066 	ldp	x6, x4, [x3]
/home/lagadanu/Desktop/qemu/optee_os/lib/libutils/isoc/bget_malloc.c:964
    61e0:	eb01001f 	cmp	x0, x1
    61e4:	1a9f97e2 	cset	w2, hi
/home/lagadanu/Desktop/qemu/optee_os/lib/libutils/isoc/bget_malloc.c:962
    61e8:	8b0400c4 	add	x4, x6, x4
/home/lagadanu/Desktop/qemu/optee_os/lib/libutils/isoc/bget_malloc.c:964
    61ec:	eb0400df 	cmp	x6, x4
    61f0:	1a9f97e8 	cset	w8, hi
    61f4:	2a080042 	orr	w2, w2, w8
    61f8:	35fffee2 	cbnz	w2, 61d4 <malloc_buffer_overlaps_heap+0x20>
/home/lagadanu/Desktop/qemu/optee_os/lib/libutils/isoc/bget_malloc.c:969
    61fc:	eb06003f 	cmp	x1, x6
    6200:	91004063 	add	x3, x3, #0x10
    6204:	1a9f97e2 	cset	w2, hi
    6208:	eb04001f 	cmp	x0, x4
    620c:	1a9f27e4 	cset	w4, cc
    6210:	2a040042 	orr	w2, w2, w4
    6214:	35fffe02 	cbnz	w2, 61d4 <malloc_buffer_overlaps_heap+0x20>
/home/lagadanu/Desktop/qemu/optee_os/lib/libutils/isoc/bget_malloc.c:960 (discriminator 2)
    6218:	910004a5 	add	x5, x5, #0x1
    621c:	17ffffeb 	b	61c8 <malloc_buffer_overlaps_heap+0x14>

0000000000006220 <snprintf>:
snprintf():
/home/lagadanu/Desktop/qemu/optee_os/lib/libutils/isoc/snprintf.c:10
    6220:	a9b07bfd 	stp	x29, x30, [sp,#-256]!
    6224:	910003fd 	mov	x29, sp
    6228:	a90d93a3 	stp	x3, x4, [x29,#216]
/home/lagadanu/Desktop/qemu/optee_os/lib/libutils/isoc/snprintf.c:14
    622c:	910403a3 	add	x3, x29, #0x100
    6230:	a9030fa3 	stp	x3, x3, [x29,#48]
    6234:	910343a3 	add	x3, x29, #0xd0
    6238:	f90023a3 	str	x3, [x29,#64]
    623c:	128004e3 	mov	w3, #0xffffffd8            	// #-40
    6240:	b9004ba3 	str	w3, [x29,#72]
    6244:	12800fe3 	mov	w3, #0xffffff80            	// #-128
    6248:	b9004fa3 	str	w3, [x29,#76]
/home/lagadanu/Desktop/qemu/optee_os/lib/libutils/isoc/snprintf.c:15
    624c:	910043a3 	add	x3, x29, #0x10
/home/lagadanu/Desktop/qemu/optee_os/lib/libutils/isoc/snprintf.c:10
    6250:	a90e9ba5 	stp	x5, x6, [x29,#232]
/home/lagadanu/Desktop/qemu/optee_os/lib/libutils/isoc/snprintf.c:15
    6254:	a94317a4 	ldp	x4, x5, [x29,#48]
    6258:	a90117a4 	stp	x4, x5, [x29,#16]
    625c:	a94417a4 	ldp	x4, x5, [x29,#64]
    6260:	a90217a4 	stp	x4, x5, [x29,#32]
/home/lagadanu/Desktop/qemu/optee_os/lib/libutils/isoc/snprintf.c:10
    6264:	3d8017a0 	str	q0, [x29,#80]
/home/lagadanu/Desktop/qemu/optee_os/lib/libutils/isoc/snprintf.c:15
    6268:	52800004 	mov	w4, #0x0                   	// #0
/home/lagadanu/Desktop/qemu/optee_os/lib/libutils/isoc/snprintf.c:10
    626c:	3d801ba1 	str	q1, [x29,#96]
    6270:	3d801fa2 	str	q2, [x29,#112]
    6274:	3d8023a3 	str	q3, [x29,#128]
    6278:	3d8027a4 	str	q4, [x29,#144]
    627c:	3d802ba5 	str	q5, [x29,#160]
    6280:	3d802fa6 	str	q6, [x29,#176]
    6284:	3d8033a7 	str	q7, [x29,#192]
    6288:	f9007fa7 	str	x7, [x29,#248]
/home/lagadanu/Desktop/qemu/optee_os/lib/libutils/isoc/snprintf.c:15
    628c:	9400004e 	bl	63c4 <__vsnprintf>
/home/lagadanu/Desktop/qemu/optee_os/lib/libutils/isoc/snprintf.c:19
    6290:	a8d07bfd 	ldp	x29, x30, [sp],#256
    6294:	d65f03c0 	ret

0000000000006298 <vsnprintf>:
vsnprintf():
/home/lagadanu/Desktop/qemu/optee_os/lib/libutils/isoc/snprintf.c:22
    6298:	a9bb7bfd 	stp	x29, x30, [sp,#-80]!
    629c:	910003fd 	mov	x29, sp
    62a0:	a90153f3 	stp	x19, x20, [sp,#16]
    62a4:	aa0003f3 	mov	x19, x0
    62a8:	f90013f5 	str	x21, [sp,#32]
    62ac:	aa0103f4 	mov	x20, x1
    62b0:	aa0203f5 	mov	x21, x2
/home/lagadanu/Desktop/qemu/optee_os/lib/libutils/isoc/snprintf.c:23
    62b4:	aa0303e1 	mov	x1, x3
    62b8:	9100c3a0 	add	x0, x29, #0x30
    62bc:	d2800402 	mov	x2, #0x20                  	// #32
    62c0:	94000018 	bl	6320 <memcpy>
    62c4:	aa0003e3 	mov	x3, x0
    62c8:	aa1503e2 	mov	x2, x21
    62cc:	aa1403e1 	mov	x1, x20
    62d0:	52800004 	mov	w4, #0x0                   	// #0
    62d4:	aa1303e0 	mov	x0, x19
    62d8:	9400003b 	bl	63c4 <__vsnprintf>
/home/lagadanu/Desktop/qemu/optee_os/lib/libutils/isoc/snprintf.c:24
    62dc:	f94013f5 	ldr	x21, [sp,#32]
    62e0:	a94153f3 	ldp	x19, x20, [sp,#16]
    62e4:	a8c57bfd 	ldp	x29, x30, [sp],#80
    62e8:	d65f03c0 	ret

00000000000062ec <memcmp>:
memcmp():
/home/lagadanu/Desktop/qemu/optee_os/lib/libutils/isoc/newlib/memcmp.c:90
    62ec:	d2800004 	mov	x4, #0x0                   	// #0
    62f0:	eb04005f 	cmp	x2, x4
    62f4:	54000061 	b.ne	6300 <memcmp+0x14>
/home/lagadanu/Desktop/qemu/optee_os/lib/libutils/isoc/newlib/memcmp.c:96
    62f8:	52800000 	mov	w0, #0x0                   	// #0
/home/lagadanu/Desktop/qemu/optee_os/lib/libutils/isoc/newlib/memcmp.c:136
    62fc:	d65f03c0 	ret
/home/lagadanu/Desktop/qemu/optee_os/lib/libutils/isoc/newlib/memcmp.c:91
    6300:	38646803 	ldrb	w3, [x0,x4]
    6304:	91000484 	add	x4, x4, #0x1
    6308:	8b040025 	add	x5, x1, x4
    630c:	385ff0a5 	ldurb	w5, [x5,#-1]
    6310:	6b05007f 	cmp	w3, w5
    6314:	54fffee0 	b.eq	62f0 <memcmp+0x4>
/home/lagadanu/Desktop/qemu/optee_os/lib/libutils/isoc/newlib/memcmp.c:92
    6318:	4b050060 	sub	w0, w3, w5
    631c:	d65f03c0 	ret

0000000000006320 <memcpy>:
memcpy():
/home/lagadanu/Desktop/qemu/optee_os/lib/libutils/isoc/newlib/memcpy.c:94
    6320:	d2800003 	mov	x3, #0x0                   	// #0
    6324:	eb03005f 	cmp	x2, x3
    6328:	54000041 	b.ne	6330 <memcpy+0x10>
/home/lagadanu/Desktop/qemu/optee_os/lib/libutils/isoc/newlib/memcpy.c:135
    632c:	d65f03c0 	ret
/home/lagadanu/Desktop/qemu/optee_os/lib/libutils/isoc/newlib/memcpy.c:95
    6330:	38636824 	ldrb	w4, [x1,x3]
    6334:	38236804 	strb	w4, [x0,x3]
    6338:	91000463 	add	x3, x3, #0x1
    633c:	17fffffa 	b	6324 <memcpy+0x4>

0000000000006340 <memmove>:
memmove():
/home/lagadanu/Desktop/qemu/optee_os/lib/libutils/isoc/newlib/memmove.c:96
    6340:	eb01001f 	cmp	x0, x1
    6344:	54000089 	b.ls	6354 <memmove+0x14>
/home/lagadanu/Desktop/qemu/optee_os/lib/libutils/isoc/newlib/memmove.c:96 (discriminator 1)
    6348:	8b020023 	add	x3, x1, x2
    634c:	eb03001f 	cmp	x0, x3
    6350:	540000e3 	b.cc	636c <memmove+0x2c>
    6354:	d2800003 	mov	x3, #0x0                   	// #0
/home/lagadanu/Desktop/qemu/optee_os/lib/libutils/isoc/newlib/memmove.c:103
    6358:	eb03005f 	cmp	x2, x3
    635c:	54000101 	b.ne	637c <memmove+0x3c>
/home/lagadanu/Desktop/qemu/optee_os/lib/libutils/isoc/newlib/memmove.c:157
    6360:	d65f03c0 	ret
/home/lagadanu/Desktop/qemu/optee_os/lib/libutils/isoc/newlib/memmove.c:101
    6364:	38626823 	ldrb	w3, [x1,x2]
    6368:	38226803 	strb	w3, [x0,x2]
/home/lagadanu/Desktop/qemu/optee_os/lib/libutils/isoc/newlib/memmove.c:100
    636c:	d1000442 	sub	x2, x2, #0x1
    6370:	b100045f 	cmn	x2, #0x1
    6374:	54ffff81 	b.ne	6364 <memmove+0x24>
    6378:	d65f03c0 	ret
/home/lagadanu/Desktop/qemu/optee_os/lib/libutils/isoc/newlib/memmove.c:104
    637c:	38636824 	ldrb	w4, [x1,x3]
    6380:	38236804 	strb	w4, [x0,x3]
    6384:	91000463 	add	x3, x3, #0x1
    6388:	17fffff4 	b	6358 <memmove+0x18>

000000000000638c <memset>:
memset():
/home/lagadanu/Desktop/qemu/optee_os/lib/libutils/isoc/newlib/memset.c:125
    638c:	d2800003 	mov	x3, #0x0                   	// #0
    6390:	eb03005f 	cmp	x2, x3
    6394:	54000041 	b.ne	639c <memset+0x10>
/home/lagadanu/Desktop/qemu/optee_os/lib/libutils/isoc/newlib/memset.c:129
    6398:	d65f03c0 	ret
/home/lagadanu/Desktop/qemu/optee_os/lib/libutils/isoc/newlib/memset.c:126
    639c:	38236801 	strb	w1, [x0,x3]
    63a0:	91000463 	add	x3, x3, #0x1
    63a4:	17fffffb 	b	6390 <memset+0x4>

00000000000063a8 <strlen>:
strlen():
/home/lagadanu/Desktop/qemu/optee_os/lib/libutils/isoc/newlib/strlen.c:117
    63a8:	aa0003e1 	mov	x1, x0
    63ac:	39400022 	ldrb	w2, [x1]
    63b0:	35000062 	cbnz	w2, 63bc <strlen+0x14>
/home/lagadanu/Desktop/qemu/optee_os/lib/libutils/isoc/newlib/strlen.c:120
    63b4:	cb000020 	sub	x0, x1, x0
    63b8:	d65f03c0 	ret
/home/lagadanu/Desktop/qemu/optee_os/lib/libutils/isoc/newlib/strlen.c:118
    63bc:	91000421 	add	x1, x1, #0x1
    63c0:	17fffffb 	b	63ac <strlen+0x4>

00000000000063c4 <__vsnprintf>:
__vsnprintf():
/home/lagadanu/Desktop/qemu/optee_os/lib/libutils/ext/snprintk.c:137
    63c4:	d103c3ff 	sub	sp, sp, #0xf0
    63c8:	a9037bfd 	stp	x29, x30, [sp,#48]
    63cc:	9100c3fd 	add	x29, sp, #0x30
    63d0:	a90803a1 	stp	x1, x0, [x29,#128]
    63d4:	12001c80 	and	w0, w4, #0xff
    63d8:	b9007fa0 	str	w0, [x29,#124]
/home/lagadanu/Desktop/qemu/optee_os/lib/libutils/ext/snprintk.c:141
    63dc:	f94047a0 	ldr	x0, [x29,#136]
/home/lagadanu/Desktop/qemu/optee_os/lib/libutils/ext/snprintk.c:137
    63e0:	a90453f3 	stp	x19, x20, [sp,#64]
    63e4:	a90873fb 	stp	x27, x28, [sp,#128]
kprintf():
/home/lagadanu/Desktop/qemu/optee_os/lib/libutils/ext/snprintk.c:267
    63e8:	5280001b 	mov	w27, #0x0                   	// #0
    63ec:	b9401874 	ldr	w20, [x3,#24]
    63f0:	a9407073 	ldp	x19, x28, [x3]
__vsnprintf():
/home/lagadanu/Desktop/qemu/optee_os/lib/libutils/ext/snprintk.c:137
    63f4:	a90663f7 	stp	x23, x24, [sp,#96]
    63f8:	a9076bf9 	stp	x25, x26, [sp,#112]
    63fc:	910263b8 	add	x24, x29, #0x98
    6400:	a9055bf5 	stp	x21, x22, [sp,#80]
    6404:	aa0203f9 	mov	x25, x2
/home/lagadanu/Desktop/qemu/optee_os/lib/libutils/ext/snprintk.c:141
    6408:	8b01001a 	add	x26, x0, x1
    640c:	aa0003f6 	mov	x22, x0
kprintf():
/home/lagadanu/Desktop/qemu/optee_os/lib/libutils/ext/snprintk.c:269
    6410:	d2800017 	mov	x23, #0x0                   	// #0
/home/lagadanu/Desktop/qemu/optee_os/lib/libutils/ext/snprintk.c:275
    6414:	39400320 	ldrb	w0, [x25]
    6418:	7100941f 	cmp	w0, #0x25
    641c:	7a401804 	ccmp	w0, #0x0, #0x4, ne
    6420:	540003c1 	b.ne	6498 <__vsnprintf+0xd4>
/home/lagadanu/Desktop/qemu/optee_os/lib/libutils/ext/snprintk.c:279
    6424:	34005780 	cbz	w0, 6f14 <__vsnprintf+0xb50>
/home/lagadanu/Desktop/qemu/optee_os/lib/libutils/ext/snprintk.c:287
    6428:	12800004 	mov	w4, #0xffffffff            	// #-1
/home/lagadanu/Desktop/qemu/optee_os/lib/libutils/ext/snprintk.c:282
    642c:	91000722 	add	x2, x25, #0x1
    6430:	2a1403e0 	mov	w0, w20
/home/lagadanu/Desktop/qemu/optee_os/lib/libutils/ext/snprintk.c:324
    6434:	2a0403e5 	mov	w5, w4
/home/lagadanu/Desktop/qemu/optee_os/lib/libutils/ext/snprintk.c:288
    6438:	52800001 	mov	w1, #0x0                   	// #0
/home/lagadanu/Desktop/qemu/optee_os/lib/libutils/ext/snprintk.c:286
    643c:	5280000a 	mov	w10, #0x0                   	// #0
/home/lagadanu/Desktop/qemu/optee_os/lib/libutils/ext/snprintk.c:284
    6440:	52800015 	mov	w21, #0x0                   	// #0
/home/lagadanu/Desktop/qemu/optee_os/lib/libutils/ext/snprintk.c:299
    6444:	52800406 	mov	w6, #0x20                  	// #32
/home/lagadanu/Desktop/qemu/optee_os/lib/libutils/ext/snprintk.c:290
    6448:	39400048 	ldrb	w8, [x2]
    644c:	91000459 	add	x25, x2, #0x1
/home/lagadanu/Desktop/qemu/optee_os/lib/libutils/ext/snprintk.c:291
    6450:	71018d1f 	cmp	w8, #0x63
    6454:	54001b80 	b.eq	67c4 <__vsnprintf+0x400>
    6458:	5400080c 	b.gt	6558 <__vsnprintf+0x194>
    645c:	7100c11f 	cmp	w8, #0x30
    6460:	54001960 	b.eq	678c <__vsnprintf+0x3c8>
    6464:	540003cc 	b.gt	64dc <__vsnprintf+0x118>
    6468:	7100a91f 	cmp	w8, #0x2a
    646c:	540012c0 	b.eq	66c4 <__vsnprintf+0x300>
    6470:	5400024c 	b.gt	64b8 <__vsnprintf+0xf4>
    6474:	7100811f 	cmp	w8, #0x20
    6478:	540011c0 	b.eq	66b0 <__vsnprintf+0x2ec>
    647c:	71008d1f 	cmp	w8, #0x23
    6480:	540011e0 	b.eq	66bc <__vsnprintf+0x2f8>
/home/lagadanu/Desktop/qemu/optee_os/lib/libutils/ext/snprintk.c:541
    6484:	34005488 	cbz	w8, 6f14 <__vsnprintf+0xb50>
/home/lagadanu/Desktop/qemu/optee_os/lib/libutils/ext/snprintk.c:545
    6488:	910303a3 	add	x3, x29, #0xc0
    648c:	2a0003f4 	mov	w20, w0
    6490:	381d8c68 	strb	w8, [x3,#-40]!
    6494:	140000d4 	b	67e4 <__vsnprintf+0x420>
/home/lagadanu/Desktop/qemu/optee_os/lib/libutils/ext/snprintk.c:276
    6498:	1100077b 	add	w27, w27, #0x1
/home/lagadanu/Desktop/qemu/optee_os/lib/libutils/ext/snprintk.c:277
    649c:	b40000b6 	cbz	x22, 64b0 <__vsnprintf+0xec>
    64a0:	eb16035f 	cmp	x26, x22
    64a4:	54000069 	b.ls	64b0 <__vsnprintf+0xec>
    64a8:	390002c0 	strb	w0, [x22]
    64ac:	910006d6 	add	x22, x22, #0x1
/home/lagadanu/Desktop/qemu/optee_os/lib/libutils/ext/snprintk.c:275
    64b0:	91000739 	add	x25, x25, #0x1
    64b4:	17ffffd8 	b	6414 <__vsnprintf+0x50>
/home/lagadanu/Desktop/qemu/optee_os/lib/libutils/ext/snprintk.c:291
    64b8:	7100b51f 	cmp	w8, #0x2d
    64bc:	54001120 	b.eq	66e0 <__vsnprintf+0x31c>
    64c0:	7100b91f 	cmp	w8, #0x2e
    64c4:	54001280 	b.eq	6714 <__vsnprintf+0x350>
    64c8:	7100ad1f 	cmp	w8, #0x2b
    64cc:	54fffdc1 	b.ne	6484 <__vsnprintf+0xc0>
/home/lagadanu/Desktop/qemu/optee_os/lib/libutils/ext/snprintk.c:319
    64d0:	2a0803e1 	mov	w1, w8
/home/lagadanu/Desktop/qemu/optee_os/lib/libutils/ext/snprintk.c:322
    64d4:	aa1903e2 	mov	x2, x25
    64d8:	17ffffdc 	b	6448 <__vsnprintf+0x84>
/home/lagadanu/Desktop/qemu/optee_os/lib/libutils/ext/snprintk.c:291
    64dc:	7101111f 	cmp	w8, #0x44
    64e0:	54001920 	b.eq	6804 <__vsnprintf+0x440>
    64e4:	5400018c 	b.gt	6514 <__vsnprintf+0x150>
    64e8:	7100e51f 	cmp	w8, #0x39
    64ec:	54fffccc 	b.gt	6484 <__vsnprintf+0xc0>
    64f0:	5280000a 	mov	w10, #0x0                   	// #0
/home/lagadanu/Desktop/qemu/optee_os/lib/libutils/ext/snprintk.c:346
    64f4:	5100c108 	sub	w8, w8, #0x30
    64f8:	52800142 	mov	w2, #0xa                   	// #10
    64fc:	1b02214a 	madd	w10, w10, w2, w8
/home/lagadanu/Desktop/qemu/optee_os/lib/libutils/ext/snprintk.c:347
    6500:	38401728 	ldrb	w8, [x25],#1
/home/lagadanu/Desktop/qemu/optee_os/lib/libutils/ext/snprintk.c:348
    6504:	5100c102 	sub	w2, w8, #0x30
    6508:	7100245f 	cmp	w2, #0x9
    650c:	54ffff49 	b.ls	64f4 <__vsnprintf+0x130>
    6510:	17ffffd0 	b	6450 <__vsnprintf+0x8c>
/home/lagadanu/Desktop/qemu/optee_os/lib/libutils/ext/snprintk.c:291
    6514:	7101551f 	cmp	w8, #0x55
    6518:	54003c40 	b.eq	6ca0 <__vsnprintf+0x8dc>
    651c:	7101611f 	cmp	w8, #0x58
    6520:	54000ac0 	b.eq	6678 <__vsnprintf+0x2b4>
    6524:	71013d1f 	cmp	w8, #0x4f
    6528:	54fffae1 	b.ne	6484 <__vsnprintf+0xc0>
/home/lagadanu/Desktop/qemu/optee_os/lib/libutils/ext/snprintk.c:408
    652c:	321c02b5 	orr	w21, w21, #0x10
/home/lagadanu/Desktop/qemu/optee_os/lib/libutils/ext/snprintk.c:411
    6530:	36382695 	tbz	w21, #7, 6a00 <__vsnprintf+0x63c>
    6534:	37f827e0 	tbnz	w0, #31, 6a30 <__vsnprintf+0x66c>
    6538:	91003e61 	add	x1, x19, #0xf
    653c:	2a0003f4 	mov	w20, w0
    6540:	aa1303e0 	mov	x0, x19
    6544:	927df033 	and	x19, x1, #0xfffffffffffffff8
    6548:	f9400005 	ldr	x5, [x0]
/home/lagadanu/Desktop/qemu/optee_os/lib/libutils/ext/snprintk.c:412
    654c:	52800000 	mov	w0, #0x0                   	// #0
/home/lagadanu/Desktop/qemu/optee_os/lib/libutils/ext/snprintk.c:482
    6550:	52800001 	mov	w1, #0x0                   	// #0
    6554:	140000b8 	b	6834 <__vsnprintf+0x470>
/home/lagadanu/Desktop/qemu/optee_os/lib/libutils/ext/snprintk.c:291
    6558:	7101bd1f 	cmp	w8, #0x6f
    655c:	54fffea0 	b.eq	6530 <__vsnprintf+0x16c>
    6560:	5400024c 	b.gt	65a8 <__vsnprintf+0x1e4>
    6564:	7101a51f 	cmp	w8, #0x69
    6568:	54001500 	b.eq	6808 <__vsnprintf+0x444>
    656c:	540000ec 	b.gt	6588 <__vsnprintf+0x1c4>
    6570:	7101911f 	cmp	w8, #0x64
    6574:	540014a0 	b.eq	6808 <__vsnprintf+0x444>
    6578:	7101a11f 	cmp	w8, #0x68
    657c:	54fff841 	b.ne	6484 <__vsnprintf+0xc0>
/home/lagadanu/Desktop/qemu/optee_os/lib/libutils/ext/snprintk.c:352
    6580:	321a02b5 	orr	w21, w21, #0x40
    6584:	17ffffd4 	b	64d4 <__vsnprintf+0x110>
/home/lagadanu/Desktop/qemu/optee_os/lib/libutils/ext/snprintk.c:291
    6588:	7101b11f 	cmp	w8, #0x6c
    658c:	54001040 	b.eq	6794 <__vsnprintf+0x3d0>
    6590:	7101b91f 	cmp	w8, #0x6e
    6594:	54001d40 	b.eq	693c <__vsnprintf+0x578>
    6598:	7101a91f 	cmp	w8, #0x6a
    659c:	54fff741 	b.ne	6484 <__vsnprintf+0xc0>
/home/lagadanu/Desktop/qemu/optee_os/lib/libutils/ext/snprintk.c:355
    65a0:	321902b5 	orr	w21, w21, #0x80
    65a4:	17ffffcc 	b	64d4 <__vsnprintf+0x110>
/home/lagadanu/Desktop/qemu/optee_os/lib/libutils/ext/snprintk.c:291
    65a8:	7101d11f 	cmp	w8, #0x74
    65ac:	54001040 	b.eq	67b4 <__vsnprintf+0x3f0>
    65b0:	5400046c 	b.gt	663c <__vsnprintf+0x278>
    65b4:	7101c51f 	cmp	w8, #0x71
    65b8:	54000f60 	b.eq	67a4 <__vsnprintf+0x3e0>
    65bc:	540026cb 	b.lt	6a94 <__vsnprintf+0x6d0>
    65c0:	7101cd1f 	cmp	w8, #0x73
    65c4:	54fff601 	b.ne	6484 <__vsnprintf+0xc0>
/home/lagadanu/Desktop/qemu/optee_os/lib/libutils/ext/snprintk.c:442
    65c8:	37f83480 	tbnz	w0, #31, 6c58 <__vsnprintf+0x894>
    65cc:	91003e61 	add	x1, x19, #0xf
    65d0:	2a0003f4 	mov	w20, w0
    65d4:	aa1303e0 	mov	x0, x19
    65d8:	927df033 	and	x19, x1, #0xfffffffffffffff8
    65dc:	f9400003 	ldr	x3, [x0]
/home/lagadanu/Desktop/qemu/optee_os/lib/libutils/ext/snprintk.c:444
    65e0:	d0000000 	adrp	x0, 8000 <PRIME_TABLE+0xb30>
    65e4:	91223000 	add	x0, x0, #0x88c
    65e8:	f100007f 	cmp	x3, #0x0
    65ec:	9a830003 	csel	x3, x0, x3, eq
/home/lagadanu/Desktop/qemu/optee_os/lib/libutils/ext/snprintk.c:445
    65f0:	3100049f 	cmn	w4, #0x1
    65f4:	540033e0 	b.eq	6c70 <__vsnprintf+0x8ac>
/home/lagadanu/Desktop/qemu/optee_os/lib/libutils/ext/snprintk.c:451
    65f8:	93407c82 	sxtw	x2, w4
    65fc:	aa0303e0 	mov	x0, x3
    6600:	290d2ba8 	stp	w8, w10, [x29,#104]
    6604:	52800001 	mov	w1, #0x0                   	// #0
    6608:	f9003ba3 	str	x3, [x29,#112]
    660c:	b9007ba4 	str	w4, [x29,#120]
    6610:	94000371 	bl	73d4 <memchr>
/home/lagadanu/Desktop/qemu/optee_os/lib/libutils/ext/snprintk.c:453
    6614:	294d2ba8 	ldp	w8, w10, [x29,#104]
    6618:	b9407ba4 	ldr	w4, [x29,#120]
    661c:	f9403ba3 	ldr	x3, [x29,#112]
    6620:	b4000080 	cbz	x0, 6630 <__vsnprintf+0x26c>
/home/lagadanu/Desktop/qemu/optee_os/lib/libutils/ext/snprintk.c:454
    6624:	cb030000 	sub	x0, x0, x3
    6628:	6b00009f 	cmp	w4, w0
    662c:	1a80d084 	csel	w4, w4, w0, le
/home/lagadanu/Desktop/qemu/optee_os/lib/libutils/ext/snprintk.c:285
    6630:	52800000 	mov	w0, #0x0                   	// #0
/home/lagadanu/Desktop/qemu/optee_os/lib/libutils/ext/snprintk.c:461
    6634:	52800001 	mov	w1, #0x0                   	// #0
    6638:	14000144 	b	6b48 <__vsnprintf+0x784>
/home/lagadanu/Desktop/qemu/optee_os/lib/libutils/ext/snprintk.c:291
    663c:	7101e11f 	cmp	w8, #0x78
    6640:	540037e0 	b.eq	6d3c <__vsnprintf+0x978>
    6644:	7101e91f 	cmp	w8, #0x7a
    6648:	54000ba0 	b.eq	67bc <__vsnprintf+0x3f8>
    664c:	7101d51f 	cmp	w8, #0x75
    6650:	54fff1a1 	b.ne	6484 <__vsnprintf+0xc0>
/home/lagadanu/Desktop/qemu/optee_os/lib/libutils/ext/snprintk.c:467
    6654:	363832b5 	tbz	w21, #7, 6ca8 <__vsnprintf+0x8e4>
    6658:	37f83400 	tbnz	w0, #31, 6cd8 <__vsnprintf+0x914>
    665c:	91003e61 	add	x1, x19, #0xf
    6660:	2a0003f4 	mov	w20, w0
    6664:	aa1303e0 	mov	x0, x19
    6668:	927df033 	and	x19, x1, #0xfffffffffffffff8
    666c:	f9400005 	ldr	x5, [x0]
/home/lagadanu/Desktop/qemu/optee_os/lib/libutils/ext/snprintk.c:468
    6670:	52800020 	mov	w0, #0x1                   	// #1
    6674:	17ffffb7 	b	6550 <__vsnprintf+0x18c>
/home/lagadanu/Desktop/qemu/optee_os/lib/libutils/ext/snprintk.c:471
    6678:	d0000017 	adrp	x23, 8000 <PRIME_TABLE+0xb30>
    667c:	910b62f7 	add	x23, x23, #0x2d8
/home/lagadanu/Desktop/qemu/optee_os/lib/libutils/ext/snprintk.c:475
    6680:	36383675 	tbz	w21, #7, 6d4c <__vsnprintf+0x988>
    6684:	37f837c0 	tbnz	w0, #31, 6d7c <__vsnprintf+0x9b8>
    6688:	91003e61 	add	x1, x19, #0xf
    668c:	2a0003f4 	mov	w20, w0
    6690:	aa1303e0 	mov	x0, x19
    6694:	927df033 	and	x19, x1, #0xfffffffffffffff8
    6698:	f9400005 	ldr	x5, [x0]
/home/lagadanu/Desktop/qemu/optee_os/lib/libutils/ext/snprintk.c:478
    669c:	36000075 	tbz	w21, #0, 66a8 <__vsnprintf+0x2e4>
    66a0:	b4000045 	cbz	x5, 66a8 <__vsnprintf+0x2e4>
/home/lagadanu/Desktop/qemu/optee_os/lib/libutils/ext/snprintk.c:479
    66a4:	321f02b5 	orr	w21, w21, #0x2
/home/lagadanu/Desktop/qemu/optee_os/lib/libutils/ext/snprintk.c:476
    66a8:	52800040 	mov	w0, #0x2                   	// #2
    66ac:	17ffffa9 	b	6550 <__vsnprintf+0x18c>
/home/lagadanu/Desktop/qemu/optee_os/lib/libutils/ext/snprintk.c:299
    66b0:	7100003f 	cmp	w1, #0x0
    66b4:	1a861021 	csel	w1, w1, w6, ne
    66b8:	17ffff87 	b	64d4 <__vsnprintf+0x110>
/home/lagadanu/Desktop/qemu/optee_os/lib/libutils/ext/snprintk.c:302
    66bc:	320002b5 	orr	w21, w21, #0x1
    66c0:	17ffff85 	b	64d4 <__vsnprintf+0x110>
/home/lagadanu/Desktop/qemu/optee_os/lib/libutils/ext/snprintk.c:311
    66c4:	37f80120 	tbnz	w0, #31, 66e8 <__vsnprintf+0x324>
    66c8:	91002e63 	add	x3, x19, #0xb
    66cc:	aa1303e2 	mov	x2, x19
    66d0:	927df073 	and	x19, x3, #0xfffffffffffffff8
    66d4:	b940004a 	ldr	w10, [x2]
    66d8:	36ffefea 	tbz	w10, #31, 64d4 <__vsnprintf+0x110>
/home/lagadanu/Desktop/qemu/optee_os/lib/libutils/ext/snprintk.c:313
    66dc:	4b0a03ea 	neg	w10, w10
/home/lagadanu/Desktop/qemu/optee_os/lib/libutils/ext/snprintk.c:316
    66e0:	321e02b5 	orr	w21, w21, #0x4
    66e4:	17ffff7c 	b	64d4 <__vsnprintf+0x110>
/home/lagadanu/Desktop/qemu/optee_os/lib/libutils/ext/snprintk.c:311
    66e8:	11002003 	add	w3, w0, #0x8
    66ec:	7100007f 	cmp	w3, #0x0
    66f0:	540000cd 	b.le	6708 <__vsnprintf+0x344>
    66f4:	91002e67 	add	x7, x19, #0xb
    66f8:	aa1303e2 	mov	x2, x19
    66fc:	2a0303e0 	mov	w0, w3
    6700:	927df0f3 	and	x19, x7, #0xfffffffffffffff8
    6704:	17fffff4 	b	66d4 <__vsnprintf+0x310>
    6708:	8b20c382 	add	x2, x28, w0, sxtw
    670c:	2a0303e0 	mov	w0, w3
    6710:	17fffff1 	b	66d4 <__vsnprintf+0x310>
/home/lagadanu/Desktop/qemu/optee_os/lib/libutils/ext/snprintk.c:322
    6714:	39400328 	ldrb	w8, [x25]
    6718:	91000723 	add	x3, x25, #0x1
    671c:	7100a91f 	cmp	w8, #0x2a
    6720:	54000140 	b.eq	6748 <__vsnprintf+0x384>
    6724:	aa0303f9 	mov	x25, x3
    6728:	52800004 	mov	w4, #0x0                   	// #0
/home/lagadanu/Desktop/qemu/optee_os/lib/libutils/ext/snprintk.c:328
    672c:	5100c102 	sub	w2, w8, #0x30
    6730:	7100245f 	cmp	w2, #0x9
    6734:	54ffe8e8 	b.hi	6450 <__vsnprintf+0x8c>
/home/lagadanu/Desktop/qemu/optee_os/lib/libutils/ext/snprintk.c:329
    6738:	52800143 	mov	w3, #0xa                   	// #10
/home/lagadanu/Desktop/qemu/optee_os/lib/libutils/ext/snprintk.c:330
    673c:	38401728 	ldrb	w8, [x25],#1
/home/lagadanu/Desktop/qemu/optee_os/lib/libutils/ext/snprintk.c:329
    6740:	1b030884 	madd	w4, w4, w3, w2
    6744:	17fffffa 	b	672c <__vsnprintf+0x368>
/home/lagadanu/Desktop/qemu/optee_os/lib/libutils/ext/snprintk.c:323
    6748:	37f80160 	tbnz	w0, #31, 6774 <__vsnprintf+0x3b0>
    674c:	91002e64 	add	x4, x19, #0xb
    6750:	2a0003e2 	mov	w2, w0
    6754:	aa1303e0 	mov	x0, x19
    6758:	927df093 	and	x19, x4, #0xfffffffffffffff8
/home/lagadanu/Desktop/qemu/optee_os/lib/libutils/ext/snprintk.c:324
    675c:	b9400004 	ldr	w4, [x0]
/home/lagadanu/Desktop/qemu/optee_os/lib/libutils/ext/snprintk.c:322
    6760:	aa0303f9 	mov	x25, x3
/home/lagadanu/Desktop/qemu/optee_os/lib/libutils/ext/snprintk.c:324
    6764:	2a0203e0 	mov	w0, w2
    6768:	7100009f 	cmp	w4, #0x0
    676c:	1a85a084 	csel	w4, w4, w5, ge
    6770:	17ffff59 	b	64d4 <__vsnprintf+0x110>
/home/lagadanu/Desktop/qemu/optee_os/lib/libutils/ext/snprintk.c:323
    6774:	11002002 	add	w2, w0, #0x8
    6778:	8b20c380 	add	x0, x28, w0, sxtw
    677c:	7100005f 	cmp	w2, #0x0
    6780:	54fffeed 	b.le	675c <__vsnprintf+0x398>
    6784:	91002e64 	add	x4, x19, #0xb
    6788:	17fffff3 	b	6754 <__vsnprintf+0x390>
/home/lagadanu/Desktop/qemu/optee_os/lib/libutils/ext/snprintk.c:340
    678c:	321602b5 	orr	w21, w21, #0x400
    6790:	17ffff51 	b	64d4 <__vsnprintf+0x110>
/home/lagadanu/Desktop/qemu/optee_os/lib/libutils/ext/snprintk.c:358
    6794:	39400322 	ldrb	w2, [x25]
    6798:	7101b05f 	cmp	w2, #0x6c
    679c:	54000081 	b.ne	67ac <__vsnprintf+0x3e8>
/home/lagadanu/Desktop/qemu/optee_os/lib/libutils/ext/snprintk.c:359
    67a0:	91000739 	add	x25, x25, #0x1
/home/lagadanu/Desktop/qemu/optee_os/lib/libutils/ext/snprintk.c:366
    67a4:	321b02b5 	orr	w21, w21, #0x20
    67a8:	17ffff4b 	b	64d4 <__vsnprintf+0x110>
/home/lagadanu/Desktop/qemu/optee_os/lib/libutils/ext/snprintk.c:362
    67ac:	321c02b5 	orr	w21, w21, #0x10
    67b0:	17ffff49 	b	64d4 <__vsnprintf+0x110>
/home/lagadanu/Desktop/qemu/optee_os/lib/libutils/ext/snprintk.c:369
    67b4:	321802b5 	orr	w21, w21, #0x100
    67b8:	17ffff47 	b	64d4 <__vsnprintf+0x110>
/home/lagadanu/Desktop/qemu/optee_os/lib/libutils/ext/snprintk.c:372
    67bc:	321702b5 	orr	w21, w21, #0x200
    67c0:	17ffff45 	b	64d4 <__vsnprintf+0x110>
/home/lagadanu/Desktop/qemu/optee_os/lib/libutils/ext/snprintk.c:375
    67c4:	37f80140 	tbnz	w0, #31, 67ec <__vsnprintf+0x428>
    67c8:	91002e61 	add	x1, x19, #0xb
    67cc:	2a0003f4 	mov	w20, w0
    67d0:	aa1303e0 	mov	x0, x19
    67d4:	927df033 	and	x19, x1, #0xfffffffffffffff8
    67d8:	910303a3 	add	x3, x29, #0xc0
    67dc:	b9400000 	ldr	w0, [x0]
    67e0:	381d8c60 	strb	w0, [x3,#-40]!
/home/lagadanu/Desktop/qemu/optee_os/lib/libutils/ext/snprintk.c:546
    67e4:	52800024 	mov	w4, #0x1                   	// #1
    67e8:	17ffff92 	b	6630 <__vsnprintf+0x26c>
/home/lagadanu/Desktop/qemu/optee_os/lib/libutils/ext/snprintk.c:375
    67ec:	11002014 	add	w20, w0, #0x8
    67f0:	8b20c380 	add	x0, x28, w0, sxtw
    67f4:	7100029f 	cmp	w20, #0x0
    67f8:	54ffff0d 	b.le	67d8 <__vsnprintf+0x414>
    67fc:	91002e61 	add	x1, x19, #0xb
    6800:	17fffff4 	b	67d0 <__vsnprintf+0x40c>
/home/lagadanu/Desktop/qemu/optee_os/lib/libutils/ext/snprintk.c:380
    6804:	321c02b5 	orr	w21, w21, #0x10
/home/lagadanu/Desktop/qemu/optee_os/lib/libutils/ext/snprintk.c:384
    6808:	36380515 	tbz	w21, #7, 68a8 <__vsnprintf+0x4e4>
    680c:	37f80660 	tbnz	w0, #31, 68d8 <__vsnprintf+0x514>
    6810:	91003e62 	add	x2, x19, #0xf
    6814:	2a0003f4 	mov	w20, w0
    6818:	aa1303e0 	mov	x0, x19
    681c:	927df053 	and	x19, x2, #0xfffffffffffffff8
    6820:	f9400005 	ldr	x5, [x0]
/home/lagadanu/Desktop/qemu/optee_os/lib/libutils/ext/snprintk.c:389
    6824:	52800020 	mov	w0, #0x1                   	// #1
/home/lagadanu/Desktop/qemu/optee_os/lib/libutils/ext/snprintk.c:385
    6828:	b6f80065 	tbz	x5, #63, 6834 <__vsnprintf+0x470>
/home/lagadanu/Desktop/qemu/optee_os/lib/libutils/ext/snprintk.c:386
    682c:	cb0503e5 	neg	x5, x5
/home/lagadanu/Desktop/qemu/optee_os/lib/libutils/ext/snprintk.c:387
    6830:	528005a1 	mov	w1, #0x2d                  	// #45
/home/lagadanu/Desktop/qemu/optee_os/lib/libutils/ext/snprintk.c:489
    6834:	3100049f 	cmn	w4, #0x1
    6838:	12157aa2 	and	w2, w21, #0xfffffbff
    683c:	1a951055 	csel	w21, w2, w21, ne
/home/lagadanu/Desktop/qemu/optee_os/lib/libutils/ext/snprintk.c:497
    6840:	f10000bf 	cmp	x5, #0x0
    6844:	7a400880 	ccmp	w4, #0x0, #0x0, eq
/home/lagadanu/Desktop/qemu/optee_os/lib/libutils/ext/snprintk.c:496
    6848:	91009703 	add	x3, x24, #0x25
/home/lagadanu/Desktop/qemu/optee_os/lib/libutils/ext/snprintk.c:497
    684c:	54000260 	b.eq	6898 <__vsnprintf+0x4d4>
/home/lagadanu/Desktop/qemu/optee_os/lib/libutils/ext/snprintk.c:503
    6850:	7100041f 	cmp	w0, #0x1
    6854:	54002c60 	b.eq	6de0 <__vsnprintf+0xa1c>
    6858:	7100081f 	cmp	w0, #0x2
    685c:	54002e40 	b.eq	6e24 <__vsnprintf+0xa60>
    6860:	91009700 	add	x0, x24, #0x25
/home/lagadanu/Desktop/qemu/optee_os/lib/libutils/ext/snprintk.c:506
    6864:	120008a2 	and	w2, w5, #0x7
    6868:	d1000403 	sub	x3, x0, #0x1
    686c:	1100c042 	add	w2, w2, #0x30
    6870:	381ff002 	sturb	w2, [x0,#-1]
/home/lagadanu/Desktop/qemu/optee_os/lib/libutils/ext/snprintk.c:507
    6874:	d343fca5 	lsr	x5, x5, #3
/home/lagadanu/Desktop/qemu/optee_os/lib/libutils/ext/snprintk.c:508
    6878:	b5002c45 	cbnz	x5, 6e00 <__vsnprintf+0xa3c>
/home/lagadanu/Desktop/qemu/optee_os/lib/libutils/ext/snprintk.c:510
    687c:	7100c05f 	cmp	w2, #0x30
    6880:	1a9f07e2 	cset	w2, ne
    6884:	6a0202bf 	tst	w21, w2
    6888:	54000080 	b.eq	6898 <__vsnprintf+0x4d4>
/home/lagadanu/Desktop/qemu/optee_os/lib/libutils/ext/snprintk.c:511
    688c:	52800602 	mov	w2, #0x30                  	// #48
    6890:	381ff062 	sturb	w2, [x3,#-1]
    6894:	d1000803 	sub	x3, x0, #0x2
/home/lagadanu/Desktop/qemu/optee_os/lib/libutils/ext/snprintk.c:537
    6898:	91009702 	add	x2, x24, #0x25
    689c:	2a0403e0 	mov	w0, w4
    68a0:	4b030044 	sub	w4, w2, w3
    68a4:	140000a9 	b	6b48 <__vsnprintf+0x784>
/home/lagadanu/Desktop/qemu/optee_os/lib/libutils/ext/snprintk.c:384
    68a8:	3747fb35 	tbnz	w21, #8, 680c <__vsnprintf+0x448>
    68ac:	374ffb15 	tbnz	w21, #9, 680c <__vsnprintf+0x448>
    68b0:	372ffaf5 	tbnz	w21, #5, 680c <__vsnprintf+0x448>
    68b4:	3727fad5 	tbnz	w21, #4, 680c <__vsnprintf+0x448>
    68b8:	36300295 	tbz	w21, #6, 6908 <__vsnprintf+0x544>
    68bc:	37f801a0 	tbnz	w0, #31, 68f0 <__vsnprintf+0x52c>
    68c0:	91002e62 	add	x2, x19, #0xb
    68c4:	2a0003f4 	mov	w20, w0
    68c8:	aa1303e0 	mov	x0, x19
    68cc:	927df053 	and	x19, x2, #0xfffffffffffffff8
    68d0:	79800005 	ldrsh	x5, [x0]
    68d4:	17ffffd4 	b	6824 <__vsnprintf+0x460>
    68d8:	11002014 	add	w20, w0, #0x8
    68dc:	8b20c380 	add	x0, x28, w0, sxtw
    68e0:	7100029f 	cmp	w20, #0x0
    68e4:	54fff9ed 	b.le	6820 <__vsnprintf+0x45c>
    68e8:	91003e62 	add	x2, x19, #0xf
    68ec:	17ffffcb 	b	6818 <__vsnprintf+0x454>
    68f0:	11002014 	add	w20, w0, #0x8
    68f4:	8b20c380 	add	x0, x28, w0, sxtw
    68f8:	7100029f 	cmp	w20, #0x0
    68fc:	54fffead 	b.le	68d0 <__vsnprintf+0x50c>
    6900:	91002e62 	add	x2, x19, #0xb
    6904:	17fffff1 	b	68c8 <__vsnprintf+0x504>
    6908:	37f800e0 	tbnz	w0, #31, 6924 <__vsnprintf+0x560>
    690c:	91002e62 	add	x2, x19, #0xb
    6910:	2a0003f4 	mov	w20, w0
    6914:	aa1303e0 	mov	x0, x19
    6918:	927df053 	and	x19, x2, #0xfffffffffffffff8
    691c:	b9800005 	ldrsw	x5, [x0]
    6920:	17ffffc1 	b	6824 <__vsnprintf+0x460>
    6924:	11002014 	add	w20, w0, #0x8
    6928:	8b20c380 	add	x0, x28, w0, sxtw
    692c:	7100029f 	cmp	w20, #0x0
    6930:	54ffff6d 	b.le	691c <__vsnprintf+0x558>
    6934:	91002e62 	add	x2, x19, #0xb
    6938:	17fffff7 	b	6914 <__vsnprintf+0x550>
/home/lagadanu/Desktop/qemu/optee_os/lib/libutils/ext/snprintk.c:392
    693c:	36380155 	tbz	w21, #7, 6964 <__vsnprintf+0x5a0>
/home/lagadanu/Desktop/qemu/optee_os/lib/libutils/ext/snprintk.c:401
    6940:	37f802c0 	tbnz	w0, #31, 6998 <__vsnprintf+0x5d4>
    6944:	91003e61 	add	x1, x19, #0xf
    6948:	2a0003f4 	mov	w20, w0
    694c:	aa1303e0 	mov	x0, x19
    6950:	927df033 	and	x19, x1, #0xfffffffffffffff8
    6954:	f9400000 	ldr	x0, [x0]
    6958:	93407f61 	sxtw	x1, w27
    695c:	f9000001 	str	x1, [x0]
    6960:	17fffead 	b	6414 <__vsnprintf+0x50>
/home/lagadanu/Desktop/qemu/optee_os/lib/libutils/ext/snprintk.c:394
    6964:	3747fef5 	tbnz	w21, #8, 6940 <__vsnprintf+0x57c>
/home/lagadanu/Desktop/qemu/optee_os/lib/libutils/ext/snprintk.c:396
    6968:	374ffed5 	tbnz	w21, #9, 6940 <__vsnprintf+0x57c>
/home/lagadanu/Desktop/qemu/optee_os/lib/libutils/ext/snprintk.c:398
    696c:	372ffeb5 	tbnz	w21, #5, 6940 <__vsnprintf+0x57c>
/home/lagadanu/Desktop/qemu/optee_os/lib/libutils/ext/snprintk.c:400
    6970:	3727fe95 	tbnz	w21, #4, 6940 <__vsnprintf+0x57c>
/home/lagadanu/Desktop/qemu/optee_os/lib/libutils/ext/snprintk.c:402
    6974:	363002b5 	tbz	w21, #6, 69c8 <__vsnprintf+0x604>
/home/lagadanu/Desktop/qemu/optee_os/lib/libutils/ext/snprintk.c:403
    6978:	37f801c0 	tbnz	w0, #31, 69b0 <__vsnprintf+0x5ec>
    697c:	91003e61 	add	x1, x19, #0xf
    6980:	2a0003f4 	mov	w20, w0
    6984:	aa1303e0 	mov	x0, x19
    6988:	927df033 	and	x19, x1, #0xfffffffffffffff8
    698c:	f9400000 	ldr	x0, [x0]
    6990:	7900001b 	strh	w27, [x0]
    6994:	17fffea0 	b	6414 <__vsnprintf+0x50>
/home/lagadanu/Desktop/qemu/optee_os/lib/libutils/ext/snprintk.c:401
    6998:	11002014 	add	w20, w0, #0x8
    699c:	8b20c380 	add	x0, x28, w0, sxtw
    69a0:	7100029f 	cmp	w20, #0x0
    69a4:	54fffd8d 	b.le	6954 <__vsnprintf+0x590>
    69a8:	91003e61 	add	x1, x19, #0xf
    69ac:	17ffffe8 	b	694c <__vsnprintf+0x588>
/home/lagadanu/Desktop/qemu/optee_os/lib/libutils/ext/snprintk.c:403
    69b0:	11002014 	add	w20, w0, #0x8
    69b4:	8b20c380 	add	x0, x28, w0, sxtw
    69b8:	7100029f 	cmp	w20, #0x0
    69bc:	54fffe8d 	b.le	698c <__vsnprintf+0x5c8>
    69c0:	91003e61 	add	x1, x19, #0xf
    69c4:	17fffff0 	b	6984 <__vsnprintf+0x5c0>
/home/lagadanu/Desktop/qemu/optee_os/lib/libutils/ext/snprintk.c:405
    69c8:	37f80100 	tbnz	w0, #31, 69e8 <__vsnprintf+0x624>
    69cc:	91003e61 	add	x1, x19, #0xf
    69d0:	2a0003f4 	mov	w20, w0
    69d4:	aa1303e0 	mov	x0, x19
    69d8:	927df033 	and	x19, x1, #0xfffffffffffffff8
    69dc:	f9400000 	ldr	x0, [x0]
    69e0:	b900001b 	str	w27, [x0]
    69e4:	17fffe8c 	b	6414 <__vsnprintf+0x50>
    69e8:	11002014 	add	w20, w0, #0x8
    69ec:	8b20c380 	add	x0, x28, w0, sxtw
    69f0:	7100029f 	cmp	w20, #0x0
    69f4:	54ffff4d 	b.le	69dc <__vsnprintf+0x618>
    69f8:	91003e61 	add	x1, x19, #0xf
    69fc:	17fffff6 	b	69d4 <__vsnprintf+0x610>
/home/lagadanu/Desktop/qemu/optee_os/lib/libutils/ext/snprintk.c:411
    6a00:	3747d9b5 	tbnz	w21, #8, 6534 <__vsnprintf+0x170>
    6a04:	374fd995 	tbnz	w21, #9, 6534 <__vsnprintf+0x170>
    6a08:	372fd975 	tbnz	w21, #5, 6534 <__vsnprintf+0x170>
    6a0c:	3727d955 	tbnz	w21, #4, 6534 <__vsnprintf+0x170>
    6a10:	36300295 	tbz	w21, #6, 6a60 <__vsnprintf+0x69c>
    6a14:	37f801a0 	tbnz	w0, #31, 6a48 <__vsnprintf+0x684>
    6a18:	91002e61 	add	x1, x19, #0xb
    6a1c:	2a0003f4 	mov	w20, w0
    6a20:	aa1303e0 	mov	x0, x19
    6a24:	927df033 	and	x19, x1, #0xfffffffffffffff8
    6a28:	79400005 	ldrh	w5, [x0]
    6a2c:	17fffec8 	b	654c <__vsnprintf+0x188>
    6a30:	11002014 	add	w20, w0, #0x8
    6a34:	8b20c380 	add	x0, x28, w0, sxtw
    6a38:	7100029f 	cmp	w20, #0x0
    6a3c:	54ffd86d 	b.le	6548 <__vsnprintf+0x184>
    6a40:	91003e61 	add	x1, x19, #0xf
    6a44:	17fffebf 	b	6540 <__vsnprintf+0x17c>
    6a48:	11002014 	add	w20, w0, #0x8
    6a4c:	8b20c380 	add	x0, x28, w0, sxtw
    6a50:	7100029f 	cmp	w20, #0x0
    6a54:	54fffead 	b.le	6a28 <__vsnprintf+0x664>
    6a58:	91002e61 	add	x1, x19, #0xb
    6a5c:	17fffff1 	b	6a20 <__vsnprintf+0x65c>
    6a60:	37f800e0 	tbnz	w0, #31, 6a7c <__vsnprintf+0x6b8>
    6a64:	91002e61 	add	x1, x19, #0xb
    6a68:	2a0003f4 	mov	w20, w0
    6a6c:	aa1303e0 	mov	x0, x19
    6a70:	927df033 	and	x19, x1, #0xfffffffffffffff8
    6a74:	b9400005 	ldr	w5, [x0]
    6a78:	17fffeb5 	b	654c <__vsnprintf+0x188>
    6a7c:	11002014 	add	w20, w0, #0x8
    6a80:	8b20c380 	add	x0, x28, w0, sxtw
    6a84:	7100029f 	cmp	w20, #0x0
    6a88:	54ffff6d 	b.le	6a74 <__vsnprintf+0x6b0>
    6a8c:	91002e61 	add	x1, x19, #0xb
    6a90:	17fffff7 	b	6a6c <__vsnprintf+0x6a8>
/home/lagadanu/Desktop/qemu/optee_os/lib/libutils/ext/snprintk.c:415
    6a94:	b9407fa1 	ldr	w1, [x29,#124]
    6a98:	34000b81 	cbz	w1, 6c08 <__vsnprintf+0x844>
    6a9c:	39400321 	ldrb	w1, [x25]
    6aa0:	7101543f 	cmp	w1, #0x55
    6aa4:	54000b21 	b.ne	6c08 <__vsnprintf+0x844>
    6aa8:	39400721 	ldrb	w1, [x25,#1]
    6aac:	7101b03f 	cmp	w1, #0x6c
    6ab0:	54000ac1 	b.ne	6c08 <__vsnprintf+0x844>
/home/lagadanu/Desktop/qemu/optee_os/lib/libutils/ext/snprintk.c:420
    6ab4:	91000b39 	add	x25, x25, #0x2
/home/lagadanu/Desktop/qemu/optee_os/lib/libutils/ext/snprintk.c:421
    6ab8:	37f809c0 	tbnz	w0, #31, 6bf0 <__vsnprintf+0x82c>
    6abc:	91003e61 	add	x1, x19, #0xf
    6ac0:	2a0003f4 	mov	w20, w0
    6ac4:	aa1303e0 	mov	x0, x19
    6ac8:	927df033 	and	x19, x1, #0xfffffffffffffff8
    6acc:	f9400000 	ldr	x0, [x0]
uuid2str():
/home/lagadanu/Desktop/qemu/optee_os/lib/libutils/ext/snprintk.c:223
    6ad0:	d0000002 	adrp	x2, 8000 <PRIME_TABLE+0xb30>
    6ad4:	b90073aa 	str	w10, [x29,#112]
    6ad8:	91224c42 	add	x2, x2, #0x893
    6adc:	b9007ba8 	str	w8, [x29,#120]
    6ae0:	39403c01 	ldrb	w1, [x0,#15]
    6ae4:	79400804 	ldrh	w4, [x0,#4]
    6ae8:	39402407 	ldrb	w7, [x0,#9]
    6aec:	39402006 	ldrb	w6, [x0,#8]
    6af0:	79400c05 	ldrh	w5, [x0,#6]
    6af4:	b9002be1 	str	w1, [sp,#40]
    6af8:	39403801 	ldrb	w1, [x0,#14]
    6afc:	b90023e1 	str	w1, [sp,#32]
    6b00:	39403401 	ldrb	w1, [x0,#13]
    6b04:	b9001be1 	str	w1, [sp,#24]
    6b08:	39403001 	ldrb	w1, [x0,#12]
    6b0c:	b90013e1 	str	w1, [sp,#16]
    6b10:	39402c01 	ldrb	w1, [x0,#11]
    6b14:	b9000be1 	str	w1, [sp,#8]
    6b18:	39402801 	ldrb	w1, [x0,#10]
    6b1c:	b90003e1 	str	w1, [sp]
    6b20:	d28004a1 	mov	x1, #0x25                  	// #37
    6b24:	b9400003 	ldr	w3, [x0]
    6b28:	aa1803e0 	mov	x0, x24
    6b2c:	94000125 	bl	6fc0 <snprintk>
    6b30:	2a0003e4 	mov	w4, w0
    6b34:	b94073aa 	ldr	w10, [x29,#112]
kprintf():
/home/lagadanu/Desktop/qemu/optee_os/lib/libutils/ext/snprintk.c:423
    6b38:	aa1803e3 	mov	x3, x24
    6b3c:	b9407ba8 	ldr	w8, [x29,#120]
/home/lagadanu/Desktop/qemu/optee_os/lib/libutils/ext/snprintk.c:285
    6b40:	52800000 	mov	w0, #0x0                   	// #0
/home/lagadanu/Desktop/qemu/optee_os/lib/libutils/ext/snprintk.c:424
    6b44:	52800001 	mov	w1, #0x0                   	// #0
/home/lagadanu/Desktop/qemu/optee_os/lib/libutils/ext/snprintk.c:565
    6b48:	6b04001f 	cmp	w0, w4
    6b4c:	1a84a006 	csel	w6, w0, w4, ge
/home/lagadanu/Desktop/qemu/optee_os/lib/libutils/ext/snprintk.c:566
    6b50:	34001781 	cbz	w1, 6e40 <__vsnprintf+0xa7c>
/home/lagadanu/Desktop/qemu/optee_os/lib/libutils/ext/snprintk.c:567
    6b54:	110004c6 	add	w6, w6, #0x1
/home/lagadanu/Desktop/qemu/optee_os/lib/libutils/ext/snprintk.c:572
    6b58:	6b06015f 	cmp	w10, w6
    6b5c:	1a86a142 	csel	w2, w10, w6, ge
    6b60:	0b02037b 	add	w27, w27, w2
/home/lagadanu/Desktop/qemu/optee_os/lib/libutils/ext/snprintk.c:575
    6b64:	52808082 	mov	w2, #0x404                 	// #1028
    6b68:	6a0202a2 	ands	w2, w21, w2
    6b6c:	540000a1 	b.ne	6b80 <__vsnprintf+0x7bc>
/home/lagadanu/Desktop/qemu/optee_os/lib/libutils/ext/snprintk.c:576
    6b70:	4b060145 	sub	w5, w10, w6
/home/lagadanu/Desktop/qemu/optee_os/lib/libutils/ext/snprintk.c:578
    6b74:	52800407 	mov	w7, #0x20                  	// #32
/home/lagadanu/Desktop/qemu/optee_os/lib/libutils/ext/snprintk.c:577
    6b78:	710000bf 	cmp	w5, #0x0
    6b7c:	540016ac 	b.gt	6e50 <__vsnprintf+0xa8c>
/home/lagadanu/Desktop/qemu/optee_os/lib/libutils/ext/snprintk.c:582
    6b80:	34001801 	cbz	w1, 6e80 <__vsnprintf+0xabc>
/home/lagadanu/Desktop/qemu/optee_os/lib/libutils/ext/snprintk.c:583
    6b84:	b5001756 	cbnz	x22, 6e6c <__vsnprintf+0xaa8>
/home/lagadanu/Desktop/qemu/optee_os/lib/libutils/ext/snprintk.c:586
    6b88:	d2800016 	mov	x22, #0x0                   	// #0
/home/lagadanu/Desktop/qemu/optee_os/lib/libutils/ext/snprintk.c:590
    6b8c:	7110005f 	cmp	w2, #0x400
    6b90:	540000a1 	b.ne	6ba4 <__vsnprintf+0x7e0>
/home/lagadanu/Desktop/qemu/optee_os/lib/libutils/ext/snprintk.c:591
    6b94:	4b060141 	sub	w1, w10, w6
/home/lagadanu/Desktop/qemu/optee_os/lib/libutils/ext/snprintk.c:593
    6b98:	52800602 	mov	w2, #0x30                  	// #48
/home/lagadanu/Desktop/qemu/optee_os/lib/libutils/ext/snprintk.c:592
    6b9c:	7100003f 	cmp	w1, #0x0
    6ba0:	540018ec 	b.gt	6ebc <__vsnprintf+0xaf8>
/home/lagadanu/Desktop/qemu/optee_os/lib/libutils/ext/snprintk.c:597
    6ba4:	4b040000 	sub	w0, w0, w4
/home/lagadanu/Desktop/qemu/optee_os/lib/libutils/ext/snprintk.c:599
    6ba8:	52800601 	mov	w1, #0x30                  	// #48
/home/lagadanu/Desktop/qemu/optee_os/lib/libutils/ext/snprintk.c:598
    6bac:	7100001f 	cmp	w0, #0x0
    6bb0:	5400194c 	b.gt	6ed8 <__vsnprintf+0xb14>
    6bb4:	8b244064 	add	x4, x3, w4, uxtw
/home/lagadanu/Desktop/qemu/optee_os/lib/libutils/ext/snprintk.c:602
    6bb8:	eb04007f 	cmp	x3, x4
    6bbc:	540019c1 	b.ne	6ef4 <__vsnprintf+0xb30>
/home/lagadanu/Desktop/qemu/optee_os/lib/libutils/ext/snprintk.c:605
    6bc0:	3617c2b5 	tbz	w21, #2, 6414 <__vsnprintf+0x50>
/home/lagadanu/Desktop/qemu/optee_os/lib/libutils/ext/snprintk.c:606
    6bc4:	4b06014a 	sub	w10, w10, w6
/home/lagadanu/Desktop/qemu/optee_os/lib/libutils/ext/snprintk.c:608
    6bc8:	52800400 	mov	w0, #0x20                  	// #32
/home/lagadanu/Desktop/qemu/optee_os/lib/libutils/ext/snprintk.c:607
    6bcc:	7100015f 	cmp	w10, #0x0
    6bd0:	54ffc22d 	b.le	6414 <__vsnprintf+0x50>
/home/lagadanu/Desktop/qemu/optee_os/lib/libutils/ext/snprintk.c:608
    6bd4:	b40000b6 	cbz	x22, 6be8 <__vsnprintf+0x824>
    6bd8:	eb16035f 	cmp	x26, x22
    6bdc:	54000069 	b.ls	6be8 <__vsnprintf+0x824>
    6be0:	390002c0 	strb	w0, [x22]
    6be4:	910006d6 	add	x22, x22, #0x1
    6be8:	5100054a 	sub	w10, w10, #0x1
    6bec:	17fffff8 	b	6bcc <__vsnprintf+0x808>
/home/lagadanu/Desktop/qemu/optee_os/lib/libutils/ext/snprintk.c:421
    6bf0:	11002014 	add	w20, w0, #0x8
    6bf4:	8b20c380 	add	x0, x28, w0, sxtw
    6bf8:	7100029f 	cmp	w20, #0x0
    6bfc:	54fff68d 	b.le	6acc <__vsnprintf+0x708>
    6c00:	91003e61 	add	x1, x19, #0xf
    6c04:	17ffffb0 	b	6ac4 <__vsnprintf+0x700>
/home/lagadanu/Desktop/qemu/optee_os/lib/libutils/ext/snprintk.c:435
    6c08:	37f801c0 	tbnz	w0, #31, 6c40 <__vsnprintf+0x87c>
    6c0c:	91003e61 	add	x1, x19, #0xf
    6c10:	2a0003f4 	mov	w20, w0
    6c14:	aa1303e0 	mov	x0, x19
    6c18:	927df033 	and	x19, x1, #0xfffffffffffffff8
/home/lagadanu/Desktop/qemu/optee_os/lib/libutils/ext/snprintk.c:437
    6c1c:	d0000017 	adrp	x23, 8000 <PRIME_TABLE+0xb30>
    6c20:	910b62f7 	add	x23, x23, #0x2d8
/home/lagadanu/Desktop/qemu/optee_os/lib/libutils/ext/snprintk.c:435
    6c24:	f9400005 	ldr	x5, [x0]
/home/lagadanu/Desktop/qemu/optee_os/lib/libutils/ext/snprintk.c:438
    6c28:	321f02b5 	orr	w21, w21, #0x2
/home/lagadanu/Desktop/qemu/optee_os/lib/libutils/ext/snprintk.c:437
    6c2c:	910062f7 	add	x23, x23, #0x18
/home/lagadanu/Desktop/qemu/optee_os/lib/libutils/ext/snprintk.c:482
    6c30:	52800001 	mov	w1, #0x0                   	// #0
/home/lagadanu/Desktop/qemu/optee_os/lib/libutils/ext/snprintk.c:439
    6c34:	52800f08 	mov	w8, #0x78                  	// #120
/home/lagadanu/Desktop/qemu/optee_os/lib/libutils/ext/snprintk.c:436
    6c38:	52800040 	mov	w0, #0x2                   	// #2
    6c3c:	17fffefe 	b	6834 <__vsnprintf+0x470>
/home/lagadanu/Desktop/qemu/optee_os/lib/libutils/ext/snprintk.c:435
    6c40:	11002014 	add	w20, w0, #0x8
    6c44:	8b20c380 	add	x0, x28, w0, sxtw
    6c48:	7100029f 	cmp	w20, #0x0
    6c4c:	54fffe8d 	b.le	6c1c <__vsnprintf+0x858>
    6c50:	91003e61 	add	x1, x19, #0xf
    6c54:	17fffff0 	b	6c14 <__vsnprintf+0x850>
/home/lagadanu/Desktop/qemu/optee_os/lib/libutils/ext/snprintk.c:442
    6c58:	11002014 	add	w20, w0, #0x8
    6c5c:	8b20c380 	add	x0, x28, w0, sxtw
    6c60:	7100029f 	cmp	w20, #0x0
    6c64:	54ffcbcd 	b.le	65dc <__vsnprintf+0x218>
    6c68:	91003e61 	add	x1, x19, #0xf
    6c6c:	17fffe5a 	b	65d4 <__vsnprintf+0x210>
/home/lagadanu/Desktop/qemu/optee_os/lib/libutils/ext/snprintk.c:460
    6c70:	aa0303e0 	mov	x0, x3
    6c74:	b9006fa8 	str	w8, [x29,#108]
    6c78:	f9003ba3 	str	x3, [x29,#112]
    6c7c:	b9007baa 	str	w10, [x29,#120]
    6c80:	97fffdca 	bl	63a8 <strlen>
/home/lagadanu/Desktop/qemu/optee_os/lib/libutils/ext/snprintk.c:461
    6c84:	52800001 	mov	w1, #0x0                   	// #0
/home/lagadanu/Desktop/qemu/optee_os/lib/libutils/ext/snprintk.c:460
    6c88:	2a0003e4 	mov	w4, w0
    6c8c:	b9406fa8 	ldr	w8, [x29,#108]
/home/lagadanu/Desktop/qemu/optee_os/lib/libutils/ext/snprintk.c:285
    6c90:	52800000 	mov	w0, #0x0                   	// #0
    6c94:	b9407baa 	ldr	w10, [x29,#120]
    6c98:	f9403ba3 	ldr	x3, [x29,#112]
    6c9c:	17ffffab 	b	6b48 <__vsnprintf+0x784>
/home/lagadanu/Desktop/qemu/optee_os/lib/libutils/ext/snprintk.c:464
    6ca0:	321c02b5 	orr	w21, w21, #0x10
    6ca4:	17fffe6c 	b	6654 <__vsnprintf+0x290>
/home/lagadanu/Desktop/qemu/optee_os/lib/libutils/ext/snprintk.c:467
    6ca8:	3747cd95 	tbnz	w21, #8, 6658 <__vsnprintf+0x294>
    6cac:	374fcd75 	tbnz	w21, #9, 6658 <__vsnprintf+0x294>
    6cb0:	372fcd55 	tbnz	w21, #5, 6658 <__vsnprintf+0x294>
    6cb4:	3727cd35 	tbnz	w21, #4, 6658 <__vsnprintf+0x294>
    6cb8:	36300295 	tbz	w21, #6, 6d08 <__vsnprintf+0x944>
    6cbc:	37f801a0 	tbnz	w0, #31, 6cf0 <__vsnprintf+0x92c>
    6cc0:	91002e61 	add	x1, x19, #0xb
    6cc4:	2a0003f4 	mov	w20, w0
    6cc8:	aa1303e0 	mov	x0, x19
    6ccc:	927df033 	and	x19, x1, #0xfffffffffffffff8
    6cd0:	79400005 	ldrh	w5, [x0]
    6cd4:	17fffe67 	b	6670 <__vsnprintf+0x2ac>
    6cd8:	11002014 	add	w20, w0, #0x8
    6cdc:	8b20c380 	add	x0, x28, w0, sxtw
    6ce0:	7100029f 	cmp	w20, #0x0
    6ce4:	54ffcc4d 	b.le	666c <__vsnprintf+0x2a8>
    6ce8:	91003e61 	add	x1, x19, #0xf
    6cec:	17fffe5e 	b	6664 <__vsnprintf+0x2a0>
    6cf0:	11002014 	add	w20, w0, #0x8
    6cf4:	8b20c380 	add	x0, x28, w0, sxtw
    6cf8:	7100029f 	cmp	w20, #0x0
    6cfc:	54fffead 	b.le	6cd0 <__vsnprintf+0x90c>
    6d00:	91002e61 	add	x1, x19, #0xb
    6d04:	17fffff1 	b	6cc8 <__vsnprintf+0x904>
    6d08:	37f800e0 	tbnz	w0, #31, 6d24 <__vsnprintf+0x960>
    6d0c:	91002e61 	add	x1, x19, #0xb
    6d10:	2a0003f4 	mov	w20, w0
    6d14:	aa1303e0 	mov	x0, x19
    6d18:	927df033 	and	x19, x1, #0xfffffffffffffff8
    6d1c:	b9400005 	ldr	w5, [x0]
    6d20:	17fffe54 	b	6670 <__vsnprintf+0x2ac>
    6d24:	11002014 	add	w20, w0, #0x8
    6d28:	8b20c380 	add	x0, x28, w0, sxtw
    6d2c:	7100029f 	cmp	w20, #0x0
    6d30:	54ffff6d 	b.le	6d1c <__vsnprintf+0x958>
    6d34:	91002e61 	add	x1, x19, #0xb
    6d38:	17fffff7 	b	6d14 <__vsnprintf+0x950>
/home/lagadanu/Desktop/qemu/optee_os/lib/libutils/ext/snprintk.c:474
    6d3c:	d0000017 	adrp	x23, 8000 <PRIME_TABLE+0xb30>
    6d40:	910b62f7 	add	x23, x23, #0x2d8
    6d44:	910062f7 	add	x23, x23, #0x18
    6d48:	17fffe4e 	b	6680 <__vsnprintf+0x2bc>
/home/lagadanu/Desktop/qemu/optee_os/lib/libutils/ext/snprintk.c:475
    6d4c:	3747c9d5 	tbnz	w21, #8, 6684 <__vsnprintf+0x2c0>
    6d50:	374fc9b5 	tbnz	w21, #9, 6684 <__vsnprintf+0x2c0>
    6d54:	372fc995 	tbnz	w21, #5, 6684 <__vsnprintf+0x2c0>
    6d58:	3727c975 	tbnz	w21, #4, 6684 <__vsnprintf+0x2c0>
    6d5c:	36300295 	tbz	w21, #6, 6dac <__vsnprintf+0x9e8>
    6d60:	37f801a0 	tbnz	w0, #31, 6d94 <__vsnprintf+0x9d0>
    6d64:	91002e61 	add	x1, x19, #0xb
    6d68:	2a0003f4 	mov	w20, w0
    6d6c:	aa1303e0 	mov	x0, x19
    6d70:	927df033 	and	x19, x1, #0xfffffffffffffff8
    6d74:	79400005 	ldrh	w5, [x0]
    6d78:	17fffe49 	b	669c <__vsnprintf+0x2d8>
    6d7c:	11002014 	add	w20, w0, #0x8
    6d80:	8b20c380 	add	x0, x28, w0, sxtw
    6d84:	7100029f 	cmp	w20, #0x0
    6d88:	54ffc88d 	b.le	6698 <__vsnprintf+0x2d4>
    6d8c:	91003e61 	add	x1, x19, #0xf
    6d90:	17fffe40 	b	6690 <__vsnprintf+0x2cc>
    6d94:	11002014 	add	w20, w0, #0x8
    6d98:	8b20c380 	add	x0, x28, w0, sxtw
    6d9c:	7100029f 	cmp	w20, #0x0
    6da0:	54fffead 	b.le	6d74 <__vsnprintf+0x9b0>
    6da4:	91002e61 	add	x1, x19, #0xb
    6da8:	17fffff1 	b	6d6c <__vsnprintf+0x9a8>
    6dac:	37f800e0 	tbnz	w0, #31, 6dc8 <__vsnprintf+0xa04>
    6db0:	91002e61 	add	x1, x19, #0xb
    6db4:	2a0003f4 	mov	w20, w0
    6db8:	aa1303e0 	mov	x0, x19
    6dbc:	927df033 	and	x19, x1, #0xfffffffffffffff8
    6dc0:	b9400005 	ldr	w5, [x0]
    6dc4:	17fffe36 	b	669c <__vsnprintf+0x2d8>
    6dc8:	11002014 	add	w20, w0, #0x8
    6dcc:	8b20c380 	add	x0, x28, w0, sxtw
    6dd0:	7100029f 	cmp	w20, #0x0
    6dd4:	54ffff6d 	b.le	6dc0 <__vsnprintf+0x9fc>
    6dd8:	91002e61 	add	x1, x19, #0xb
    6ddc:	17fffff7 	b	6db8 <__vsnprintf+0x9f4>
/home/lagadanu/Desktop/qemu/optee_os/lib/libutils/ext/snprintk.c:503
    6de0:	91009700 	add	x0, x24, #0x25
/home/lagadanu/Desktop/qemu/optee_os/lib/libutils/ext/snprintk.c:517
    6de4:	d2800146 	mov	x6, #0xa                   	// #10
/home/lagadanu/Desktop/qemu/optee_os/lib/libutils/ext/snprintk.c:516
    6de8:	f10024bf 	cmp	x5, #0x9
    6dec:	d1000403 	sub	x3, x0, #0x1
    6df0:	540000c8 	b.hi	6e08 <__vsnprintf+0xa44>
/home/lagadanu/Desktop/qemu/optee_os/lib/libutils/ext/snprintk.c:520
    6df4:	1100c0a2 	add	w2, w5, #0x30
    6df8:	381ff002 	sturb	w2, [x0,#-1]
    6dfc:	17fffea7 	b	6898 <__vsnprintf+0x4d4>
/home/lagadanu/Desktop/qemu/optee_os/lib/libutils/ext/snprintk.c:508
    6e00:	aa0303e0 	mov	x0, x3
    6e04:	17fffe98 	b	6864 <__vsnprintf+0x4a0>
/home/lagadanu/Desktop/qemu/optee_os/lib/libutils/ext/snprintk.c:517
    6e08:	aa0303e0 	mov	x0, x3
    6e0c:	9ac608a3 	udiv	x3, x5, x6
    6e10:	9b069462 	msub	x2, x3, x6, x5
/home/lagadanu/Desktop/qemu/optee_os/lib/libutils/ext/snprintk.c:518
    6e14:	aa0303e5 	mov	x5, x3
/home/lagadanu/Desktop/qemu/optee_os/lib/libutils/ext/snprintk.c:517
    6e18:	1100c042 	add	w2, w2, #0x30
    6e1c:	39000002 	strb	w2, [x0]
    6e20:	17fffff2 	b	6de8 <__vsnprintf+0xa24>
/home/lagadanu/Desktop/qemu/optee_os/lib/libutils/ext/snprintk.c:503
    6e24:	91009703 	add	x3, x24, #0x25
/home/lagadanu/Desktop/qemu/optee_os/lib/libutils/ext/snprintk.c:525
    6e28:	92400ca0 	and	x0, x5, #0xf
/home/lagadanu/Desktop/qemu/optee_os/lib/libutils/ext/snprintk.c:526
    6e2c:	d344fca5 	lsr	x5, x5, #4
/home/lagadanu/Desktop/qemu/optee_os/lib/libutils/ext/snprintk.c:525
    6e30:	38606ae0 	ldrb	w0, [x23,x0]
    6e34:	381ffc60 	strb	w0, [x3,#-1]!
/home/lagadanu/Desktop/qemu/optee_os/lib/libutils/ext/snprintk.c:527
    6e38:	b5ffff85 	cbnz	x5, 6e28 <__vsnprintf+0xa64>
    6e3c:	17fffe97 	b	6898 <__vsnprintf+0x4d4>
/home/lagadanu/Desktop/qemu/optee_os/lib/libutils/ext/snprintk.c:569
    6e40:	110008c2 	add	w2, w6, #0x2
    6e44:	f27f02bf 	tst	x21, #0x2
    6e48:	1a861046 	csel	w6, w2, w6, ne
    6e4c:	17ffff43 	b	6b58 <__vsnprintf+0x794>
/home/lagadanu/Desktop/qemu/optee_os/lib/libutils/ext/snprintk.c:578
    6e50:	b40000b6 	cbz	x22, 6e64 <__vsnprintf+0xaa0>
    6e54:	eb16035f 	cmp	x26, x22
    6e58:	54000069 	b.ls	6e64 <__vsnprintf+0xaa0>
    6e5c:	390002c7 	strb	w7, [x22]
    6e60:	910006d6 	add	x22, x22, #0x1
    6e64:	510004a5 	sub	w5, w5, #0x1
    6e68:	17ffff44 	b	6b78 <__vsnprintf+0x7b4>
/home/lagadanu/Desktop/qemu/optee_os/lib/libutils/ext/snprintk.c:583
    6e6c:	eb16035f 	cmp	x26, x22
    6e70:	54ffe8e9 	b.ls	6b8c <__vsnprintf+0x7c8>
    6e74:	390002c1 	strb	w1, [x22]
    6e78:	910006d6 	add	x22, x22, #0x1
    6e7c:	17ffff44 	b	6b8c <__vsnprintf+0x7c8>
/home/lagadanu/Desktop/qemu/optee_os/lib/libutils/ext/snprintk.c:584
    6e80:	360fe875 	tbz	w21, #1, 6b8c <__vsnprintf+0x7c8>
/home/lagadanu/Desktop/qemu/optee_os/lib/libutils/ext/snprintk.c:585
    6e84:	b4ffe836 	cbz	x22, 6b88 <__vsnprintf+0x7c4>
    6e88:	eb16035f 	cmp	x26, x22
    6e8c:	54ffe809 	b.ls	6b8c <__vsnprintf+0x7c8>
    6e90:	52800601 	mov	w1, #0x30                  	// #48
    6e94:	390002c1 	strb	w1, [x22]
/home/lagadanu/Desktop/qemu/optee_os/lib/libutils/ext/snprintk.c:586
    6e98:	b10006c1 	adds	x1, x22, #0x1
    6e9c:	54ffe760 	b.eq	6b88 <__vsnprintf+0x7c4>
    6ea0:	eb01035f 	cmp	x26, x1
    6ea4:	54000089 	b.ls	6eb4 <__vsnprintf+0xaf0>
    6ea8:	390006c8 	strb	w8, [x22,#1]
    6eac:	91000ad6 	add	x22, x22, #0x2
    6eb0:	17ffff37 	b	6b8c <__vsnprintf+0x7c8>
    6eb4:	aa0103f6 	mov	x22, x1
    6eb8:	17ffff35 	b	6b8c <__vsnprintf+0x7c8>
/home/lagadanu/Desktop/qemu/optee_os/lib/libutils/ext/snprintk.c:593
    6ebc:	b40000b6 	cbz	x22, 6ed0 <__vsnprintf+0xb0c>
    6ec0:	eb16035f 	cmp	x26, x22
    6ec4:	54000069 	b.ls	6ed0 <__vsnprintf+0xb0c>
    6ec8:	390002c2 	strb	w2, [x22]
    6ecc:	910006d6 	add	x22, x22, #0x1
    6ed0:	51000421 	sub	w1, w1, #0x1
    6ed4:	17ffff32 	b	6b9c <__vsnprintf+0x7d8>
/home/lagadanu/Desktop/qemu/optee_os/lib/libutils/ext/snprintk.c:599
    6ed8:	b40000b6 	cbz	x22, 6eec <__vsnprintf+0xb28>
    6edc:	eb16035f 	cmp	x26, x22
    6ee0:	54000069 	b.ls	6eec <__vsnprintf+0xb28>
    6ee4:	390002c1 	strb	w1, [x22]
    6ee8:	910006d6 	add	x22, x22, #0x1
    6eec:	51000400 	sub	w0, w0, #0x1
    6ef0:	17ffff2f 	b	6bac <__vsnprintf+0x7e8>
/home/lagadanu/Desktop/qemu/optee_os/lib/libutils/ext/snprintk.c:603
    6ef4:	b40000d6 	cbz	x22, 6f0c <__vsnprintf+0xb48>
    6ef8:	eb16035f 	cmp	x26, x22
    6efc:	54000089 	b.ls	6f0c <__vsnprintf+0xb48>
    6f00:	39400060 	ldrb	w0, [x3]
    6f04:	910006d6 	add	x22, x22, #0x1
    6f08:	381ff2c0 	sturb	w0, [x22,#-1]
/home/lagadanu/Desktop/qemu/optee_os/lib/libutils/ext/snprintk.c:602
    6f0c:	91000463 	add	x3, x3, #0x1
    6f10:	17ffff2a 	b	6bb8 <__vsnprintf+0x7f4>
__vsnprintf():
/home/lagadanu/Desktop/qemu/optee_os/lib/libutils/ext/snprintk.c:143
    6f14:	f94047a0 	ldr	x0, [x29,#136]
    6f18:	f100001f 	cmp	x0, #0x0
    6f1c:	f94043a0 	ldr	x0, [x29,#128]
    6f20:	fa401804 	ccmp	x0, #0x0, #0x4, ne
    6f24:	540000c0 	b.eq	6f3c <__vsnprintf+0xb78>
/home/lagadanu/Desktop/qemu/optee_os/lib/libutils/ext/snprintk.c:145
    6f28:	f94043a1 	ldr	x1, [x29,#128]
    6f2c:	93407f60 	sxtw	x0, w27
    6f30:	eb00003f 	cmp	x1, x0
    6f34:	54000168 	b.hi	6f60 <__vsnprintf+0xb9c>
/home/lagadanu/Desktop/qemu/optee_os/lib/libutils/ext/snprintk.c:146
    6f38:	381ff35f 	sturb	wzr, [x26,#-1]
/home/lagadanu/Desktop/qemu/optee_os/lib/libutils/ext/snprintk.c:151
    6f3c:	2a1b03e0 	mov	w0, w27
    6f40:	a94453f3 	ldp	x19, x20, [sp,#64]
    6f44:	a9455bf5 	ldp	x21, x22, [sp,#80]
    6f48:	a94663f7 	ldp	x23, x24, [sp,#96]
    6f4c:	a9476bf9 	ldp	x25, x26, [sp,#112]
    6f50:	a94873fb 	ldp	x27, x28, [sp,#128]
    6f54:	a9437bfd 	ldp	x29, x30, [sp,#48]
    6f58:	9103c3ff 	add	sp, sp, #0xf0
    6f5c:	d65f03c0 	ret
/home/lagadanu/Desktop/qemu/optee_os/lib/libutils/ext/snprintk.c:148
    6f60:	f94047a1 	ldr	x1, [x29,#136]
    6f64:	3820683f 	strb	wzr, [x1,x0]
/home/lagadanu/Desktop/qemu/optee_os/lib/libutils/ext/snprintk.c:150
    6f68:	17fffff5 	b	6f3c <__vsnprintf+0xb78>

0000000000006f6c <vsnprintk>:
vsnprintk():
/home/lagadanu/Desktop/qemu/optee_os/lib/libutils/ext/snprintk.c:129
    6f6c:	a9bb7bfd 	stp	x29, x30, [sp,#-80]!
    6f70:	910003fd 	mov	x29, sp
    6f74:	a90153f3 	stp	x19, x20, [sp,#16]
    6f78:	aa0003f3 	mov	x19, x0
    6f7c:	f90013f5 	str	x21, [sp,#32]
    6f80:	aa0103f4 	mov	x20, x1
    6f84:	aa0203f5 	mov	x21, x2
/home/lagadanu/Desktop/qemu/optee_os/lib/libutils/ext/snprintk.c:130
    6f88:	aa0303e1 	mov	x1, x3
    6f8c:	9100c3a0 	add	x0, x29, #0x30
    6f90:	d2800402 	mov	x2, #0x20                  	// #32
    6f94:	97fffce3 	bl	6320 <memcpy>
    6f98:	aa0003e3 	mov	x3, x0
    6f9c:	aa1503e2 	mov	x2, x21
    6fa0:	aa1403e1 	mov	x1, x20
    6fa4:	52800024 	mov	w4, #0x1                   	// #1
    6fa8:	aa1303e0 	mov	x0, x19
    6fac:	97fffd06 	bl	63c4 <__vsnprintf>
/home/lagadanu/Desktop/qemu/optee_os/lib/libutils/ext/snprintk.c:131
    6fb0:	f94013f5 	ldr	x21, [sp,#32]
    6fb4:	a94153f3 	ldp	x19, x20, [sp,#16]
    6fb8:	a8c57bfd 	ldp	x29, x30, [sp],#80
    6fbc:	d65f03c0 	ret

0000000000006fc0 <snprintk>:
snprintk():
/home/lagadanu/Desktop/qemu/optee_os/lib/libutils/ext/snprintk.c:112
    6fc0:	a9b07bfd 	stp	x29, x30, [sp,#-256]!
    6fc4:	910003fd 	mov	x29, sp
    6fc8:	a90d93a3 	stp	x3, x4, [x29,#216]
/home/lagadanu/Desktop/qemu/optee_os/lib/libutils/ext/snprintk.c:116
    6fcc:	910403a3 	add	x3, x29, #0x100
    6fd0:	a9030fa3 	stp	x3, x3, [x29,#48]
    6fd4:	910343a3 	add	x3, x29, #0xd0
    6fd8:	f90023a3 	str	x3, [x29,#64]
    6fdc:	128004e3 	mov	w3, #0xffffffd8            	// #-40
    6fe0:	b9004ba3 	str	w3, [x29,#72]
    6fe4:	12800fe3 	mov	w3, #0xffffff80            	// #-128
    6fe8:	b9004fa3 	str	w3, [x29,#76]
/home/lagadanu/Desktop/qemu/optee_os/lib/libutils/ext/snprintk.c:117
    6fec:	910043a3 	add	x3, x29, #0x10
/home/lagadanu/Desktop/qemu/optee_os/lib/libutils/ext/snprintk.c:112
    6ff0:	a90e9ba5 	stp	x5, x6, [x29,#232]
/home/lagadanu/Desktop/qemu/optee_os/lib/libutils/ext/snprintk.c:117
    6ff4:	a94317a4 	ldp	x4, x5, [x29,#48]
    6ff8:	a90117a4 	stp	x4, x5, [x29,#16]
    6ffc:	a94417a4 	ldp	x4, x5, [x29,#64]
/home/lagadanu/Desktop/qemu/optee_os/lib/libutils/ext/snprintk.c:112
    7000:	3d8017a0 	str	q0, [x29,#80]
    7004:	3d801ba1 	str	q1, [x29,#96]
    7008:	3d801fa2 	str	q2, [x29,#112]
    700c:	3d8023a3 	str	q3, [x29,#128]
    7010:	3d8027a4 	str	q4, [x29,#144]
    7014:	3d802ba5 	str	q5, [x29,#160]
    7018:	3d802fa6 	str	q6, [x29,#176]
    701c:	3d8033a7 	str	q7, [x29,#192]
    7020:	f9007fa7 	str	x7, [x29,#248]
/home/lagadanu/Desktop/qemu/optee_os/lib/libutils/ext/snprintk.c:117
    7024:	a90217a4 	stp	x4, x5, [x29,#32]
    7028:	97ffffd1 	bl	6f6c <vsnprintk>
/home/lagadanu/Desktop/qemu/optee_os/lib/libutils/ext/snprintk.c:121
    702c:	a8d07bfd 	ldp	x29, x30, [sp],#256
    7030:	d65f03c0 	ret

0000000000007034 <trace_set_level>:
trace_set_level():
/home/lagadanu/Desktop/qemu/optee_os/lib/libutils/ext/trace.c:26
    7034:	51000401 	sub	w1, w0, #0x1
    7038:	71000c3f 	cmp	w1, #0x3
    703c:	b0000001 	adrp	x1, 8000 <PRIME_TABLE+0xb30>
    7040:	54000088 	b.hi	7050 <trace_set_level+0x1c>
/home/lagadanu/Desktop/qemu/optee_os/lib/libutils/ext/trace.c:29
    7044:	f945a021 	ldr	x1, [x1,#2880]
    7048:	b9000020 	str	w0, [x1]
    704c:	d65f03c0 	ret
    7050:	52800080 	mov	w0, #0x4                   	// #4
    7054:	17fffffc 	b	7044 <trace_set_level+0x10>

0000000000007058 <trace_get_level>:
trace_get_level():
/home/lagadanu/Desktop/qemu/optee_os/lib/libutils/ext/trace.c:35
    7058:	b0000000 	adrp	x0, 8000 <PRIME_TABLE+0xb30>
    705c:	f945a000 	ldr	x0, [x0,#2880]
    7060:	b9400000 	ldr	w0, [x0]
    7064:	d65f03c0 	ret

0000000000007068 <trace_printf>:
trace_printf():
/home/lagadanu/Desktop/qemu/optee_os/lib/libutils/ext/trace.c:97
    7068:	d108c3ff 	sub	sp, sp, #0x230
    706c:	a9007bfd 	stp	x29, x30, [sp]
    7070:	910003fd 	mov	x29, sp
    7074:	f9010fa5 	str	x5, [x29,#536]
    7078:	910403a5 	add	x5, x29, #0x100
    707c:	a9046bf9 	stp	x25, x26, [sp,#64]
/home/lagadanu/Desktop/qemu/optee_os/lib/libutils/ext/trace.c:103
    7080:	72001c79 	ands	w25, w3, #0xff
/home/lagadanu/Desktop/qemu/optee_os/lib/libutils/ext/trace.c:97
    7084:	a90153f3 	stp	x19, x20, [sp,#16]
    7088:	a9025bf5 	stp	x21, x22, [sp,#32]
    708c:	a90363f7 	stp	x23, x24, [sp,#48]
    7090:	f90113a6 	str	x6, [x29,#544]
    7094:	f90117a7 	str	x7, [x29,#552]
    7098:	3d8024a0 	str	q0, [x5,#144]
    709c:	3d8028a1 	str	q1, [x5,#160]
    70a0:	3d802ca2 	str	q2, [x5,#176]
    70a4:	3d8030a3 	str	q3, [x5,#192]
    70a8:	3d8034a4 	str	q4, [x5,#208]
    70ac:	3d8038a5 	str	q5, [x5,#224]
    70b0:	3d803ca6 	str	q6, [x5,#240]
    70b4:	910803a5 	add	x5, x29, #0x200
    70b8:	3d8000a7 	str	q7, [x5]
/home/lagadanu/Desktop/qemu/optee_os/lib/libutils/ext/trace.c:103
    70bc:	540008a0 	b.eq	71d0 <trace_printf+0x168>
/home/lagadanu/Desktop/qemu/optee_os/lib/libutils/ext/trace.c:103 (discriminator 1)
    70c0:	b0000003 	adrp	x3, 8000 <PRIME_TABLE+0xb30>
    70c4:	f945a063 	ldr	x3, [x3,#2880]
    70c8:	b9400063 	ldr	w3, [x3]
    70cc:	6b02007f 	cmp	w3, w2
    70d0:	5400072b 	b.lt	71b4 <trace_printf+0x14c>
trace_level_to_string():
/home/lagadanu/Desktop/qemu/optee_os/lib/libutils/ext/trace.c:52
    70d4:	51000443 	sub	w3, w2, #0x1
    70d8:	71000c7f 	cmp	w3, #0x3
/home/lagadanu/Desktop/qemu/optee_os/lib/libutils/ext/trace.c:55
    70dc:	b0000003 	adrp	x3, 8000 <PRIME_TABLE+0xb30>
/home/lagadanu/Desktop/qemu/optee_os/lib/libutils/ext/trace.c:52
    70e0:	1a9f9045 	csel	w5, w2, wzr, ls
/home/lagadanu/Desktop/qemu/optee_os/lib/libutils/ext/trace.c:55
    70e4:	910c2063 	add	x3, x3, #0x308
    70e8:	3865c863 	ldrb	w3, [x3,w5,sxtw]
trace_printf():
/home/lagadanu/Desktop/qemu/optee_os/lib/libutils/ext/trace.c:107
    70ec:	910243b4 	add	x20, x29, #0x90
    70f0:	2a0203f3 	mov	w19, w2
    70f4:	2a0103f8 	mov	w24, w1
    70f8:	aa0003f6 	mov	x22, x0
    70fc:	b0000002 	adrp	x2, 8000 <PRIME_TABLE+0xb30>
    7100:	aa0403f7 	mov	x23, x4
    7104:	91231042 	add	x2, x2, #0x8c4
    7108:	d2802001 	mov	x1, #0x100                 	// #256
    710c:	aa1403e0 	mov	x0, x20
    7110:	97ffffac 	bl	6fc0 <snprintk>
/home/lagadanu/Desktop/qemu/optee_os/lib/libutils/ext/trace.c:109
    7114:	37f80500 	tbnz	w0, #31, 71b4 <trace_printf+0x14c>
/home/lagadanu/Desktop/qemu/optee_os/lib/libutils/ext/trace.c:114
    7118:	b0000003 	adrp	x3, 8000 <PRIME_TABLE+0xb30>
/home/lagadanu/Desktop/qemu/optee_os/lib/libutils/ext/trace.c:111
    711c:	93407c15 	sxtw	x21, w0
/home/lagadanu/Desktop/qemu/optee_os/lib/libutils/ext/trace.c:114
    7120:	d280201a 	mov	x26, #0x100                 	// #256
    7124:	b0000002 	adrp	x2, 8000 <PRIME_TABLE+0xb30>
    7128:	f945a463 	ldr	x3, [x3,#2888]
    712c:	91232042 	add	x2, x2, #0x8c8
    7130:	cb150341 	sub	x1, x26, x21
    7134:	8b150280 	add	x0, x20, x21
    7138:	97ffffa2 	bl	6fc0 <snprintk>
/home/lagadanu/Desktop/qemu/optee_os/lib/libutils/ext/trace.c:116
    713c:	37f803c0 	tbnz	w0, #31, 71b4 <trace_printf+0x14c>
/home/lagadanu/Desktop/qemu/optee_os/lib/libutils/ext/trace.c:118
    7140:	8b20c2b5 	add	x21, x21, w0, sxtw
/home/lagadanu/Desktop/qemu/optee_os/lib/libutils/ext/trace.c:120
    7144:	340005d9 	cbz	w25, 71fc <trace_printf+0x194>
/home/lagadanu/Desktop/qemu/optee_os/lib/libutils/ext/trace.c:120 (discriminator 1)
    7148:	52800342 	mov	w2, #0x1a                  	// #26
    714c:	1ad32440 	lsr	w0, w2, w19
    7150:	36000560 	tbz	w0, #0, 71fc <trace_printf+0x194>
/home/lagadanu/Desktop/qemu/optee_os/lib/libutils/ext/trace.c:122
    7154:	8b150299 	add	x25, x20, x21
    7158:	cb15035a 	sub	x26, x26, x21
print_thread_id():
/home/lagadanu/Desktop/qemu/optee_os/lib/libutils/ext/trace.c:65
    715c:	97ffe8c8 	bl	147c <trace_ext_get_thread_id>
/home/lagadanu/Desktop/qemu/optee_os/lib/libutils/ext/trace.c:67
    7160:	37f803c0 	tbnz	w0, #31, 71d8 <trace_printf+0x170>
/home/lagadanu/Desktop/qemu/optee_os/lib/libutils/ext/trace.c:68
    7164:	2a0003e4 	mov	w4, w0
    7168:	b0000002 	adrp	x2, 8000 <PRIME_TABLE+0xb30>
    716c:	52800023 	mov	w3, #0x1                   	// #1
    7170:	91233042 	add	x2, x2, #0x8cc
    7174:	aa1a03e1 	mov	x1, x26
    7178:	aa1903e0 	mov	x0, x25
    717c:	97ffff91 	bl	6fc0 <snprintk>
trace_printf():
/home/lagadanu/Desktop/qemu/optee_os/lib/libutils/ext/trace.c:129
    7180:	37f801a0 	tbnz	w0, #31, 71b4 <trace_printf+0x14c>
/home/lagadanu/Desktop/qemu/optee_os/lib/libutils/ext/trace.c:131
    7184:	8b20c2b3 	add	x19, x21, w0, sxtw
/home/lagadanu/Desktop/qemu/optee_os/lib/libutils/ext/trace.c:133
    7188:	b4000476 	cbz	x22, 7214 <trace_printf+0x1ac>
/home/lagadanu/Desktop/qemu/optee_os/lib/libutils/ext/trace.c:134
    718c:	8b130280 	add	x0, x20, x19
    7190:	2a1803e4 	mov	w4, w24
    7194:	aa1603e3 	mov	x3, x22
    7198:	b0000002 	adrp	x2, 8000 <PRIME_TABLE+0xb30>
    719c:	d2802001 	mov	x1, #0x100                 	// #256
    71a0:	91235c42 	add	x2, x2, #0x8d7
    71a4:	cb130021 	sub	x1, x1, x19
    71a8:	97ffff86 	bl	6fc0 <snprintk>
/home/lagadanu/Desktop/qemu/optee_os/lib/libutils/ext/trace.c:138
    71ac:	8b20c273 	add	x19, x19, w0, sxtw
/home/lagadanu/Desktop/qemu/optee_os/lib/libutils/ext/trace.c:136
    71b0:	36f80320 	tbz	w0, #31, 7214 <trace_printf+0x1ac>
/home/lagadanu/Desktop/qemu/optee_os/lib/libutils/ext/trace.c:164
    71b4:	a94153f3 	ldp	x19, x20, [sp,#16]
    71b8:	a9425bf5 	ldp	x21, x22, [sp,#32]
    71bc:	a94363f7 	ldp	x23, x24, [sp,#48]
    71c0:	a9446bf9 	ldp	x25, x26, [sp,#64]
    71c4:	a9407bfd 	ldp	x29, x30, [sp]
    71c8:	9108c3ff 	add	sp, sp, #0x230
    71cc:	d65f03c0 	ret
trace_level_to_string():
/home/lagadanu/Desktop/qemu/optee_os/lib/libutils/ext/trace.c:50
    71d0:	528009a3 	mov	w3, #0x4d                  	// #77
    71d4:	17ffffc6 	b	70ec <trace_printf+0x84>
print_thread_id():
/home/lagadanu/Desktop/qemu/optee_os/lib/libutils/ext/trace.c:70
    71d8:	b0000004 	adrp	x4, 8000 <PRIME_TABLE+0xb30>
    71dc:	52800023 	mov	w3, #0x1                   	// #1
    71e0:	910fb084 	add	x4, x4, #0x3ec
    71e4:	b0000002 	adrp	x2, 8000 <PRIME_TABLE+0xb30>
    71e8:	aa1a03e1 	mov	x1, x26
    71ec:	91234842 	add	x2, x2, #0x8d2
    71f0:	aa1903e0 	mov	x0, x25
    71f4:	97ffff73 	bl	6fc0 <snprintk>
    71f8:	17ffffe2 	b	7180 <trace_printf+0x118>
trace_printf():
/home/lagadanu/Desktop/qemu/optee_os/lib/libutils/ext/trace.c:142
    71fc:	f103fabf 	cmp	x21, #0xfe
    7200:	54fffda8 	b.hi	71b4 <trace_printf+0x14c>
/home/lagadanu/Desktop/qemu/optee_os/lib/libutils/ext/trace.c:144
    7204:	910006b3 	add	x19, x21, #0x1
    7208:	52800400 	mov	w0, #0x20                  	// #32
    720c:	38356a80 	strb	w0, [x20,x21]
/home/lagadanu/Desktop/qemu/optee_os/lib/libutils/ext/trace.c:145
    7210:	38336a9f 	strb	wzr, [x20,x19]
/home/lagadanu/Desktop/qemu/optee_os/lib/libutils/ext/trace.c:148
    7214:	9108c3a0 	add	x0, x29, #0x230
    7218:	a90703a0 	stp	x0, x0, [x29,#112]
    721c:	910843a0 	add	x0, x29, #0x210
    7220:	f90043a0 	str	x0, [x29,#128]
    7224:	128002e0 	mov	w0, #0xffffffe8            	// #-24
    7228:	b9008ba0 	str	w0, [x29,#136]
    722c:	12800fe0 	mov	w0, #0xffffff80            	// #-128
    7230:	b9008fa0 	str	w0, [x29,#140]
/home/lagadanu/Desktop/qemu/optee_os/lib/libutils/ext/trace.c:149
    7234:	a94707a0 	ldp	x0, x1, [x29,#112]
    7238:	a90507a0 	stp	x0, x1, [x29,#80]
    723c:	a94807a0 	ldp	x0, x1, [x29,#128]
    7240:	a90607a0 	stp	x0, x1, [x29,#96]
    7244:	d2802001 	mov	x1, #0x100                 	// #256
    7248:	cb130021 	sub	x1, x1, x19
    724c:	8b130280 	add	x0, x20, x19
    7250:	910143a3 	add	x3, x29, #0x50
    7254:	aa1703e2 	mov	x2, x23
    7258:	97ffff45 	bl	6f6c <vsnprintk>
/home/lagadanu/Desktop/qemu/optee_os/lib/libutils/ext/trace.c:152
    725c:	7100001f 	cmp	w0, #0x0
    7260:	8b20c261 	add	x1, x19, w0, sxtw
    7264:	9a93c033 	csel	x19, x1, x19, gt
    7268:	d2801fc0 	mov	x0, #0xfe                  	// #254
    726c:	f103fa7f 	cmp	x19, #0xfe
    7270:	9a809273 	csel	x19, x19, x0, ls
/home/lagadanu/Desktop/qemu/optee_os/lib/libutils/ext/trace.c:157
    7274:	52800140 	mov	w0, #0xa                   	// #10
    7278:	38336a80 	strb	w0, [x20,x19]
/home/lagadanu/Desktop/qemu/optee_os/lib/libutils/ext/trace.c:158
    727c:	b4000093 	cbz	x19, 728c <trace_printf+0x224>
/home/lagadanu/Desktop/qemu/optee_os/lib/libutils/ext/trace.c:158 (discriminator 1)
    7280:	38736a80 	ldrb	w0, [x20,x19]
    7284:	7100281f 	cmp	w0, #0xa
    7288:	540000c0 	b.eq	72a0 <trace_printf+0x238>
/home/lagadanu/Desktop/qemu/optee_os/lib/libutils/ext/trace.c:161
    728c:	91024ba0 	add	x0, x29, #0x92
    7290:	3833681f 	strb	wzr, [x0,x19]
/home/lagadanu/Desktop/qemu/optee_os/lib/libutils/ext/trace.c:163
    7294:	aa1403e0 	mov	x0, x20
    7298:	97ffe86f 	bl	1454 <trace_ext_puts>
    729c:	17ffffc6 	b	71b4 <trace_printf+0x14c>
/home/lagadanu/Desktop/qemu/optee_os/lib/libutils/ext/trace.c:159
    72a0:	d1000673 	sub	x19, x19, #0x1
    72a4:	17fffff6 	b	727c <trace_printf+0x214>

00000000000072a8 <dhex_dump>:
dhex_dump():
/home/lagadanu/Desktop/qemu/optee_os/lib/libutils/ext/trace.c:275
    72a8:	d65f03c0 	ret

00000000000072ac <mempool_alloc_pool>:
mempool_alloc_pool():
/home/lagadanu/Desktop/qemu/optee_os/lib/libutils/ext/mempool.c:115
    72ac:	a9be7bfd 	stp	x29, x30, [sp,#-32]!
    72b0:	910003fd 	mov	x29, sp
    72b4:	a90153f3 	stp	x19, x20, [sp,#16]
    72b8:	aa0003f3 	mov	x19, x0
    72bc:	aa0103f4 	mov	x20, x1
/home/lagadanu/Desktop/qemu/optee_os/lib/libutils/ext/mempool.c:116
    72c0:	d2800020 	mov	x0, #0x1                   	// #1
    72c4:	d2800301 	mov	x1, #0x18                  	// #24
    72c8:	97fff9f2 	bl	5a90 <calloc>
/home/lagadanu/Desktop/qemu/optee_os/lib/libutils/ext/mempool.c:119
    72cc:	f2400a7f 	tst	x19, #0x7
    72d0:	54000140 	b.eq	72f8 <mempool_alloc_pool+0x4c>
/home/lagadanu/Desktop/qemu/optee_os/lib/libutils/ext/mempool.c:119 (discriminator 1)
    72d4:	b0000003 	adrp	x3, 8000 <PRIME_TABLE+0xb30>
    72d8:	b0000001 	adrp	x1, 8000 <PRIME_TABLE+0xb30>
    72dc:	910c4063 	add	x3, x3, #0x310
    72e0:	91237821 	add	x1, x1, #0x8de
    72e4:	b0000000 	adrp	x0, 8000 <PRIME_TABLE+0xb30>
    72e8:	9123e400 	add	x0, x0, #0x8f9
    72ec:	52800ee2 	mov	w2, #0x77                  	// #119
    72f0:	94000044 	bl	7400 <_assert_log>
    72f4:	94000054 	bl	7444 <_assert_break>
/home/lagadanu/Desktop/qemu/optee_os/lib/libutils/ext/mempool.c:121
    72f8:	b4000080 	cbz	x0, 7308 <mempool_alloc_pool+0x5c>
/home/lagadanu/Desktop/qemu/optee_os/lib/libutils/ext/mempool.c:124
    72fc:	92800001 	mov	x1, #0xffffffffffffffff    	// #-1
/home/lagadanu/Desktop/qemu/optee_os/lib/libutils/ext/mempool.c:123
    7300:	f9000813 	str	x19, [x0,#16]
/home/lagadanu/Desktop/qemu/optee_os/lib/libutils/ext/mempool.c:124
    7304:	a9000414 	stp	x20, x1, [x0]
/home/lagadanu/Desktop/qemu/optee_os/lib/libutils/ext/mempool.c:134
    7308:	a94153f3 	ldp	x19, x20, [sp,#16]
    730c:	a8c27bfd 	ldp	x29, x30, [sp],#32
    7310:	d65f03c0 	ret

0000000000007314 <mempool_alloc>:
mempool_alloc():
/home/lagadanu/Desktop/qemu/optee_os/lib/libutils/ext/mempool.c:144
    7314:	a9401403 	ldp	x3, x5, [x0]
/home/lagadanu/Desktop/qemu/optee_os/lib/libutils/ext/mempool.c:137
    7318:	aa0003e4 	mov	x4, x0
/home/lagadanu/Desktop/qemu/optee_os/lib/libutils/ext/mempool.c:144
    731c:	b7f80165 	tbnz	x5, #63, 7348 <mempool_alloc+0x34>
/home/lagadanu/Desktop/qemu/optee_os/lib/libutils/ext/mempool.c:147
    7320:	f9400800 	ldr	x0, [x0,#16]
/home/lagadanu/Desktop/qemu/optee_os/lib/libutils/ext/mempool.c:151
    7324:	91001ca2 	add	x2, x5, #0x7
/home/lagadanu/Desktop/qemu/optee_os/lib/libutils/ext/mempool.c:147
    7328:	8b0000a6 	add	x6, x5, x0
/home/lagadanu/Desktop/qemu/optee_os/lib/libutils/ext/mempool.c:151
    732c:	f86068a0 	ldr	x0, [x5,x0]
    7330:	8b000042 	add	x2, x2, x0
/home/lagadanu/Desktop/qemu/optee_os/lib/libutils/ext/mempool.c:173
    7334:	d2800000 	mov	x0, #0x0                   	// #0
/home/lagadanu/Desktop/qemu/optee_os/lib/libutils/ext/mempool.c:151
    7338:	927df042 	and	x2, x2, #0xfffffffffffffff8
/home/lagadanu/Desktop/qemu/optee_os/lib/libutils/ext/mempool.c:152
    733c:	eb03005f 	cmp	x2, x3
    7340:	54000089 	b.ls	7350 <mempool_alloc+0x3c>
    7344:	d65f03c0 	ret
/home/lagadanu/Desktop/qemu/optee_os/lib/libutils/ext/mempool.c:140
    7348:	d2800006 	mov	x6, #0x0                   	// #0
/home/lagadanu/Desktop/qemu/optee_os/lib/libutils/ext/mempool.c:145
    734c:	d2800002 	mov	x2, #0x0                   	// #0
/home/lagadanu/Desktop/qemu/optee_os/lib/libutils/ext/mempool.c:157
    7350:	91007c21 	add	x1, x1, #0x1f
/home/lagadanu/Desktop/qemu/optee_os/lib/libutils/ext/mempool.c:173
    7354:	d2800000 	mov	x0, #0x0                   	// #0
/home/lagadanu/Desktop/qemu/optee_os/lib/libutils/ext/mempool.c:157
    7358:	927df021 	and	x1, x1, #0xfffffffffffffff8
/home/lagadanu/Desktop/qemu/optee_os/lib/libutils/ext/mempool.c:158
    735c:	8b010047 	add	x7, x2, x1
    7360:	eb0300ff 	cmp	x7, x3
    7364:	54000168 	b.hi	7390 <mempool_alloc+0x7c>
/home/lagadanu/Desktop/qemu/optee_os/lib/libutils/ext/mempool.c:161
    7368:	f9400880 	ldr	x0, [x4,#16]
    736c:	8b000043 	add	x3, x2, x0
/home/lagadanu/Desktop/qemu/optee_os/lib/libutils/ext/mempool.c:162
    7370:	f8206841 	str	x1, [x2,x0]
/home/lagadanu/Desktop/qemu/optee_os/lib/libutils/ext/mempool.c:163
    7374:	f9000465 	str	x5, [x3,#8]
/home/lagadanu/Desktop/qemu/optee_os/lib/libutils/ext/mempool.c:164
    7378:	b4000046 	cbz	x6, 7380 <mempool_alloc+0x6c>
/home/lagadanu/Desktop/qemu/optee_os/lib/libutils/ext/mempool.c:165
    737c:	f90008c2 	str	x2, [x6,#16]
/home/lagadanu/Desktop/qemu/optee_os/lib/libutils/ext/mempool.c:166
    7380:	92800000 	mov	x0, #0xffffffffffffffff    	// #-1
    7384:	f9000860 	str	x0, [x3,#16]
/home/lagadanu/Desktop/qemu/optee_os/lib/libutils/ext/mempool.c:169
    7388:	91006060 	add	x0, x3, #0x18
/home/lagadanu/Desktop/qemu/optee_os/lib/libutils/ext/mempool.c:167
    738c:	f9000482 	str	x2, [x4,#8]
/home/lagadanu/Desktop/qemu/optee_os/lib/libutils/ext/mempool.c:174
    7390:	d65f03c0 	ret

0000000000007394 <mempool_free>:
mempool_free():
/home/lagadanu/Desktop/qemu/optee_os/lib/libutils/ext/mempool.c:183
    7394:	b40001e1 	cbz	x1, 73d0 <mempool_free+0x3c>
/home/lagadanu/Desktop/qemu/optee_os/lib/libutils/ext/mempool.c:188
    7398:	f85f0022 	ldur	x2, [x1,#-16]
/home/lagadanu/Desktop/qemu/optee_os/lib/libutils/ext/mempool.c:181
    739c:	92800003 	mov	x3, #0xffffffffffffffff    	// #-1
/home/lagadanu/Desktop/qemu/optee_os/lib/libutils/ext/mempool.c:188
    73a0:	b7f800c2 	tbnz	x2, #63, 73b8 <mempool_free+0x24>
/home/lagadanu/Desktop/qemu/optee_os/lib/libutils/ext/mempool.c:191
    73a4:	f9400803 	ldr	x3, [x0,#16]
    73a8:	f85f8024 	ldur	x4, [x1,#-8]
    73ac:	8b020063 	add	x3, x3, x2
    73b0:	f9000864 	str	x4, [x3,#16]
    73b4:	aa0203e3 	mov	x3, x2
/home/lagadanu/Desktop/qemu/optee_os/lib/libutils/ext/mempool.c:195
    73b8:	f85f8024 	ldur	x4, [x1,#-8]
    73bc:	b7f80084 	tbnz	x4, #63, 73cc <mempool_free+0x38>
/home/lagadanu/Desktop/qemu/optee_os/lib/libutils/ext/mempool.c:198
    73c0:	a9408403 	ldp	x3, x1, [x0,#8]
    73c4:	8b040021 	add	x1, x1, x4
    73c8:	f9000422 	str	x2, [x1,#8]
/home/lagadanu/Desktop/qemu/optee_os/lib/libutils/ext/mempool.c:202
    73cc:	f9000403 	str	x3, [x0,#8]
    73d0:	d65f03c0 	ret

00000000000073d4 <memchr>:
memchr():
/home/lagadanu/Desktop/qemu/optee_os/lib/libutils/isoc/newlib/memchr.c:109
    73d4:	12001c21 	and	w1, w1, #0xff
    73d8:	8b020002 	add	x2, x0, x2
/home/lagadanu/Desktop/qemu/optee_os/lib/libutils/isoc/newlib/memchr.c:153
    73dc:	eb02001f 	cmp	x0, x2
    73e0:	54000061 	b.ne	73ec <memchr+0x18>
/home/lagadanu/Desktop/qemu/optee_os/lib/libutils/isoc/newlib/memchr.c:159
    73e4:	d2800000 	mov	x0, #0x0                   	// #0
/home/lagadanu/Desktop/qemu/optee_os/lib/libutils/isoc/newlib/memchr.c:160
    73e8:	d65f03c0 	ret
/home/lagadanu/Desktop/qemu/optee_os/lib/libutils/isoc/newlib/memchr.c:154
    73ec:	39400003 	ldrb	w3, [x0]
    73f0:	6b01007f 	cmp	w3, w1
    73f4:	54ffffa0 	b.eq	73e8 <memchr+0x14>
/home/lagadanu/Desktop/qemu/optee_os/lib/libutils/isoc/newlib/memchr.c:156
    73f8:	91000400 	add	x0, x0, #0x1
    73fc:	17fffff8 	b	73dc <memchr+0x8>

0000000000007400 <_assert_log>:
_assert_log():
/home/lagadanu/Desktop/qemu/optee_os/lib/libutee/assert.c:17
    7400:	d10083ff 	sub	sp, sp, #0x20
/home/lagadanu/Desktop/qemu/optee_os/lib/libutee/assert.c:18
    7404:	2a0203e7 	mov	w7, w2
    7408:	aa0103e6 	mov	x6, x1
    740c:	aa0003e5 	mov	x5, x0
    7410:	52800022 	mov	w2, #0x1                   	// #1
    7414:	52800001 	mov	w1, #0x0                   	// #0
/home/lagadanu/Desktop/qemu/optee_os/lib/libutee/assert.c:17
    7418:	a9017bfd 	stp	x29, x30, [sp,#16]
    741c:	910043fd 	add	x29, sp, #0x10
/home/lagadanu/Desktop/qemu/optee_os/lib/libutee/assert.c:18
    7420:	d2800000 	mov	x0, #0x0                   	// #0
    7424:	b0000004 	adrp	x4, 8000 <PRIME_TABLE+0xb30>
    7428:	91247484 	add	x4, x4, #0x91d
    742c:	f90003e3 	str	x3, [sp]
    7430:	52800023 	mov	w3, #0x1                   	// #1
    7434:	97ffff0d 	bl	7068 <trace_printf>
/home/lagadanu/Desktop/qemu/optee_os/lib/libutee/assert.c:20
    7438:	a9417bfd 	ldp	x29, x30, [sp,#16]
    743c:	910083ff 	add	sp, sp, #0x20
    7440:	d65f03c0 	ret

0000000000007444 <_assert_break>:
_assert_break():
/home/lagadanu/Desktop/qemu/optee_os/lib/libutee/assert.c:23
    7444:	a9bf7bfd 	stp	x29, x30, [sp,#-16]!
/home/lagadanu/Desktop/qemu/optee_os/lib/libutee/assert.c:24
    7448:	d2bfffe0 	mov	x0, #0xffff0000            	// #4294901760
/home/lagadanu/Desktop/qemu/optee_os/lib/libutee/assert.c:23
    744c:	910003fd 	mov	x29, sp
/home/lagadanu/Desktop/qemu/optee_os/lib/libutee/assert.c:24
    7450:	97ffe56d 	bl	a04 <utee_panic>
    7454:	14000000 	b	7454 <_assert_break+0x10>
