
out/e6a33ed4-562b-463a-bb7e-ff5e15a493c8.elf:     file format elf64-littleaarch64
out/e6a33ed4-562b-463a-bb7e-ff5e15a493c8.elf
architecture: aarch64, flags 0x00000150:
HAS_SYMS, DYNAMIC, D_PAGED
start address 0x0000000000000020

Program Header:
    LOAD off    0x0000000000010000 vaddr 0x0000000000000000 paddr 0x0000000000000000 align 2**16
         filesz 0x0000000000007458 memsz 0x0000000000007458 flags r-x
    LOAD off    0x0000000000017458 vaddr 0x0000000000007458 paddr 0x0000000000007458 align 2**16
         filesz 0x0000000000001ad4 memsz 0x0000000000001ad4 flags r--
    LOAD off    0x0000000000019000 vaddr 0x0000000000009000 paddr 0x0000000000009000 align 2**16
         filesz 0x00000000000000fc memsz 0x0000000000012b88 flags rw-
 DYNAMIC off    0x0000000000018c50 vaddr 0x0000000000008c50 paddr 0x0000000000008c50 align 2**3
         filesz 0x0000000000000100 memsz 0x0000000000000100 flags rw-

Dynamic Section:
  HASH                 0x0000000000008ee8
  STRTAB               0x0000000000008e70
  SYMTAB               0x0000000000008d50
  STRSZ                0x0000000000000072
  SYMENT               0x0000000000000018
  DEBUG                0x0000000000000000
  RELA                 0x0000000000008948
  RELASZ               0x00000000000002a0
  RELAENT              0x0000000000000018
  FLAGS_1              0x0000000008000000
  RELACOUNT            0x0000000000000013
private flags = 0:

Sections:
Idx Name          Size      VMA               LMA               File off  Algn
  0 .ta_head      00000020  0000000000000000  0000000000000000  00010000  2**3
                  CONTENTS, ALLOC, LOAD, DATA
  1 .text         00007438  0000000000000020  0000000000000020  00010020  2**2
                  CONTENTS, ALLOC, LOAD, READONLY, CODE
  2 .rodata       000014ec  0000000000007458  0000000000007458  00017458  2**3
                  CONTENTS, ALLOC, LOAD, READONLY, DATA
  3 .dynsym       00000120  0000000000008d50  0000000000008d50  00018d50  2**3
                  CONTENTS, ALLOC, LOAD, READONLY, DATA
  4 .rela.dyn     000001c8  0000000000008948  0000000000008948  00018948  2**3
                  CONTENTS, ALLOC, LOAD, READONLY, DATA
  5 .got          00000068  0000000000008b10  0000000000008b10  00018b10  2**3
                  CONTENTS, ALLOC, LOAD, DATA
  6 .rela.got     000000d8  0000000000008b78  0000000000008b78  00018b78  2**3
                  CONTENTS, ALLOC, LOAD, READONLY, DATA
  7 .dynamic      00000100  0000000000008c50  0000000000008c50  00018c50  2**3
                  CONTENTS, ALLOC, LOAD, DATA
  8 .dynstr       00000072  0000000000008e70  0000000000008e70  00018e70  2**0
                  CONTENTS, ALLOC, LOAD, READONLY, DATA
  9 .hash         00000044  0000000000008ee8  0000000000008ee8  00018ee8  2**3
                  CONTENTS, ALLOC, LOAD, READONLY, DATA
 10 .data         000000fc  0000000000009000  0000000000009000  00019000  2**3
                  CONTENTS, ALLOC, LOAD, DATA
 11 .bss          00012a88  0000000000009100  0000000000009100  000190fc  2**3
                  ALLOC
 12 .debug_info   0000eddf  0000000000000000  0000000000000000  000190fc  2**0
                  CONTENTS, READONLY, DEBUGGING
 13 .debug_abbrev 00003c26  0000000000000000  0000000000000000  00027edb  2**0
                  CONTENTS, READONLY, DEBUGGING
 14 .debug_loc    00015a70  0000000000000000  0000000000000000  0002bb01  2**0
                  CONTENTS, READONLY, DEBUGGING
 15 .debug_aranges 00000ba0  0000000000000000  0000000000000000  00041580  2**4
                  CONTENTS, READONLY, DEBUGGING
 16 .debug_macro  00004f83  0000000000000000  0000000000000000  00042120  2**0
                  CONTENTS, READONLY, DEBUGGING
 17 .debug_line   00005fac  0000000000000000  0000000000000000  000470a3  2**0
                  CONTENTS, READONLY, DEBUGGING
 18 .debug_str    0000f10d  0000000000000000  0000000000000000  0004d04f  2**0
                  CONTENTS, READONLY, DEBUGGING
 19 .comment      0000002d  0000000000000000  0000000000000000  0005c15c  2**0
                  CONTENTS, READONLY
 20 .debug_frame  00002260  0000000000000000  0000000000000000  0005c190  2**3
                  CONTENTS, READONLY, DEBUGGING
 21 .debug_ranges 00000ea0  0000000000000000  0000000000000000  0005e3f0  2**4
                  CONTENTS, READONLY, DEBUGGING
SYMBOL TABLE:
0000000000000000 l    d  .ta_head	0000000000000000 .ta_head
0000000000000020 l    d  .text	0000000000000000 .text
0000000000007458 l    d  .rodata	0000000000000000 .rodata
0000000000008948 l    d  .rela.dyn	0000000000000000 .rela.dyn
0000000000008b10 l    d  .got	0000000000000000 .got
0000000000008b78 l    d  .rela.got	0000000000000000 .rela.got
0000000000008c50 l    d  .dynamic	0000000000000000 .dynamic
0000000000008d50 l    d  .dynsym	0000000000000000 .dynsym
0000000000008e70 l    d  .dynstr	0000000000000000 .dynstr
0000000000008ee8 l    d  .hash	0000000000000000 .hash
0000000000009000 l    d  .data	0000000000000000 .data
0000000000009100 l    d  .bss	0000000000000000 .bss
0000000000000000 l    d  .debug_info	0000000000000000 .debug_info
0000000000000000 l    d  .debug_abbrev	0000000000000000 .debug_abbrev
0000000000000000 l    d  .debug_loc	0000000000000000 .debug_loc
0000000000000000 l    d  .debug_aranges	0000000000000000 .debug_aranges
0000000000000000 l    d  .debug_macro	0000000000000000 .debug_macro
0000000000000000 l    d  .debug_line	0000000000000000 .debug_line
0000000000000000 l    d  .debug_str	0000000000000000 .debug_str
0000000000000000 l    d  .comment	0000000000000000 .comment
0000000000000000 l    d  .debug_frame	0000000000000000 .debug_frame
0000000000000000 l    d  .debug_ranges	0000000000000000 .debug_ranges
0000000000000000 l    df *ABS*	0000000000000000 user_ta_header.c
0000000000007460 l     O .rodata	0000000000000004 __compound_literal.4
0000000000007464 l     O .rodata	0000000000000004 __compound_literal.3
0000000000007468 l     O .rodata	0000000000000001 __compound_literal.2
0000000000007469 l     O .rodata	0000000000000001 __compound_literal.1
000000000000746a l     O .rodata	0000000000000001 __compound_literal.0
0000000000000000 l    df *ABS*	0000000000000000 ta_entry.c
0000000000000000 l    df *ABS*	0000000000000000 ta_sims.c
0000000000009100 l     O .bss	0000000000000004 counter
0000000000009108 l     O .bss	0000000000000040 storage
0000000000000000 l    df *ABS*	0000000000000000 tee_api.c
0000000000019148 l     O .bss	0000000000000008 tee_api_instance_data
0000000000007490 l     O .rodata	000000000000000b __func__.4337
0000000000000000 l    df *ABS*	0000000000000000 tee_api_panic.c
0000000000000000 l    df *ABS*	0000000000000000 user_ta_entry.c
0000000000000740 l     F .text	0000000000000028 ta_header_get_session
0000000000000768 l     F .text	0000000000000094 ta_header_remove_session
000000000001bb80 l     O .bss	0000000000000001 init_done
00000000000090b0 l     O .data	0000000000000010 ta_sessions
0000000000000000 l    df *ABS*	0000000000000000 utee_syscalls_a64.o
0000000000000000 l    df *ABS*	0000000000000000 gprof_a64.o
0000000000000000 l    df *ABS*	0000000000000000 tee_api_arith.c
000000000000142c l     F .text	0000000000000028 TEE_BigInt_Panic
0000000000019198 l     O .bss	0000000000001980 mempool_u32
000000000001ab18 l     O .bss	0000000000000010 mem.4074
000000000001ab28 l     O .bss	0000000000000008 mempool
0000000000000000 l    df *ABS*	0000000000000000 trace_ext.c
0000000000000000 l    df *ABS*	0000000000000000 mpa_misc.c
0000000000000000 l    df *ABS*	0000000000000000 mpa_montgomery.c
0000000000000000 l    df *ABS*	0000000000000000 mpa_primetest.c
0000000000008108 l     O .rodata	0000000000000010 const_miller_rabin_proof_limit
0000000000008118 l     O .rodata	000000000000001c proof_a.3550
0000000000008138 l     O .rodata	000000000000000c const_two
0000000000008148 l     O .rodata	00000000000000b8 const_small_prime_factors
0000000000000000 l    df *ABS*	0000000000000000 mpa_conv.c
0000000000000000 l    df *ABS*	0000000000000000 mpa_div.c
0000000000000000 l    df *ABS*	0000000000000000 mpa_gcd.c
00000000000028d8 l     F .text	0000000000000080 __mpa_divby2
0000000000002958 l     F .text	000000000000016c __mpa_gcd.part.0
0000000000002ac4 l     F .text	0000000000000380 __mpa_egcd
0000000000000000 l    df *ABS*	0000000000000000 mpa_mem_static.c
0000000000000000 l    df *ABS*	0000000000000000 mpa_mul.c
0000000000000000 l    df *ABS*	0000000000000000 mpa_random.c
0000000000000000 l    df *ABS*	0000000000000000 mpa_shift.c
0000000000000000 l    df *ABS*	0000000000000000 mpa_addsub.c
0000000000000000 l    df *ABS*	0000000000000000 mpa_cmp.c
0000000000000000 l    df *ABS*	0000000000000000 mpa_expmod.c
0000000000000000 l    df *ABS*	0000000000000000 mpa_init.c
0000000000000000 l    df *ABS*	0000000000000000 mpa_io.c
0000000000004778 l     F .text	0000000000000044 __mpa_word_to_hexstr
00000000000047bc l     F .text	0000000000000114 __mpa_mpanum_to_hexstr
00000000000048d0 l     F .text	000000000000003c __mpa_isspace
0000000000008208 l     O .rodata	000000000000000c __func__.3624
0000000000008218 l     O .rodata	000000000000000c __func__.3638
000000000001ab30 l     O .bss	0000000000001002 buf.3610
0000000000000000 l    df *ABS*	0000000000000000 mpa_modulus.c
0000000000000000 l    df *ABS*	0000000000000000 bget_malloc.c
000000000000516c l     F .text	0000000000000040 raw_malloc_return_hook.isra.3
00000000000051ac l     F .text	0000000000000110 create_free_block.constprop.11
000000000000547c l     F .text	000000000000005c raw_malloc.constprop.15
0000000000008228 l     O .rodata	0000000000000012 __func__.3464
0000000000008240 l     O .rodata	0000000000000005 __func__.3319
0000000000008248 l     O .rodata	0000000000000006 __func__.3334
0000000000008250 l     O .rodata	0000000000000005 __func__.3351
0000000000008258 l     O .rodata	0000000000000006 __func__.3343
0000000000008260 l     O .rodata	0000000000000006 __func__.3360
0000000000008268 l     O .rodata	0000000000000007 __func__.3370
0000000000008270 l     O .rodata	000000000000000d __func__.3500
0000000000008280 l     O .rodata	000000000000000c __func__.3474
0000000000008290 l     O .rodata	000000000000000b __func__.3485
00000000000082a0 l     O .rodata	0000000000000010 __func__.3552
00000000000082b0 l     O .rodata	000000000000000e __func__.3506
00000000000082c0 l     O .rodata	0000000000000013 __func__.3411
000000000001bb38 l     O .bss	0000000000000038 mstats
000000000001bb70 l     O .bss	0000000000000008 malloc_pool_len
000000000001bb78 l     O .bss	0000000000000008 malloc_pool
00000000000090c0 l     O .data	0000000000000038 malloc_poolset
0000000000000000 l    df *ABS*	0000000000000000 snprintf.c
0000000000000000 l    df *ABS*	0000000000000000 memcmp.c
0000000000000000 l    df *ABS*	0000000000000000 memcpy.c
0000000000000000 l    df *ABS*	0000000000000000 memmove.c
0000000000000000 l    df *ABS*	0000000000000000 memset.c
0000000000000000 l    df *ABS*	0000000000000000 strlen.c
0000000000000000 l    df *ABS*	0000000000000000 snprintk.c
00000000000082d8 l     O .rodata	0000000000000011 HEXDIGITS
00000000000082f0 l     O .rodata	0000000000000011 hexdigits
0000000000000000 l    df *ABS*	0000000000000000 trace.c
0000000000008308 l     O .rodata	0000000000000005 lvl_strs.3178
0000000000000000 l    df *ABS*	0000000000000000 mempool.c
0000000000008310 l     O .rodata	0000000000000013 __func__.3181
0000000000000000 l    df *ABS*	0000000000000000 memchr.c
0000000000000000 l    df *ABS*	0000000000000000 assert.c
0000000000000000 l    df *ABS*	0000000000000000 
0000000000008c50 l     O *ABS*	0000000000000000 _DYNAMIC
0000000000008b28 l     O *ABS*	0000000000000000 _GLOBAL_OFFSET_TABLE_
0000000000000d40 g     F .text	000000000000000c utee_se_channel_transmit
0000000000001590 g     F .text	000000000000003c putchar
00000000000046f4 g     F .text	000000000000001c mpa_init_static
0000000000001620 g     F .text	0000000000000054 mpa_copy
000000000000136c g     F .text	000000000000001c TEE_BigIntConvertToFMM
000000000000124c g     F .text	000000000000000c TEE_BigIntSquareMod
0000000000000ec8 g     F .text	0000000000000004 TEE_BigIntShiftRight
0000000000001f28 g     F .text	0000000000000074 mpa_get_S32
00000000000016a4 g     F .text	0000000000000044 mpa_highest_bit_index
0000000000000c08 g     F .text	000000000000000c utee_storage_obj_create
0000000000000d1c g     F .text	000000000000000c utee_se_session_close
0000000000000a10 g     F .text	000000000000000c utee_return
0000000000000cbc g     F .text	000000000000000c utee_se_service_get_readers
0000000000000714 g     F .text	0000000000000008 TEE_Realloc
0000000000002018 g     F .text	0000000000000148 __mpa_div_q_r_internal_word
0000000000003f2c g     F .text	000000000000019c mpa_sub
00000000000000d0 g     F .text	0000000000000004 sims_close_session
0000000000001484 g     F .text	00000000000000cc printf
0000000000000a1c g     F .text	000000000000000c utee_log
0000000000008200 g     O .rodata	0000000000000004 NR_STORED_PRIMES
00000000000003f0 g     F .text	00000000000000b4 TEE_InvokeTACommand
000000000000172c g     F .text	000000000000001c mpa_can_hold
0000000000003200 g     F .text	0000000000000098 __mpa_abs_mul_word
0000000000001ac8 g     F .text	0000000000000088 mpa_montgomery_mul
0000000000006f6c g     F .text	0000000000000054 vsnprintk
0000000000001748 g     F .text	000000000000000c mpa_parity
0000000000006340 g     F .text	000000000000004c memmove
0000000000003ab4 g     F .text	0000000000000020 __mpa_full_adder_ackum
0000000000006220 g     F .text	0000000000000078 snprintf
0000000000000ec4 g     F .text	0000000000000004 TEE_BigIntCmpS32
00000000000000d4 g     F .text	00000000000000a8 sims_read
0000000000000f00 g     F .text	000000000000000c TEE_BigIntAdd
0000000000000a40 g     F .text	000000000000000c utee_get_property_name_to_index
0000000000007470 g     O .rodata	0000000000000008 ta_heap_size
0000000000008204 g     O .rodata	0000000000000004 MAX_TABULATED_PRIME
0000000000000ac4 g     F .text	000000000000000c utee_cryp_state_alloc
0000000000000bcc g     F .text	000000000000000c utee_authenc_enc_final
00000000000031e0 g     F .text	0000000000000020 __mpa_mul_add_word_cum
0000000000000f18 g     F .text	0000000000000004 TEE_BigIntNeg
00000000000027e8 g     F .text	00000000000000f0 mpa_div
0000000000000020 g       .text	0000000000000000 __text_start
00000000000074a0 g     O .rodata	000000000000000c const_one
00000000000061b4 g     F .text	000000000000006c malloc_buffer_overlaps_heap
0000000000004434 g     F .text	0000000000000018 __mpa_abs_less_than
00000000000010d8 g     F .text	00000000000000a8 TEE_BigIntSubMod
0000000000003534 g     F .text	000000000000010c mpa_get_random
0000000000007068 g     F .text	0000000000000240 trace_printf
0000000000000ca4 g     F .text	000000000000000c utee_se_service_open
0000000000006320 g     F .text	0000000000000020 memcpy
0000000000000adc g     F .text	000000000000000c utee_cryp_state_free
00000000000015f0 g     F .text	0000000000000030 mpa_wipe
0000000000001388 g     F .text	0000000000000094 TEE_BigIntConvertFromFMM
0000000000000738 g     F .text	0000000000000008 TEE_Panic
0000000000000d34 g     F .text	000000000000000c utee_se_channel_get_select_resp
0000000000001550 g     F .text	0000000000000040 puts
000000000000141c g     F .text	0000000000000010 TEE_BigIntComputeFMM
0000000000001f9c g     F .text	0000000000000014 mpa_set_word
0000000000005a48 g     F .text	0000000000000030 malloc_get_stats
00000000000037a0 g     F .text	0000000000000190 mpa_shift_left
0000000000000b24 g     F .text	000000000000000c utee_cipher_final
000000000000338c g     F .text	00000000000000e4 mpa_mul
0000000000000690 g     F .text	0000000000000028 TEE_GetREETime
0000000000009000 g     O .data	00000000000000a8 ta_props
0000000000005a78 g     F .text	0000000000000004 malloc
0000000000000b60 g     F .text	000000000000000c utee_cryp_obj_close
0000000000000ce0 g     F .text	000000000000000c utee_se_reader_open_session
0000000000006298 g     F .text	0000000000000054 vsnprintf
00000000000090f8 g     O .data	0000000000000004 trace_level
0000000000000ec0 g     F .text	0000000000000004 TEE_BigIntCmp
0000000000007458 g     O .rodata	0000000000000008 ta_num_props
00000000000057fc g     F .text	00000000000000c8 bgetr
0000000000000bc0 g     F .text	000000000000000c utee_authenc_update_payload
0000000000007394 g     F .text	0000000000000040 mempool_free
0000000000000e5c g     F .text	0000000000000040 TEE_BigIntConvertToOctetString
0000000000000d58 g     F .text	000000000000000c utee_cache_operation
0000000000000ba8 g     F .text	000000000000000c utee_authenc_init
0000000000000ecc g     F .text	000000000000001c TEE_BigIntGetBit
0000000000007478 g     O .rodata	0000000000000003 trace_ext_prefix
0000000000003ad4 g     F .text	00000000000000f4 __mpa_abs_add
00000000000054d8 g     F .text	0000000000000088 bgetz
0000000000000548 g     F .text	000000000000000c TEE_GetInstanceData
0000000000000594 g     F .text	000000000000003c TEE_Wait
0000000000000c74 g     F .text	000000000000000c utee_storage_obj_write
00000000000031ac g     F .text	000000000000001c mpa_free_static_temp_var
0000000000001b50 g     F .text	00000000000003ac mpa_is_prob_prime
0000000000000d4c g     F .text	000000000000000c utee_se_channel_close
0000000000003470 g     F .text	00000000000000c4 mpa_mul_word
0000000000000728 g     F .text	0000000000000008 TEE_CacheFlush
0000000000000028 g     F .text	0000000000000004 TA_DestroyEntryPoint
0000000000007400 g     F .text	0000000000000044 _assert_log
0000000000000e20 g     F .text	0000000000000014 TEE_BigIntFMMContextSizeInU32
0000000000002160 g     F .text	0000000000000688 __mpa_div_q_r
0000000000000d68 g     F .text	0000000000000058 _TEE_MathAPI_Init
0000000000000c5c g     F .text	000000000000000c utee_storage_next_enum
0000000000009148 g     O .bss	0000000000010000 ta_heap
0000000000001258 g     F .text	000000000000006c TEE_BigIntInvMod
0000000000000034 g     F .text	0000000000000004 TA_CloseSessionEntryPoint
0000000000000a28 g     F .text	000000000000000c __utee_panic
0000000000000ad0 g     F .text	000000000000000c utee_cryp_state_copy
0000000000000038 g     F .text	0000000000000048 TA_InvokeCommandEntryPoint
0000000000004c30 g     F .text	0000000000000110 mpa_set_oct_str
0000000000000d10 g     F .text	000000000000000c utee_se_session_open_channel
0000000000007314 g     F .text	0000000000000080 mempool_alloc
00000000000036a4 g     F .text	0000000000000098 __mpa_shift_words_left
000000000000022c g     F .text	0000000000000020 sims_get_counter
0000000000000b54 g     F .text	000000000000000c utee_cryp_obj_alloc
0000000000000ab8 g     F .text	000000000000000c utee_set_ta_time
0000000000000b48 g     F .text	000000000000000c utee_cryp_obj_get_attr
00000000000017d8 g     F .text	0000000000000090 __mpa_montgomery_sub_ack
0000000000005a90 g     F .text	0000000000000070 calloc
00000000000006b8 g     F .text	000000000000005c TEE_Malloc
0000000000000a94 g     F .text	000000000000000c utee_mask_cancellation
0000000000000b6c g     F .text	000000000000000c utee_cryp_obj_reset
0000000000000528 g     F .text	0000000000000014 TEE_CheckMemoryAccessRights
000000000001bb88 g       .bss	0000000000000000 __gprof_buf_end
00000000000040c8 g     F .text	000000000000002c mpa_neg
00000000000074d0 g     O .rodata	0000000000000c38 PRIME_TABLE
000000000000002c g     F .text	0000000000000008 TA_OpenSessionEntryPoint
0000000000002e44 g     F .text	0000000000000120 mpa_gcd
0000000000001674 g     F .text	0000000000000030 mpa_abs
0000000000000c50 g     F .text	000000000000000c utee_storage_start_enum
0000000000004914 g     F .text	0000000000000298 mpa_set_str
0000000000000c20 g     F .text	000000000000000c utee_storage_obj_rename
0000000000019150 g     O .bss	0000000000000004 ta_param_types
0000000000001348 g     F .text	0000000000000024 TEE_BigIntIsProbablePrime
000000000000319c g     F .text	0000000000000010 mpa_alloc_static_temp_var
0000000000000a34 g     F .text	000000000000000c utee_get_property
0000000000000dc0 g     F .text	0000000000000004 TEE_BigIntInit
0000000000000554 g     F .text	0000000000000008 TEE_MemMove
0000000000000e34 g     F .text	0000000000000028 TEE_BigIntConvertFromOctetString
00000000000090a8 g     O .data	0000000000000008 _ref__utee_mcount
00000000000073d4 g     F .text	000000000000002c memchr
00000000000004d0 g     F .text	000000000000002c TEE_UnmaskCancellation
0000000000004fd4 g     F .text	0000000000000084 mpa_mul_mod
0000000000000c14 g     F .text	000000000000000c utee_storage_obj_del
0000000000000c8c g     F .text	000000000000000c utee_storage_obj_seek
000000000000198c g     F .text	000000000000013c mpa_compute_fmm_context
0000000000000af4 g     F .text	000000000000000c utee_hash_update
0000000000000080 g     F .text	0000000000000050 sims_open_session
0000000000000d64  w    F .text	0000000000000004 __utee_mcount
0000000000000f9c g     F .text	0000000000000094 TEE_BigIntMod
0000000000000d28 g     F .text	000000000000000c utee_se_channel_select_next
0000000000000a58 g     F .text	000000000000000c utee_close_ta_session
0000000000000f38 g     F .text	0000000000000064 TEE_BigIntDiv
0000000000005a30 g     F .text	0000000000000018 malloc_reset_stats
0000000000000b18 g     F .text	000000000000000c utee_cipher_update
0000000000000d04 g     F .text	000000000000000c utee_se_session_get_atr
0000000000005b00 g     F .text	000000000000005c realloc
0000000000003bc8 g     F .text	00000000000000cc __mpa_abs_add_ackum
00000000000072ac g     F .text	0000000000000068 mempool_alloc_pool
0000000000000bf0 g     F .text	000000000000000c utee_asymm_verify
0000000000000f1c g     F .text	000000000000000c TEE_BigIntMul
0000000000001fb0 g     F .text	0000000000000018 mpa_get_word
0000000000000564 g     F .text	0000000000000008 TEE_MemFill
00000000000062ec g     F .text	0000000000000034 memcmp
0000000000005f04 g     F .text	0000000000000130 malloc_add_pool
0000000000007058 g     F .text	0000000000000010 trace_get_level
0000000000000b9c g     F .text	000000000000000c utee_cryp_random_number_generate
0000000000000e10 g     F .text	0000000000000010 TEE_BigIntFMMSizeInU32
0000000000000dc4 g     F .text	0000000000000014 TEE_BigIntInitFMM
0000000000000be4 g     F .text	000000000000000c utee_asymm_operate
00000000000007fc g     F .text	0000000000000208 __utee_entry
0000000000007458 g       .text	0000000000000000 __text_end
00000000000012c4 g     F .text	0000000000000078 TEE_BigIntRelativePrime
0000000000003640 g     F .text	0000000000000064 mpa_get_random_digits
00000000000058c4 g     F .text	00000000000000d4 bpool
0000000000001efc g     F .text	000000000000002c mpa_set_S32
0000000000004710 g     F .text	0000000000000068 mpa_init_static_fmm_context
00000000000004a4 g     F .text	000000000000002c TEE_GetCancellationFlag
0000000000000cb0 g     F .text	000000000000000c utee_se_service_close
0000000000000650 g     F .text	0000000000000040 TEE_SetTAPersistentTime
00000000000040f4 g     F .text	000000000000013c mpa_add_word
0000000000000cc8 g     F .text	000000000000000c utee_se_reader_get_prop
000000000000638c g     F .text	000000000000001c memset
00000000000005d0 g     F .text	0000000000000080 TEE_GetTAPersistentTime
00000000000072a8 g     F .text	0000000000000004 dhex_dump
00000000000004fc g     F .text	000000000000002c TEE_MaskCancellation
0000000000003a90 g     F .text	0000000000000024 __mpa_full_sub
0000000000000c68 g     F .text	000000000000000c utee_storage_obj_read
0000000000000b78 g     F .text	000000000000000c utee_cryp_obj_populate
000000000000444c g     F .text	0000000000000068 mpa_cmp
0000000000005058 g     F .text	0000000000000114 mpa_inv_mod
0000000000004230 g     F .text	0000000000000138 mpa_sub_word
00000000000031c8 g     F .text	0000000000000018 __mpa_mul_add_word
0000000000003d98 g     F .text	0000000000000194 mpa_add
0000000000004538 g     F .text	00000000000001bc mpa_exp_mod
000000000000373c g     F .text	0000000000000064 __mpa_shift_words_right
0000000000007034 g     F .text	0000000000000024 trace_set_level
0000000000000cf8 g     F .text	000000000000000c utee_se_session_is_closed
0000000000000b30 g     F .text	000000000000000c utee_cryp_obj_get_info
0000000000000c2c g     F .text	000000000000000c utee_storage_alloc_enum
0000000000000c44 g     F .text	000000000000000c utee_storage_reset_enum
0000000000000c80 g     F .text	000000000000000c utee_storage_obj_trunc
0000000000004eb4 g     F .text	0000000000000018 mpa_mod
0000000000004418 g     F .text	000000000000001c __mpa_abs_greater_than
0000000000000ea0 g     F .text	0000000000000020 TEE_BigIntConvertToS32
0000000000000f0c g     F .text	000000000000000c TEE_BigIntSub
0000000000000a70 g     F .text	000000000000000c utee_get_cancellation_flag
0000000000000ae8 g     F .text	000000000000000c utee_hash_init
000000000000024c g     F .text	0000000000000008 tahead_get_trace_level
0000000000000254 g     F .text	0000000000000078 __utee_from_param
00000000000074b0 g     O .rodata	0000000000000010 Const_1_LShift_Base
00000000000002cc g     F .text	000000000000006c __utee_to_param
0000000000005b5c g     F .text	00000000000003a8 memalign
0000000000000e9c g     F .text	0000000000000004 TEE_BigIntConvertFromS32
0000000000004f50 g     F .text	0000000000000084 mpa_sub_mod
0000000000000b3c g     F .text	000000000000000c utee_cryp_obj_restrict_usage
0000000000006034 g     F .text	0000000000000180 malloc_buffer_is_within_alloced
0000000000000b84 g     F .text	000000000000000c utee_cryp_obj_copy
0000000000003930 g     F .text	0000000000000144 mpa_shift_right
0000000000000dd8 g     F .text	0000000000000038 TEE_BigIntInitFMMContext
0000000000000b90 g     F .text	000000000000000c utee_cryp_derive_key
0000000000001868 g     F .text	0000000000000124 __mpa_montgomery_mul
0000000000004d40 g     F .text	0000000000000174 mpa_get_oct_str
00000000000044b4 g     F .text	0000000000000084 mpa_cmp_short
0000000000000bd8 g     F .text	000000000000000c utee_authenc_dec_final
0000000000004368 g     F .text	00000000000000b0 __mpa_abs_cmp
0000000000000f28 g     F .text	0000000000000010 TEE_BigIntSquare
0000000000000020 g     F .text	0000000000000008 TA_CreateEntryPoint
0000000000006fc0 g     F .text	0000000000000074 snprintk
0000000000000ee8 g     F .text	0000000000000018 TEE_BigIntGetBitCount
0000000000001180 g     F .text	00000000000000cc TEE_BigIntMulMod
0000000000019158 g     O .bss	0000000000000040 ta_params
0000000000003298 g     F .text	00000000000000f4 __mpa_abs_mul
00000000000052bc g     F .text	00000000000001c0 bget
000000000000071c g     F .text	0000000000000004 TEE_Free
0000000000000cd4 g     F .text	000000000000000c utee_se_reader_get_name
0000000000000730 g     F .text	0000000000000008 TEE_CacheInvalidate
0000000000000b0c g     F .text	000000000000000c utee_cipher_init
0000000000007444 g     F .text	0000000000000014 _assert_break
0000000000001030 g     F .text	00000000000000a8 TEE_BigIntAddMod
0000000000000c38 g     F .text	000000000000000c utee_storage_free_enum
0000000000000bb4 g     F .text	000000000000000c utee_authenc_update_aad
00000000000016e8 g     F .text	0000000000000044 mpa_get_bit
000000000000055c g     F .text	0000000000000008 TEE_MemCompare
000000000000017c g     F .text	00000000000000b0 sims_write
00000000000063c4 g     F .text	0000000000000ba8 __vsnprintf
0000000000000a04 g     F .text	000000000000000c utee_panic
0000000000000338 g     F .text	0000000000000090 TEE_OpenTASession
0000000000001454 g     F .text	0000000000000028 trace_ext_puts
000000000000147c g     F .text	0000000000000008 trace_ext_get_thread_id
0000000000000720 g     F .text	0000000000000008 TEE_CacheClean
0000000000000a4c g     F .text	000000000000000c utee_open_ta_session
0000000000001fc8 g     F .text	0000000000000050 __mpa_div_dword
00000000000015cc g     F .text	0000000000000024 __mpa_set_unused_digits_to_zero
00000000000074c0 g     O .rodata	000000000000000c const_largest_deci_base
000000000000490c g     F .text	0000000000000008 mpa_get_str_size
0000000000000b00 g     F .text	000000000000000c utee_hash_final
00000000000063a8 g     F .text	000000000000001c strlen
000000000000133c g     F .text	000000000000000c TEE_BigIntComputeExtendedGcd
0000000000002f64 g     F .text	00000000000001ec mpa_extended_gcd
0000000000004ecc g     F .text	0000000000000084 mpa_add_mod
0000000000000bfc g     F .text	000000000000000c utee_storage_obj_open
0000000000000a64 g     F .text	000000000000000c utee_invoke_ta_command
0000000000004bac g     F .text	0000000000000084 mpa_get_str
0000000000000aa0 g     F .text	000000000000000c utee_wait
000000000000056c g     F .text	0000000000000028 TEE_GetSystemTime
0000000000000000 g     O .ta_head	0000000000000020 ta_head
0000000000005560 g     F .text	000000000000029c brel
0000000000003150 g     F .text	000000000000004c mpa_alloc_static_temp_var_size
0000000000000aac g     F .text	000000000000000c utee_get_time
0000000000001760 g     F .text	0000000000000078 __mpa_montgomery_mul_add
000000000000053c g     F .text	000000000000000c TEE_SetInstanceData
0000000000000a88 g     F .text	000000000000000c utee_unmask_cancellation
0000000000000a7c g     F .text	000000000000000c utee_check_access_rights
0000000000000cec g     F .text	000000000000000c utee_se_reader_close_sessions
0000000000000c98 g     F .text	000000000000000c utee_cryp_obj_generate_key
0000000000001754 g     F .text	000000000000000c mpa_constant_one
00000000000003c8 g     F .text	0000000000000028 TEE_CloseTASession
0000000000003a74 g     F .text	000000000000001c __mpa_full_adder
0000000000003c94 g     F .text	0000000000000104 __mpa_abs_sub
000000000001bb88 g       .bss	0000000000000000 __gprof_buf_start
0000000000005a7c g     F .text	0000000000000014 free
0000000000005998 g     F .text	0000000000000098 bstats



Disassembly of section .text:

0000000000000020 <TA_CreateEntryPoint>:
TA_CreateEntryPoint():
/home/lagadanu/Desktop/qemu/out-br/build/optee_test-1.0/ta/sims/ta_entry.c:40
      20:	52800000 	mov	w0, #0x0                   	// #0
      24:	d65f03c0 	ret

0000000000000028 <TA_DestroyEntryPoint>:
TA_DestroyEntryPoint():
/home/lagadanu/Desktop/qemu/out-br/build/optee_test-1.0/ta/sims/ta_entry.c:44
      28:	d65f03c0 	ret

000000000000002c <TA_OpenSessionEntryPoint>:
TA_OpenSessionEntryPoint():
/home/lagadanu/Desktop/qemu/out-br/build/optee_test-1.0/ta/sims/ta_entry.c:53
      2c:	aa0203e0 	mov	x0, x2
      30:	14000014 	b	80 <sims_open_session>

0000000000000034 <TA_CloseSessionEntryPoint>:
TA_CloseSessionEntryPoint():
/home/lagadanu/Desktop/qemu/out-br/build/optee_test-1.0/ta/sims/ta_entry.c:59
      34:	14000027 	b	d0 <sims_close_session>

0000000000000038 <TA_InvokeCommandEntryPoint>:
TA_InvokeCommandEntryPoint():
/home/lagadanu/Desktop/qemu/out-br/build/optee_test-1.0/ta/sims/ta_entry.c:66
      38:	2a0103e5 	mov	w5, w1
      3c:	2a0203e4 	mov	w4, w2
      40:	aa0303e1 	mov	x1, x3
/home/lagadanu/Desktop/qemu/out-br/build/optee_test-1.0/ta/sims/ta_entry.c:67
      44:	710008bf 	cmp	w5, #0x2
      48:	540000e0 	b.eq	64 <TA_InvokeCommandEntryPoint+0x2c>
      4c:	71000cbf 	cmp	w5, #0x3
      50:	540000e0 	b.eq	6c <TA_InvokeCommandEntryPoint+0x34>
      54:	710004bf 	cmp	w5, #0x1
      58:	54000101 	b.ne	78 <TA_InvokeCommandEntryPoint+0x40>
/home/lagadanu/Desktop/qemu/out-br/build/optee_test-1.0/ta/sims/ta_entry.c:69
      5c:	2a0203e0 	mov	w0, w2
      60:	1400001d 	b	d4 <sims_read>
/home/lagadanu/Desktop/qemu/out-br/build/optee_test-1.0/ta/sims/ta_entry.c:72
      64:	2a0203e0 	mov	w0, w2
      68:	14000045 	b	17c <sims_write>
/home/lagadanu/Desktop/qemu/out-br/build/optee_test-1.0/ta/sims/ta_entry.c:75
      6c:	aa0303e2 	mov	x2, x3
      70:	2a0403e1 	mov	w1, w4
      74:	1400006e 	b	22c <sims_get_counter>
/home/lagadanu/Desktop/qemu/out-br/build/optee_test-1.0/ta/sims/ta_entry.c:80
      78:	129fff20 	mov	w0, #0xffff0006            	// #-65530
      7c:	d65f03c0 	ret

0000000000000080 <sims_open_session>:
sims_open_session():
/home/lagadanu/Desktop/qemu/out-br/build/optee_test-1.0/ta/sims/ta_sims.c:48
      80:	a9be7bfd 	stp	x29, x30, [sp,#-32]!
/home/lagadanu/Desktop/qemu/out-br/build/optee_test-1.0/ta/sims/ta_sims.c:49
      84:	52800001 	mov	w1, #0x0                   	// #0
/home/lagadanu/Desktop/qemu/out-br/build/optee_test-1.0/ta/sims/ta_sims.c:48
      88:	910003fd 	mov	x29, sp
      8c:	f9000bf3 	str	x19, [sp,#16]
      90:	aa0003f3 	mov	x19, x0
/home/lagadanu/Desktop/qemu/out-br/build/optee_test-1.0/ta/sims/ta_sims.c:49
      94:	52840080 	mov	w0, #0x2004                	// #8196
      98:	94000188 	bl	6b8 <TEE_Malloc>
/home/lagadanu/Desktop/qemu/out-br/build/optee_test-1.0/ta/sims/ta_sims.c:51
      9c:	b4000160 	cbz	x0, c8 <sims_open_session+0x48>
/home/lagadanu/Desktop/qemu/out-br/build/optee_test-1.0/ta/sims/ta_sims.c:54
      a0:	b0000042 	adrp	x2, 9000 <ta_props>
      a4:	b9410041 	ldr	w1, [x2,#256]
      a8:	b9000001 	str	w1, [x0]
/home/lagadanu/Desktop/qemu/out-br/build/optee_test-1.0/ta/sims/ta_sims.c:55
      ac:	f9000260 	str	x0, [x19]
/home/lagadanu/Desktop/qemu/out-br/build/optee_test-1.0/ta/sims/ta_sims.c:57
      b0:	11000421 	add	w1, w1, #0x1
/home/lagadanu/Desktop/qemu/out-br/build/optee_test-1.0/ta/sims/ta_sims.c:59
      b4:	52800000 	mov	w0, #0x0                   	// #0
/home/lagadanu/Desktop/qemu/out-br/build/optee_test-1.0/ta/sims/ta_sims.c:57
      b8:	b9010041 	str	w1, [x2,#256]
/home/lagadanu/Desktop/qemu/out-br/build/optee_test-1.0/ta/sims/ta_sims.c:60
      bc:	f9400bf3 	ldr	x19, [sp,#16]
      c0:	a8c27bfd 	ldp	x29, x30, [sp],#32
      c4:	d65f03c0 	ret
/home/lagadanu/Desktop/qemu/out-br/build/optee_test-1.0/ta/sims/ta_sims.c:52
      c8:	129ffe60 	mov	w0, #0xffff000c            	// #-65524
      cc:	17fffffc 	b	bc <sims_open_session+0x3c>

00000000000000d0 <sims_close_session>:
sims_close_session():
/home/lagadanu/Desktop/qemu/out-br/build/optee_test-1.0/ta/sims/ta_sims.c:64
      d0:	14000193 	b	71c <TEE_Free>

00000000000000d4 <sims_read>:
sims_read():
/home/lagadanu/Desktop/qemu/out-br/build/optee_test-1.0/ta/sims/ta_sims.c:72
      d4:	7101841f 	cmp	w0, #0x61
      d8:	540004c1 	b.ne	170 <sims_read+0x9c>
/home/lagadanu/Desktop/qemu/out-br/build/optee_test-1.0/ta/sims/ta_sims.c:77
      dc:	b9400022 	ldr	w2, [x1]
/home/lagadanu/Desktop/qemu/out-br/build/optee_test-1.0/ta/sims/ta_sims.c:75
      e0:	129fff20 	mov	w0, #0xffff0006            	// #-65530
/home/lagadanu/Desktop/qemu/out-br/build/optee_test-1.0/ta/sims/ta_sims.c:78
      e4:	71000c5f 	cmp	w2, #0x3
      e8:	54000488 	b.hi	178 <sims_read+0xa4>
/home/lagadanu/Desktop/qemu/out-br/build/optee_test-1.0/ta/sims/ta_sims.c:68
      ec:	a9bd7bfd 	stp	x29, x30, [sp,#-48]!
/home/lagadanu/Desktop/qemu/out-br/build/optee_test-1.0/ta/sims/ta_sims.c:81
      f0:	b0000040 	adrp	x0, 9000 <ta_props>
      f4:	91040000 	add	x0, x0, #0x100
      f8:	d37c7c42 	ubfiz	x2, x2, #4, #32
      fc:	91002000 	add	x0, x0, #0x8
/home/lagadanu/Desktop/qemu/out-br/build/optee_test-1.0/ta/sims/ta_sims.c:68
     100:	910003fd 	mov	x29, sp
     104:	a9025bf5 	stp	x21, x22, [sp,#32]
/home/lagadanu/Desktop/qemu/out-br/build/optee_test-1.0/ta/sims/ta_sims.c:81
     108:	8b020016 	add	x22, x0, x2
/home/lagadanu/Desktop/qemu/out-br/build/optee_test-1.0/ta/sims/ta_sims.c:68
     10c:	a90153f3 	stp	x19, x20, [sp,#16]
/home/lagadanu/Desktop/qemu/out-br/build/optee_test-1.0/ta/sims/ta_sims.c:81
     110:	91004035 	add	x21, x1, #0x10
     114:	b8626803 	ldr	w3, [x0,x2]
/home/lagadanu/Desktop/qemu/out-br/build/optee_test-1.0/ta/sims/ta_sims.c:82
     118:	1299fe00 	mov	w0, #0xffff300f            	// #-53233
/home/lagadanu/Desktop/qemu/out-br/build/optee_test-1.0/ta/sims/ta_sims.c:81
     11c:	b9401822 	ldr	w2, [x1,#24]
     120:	6b02007f 	cmp	w3, w2
     124:	540001e8 	b.hi	160 <sims_read+0x8c>
     128:	aa0103f3 	mov	x19, x1
/home/lagadanu/Desktop/qemu/out-br/build/optee_test-1.0/ta/sims/ta_sims.c:84
     12c:	5287d000 	mov	w0, #0x3e80                	// #16000
     130:	52800001 	mov	w1, #0x0                   	// #0
     134:	94000161 	bl	6b8 <TEE_Malloc>
     138:	aa0003f4 	mov	x20, x0
/home/lagadanu/Desktop/qemu/out-br/build/optee_test-1.0/ta/sims/ta_sims.c:86
     13c:	129ffe60 	mov	w0, #0xffff000c            	// #-65524
/home/lagadanu/Desktop/qemu/out-br/build/optee_test-1.0/ta/sims/ta_sims.c:85
     140:	b4000114 	cbz	x20, 160 <sims_read+0x8c>
/home/lagadanu/Desktop/qemu/out-br/build/optee_test-1.0/ta/sims/ta_sims.c:88
     144:	b9400aa2 	ldr	w2, [x21,#8]
     148:	f94006c1 	ldr	x1, [x22,#8]
     14c:	f9400a60 	ldr	x0, [x19,#16]
     150:	94000101 	bl	554 <TEE_MemMove>
/home/lagadanu/Desktop/qemu/out-br/build/optee_test-1.0/ta/sims/ta_sims.c:91
     154:	aa1403e0 	mov	x0, x20
     158:	94000171 	bl	71c <TEE_Free>
/home/lagadanu/Desktop/qemu/out-br/build/optee_test-1.0/ta/sims/ta_sims.c:93
     15c:	52800000 	mov	w0, #0x0                   	// #0
/home/lagadanu/Desktop/qemu/out-br/build/optee_test-1.0/ta/sims/ta_sims.c:94
     160:	a94153f3 	ldp	x19, x20, [sp,#16]
     164:	a9425bf5 	ldp	x21, x22, [sp,#32]
     168:	a8c37bfd 	ldp	x29, x30, [sp],#48
     16c:	d65f03c0 	ret
/home/lagadanu/Desktop/qemu/out-br/build/optee_test-1.0/ta/sims/ta_sims.c:75
     170:	129fff20 	mov	w0, #0xffff0006            	// #-65530
     174:	d65f03c0 	ret
/home/lagadanu/Desktop/qemu/out-br/build/optee_test-1.0/ta/sims/ta_sims.c:94
     178:	d65f03c0 	ret

000000000000017c <sims_write>:
sims_write():
/home/lagadanu/Desktop/qemu/out-br/build/optee_test-1.0/ta/sims/ta_sims.c:100
     17c:	7101441f 	cmp	w0, #0x51
     180:	54000501 	b.ne	220 <sims_write+0xa4>
/home/lagadanu/Desktop/qemu/out-br/build/optee_test-1.0/ta/sims/ta_sims.c:105
     184:	b9400024 	ldr	w4, [x1]
/home/lagadanu/Desktop/qemu/out-br/build/optee_test-1.0/ta/sims/ta_sims.c:103
     188:	129fff20 	mov	w0, #0xffff0006            	// #-65530
/home/lagadanu/Desktop/qemu/out-br/build/optee_test-1.0/ta/sims/ta_sims.c:106
     18c:	71000c9f 	cmp	w4, #0x3
     190:	540004c8 	b.hi	228 <sims_write+0xac>
/home/lagadanu/Desktop/qemu/out-br/build/optee_test-1.0/ta/sims/ta_sims.c:97
     194:	a9bd7bfd 	stp	x29, x30, [sp,#-48]!
/home/lagadanu/Desktop/qemu/out-br/build/optee_test-1.0/ta/sims/ta_sims.c:109
     198:	b0000043 	adrp	x3, 9000 <ta_props>
     19c:	91040060 	add	x0, x3, #0x100
/home/lagadanu/Desktop/qemu/out-br/build/optee_test-1.0/ta/sims/ta_sims.c:97
     1a0:	910003fd 	mov	x29, sp
     1a4:	a90153f3 	stp	x19, x20, [sp,#16]
/home/lagadanu/Desktop/qemu/out-br/build/optee_test-1.0/ta/sims/ta_sims.c:109
     1a8:	2a0403f4 	mov	w20, w4
     1ac:	8b141000 	add	x0, x0, x20, lsl #4
/home/lagadanu/Desktop/qemu/out-br/build/optee_test-1.0/ta/sims/ta_sims.c:97
     1b0:	a9025bf5 	stp	x21, x22, [sp,#32]
     1b4:	aa0303f3 	mov	x19, x3
     1b8:	aa0103f5 	mov	x21, x1
/home/lagadanu/Desktop/qemu/out-br/build/optee_test-1.0/ta/sims/ta_sims.c:109
     1bc:	f9400800 	ldr	x0, [x0,#16]
     1c0:	b4000040 	cbz	x0, 1c8 <sims_write+0x4c>
/home/lagadanu/Desktop/qemu/out-br/build/optee_test-1.0/ta/sims/ta_sims.c:110
     1c4:	94000156 	bl	71c <TEE_Free>
/home/lagadanu/Desktop/qemu/out-br/build/optee_test-1.0/ta/sims/ta_sims.c:112
     1c8:	910042b6 	add	x22, x21, #0x10
     1cc:	b9400ac0 	ldr	w0, [x22,#8]
     1d0:	52800001 	mov	w1, #0x0                   	// #0
     1d4:	94000139 	bl	6b8 <TEE_Malloc>
     1d8:	91040263 	add	x3, x19, #0x100
     1dc:	d37cee84 	lsl	x4, x20, #4
     1e0:	91002063 	add	x3, x3, #0x8
     1e4:	8b040062 	add	x2, x3, x4
     1e8:	f9000440 	str	x0, [x2,#8]
/home/lagadanu/Desktop/qemu/out-br/build/optee_test-1.0/ta/sims/ta_sims.c:113
     1ec:	b50000e0 	cbnz	x0, 208 <sims_write+0x8c>
/home/lagadanu/Desktop/qemu/out-br/build/optee_test-1.0/ta/sims/ta_sims.c:114
     1f0:	b824687f 	str	wzr, [x3,x4]
/home/lagadanu/Desktop/qemu/out-br/build/optee_test-1.0/ta/sims/ta_sims.c:115
     1f4:	129ffe60 	mov	w0, #0xffff000c            	// #-65524
/home/lagadanu/Desktop/qemu/out-br/build/optee_test-1.0/ta/sims/ta_sims.c:123
     1f8:	a94153f3 	ldp	x19, x20, [sp,#16]
     1fc:	a9425bf5 	ldp	x21, x22, [sp,#32]
     200:	a8c37bfd 	ldp	x29, x30, [sp],#48
     204:	d65f03c0 	ret
/home/lagadanu/Desktop/qemu/out-br/build/optee_test-1.0/ta/sims/ta_sims.c:117
     208:	b9400ac2 	ldr	w2, [x22,#8]
/home/lagadanu/Desktop/qemu/out-br/build/optee_test-1.0/ta/sims/ta_sims.c:119
     20c:	f9400aa1 	ldr	x1, [x21,#16]
/home/lagadanu/Desktop/qemu/out-br/build/optee_test-1.0/ta/sims/ta_sims.c:117
     210:	b8246862 	str	w2, [x3,x4]
/home/lagadanu/Desktop/qemu/out-br/build/optee_test-1.0/ta/sims/ta_sims.c:119
     214:	940000d0 	bl	554 <TEE_MemMove>
/home/lagadanu/Desktop/qemu/out-br/build/optee_test-1.0/ta/sims/ta_sims.c:122
     218:	52800000 	mov	w0, #0x0                   	// #0
     21c:	17fffff7 	b	1f8 <sims_write+0x7c>
/home/lagadanu/Desktop/qemu/out-br/build/optee_test-1.0/ta/sims/ta_sims.c:103
     220:	129fff20 	mov	w0, #0xffff0006            	// #-65530
     224:	d65f03c0 	ret
/home/lagadanu/Desktop/qemu/out-br/build/optee_test-1.0/ta/sims/ta_sims.c:123
     228:	d65f03c0 	ret

000000000000022c <sims_get_counter>:
sims_get_counter():
/home/lagadanu/Desktop/qemu/out-br/build/optee_test-1.0/ta/sims/ta_sims.c:130
     22c:	7100083f 	cmp	w1, #0x2
     230:	540000a1 	b.ne	244 <sims_get_counter+0x18>
/home/lagadanu/Desktop/qemu/out-br/build/optee_test-1.0/ta/sims/ta_sims.c:134
     234:	b9400000 	ldr	w0, [x0]
     238:	b9000040 	str	w0, [x2]
/home/lagadanu/Desktop/qemu/out-br/build/optee_test-1.0/ta/sims/ta_sims.c:136
     23c:	52800000 	mov	w0, #0x0                   	// #0
     240:	d65f03c0 	ret
/home/lagadanu/Desktop/qemu/out-br/build/optee_test-1.0/ta/sims/ta_sims.c:132
     244:	129fff20 	mov	w0, #0xffff0006            	// #-65530
/home/lagadanu/Desktop/qemu/out-br/build/optee_test-1.0/ta/sims/ta_sims.c:137
     248:	d65f03c0 	ret

000000000000024c <tahead_get_trace_level>:
tahead_get_trace_level():
/home/lagadanu/Desktop/qemu/optee_os/out/arm/export-ta_arm64/src/user_ta_header.c:107
     24c:	52800040 	mov	w0, #0x2                   	// #2
     250:	d65f03c0 	ret

0000000000000254 <__utee_from_param>:
__utee_from_param():
/home/lagadanu/Desktop/qemu/optee_os/lib/libutee/tee_api.c:25
     254:	f0000025 	adrp	x5, 7000 <snprintk+0x40>
     258:	911200a5 	add	x5, x5, #0x480
/home/lagadanu/Desktop/qemu/optee_os/lib/libutee/tee_api.c:23
     25c:	2a0103e3 	mov	w3, w1
     260:	52800004 	mov	w4, #0x0                   	// #0
     264:	f8008403 	str	x3, [x0],#8
/home/lagadanu/Desktop/qemu/optee_os/lib/libutee/tee_api.c:25
     268:	1ac42423 	lsr	w3, w1, w4
     26c:	12000c63 	and	w3, w3, #0xf
     270:	51000463 	sub	w3, w3, #0x1
     274:	7100187f 	cmp	w3, #0x6
     278:	54000268 	b.hi	2c4 <__utee_from_param+0x70>
     27c:	386348a3 	ldrb	w3, [x5,w3,uxtw]
     280:	10000066 	adr	x6, 28c <__utee_from_param+0x38>
     284:	8b2388c3 	add	x3, x6, w3, sxtb #2
     288:	d61f0060 	br	x3
/home/lagadanu/Desktop/qemu/optee_os/lib/libutee/tee_api.c:29
     28c:	b9400043 	ldr	w3, [x2]
     290:	f9000003 	str	x3, [x0]
/home/lagadanu/Desktop/qemu/optee_os/lib/libutee/tee_api.c:30
     294:	b9400443 	ldr	w3, [x2,#4]
/home/lagadanu/Desktop/qemu/optee_os/lib/libutee/tee_api.c:36
     298:	f9000403 	str	x3, [x0,#8]
     29c:	11001084 	add	w4, w4, #0x4
     2a0:	91004042 	add	x2, x2, #0x10
     2a4:	91004000 	add	x0, x0, #0x10
/home/lagadanu/Desktop/qemu/optee_os/lib/libutee/tee_api.c:24 (discriminator 2)
     2a8:	7100409f 	cmp	w4, #0x10
     2ac:	54fffde1 	b.ne	268 <__utee_from_param+0x14>
/home/lagadanu/Desktop/qemu/optee_os/lib/libutee/tee_api.c:44
     2b0:	d65f03c0 	ret
/home/lagadanu/Desktop/qemu/optee_os/lib/libutee/tee_api.c:35
     2b4:	f9400043 	ldr	x3, [x2]
     2b8:	f9000003 	str	x3, [x0]
/home/lagadanu/Desktop/qemu/optee_os/lib/libutee/tee_api.c:36
     2bc:	b9400843 	ldr	w3, [x2,#8]
     2c0:	17fffff6 	b	298 <__utee_from_param+0x44>
/home/lagadanu/Desktop/qemu/optee_os/lib/libutee/tee_api.c:40
     2c4:	a9007c1f 	stp	xzr, xzr, [x0]
/home/lagadanu/Desktop/qemu/optee_os/lib/libutee/tee_api.c:41
     2c8:	17fffff5 	b	29c <__utee_from_param+0x48>

00000000000002cc <__utee_to_param>:
__utee_to_param():
/home/lagadanu/Desktop/qemu/optee_os/lib/libutee/tee_api.c:50
     2cc:	f8408446 	ldr	x6, [x2],#8
/home/lagadanu/Desktop/qemu/optee_os/lib/libutee/tee_api.c:56
     2d0:	f0000025 	adrp	x5, 7000 <snprintk+0x40>
     2d4:	911220a5 	add	x5, x5, #0x488
/home/lagadanu/Desktop/qemu/optee_os/lib/libutee/tee_api.c:50
     2d8:	52800004 	mov	w4, #0x0                   	// #0
     2dc:	2a0603e9 	mov	w9, w6
/home/lagadanu/Desktop/qemu/optee_os/lib/libutee/tee_api.c:56
     2e0:	1ac42523 	lsr	w3, w9, w4
     2e4:	12000c63 	and	w3, w3, #0xf
     2e8:	51000463 	sub	w3, w3, #0x1
     2ec:	7100187f 	cmp	w3, #0x6
/home/lagadanu/Desktop/qemu/optee_os/lib/libutee/tee_api.c:54
     2f0:	a9401c48 	ldp	x8, x7, [x2]
/home/lagadanu/Desktop/qemu/optee_os/lib/libutee/tee_api.c:56
     2f4:	540000c8 	b.hi	30c <__utee_to_param+0x40>
     2f8:	386348a3 	ldrb	w3, [x5,w3,uxtw]
     2fc:	1000006a 	adr	x10, 308 <__utee_to_param+0x3c>
     300:	8b238943 	add	x3, x10, w3, sxtb #2
     304:	d61f0060 	br	x3
/home/lagadanu/Desktop/qemu/optee_os/lib/libutee/tee_api.c:61
     308:	29001c08 	stp	w8, w7, [x0]
     30c:	11001084 	add	w4, w4, #0x4
     310:	91004042 	add	x2, x2, #0x10
     314:	91004000 	add	x0, x0, #0x10
/home/lagadanu/Desktop/qemu/optee_os/lib/libutee/tee_api.c:52 (discriminator 2)
     318:	7100409f 	cmp	w4, #0x10
     31c:	54fffe21 	b.ne	2e0 <__utee_to_param+0x14>
/home/lagadanu/Desktop/qemu/optee_os/lib/libutee/tee_api.c:74
     320:	b4000041 	cbz	x1, 328 <__utee_to_param+0x5c>
/home/lagadanu/Desktop/qemu/optee_os/lib/libutee/tee_api.c:75
     324:	b9000026 	str	w6, [x1]
     328:	d65f03c0 	ret
/home/lagadanu/Desktop/qemu/optee_os/lib/libutee/tee_api.c:66
     32c:	f9000008 	str	x8, [x0]
/home/lagadanu/Desktop/qemu/optee_os/lib/libutee/tee_api.c:67
     330:	b9000807 	str	w7, [x0,#8]
/home/lagadanu/Desktop/qemu/optee_os/lib/libutee/tee_api.c:68
     334:	17fffff6 	b	30c <__utee_to_param+0x40>

0000000000000338 <TEE_OpenTASession>:
TEE_OpenTASession():
/home/lagadanu/Desktop/qemu/optee_os/lib/libutee/tee_api.c:84
     338:	a9b77bfd 	stp	x29, x30, [sp,#-144]!
     33c:	910003fd 	mov	x29, sp
     340:	a90153f3 	stp	x19, x20, [sp,#16]
/home/lagadanu/Desktop/qemu/optee_os/lib/libutee/tee_api.c:89
     344:	910123b3 	add	x19, x29, #0x48
/home/lagadanu/Desktop/qemu/optee_os/lib/libutee/tee_api.c:84
     348:	a9025bf5 	stp	x21, x22, [sp,#32]
     34c:	aa0303f4 	mov	x20, x3
     350:	a90363f7 	stp	x23, x24, [sp,#48]
     354:	aa0003f6 	mov	x22, x0
     358:	aa0503f8 	mov	x24, x5
     35c:	2a0103f7 	mov	w23, w1
     360:	aa0403f5 	mov	x21, x4
     364:	2a0203e1 	mov	w1, w2
/home/lagadanu/Desktop/qemu/optee_os/lib/libutee/tee_api.c:89
     368:	aa1303e0 	mov	x0, x19
     36c:	aa0303e2 	mov	x2, x3
     370:	97ffffb9 	bl	254 <__utee_from_param>
/home/lagadanu/Desktop/qemu/optee_os/lib/libutee/tee_api.c:90
     374:	aa1803e4 	mov	x4, x24
     378:	910113a3 	add	x3, x29, #0x44
     37c:	aa1303e2 	mov	x2, x19
     380:	2a1703e1 	mov	w1, w23
     384:	aa1603e0 	mov	x0, x22
     388:	940001b1 	bl	a4c <utee_open_ta_session>
/home/lagadanu/Desktop/qemu/optee_os/lib/libutee/tee_api.c:92
     38c:	aa1303e2 	mov	x2, x19
/home/lagadanu/Desktop/qemu/optee_os/lib/libutee/tee_api.c:90
     390:	2a0003f6 	mov	w22, w0
/home/lagadanu/Desktop/qemu/optee_os/lib/libutee/tee_api.c:92
     394:	d2800001 	mov	x1, #0x0                   	// #0
     398:	aa1403e0 	mov	x0, x20
     39c:	97ffffcc 	bl	2cc <__utee_to_param>
/home/lagadanu/Desktop/qemu/optee_os/lib/libutee/tee_api.c:98
     3a0:	34000056 	cbz	w22, 3a8 <TEE_OpenTASession+0x70>
/home/lagadanu/Desktop/qemu/optee_os/lib/libutee/tee_api.c:99
     3a4:	b90047bf 	str	wzr, [x29,#68]
/home/lagadanu/Desktop/qemu/optee_os/lib/libutee/tee_api.c:101
     3a8:	b94047a0 	ldr	w0, [x29,#68]
/home/lagadanu/Desktop/qemu/optee_os/lib/libutee/tee_api.c:103
     3ac:	a94153f3 	ldp	x19, x20, [sp,#16]
     3b0:	a94363f7 	ldp	x23, x24, [sp,#48]
/home/lagadanu/Desktop/qemu/optee_os/lib/libutee/tee_api.c:101
     3b4:	f90002a0 	str	x0, [x21]
/home/lagadanu/Desktop/qemu/optee_os/lib/libutee/tee_api.c:103
     3b8:	2a1603e0 	mov	w0, w22
     3bc:	a9425bf5 	ldp	x21, x22, [sp,#32]
     3c0:	a8c97bfd 	ldp	x29, x30, [sp],#144
     3c4:	d65f03c0 	ret

00000000000003c8 <TEE_CloseTASession>:
TEE_CloseTASession():
/home/lagadanu/Desktop/qemu/optee_os/lib/libutee/tee_api.c:107
     3c8:	b4000120 	cbz	x0, 3ec <TEE_CloseTASession+0x24>
/home/lagadanu/Desktop/qemu/optee_os/lib/libutee/tee_api.c:106
     3cc:	a9bf7bfd 	stp	x29, x30, [sp,#-16]!
     3d0:	910003fd 	mov	x29, sp
/home/lagadanu/Desktop/qemu/optee_os/lib/libutee/tee_api.c:108
     3d4:	940001a1 	bl	a58 <utee_close_ta_session>
/home/lagadanu/Desktop/qemu/optee_os/lib/libutee/tee_api.c:110
     3d8:	34000060 	cbz	w0, 3e4 <TEE_CloseTASession+0x1c>
/home/lagadanu/Desktop/qemu/optee_os/lib/libutee/tee_api.c:113
     3dc:	a8c17bfd 	ldp	x29, x30, [sp],#16
/home/lagadanu/Desktop/qemu/optee_os/lib/libutee/tee_api.c:111
     3e0:	140000d6 	b	738 <TEE_Panic>
/home/lagadanu/Desktop/qemu/optee_os/lib/libutee/tee_api.c:113
     3e4:	a8c17bfd 	ldp	x29, x30, [sp],#16
     3e8:	d65f03c0 	ret
     3ec:	d65f03c0 	ret

00000000000003f0 <TEE_InvokeTACommand>:
TEE_InvokeTACommand():
/home/lagadanu/Desktop/qemu/optee_os/lib/libutee/tee_api.c:120
     3f0:	a9b77bfd 	stp	x29, x30, [sp,#-144]!
     3f4:	910003fd 	mov	x29, sp
     3f8:	a90153f3 	stp	x19, x20, [sp,#16]
/home/lagadanu/Desktop/qemu/optee_os/lib/libutee/tee_api.c:125
     3fc:	910123b4 	add	x20, x29, #0x48
/home/lagadanu/Desktop/qemu/optee_os/lib/libutee/tee_api.c:120
     400:	a9025bf5 	stp	x21, x22, [sp,#32]
     404:	aa0003f3 	mov	x19, x0
     408:	a90363f7 	stp	x23, x24, [sp,#48]
     40c:	aa0403f6 	mov	x22, x4
     410:	aa0503f5 	mov	x21, x5
     414:	2a0103f7 	mov	w23, w1
     418:	2a0203f8 	mov	w24, w2
/home/lagadanu/Desktop/qemu/optee_os/lib/libutee/tee_api.c:125
     41c:	2a0303e1 	mov	w1, w3
     420:	aa0403e2 	mov	x2, x4
     424:	aa1403e0 	mov	x0, x20
     428:	97ffff8b 	bl	254 <__utee_from_param>
/home/lagadanu/Desktop/qemu/optee_os/lib/libutee/tee_api.c:126
     42c:	910113a4 	add	x4, x29, #0x44
     430:	aa1403e3 	mov	x3, x20
     434:	2a1803e2 	mov	w2, w24
     438:	2a1703e1 	mov	w1, w23
     43c:	aa1303e0 	mov	x0, x19
     440:	94000189 	bl	a64 <utee_invoke_ta_command>
/home/lagadanu/Desktop/qemu/optee_os/lib/libutee/tee_api.c:129
     444:	aa1403e2 	mov	x2, x20
/home/lagadanu/Desktop/qemu/optee_os/lib/libutee/tee_api.c:126
     448:	2a0003f3 	mov	w19, w0
/home/lagadanu/Desktop/qemu/optee_os/lib/libutee/tee_api.c:129
     44c:	d2800001 	mov	x1, #0x0                   	// #0
     450:	aa1603e0 	mov	x0, x22
     454:	97ffff9e 	bl	2cc <__utee_to_param>
     458:	b94047a0 	ldr	w0, [x29,#68]
/home/lagadanu/Desktop/qemu/optee_os/lib/libutee/tee_api.c:131
     45c:	b4000055 	cbz	x21, 464 <TEE_InvokeTACommand+0x74>
/home/lagadanu/Desktop/qemu/optee_os/lib/libutee/tee_api.c:132
     460:	b90002a0 	str	w0, [x21]
/home/lagadanu/Desktop/qemu/optee_os/lib/libutee/tee_api.c:134
     464:	7100101f 	cmp	w0, #0x4
     468:	54000120 	b.eq	48c <TEE_InvokeTACommand+0x9c>
/home/lagadanu/Desktop/qemu/optee_os/lib/libutee/tee_api.c:138
     46c:	7100027f 	cmp	w19, #0x0
     470:	129ffe60 	mov	w0, #0xffff000c            	// #-65524
     474:	7a401264 	ccmp	w19, w0, #0x4, ne
     478:	1299fb60 	mov	w0, #0xffff3024            	// #-53212
     47c:	7a401264 	ccmp	w19, w0, #0x4, ne
     480:	54000060 	b.eq	48c <TEE_InvokeTACommand+0x9c>
/home/lagadanu/Desktop/qemu/optee_os/lib/libutee/tee_api.c:140
     484:	2a1303e0 	mov	w0, w19
     488:	940000ac 	bl	738 <TEE_Panic>
/home/lagadanu/Desktop/qemu/optee_os/lib/libutee/tee_api.c:143
     48c:	2a1303e0 	mov	w0, w19
     490:	a94153f3 	ldp	x19, x20, [sp,#16]
     494:	a9425bf5 	ldp	x21, x22, [sp,#32]
     498:	a94363f7 	ldp	x23, x24, [sp,#48]
     49c:	a8c97bfd 	ldp	x29, x30, [sp],#144
     4a0:	d65f03c0 	ret

00000000000004a4 <TEE_GetCancellationFlag>:
TEE_GetCancellationFlag():
/home/lagadanu/Desktop/qemu/optee_os/lib/libutee/tee_api.c:148
     4a4:	a9be7bfd 	stp	x29, x30, [sp,#-32]!
     4a8:	910003fd 	mov	x29, sp
/home/lagadanu/Desktop/qemu/optee_os/lib/libutee/tee_api.c:150
     4ac:	910073a0 	add	x0, x29, #0x1c
     4b0:	94000170 	bl	a70 <utee_get_cancellation_flag>
/home/lagadanu/Desktop/qemu/optee_os/lib/libutee/tee_api.c:152
     4b4:	34000040 	cbz	w0, 4bc <TEE_GetCancellationFlag+0x18>
/home/lagadanu/Desktop/qemu/optee_os/lib/libutee/tee_api.c:153
     4b8:	b9001fbf 	str	wzr, [x29,#28]
/home/lagadanu/Desktop/qemu/optee_os/lib/libutee/tee_api.c:154
     4bc:	b9401fa0 	ldr	w0, [x29,#28]
/home/lagadanu/Desktop/qemu/optee_os/lib/libutee/tee_api.c:155
     4c0:	a8c27bfd 	ldp	x29, x30, [sp],#32
/home/lagadanu/Desktop/qemu/optee_os/lib/libutee/tee_api.c:154
     4c4:	7100001f 	cmp	w0, #0x0
/home/lagadanu/Desktop/qemu/optee_os/lib/libutee/tee_api.c:155
     4c8:	1a9f07e0 	cset	w0, ne
     4cc:	d65f03c0 	ret

00000000000004d0 <TEE_UnmaskCancellation>:
TEE_UnmaskCancellation():
/home/lagadanu/Desktop/qemu/optee_os/lib/libutee/tee_api.c:158
     4d0:	a9be7bfd 	stp	x29, x30, [sp,#-32]!
     4d4:	910003fd 	mov	x29, sp
/home/lagadanu/Desktop/qemu/optee_os/lib/libutee/tee_api.c:160
     4d8:	910073a0 	add	x0, x29, #0x1c
     4dc:	9400016b 	bl	a88 <utee_unmask_cancellation>
/home/lagadanu/Desktop/qemu/optee_os/lib/libutee/tee_api.c:162
     4e0:	34000040 	cbz	w0, 4e8 <TEE_UnmaskCancellation+0x18>
/home/lagadanu/Desktop/qemu/optee_os/lib/libutee/tee_api.c:163
     4e4:	94000095 	bl	738 <TEE_Panic>
/home/lagadanu/Desktop/qemu/optee_os/lib/libutee/tee_api.c:164
     4e8:	b9401fa0 	ldr	w0, [x29,#28]
/home/lagadanu/Desktop/qemu/optee_os/lib/libutee/tee_api.c:165
     4ec:	a8c27bfd 	ldp	x29, x30, [sp],#32
/home/lagadanu/Desktop/qemu/optee_os/lib/libutee/tee_api.c:164
     4f0:	7100001f 	cmp	w0, #0x0
/home/lagadanu/Desktop/qemu/optee_os/lib/libutee/tee_api.c:165
     4f4:	1a9f07e0 	cset	w0, ne
     4f8:	d65f03c0 	ret

00000000000004fc <TEE_MaskCancellation>:
TEE_MaskCancellation():
/home/lagadanu/Desktop/qemu/optee_os/lib/libutee/tee_api.c:168
     4fc:	a9be7bfd 	stp	x29, x30, [sp,#-32]!
     500:	910003fd 	mov	x29, sp
/home/lagadanu/Desktop/qemu/optee_os/lib/libutee/tee_api.c:170
     504:	910073a0 	add	x0, x29, #0x1c
     508:	94000163 	bl	a94 <utee_mask_cancellation>
/home/lagadanu/Desktop/qemu/optee_os/lib/libutee/tee_api.c:172
     50c:	34000040 	cbz	w0, 514 <TEE_MaskCancellation+0x18>
/home/lagadanu/Desktop/qemu/optee_os/lib/libutee/tee_api.c:173
     510:	9400008a 	bl	738 <TEE_Panic>
/home/lagadanu/Desktop/qemu/optee_os/lib/libutee/tee_api.c:174
     514:	b9401fa0 	ldr	w0, [x29,#28]
/home/lagadanu/Desktop/qemu/optee_os/lib/libutee/tee_api.c:175
     518:	a8c27bfd 	ldp	x29, x30, [sp],#32
/home/lagadanu/Desktop/qemu/optee_os/lib/libutee/tee_api.c:174
     51c:	7100001f 	cmp	w0, #0x0
/home/lagadanu/Desktop/qemu/optee_os/lib/libutee/tee_api.c:175
     520:	1a9f07e0 	cset	w0, ne
     524:	d65f03c0 	ret

0000000000000528 <TEE_CheckMemoryAccessRights>:
TEE_CheckMemoryAccessRights():
/home/lagadanu/Desktop/qemu/optee_os/lib/libutee/tee_api.c:184
     528:	34000062 	cbz	w2, 534 <TEE_CheckMemoryAccessRights+0xc>
/home/lagadanu/Desktop/qemu/optee_os/lib/libutee/tee_api.c:188
     52c:	2a0203e2 	mov	w2, w2
     530:	14000153 	b	a7c <utee_check_access_rights>
/home/lagadanu/Desktop/qemu/optee_os/lib/libutee/tee_api.c:200
     534:	52800000 	mov	w0, #0x0                   	// #0
     538:	d65f03c0 	ret

000000000000053c <TEE_SetInstanceData>:
TEE_SetInstanceData():
/home/lagadanu/Desktop/qemu/optee_os/lib/libutee/tee_api.c:204
     53c:	b00000c1 	adrp	x1, 19000 <ta_heap+0xfeb8>
     540:	f900a420 	str	x0, [x1,#328]
     544:	d65f03c0 	ret

0000000000000548 <TEE_GetInstanceData>:
TEE_GetInstanceData():
/home/lagadanu/Desktop/qemu/optee_os/lib/libutee/tee_api.c:210
     548:	b00000c0 	adrp	x0, 19000 <ta_heap+0xfeb8>
     54c:	f940a400 	ldr	x0, [x0,#328]
     550:	d65f03c0 	ret

0000000000000554 <TEE_MemMove>:
TEE_MemMove():
/home/lagadanu/Desktop/qemu/optee_os/lib/libutee/tee_api.c:214
     554:	2a0203e2 	mov	w2, w2
     558:	1400177a 	b	6340 <memmove>

000000000000055c <TEE_MemCompare>:
TEE_MemCompare():
/home/lagadanu/Desktop/qemu/optee_os/lib/libutee/tee_api.c:219
     55c:	2a0203e2 	mov	w2, w2
     560:	14001763 	b	62ec <memcmp>

0000000000000564 <TEE_MemFill>:
TEE_MemFill():
/home/lagadanu/Desktop/qemu/optee_os/lib/libutee/tee_api.c:224
     564:	2a0203e2 	mov	w2, w2
     568:	14001789 	b	638c <memset>

000000000000056c <TEE_GetSystemTime>:
TEE_GetSystemTime():
/home/lagadanu/Desktop/qemu/optee_os/lib/libutee/tee_api.c:230
     56c:	a9bf7bfd 	stp	x29, x30, [sp,#-16]!
/home/lagadanu/Desktop/qemu/optee_os/lib/libutee/tee_api.c:231
     570:	aa0003e1 	mov	x1, x0
     574:	d2800000 	mov	x0, #0x0                   	// #0
/home/lagadanu/Desktop/qemu/optee_os/lib/libutee/tee_api.c:230
     578:	910003fd 	mov	x29, sp
/home/lagadanu/Desktop/qemu/optee_os/lib/libutee/tee_api.c:231
     57c:	9400014c 	bl	aac <utee_get_time>
/home/lagadanu/Desktop/qemu/optee_os/lib/libutee/tee_api.c:233
     580:	34000060 	cbz	w0, 58c <TEE_GetSystemTime+0x20>
/home/lagadanu/Desktop/qemu/optee_os/lib/libutee/tee_api.c:235
     584:	a8c17bfd 	ldp	x29, x30, [sp],#16
/home/lagadanu/Desktop/qemu/optee_os/lib/libutee/tee_api.c:234
     588:	1400006c 	b	738 <TEE_Panic>
/home/lagadanu/Desktop/qemu/optee_os/lib/libutee/tee_api.c:235
     58c:	a8c17bfd 	ldp	x29, x30, [sp],#16
     590:	d65f03c0 	ret

0000000000000594 <TEE_Wait>:
TEE_Wait():
/home/lagadanu/Desktop/qemu/optee_os/lib/libutee/tee_api.c:238
     594:	a9be7bfd 	stp	x29, x30, [sp,#-32]!
/home/lagadanu/Desktop/qemu/optee_os/lib/libutee/tee_api.c:239
     598:	2a0003e0 	mov	w0, w0
/home/lagadanu/Desktop/qemu/optee_os/lib/libutee/tee_api.c:238
     59c:	910003fd 	mov	x29, sp
     5a0:	f9000bf3 	str	x19, [sp,#16]
/home/lagadanu/Desktop/qemu/optee_os/lib/libutee/tee_api.c:239
     5a4:	9400013f 	bl	aa0 <utee_wait>
/home/lagadanu/Desktop/qemu/optee_os/lib/libutee/tee_api.c:241
     5a8:	7100001f 	cmp	w0, #0x0
     5ac:	129fffa1 	mov	w1, #0xffff0002            	// #-65534
/home/lagadanu/Desktop/qemu/optee_os/lib/libutee/tee_api.c:239
     5b0:	2a0003f3 	mov	w19, w0
/home/lagadanu/Desktop/qemu/optee_os/lib/libutee/tee_api.c:241
     5b4:	7a411004 	ccmp	w0, w1, #0x4, ne
     5b8:	54000040 	b.eq	5c0 <TEE_Wait+0x2c>
/home/lagadanu/Desktop/qemu/optee_os/lib/libutee/tee_api.c:242
     5bc:	9400005f 	bl	738 <TEE_Panic>
/home/lagadanu/Desktop/qemu/optee_os/lib/libutee/tee_api.c:245
     5c0:	2a1303e0 	mov	w0, w19
     5c4:	f9400bf3 	ldr	x19, [sp,#16]
     5c8:	a8c27bfd 	ldp	x29, x30, [sp],#32
     5cc:	d65f03c0 	ret

00000000000005d0 <TEE_GetTAPersistentTime>:
TEE_GetTAPersistentTime():
/home/lagadanu/Desktop/qemu/optee_os/lib/libutee/tee_api.c:248
     5d0:	a9be7bfd 	stp	x29, x30, [sp,#-32]!
/home/lagadanu/Desktop/qemu/optee_os/lib/libutee/tee_api.c:251
     5d4:	aa0003e1 	mov	x1, x0
/home/lagadanu/Desktop/qemu/optee_os/lib/libutee/tee_api.c:248
     5d8:	910003fd 	mov	x29, sp
     5dc:	a90153f3 	stp	x19, x20, [sp,#16]
     5e0:	aa0003f4 	mov	x20, x0
/home/lagadanu/Desktop/qemu/optee_os/lib/libutee/tee_api.c:251
     5e4:	d2800020 	mov	x0, #0x1                   	// #1
     5e8:	94000131 	bl	aac <utee_get_time>
/home/lagadanu/Desktop/qemu/optee_os/lib/libutee/tee_api.c:253
     5ec:	7100001f 	cmp	w0, #0x0
/home/lagadanu/Desktop/qemu/optee_os/lib/libutee/tee_api.c:251
     5f0:	2a0003f3 	mov	w19, w0
/home/lagadanu/Desktop/qemu/optee_os/lib/libutee/tee_api.c:253
     5f4:	1a9f07e1 	cset	w1, ne
     5f8:	1299fe00 	mov	w0, #0xffff300f            	// #-53233
     5fc:	6b00027f 	cmp	w19, w0
     600:	1a9f07e0 	cset	w0, ne
     604:	6a00003f 	tst	w1, w0
     608:	54000040 	b.eq	610 <TEE_GetTAPersistentTime+0x40>
/home/lagadanu/Desktop/qemu/optee_os/lib/libutee/tee_api.c:255
     60c:	29007e9f 	stp	wzr, wzr, [x20]
/home/lagadanu/Desktop/qemu/optee_os/lib/libutee/tee_api.c:259
     610:	11402e62 	add	w2, w19, #0xb, lsl #12
     614:	7100045f 	cmp	w2, #0x1
     618:	1a9f97e2 	cset	w2, hi
/home/lagadanu/Desktop/qemu/optee_os/lib/libutee/tee_api.c:258
     61c:	6a02003f 	tst	w1, w2
     620:	54000100 	b.eq	640 <TEE_GetTAPersistentTime+0x70>
/home/lagadanu/Desktop/qemu/optee_os/lib/libutee/tee_api.c:261
     624:	129ffe61 	mov	w1, #0xffff000c            	// #-65524
     628:	6b01027f 	cmp	w19, w1
     62c:	1a9f07e1 	cset	w1, ne
     630:	6a01001f 	tst	w0, w1
     634:	54000060 	b.eq	640 <TEE_GetTAPersistentTime+0x70>
/home/lagadanu/Desktop/qemu/optee_os/lib/libutee/tee_api.c:263
     638:	2a1303e0 	mov	w0, w19
     63c:	9400003f 	bl	738 <TEE_Panic>
/home/lagadanu/Desktop/qemu/optee_os/lib/libutee/tee_api.c:266
     640:	2a1303e0 	mov	w0, w19
     644:	a94153f3 	ldp	x19, x20, [sp,#16]
     648:	a8c27bfd 	ldp	x29, x30, [sp],#32
     64c:	d65f03c0 	ret

0000000000000650 <TEE_SetTAPersistentTime>:
TEE_SetTAPersistentTime():
/home/lagadanu/Desktop/qemu/optee_os/lib/libutee/tee_api.c:269
     650:	a9be7bfd 	stp	x29, x30, [sp,#-32]!
     654:	910003fd 	mov	x29, sp
     658:	f9000bf3 	str	x19, [sp,#16]
/home/lagadanu/Desktop/qemu/optee_os/lib/libutee/tee_api.c:272
     65c:	94000117 	bl	ab8 <utee_set_ta_time>
/home/lagadanu/Desktop/qemu/optee_os/lib/libutee/tee_api.c:275
     660:	7100001f 	cmp	w0, #0x0
     664:	129ffe61 	mov	w1, #0xffff000c            	// #-65524
     668:	7a411004 	ccmp	w0, w1, #0x4, ne
/home/lagadanu/Desktop/qemu/optee_os/lib/libutee/tee_api.c:272
     66c:	2a0003f3 	mov	w19, w0
/home/lagadanu/Desktop/qemu/optee_os/lib/libutee/tee_api.c:275
     670:	1299f7c1 	mov	w1, #0xffff3041            	// #-53183
     674:	7a411004 	ccmp	w0, w1, #0x4, ne
     678:	54000040 	b.eq	680 <TEE_SetTAPersistentTime+0x30>
/home/lagadanu/Desktop/qemu/optee_os/lib/libutee/tee_api.c:277
     67c:	9400002f 	bl	738 <TEE_Panic>
/home/lagadanu/Desktop/qemu/optee_os/lib/libutee/tee_api.c:280
     680:	2a1303e0 	mov	w0, w19
     684:	f9400bf3 	ldr	x19, [sp,#16]
     688:	a8c27bfd 	ldp	x29, x30, [sp],#32
     68c:	d65f03c0 	ret

0000000000000690 <TEE_GetREETime>:
TEE_GetREETime():
/home/lagadanu/Desktop/qemu/optee_os/lib/libutee/tee_api.c:283
     690:	a9bf7bfd 	stp	x29, x30, [sp,#-16]!
/home/lagadanu/Desktop/qemu/optee_os/lib/libutee/tee_api.c:284
     694:	aa0003e1 	mov	x1, x0
     698:	d2800040 	mov	x0, #0x2                   	// #2
/home/lagadanu/Desktop/qemu/optee_os/lib/libutee/tee_api.c:283
     69c:	910003fd 	mov	x29, sp
/home/lagadanu/Desktop/qemu/optee_os/lib/libutee/tee_api.c:284
     6a0:	94000103 	bl	aac <utee_get_time>
/home/lagadanu/Desktop/qemu/optee_os/lib/libutee/tee_api.c:286
     6a4:	34000060 	cbz	w0, 6b0 <TEE_GetREETime+0x20>
/home/lagadanu/Desktop/qemu/optee_os/lib/libutee/tee_api.c:288
     6a8:	a8c17bfd 	ldp	x29, x30, [sp],#16
/home/lagadanu/Desktop/qemu/optee_os/lib/libutee/tee_api.c:287
     6ac:	14000023 	b	738 <TEE_Panic>
/home/lagadanu/Desktop/qemu/optee_os/lib/libutee/tee_api.c:288
     6b0:	a8c17bfd 	ldp	x29, x30, [sp],#16
     6b4:	d65f03c0 	ret

00000000000006b8 <TEE_Malloc>:
TEE_Malloc():
/home/lagadanu/Desktop/qemu/optee_os/lib/libutee/tee_api.c:292
     6b8:	35000081 	cbnz	w1, 6c8 <TEE_Malloc+0x10>
/home/lagadanu/Desktop/qemu/optee_os/lib/libutee/tee_api.c:293
     6bc:	2a0003e1 	mov	w1, w0
     6c0:	d2800020 	mov	x0, #0x1                   	// #1
     6c4:	140014f3 	b	5a90 <calloc>
/home/lagadanu/Desktop/qemu/optee_os/lib/libutee/tee_api.c:294
     6c8:	52b00002 	mov	w2, #0x80000000            	// #-2147483648
     6cc:	6b02003f 	cmp	w1, w2
     6d0:	54000061 	b.ne	6dc <TEE_Malloc+0x24>
/home/lagadanu/Desktop/qemu/optee_os/lib/libutee/tee_api.c:295
     6d4:	2a0003e0 	mov	w0, w0
     6d8:	140014e8 	b	5a78 <malloc>
/home/lagadanu/Desktop/qemu/optee_os/lib/libutee/tee_api.c:291
     6dc:	a9bf7bfd 	stp	x29, x30, [sp,#-16]!
     6e0:	2a0103e5 	mov	w5, w1
/home/lagadanu/Desktop/qemu/optee_os/lib/libutee/tee_api.c:297
     6e4:	52800023 	mov	w3, #0x1                   	// #1
     6e8:	52800022 	mov	w2, #0x1                   	// #1
/home/lagadanu/Desktop/qemu/optee_os/lib/libutee/tee_api.c:291
     6ec:	910003fd 	mov	x29, sp
/home/lagadanu/Desktop/qemu/optee_os/lib/libutee/tee_api.c:297
     6f0:	52802521 	mov	w1, #0x129                 	// #297
     6f4:	90000044 	adrp	x4, 8000 <PRIME_TABLE+0xb30>
     6f8:	f0000020 	adrp	x0, 7000 <snprintk+0x40>
     6fc:	910f4484 	add	x4, x4, #0x3d1
     700:	91124000 	add	x0, x0, #0x490
     704:	94001a59 	bl	7068 <trace_printf>
/home/lagadanu/Desktop/qemu/optee_os/lib/libutee/tee_api.c:300
     708:	d2800000 	mov	x0, #0x0                   	// #0
     70c:	a8c17bfd 	ldp	x29, x30, [sp],#16
     710:	d65f03c0 	ret

0000000000000714 <TEE_Realloc>:
TEE_Realloc():
/home/lagadanu/Desktop/qemu/optee_os/lib/libutee/tee_api.c:304
     714:	2a0103e1 	mov	w1, w1
     718:	140014fa 	b	5b00 <realloc>

000000000000071c <TEE_Free>:
TEE_Free():
/home/lagadanu/Desktop/qemu/optee_os/lib/libutee/tee_api.c:309
     71c:	140014d8 	b	5a7c <free>

0000000000000720 <TEE_CacheClean>:
TEE_CacheClean():
/home/lagadanu/Desktop/qemu/optee_os/lib/libutee/tee_api.c:315
     720:	d2800002 	mov	x2, #0x0                   	// #0
     724:	1400018d 	b	d58 <utee_cache_operation>

0000000000000728 <TEE_CacheFlush>:
TEE_CacheFlush():
/home/lagadanu/Desktop/qemu/optee_os/lib/libutee/tee_api.c:319
     728:	d2800022 	mov	x2, #0x1                   	// #1
     72c:	1400018b 	b	d58 <utee_cache_operation>

0000000000000730 <TEE_CacheInvalidate>:
TEE_CacheInvalidate():
/home/lagadanu/Desktop/qemu/optee_os/lib/libutee/tee_api.c:324
     730:	d2800042 	mov	x2, #0x2                   	// #2
     734:	14000189 	b	d58 <utee_cache_operation>

0000000000000738 <TEE_Panic>:
TEE_Panic():
/home/lagadanu/Desktop/qemu/optee_os/lib/libutee/tee_api_panic.c:12
     738:	2a0003e0 	mov	w0, w0
     73c:	140000b2 	b	a04 <utee_panic>

0000000000000740 <ta_header_get_session>:
ta_header_get_session():
/home/lagadanu/Desktop/qemu/optee_os/lib/libutee/arch/arm/user_ta_entry.c:78
     740:	2a0003e1 	mov	w1, w0
/home/lagadanu/Desktop/qemu/optee_os/lib/libutee/arch/arm/user_ta_entry.c:81
     744:	b0000040 	adrp	x0, 9000 <ta_props>
     748:	f9405800 	ldr	x0, [x0,#176]
/home/lagadanu/Desktop/qemu/optee_os/lib/libutee/arch/arm/user_ta_entry.c:81 (discriminator 1)
     74c:	b5000040 	cbnz	x0, 754 <ta_header_get_session+0x14>
/home/lagadanu/Desktop/qemu/optee_os/lib/libutee/arch/arm/user_ta_entry.c:86
     750:	d65f03c0 	ret
/home/lagadanu/Desktop/qemu/optee_os/lib/libutee/arch/arm/user_ta_entry.c:82
     754:	b9400002 	ldr	w2, [x0]
     758:	6b01005f 	cmp	w2, w1
     75c:	54ffffa0 	b.eq	750 <ta_header_get_session+0x10>
/home/lagadanu/Desktop/qemu/optee_os/lib/libutee/arch/arm/user_ta_entry.c:81 (discriminator 2)
     760:	f9400800 	ldr	x0, [x0,#16]
     764:	17fffffa 	b	74c <ta_header_get_session+0xc>

0000000000000768 <ta_header_remove_session>:
ta_header_remove_session():
/home/lagadanu/Desktop/qemu/optee_os/lib/libutee/arch/arm/user_ta_entry.c:115
     768:	a9be7bfd 	stp	x29, x30, [sp,#-32]!
     76c:	2a0003e2 	mov	w2, w0
     770:	910003fd 	mov	x29, sp
     774:	f9000bf3 	str	x19, [sp,#16]
/home/lagadanu/Desktop/qemu/optee_os/lib/libutee/arch/arm/user_ta_entry.c:119
     778:	b0000053 	adrp	x19, 9000 <ta_props>
     77c:	f9405a60 	ldr	x0, [x19,#176]
/home/lagadanu/Desktop/qemu/optee_os/lib/libutee/arch/arm/user_ta_entry.c:119 (discriminator 1)
     780:	b5000080 	cbnz	x0, 790 <ta_header_remove_session+0x28>
/home/lagadanu/Desktop/qemu/optee_os/lib/libutee/arch/arm/user_ta_entry.c:133
     784:	f9400bf3 	ldr	x19, [sp,#16]
     788:	a8c27bfd 	ldp	x29, x30, [sp],#32
     78c:	d65f03c0 	ret
/home/lagadanu/Desktop/qemu/optee_os/lib/libutee/arch/arm/user_ta_entry.c:120
     790:	b9400001 	ldr	w1, [x0]
     794:	6b02003f 	cmp	w1, w2
     798:	f9400801 	ldr	x1, [x0,#16]
     79c:	540002c1 	b.ne	7f4 <ta_header_remove_session+0x8c>
     7a0:	f9400c02 	ldr	x2, [x0,#24]
/home/lagadanu/Desktop/qemu/optee_os/lib/libutee/arch/arm/user_ta_entry.c:121
     7a4:	b4000221 	cbz	x1, 7e8 <ta_header_remove_session+0x80>
/home/lagadanu/Desktop/qemu/optee_os/lib/libutee/arch/arm/user_ta_entry.c:121 (discriminator 1)
     7a8:	f9000c22 	str	x2, [x1,#24]
/home/lagadanu/Desktop/qemu/optee_os/lib/libutee/arch/arm/user_ta_entry.c:121 (discriminator 4)
     7ac:	f9400c02 	ldr	x2, [x0,#24]
     7b0:	f9000041 	str	x1, [x2]
/home/lagadanu/Desktop/qemu/optee_os/lib/libutee/arch/arm/user_ta_entry.c:122 (discriminator 4)
     7b4:	97ffffda 	bl	71c <TEE_Free>
/home/lagadanu/Desktop/qemu/optee_os/lib/libutee/arch/arm/user_ta_entry.c:125 (discriminator 4)
     7b8:	90000040 	adrp	x0, 8000 <PRIME_TABLE+0xb30>
/home/lagadanu/Desktop/qemu/optee_os/lib/libutee/arch/arm/user_ta_entry.c:127 (discriminator 4)
     7bc:	f9405a61 	ldr	x1, [x19,#176]
/home/lagadanu/Desktop/qemu/optee_os/lib/libutee/arch/arm/user_ta_entry.c:125 (discriminator 4)
     7c0:	52800282 	mov	w2, #0x14                  	// #20
     7c4:	f945b800 	ldr	x0, [x0,#2928]
/home/lagadanu/Desktop/qemu/optee_os/lib/libutee/arch/arm/user_ta_entry.c:127 (discriminator 4)
     7c8:	f100003f 	cmp	x1, #0x0
/home/lagadanu/Desktop/qemu/optee_os/lib/libutee/arch/arm/user_ta_entry.c:125 (discriminator 4)
     7cc:	b9401400 	ldr	w0, [x0,#20]
     7d0:	0a020000 	and	w0, w0, w2
/home/lagadanu/Desktop/qemu/optee_os/lib/libutee/arch/arm/user_ta_entry.c:127 (discriminator 4)
     7d4:	7a420004 	ccmp	w0, w2, #0x4, eq
     7d8:	54fffd60 	b.eq	784 <ta_header_remove_session+0x1c>
/home/lagadanu/Desktop/qemu/optee_os/lib/libutee/arch/arm/user_ta_entry.c:133
     7dc:	f9400bf3 	ldr	x19, [sp,#16]
     7e0:	a8c27bfd 	ldp	x29, x30, [sp],#32
uninit_instance():
/home/lagadanu/Desktop/qemu/optee_os/lib/libutee/arch/arm/user_ta_entry.c:63
     7e4:	17fffe11 	b	28 <TA_DestroyEntryPoint>
ta_header_remove_session():
/home/lagadanu/Desktop/qemu/optee_os/lib/libutee/arch/arm/user_ta_entry.c:121 (discriminator 2)
     7e8:	9102c263 	add	x3, x19, #0xb0
     7ec:	f9000462 	str	x2, [x3,#8]
     7f0:	17ffffef 	b	7ac <ta_header_remove_session+0x44>
/home/lagadanu/Desktop/qemu/optee_os/lib/libutee/arch/arm/user_ta_entry.c:119 (discriminator 2)
     7f4:	aa0103e0 	mov	x0, x1
     7f8:	17ffffe2 	b	780 <ta_header_remove_session+0x18>

00000000000007fc <__utee_entry>:
__utee_entry():
/home/lagadanu/Desktop/qemu/optee_os/lib/libutee/arch/arm/user_ta_entry.c:200
     7fc:	a9b77bfd 	stp	x29, x30, [sp,#-144]!
/home/lagadanu/Desktop/qemu/optee_os/lib/libutee/arch/arm/user_ta_entry.c:211
     800:	f100041f 	cmp	x0, #0x1
/home/lagadanu/Desktop/qemu/optee_os/lib/libutee/arch/arm/user_ta_entry.c:200
     804:	910003fd 	mov	x29, sp
     808:	a90153f3 	stp	x19, x20, [sp,#16]
     80c:	aa0103f4 	mov	x20, x1
     810:	a9025bf5 	stp	x21, x22, [sp,#32]
     814:	f9001bf7 	str	x23, [sp,#48]
/home/lagadanu/Desktop/qemu/optee_os/lib/libutee/arch/arm/user_ta_entry.c:211
     818:	54000a60 	b.eq	964 <__utee_entry+0x168>
     81c:	aa0203f6 	mov	x22, x2
     820:	b40000e0 	cbz	x0, 83c <__utee_entry+0x40>
     824:	f100081f 	cmp	x0, #0x2
     828:	54000b20 	b.eq	98c <__utee_entry+0x190>
/home/lagadanu/Desktop/qemu/optee_os/lib/libutee/arch/arm/user_ta_entry.c:223
     82c:	52800000 	mov	w0, #0x0                   	// #0
/home/lagadanu/Desktop/qemu/optee_os/lib/libutee/arch/arm/user_ta_entry.c:222
     830:	12800013 	mov	w19, #0xffffffff            	// #-1
/home/lagadanu/Desktop/qemu/optee_os/lib/libutee/arch/arm/user_ta_entry.c:223
     834:	97ffffc1 	bl	738 <TEE_Panic>
/home/lagadanu/Desktop/qemu/optee_os/lib/libutee/arch/arm/user_ta_entry.c:224
     838:	1400000c 	b	868 <__utee_entry+0x6c>
ta_header_add_session():
/home/lagadanu/Desktop/qemu/optee_os/lib/libutee/arch/arm/user_ta_entry.c:90
     83c:	2a0103e0 	mov	w0, w1
     840:	97ffffc0 	bl	740 <ta_header_get_session>
/home/lagadanu/Desktop/qemu/optee_os/lib/libutee/arch/arm/user_ta_entry.c:93
     844:	b5000520 	cbnz	x0, 8e8 <__utee_entry+0xec>
/home/lagadanu/Desktop/qemu/optee_os/lib/libutee/arch/arm/user_ta_entry.c:96
     848:	f00000c0 	adrp	x0, 1b000 <buf.3610+0x4d0>
     84c:	396e0001 	ldrb	w1, [x0,#2944]
     850:	340001e1 	cbz	w1, 88c <__utee_entry+0x90>
/home/lagadanu/Desktop/qemu/optee_os/lib/libutee/arch/arm/user_ta_entry.c:103
     854:	52b00001 	mov	w1, #0x80000000            	// #-2147483648
     858:	52800400 	mov	w0, #0x20                  	// #32
/home/lagadanu/Desktop/qemu/optee_os/lib/libutee/arch/arm/user_ta_entry.c:106
     85c:	129ffe73 	mov	w19, #0xffff000c            	// #-65524
/home/lagadanu/Desktop/qemu/optee_os/lib/libutee/arch/arm/user_ta_entry.c:103
     860:	97ffff96 	bl	6b8 <TEE_Malloc>
/home/lagadanu/Desktop/qemu/optee_os/lib/libutee/arch/arm/user_ta_entry.c:105
     864:	b5000300 	cbnz	x0, 8c4 <__utee_entry+0xc8>
ta_header_save_params():
/home/lagadanu/Desktop/qemu/optee_os/lib/libutee/arch/arm/user_ta_entry.c:69
     868:	90000040 	adrp	x0, 8000 <PRIME_TABLE+0xb30>
/home/lagadanu/Desktop/qemu/optee_os/lib/libutee/arch/arm/user_ta_entry.c:74
     86c:	d2800802 	mov	x2, #0x40                  	// #64
/home/lagadanu/Desktop/qemu/optee_os/lib/libutee/arch/arm/user_ta_entry.c:69
     870:	f945ac01 	ldr	x1, [x0,#2904]
/home/lagadanu/Desktop/qemu/optee_os/lib/libutee/arch/arm/user_ta_entry.c:74
     874:	f945b400 	ldr	x0, [x0,#2920]
/home/lagadanu/Desktop/qemu/optee_os/lib/libutee/arch/arm/user_ta_entry.c:69
     878:	b900003f 	str	wzr, [x1]
/home/lagadanu/Desktop/qemu/optee_os/lib/libutee/arch/arm/user_ta_entry.c:74
     87c:	52800001 	mov	w1, #0x0                   	// #0
     880:	940016c3 	bl	638c <memset>
__utee_entry():
/home/lagadanu/Desktop/qemu/optee_os/lib/libutee/arch/arm/user_ta_entry.c:227
     884:	2a1303e0 	mov	w0, w19
     888:	94000062 	bl	a10 <utee_return>
ta_header_add_session():
/home/lagadanu/Desktop/qemu/optee_os/lib/libutee/arch/arm/user_ta_entry.c:97
     88c:	52800021 	mov	w1, #0x1                   	// #1
     890:	392e0001 	strb	w1, [x0,#2944]
init_instance():
/home/lagadanu/Desktop/qemu/optee_os/lib/libutee/arch/arm/user_ta_entry.c:53
     894:	97fffe6e 	bl	24c <tahead_get_trace_level>
     898:	940019e7 	bl	7034 <trace_set_level>
/home/lagadanu/Desktop/qemu/optee_os/lib/libutee/arch/arm/user_ta_entry.c:55
     89c:	90000040 	adrp	x0, 8000 <PRIME_TABLE+0xb30>
     8a0:	f9459801 	ldr	x1, [x0,#2864]
     8a4:	f945a800 	ldr	x0, [x0,#2896]
     8a8:	f9400021 	ldr	x1, [x1]
     8ac:	94001596 	bl	5f04 <malloc_add_pool>
/home/lagadanu/Desktop/qemu/optee_os/lib/libutee/arch/arm/user_ta_entry.c:56
     8b0:	9400012e 	bl	d68 <_TEE_MathAPI_Init>
/home/lagadanu/Desktop/qemu/optee_os/lib/libutee/arch/arm/user_ta_entry.c:57
     8b4:	97fffddb 	bl	20 <TA_CreateEntryPoint>
     8b8:	2a0003f3 	mov	w19, w0
ta_header_add_session():
/home/lagadanu/Desktop/qemu/optee_os/lib/libutee/arch/arm/user_ta_entry.c:99
     8bc:	34fffcc0 	cbz	w0, 854 <__utee_entry+0x58>
     8c0:	17ffffea 	b	868 <__utee_entry+0x6c>
/home/lagadanu/Desktop/qemu/optee_os/lib/libutee/arch/arm/user_ta_entry.c:109
     8c4:	b0000041 	adrp	x1, 9000 <ta_props>
     8c8:	9102c021 	add	x1, x1, #0xb0
     8cc:	f9400422 	ldr	x2, [x1,#8]
     8d0:	f9000c02 	str	x2, [x0,#24]
/home/lagadanu/Desktop/qemu/optee_os/lib/libutee/arch/arm/user_ta_entry.c:107
     8d4:	b9000014 	str	w20, [x0]
/home/lagadanu/Desktop/qemu/optee_os/lib/libutee/arch/arm/user_ta_entry.c:109
     8d8:	a900fc1f 	stp	xzr, xzr, [x0,#8]
     8dc:	f9000040 	str	x0, [x2]
     8e0:	91004000 	add	x0, x0, #0x10
     8e4:	f9000420 	str	x0, [x1,#8]
entry_open_session():
/home/lagadanu/Desktop/qemu/optee_os/lib/libutee/arch/arm/user_ta_entry.c:147
     8e8:	2a1403e0 	mov	w0, w20
/home/lagadanu/Desktop/qemu/optee_os/lib/libutee/arch/arm/user_ta_entry.c:149
     8ec:	129fff13 	mov	w19, #0xffff0007            	// #-65529
/home/lagadanu/Desktop/qemu/optee_os/lib/libutee/arch/arm/user_ta_entry.c:147
     8f0:	97ffff94 	bl	740 <ta_header_get_session>
     8f4:	aa0003f7 	mov	x23, x0
/home/lagadanu/Desktop/qemu/optee_os/lib/libutee/arch/arm/user_ta_entry.c:148
     8f8:	b4fffb80 	cbz	x0, 868 <__utee_entry+0x6c>
/home/lagadanu/Desktop/qemu/optee_os/lib/libutee/arch/arm/user_ta_entry.c:151
     8fc:	910143b5 	add	x21, x29, #0x50
     900:	aa1603e2 	mov	x2, x22
     904:	910133a1 	add	x1, x29, #0x4c
     908:	aa1503e0 	mov	x0, x21
     90c:	97fffe70 	bl	2cc <__utee_to_param>
/home/lagadanu/Desktop/qemu/optee_os/lib/libutee/arch/arm/user_ta_entry.c:152
     910:	b9404fb3 	ldr	w19, [x29,#76]
ta_header_save_params():
/home/lagadanu/Desktop/qemu/optee_os/lib/libutee/arch/arm/user_ta_entry.c:69
     914:	90000040 	adrp	x0, 8000 <PRIME_TABLE+0xb30>
/home/lagadanu/Desktop/qemu/optee_os/lib/libutee/arch/arm/user_ta_entry.c:72
     918:	d2800802 	mov	x2, #0x40                  	// #64
/home/lagadanu/Desktop/qemu/optee_os/lib/libutee/arch/arm/user_ta_entry.c:69
     91c:	f945ac01 	ldr	x1, [x0,#2904]
/home/lagadanu/Desktop/qemu/optee_os/lib/libutee/arch/arm/user_ta_entry.c:72
     920:	f945b400 	ldr	x0, [x0,#2920]
/home/lagadanu/Desktop/qemu/optee_os/lib/libutee/arch/arm/user_ta_entry.c:69
     924:	b9000033 	str	w19, [x1]
/home/lagadanu/Desktop/qemu/optee_os/lib/libutee/arch/arm/user_ta_entry.c:72
     928:	aa1503e1 	mov	x1, x21
     92c:	9400167d 	bl	6320 <memcpy>
entry_open_session():
/home/lagadanu/Desktop/qemu/optee_os/lib/libutee/arch/arm/user_ta_entry.c:154
     930:	910022e2 	add	x2, x23, #0x8
     934:	aa1503e1 	mov	x1, x21
     938:	2a1303e0 	mov	w0, w19
     93c:	97fffdbc 	bl	2c <TA_OpenSessionEntryPoint>
/home/lagadanu/Desktop/qemu/optee_os/lib/libutee/arch/arm/user_ta_entry.c:157
     940:	b9404fa1 	ldr	w1, [x29,#76]
/home/lagadanu/Desktop/qemu/optee_os/lib/libutee/arch/arm/user_ta_entry.c:154
     944:	2a0003f3 	mov	w19, w0
/home/lagadanu/Desktop/qemu/optee_os/lib/libutee/arch/arm/user_ta_entry.c:157
     948:	aa1503e2 	mov	x2, x21
     94c:	aa1603e0 	mov	x0, x22
     950:	97fffe41 	bl	254 <__utee_from_param>
/home/lagadanu/Desktop/qemu/optee_os/lib/libutee/arch/arm/user_ta_entry.c:159
     954:	34fff8b3 	cbz	w19, 868 <__utee_entry+0x6c>
/home/lagadanu/Desktop/qemu/optee_os/lib/libutee/arch/arm/user_ta_entry.c:160
     958:	2a1403e0 	mov	w0, w20
     95c:	97ffff83 	bl	768 <ta_header_remove_session>
     960:	17ffffc2 	b	868 <__utee_entry+0x6c>
entry_close_session():
/home/lagadanu/Desktop/qemu/optee_os/lib/libutee/arch/arm/user_ta_entry.c:166
     964:	2a0103e0 	mov	w0, w1
/home/lagadanu/Desktop/qemu/optee_os/lib/libutee/arch/arm/user_ta_entry.c:169
     968:	129fff13 	mov	w19, #0xffff0007            	// #-65529
/home/lagadanu/Desktop/qemu/optee_os/lib/libutee/arch/arm/user_ta_entry.c:166
     96c:	97ffff75 	bl	740 <ta_header_get_session>
/home/lagadanu/Desktop/qemu/optee_os/lib/libutee/arch/arm/user_ta_entry.c:168
     970:	b4fff7c0 	cbz	x0, 868 <__utee_entry+0x6c>
/home/lagadanu/Desktop/qemu/optee_os/lib/libutee/arch/arm/user_ta_entry.c:171
     974:	f9400400 	ldr	x0, [x0,#8]
/home/lagadanu/Desktop/qemu/optee_os/lib/libutee/arch/arm/user_ta_entry.c:174
     978:	52800013 	mov	w19, #0x0                   	// #0
/home/lagadanu/Desktop/qemu/optee_os/lib/libutee/arch/arm/user_ta_entry.c:171
     97c:	97fffdae 	bl	34 <TA_CloseSessionEntryPoint>
/home/lagadanu/Desktop/qemu/optee_os/lib/libutee/arch/arm/user_ta_entry.c:173
     980:	2a1403e0 	mov	w0, w20
     984:	97ffff79 	bl	768 <ta_header_remove_session>
     988:	17ffffb8 	b	868 <__utee_entry+0x6c>
entry_invoke_command():
/home/lagadanu/Desktop/qemu/optee_os/lib/libutee/arch/arm/user_ta_entry.c:183
     98c:	2a0103e0 	mov	w0, w1
/home/lagadanu/Desktop/qemu/optee_os/lib/libutee/arch/arm/user_ta_entry.c:186
     990:	129fff13 	mov	w19, #0xffff0007            	// #-65529
/home/lagadanu/Desktop/qemu/optee_os/lib/libutee/arch/arm/user_ta_entry.c:183
     994:	97ffff6b 	bl	740 <ta_header_get_session>
     998:	aa0003f5 	mov	x21, x0
/home/lagadanu/Desktop/qemu/optee_os/lib/libutee/arch/arm/user_ta_entry.c:185
     99c:	b4fff660 	cbz	x0, 868 <__utee_entry+0x6c>
/home/lagadanu/Desktop/qemu/optee_os/lib/libutee/arch/arm/user_ta_entry.c:188
     9a0:	910143b4 	add	x20, x29, #0x50
     9a4:	aa0303f7 	mov	x23, x3
     9a8:	aa1603e2 	mov	x2, x22
     9ac:	910133a1 	add	x1, x29, #0x4c
     9b0:	aa1403e0 	mov	x0, x20
     9b4:	97fffe46 	bl	2cc <__utee_to_param>
ta_header_save_params():
/home/lagadanu/Desktop/qemu/optee_os/lib/libutee/arch/arm/user_ta_entry.c:69
     9b8:	90000040 	adrp	x0, 8000 <PRIME_TABLE+0xb30>
entry_invoke_command():
/home/lagadanu/Desktop/qemu/optee_os/lib/libutee/arch/arm/user_ta_entry.c:189
     9bc:	b9404fb3 	ldr	w19, [x29,#76]
ta_header_save_params():
/home/lagadanu/Desktop/qemu/optee_os/lib/libutee/arch/arm/user_ta_entry.c:72
     9c0:	d2800802 	mov	x2, #0x40                  	// #64
/home/lagadanu/Desktop/qemu/optee_os/lib/libutee/arch/arm/user_ta_entry.c:69
     9c4:	f945ac01 	ldr	x1, [x0,#2904]
/home/lagadanu/Desktop/qemu/optee_os/lib/libutee/arch/arm/user_ta_entry.c:72
     9c8:	f945b400 	ldr	x0, [x0,#2920]
/home/lagadanu/Desktop/qemu/optee_os/lib/libutee/arch/arm/user_ta_entry.c:69
     9cc:	b9000033 	str	w19, [x1]
/home/lagadanu/Desktop/qemu/optee_os/lib/libutee/arch/arm/user_ta_entry.c:72
     9d0:	aa1403e1 	mov	x1, x20
     9d4:	94001653 	bl	6320 <memcpy>
entry_invoke_command():
/home/lagadanu/Desktop/qemu/optee_os/lib/libutee/arch/arm/user_ta_entry.c:191
     9d8:	f94006a0 	ldr	x0, [x21,#8]
     9dc:	2a1303e2 	mov	w2, w19
     9e0:	2a1703e1 	mov	w1, w23
     9e4:	aa1403e3 	mov	x3, x20
     9e8:	97fffd94 	bl	38 <TA_InvokeCommandEntryPoint>
     9ec:	2a0003f3 	mov	w19, w0
/home/lagadanu/Desktop/qemu/optee_os/lib/libutee/arch/arm/user_ta_entry.c:194
     9f0:	b9404fa1 	ldr	w1, [x29,#76]
     9f4:	aa1403e2 	mov	x2, x20
     9f8:	aa1603e0 	mov	x0, x22
     9fc:	97fffe16 	bl	254 <__utee_from_param>
     a00:	17ffff9a 	b	868 <__utee_entry+0x6c>

0000000000000a04 <utee_panic>:
utee_panic():
/home/lagadanu/Desktop/qemu/optee_os/lib/libutee/arch/arm/utee_syscalls_a64.S:24
     a04:	a9bf7bfd 	stp	x29, x30, [sp,#-16]!
/home/lagadanu/Desktop/qemu/optee_os/lib/libutee/arch/arm/utee_syscalls_a64.S:25
     a08:	910003e1 	mov	x1, sp
/home/lagadanu/Desktop/qemu/optee_os/lib/libutee/arch/arm/utee_syscalls_a64.S:26
     a0c:	94000007 	bl	a28 <__utee_panic>

0000000000000a10 <utee_return>:
utee_return():
/home/lagadanu/Desktop/qemu/optee_os/lib/libutee/arch/arm/utee_syscalls_asm.S:8
     a10:	d2800008 	mov	x8, #0x0                   	// #0
     a14:	d4000001 	svc	#0x0
     a18:	d65f03c0 	ret

0000000000000a1c <utee_log>:
utee_log():
/home/lagadanu/Desktop/qemu/optee_os/lib/libutee/arch/arm/utee_syscalls_asm.S:10
     a1c:	d2800028 	mov	x8, #0x1                   	// #1
     a20:	d4000001 	svc	#0x0
     a24:	d65f03c0 	ret

0000000000000a28 <__utee_panic>:
__utee_panic():
/home/lagadanu/Desktop/qemu/optee_os/lib/libutee/arch/arm/utee_syscalls_asm.S:12
     a28:	d2800048 	mov	x8, #0x2                   	// #2
     a2c:	d4000001 	svc	#0x0
     a30:	d65f03c0 	ret

0000000000000a34 <utee_get_property>:
utee_get_property():
/home/lagadanu/Desktop/qemu/optee_os/lib/libutee/arch/arm/utee_syscalls_asm.S:14
     a34:	d2800068 	mov	x8, #0x3                   	// #3
     a38:	d4000001 	svc	#0x0
     a3c:	d65f03c0 	ret

0000000000000a40 <utee_get_property_name_to_index>:
utee_get_property_name_to_index():
/home/lagadanu/Desktop/qemu/optee_os/lib/libutee/arch/arm/utee_syscalls_asm.S:16
     a40:	d2800088 	mov	x8, #0x4                   	// #4
     a44:	d4000001 	svc	#0x0
     a48:	d65f03c0 	ret

0000000000000a4c <utee_open_ta_session>:
utee_open_ta_session():
/home/lagadanu/Desktop/qemu/optee_os/lib/libutee/arch/arm/utee_syscalls_asm.S:19
     a4c:	d28000a8 	mov	x8, #0x5                   	// #5
     a50:	d4000001 	svc	#0x0
     a54:	d65f03c0 	ret

0000000000000a58 <utee_close_ta_session>:
utee_close_ta_session():
/home/lagadanu/Desktop/qemu/optee_os/lib/libutee/arch/arm/utee_syscalls_asm.S:21
     a58:	d28000c8 	mov	x8, #0x6                   	// #6
     a5c:	d4000001 	svc	#0x0
     a60:	d65f03c0 	ret

0000000000000a64 <utee_invoke_ta_command>:
utee_invoke_ta_command():
/home/lagadanu/Desktop/qemu/optee_os/lib/libutee/arch/arm/utee_syscalls_asm.S:23
     a64:	d28000e8 	mov	x8, #0x7                   	// #7
     a68:	d4000001 	svc	#0x0
     a6c:	d65f03c0 	ret

0000000000000a70 <utee_get_cancellation_flag>:
utee_get_cancellation_flag():
/home/lagadanu/Desktop/qemu/optee_os/lib/libutee/arch/arm/utee_syscalls_asm.S:25
     a70:	d2800128 	mov	x8, #0x9                   	// #9
     a74:	d4000001 	svc	#0x0
     a78:	d65f03c0 	ret

0000000000000a7c <utee_check_access_rights>:
utee_check_access_rights():
/home/lagadanu/Desktop/qemu/optee_os/lib/libutee/arch/arm/utee_syscalls_asm.S:28
     a7c:	d2800108 	mov	x8, #0x8                   	// #8
     a80:	d4000001 	svc	#0x0
     a84:	d65f03c0 	ret

0000000000000a88 <utee_unmask_cancellation>:
utee_unmask_cancellation():
/home/lagadanu/Desktop/qemu/optee_os/lib/libutee/arch/arm/utee_syscalls_asm.S:30
     a88:	d2800148 	mov	x8, #0xa                   	// #10
     a8c:	d4000001 	svc	#0x0
     a90:	d65f03c0 	ret

0000000000000a94 <utee_mask_cancellation>:
utee_mask_cancellation():
/home/lagadanu/Desktop/qemu/optee_os/lib/libutee/arch/arm/utee_syscalls_asm.S:32
     a94:	d2800168 	mov	x8, #0xb                   	// #11
     a98:	d4000001 	svc	#0x0
     a9c:	d65f03c0 	ret

0000000000000aa0 <utee_wait>:
utee_wait():
/home/lagadanu/Desktop/qemu/optee_os/lib/libutee/arch/arm/utee_syscalls_asm.S:34
     aa0:	d2800188 	mov	x8, #0xc                   	// #12
     aa4:	d4000001 	svc	#0x0
     aa8:	d65f03c0 	ret

0000000000000aac <utee_get_time>:
utee_get_time():
/home/lagadanu/Desktop/qemu/optee_os/lib/libutee/arch/arm/utee_syscalls_asm.S:36
     aac:	d28001a8 	mov	x8, #0xd                   	// #13
     ab0:	d4000001 	svc	#0x0
     ab4:	d65f03c0 	ret

0000000000000ab8 <utee_set_ta_time>:
utee_set_ta_time():
/home/lagadanu/Desktop/qemu/optee_os/lib/libutee/arch/arm/utee_syscalls_asm.S:38
     ab8:	d28001c8 	mov	x8, #0xe                   	// #14
     abc:	d4000001 	svc	#0x0
     ac0:	d65f03c0 	ret

0000000000000ac4 <utee_cryp_state_alloc>:
utee_cryp_state_alloc():
/home/lagadanu/Desktop/qemu/optee_os/lib/libutee/arch/arm/utee_syscalls_asm.S:40
     ac4:	d28001e8 	mov	x8, #0xf                   	// #15
     ac8:	d4000001 	svc	#0x0
     acc:	d65f03c0 	ret

0000000000000ad0 <utee_cryp_state_copy>:
utee_cryp_state_copy():
/home/lagadanu/Desktop/qemu/optee_os/lib/libutee/arch/arm/utee_syscalls_asm.S:42
     ad0:	d2800208 	mov	x8, #0x10                  	// #16
     ad4:	d4000001 	svc	#0x0
     ad8:	d65f03c0 	ret

0000000000000adc <utee_cryp_state_free>:
utee_cryp_state_free():
/home/lagadanu/Desktop/qemu/optee_os/lib/libutee/arch/arm/utee_syscalls_asm.S:44
     adc:	d2800228 	mov	x8, #0x11                  	// #17
     ae0:	d4000001 	svc	#0x0
     ae4:	d65f03c0 	ret

0000000000000ae8 <utee_hash_init>:
utee_hash_init():
/home/lagadanu/Desktop/qemu/optee_os/lib/libutee/arch/arm/utee_syscalls_asm.S:46
     ae8:	d2800248 	mov	x8, #0x12                  	// #18
     aec:	d4000001 	svc	#0x0
     af0:	d65f03c0 	ret

0000000000000af4 <utee_hash_update>:
utee_hash_update():
/home/lagadanu/Desktop/qemu/optee_os/lib/libutee/arch/arm/utee_syscalls_asm.S:48
     af4:	d2800268 	mov	x8, #0x13                  	// #19
     af8:	d4000001 	svc	#0x0
     afc:	d65f03c0 	ret

0000000000000b00 <utee_hash_final>:
utee_hash_final():
/home/lagadanu/Desktop/qemu/optee_os/lib/libutee/arch/arm/utee_syscalls_asm.S:50
     b00:	d2800288 	mov	x8, #0x14                  	// #20
     b04:	d4000001 	svc	#0x0
     b08:	d65f03c0 	ret

0000000000000b0c <utee_cipher_init>:
utee_cipher_init():
/home/lagadanu/Desktop/qemu/optee_os/lib/libutee/arch/arm/utee_syscalls_asm.S:52
     b0c:	d28002a8 	mov	x8, #0x15                  	// #21
     b10:	d4000001 	svc	#0x0
     b14:	d65f03c0 	ret

0000000000000b18 <utee_cipher_update>:
utee_cipher_update():
/home/lagadanu/Desktop/qemu/optee_os/lib/libutee/arch/arm/utee_syscalls_asm.S:54
     b18:	d28002c8 	mov	x8, #0x16                  	// #22
     b1c:	d4000001 	svc	#0x0
     b20:	d65f03c0 	ret

0000000000000b24 <utee_cipher_final>:
utee_cipher_final():
/home/lagadanu/Desktop/qemu/optee_os/lib/libutee/arch/arm/utee_syscalls_asm.S:56
     b24:	d28002e8 	mov	x8, #0x17                  	// #23
     b28:	d4000001 	svc	#0x0
     b2c:	d65f03c0 	ret

0000000000000b30 <utee_cryp_obj_get_info>:
utee_cryp_obj_get_info():
/home/lagadanu/Desktop/qemu/optee_os/lib/libutee/arch/arm/utee_syscalls_asm.S:58
     b30:	d2800308 	mov	x8, #0x18                  	// #24
     b34:	d4000001 	svc	#0x0
     b38:	d65f03c0 	ret

0000000000000b3c <utee_cryp_obj_restrict_usage>:
utee_cryp_obj_restrict_usage():
/home/lagadanu/Desktop/qemu/optee_os/lib/libutee/arch/arm/utee_syscalls_asm.S:60
     b3c:	d2800328 	mov	x8, #0x19                  	// #25
     b40:	d4000001 	svc	#0x0
     b44:	d65f03c0 	ret

0000000000000b48 <utee_cryp_obj_get_attr>:
utee_cryp_obj_get_attr():
/home/lagadanu/Desktop/qemu/optee_os/lib/libutee/arch/arm/utee_syscalls_asm.S:63
     b48:	d2800348 	mov	x8, #0x1a                  	// #26
     b4c:	d4000001 	svc	#0x0
     b50:	d65f03c0 	ret

0000000000000b54 <utee_cryp_obj_alloc>:
utee_cryp_obj_alloc():
/home/lagadanu/Desktop/qemu/optee_os/lib/libutee/arch/arm/utee_syscalls_asm.S:65
     b54:	d2800368 	mov	x8, #0x1b                  	// #27
     b58:	d4000001 	svc	#0x0
     b5c:	d65f03c0 	ret

0000000000000b60 <utee_cryp_obj_close>:
utee_cryp_obj_close():
/home/lagadanu/Desktop/qemu/optee_os/lib/libutee/arch/arm/utee_syscalls_asm.S:67
     b60:	d2800388 	mov	x8, #0x1c                  	// #28
     b64:	d4000001 	svc	#0x0
     b68:	d65f03c0 	ret

0000000000000b6c <utee_cryp_obj_reset>:
utee_cryp_obj_reset():
/home/lagadanu/Desktop/qemu/optee_os/lib/libutee/arch/arm/utee_syscalls_asm.S:69
     b6c:	d28003a8 	mov	x8, #0x1d                  	// #29
     b70:	d4000001 	svc	#0x0
     b74:	d65f03c0 	ret

0000000000000b78 <utee_cryp_obj_populate>:
utee_cryp_obj_populate():
/home/lagadanu/Desktop/qemu/optee_os/lib/libutee/arch/arm/utee_syscalls_asm.S:71
     b78:	d28003c8 	mov	x8, #0x1e                  	// #30
     b7c:	d4000001 	svc	#0x0
     b80:	d65f03c0 	ret

0000000000000b84 <utee_cryp_obj_copy>:
utee_cryp_obj_copy():
/home/lagadanu/Desktop/qemu/optee_os/lib/libutee/arch/arm/utee_syscalls_asm.S:73
     b84:	d28003e8 	mov	x8, #0x1f                  	// #31
     b88:	d4000001 	svc	#0x0
     b8c:	d65f03c0 	ret

0000000000000b90 <utee_cryp_derive_key>:
utee_cryp_derive_key():
/home/lagadanu/Desktop/qemu/optee_os/lib/libutee/arch/arm/utee_syscalls_asm.S:75
     b90:	d2800408 	mov	x8, #0x20                  	// #32
     b94:	d4000001 	svc	#0x0
     b98:	d65f03c0 	ret

0000000000000b9c <utee_cryp_random_number_generate>:
utee_cryp_random_number_generate():
/home/lagadanu/Desktop/qemu/optee_os/lib/libutee/arch/arm/utee_syscalls_asm.S:77
     b9c:	d2800428 	mov	x8, #0x21                  	// #33
     ba0:	d4000001 	svc	#0x0
     ba4:	d65f03c0 	ret

0000000000000ba8 <utee_authenc_init>:
utee_authenc_init():
/home/lagadanu/Desktop/qemu/optee_os/lib/libutee/arch/arm/utee_syscalls_asm.S:80
     ba8:	d2800448 	mov	x8, #0x22                  	// #34
     bac:	d4000001 	svc	#0x0
     bb0:	d65f03c0 	ret

0000000000000bb4 <utee_authenc_update_aad>:
utee_authenc_update_aad():
/home/lagadanu/Desktop/qemu/optee_os/lib/libutee/arch/arm/utee_syscalls_asm.S:82
     bb4:	d2800468 	mov	x8, #0x23                  	// #35
     bb8:	d4000001 	svc	#0x0
     bbc:	d65f03c0 	ret

0000000000000bc0 <utee_authenc_update_payload>:
utee_authenc_update_payload():
/home/lagadanu/Desktop/qemu/optee_os/lib/libutee/arch/arm/utee_syscalls_asm.S:84
     bc0:	d2800488 	mov	x8, #0x24                  	// #36
     bc4:	d4000001 	svc	#0x0
     bc8:	d65f03c0 	ret

0000000000000bcc <utee_authenc_enc_final>:
utee_authenc_enc_final():
/home/lagadanu/Desktop/qemu/optee_os/lib/libutee/arch/arm/utee_syscalls_asm.S:87
     bcc:	d28004a8 	mov	x8, #0x25                  	// #37
     bd0:	d4000001 	svc	#0x0
     bd4:	d65f03c0 	ret

0000000000000bd8 <utee_authenc_dec_final>:
utee_authenc_dec_final():
/home/lagadanu/Desktop/qemu/optee_os/lib/libutee/arch/arm/utee_syscalls_asm.S:89
     bd8:	d28004c8 	mov	x8, #0x26                  	// #38
     bdc:	d4000001 	svc	#0x0
     be0:	d65f03c0 	ret

0000000000000be4 <utee_asymm_operate>:
utee_asymm_operate():
/home/lagadanu/Desktop/qemu/optee_os/lib/libutee/arch/arm/utee_syscalls_asm.S:91
     be4:	d28004e8 	mov	x8, #0x27                  	// #39
     be8:	d4000001 	svc	#0x0
     bec:	d65f03c0 	ret

0000000000000bf0 <utee_asymm_verify>:
utee_asymm_verify():
/home/lagadanu/Desktop/qemu/optee_os/lib/libutee/arch/arm/utee_syscalls_asm.S:93
     bf0:	d2800508 	mov	x8, #0x28                  	// #40
     bf4:	d4000001 	svc	#0x0
     bf8:	d65f03c0 	ret

0000000000000bfc <utee_storage_obj_open>:
utee_storage_obj_open():
/home/lagadanu/Desktop/qemu/optee_os/lib/libutee/arch/arm/utee_syscalls_asm.S:95
     bfc:	d2800528 	mov	x8, #0x29                  	// #41
     c00:	d4000001 	svc	#0x0
     c04:	d65f03c0 	ret

0000000000000c08 <utee_storage_obj_create>:
utee_storage_obj_create():
/home/lagadanu/Desktop/qemu/optee_os/lib/libutee/arch/arm/utee_syscalls_asm.S:97
     c08:	d2800548 	mov	x8, #0x2a                  	// #42
     c0c:	d4000001 	svc	#0x0
     c10:	d65f03c0 	ret

0000000000000c14 <utee_storage_obj_del>:
utee_storage_obj_del():
/home/lagadanu/Desktop/qemu/optee_os/lib/libutee/arch/arm/utee_syscalls_asm.S:99
     c14:	d2800568 	mov	x8, #0x2b                  	// #43
     c18:	d4000001 	svc	#0x0
     c1c:	d65f03c0 	ret

0000000000000c20 <utee_storage_obj_rename>:
utee_storage_obj_rename():
/home/lagadanu/Desktop/qemu/optee_os/lib/libutee/arch/arm/utee_syscalls_asm.S:101
     c20:	d2800588 	mov	x8, #0x2c                  	// #44
     c24:	d4000001 	svc	#0x0
     c28:	d65f03c0 	ret

0000000000000c2c <utee_storage_alloc_enum>:
utee_storage_alloc_enum():
/home/lagadanu/Desktop/qemu/optee_os/lib/libutee/arch/arm/utee_syscalls_asm.S:103
     c2c:	d28005a8 	mov	x8, #0x2d                  	// #45
     c30:	d4000001 	svc	#0x0
     c34:	d65f03c0 	ret

0000000000000c38 <utee_storage_free_enum>:
utee_storage_free_enum():
/home/lagadanu/Desktop/qemu/optee_os/lib/libutee/arch/arm/utee_syscalls_asm.S:105
     c38:	d28005c8 	mov	x8, #0x2e                  	// #46
     c3c:	d4000001 	svc	#0x0
     c40:	d65f03c0 	ret

0000000000000c44 <utee_storage_reset_enum>:
utee_storage_reset_enum():
/home/lagadanu/Desktop/qemu/optee_os/lib/libutee/arch/arm/utee_syscalls_asm.S:107
     c44:	d28005e8 	mov	x8, #0x2f                  	// #47
     c48:	d4000001 	svc	#0x0
     c4c:	d65f03c0 	ret

0000000000000c50 <utee_storage_start_enum>:
utee_storage_start_enum():
/home/lagadanu/Desktop/qemu/optee_os/lib/libutee/arch/arm/utee_syscalls_asm.S:109
     c50:	d2800608 	mov	x8, #0x30                  	// #48
     c54:	d4000001 	svc	#0x0
     c58:	d65f03c0 	ret

0000000000000c5c <utee_storage_next_enum>:
utee_storage_next_enum():
/home/lagadanu/Desktop/qemu/optee_os/lib/libutee/arch/arm/utee_syscalls_asm.S:111
     c5c:	d2800628 	mov	x8, #0x31                  	// #49
     c60:	d4000001 	svc	#0x0
     c64:	d65f03c0 	ret

0000000000000c68 <utee_storage_obj_read>:
utee_storage_obj_read():
/home/lagadanu/Desktop/qemu/optee_os/lib/libutee/arch/arm/utee_syscalls_asm.S:113
     c68:	d2800648 	mov	x8, #0x32                  	// #50
     c6c:	d4000001 	svc	#0x0
     c70:	d65f03c0 	ret

0000000000000c74 <utee_storage_obj_write>:
utee_storage_obj_write():
/home/lagadanu/Desktop/qemu/optee_os/lib/libutee/arch/arm/utee_syscalls_asm.S:115
     c74:	d2800668 	mov	x8, #0x33                  	// #51
     c78:	d4000001 	svc	#0x0
     c7c:	d65f03c0 	ret

0000000000000c80 <utee_storage_obj_trunc>:
utee_storage_obj_trunc():
/home/lagadanu/Desktop/qemu/optee_os/lib/libutee/arch/arm/utee_syscalls_asm.S:117
     c80:	d2800688 	mov	x8, #0x34                  	// #52
     c84:	d4000001 	svc	#0x0
     c88:	d65f03c0 	ret

0000000000000c8c <utee_storage_obj_seek>:
utee_storage_obj_seek():
/home/lagadanu/Desktop/qemu/optee_os/lib/libutee/arch/arm/utee_syscalls_asm.S:119
     c8c:	d28006a8 	mov	x8, #0x35                  	// #53
     c90:	d4000001 	svc	#0x0
     c94:	d65f03c0 	ret

0000000000000c98 <utee_cryp_obj_generate_key>:
utee_cryp_obj_generate_key():
/home/lagadanu/Desktop/qemu/optee_os/lib/libutee/arch/arm/utee_syscalls_asm.S:121
     c98:	d28006c8 	mov	x8, #0x36                  	// #54
     c9c:	d4000001 	svc	#0x0
     ca0:	d65f03c0 	ret

0000000000000ca4 <utee_se_service_open>:
utee_se_service_open():
/home/lagadanu/Desktop/qemu/optee_os/lib/libutee/arch/arm/utee_syscalls_asm.S:124
     ca4:	d28006e8 	mov	x8, #0x37                  	// #55
     ca8:	d4000001 	svc	#0x0
     cac:	d65f03c0 	ret

0000000000000cb0 <utee_se_service_close>:
utee_se_service_close():
/home/lagadanu/Desktop/qemu/optee_os/lib/libutee/arch/arm/utee_syscalls_asm.S:126
     cb0:	d2800708 	mov	x8, #0x38                  	// #56
     cb4:	d4000001 	svc	#0x0
     cb8:	d65f03c0 	ret

0000000000000cbc <utee_se_service_get_readers>:
utee_se_service_get_readers():
/home/lagadanu/Desktop/qemu/optee_os/lib/libutee/arch/arm/utee_syscalls_asm.S:128
     cbc:	d2800728 	mov	x8, #0x39                  	// #57
     cc0:	d4000001 	svc	#0x0
     cc4:	d65f03c0 	ret

0000000000000cc8 <utee_se_reader_get_prop>:
utee_se_reader_get_prop():
/home/lagadanu/Desktop/qemu/optee_os/lib/libutee/arch/arm/utee_syscalls_asm.S:131
     cc8:	d2800748 	mov	x8, #0x3a                  	// #58
     ccc:	d4000001 	svc	#0x0
     cd0:	d65f03c0 	ret

0000000000000cd4 <utee_se_reader_get_name>:
utee_se_reader_get_name():
/home/lagadanu/Desktop/qemu/optee_os/lib/libutee/arch/arm/utee_syscalls_asm.S:134
     cd4:	d2800768 	mov	x8, #0x3b                  	// #59
     cd8:	d4000001 	svc	#0x0
     cdc:	d65f03c0 	ret

0000000000000ce0 <utee_se_reader_open_session>:
utee_se_reader_open_session():
/home/lagadanu/Desktop/qemu/optee_os/lib/libutee/arch/arm/utee_syscalls_asm.S:137
     ce0:	d2800788 	mov	x8, #0x3c                  	// #60
     ce4:	d4000001 	svc	#0x0
     ce8:	d65f03c0 	ret

0000000000000cec <utee_se_reader_close_sessions>:
utee_se_reader_close_sessions():
/home/lagadanu/Desktop/qemu/optee_os/lib/libutee/arch/arm/utee_syscalls_asm.S:140
     cec:	d28007a8 	mov	x8, #0x3d                  	// #61
     cf0:	d4000001 	svc	#0x0
     cf4:	d65f03c0 	ret

0000000000000cf8 <utee_se_session_is_closed>:
utee_se_session_is_closed():
/home/lagadanu/Desktop/qemu/optee_os/lib/libutee/arch/arm/utee_syscalls_asm.S:143
     cf8:	d28007c8 	mov	x8, #0x3e                  	// #62
     cfc:	d4000001 	svc	#0x0
     d00:	d65f03c0 	ret

0000000000000d04 <utee_se_session_get_atr>:
utee_se_session_get_atr():
/home/lagadanu/Desktop/qemu/optee_os/lib/libutee/arch/arm/utee_syscalls_asm.S:146
     d04:	d28007e8 	mov	x8, #0x3f                  	// #63
     d08:	d4000001 	svc	#0x0
     d0c:	d65f03c0 	ret

0000000000000d10 <utee_se_session_open_channel>:
utee_se_session_open_channel():
/home/lagadanu/Desktop/qemu/optee_os/lib/libutee/arch/arm/utee_syscalls_asm.S:149
     d10:	d2800808 	mov	x8, #0x40                  	// #64
     d14:	d4000001 	svc	#0x0
     d18:	d65f03c0 	ret

0000000000000d1c <utee_se_session_close>:
utee_se_session_close():
/home/lagadanu/Desktop/qemu/optee_os/lib/libutee/arch/arm/utee_syscalls_asm.S:152
     d1c:	d2800828 	mov	x8, #0x41                  	// #65
     d20:	d4000001 	svc	#0x0
     d24:	d65f03c0 	ret

0000000000000d28 <utee_se_channel_select_next>:
utee_se_channel_select_next():
/home/lagadanu/Desktop/qemu/optee_os/lib/libutee/arch/arm/utee_syscalls_asm.S:155
     d28:	d2800848 	mov	x8, #0x42                  	// #66
     d2c:	d4000001 	svc	#0x0
     d30:	d65f03c0 	ret

0000000000000d34 <utee_se_channel_get_select_resp>:
utee_se_channel_get_select_resp():
/home/lagadanu/Desktop/qemu/optee_os/lib/libutee/arch/arm/utee_syscalls_asm.S:158
     d34:	d2800868 	mov	x8, #0x43                  	// #67
     d38:	d4000001 	svc	#0x0
     d3c:	d65f03c0 	ret

0000000000000d40 <utee_se_channel_transmit>:
utee_se_channel_transmit():
/home/lagadanu/Desktop/qemu/optee_os/lib/libutee/arch/arm/utee_syscalls_asm.S:161
     d40:	d2800888 	mov	x8, #0x44                  	// #68
     d44:	d4000001 	svc	#0x0
     d48:	d65f03c0 	ret

0000000000000d4c <utee_se_channel_close>:
utee_se_channel_close():
/home/lagadanu/Desktop/qemu/optee_os/lib/libutee/arch/arm/utee_syscalls_asm.S:164
     d4c:	d28008a8 	mov	x8, #0x45                  	// #69
     d50:	d4000001 	svc	#0x0
     d54:	d65f03c0 	ret

0000000000000d58 <utee_cache_operation>:
utee_cache_operation():
/home/lagadanu/Desktop/qemu/optee_os/lib/libutee/arch/arm/utee_syscalls_asm.S:167
     d58:	d28008c8 	mov	x8, #0x46                  	// #70
     d5c:	d4000001 	svc	#0x0
     d60:	d65f03c0 	ret

0000000000000d64 <__utee_mcount>:
__utee_mcount():
/home/lagadanu/Desktop/qemu/optee_os/lib/libutee/arch/arm/gprof/gprof_a64.S:52
     d64:	d65f03c0 	ret

0000000000000d68 <_TEE_MathAPI_Init>:
_TEE_MathAPI_Init():
/home/lagadanu/Desktop/qemu/optee_os/lib/libutee/tee_api_arith.c:50
     d68:	a9be7bfd 	stp	x29, x30, [sp,#-32]!
/home/lagadanu/Desktop/qemu/optee_os/lib/libutee/tee_api_arith.c:53
     d6c:	d2800002 	mov	x2, #0x0                   	// #0
     d70:	d2833001 	mov	x1, #0x1980                	// #6528
     d74:	b00000c0 	adrp	x0, 19000 <ta_heap+0xfeb8>
/home/lagadanu/Desktop/qemu/optee_os/lib/libutee/tee_api_arith.c:50
     d78:	910003fd 	mov	x29, sp
     d7c:	f9000bf3 	str	x19, [sp,#16]
/home/lagadanu/Desktop/qemu/optee_os/lib/libutee/tee_api_arith.c:53
     d80:	91066000 	add	x0, x0, #0x198
     d84:	9400194a 	bl	72ac <mempool_alloc_pool>
     d88:	d00000c1 	adrp	x1, 1a000 <mempool_u32+0xe68>
     d8c:	910a6022 	add	x2, x1, #0x298
     d90:	aa0103f3 	mov	x19, x1
     d94:	f9044040 	str	x0, [x2,#2176]
/home/lagadanu/Desktop/qemu/optee_os/lib/libutee/tee_api_arith.c:54
     d98:	b5000040 	cbnz	x0, da0 <_TEE_MathAPI_Init+0x38>
/home/lagadanu/Desktop/qemu/optee_os/lib/libutee/tee_api_arith.c:55
     d9c:	97fffe67 	bl	738 <TEE_Panic>
/home/lagadanu/Desktop/qemu/optee_os/lib/libutee/tee_api_arith.c:61
     da0:	910a6260 	add	x0, x19, #0x298
     da4:	52820002 	mov	w2, #0x1000                	// #4096
/home/lagadanu/Desktop/qemu/optee_os/lib/libutee/tee_api_arith.c:63
     da8:	f9400bf3 	ldr	x19, [sp,#16]
/home/lagadanu/Desktop/qemu/optee_os/lib/libutee/tee_api_arith.c:61
     dac:	91220001 	add	x1, x0, #0x880
     db0:	b9088802 	str	w2, [x0,#2184]
/home/lagadanu/Desktop/qemu/optee_os/lib/libutee/tee_api_arith.c:62
     db4:	f9044801 	str	x1, [x0,#2192]
/home/lagadanu/Desktop/qemu/optee_os/lib/libutee/tee_api_arith.c:63
     db8:	a8c27bfd 	ldp	x29, x30, [sp],#32
     dbc:	d65f03c0 	ret

0000000000000dc0 <TEE_BigIntInit>:
TEE_BigIntInit():
/home/lagadanu/Desktop/qemu/optee_os/lib/libutee/tee_api_arith.c:70
     dc0:	14000e4d 	b	46f4 <mpa_init_static>

0000000000000dc4 <TEE_BigIntInitFMM>:
TEE_BigIntInitFMM():
/home/lagadanu/Desktop/qemu/optee_os/lib/libutee/tee_api_arith.c:80
     dc4:	531e7421 	lsl	w1, w1, #2
     dc8:	51002021 	sub	w1, w1, #0x8
     dcc:	d3427c21 	ubfx	x1, x1, #2, #30
/home/lagadanu/Desktop/qemu/optee_os/lib/libutee/tee_api_arith.c:81
     dd0:	29007c01 	stp	w1, wzr, [x0]
     dd4:	d65f03c0 	ret

0000000000000dd8 <TEE_BigIntInitFMMContext>:
TEE_BigIntInitFMMContext():
/home/lagadanu/Desktop/qemu/optee_os/lib/libutee/tee_api_arith.c:89
     dd8:	a9be7bfd 	stp	x29, x30, [sp,#-32]!
     ddc:	910003fd 	mov	x29, sp
     de0:	a90153f3 	stp	x19, x20, [sp,#16]
     de4:	aa0003f3 	mov	x19, x0
     de8:	aa0203f4 	mov	x20, x2
/home/lagadanu/Desktop/qemu/optee_os/lib/libutee/tee_api_arith.c:93
     dec:	94000e49 	bl	4710 <mpa_init_static_fmm_context>
/home/lagadanu/Desktop/qemu/optee_os/lib/libutee/tee_api_arith.c:94
     df0:	d00000c0 	adrp	x0, 1a000 <mempool_u32+0xe68>
     df4:	91004263 	add	x3, x19, #0x10
     df8:	a9400a61 	ldp	x1, x2, [x19]
     dfc:	f9459404 	ldr	x4, [x0,#2856]
     e00:	aa1403e0 	mov	x0, x20
/home/lagadanu/Desktop/qemu/optee_os/lib/libutee/tee_api_arith.c:97
     e04:	a94153f3 	ldp	x19, x20, [sp,#16]
     e08:	a8c27bfd 	ldp	x29, x30, [sp],#32
/home/lagadanu/Desktop/qemu/optee_os/lib/libutee/tee_api_arith.c:94
     e0c:	140002e0 	b	198c <mpa_compute_fmm_context>

0000000000000e10 <TEE_BigIntFMMSizeInU32>:
TEE_BigIntFMMSizeInU32():
/home/lagadanu/Desktop/qemu/optee_os/lib/libutee/tee_api_arith.c:108
     e10:	11007c00 	add	w0, w0, #0x1f
     e14:	53057c00 	lsr	w0, w0, #5
/home/lagadanu/Desktop/qemu/optee_os/lib/libutee/tee_api_arith.c:109
     e18:	11000c00 	add	w0, w0, #0x3
     e1c:	d65f03c0 	ret

0000000000000e20 <TEE_BigIntFMMContextSizeInU32>:
TEE_BigIntFMMContextSizeInU32():
/home/lagadanu/Desktop/qemu/optee_os/lib/libutee/tee_api_arith.c:116
     e20:	11007c00 	add	w0, w0, #0x1f
     e24:	53057c00 	lsr	w0, w0, #5
     e28:	11001c00 	add	w0, w0, #0x7
/home/lagadanu/Desktop/qemu/optee_os/lib/libutee/tee_api_arith.c:117
     e2c:	531f7800 	lsl	w0, w0, #1
     e30:	d65f03c0 	ret

0000000000000e34 <TEE_BigIntConvertFromOctetString>:
TEE_BigIntConvertFromOctetString():
/home/lagadanu/Desktop/qemu/optee_os/lib/libutee/tee_api_arith.c:130
     e34:	a9bf7bfd 	stp	x29, x30, [sp,#-16]!
/home/lagadanu/Desktop/qemu/optee_os/lib/libutee/tee_api_arith.c:135
     e38:	531f7c63 	lsr	w3, w3, #31
     e3c:	2a0203e2 	mov	w2, w2
/home/lagadanu/Desktop/qemu/optee_os/lib/libutee/tee_api_arith.c:130
     e40:	910003fd 	mov	x29, sp
/home/lagadanu/Desktop/qemu/optee_os/lib/libutee/tee_api_arith.c:135
     e44:	94000f7b 	bl	4c30 <mpa_set_oct_str>
/home/lagadanu/Desktop/qemu/optee_os/lib/libutee/tee_api_arith.c:136
     e48:	7100001f 	cmp	w0, #0x0
/home/lagadanu/Desktop/qemu/optee_os/lib/libutee/tee_api_arith.c:145
     e4c:	a8c17bfd 	ldp	x29, x30, [sp],#16
     e50:	1299fe00 	mov	w0, #0xffff300f            	// #-53233
     e54:	1a9f1000 	csel	w0, w0, wzr, ne
     e58:	d65f03c0 	ret

0000000000000e5c <TEE_BigIntConvertToOctetString>:
TEE_BigIntConvertToOctetString():
/home/lagadanu/Desktop/qemu/optee_os/lib/libutee/tee_api_arith.c:153
     e5c:	a9bd7bfd 	stp	x29, x30, [sp,#-48]!
     e60:	910003fd 	mov	x29, sp
     e64:	f9000bf3 	str	x19, [sp,#16]
     e68:	aa0103f3 	mov	x19, x1
/home/lagadanu/Desktop/qemu/optee_os/lib/libutee/tee_api_arith.c:155
     e6c:	9100c3a1 	add	x1, x29, #0x30
     e70:	b9400263 	ldr	w3, [x19]
     e74:	f81f8c23 	str	x3, [x1,#-8]!
/home/lagadanu/Desktop/qemu/optee_os/lib/libutee/tee_api_arith.c:158
     e78:	94000fb2 	bl	4d40 <mpa_get_oct_str>
/home/lagadanu/Desktop/qemu/optee_os/lib/libutee/tee_api_arith.c:159
     e7c:	7100001f 	cmp	w0, #0x0
/home/lagadanu/Desktop/qemu/optee_os/lib/libutee/tee_api_arith.c:163
     e80:	f94017a0 	ldr	x0, [x29,#40]
     e84:	b9000260 	str	w0, [x19]
/home/lagadanu/Desktop/qemu/optee_os/lib/libutee/tee_api_arith.c:170
     e88:	f9400bf3 	ldr	x19, [sp,#16]
     e8c:	129ffde0 	mov	w0, #0xffff0010            	// #-65520
     e90:	1a9f1000 	csel	w0, w0, wzr, ne
     e94:	a8c37bfd 	ldp	x29, x30, [sp],#48
     e98:	d65f03c0 	ret

0000000000000e9c <TEE_BigIntConvertFromS32>:
TEE_BigIntConvertFromS32():
/home/lagadanu/Desktop/qemu/optee_os/lib/libutee/tee_api_arith.c:180
     e9c:	14000418 	b	1efc <mpa_set_S32>

0000000000000ea0 <TEE_BigIntConvertToS32>:
TEE_BigIntConvertToS32():
/home/lagadanu/Desktop/qemu/optee_os/lib/libutee/tee_api_arith.c:190
     ea0:	a9bf7bfd 	stp	x29, x30, [sp,#-16]!
     ea4:	910003fd 	mov	x29, sp
/home/lagadanu/Desktop/qemu/optee_os/lib/libutee/tee_api_arith.c:194
     ea8:	94000420 	bl	1f28 <mpa_get_S32>
/home/lagadanu/Desktop/qemu/optee_os/lib/libutee/tee_api_arith.c:195
     eac:	7100001f 	cmp	w0, #0x0
/home/lagadanu/Desktop/qemu/optee_os/lib/libutee/tee_api_arith.c:204
     eb0:	a8c17bfd 	ldp	x29, x30, [sp],#16
     eb4:	1299fe00 	mov	w0, #0xffff300f            	// #-53233
     eb8:	1a9f1000 	csel	w0, w0, wzr, ne
     ebc:	d65f03c0 	ret

0000000000000ec0 <TEE_BigIntCmp>:
TEE_BigIntCmp():
/home/lagadanu/Desktop/qemu/optee_os/lib/libutee/tee_api_arith.c:218
     ec0:	14000d63 	b	444c <mpa_cmp>

0000000000000ec4 <TEE_BigIntCmpS32>:
TEE_BigIntCmpS32():
/home/lagadanu/Desktop/qemu/optee_os/lib/libutee/tee_api_arith.c:228
     ec4:	14000d7c 	b	44b4 <mpa_cmp_short>

0000000000000ec8 <TEE_BigIntShiftRight>:
TEE_BigIntShiftRight():
/home/lagadanu/Desktop/qemu/optee_os/lib/libutee/tee_api_arith.c:240
     ec8:	14000a9a 	b	3930 <mpa_shift_right>

0000000000000ecc <TEE_BigIntGetBit>:
TEE_BigIntGetBit():
/home/lagadanu/Desktop/qemu/optee_os/lib/libutee/tee_api_arith.c:247
     ecc:	a9bf7bfd 	stp	x29, x30, [sp,#-16]!
     ed0:	910003fd 	mov	x29, sp
/home/lagadanu/Desktop/qemu/optee_os/lib/libutee/tee_api_arith.c:250
     ed4:	94000205 	bl	16e8 <mpa_get_bit>
     ed8:	7100001f 	cmp	w0, #0x0
/home/lagadanu/Desktop/qemu/optee_os/lib/libutee/tee_api_arith.c:251
     edc:	1a9f07e0 	cset	w0, ne
     ee0:	a8c17bfd 	ldp	x29, x30, [sp],#16
     ee4:	d65f03c0 	ret

0000000000000ee8 <TEE_BigIntGetBitCount>:
TEE_BigIntGetBitCount():
/home/lagadanu/Desktop/qemu/optee_os/lib/libutee/tee_api_arith.c:257
     ee8:	a9bf7bfd 	stp	x29, x30, [sp,#-16]!
     eec:	910003fd 	mov	x29, sp
/home/lagadanu/Desktop/qemu/optee_os/lib/libutee/tee_api_arith.c:260
     ef0:	940001ed 	bl	16a4 <mpa_highest_bit_index>
/home/lagadanu/Desktop/qemu/optee_os/lib/libutee/tee_api_arith.c:261
     ef4:	11000400 	add	w0, w0, #0x1
     ef8:	a8c17bfd 	ldp	x29, x30, [sp],#16
     efc:	d65f03c0 	ret

0000000000000f00 <TEE_BigIntAdd>:
TEE_BigIntAdd():
/home/lagadanu/Desktop/qemu/optee_os/lib/libutee/tee_api_arith.c:277
     f00:	d00000c3 	adrp	x3, 1a000 <mempool_u32+0xe68>
     f04:	f9459463 	ldr	x3, [x3,#2856]
     f08:	14000ba4 	b	3d98 <mpa_add>

0000000000000f0c <TEE_BigIntSub>:
TEE_BigIntSub():
/home/lagadanu/Desktop/qemu/optee_os/lib/libutee/tee_api_arith.c:290
     f0c:	d00000c3 	adrp	x3, 1a000 <mempool_u32+0xe68>
     f10:	f9459463 	ldr	x3, [x3,#2856]
     f14:	14000c06 	b	3f2c <mpa_sub>

0000000000000f18 <TEE_BigIntNeg>:
TEE_BigIntNeg():
/home/lagadanu/Desktop/qemu/optee_os/lib/libutee/tee_api_arith.c:301
     f18:	14000c6c 	b	40c8 <mpa_neg>

0000000000000f1c <TEE_BigIntMul>:
TEE_BigIntMul():
/home/lagadanu/Desktop/qemu/optee_os/lib/libutee/tee_api_arith.c:314
     f1c:	d00000c3 	adrp	x3, 1a000 <mempool_u32+0xe68>
     f20:	f9459463 	ldr	x3, [x3,#2856]
     f24:	1400091a 	b	338c <mpa_mul>

0000000000000f28 <TEE_BigIntSquare>:
TEE_BigIntSquare():
/home/lagadanu/Desktop/qemu/optee_os/lib/libutee/tee_api_arith.c:325
     f28:	d00000c2 	adrp	x2, 1a000 <mempool_u32+0xe68>
     f2c:	f9459443 	ldr	x3, [x2,#2856]
     f30:	aa0103e2 	mov	x2, x1
     f34:	14000916 	b	338c <mpa_mul>

0000000000000f38 <TEE_BigIntDiv>:
TEE_BigIntDiv():
/home/lagadanu/Desktop/qemu/optee_os/lib/libutee/tee_api_arith.c:333
     f38:	a9bd7bfd 	stp	x29, x30, [sp,#-48]!
     f3c:	910003fd 	mov	x29, sp
     f40:	a90153f3 	stp	x19, x20, [sp,#16]
     f44:	aa0003f4 	mov	x20, x0
     f48:	a9025bf5 	stp	x21, x22, [sp,#32]
     f4c:	aa0303f3 	mov	x19, x3
     f50:	aa0103f5 	mov	x21, x1
     f54:	aa0203f6 	mov	x22, x2
TEE_BigIntCmpS32():
/home/lagadanu/Desktop/qemu/optee_os/lib/libutee/tee_api_arith.c:228
     f58:	52800001 	mov	w1, #0x0                   	// #0
     f5c:	aa0303e0 	mov	x0, x3
     f60:	94000d55 	bl	44b4 <mpa_cmp_short>
TEE_BigIntDiv():
/home/lagadanu/Desktop/qemu/optee_os/lib/libutee/tee_api_arith.c:339
     f64:	35000080 	cbnz	w0, f74 <TEE_BigIntDiv+0x3c>
/home/lagadanu/Desktop/qemu/optee_os/lib/libutee/tee_api_arith.c:340
     f68:	90000040 	adrp	x0, 8000 <PRIME_TABLE+0xb30>
     f6c:	910fb400 	add	x0, x0, #0x3ed
     f70:	9400012f 	bl	142c <TEE_BigInt_Panic>
/home/lagadanu/Desktop/qemu/optee_os/lib/libutee/tee_api_arith.c:342
     f74:	d00000c0 	adrp	x0, 1a000 <mempool_u32+0xe68>
     f78:	aa1303e3 	mov	x3, x19
     f7c:	aa1603e2 	mov	x2, x22
     f80:	aa1503e1 	mov	x1, x21
     f84:	f9459404 	ldr	x4, [x0,#2856]
     f88:	aa1403e0 	mov	x0, x20
/home/lagadanu/Desktop/qemu/optee_os/lib/libutee/tee_api_arith.c:343
     f8c:	a9425bf5 	ldp	x21, x22, [sp,#32]
     f90:	a94153f3 	ldp	x19, x20, [sp,#16]
     f94:	a8c37bfd 	ldp	x29, x30, [sp],#48
/home/lagadanu/Desktop/qemu/optee_os/lib/libutee/tee_api_arith.c:342
     f98:	14000614 	b	27e8 <mpa_div>

0000000000000f9c <TEE_BigIntMod>:
TEE_BigIntMod():
/home/lagadanu/Desktop/qemu/optee_os/lib/libutee/tee_api_arith.c:354
     f9c:	a9bd7bfd 	stp	x29, x30, [sp,#-48]!
     fa0:	910003fd 	mov	x29, sp
     fa4:	a9025bf5 	stp	x21, x22, [sp,#32]
     fa8:	aa0103f6 	mov	x22, x1
     fac:	a90153f3 	stp	x19, x20, [sp,#16]
     fb0:	aa0203f5 	mov	x21, x2
     fb4:	aa0003f4 	mov	x20, x0
TEE_BigIntCmpS32():
/home/lagadanu/Desktop/qemu/optee_os/lib/libutee/tee_api_arith.c:228
     fb8:	52800041 	mov	w1, #0x2                   	// #2
     fbc:	aa0203e0 	mov	x0, x2
     fc0:	94000d3d 	bl	44b4 <mpa_cmp_short>
TEE_BigIntMod():
/home/lagadanu/Desktop/qemu/optee_os/lib/libutee/tee_api_arith.c:359
     fc4:	36f80080 	tbz	w0, #31, fd4 <TEE_BigIntMod+0x38>
/home/lagadanu/Desktop/qemu/optee_os/lib/libutee/tee_api_arith.c:360
     fc8:	90000040 	adrp	x0, 8000 <PRIME_TABLE+0xb30>
     fcc:	910ff400 	add	x0, x0, #0x3fd
     fd0:	94000117 	bl	142c <TEE_BigInt_Panic>
/home/lagadanu/Desktop/qemu/optee_os/lib/libutee/tee_api_arith.c:362
     fd4:	d00000d3 	adrp	x19, 1a000 <mempool_u32+0xe68>
     fd8:	910a6273 	add	x19, x19, #0x298
     fdc:	aa1503e2 	mov	x2, x21
     fe0:	aa1603e1 	mov	x1, x22
     fe4:	aa1403e0 	mov	x0, x20
     fe8:	f9444a63 	ldr	x3, [x19,#2192]
     fec:	94000fb2 	bl	4eb4 <mpa_mod>
/home/lagadanu/Desktop/qemu/optee_os/lib/libutee/tee_api_arith.c:364
     ff0:	52800001 	mov	w1, #0x0                   	// #0
     ff4:	aa1403e0 	mov	x0, x20
     ff8:	94000d2f 	bl	44b4 <mpa_cmp_short>
     ffc:	36f80120 	tbz	w0, #31, 1020 <TEE_BigIntMod+0x84>
/home/lagadanu/Desktop/qemu/optee_os/lib/libutee/tee_api_arith.c:365
    1000:	aa1503e2 	mov	x2, x21
    1004:	aa1403e1 	mov	x1, x20
    1008:	aa1403e0 	mov	x0, x20
    100c:	f9444a63 	ldr	x3, [x19,#2192]
/home/lagadanu/Desktop/qemu/optee_os/lib/libutee/tee_api_arith.c:366
    1010:	a9425bf5 	ldp	x21, x22, [sp,#32]
    1014:	a94153f3 	ldp	x19, x20, [sp,#16]
    1018:	a8c37bfd 	ldp	x29, x30, [sp],#48
/home/lagadanu/Desktop/qemu/optee_os/lib/libutee/tee_api_arith.c:365
    101c:	14000b5f 	b	3d98 <mpa_add>
/home/lagadanu/Desktop/qemu/optee_os/lib/libutee/tee_api_arith.c:366
    1020:	a94153f3 	ldp	x19, x20, [sp,#16]
    1024:	a9425bf5 	ldp	x21, x22, [sp,#32]
    1028:	a8c37bfd 	ldp	x29, x30, [sp],#48
    102c:	d65f03c0 	ret

0000000000001030 <TEE_BigIntAddMod>:
TEE_BigIntAddMod():
/home/lagadanu/Desktop/qemu/optee_os/lib/libutee/tee_api_arith.c:373
    1030:	a9bc7bfd 	stp	x29, x30, [sp,#-64]!
    1034:	910003fd 	mov	x29, sp
    1038:	a9025bf5 	stp	x21, x22, [sp,#32]
    103c:	aa0103f6 	mov	x22, x1
    1040:	a90153f3 	stp	x19, x20, [sp,#16]
    1044:	aa0303f5 	mov	x21, x3
    1048:	f9001bf7 	str	x23, [sp,#48]
    104c:	aa0003f4 	mov	x20, x0
TEE_BigIntCmpS32():
/home/lagadanu/Desktop/qemu/optee_os/lib/libutee/tee_api_arith.c:228
    1050:	52800041 	mov	w1, #0x2                   	// #2
    1054:	aa0303e0 	mov	x0, x3
TEE_BigIntAddMod():
/home/lagadanu/Desktop/qemu/optee_os/lib/libutee/tee_api_arith.c:373
    1058:	aa0203f7 	mov	x23, x2
TEE_BigIntCmpS32():
/home/lagadanu/Desktop/qemu/optee_os/lib/libutee/tee_api_arith.c:228
    105c:	94000d16 	bl	44b4 <mpa_cmp_short>
TEE_BigIntAddMod():
/home/lagadanu/Desktop/qemu/optee_os/lib/libutee/tee_api_arith.c:379
    1060:	36f80080 	tbz	w0, #31, 1070 <TEE_BigIntAddMod+0x40>
/home/lagadanu/Desktop/qemu/optee_os/lib/libutee/tee_api_arith.c:380
    1064:	f0000020 	adrp	x0, 8000 <PRIME_TABLE+0xb30>
    1068:	910ff400 	add	x0, x0, #0x3fd
    106c:	940000f0 	bl	142c <TEE_BigInt_Panic>
/home/lagadanu/Desktop/qemu/optee_os/lib/libutee/tee_api_arith.c:382
    1070:	b00000d3 	adrp	x19, 1a000 <mempool_u32+0xe68>
    1074:	910a6273 	add	x19, x19, #0x298
    1078:	aa1503e3 	mov	x3, x21
    107c:	aa1703e2 	mov	x2, x23
    1080:	aa1603e1 	mov	x1, x22
    1084:	aa1403e0 	mov	x0, x20
    1088:	f9444a64 	ldr	x4, [x19,#2192]
    108c:	94000f90 	bl	4ecc <mpa_add_mod>
/home/lagadanu/Desktop/qemu/optee_os/lib/libutee/tee_api_arith.c:383
    1090:	52800001 	mov	w1, #0x0                   	// #0
    1094:	aa1403e0 	mov	x0, x20
    1098:	94000d07 	bl	44b4 <mpa_cmp_short>
    109c:	36f80140 	tbz	w0, #31, 10c4 <TEE_BigIntAddMod+0x94>
/home/lagadanu/Desktop/qemu/optee_os/lib/libutee/tee_api_arith.c:384
    10a0:	aa1503e2 	mov	x2, x21
    10a4:	aa1403e1 	mov	x1, x20
    10a8:	aa1403e0 	mov	x0, x20
    10ac:	f9444a63 	ldr	x3, [x19,#2192]
/home/lagadanu/Desktop/qemu/optee_os/lib/libutee/tee_api_arith.c:385
    10b0:	a9425bf5 	ldp	x21, x22, [sp,#32]
    10b4:	a94153f3 	ldp	x19, x20, [sp,#16]
    10b8:	f9401bf7 	ldr	x23, [sp,#48]
    10bc:	a8c47bfd 	ldp	x29, x30, [sp],#64
/home/lagadanu/Desktop/qemu/optee_os/lib/libutee/tee_api_arith.c:384
    10c0:	14000b36 	b	3d98 <mpa_add>
/home/lagadanu/Desktop/qemu/optee_os/lib/libutee/tee_api_arith.c:385
    10c4:	a94153f3 	ldp	x19, x20, [sp,#16]
    10c8:	a9425bf5 	ldp	x21, x22, [sp,#32]
    10cc:	f9401bf7 	ldr	x23, [sp,#48]
    10d0:	a8c47bfd 	ldp	x29, x30, [sp],#64
    10d4:	d65f03c0 	ret

00000000000010d8 <TEE_BigIntSubMod>:
TEE_BigIntSubMod():
/home/lagadanu/Desktop/qemu/optee_os/lib/libutee/tee_api_arith.c:392
    10d8:	a9bc7bfd 	stp	x29, x30, [sp,#-64]!
    10dc:	910003fd 	mov	x29, sp
    10e0:	a9025bf5 	stp	x21, x22, [sp,#32]
    10e4:	aa0103f6 	mov	x22, x1
    10e8:	a90153f3 	stp	x19, x20, [sp,#16]
    10ec:	aa0303f5 	mov	x21, x3
    10f0:	f9001bf7 	str	x23, [sp,#48]
    10f4:	aa0003f4 	mov	x20, x0
TEE_BigIntCmpS32():
/home/lagadanu/Desktop/qemu/optee_os/lib/libutee/tee_api_arith.c:228
    10f8:	52800041 	mov	w1, #0x2                   	// #2
    10fc:	aa0303e0 	mov	x0, x3
TEE_BigIntSubMod():
/home/lagadanu/Desktop/qemu/optee_os/lib/libutee/tee_api_arith.c:392
    1100:	aa0203f7 	mov	x23, x2
TEE_BigIntCmpS32():
/home/lagadanu/Desktop/qemu/optee_os/lib/libutee/tee_api_arith.c:228
    1104:	94000cec 	bl	44b4 <mpa_cmp_short>
TEE_BigIntSubMod():
/home/lagadanu/Desktop/qemu/optee_os/lib/libutee/tee_api_arith.c:398
    1108:	36f80080 	tbz	w0, #31, 1118 <TEE_BigIntSubMod+0x40>
/home/lagadanu/Desktop/qemu/optee_os/lib/libutee/tee_api_arith.c:399
    110c:	f0000020 	adrp	x0, 8000 <PRIME_TABLE+0xb30>
    1110:	910ff400 	add	x0, x0, #0x3fd
    1114:	940000c6 	bl	142c <TEE_BigInt_Panic>
/home/lagadanu/Desktop/qemu/optee_os/lib/libutee/tee_api_arith.c:401
    1118:	b00000d3 	adrp	x19, 1a000 <mempool_u32+0xe68>
    111c:	910a6273 	add	x19, x19, #0x298
    1120:	aa1503e3 	mov	x3, x21
    1124:	aa1703e2 	mov	x2, x23
    1128:	aa1603e1 	mov	x1, x22
    112c:	aa1403e0 	mov	x0, x20
    1130:	f9444a64 	ldr	x4, [x19,#2192]
    1134:	94000f87 	bl	4f50 <mpa_sub_mod>
/home/lagadanu/Desktop/qemu/optee_os/lib/libutee/tee_api_arith.c:402
    1138:	52800001 	mov	w1, #0x0                   	// #0
    113c:	aa1403e0 	mov	x0, x20
    1140:	94000cdd 	bl	44b4 <mpa_cmp_short>
    1144:	36f80140 	tbz	w0, #31, 116c <TEE_BigIntSubMod+0x94>
/home/lagadanu/Desktop/qemu/optee_os/lib/libutee/tee_api_arith.c:403
    1148:	aa1503e2 	mov	x2, x21
    114c:	aa1403e1 	mov	x1, x20
    1150:	aa1403e0 	mov	x0, x20
    1154:	f9444a63 	ldr	x3, [x19,#2192]
/home/lagadanu/Desktop/qemu/optee_os/lib/libutee/tee_api_arith.c:404
    1158:	a9425bf5 	ldp	x21, x22, [sp,#32]
    115c:	a94153f3 	ldp	x19, x20, [sp,#16]
    1160:	f9401bf7 	ldr	x23, [sp,#48]
    1164:	a8c47bfd 	ldp	x29, x30, [sp],#64
/home/lagadanu/Desktop/qemu/optee_os/lib/libutee/tee_api_arith.c:403
    1168:	14000b0c 	b	3d98 <mpa_add>
/home/lagadanu/Desktop/qemu/optee_os/lib/libutee/tee_api_arith.c:404
    116c:	a94153f3 	ldp	x19, x20, [sp,#16]
    1170:	a9425bf5 	ldp	x21, x22, [sp,#32]
    1174:	f9401bf7 	ldr	x23, [sp,#48]
    1178:	a8c47bfd 	ldp	x29, x30, [sp],#64
    117c:	d65f03c0 	ret

0000000000001180 <TEE_BigIntMulMod>:
TEE_BigIntMulMod():
/home/lagadanu/Desktop/qemu/optee_os/lib/libutee/tee_api_arith.c:411
    1180:	a9ba7bfd 	stp	x29, x30, [sp,#-96]!
    1184:	910003fd 	mov	x29, sp
    1188:	a90363f7 	stp	x23, x24, [sp,#48]
    118c:	aa0003f7 	mov	x23, x0
    1190:	a90153f3 	stp	x19, x20, [sp,#16]
    1194:	aa0103f8 	mov	x24, x1
    1198:	f90023f9 	str	x25, [sp,#64]
    119c:	aa0303f4 	mov	x20, x3
    11a0:	a9025bf5 	stp	x21, x22, [sp,#32]
TEE_BigIntCmpS32():
/home/lagadanu/Desktop/qemu/optee_os/lib/libutee/tee_api_arith.c:228
    11a4:	52800041 	mov	w1, #0x2                   	// #2
    11a8:	aa0303e0 	mov	x0, x3
TEE_BigIntMulMod():
/home/lagadanu/Desktop/qemu/optee_os/lib/libutee/tee_api_arith.c:411
    11ac:	aa0203f9 	mov	x25, x2
TEE_BigIntCmpS32():
/home/lagadanu/Desktop/qemu/optee_os/lib/libutee/tee_api_arith.c:228
    11b0:	94000cc1 	bl	44b4 <mpa_cmp_short>
TEE_BigIntMulMod():
/home/lagadanu/Desktop/qemu/optee_os/lib/libutee/tee_api_arith.c:418
    11b4:	36f80080 	tbz	w0, #31, 11c4 <TEE_BigIntMulMod+0x44>
/home/lagadanu/Desktop/qemu/optee_os/lib/libutee/tee_api_arith.c:419
    11b8:	f0000020 	adrp	x0, 8000 <PRIME_TABLE+0xb30>
    11bc:	910ff400 	add	x0, x0, #0x3fd
    11c0:	9400009b 	bl	142c <TEE_BigInt_Panic>
/home/lagadanu/Desktop/qemu/optee_os/lib/libutee/tee_api_arith.c:429
    11c4:	b00000d3 	adrp	x19, 1a000 <mempool_u32+0xe68>
    11c8:	910a6275 	add	x21, x19, #0x298
    11cc:	910163b6 	add	x22, x29, #0x58
    11d0:	aa1603e0 	mov	x0, x22
    11d4:	f9444aa1 	ldr	x1, [x21,#2192]
    11d8:	940007f1 	bl	319c <mpa_alloc_static_temp_var>
/home/lagadanu/Desktop/qemu/optee_os/lib/libutee/tee_api_arith.c:430
    11dc:	f9402fa0 	ldr	x0, [x29,#88]
    11e0:	aa1803e1 	mov	x1, x24
    11e4:	f9444aa4 	ldr	x4, [x21,#2192]
    11e8:	aa1403e3 	mov	x3, x20
    11ec:	aa1903e2 	mov	x2, x25
    11f0:	94000f79 	bl	4fd4 <mpa_mul_mod>
/home/lagadanu/Desktop/qemu/optee_os/lib/libutee/tee_api_arith.c:431
    11f4:	f9402fa0 	ldr	x0, [x29,#88]
    11f8:	52800001 	mov	w1, #0x0                   	// #0
    11fc:	94000cae 	bl	44b4 <mpa_cmp_short>
    1200:	36f800c0 	tbz	w0, #31, 1218 <TEE_BigIntMulMod+0x98>
/home/lagadanu/Desktop/qemu/optee_os/lib/libutee/tee_api_arith.c:432
    1204:	f9402fa1 	ldr	x1, [x29,#88]
    1208:	aa1403e2 	mov	x2, x20
    120c:	f9444aa3 	ldr	x3, [x21,#2192]
    1210:	aa0103e0 	mov	x0, x1
    1214:	94000ae1 	bl	3d98 <mpa_add>
/home/lagadanu/Desktop/qemu/optee_os/lib/libutee/tee_api_arith.c:433
    1218:	f9402fa1 	ldr	x1, [x29,#88]
/home/lagadanu/Desktop/qemu/optee_os/lib/libutee/tee_api_arith.c:434
    121c:	910a6273 	add	x19, x19, #0x298
/home/lagadanu/Desktop/qemu/optee_os/lib/libutee/tee_api_arith.c:433
    1220:	aa1703e0 	mov	x0, x23
    1224:	940000ff 	bl	1620 <mpa_copy>
/home/lagadanu/Desktop/qemu/optee_os/lib/libutee/tee_api_arith.c:434
    1228:	f9444a61 	ldr	x1, [x19,#2192]
    122c:	aa1603e0 	mov	x0, x22
    1230:	940007df 	bl	31ac <mpa_free_static_temp_var>
/home/lagadanu/Desktop/qemu/optee_os/lib/libutee/tee_api_arith.c:435
    1234:	f94023f9 	ldr	x25, [sp,#64]
    1238:	a94153f3 	ldp	x19, x20, [sp,#16]
    123c:	a9425bf5 	ldp	x21, x22, [sp,#32]
    1240:	a94363f7 	ldp	x23, x24, [sp,#48]
    1244:	a8c67bfd 	ldp	x29, x30, [sp],#96
    1248:	d65f03c0 	ret

000000000000124c <TEE_BigIntSquareMod>:
TEE_BigIntSquareMod():
/home/lagadanu/Desktop/qemu/optee_os/lib/libutee/tee_api_arith.c:443
    124c:	aa0203e3 	mov	x3, x2
    1250:	aa0103e2 	mov	x2, x1
    1254:	17ffffcb 	b	1180 <TEE_BigIntMulMod>

0000000000001258 <TEE_BigIntInvMod>:
TEE_BigIntInvMod():
/home/lagadanu/Desktop/qemu/optee_os/lib/libutee/tee_api_arith.c:451
    1258:	a9bd7bfd 	stp	x29, x30, [sp,#-48]!
    125c:	910003fd 	mov	x29, sp
    1260:	a90153f3 	stp	x19, x20, [sp,#16]
    1264:	aa0103f3 	mov	x19, x1
    1268:	f90013f5 	str	x21, [sp,#32]
    126c:	aa0203f4 	mov	x20, x2
    1270:	aa0003f5 	mov	x21, x0
TEE_BigIntCmpS32():
/home/lagadanu/Desktop/qemu/optee_os/lib/libutee/tee_api_arith.c:228
    1274:	52800041 	mov	w1, #0x2                   	// #2
    1278:	aa0203e0 	mov	x0, x2
    127c:	94000c8e 	bl	44b4 <mpa_cmp_short>
TEE_BigIntInvMod():
/home/lagadanu/Desktop/qemu/optee_os/lib/libutee/tee_api_arith.c:456
    1280:	36f80080 	tbz	w0, #31, 1290 <TEE_BigIntInvMod+0x38>
/home/lagadanu/Desktop/qemu/optee_os/lib/libutee/tee_api_arith.c:457
    1284:	f0000020 	adrp	x0, 8000 <PRIME_TABLE+0xb30>
    1288:	91104800 	add	x0, x0, #0x412
    128c:	94000068 	bl	142c <TEE_BigInt_Panic>
TEE_BigIntCmpS32():
/home/lagadanu/Desktop/qemu/optee_os/lib/libutee/tee_api_arith.c:228
    1290:	52800001 	mov	w1, #0x0                   	// #0
    1294:	aa1303e0 	mov	x0, x19
    1298:	94000c87 	bl	44b4 <mpa_cmp_short>
TEE_BigIntInvMod():
/home/lagadanu/Desktop/qemu/optee_os/lib/libutee/tee_api_arith.c:456
    129c:	34ffff40 	cbz	w0, 1284 <TEE_BigIntInvMod+0x2c>
/home/lagadanu/Desktop/qemu/optee_os/lib/libutee/tee_api_arith.c:459
    12a0:	b00000c0 	adrp	x0, 1a000 <mempool_u32+0xe68>
    12a4:	aa1403e2 	mov	x2, x20
    12a8:	aa1303e1 	mov	x1, x19
    12ac:	f9459403 	ldr	x3, [x0,#2856]
    12b0:	aa1503e0 	mov	x0, x21
/home/lagadanu/Desktop/qemu/optee_os/lib/libutee/tee_api_arith.c:460
    12b4:	a94153f3 	ldp	x19, x20, [sp,#16]
    12b8:	f94013f5 	ldr	x21, [sp,#32]
    12bc:	a8c37bfd 	ldp	x29, x30, [sp],#48
/home/lagadanu/Desktop/qemu/optee_os/lib/libutee/tee_api_arith.c:459
    12c0:	14000f66 	b	5058 <mpa_inv_mod>

00000000000012c4 <TEE_BigIntRelativePrime>:
TEE_BigIntRelativePrime():
/home/lagadanu/Desktop/qemu/optee_os/lib/libutee/tee_api_arith.c:470
    12c4:	a9bc7bfd 	stp	x29, x30, [sp,#-64]!
    12c8:	910003fd 	mov	x29, sp
    12cc:	a90153f3 	stp	x19, x20, [sp,#16]
/home/lagadanu/Desktop/qemu/optee_os/lib/libutee/tee_api_arith.c:476
    12d0:	b00000d3 	adrp	x19, 1a000 <mempool_u32+0xe68>
    12d4:	910a6273 	add	x19, x19, #0x298
/home/lagadanu/Desktop/qemu/optee_os/lib/libutee/tee_api_arith.c:470
    12d8:	a9025bf5 	stp	x21, x22, [sp,#32]
    12dc:	aa0103f6 	mov	x22, x1
/home/lagadanu/Desktop/qemu/optee_os/lib/libutee/tee_api_arith.c:476
    12e0:	9100e3b4 	add	x20, x29, #0x38
/home/lagadanu/Desktop/qemu/optee_os/lib/libutee/tee_api_arith.c:470
    12e4:	aa0003f5 	mov	x21, x0
/home/lagadanu/Desktop/qemu/optee_os/lib/libutee/tee_api_arith.c:476
    12e8:	aa1403e0 	mov	x0, x20
    12ec:	f9444a61 	ldr	x1, [x19,#2192]
    12f0:	940007ab 	bl	319c <mpa_alloc_static_temp_var>
/home/lagadanu/Desktop/qemu/optee_os/lib/libutee/tee_api_arith.c:478
    12f4:	f9444a63 	ldr	x3, [x19,#2192]
    12f8:	aa1603e2 	mov	x2, x22
    12fc:	f9401fa0 	ldr	x0, [x29,#56]
    1300:	aa1503e1 	mov	x1, x21
    1304:	940006d0 	bl	2e44 <mpa_gcd>
/home/lagadanu/Desktop/qemu/optee_os/lib/libutee/tee_api_arith.c:479
    1308:	f9401fa0 	ldr	x0, [x29,#56]
    130c:	52800021 	mov	w1, #0x1                   	// #1
    1310:	94000c69 	bl	44b4 <mpa_cmp_short>
    1314:	2a0003f5 	mov	w21, w0
/home/lagadanu/Desktop/qemu/optee_os/lib/libutee/tee_api_arith.c:481
    1318:	f9444a61 	ldr	x1, [x19,#2192]
    131c:	aa1403e0 	mov	x0, x20
    1320:	940007a3 	bl	31ac <mpa_free_static_temp_var>
/home/lagadanu/Desktop/qemu/optee_os/lib/libutee/tee_api_arith.c:483
    1324:	710002bf 	cmp	w21, #0x0
/home/lagadanu/Desktop/qemu/optee_os/lib/libutee/tee_api_arith.c:484
    1328:	a94153f3 	ldp	x19, x20, [sp,#16]
    132c:	1a9f17e0 	cset	w0, eq
    1330:	a9425bf5 	ldp	x21, x22, [sp,#32]
    1334:	a8c47bfd 	ldp	x29, x30, [sp],#64
    1338:	d65f03c0 	ret

000000000000133c <TEE_BigIntComputeExtendedGcd>:
TEE_BigIntComputeExtendedGcd():
/home/lagadanu/Desktop/qemu/optee_os/lib/libutee/tee_api_arith.c:499
    133c:	b00000c5 	adrp	x5, 1a000 <mempool_u32+0xe68>
    1340:	f94594a5 	ldr	x5, [x5,#2856]
    1344:	14000708 	b	2f64 <mpa_extended_gcd>

0000000000001348 <TEE_BigIntIsProbablePrime>:
TEE_BigIntIsProbablePrime():
/home/lagadanu/Desktop/qemu/optee_os/lib/libutee/tee_api_arith.c:507
    1348:	7104003f 	cmp	w1, #0x100
    134c:	52802002 	mov	w2, #0x100                 	// #256
    1350:	1a829021 	csel	w1, w1, w2, ls
/home/lagadanu/Desktop/qemu/optee_os/lib/libutee/tee_api_arith.c:516
    1354:	b00000c2 	adrp	x2, 1a000 <mempool_u32+0xe68>
    1358:	7101403f 	cmp	w1, #0x50
    135c:	52800a03 	mov	w3, #0x50                  	// #80
    1360:	f9459442 	ldr	x2, [x2,#2856]
    1364:	1a832021 	csel	w1, w1, w3, cs
    1368:	140001fa 	b	1b50 <mpa_is_prob_prime>

000000000000136c <TEE_BigIntConvertToFMM>:
TEE_BigIntConvertToFMM():
/home/lagadanu/Desktop/qemu/optee_os/lib/libutee/tee_api_arith.c:530
    136c:	aa0303e6 	mov	x6, x3
/home/lagadanu/Desktop/qemu/optee_os/lib/libutee/tee_api_arith.c:537
    1370:	b00000c3 	adrp	x3, 1a000 <mempool_u32+0xe68>
    1374:	f9459465 	ldr	x5, [x3,#2856]
    1378:	aa0203e3 	mov	x3, x2
    137c:	b94010c4 	ldr	w4, [x6,#16]
    1380:	f94004c2 	ldr	x2, [x6,#8]
    1384:	140001d1 	b	1ac8 <mpa_montgomery_mul>

0000000000001388 <TEE_BigIntConvertFromFMM>:
TEE_BigIntConvertFromFMM():
/home/lagadanu/Desktop/qemu/optee_os/lib/libutee/tee_api_arith.c:548
    1388:	a9ba7bfd 	stp	x29, x30, [sp,#-96]!
    138c:	910003fd 	mov	x29, sp
    1390:	a90153f3 	stp	x19, x20, [sp,#16]
/home/lagadanu/Desktop/qemu/optee_os/lib/libutee/tee_api_arith.c:560
    1394:	b00000d3 	adrp	x19, 1a000 <mempool_u32+0xe68>
    1398:	910a6273 	add	x19, x19, #0x298
/home/lagadanu/Desktop/qemu/optee_os/lib/libutee/tee_api_arith.c:548
    139c:	a90363f7 	stp	x23, x24, [sp,#48]
    13a0:	aa0103f7 	mov	x23, x1
/home/lagadanu/Desktop/qemu/optee_os/lib/libutee/tee_api_arith.c:560
    13a4:	910163b4 	add	x20, x29, #0x58
/home/lagadanu/Desktop/qemu/optee_os/lib/libutee/tee_api_arith.c:548
    13a8:	f90023f9 	str	x25, [sp,#64]
    13ac:	aa0303f9 	mov	x25, x3
/home/lagadanu/Desktop/qemu/optee_os/lib/libutee/tee_api_arith.c:560
    13b0:	f9444a61 	ldr	x1, [x19,#2192]
/home/lagadanu/Desktop/qemu/optee_os/lib/libutee/tee_api_arith.c:548
    13b4:	aa0203f8 	mov	x24, x2
    13b8:	a9025bf5 	stp	x21, x22, [sp,#32]
    13bc:	aa0003f5 	mov	x21, x0
/home/lagadanu/Desktop/qemu/optee_os/lib/libutee/tee_api_arith.c:560
    13c0:	aa1403e0 	mov	x0, x20
    13c4:	94000776 	bl	319c <mpa_alloc_static_temp_var>
/home/lagadanu/Desktop/qemu/optee_os/lib/libutee/tee_api_arith.c:563
    13c8:	f9402fb6 	ldr	x22, [x29,#88]
    13cc:	940000e2 	bl	1754 <mpa_constant_one>
    13d0:	aa0003e1 	mov	x1, x0
    13d4:	b9401324 	ldr	w4, [x25,#16]
    13d8:	aa1803e3 	mov	x3, x24
    13dc:	f9444a65 	ldr	x5, [x19,#2192]
    13e0:	aa1703e2 	mov	x2, x23
    13e4:	aa1603e0 	mov	x0, x22
    13e8:	940001b8 	bl	1ac8 <mpa_montgomery_mul>
/home/lagadanu/Desktop/qemu/optee_os/lib/libutee/tee_api_arith.c:566
    13ec:	f9402fa1 	ldr	x1, [x29,#88]
    13f0:	aa1503e0 	mov	x0, x21
    13f4:	9400008b 	bl	1620 <mpa_copy>
/home/lagadanu/Desktop/qemu/optee_os/lib/libutee/tee_api_arith.c:567
    13f8:	f9444a61 	ldr	x1, [x19,#2192]
    13fc:	aa1403e0 	mov	x0, x20
    1400:	9400076b 	bl	31ac <mpa_free_static_temp_var>
/home/lagadanu/Desktop/qemu/optee_os/lib/libutee/tee_api_arith.c:568
    1404:	f94023f9 	ldr	x25, [sp,#64]
    1408:	a94153f3 	ldp	x19, x20, [sp,#16]
    140c:	a9425bf5 	ldp	x21, x22, [sp,#32]
    1410:	a94363f7 	ldp	x23, x24, [sp,#48]
    1414:	a8c67bfd 	ldp	x29, x30, [sp],#96
    1418:	d65f03c0 	ret

000000000000141c <TEE_BigIntComputeFMM>:
TEE_BigIntComputeFMM():
/home/lagadanu/Desktop/qemu/optee_os/lib/libutee/tee_api_arith.c:585
    141c:	b00000c5 	adrp	x5, 1a000 <mempool_u32+0xe68>
    1420:	b9401084 	ldr	w4, [x4,#16]
    1424:	f94594a5 	ldr	x5, [x5,#2856]
    1428:	140001a8 	b	1ac8 <mpa_montgomery_mul>

000000000000142c <TEE_BigInt_Panic>:
TEE_BigInt_Panic():
/home/lagadanu/Desktop/qemu/optee_os/lib/libutee/tee_api_arith.c:35
    142c:	a9bf7bfd 	stp	x29, x30, [sp,#-16]!
/home/lagadanu/Desktop/qemu/optee_os/lib/libutee/tee_api_arith.c:36
    1430:	aa0003e1 	mov	x1, x0
    1434:	f0000020 	adrp	x0, 8000 <PRIME_TABLE+0xb30>
    1438:	910f8800 	add	x0, x0, #0x3e2
/home/lagadanu/Desktop/qemu/optee_os/lib/libutee/tee_api_arith.c:35
    143c:	910003fd 	mov	x29, sp
/home/lagadanu/Desktop/qemu/optee_os/lib/libutee/tee_api_arith.c:36
    1440:	94000011 	bl	1484 <printf>
/home/lagadanu/Desktop/qemu/optee_os/lib/libutee/tee_api_arith.c:37
    1444:	528c24e0 	mov	w0, #0x6127                	// #24871
    1448:	72a01620 	movk	w0, #0xb1, lsl #16
    144c:	97fffcbb 	bl	738 <TEE_Panic>
    1450:	14000000 	b	1450 <TEE_BigInt_Panic+0x24>

0000000000001454 <trace_ext_puts>:
trace_ext_puts():
/home/lagadanu/Desktop/qemu/optee_os/lib/libutee/trace_ext.c:17
    1454:	a9be7bfd 	stp	x29, x30, [sp,#-32]!
    1458:	910003fd 	mov	x29, sp
    145c:	f9000bf3 	str	x19, [sp,#16]
    1460:	aa0003f3 	mov	x19, x0
/home/lagadanu/Desktop/qemu/optee_os/lib/libutee/trace_ext.c:18
    1464:	940013d1 	bl	63a8 <strlen>
    1468:	aa0003e1 	mov	x1, x0
    146c:	aa1303e0 	mov	x0, x19
/home/lagadanu/Desktop/qemu/optee_os/lib/libutee/trace_ext.c:19
    1470:	f9400bf3 	ldr	x19, [sp,#16]
    1474:	a8c27bfd 	ldp	x29, x30, [sp],#32
/home/lagadanu/Desktop/qemu/optee_os/lib/libutee/trace_ext.c:18
    1478:	17fffd69 	b	a1c <utee_log>

000000000000147c <trace_ext_get_thread_id>:
trace_ext_get_thread_id():
/home/lagadanu/Desktop/qemu/optee_os/lib/libutee/trace_ext.c:24
    147c:	12800000 	mov	w0, #0xffffffff            	// #-1
    1480:	d65f03c0 	ret

0000000000001484 <printf>:
printf():
/home/lagadanu/Desktop/qemu/optee_os/lib/libutee/trace_ext.c:32
    1484:	d10883ff 	sub	sp, sp, #0x220
    1488:	a9007bfd 	stp	x29, x30, [sp]
    148c:	910003fd 	mov	x29, sp
    1490:	a90153f3 	stp	x19, x20, [sp,#16]
    1494:	aa0003f3 	mov	x19, x0
    1498:	910403a0 	add	x0, x29, #0x100
    149c:	a91e8ba1 	stp	x1, x2, [x29,#488]
    14a0:	a91f93a3 	stp	x3, x4, [x29,#504]
    14a4:	f90107a5 	str	x5, [x29,#520]
    14a8:	f9010ba6 	str	x6, [x29,#528]
    14ac:	f9010fa7 	str	x7, [x29,#536]
    14b0:	3d801800 	str	q0, [x0,#96]
    14b4:	3d801c01 	str	q1, [x0,#112]
    14b8:	3d802002 	str	q2, [x0,#128]
    14bc:	3d802403 	str	q3, [x0,#144]
    14c0:	3d802804 	str	q4, [x0,#160]
    14c4:	3d802c05 	str	q5, [x0,#176]
    14c8:	3d803006 	str	q6, [x0,#192]
    14cc:	3d803407 	str	q7, [x0,#208]
/home/lagadanu/Desktop/qemu/optee_os/lib/libutee/trace_ext.c:37
    14d0:	940016e2 	bl	7058 <trace_get_level>
    14d4:	7100001f 	cmp	w0, #0x0
    14d8:	5400038d 	b.le	1548 <printf+0xc4>
/home/lagadanu/Desktop/qemu/optee_os/lib/libutee/trace_ext.c:40
    14dc:	910883a0 	add	x0, x29, #0x220
    14e0:	a90403a0 	stp	x0, x0, [x29,#64]
    14e4:	910783a0 	add	x0, x29, #0x1e0
    14e8:	f9002ba0 	str	x0, [x29,#80]
    14ec:	128006e0 	mov	w0, #0xffffffc8            	// #-56
    14f0:	b9005ba0 	str	w0, [x29,#88]
    14f4:	12800fe0 	mov	w0, #0xffffff80            	// #-128
    14f8:	b9005fa0 	str	w0, [x29,#92]
/home/lagadanu/Desktop/qemu/optee_os/lib/libutee/trace_ext.c:41
    14fc:	a94407a0 	ldp	x0, x1, [x29,#64]
    1500:	a90207a0 	stp	x0, x1, [x29,#32]
    1504:	a94507a0 	ldp	x0, x1, [x29,#80]
    1508:	910183b4 	add	x20, x29, #0x60
    150c:	a90307a0 	stp	x0, x1, [x29,#48]
    1510:	aa1303e2 	mov	x2, x19
    1514:	910083a3 	add	x3, x29, #0x20
    1518:	d2802001 	mov	x1, #0x100                 	// #256
    151c:	aa1403e0 	mov	x0, x20
    1520:	9400135e 	bl	6298 <vsnprintf>
    1524:	2a0003f3 	mov	w19, w0
/home/lagadanu/Desktop/qemu/optee_os/lib/libutee/trace_ext.c:44
    1528:	37f80060 	tbnz	w0, #31, 1534 <printf+0xb0>
/home/lagadanu/Desktop/qemu/optee_os/lib/libutee/trace_ext.c:47
    152c:	aa1403e0 	mov	x0, x20
    1530:	97ffffc9 	bl	1454 <trace_ext_puts>
/home/lagadanu/Desktop/qemu/optee_os/lib/libutee/trace_ext.c:50
    1534:	2a1303e0 	mov	w0, w19
    1538:	a94153f3 	ldp	x19, x20, [sp,#16]
    153c:	a9407bfd 	ldp	x29, x30, [sp]
    1540:	910883ff 	add	sp, sp, #0x220
    1544:	d65f03c0 	ret
/home/lagadanu/Desktop/qemu/optee_os/lib/libutee/trace_ext.c:38
    1548:	52800013 	mov	w19, #0x0                   	// #0
    154c:	17fffffa 	b	1534 <printf+0xb0>

0000000000001550 <puts>:
puts():
/home/lagadanu/Desktop/qemu/optee_os/lib/libutee/trace_ext.c:53
    1550:	a9be7bfd 	stp	x29, x30, [sp,#-32]!
    1554:	910003fd 	mov	x29, sp
    1558:	f9000bf3 	str	x19, [sp,#16]
    155c:	aa0003f3 	mov	x19, x0
/home/lagadanu/Desktop/qemu/optee_os/lib/libutee/trace_ext.c:54
    1560:	940016be 	bl	7058 <trace_get_level>
    1564:	7100001f 	cmp	w0, #0x0
    1568:	540000cd 	b.le	1580 <puts+0x30>
/home/lagadanu/Desktop/qemu/optee_os/lib/libutee/trace_ext.c:55
    156c:	aa1303e0 	mov	x0, x19
    1570:	97ffffb9 	bl	1454 <trace_ext_puts>
/home/lagadanu/Desktop/qemu/optee_os/lib/libutee/trace_ext.c:56
    1574:	f0000020 	adrp	x0, 8000 <PRIME_TABLE+0xb30>
    1578:	910fac00 	add	x0, x0, #0x3eb
    157c:	97ffffb6 	bl	1454 <trace_ext_puts>
/home/lagadanu/Desktop/qemu/optee_os/lib/libutee/trace_ext.c:59
    1580:	52800020 	mov	w0, #0x1                   	// #1
    1584:	f9400bf3 	ldr	x19, [sp,#16]
    1588:	a8c27bfd 	ldp	x29, x30, [sp],#32
    158c:	d65f03c0 	ret

0000000000001590 <putchar>:
putchar():
/home/lagadanu/Desktop/qemu/optee_os/lib/libutee/trace_ext.c:62
    1590:	a9bd7bfd 	stp	x29, x30, [sp,#-48]!
    1594:	910003fd 	mov	x29, sp
    1598:	f9000bf3 	str	x19, [sp,#16]
    159c:	2a0003f3 	mov	w19, w0
/home/lagadanu/Desktop/qemu/optee_os/lib/libutee/trace_ext.c:63
    15a0:	3900a3a0 	strb	w0, [x29,#40]
    15a4:	3900a7bf 	strb	wzr, [x29,#41]
/home/lagadanu/Desktop/qemu/optee_os/lib/libutee/trace_ext.c:65
    15a8:	940016ac 	bl	7058 <trace_get_level>
    15ac:	7100001f 	cmp	w0, #0x0
    15b0:	5400006d 	b.le	15bc <putchar+0x2c>
/home/lagadanu/Desktop/qemu/optee_os/lib/libutee/trace_ext.c:66
    15b4:	9100a3a0 	add	x0, x29, #0x28
    15b8:	97ffffa7 	bl	1454 <trace_ext_puts>
/home/lagadanu/Desktop/qemu/optee_os/lib/libutee/trace_ext.c:73
    15bc:	12001e60 	and	w0, w19, #0xff
    15c0:	f9400bf3 	ldr	x19, [sp,#16]
    15c4:	a8c37bfd 	ldp	x29, x30, [sp],#48
    15c8:	d65f03c0 	ret

00000000000015cc <__mpa_set_unused_digits_to_zero>:
__mpa_set_unused_digits_to_zero():
/home/lagadanu/Desktop/qemu/optee_os/lib/libmpa/mpa_misc.c:37
    15cc:	b9400401 	ldr	w1, [x0,#4]
/home/lagadanu/Desktop/qemu/optee_os/lib/libmpa/mpa_misc.c:38
    15d0:	b8408402 	ldr	w2, [x0],#8
/home/lagadanu/Desktop/qemu/optee_os/lib/libmpa/mpa_misc.c:37
    15d4:	7100003f 	cmp	w1, #0x0
    15d8:	5a81a423 	cneg	w3, w1, lt
/home/lagadanu/Desktop/qemu/optee_os/lib/libmpa/mpa_misc.c:38
    15dc:	52800001 	mov	w1, #0x0                   	// #0
    15e0:	4b030042 	sub	w2, w2, w3
    15e4:	8b23c800 	add	x0, x0, w3, sxtw #2
    15e8:	d37e7442 	ubfiz	x2, x2, #2, #30
    15ec:	14001368 	b	638c <memset>

00000000000015f0 <mpa_wipe>:
mpa_wipe():
/home/lagadanu/Desktop/qemu/optee_os/lib/libmpa/mpa_misc.c:55
    15f0:	a9be7bfd 	stp	x29, x30, [sp,#-32]!
/home/lagadanu/Desktop/qemu/optee_os/lib/libmpa/mpa_misc.c:56
    15f4:	52800001 	mov	w1, #0x0                   	// #0
/home/lagadanu/Desktop/qemu/optee_os/lib/libmpa/mpa_misc.c:55
    15f8:	910003fd 	mov	x29, sp
    15fc:	f9000bf3 	str	x19, [sp,#16]
    1600:	aa0003f3 	mov	x19, x0
/home/lagadanu/Desktop/qemu/optee_os/lib/libmpa/mpa_misc.c:56
    1604:	b8408402 	ldr	w2, [x0],#8
    1608:	d37e7442 	ubfiz	x2, x2, #2, #30
    160c:	94001360 	bl	638c <memset>
/home/lagadanu/Desktop/qemu/optee_os/lib/libmpa/mpa_misc.c:57
    1610:	b900067f 	str	wzr, [x19,#4]
/home/lagadanu/Desktop/qemu/optee_os/lib/libmpa/mpa_misc.c:58
    1614:	f9400bf3 	ldr	x19, [sp,#16]
    1618:	a8c27bfd 	ldp	x29, x30, [sp],#32
    161c:	d65f03c0 	ret

0000000000001620 <mpa_copy>:
mpa_copy():
/home/lagadanu/Desktop/qemu/optee_os/lib/libmpa/mpa_misc.c:71
    1620:	eb01001f 	cmp	x0, x1
    1624:	54000260 	b.eq	1670 <mpa_copy+0x50>
/home/lagadanu/Desktop/qemu/optee_os/lib/libmpa/mpa_misc.c:70
    1628:	a9be7bfd 	stp	x29, x30, [sp,#-32]!
    162c:	910003fd 	mov	x29, sp
    1630:	a90153f3 	stp	x19, x20, [sp,#16]
    1634:	aa0103f3 	mov	x19, x1
    1638:	aa0003f4 	mov	x20, x0
/home/lagadanu/Desktop/qemu/optee_os/lib/libmpa/mpa_misc.c:74
    163c:	91002021 	add	x1, x1, #0x8
    1640:	91002000 	add	x0, x0, #0x8
    1644:	b9400662 	ldr	w2, [x19,#4]
    1648:	7100005f 	cmp	w2, #0x0
    164c:	5a82a442 	cneg	w2, w2, lt
    1650:	531e7442 	lsl	w2, w2, #2
    1654:	93407c42 	sxtw	x2, w2
    1658:	94001332 	bl	6320 <memcpy>
/home/lagadanu/Desktop/qemu/optee_os/lib/libmpa/mpa_misc.c:75
    165c:	b9400660 	ldr	w0, [x19,#4]
    1660:	b9000680 	str	w0, [x20,#4]
/home/lagadanu/Desktop/qemu/optee_os/lib/libmpa/mpa_misc.c:76
    1664:	a94153f3 	ldp	x19, x20, [sp,#16]
    1668:	a8c27bfd 	ldp	x29, x30, [sp],#32
    166c:	d65f03c0 	ret
    1670:	d65f03c0 	ret

0000000000001674 <mpa_abs>:
mpa_abs():
/home/lagadanu/Desktop/qemu/optee_os/lib/libmpa/mpa_misc.c:84
    1674:	a9be7bfd 	stp	x29, x30, [sp,#-32]!
    1678:	910003fd 	mov	x29, sp
    167c:	f9000bf3 	str	x19, [sp,#16]
    1680:	aa0003f3 	mov	x19, x0
/home/lagadanu/Desktop/qemu/optee_os/lib/libmpa/mpa_misc.c:85
    1684:	97ffffe7 	bl	1620 <mpa_copy>
/home/lagadanu/Desktop/qemu/optee_os/lib/libmpa/mpa_misc.c:86
    1688:	b9400660 	ldr	w0, [x19,#4]
    168c:	36f80060 	tbz	w0, #31, 1698 <mpa_abs+0x24>
/home/lagadanu/Desktop/qemu/optee_os/lib/libmpa/mpa_misc.c:86 (discriminator 1)
    1690:	4b0003e0 	neg	w0, w0
    1694:	b9000660 	str	w0, [x19,#4]
/home/lagadanu/Desktop/qemu/optee_os/lib/libmpa/mpa_misc.c:87
    1698:	f9400bf3 	ldr	x19, [sp,#16]
    169c:	a8c27bfd 	ldp	x29, x30, [sp],#32
    16a0:	d65f03c0 	ret

00000000000016a4 <mpa_highest_bit_index>:
mpa_highest_bit_index():
/home/lagadanu/Desktop/qemu/optee_os/lib/libmpa/mpa_misc.c:101
    16a4:	b9400401 	ldr	w1, [x0,#4]
    16a8:	7100003f 	cmp	w1, #0x0
    16ac:	540001a0 	b.eq	16e0 <mpa_highest_bit_index+0x3c>
/home/lagadanu/Desktop/qemu/optee_os/lib/libmpa/mpa_misc.c:104
    16b0:	5a81a421 	cneg	w1, w1, lt
    16b4:	51000421 	sub	w1, w1, #0x1
    16b8:	8b21c800 	add	x0, x0, w1, sxtw #2
    16bc:	b9400802 	ldr	w2, [x0,#8]
/home/lagadanu/Desktop/qemu/optee_os/lib/libmpa/mpa_misc.c:106
    16c0:	52800000 	mov	w0, #0x0                   	// #0
/home/lagadanu/Desktop/qemu/optee_os/lib/libmpa/mpa_misc.c:107
    16c4:	53017c42 	lsr	w2, w2, #1
/home/lagadanu/Desktop/qemu/optee_os/lib/libmpa/mpa_misc.c:108
    16c8:	34000082 	cbz	w2, 16d8 <mpa_highest_bit_index+0x34>
/home/lagadanu/Desktop/qemu/optee_os/lib/libmpa/mpa_misc.c:106 (discriminator 2)
    16cc:	11000400 	add	w0, w0, #0x1
    16d0:	7100801f 	cmp	w0, #0x20
    16d4:	54ffff81 	b.ne	16c4 <mpa_highest_bit_index+0x20>
/home/lagadanu/Desktop/qemu/optee_os/lib/libmpa/mpa_misc.c:111
    16d8:	0b011400 	add	w0, w0, w1, lsl #5
    16dc:	d65f03c0 	ret
/home/lagadanu/Desktop/qemu/optee_os/lib/libmpa/mpa_misc.c:102
    16e0:	12800000 	mov	w0, #0xffffffff            	// #-1
/home/lagadanu/Desktop/qemu/optee_os/lib/libmpa/mpa_misc.c:112
    16e4:	d65f03c0 	ret

00000000000016e8 <mpa_get_bit>:
mpa_get_bit():
/home/lagadanu/Desktop/qemu/optee_os/lib/libmpa/mpa_misc.c:131
    16e8:	b9400402 	ldr	w2, [x0,#4]
/home/lagadanu/Desktop/qemu/optee_os/lib/libmpa/mpa_misc.c:128
    16ec:	53057c23 	lsr	w3, w1, #5
/home/lagadanu/Desktop/qemu/optee_os/lib/libmpa/mpa_misc.c:131
    16f0:	7100005f 	cmp	w2, #0x0
    16f4:	5a82a442 	cneg	w2, w2, lt
    16f8:	6b02007f 	cmp	w3, w2
    16fc:	54000148 	b.hi	1724 <mpa_get_bit+0x3c>
/home/lagadanu/Desktop/qemu/optee_os/lib/libmpa/mpa_misc.c:134
    1700:	d37e6863 	ubfiz	x3, x3, #2, #27
/home/lagadanu/Desktop/qemu/optee_os/lib/libmpa/mpa_misc.c:133
    1704:	12001021 	and	w1, w1, #0x1f
/home/lagadanu/Desktop/qemu/optee_os/lib/libmpa/mpa_misc.c:134
    1708:	8b030000 	add	x0, x0, x3
/home/lagadanu/Desktop/qemu/optee_os/lib/libmpa/mpa_misc.c:133
    170c:	d2800022 	mov	x2, #0x1                   	// #1
    1710:	9ac12041 	lsl	x1, x2, x1
/home/lagadanu/Desktop/qemu/optee_os/lib/libmpa/mpa_misc.c:134
    1714:	b9400800 	ldr	w0, [x0,#8]
    1718:	ea00003f 	tst	x1, x0
    171c:	1a9f07e0 	cset	w0, ne
    1720:	d65f03c0 	ret
    1724:	52800000 	mov	w0, #0x0                   	// #0
/home/lagadanu/Desktop/qemu/optee_os/lib/libmpa/mpa_misc.c:135
    1728:	d65f03c0 	ret

000000000000172c <mpa_can_hold>:
mpa_can_hold():
/home/lagadanu/Desktop/qemu/optee_os/lib/libmpa/mpa_misc.c:145
    172c:	b9400421 	ldr	w1, [x1,#4]
    1730:	b9400000 	ldr	w0, [x0]
    1734:	7100003f 	cmp	w1, #0x0
    1738:	5a81a421 	cneg	w1, w1, lt
    173c:	6b01001f 	cmp	w0, w1
/home/lagadanu/Desktop/qemu/optee_os/lib/libmpa/mpa_misc.c:146
    1740:	1a9f37e0 	cset	w0, cs
    1744:	d65f03c0 	ret

0000000000001748 <mpa_parity>:
mpa_parity():
/home/lagadanu/Desktop/qemu/optee_os/lib/libmpa/mpa_misc.c:156
    1748:	b9400800 	ldr	w0, [x0,#8]
/home/lagadanu/Desktop/qemu/optee_os/lib/libmpa/mpa_misc.c:157
    174c:	12000000 	and	w0, w0, #0x1
    1750:	d65f03c0 	ret

0000000000001754 <mpa_constant_one>:
mpa_constant_one():
/home/lagadanu/Desktop/qemu/optee_os/lib/libmpa/mpa_misc.c:167
    1754:	d0000020 	adrp	x0, 7000 <snprintk+0x40>
    1758:	91128000 	add	x0, x0, #0x4a0
    175c:	d65f03c0 	ret

0000000000001760 <__mpa_montgomery_mul_add>:
__mpa_montgomery_mul_add():
/home/lagadanu/Desktop/qemu/optee_os/lib/libmpa/mpa_montgomery.c:34
    1760:	34000222 	cbz	w2, 17a4 <__mpa_montgomery_mul_add+0x44>
/home/lagadanu/Desktop/qemu/optee_os/lib/libmpa/mpa_montgomery.c:36
    1764:	91002007 	add	x7, x0, #0x8
    1768:	d2800025 	mov	x5, #0x1                   	// #1
/home/lagadanu/Desktop/qemu/optee_os/lib/libmpa/mpa_montgomery.c:37
    176c:	aa0703e3 	mov	x3, x7
/home/lagadanu/Desktop/qemu/optee_os/lib/libmpa/mpa_montgomery.c:38
    1770:	52800004 	mov	w4, #0x0                   	// #0
/home/lagadanu/Desktop/qemu/optee_os/lib/libmpa/mpa_montgomery.c:39
    1774:	b9400428 	ldr	w8, [x1,#4]
    1778:	510004a6 	sub	w6, w5, #0x1
    177c:	910004a5 	add	x5, x5, #0x1
    1780:	6b0800df 	cmp	w6, w8
    1784:	5400012b 	b.lt	17a8 <__mpa_montgomery_mul_add+0x48>
/home/lagadanu/Desktop/qemu/optee_os/lib/libmpa/mpa_montgomery.c:46
    1788:	350001e4 	cbnz	w4, 17c4 <__mpa_montgomery_mul_add+0x64>
/home/lagadanu/Desktop/qemu/optee_os/lib/libmpa/mpa_montgomery.c:51
    178c:	cb070063 	sub	x3, x3, x7
/home/lagadanu/Desktop/qemu/optee_os/lib/libmpa/mpa_montgomery.c:52
    1790:	b9400401 	ldr	w1, [x0,#4]
/home/lagadanu/Desktop/qemu/optee_os/lib/libmpa/mpa_montgomery.c:51
    1794:	9342fc63 	asr	x3, x3, #2
/home/lagadanu/Desktop/qemu/optee_os/lib/libmpa/mpa_montgomery.c:52
    1798:	6b01007f 	cmp	w3, w1
    179c:	5400004d 	b.le	17a4 <__mpa_montgomery_mul_add+0x44>
/home/lagadanu/Desktop/qemu/optee_os/lib/libmpa/mpa_montgomery.c:53
    17a0:	b9000403 	str	w3, [x0,#4]
    17a4:	d65f03c0 	ret
/home/lagadanu/Desktop/qemu/optee_os/lib/libmpa/mpa_montgomery.c:40
    17a8:	b9400066 	ldr	w6, [x3]
    17ac:	8b2440c4 	add	x4, x6, w4, uxtw
    17b0:	b8657826 	ldr	w6, [x1,x5,lsl #2]
    17b4:	9ba210c4 	umaddl	x4, w6, w2, x4
/home/lagadanu/Desktop/qemu/optee_os/lib/libmpa/mpa_montgomery.c:43
    17b8:	b8004464 	str	w4, [x3],#4
/home/lagadanu/Desktop/qemu/optee_os/lib/libmpa/mpa_montgomery.c:44
    17bc:	d360fc84 	lsr	x4, x4, #32
    17c0:	17ffffed 	b	1774 <__mpa_montgomery_mul_add+0x14>
/home/lagadanu/Desktop/qemu/optee_os/lib/libmpa/mpa_montgomery.c:47
    17c4:	b9400061 	ldr	w1, [x3]
    17c8:	8b244024 	add	x4, x1, w4, uxtw
/home/lagadanu/Desktop/qemu/optee_os/lib/libmpa/mpa_montgomery.c:48
    17cc:	b8004464 	str	w4, [x3],#4
/home/lagadanu/Desktop/qemu/optee_os/lib/libmpa/mpa_montgomery.c:49
    17d0:	d360fc84 	lsr	x4, x4, #32
    17d4:	17ffffed 	b	1788 <__mpa_montgomery_mul_add+0x28>

00000000000017d8 <__mpa_montgomery_sub_ack>:
__mpa_montgomery_sub_ack():
/home/lagadanu/Desktop/qemu/optee_os/lib/libmpa/mpa_montgomery.c:75
    17d8:	91002002 	add	x2, x0, #0x8
/home/lagadanu/Desktop/qemu/optee_os/lib/libmpa/mpa_montgomery.c:78
    17dc:	d2800026 	mov	x6, #0x1                   	// #1
/home/lagadanu/Desktop/qemu/optee_os/lib/libmpa/mpa_montgomery.c:76
    17e0:	52800004 	mov	w4, #0x0                   	// #0
/home/lagadanu/Desktop/qemu/optee_os/lib/libmpa/mpa_montgomery.c:78
    17e4:	b9400423 	ldr	w3, [x1,#4]
    17e8:	510004c5 	sub	w5, w6, #0x1
    17ec:	910004c6 	add	x6, x6, #0x1
    17f0:	6b05007f 	cmp	w3, w5
    17f4:	540000cc 	b.gt	180c <__mpa_montgomery_sub_ack+0x34>
/home/lagadanu/Desktop/qemu/optee_os/lib/libmpa/mpa_montgomery.c:87
    17f8:	350001a4 	cbnz	w4, 182c <__mpa_montgomery_sub_ack+0x54>
/home/lagadanu/Desktop/qemu/optee_os/lib/libmpa/mpa_montgomery.c:93
    17fc:	b9400401 	ldr	w1, [x0,#4]
    1800:	6b0100bf 	cmp	w5, w1
    1804:	5400026a 	b.ge	1850 <__mpa_montgomery_sub_ack+0x78>
    1808:	d65f03c0 	ret
/home/lagadanu/Desktop/qemu/optee_os/lib/libmpa/mpa_montgomery.c:79
    180c:	b8667825 	ldr	w5, [x1,x6,lsl #2]
    1810:	b9400043 	ldr	w3, [x2]
    1814:	cb050063 	sub	x3, x3, x5
    1818:	cb244063 	sub	x3, x3, w4, uxtw
/home/lagadanu/Desktop/qemu/optee_os/lib/libmpa/mpa_montgomery.c:81
    181c:	b8004443 	str	w3, [x2],#4
/home/lagadanu/Desktop/qemu/optee_os/lib/libmpa/mpa_montgomery.c:82
    1820:	d360fc63 	lsr	x3, x3, #32
    1824:	4b0303e4 	neg	w4, w3
    1828:	17ffffef 	b	17e4 <__mpa_montgomery_sub_ack+0xc>
/home/lagadanu/Desktop/qemu/optee_os/lib/libmpa/mpa_montgomery.c:88
    182c:	b9400041 	ldr	w1, [x2]
/home/lagadanu/Desktop/qemu/optee_os/lib/libmpa/mpa_montgomery.c:91
    1830:	110004a5 	add	w5, w5, #0x1
/home/lagadanu/Desktop/qemu/optee_os/lib/libmpa/mpa_montgomery.c:88
    1834:	cb244023 	sub	x3, x1, w4, uxtw
/home/lagadanu/Desktop/qemu/optee_os/lib/libmpa/mpa_montgomery.c:89
    1838:	b8004443 	str	w3, [x2],#4
/home/lagadanu/Desktop/qemu/optee_os/lib/libmpa/mpa_montgomery.c:90
    183c:	d360fc63 	lsr	x3, x3, #32
    1840:	4b0303e4 	neg	w4, w3
    1844:	17ffffed 	b	17f8 <__mpa_montgomery_sub_ack+0x20>
/home/lagadanu/Desktop/qemu/optee_os/lib/libmpa/mpa_montgomery.c:96
    1848:	51000421 	sub	w1, w1, #0x1
    184c:	b9000401 	str	w1, [x0,#4]
/home/lagadanu/Desktop/qemu/optee_os/lib/libmpa/mpa_montgomery.c:95
    1850:	b9400401 	ldr	w1, [x0,#4]
    1854:	7100003f 	cmp	w1, #0x0
    1858:	5400006d 	b.le	1864 <__mpa_montgomery_sub_ack+0x8c>
/home/lagadanu/Desktop/qemu/optee_os/lib/libmpa/mpa_montgomery.c:95 (discriminator 1)
    185c:	b85fcc43 	ldr	w3, [x2,#-4]!
    1860:	34ffff43 	cbz	w3, 1848 <__mpa_montgomery_sub_ack+0x70>
    1864:	d65f03c0 	ret

0000000000001868 <__mpa_montgomery_mul>:
__mpa_montgomery_mul():
/home/lagadanu/Desktop/qemu/optee_os/lib/libmpa/mpa_montgomery.c:115
    1868:	a9bb7bfd 	stp	x29, x30, [sp,#-80]!
    186c:	910003fd 	mov	x29, sp
    1870:	a90363f7 	stp	x23, x24, [sp,#48]
    1874:	aa0103f7 	mov	x23, x1
    1878:	a9046bf9 	stp	x25, x26, [sp,#64]
    187c:	910022f9 	add	x25, x23, #0x8
/home/lagadanu/Desktop/qemu/optee_os/lib/libmpa/mpa_montgomery.c:122
    1880:	52800018 	mov	w24, #0x0                   	// #0
/home/lagadanu/Desktop/qemu/optee_os/lib/libmpa/mpa_montgomery.c:115
    1884:	a90153f3 	stp	x19, x20, [sp,#16]
    1888:	a9025bf5 	stp	x21, x22, [sp,#32]
    188c:	aa0003f3 	mov	x19, x0
    1890:	aa0203f6 	mov	x22, x2
    1894:	aa0303f4 	mov	x20, x3
    1898:	2a0403f5 	mov	w21, w4
/home/lagadanu/Desktop/qemu/optee_os/lib/libmpa/mpa_montgomery.c:120
    189c:	97ffff55 	bl	15f0 <mpa_wipe>
/home/lagadanu/Desktop/qemu/optee_os/lib/libmpa/mpa_montgomery.c:122 (discriminator 1)
    18a0:	b9400680 	ldr	w0, [x20,#4]
    18a4:	6b00031f 	cmp	w24, w0
    18a8:	540001ab 	b.lt	18dc <__mpa_montgomery_mul+0x74>
/home/lagadanu/Desktop/qemu/optee_os/lib/libmpa/mpa_montgomery.c:139
    18ac:	aa1403e1 	mov	x1, x20
    18b0:	aa1303e0 	mov	x0, x19
    18b4:	94000aad 	bl	4368 <__mpa_abs_cmp>
    18b8:	37f805e0 	tbnz	w0, #31, 1974 <__mpa_montgomery_mul+0x10c>
/home/lagadanu/Desktop/qemu/optee_os/lib/libmpa/mpa_montgomery.c:140
    18bc:	aa1403e1 	mov	x1, x20
    18c0:	aa1303e0 	mov	x0, x19
/home/lagadanu/Desktop/qemu/optee_os/lib/libmpa/mpa_montgomery.c:141
    18c4:	a9425bf5 	ldp	x21, x22, [sp,#32]
    18c8:	a94153f3 	ldp	x19, x20, [sp,#16]
    18cc:	a94363f7 	ldp	x23, x24, [sp,#48]
    18d0:	a9446bf9 	ldp	x25, x26, [sp,#64]
    18d4:	a8c57bfd 	ldp	x29, x30, [sp],#80
/home/lagadanu/Desktop/qemu/optee_os/lib/libmpa/mpa_montgomery.c:140
    18d8:	17ffffc0 	b	17d8 <__mpa_montgomery_sub_ack>
/home/lagadanu/Desktop/qemu/optee_os/lib/libmpa/mpa_montgomery.c:124
    18dc:	b94006e1 	ldr	w1, [x23,#4]
    18e0:	52800002 	mov	w2, #0x0                   	// #0
/home/lagadanu/Desktop/qemu/optee_os/lib/libmpa/mpa_montgomery.c:123
    18e4:	b9400a69 	ldr	w9, [x19,#8]
/home/lagadanu/Desktop/qemu/optee_os/lib/libmpa/mpa_montgomery.c:124
    18e8:	7100003f 	cmp	w1, #0x0
    18ec:	5a81a421 	cneg	w1, w1, lt
    18f0:	6b01031f 	cmp	w24, w1
    18f4:	5400004a 	b.ge	18fc <__mpa_montgomery_mul+0x94>
/home/lagadanu/Desktop/qemu/optee_os/lib/libmpa/mpa_montgomery.c:124 (discriminator 1)
    18f8:	b9400322 	ldr	w2, [x25]
/home/lagadanu/Desktop/qemu/optee_os/lib/libmpa/mpa_montgomery.c:125
    18fc:	b94006c1 	ldr	w1, [x22,#4]
    1900:	52800000 	mov	w0, #0x0                   	// #0
    1904:	34000041 	cbz	w1, 190c <__mpa_montgomery_mul+0xa4>
/home/lagadanu/Desktop/qemu/optee_os/lib/libmpa/mpa_montgomery.c:125 (discriminator 1)
    1908:	b9400ac0 	ldr	w0, [x22,#8]
/home/lagadanu/Desktop/qemu/optee_os/lib/libmpa/mpa_montgomery.c:123
    190c:	1b002440 	madd	w0, w2, w0, w9
/home/lagadanu/Desktop/qemu/optee_os/lib/libmpa/mpa_montgomery.c:127
    1910:	aa1603e1 	mov	x1, x22
/home/lagadanu/Desktop/qemu/optee_os/lib/libmpa/mpa_montgomery.c:123
    1914:	1b157c1a 	mul	w26, w0, w21
/home/lagadanu/Desktop/qemu/optee_os/lib/libmpa/mpa_montgomery.c:127
    1918:	aa1303e0 	mov	x0, x19
    191c:	97ffff91 	bl	1760 <__mpa_montgomery_mul_add>
/home/lagadanu/Desktop/qemu/optee_os/lib/libmpa/mpa_montgomery.c:129
    1920:	2a1a03e2 	mov	w2, w26
    1924:	aa1403e1 	mov	x1, x20
    1928:	aa1303e0 	mov	x0, x19
    192c:	97ffff8d 	bl	1760 <__mpa_montgomery_mul_add>
/home/lagadanu/Desktop/qemu/optee_os/lib/libmpa/mpa_montgomery.c:132
    1930:	b9400660 	ldr	w0, [x19,#4]
    1934:	91002261 	add	x1, x19, #0x8
/home/lagadanu/Desktop/qemu/optee_os/lib/libmpa/mpa_montgomery.c:133
    1938:	52800002 	mov	w2, #0x0                   	// #0
/home/lagadanu/Desktop/qemu/optee_os/lib/libmpa/mpa_montgomery.c:132
    193c:	51000400 	sub	w0, w0, #0x1
    1940:	b9000660 	str	w0, [x19,#4]
    1944:	91001021 	add	x1, x1, #0x4
/home/lagadanu/Desktop/qemu/optee_os/lib/libmpa/mpa_montgomery.c:133 (discriminator 1)
    1948:	6b00005f 	cmp	w2, w0
    194c:	540000cb 	b.lt	1964 <__mpa_montgomery_mul+0xfc>
/home/lagadanu/Desktop/qemu/optee_os/lib/libmpa/mpa_montgomery.c:135 (discriminator 2)
    1950:	8b20ca60 	add	x0, x19, w0, sxtw #2
/home/lagadanu/Desktop/qemu/optee_os/lib/libmpa/mpa_montgomery.c:122 (discriminator 2)
    1954:	11000718 	add	w24, w24, #0x1
    1958:	91001339 	add	x25, x25, #0x4
/home/lagadanu/Desktop/qemu/optee_os/lib/libmpa/mpa_montgomery.c:135 (discriminator 2)
    195c:	b900081f 	str	wzr, [x0,#8]
    1960:	17ffffd0 	b	18a0 <__mpa_montgomery_mul+0x38>
/home/lagadanu/Desktop/qemu/optee_os/lib/libmpa/mpa_montgomery.c:134 (discriminator 3)
    1964:	b9400023 	ldr	w3, [x1]
    1968:	11000442 	add	w2, w2, #0x1
    196c:	b81fc023 	stur	w3, [x1,#-4]
    1970:	17fffff5 	b	1944 <__mpa_montgomery_mul+0xdc>
/home/lagadanu/Desktop/qemu/optee_os/lib/libmpa/mpa_montgomery.c:141
    1974:	a94153f3 	ldp	x19, x20, [sp,#16]
    1978:	a9425bf5 	ldp	x21, x22, [sp,#32]
    197c:	a94363f7 	ldp	x23, x24, [sp,#48]
    1980:	a9446bf9 	ldp	x25, x26, [sp,#64]
    1984:	a8c57bfd 	ldp	x29, x30, [sp],#80
    1988:	d65f03c0 	ret

000000000000198c <mpa_compute_fmm_context>:
mpa_compute_fmm_context():
/home/lagadanu/Desktop/qemu/optee_os/lib/libmpa/mpa_montgomery.c:157
    198c:	a9ba7bfd 	stp	x29, x30, [sp,#-96]!
    1990:	910003fd 	mov	x29, sp
    1994:	a90363f7 	stp	x23, x24, [sp,#48]
    1998:	aa0203f8 	mov	x24, x2
/home/lagadanu/Desktop/qemu/optee_os/lib/libmpa/mpa_montgomery.c:171
    199c:	b9400402 	ldr	w2, [x0,#4]
/home/lagadanu/Desktop/qemu/optee_os/lib/libmpa/mpa_montgomery.c:157
    19a0:	aa0303f7 	mov	x23, x3
    19a4:	a90153f3 	stp	x19, x20, [sp,#16]
    19a8:	aa0103f4 	mov	x20, x1
/home/lagadanu/Desktop/qemu/optee_os/lib/libmpa/mpa_montgomery.c:171
    19ac:	7100005f 	cmp	w2, #0x0
/home/lagadanu/Desktop/qemu/optee_os/lib/libmpa/mpa_montgomery.c:157
    19b0:	aa0403f3 	mov	x19, x4
    19b4:	a9025bf5 	stp	x21, x22, [sp,#32]
/home/lagadanu/Desktop/qemu/optee_os/lib/libmpa/mpa_montgomery.c:172
    19b8:	52800021 	mov	w1, #0x1                   	// #1
/home/lagadanu/Desktop/qemu/optee_os/lib/libmpa/mpa_montgomery.c:171
    19bc:	5a82a455 	cneg	w21, w2, lt
/home/lagadanu/Desktop/qemu/optee_os/lib/libmpa/mpa_montgomery.c:157
    19c0:	aa0003f6 	mov	x22, x0
/home/lagadanu/Desktop/qemu/optee_os/lib/libmpa/mpa_montgomery.c:172
    19c4:	aa1403e0 	mov	x0, x20
    19c8:	94000175 	bl	1f9c <mpa_set_word>
/home/lagadanu/Desktop/qemu/optee_os/lib/libmpa/mpa_montgomery.c:173
    19cc:	531b6aa2 	lsl	w2, w21, #5
    19d0:	aa1403e1 	mov	x1, x20
    19d4:	aa1403e0 	mov	x0, x20
    19d8:	94000772 	bl	37a0 <mpa_shift_left>
/home/lagadanu/Desktop/qemu/optee_os/lib/libmpa/mpa_montgomery.c:174
    19dc:	aa1603e2 	mov	x2, x22
    19e0:	aa1403e1 	mov	x1, x20
    19e4:	aa1403e0 	mov	x0, x20
    19e8:	aa1303e3 	mov	x3, x19
    19ec:	94000d32 	bl	4eb4 <mpa_mod>
/home/lagadanu/Desktop/qemu/optee_os/lib/libmpa/mpa_montgomery.c:180
    19f0:	52800035 	mov	w21, #0x1                   	// #1
/home/lagadanu/Desktop/qemu/optee_os/lib/libmpa/mpa_montgomery.c:177
    19f4:	aa1603e3 	mov	x3, x22
    19f8:	aa1403e2 	mov	x2, x20
    19fc:	aa1303e4 	mov	x4, x19
    1a00:	aa1403e1 	mov	x1, x20
    1a04:	aa1803e0 	mov	x0, x24
    1a08:	94000d73 	bl	4fd4 <mpa_mul_mod>
/home/lagadanu/Desktop/qemu/optee_os/lib/libmpa/mpa_montgomery.c:182
    1a0c:	b9400ac0 	ldr	w0, [x22,#8]
/home/lagadanu/Desktop/qemu/optee_os/lib/libmpa/mpa_montgomery.c:184
    1a10:	910103b6 	add	x22, x29, #0x40
    1a14:	aa1303e1 	mov	x1, x19
/home/lagadanu/Desktop/qemu/optee_os/lib/libmpa/mpa_montgomery.c:181
    1a18:	290a57b5 	stp	w21, w21, [x29,#80]
/home/lagadanu/Desktop/qemu/optee_os/lib/libmpa/mpa_montgomery.c:182
    1a1c:	b9005ba0 	str	w0, [x29,#88]
/home/lagadanu/Desktop/qemu/optee_os/lib/libmpa/mpa_montgomery.c:185
    1a20:	910123b8 	add	x24, x29, #0x48
/home/lagadanu/Desktop/qemu/optee_os/lib/libmpa/mpa_montgomery.c:184
    1a24:	aa1603e0 	mov	x0, x22
    1a28:	940005dd 	bl	319c <mpa_alloc_static_temp_var>
/home/lagadanu/Desktop/qemu/optee_os/lib/libmpa/mpa_montgomery.c:185
    1a2c:	aa1303e1 	mov	x1, x19
    1a30:	aa1803e0 	mov	x0, x24
    1a34:	940005da 	bl	319c <mpa_alloc_static_temp_var>
/home/lagadanu/Desktop/qemu/optee_os/lib/libmpa/mpa_montgomery.c:187
    1a38:	f0000034 	adrp	x20, 8000 <PRIME_TABLE+0xb30>
    1a3c:	a94403a1 	ldp	x1, x0, [x29,#64]
    1a40:	aa1303e5 	mov	x5, x19
    1a44:	f945b294 	ldr	x20, [x20,#2912]
    1a48:	910143a3 	add	x3, x29, #0x50
    1a4c:	d2800002 	mov	x2, #0x0                   	// #0
    1a50:	aa1403e4 	mov	x4, x20
    1a54:	94000544 	bl	2f64 <mpa_extended_gcd>
/home/lagadanu/Desktop/qemu/optee_os/lib/libmpa/mpa_montgomery.c:189
    1a58:	f94027a0 	ldr	x0, [x29,#72]
    1a5c:	2a1503e1 	mov	w1, w21
    1a60:	94000a95 	bl	44b4 <mpa_cmp_short>
    1a64:	2a0003f5 	mov	w21, w0
/home/lagadanu/Desktop/qemu/optee_os/lib/libmpa/mpa_montgomery.c:191
    1a68:	35000160 	cbnz	w0, 1a94 <mpa_compute_fmm_context+0x108>
/home/lagadanu/Desktop/qemu/optee_os/lib/libmpa/mpa_montgomery.c:207
    1a6c:	f94023a1 	ldr	x1, [x29,#64]
    1a70:	b9400420 	ldr	w0, [x1,#4]
    1a74:	37f800a0 	tbnz	w0, #31, 1a88 <mpa_compute_fmm_context+0xfc>
/home/lagadanu/Desktop/qemu/optee_os/lib/libmpa/mpa_montgomery.c:208
    1a78:	aa1303e3 	mov	x3, x19
    1a7c:	aa1403e2 	mov	x2, x20
    1a80:	aa0103e0 	mov	x0, x1
    1a84:	9400092a 	bl	3f2c <mpa_sub>
/home/lagadanu/Desktop/qemu/optee_os/lib/libmpa/mpa_montgomery.c:212
    1a88:	f94023a0 	ldr	x0, [x29,#64]
    1a8c:	b9400800 	ldr	w0, [x0,#8]
    1a90:	b90002e0 	str	w0, [x23]
/home/lagadanu/Desktop/qemu/optee_os/lib/libmpa/mpa_montgomery.c:216
    1a94:	aa1303e1 	mov	x1, x19
    1a98:	aa1803e0 	mov	x0, x24
    1a9c:	940005c4 	bl	31ac <mpa_free_static_temp_var>
/home/lagadanu/Desktop/qemu/optee_os/lib/libmpa/mpa_montgomery.c:217
    1aa0:	aa1303e1 	mov	x1, x19
    1aa4:	aa1603e0 	mov	x0, x22
    1aa8:	940005c1 	bl	31ac <mpa_free_static_temp_var>
/home/lagadanu/Desktop/qemu/optee_os/lib/libmpa/mpa_montgomery.c:219
    1aac:	710002bf 	cmp	w21, #0x0
/home/lagadanu/Desktop/qemu/optee_os/lib/libmpa/mpa_montgomery.c:222
    1ab0:	a94153f3 	ldp	x19, x20, [sp,#16]
    1ab4:	5a9f03e0 	csetm	w0, ne
    1ab8:	a9425bf5 	ldp	x21, x22, [sp,#32]
    1abc:	a94363f7 	ldp	x23, x24, [sp,#48]
    1ac0:	a8c67bfd 	ldp	x29, x30, [sp],#96
    1ac4:	d65f03c0 	ret

0000000000001ac8 <mpa_montgomery_mul>:
mpa_montgomery_mul():
/home/lagadanu/Desktop/qemu/optee_os/lib/libmpa/mpa_montgomery.c:235
    1ac8:	a9ba7bfd 	stp	x29, x30, [sp,#-96]!
    1acc:	910003fd 	mov	x29, sp
    1ad0:	a90153f3 	stp	x19, x20, [sp,#16]
/home/lagadanu/Desktop/qemu/optee_os/lib/libmpa/mpa_montgomery.c:238
    1ad4:	910163b3 	add	x19, x29, #0x58
/home/lagadanu/Desktop/qemu/optee_os/lib/libmpa/mpa_montgomery.c:235
    1ad8:	aa0503f4 	mov	x20, x5
    1adc:	a9025bf5 	stp	x21, x22, [sp,#32]
    1ae0:	a90363f7 	stp	x23, x24, [sp,#48]
    1ae4:	aa0003f5 	mov	x21, x0
    1ae8:	f90023f9 	str	x25, [sp,#64]
    1aec:	aa0103f6 	mov	x22, x1
    1af0:	aa0203f7 	mov	x23, x2
/home/lagadanu/Desktop/qemu/optee_os/lib/libmpa/mpa_montgomery.c:238
    1af4:	aa0503e1 	mov	x1, x5
/home/lagadanu/Desktop/qemu/optee_os/lib/libmpa/mpa_montgomery.c:235
    1af8:	aa0303f8 	mov	x24, x3
    1afc:	2a0403f9 	mov	w25, w4
/home/lagadanu/Desktop/qemu/optee_os/lib/libmpa/mpa_montgomery.c:238
    1b00:	aa1303e0 	mov	x0, x19
    1b04:	940005a6 	bl	319c <mpa_alloc_static_temp_var>
/home/lagadanu/Desktop/qemu/optee_os/lib/libmpa/mpa_montgomery.c:240
    1b08:	f9402fa0 	ldr	x0, [x29,#88]
    1b0c:	2a1903e4 	mov	w4, w25
    1b10:	aa1803e3 	mov	x3, x24
    1b14:	aa1703e2 	mov	x2, x23
    1b18:	aa1603e1 	mov	x1, x22
    1b1c:	97ffff53 	bl	1868 <__mpa_montgomery_mul>
/home/lagadanu/Desktop/qemu/optee_os/lib/libmpa/mpa_montgomery.c:242
    1b20:	f9402fa1 	ldr	x1, [x29,#88]
    1b24:	aa1503e0 	mov	x0, x21
    1b28:	97fffebe 	bl	1620 <mpa_copy>
/home/lagadanu/Desktop/qemu/optee_os/lib/libmpa/mpa_montgomery.c:243
    1b2c:	aa1403e1 	mov	x1, x20
    1b30:	aa1303e0 	mov	x0, x19
    1b34:	9400059e 	bl	31ac <mpa_free_static_temp_var>
/home/lagadanu/Desktop/qemu/optee_os/lib/libmpa/mpa_montgomery.c:244
    1b38:	f94023f9 	ldr	x25, [sp,#64]
    1b3c:	a94153f3 	ldp	x19, x20, [sp,#16]
    1b40:	a9425bf5 	ldp	x21, x22, [sp,#32]
    1b44:	a94363f7 	ldp	x23, x24, [sp,#48]
    1b48:	a8c67bfd 	ldp	x29, x30, [sp],#96
    1b4c:	d65f03c0 	ret

0000000000001b50 <mpa_is_prob_prime>:
mpa_is_prob_prime():
/home/lagadanu/Desktop/qemu/optee_os/lib/libmpa/mpa_primetest.c:67
    1b50:	a9b37bfd 	stp	x29, x30, [sp,#-208]!
    1b54:	910003fd 	mov	x29, sp
    1b58:	a9025bf5 	stp	x21, x22, [sp,#32]
    1b5c:	2a0103f6 	mov	w22, w1
is_small_prime():
/home/lagadanu/Desktop/qemu/optee_os/lib/libmpa/mpa_primetest.c:114
    1b60:	b9400401 	ldr	w1, [x0,#4]
mpa_is_prob_prime():
/home/lagadanu/Desktop/qemu/optee_os/lib/libmpa/mpa_primetest.c:67
    1b64:	a90153f3 	stp	x19, x20, [sp,#16]
    1b68:	aa0003f4 	mov	x20, x0
is_small_prime():
/home/lagadanu/Desktop/qemu/optee_os/lib/libmpa/mpa_primetest.c:114
    1b6c:	7100003f 	cmp	w1, #0x0
mpa_is_prob_prime():
/home/lagadanu/Desktop/qemu/optee_os/lib/libmpa/mpa_primetest.c:67
    1b70:	a90363f7 	stp	x23, x24, [sp,#48]
    1b74:	a9046bf9 	stp	x25, x26, [sp,#64]
is_small_prime():
/home/lagadanu/Desktop/qemu/optee_os/lib/libmpa/mpa_primetest.c:114
    1b78:	5a81a421 	cneg	w1, w1, lt
mpa_is_prob_prime():
/home/lagadanu/Desktop/qemu/optee_os/lib/libmpa/mpa_primetest.c:67
    1b7c:	a90573fb 	stp	x27, x28, [sp,#80]
    1b80:	aa0203f3 	mov	x19, x2
is_small_prime():
/home/lagadanu/Desktop/qemu/optee_os/lib/libmpa/mpa_primetest.c:114
    1b84:	7100043f 	cmp	w1, #0x1
    1b88:	5400018d 	b.le	1bb8 <mpa_is_prob_prime+0x68>
/home/lagadanu/Desktop/qemu/optee_os/lib/libmpa/mpa_primetest.c:115
    1b8c:	97fffeef 	bl	1748 <mpa_parity>
    1b90:	35000d80 	cbnz	w0, 1d40 <mpa_is_prob_prime+0x1f0>
    1b94:	52800019 	mov	w25, #0x0                   	// #0
mpa_is_prob_prime():
/home/lagadanu/Desktop/qemu/optee_os/lib/libmpa/mpa_primetest.c:85
    1b98:	2a1903e0 	mov	w0, w25
    1b9c:	a94153f3 	ldp	x19, x20, [sp,#16]
    1ba0:	a9425bf5 	ldp	x21, x22, [sp,#32]
    1ba4:	a94363f7 	ldp	x23, x24, [sp,#48]
    1ba8:	a9446bf9 	ldp	x25, x26, [sp,#64]
    1bac:	a94573fb 	ldp	x27, x28, [sp,#80]
    1bb0:	a8cd7bfd 	ldp	x29, x30, [sp],#208
    1bb4:	d65f03c0 	ret
is_small_prime():
/home/lagadanu/Desktop/qemu/optee_os/lib/libmpa/mpa_primetest.c:117
    1bb8:	940000fe 	bl	1fb0 <mpa_get_word>
    1bbc:	2a0003f5 	mov	w21, w0
/home/lagadanu/Desktop/qemu/optee_os/lib/libmpa/mpa_primetest.c:118
    1bc0:	32000000 	orr	w0, w0, #0x1
    1bc4:	7100041f 	cmp	w0, #0x1
    1bc8:	54fffe60 	b.eq	1b94 <mpa_is_prob_prime+0x44>
/home/lagadanu/Desktop/qemu/optee_os/lib/libmpa/mpa_primetest.c:121
    1bcc:	52800039 	mov	w25, #0x1                   	// #1
/home/lagadanu/Desktop/qemu/optee_os/lib/libmpa/mpa_primetest.c:120
    1bd0:	71000abf 	cmp	w21, #0x2
    1bd4:	54fffe20 	b.eq	1b98 <mpa_is_prob_prime+0x48>
/home/lagadanu/Desktop/qemu/optee_os/lib/libmpa/mpa_primetest.c:122
    1bd8:	3607fdf5 	tbz	w21, #0, 1b94 <mpa_is_prob_prime+0x44>
/home/lagadanu/Desktop/qemu/optee_os/lib/libmpa/mpa_primetest.c:126
    1bdc:	529869e1 	mov	w1, #0xc34f                	// #49999
    1be0:	aa1403e0 	mov	x0, x20
    1be4:	94000a34 	bl	44b4 <mpa_cmp_short>
    1be8:	7100001f 	cmp	w0, #0x0
    1bec:	54000aac 	b.gt	1d40 <mpa_is_prob_prime+0x1f0>
/home/lagadanu/Desktop/qemu/optee_os/lib/libmpa/mpa_primetest.c:128
    1bf0:	51000eb5 	sub	w21, w21, #0x3
check_table():
/home/lagadanu/Desktop/qemu/optee_os/lib/libmpa/mpa_primetest.c:95
    1bf4:	d0000020 	adrp	x0, 7000 <snprintk+0x40>
    1bf8:	91134000 	add	x0, x0, #0x4d0
    1bfc:	d3467ea1 	ubfx	x1, x21, #6, #26
    1c00:	d34116b5 	ubfx	x21, x21, #1, #5
    1c04:	b8617802 	ldr	w2, [x0,x1,lsl #2]
    1c08:	1ad52440 	lsr	w0, w2, w21
    1c0c:	0a190019 	and	w25, w0, w25
    1c10:	17ffffe2 	b	1b98 <mpa_is_prob_prime+0x48>
primality_test_miller_rabin():
/home/lagadanu/Desktop/qemu/optee_os/lib/libmpa/mpa_primetest.c:206
    1c14:	f94057a1 	ldr	x1, [x29,#168]
    1c18:	52800022 	mov	w2, #0x1                   	// #1
/home/lagadanu/Desktop/qemu/optee_os/lib/libmpa/mpa_primetest.c:207
    1c1c:	11000718 	add	w24, w24, #0x1
/home/lagadanu/Desktop/qemu/optee_os/lib/libmpa/mpa_primetest.c:206
    1c20:	aa0103e0 	mov	x0, x1
    1c24:	94000743 	bl	3930 <mpa_shift_right>
    1c28:	1400008e 	b	1e60 <mpa_is_prob_prime+0x310>
/home/lagadanu/Desktop/qemu/optee_os/lib/libmpa/mpa_primetest.c:212
    1c2c:	36f803b7 	tbz	w23, #31, 1ca0 <mpa_is_prob_prime+0x150>
/home/lagadanu/Desktop/qemu/optee_os/lib/libmpa/mpa_primetest.c:213
    1c30:	f9403ba0 	ldr	x0, [x29,#112]
/home/lagadanu/Desktop/qemu/optee_os/lib/libmpa/mpa_primetest.c:215
    1c34:	52800039 	mov	w25, #0x1                   	// #1
/home/lagadanu/Desktop/qemu/optee_os/lib/libmpa/mpa_primetest.c:213
    1c38:	91312000 	add	x0, x0, #0xc48
    1c3c:	b8767801 	ldr	w1, [x0,x22,lsl #2]
    1c40:	f94053a0 	ldr	x0, [x29,#160]
    1c44:	940000ae 	bl	1efc <mpa_set_S32>
/home/lagadanu/Desktop/qemu/optee_os/lib/libmpa/mpa_primetest.c:214
    1c48:	f94053a1 	ldr	x1, [x29,#160]
    1c4c:	aa1403e0 	mov	x0, x20
    1c50:	940009ff 	bl	444c <mpa_cmp>
    1c54:	34000220 	cbz	w0, 1c98 <mpa_is_prob_prime+0x148>
/home/lagadanu/Desktop/qemu/optee_os/lib/libmpa/mpa_primetest.c:232
    1c58:	b9409fa6 	ldr	w6, [x29,#156]
    1c5c:	aa1303e7 	mov	x7, x19
    1c60:	a94a0ba1 	ldp	x1, x2, [x29,#160]
    1c64:	aa1403e3 	mov	x3, x20
    1c68:	a94b93a0 	ldp	x0, x4, [x29,#184]
/home/lagadanu/Desktop/qemu/optee_os/lib/libmpa/mpa_primetest.c:233
    1c6c:	52800019 	mov	w25, #0x0                   	// #0
/home/lagadanu/Desktop/qemu/optee_os/lib/libmpa/mpa_primetest.c:232
    1c70:	f94067a5 	ldr	x5, [x29,#200]
    1c74:	94000a31 	bl	4538 <mpa_exp_mod>
/home/lagadanu/Desktop/qemu/optee_os/lib/libmpa/mpa_primetest.c:236
    1c78:	f9405fa0 	ldr	x0, [x29,#184]
    1c7c:	52800021 	mov	w1, #0x1                   	// #1
    1c80:	94000a0d 	bl	44b4 <mpa_cmp_short>
/home/lagadanu/Desktop/qemu/optee_os/lib/libmpa/mpa_primetest.c:237
    1c84:	7100001f 	cmp	w0, #0x0
/home/lagadanu/Desktop/qemu/optee_os/lib/libmpa/mpa_primetest.c:236
    1c88:	2a0003e2 	mov	w2, w0
/home/lagadanu/Desktop/qemu/optee_os/lib/libmpa/mpa_primetest.c:237
    1c8c:	7a400b24 	ccmp	w25, #0x0, #0x4, eq
    1c90:	540002ed 	b.le	1cec <mpa_is_prob_prime+0x19c>
/home/lagadanu/Desktop/qemu/optee_os/lib/libmpa/mpa_primetest.c:238
    1c94:	52800019 	mov	w25, #0x0                   	// #0
    1c98:	910006d6 	add	x22, x22, #0x1
    1c9c:	1400007b 	b	1e88 <mpa_is_prob_prime+0x338>
/home/lagadanu/Desktop/qemu/optee_os/lib/libmpa/mpa_primetest.c:224
    1ca0:	f9405ba1 	ldr	x1, [x29,#176]
    1ca4:	aa1303e3 	mov	x3, x19
    1ca8:	52800022 	mov	w2, #0x1                   	// #1
    1cac:	aa0103e0 	mov	x0, x1
    1cb0:	94000960 	bl	4230 <mpa_sub_word>
/home/lagadanu/Desktop/qemu/optee_os/lib/libmpa/mpa_primetest.c:226
    1cb4:	f94053a0 	ldr	x0, [x29,#160]
    1cb8:	f9405ba1 	ldr	x1, [x29,#176]
    1cbc:	9400061e 	bl	3534 <mpa_get_random>
/home/lagadanu/Desktop/qemu/optee_os/lib/libmpa/mpa_primetest.c:227
    1cc0:	f9405ba1 	ldr	x1, [x29,#176]
    1cc4:	aa1303e3 	mov	x3, x19
    1cc8:	52800022 	mov	w2, #0x1                   	// #1
    1ccc:	aa0103e0 	mov	x0, x1
    1cd0:	94000909 	bl	40f4 <mpa_add_word>
/home/lagadanu/Desktop/qemu/optee_os/lib/libmpa/mpa_primetest.c:229
    1cd4:	f94053a1 	ldr	x1, [x29,#160]
    1cd8:	aa1303e3 	mov	x3, x19
    1cdc:	52800042 	mov	w2, #0x2                   	// #2
    1ce0:	aa0103e0 	mov	x0, x1
    1ce4:	94000904 	bl	40f4 <mpa_add_word>
    1ce8:	17ffffdc 	b	1c58 <mpa_is_prob_prime+0x108>
/home/lagadanu/Desktop/qemu/optee_os/lib/libmpa/mpa_primetest.c:242
    1cec:	a94b03a1 	ldp	x1, x0, [x29,#176]
    1cf0:	b90067a2 	str	w2, [x29,#100]
    1cf4:	940009d6 	bl	444c <mpa_cmp>
    1cf8:	34000200 	cbz	w0, 1d38 <mpa_is_prob_prime+0x1e8>
/home/lagadanu/Desktop/qemu/optee_os/lib/libmpa/mpa_primetest.c:243
    1cfc:	b94067a2 	ldr	w2, [x29,#100]
    1d00:	2a190042 	orr	w2, w2, w25
/home/lagadanu/Desktop/qemu/optee_os/lib/libmpa/mpa_primetest.c:242
    1d04:	340001a2 	cbz	w2, 1d38 <mpa_is_prob_prime+0x1e8>
/home/lagadanu/Desktop/qemu/optee_os/lib/libmpa/mpa_primetest.c:248
    1d08:	11000739 	add	w25, w25, #0x1
/home/lagadanu/Desktop/qemu/optee_os/lib/libmpa/mpa_primetest.c:249
    1d0c:	6b19031f 	cmp	w24, w25
    1d10:	54fffc2d 	b.le	1c94 <mpa_is_prob_prime+0x144>
/home/lagadanu/Desktop/qemu/optee_os/lib/libmpa/mpa_primetest.c:250
    1d14:	a94b93a1 	ldp	x1, x4, [x29,#184]
    1d18:	aa1303e7 	mov	x7, x19
    1d1c:	b9409fa6 	ldr	w6, [x29,#156]
    1d20:	aa1403e3 	mov	x3, x20
    1d24:	f94037a2 	ldr	x2, [x29,#104]
    1d28:	aa0103e0 	mov	x0, x1
    1d2c:	f94067a5 	ldr	x5, [x29,#200]
    1d30:	94000a02 	bl	4538 <mpa_exp_mod>
    1d34:	17ffffd1 	b	1c78 <mpa_is_prob_prime+0x128>
/home/lagadanu/Desktop/qemu/optee_os/lib/libmpa/mpa_primetest.c:242
    1d38:	12800019 	mov	w25, #0xffffffff            	// #-1
    1d3c:	17ffffd7 	b	1c98 <mpa_is_prob_prime+0x148>
has_small_factors():
/home/lagadanu/Desktop/qemu/optee_os/lib/libmpa/mpa_primetest.c:148
    1d40:	910323b5 	add	x21, x29, #0xc8
    1d44:	aa1303e1 	mov	x1, x19
    1d48:	aa1503e0 	mov	x0, x21
    1d4c:	94000514 	bl	319c <mpa_alloc_static_temp_var>
/home/lagadanu/Desktop/qemu/optee_os/lib/libmpa/mpa_primetest.c:149
    1d50:	f94067a0 	ldr	x0, [x29,#200]
    1d54:	d0000038 	adrp	x24, 7000 <snprintk+0x40>
    1d58:	91134317 	add	x23, x24, #0x4d0
    1d5c:	aa1303e3 	mov	x3, x19
    1d60:	9131e2e2 	add	x2, x23, #0xc78
    1d64:	aa1403e1 	mov	x1, x20
    1d68:	94000437 	bl	2e44 <mpa_gcd>
/home/lagadanu/Desktop/qemu/optee_os/lib/libmpa/mpa_primetest.c:150
    1d6c:	f94067a0 	ldr	x0, [x29,#200]
    1d70:	52800021 	mov	w1, #0x1                   	// #1
    1d74:	940009d0 	bl	44b4 <mpa_cmp_short>
    1d78:	2a0003f9 	mov	w25, w0
/home/lagadanu/Desktop/qemu/optee_os/lib/libmpa/mpa_primetest.c:151
    1d7c:	aa1303e1 	mov	x1, x19
    1d80:	aa1503e0 	mov	x0, x21
    1d84:	9400050a 	bl	31ac <mpa_free_static_temp_var>
    1d88:	f9003bb8 	str	x24, [x29,#112]
mpa_is_prob_prime():
/home/lagadanu/Desktop/qemu/optee_os/lib/libmpa/mpa_primetest.c:76
    1d8c:	35fff059 	cbnz	w25, 1b94 <mpa_is_prob_prime+0x44>
primality_test_miller_rabin():
/home/lagadanu/Desktop/qemu/optee_os/lib/libmpa/mpa_primetest.c:180
    1d90:	910303a0 	add	x0, x29, #0xc0
    1d94:	aa1303e1 	mov	x1, x19
    1d98:	f90043a0 	str	x0, [x29,#128]
    1d9c:	94000500 	bl	319c <mpa_alloc_static_temp_var>
/home/lagadanu/Desktop/qemu/optee_os/lib/libmpa/mpa_primetest.c:181
    1da0:	aa1303e1 	mov	x1, x19
    1da4:	aa1503e0 	mov	x0, x21
    1da8:	940004fd 	bl	319c <mpa_alloc_static_temp_var>
/home/lagadanu/Desktop/qemu/optee_os/lib/libmpa/mpa_primetest.c:184
    1dac:	52800019 	mov	w25, #0x0                   	// #0
/home/lagadanu/Desktop/qemu/optee_os/lib/libmpa/mpa_primetest.c:183
    1db0:	a94c0ba1 	ldp	x1, x2, [x29,#192]
    1db4:	aa1303e4 	mov	x4, x19
    1db8:	910273a3 	add	x3, x29, #0x9c
    1dbc:	aa1403e0 	mov	x0, x20
    1dc0:	97fffef3 	bl	198c <mpa_compute_fmm_context>
    1dc4:	3100041f 	cmn	w0, #0x1
    1dc8:	540008c0 	b.eq	1ee0 <mpa_is_prob_prime+0x390>
/home/lagadanu/Desktop/qemu/optee_os/lib/libmpa/mpa_primetest.c:188
    1dcc:	910283bc 	add	x28, x29, #0xa0
    1dd0:	aa1303e1 	mov	x1, x19
    1dd4:	aa1c03e0 	mov	x0, x28
/home/lagadanu/Desktop/qemu/optee_os/lib/libmpa/mpa_primetest.c:189
    1dd8:	9102a3bb 	add	x27, x29, #0xa8
/home/lagadanu/Desktop/qemu/optee_os/lib/libmpa/mpa_primetest.c:188
    1ddc:	940004f0 	bl	319c <mpa_alloc_static_temp_var>
/home/lagadanu/Desktop/qemu/optee_os/lib/libmpa/mpa_primetest.c:190
    1de0:	9102c3ba 	add	x26, x29, #0xb0
/home/lagadanu/Desktop/qemu/optee_os/lib/libmpa/mpa_primetest.c:189
    1de4:	aa1303e1 	mov	x1, x19
    1de8:	aa1b03e0 	mov	x0, x27
    1dec:	940004ec 	bl	319c <mpa_alloc_static_temp_var>
/home/lagadanu/Desktop/qemu/optee_os/lib/libmpa/mpa_primetest.c:190
    1df0:	aa1303e1 	mov	x1, x19
    1df4:	aa1a03e0 	mov	x0, x26
    1df8:	940004e9 	bl	319c <mpa_alloc_static_temp_var>
/home/lagadanu/Desktop/qemu/optee_os/lib/libmpa/mpa_primetest.c:191
    1dfc:	9102e3a0 	add	x0, x29, #0xb8
    1e00:	aa1303e1 	mov	x1, x19
    1e04:	f9003fa0 	str	x0, [x29,#120]
    1e08:	940004e5 	bl	319c <mpa_alloc_static_temp_var>
/home/lagadanu/Desktop/qemu/optee_os/lib/libmpa/mpa_primetest.c:194
    1e0c:	9130e2e1 	add	x1, x23, #0xc38
    1e10:	aa1403e0 	mov	x0, x20
    1e14:	9400098e 	bl	444c <mpa_cmp>
    1e18:	2a0003f7 	mov	w23, w0
/home/lagadanu/Desktop/qemu/optee_os/lib/libmpa/mpa_primetest.c:193
    1e1c:	531f7c00 	lsr	w0, w0, #31
    1e20:	b9008ba0 	str	w0, [x29,#136]
/home/lagadanu/Desktop/qemu/optee_os/lib/libmpa/mpa_primetest.c:197
    1e24:	528000e0 	mov	w0, #0x7                   	// #7
    1e28:	b9008fa0 	str	w0, [x29,#140]
/home/lagadanu/Desktop/qemu/optee_os/lib/libmpa/mpa_primetest.c:196
    1e2c:	37f800b7 	tbnz	w23, #31, 1e40 <mpa_is_prob_prime+0x2f0>
/home/lagadanu/Desktop/qemu/optee_os/lib/libmpa/mpa_primetest.c:199
    1e30:	110006d6 	add	w22, w22, #0x1
    1e34:	52800040 	mov	w0, #0x2                   	// #2
    1e38:	1ac00ec0 	sdiv	w0, w22, w0
    1e3c:	b9008fa0 	str	w0, [x29,#140]
/home/lagadanu/Desktop/qemu/optee_os/lib/libmpa/mpa_primetest.c:201
    1e40:	f9405ba0 	ldr	x0, [x29,#176]
    1e44:	aa1403e1 	mov	x1, x20
    1e48:	aa1303e3 	mov	x3, x19
    1e4c:	52800022 	mov	w2, #0x1                   	// #1
/home/lagadanu/Desktop/qemu/optee_os/lib/libmpa/mpa_primetest.c:203
    1e50:	52800018 	mov	w24, #0x0                   	// #0
/home/lagadanu/Desktop/qemu/optee_os/lib/libmpa/mpa_primetest.c:201
    1e54:	940008f7 	bl	4230 <mpa_sub_word>
/home/lagadanu/Desktop/qemu/optee_os/lib/libmpa/mpa_primetest.c:202
    1e58:	a94a87a0 	ldp	x0, x1, [x29,#168]
    1e5c:	97fffdf1 	bl	1620 <mpa_copy>
/home/lagadanu/Desktop/qemu/optee_os/lib/libmpa/mpa_primetest.c:205
    1e60:	f94057a0 	ldr	x0, [x29,#168]
    1e64:	97fffe39 	bl	1748 <mpa_parity>
    1e68:	34ffed60 	cbz	w0, 1c14 <mpa_is_prob_prime+0xc4>
/home/lagadanu/Desktop/qemu/optee_os/lib/libmpa/mpa_primetest.c:250
    1e6c:	f9403ba0 	ldr	x0, [x29,#112]
/home/lagadanu/Desktop/qemu/optee_os/lib/libmpa/mpa_primetest.c:205
    1e70:	d2800016 	mov	x22, #0x0                   	// #0
    1e74:	12800019 	mov	w25, #0xffffffff            	// #-1
/home/lagadanu/Desktop/qemu/optee_os/lib/libmpa/mpa_primetest.c:250
    1e78:	91134000 	add	x0, x0, #0x4d0
    1e7c:	f9003ba0 	str	x0, [x29,#112]
    1e80:	9131a000 	add	x0, x0, #0xc68
    1e84:	f90037a0 	str	x0, [x29,#104]
/home/lagadanu/Desktop/qemu/optee_os/lib/libmpa/mpa_primetest.c:211
    1e88:	b9408fa1 	ldr	w1, [x29,#140]
    1e8c:	3100073f 	cmn	w25, #0x1
    1e90:	1a9f17e0 	cset	w0, eq
    1e94:	6b16003f 	cmp	w1, w22
    1e98:	1a9fd7e1 	cset	w1, gt
    1e9c:	6a01001f 	tst	w0, w1
    1ea0:	54ffec61 	b.ne	1c2c <mpa_is_prob_prime+0xdc>
/home/lagadanu/Desktop/qemu/optee_os/lib/libmpa/mpa_primetest.c:258
    1ea4:	b9408ba1 	ldr	w1, [x29,#136]
    1ea8:	6a00003f 	tst	w1, w0
/home/lagadanu/Desktop/qemu/optee_os/lib/libmpa/mpa_primetest.c:260
    1eac:	aa1303e1 	mov	x1, x19
/home/lagadanu/Desktop/qemu/optee_os/lib/libmpa/mpa_primetest.c:258
    1eb0:	1a9f0739 	csinc	w25, w25, wzr, eq
/home/lagadanu/Desktop/qemu/optee_os/lib/libmpa/mpa_primetest.c:260
    1eb4:	aa1c03e0 	mov	x0, x28
    1eb8:	940004bd 	bl	31ac <mpa_free_static_temp_var>
/home/lagadanu/Desktop/qemu/optee_os/lib/libmpa/mpa_primetest.c:261
    1ebc:	aa1303e1 	mov	x1, x19
    1ec0:	aa1b03e0 	mov	x0, x27
    1ec4:	940004ba 	bl	31ac <mpa_free_static_temp_var>
/home/lagadanu/Desktop/qemu/optee_os/lib/libmpa/mpa_primetest.c:262
    1ec8:	aa1303e1 	mov	x1, x19
    1ecc:	aa1a03e0 	mov	x0, x26
    1ed0:	940004b7 	bl	31ac <mpa_free_static_temp_var>
/home/lagadanu/Desktop/qemu/optee_os/lib/libmpa/mpa_primetest.c:263
    1ed4:	f9403fa0 	ldr	x0, [x29,#120]
    1ed8:	aa1303e1 	mov	x1, x19
    1edc:	940004b4 	bl	31ac <mpa_free_static_temp_var>
/home/lagadanu/Desktop/qemu/optee_os/lib/libmpa/mpa_primetest.c:265
    1ee0:	f94043a0 	ldr	x0, [x29,#128]
    1ee4:	aa1303e1 	mov	x1, x19
    1ee8:	940004b1 	bl	31ac <mpa_free_static_temp_var>
/home/lagadanu/Desktop/qemu/optee_os/lib/libmpa/mpa_primetest.c:266
    1eec:	aa1303e1 	mov	x1, x19
    1ef0:	aa1503e0 	mov	x0, x21
    1ef4:	940004ae 	bl	31ac <mpa_free_static_temp_var>
    1ef8:	17ffff28 	b	1b98 <mpa_is_prob_prime+0x48>

0000000000001efc <mpa_set_S32>:
mpa_set_S32():
/home/lagadanu/Desktop/qemu/optee_os/lib/libmpa/mpa_conv.c:15
    1efc:	7100003f 	cmp	w1, #0x0
    1f00:	54000100 	b.eq	1f20 <mpa_set_S32+0x24>
/home/lagadanu/Desktop/qemu/optee_os/lib/libmpa/mpa_conv.c:16
    1f04:	52800022 	mov	w2, #0x1                   	// #1
    1f08:	5a82a442 	cneg	w2, w2, lt
    1f0c:	b9000402 	str	w2, [x0,#4]
/home/lagadanu/Desktop/qemu/optee_os/lib/libmpa/mpa_conv.c:19
    1f10:	7100003f 	cmp	w1, #0x0
    1f14:	5a81a421 	cneg	w1, w1, lt
    1f18:	b9000801 	str	w1, [x0,#8]
    1f1c:	d65f03c0 	ret
/home/lagadanu/Desktop/qemu/optee_os/lib/libmpa/mpa_conv.c:18
    1f20:	b900041f 	str	wzr, [x0,#4]
    1f24:	17fffffb 	b	1f10 <mpa_set_S32+0x14>

0000000000001f28 <mpa_get_S32>:
mpa_get_S32():
/home/lagadanu/Desktop/qemu/optee_os/lib/libmpa/mpa_conv.c:35
    1f28:	b9400422 	ldr	w2, [x1,#4]
/home/lagadanu/Desktop/qemu/optee_os/lib/libmpa/mpa_conv.c:33
    1f2c:	aa0003e4 	mov	x4, x0
/home/lagadanu/Desktop/qemu/optee_os/lib/libmpa/mpa_conv.c:35
    1f30:	7100005f 	cmp	w2, #0x0
    1f34:	5a82a440 	cneg	w0, w2, lt
    1f38:	7100041f 	cmp	w0, #0x1
    1f3c:	540002cc 	b.gt	1f94 <mpa_get_S32+0x6c>
/home/lagadanu/Desktop/qemu/optee_os/lib/libmpa/mpa_conv.c:37
    1f40:	b9400823 	ldr	w3, [x1,#8]
    1f44:	52b00000 	mov	w0, #0x80000000            	// #-2147483648
    1f48:	7100005f 	cmp	w2, #0x0
    1f4c:	7a40b060 	ccmp	w3, w0, #0x0, lt
/home/lagadanu/Desktop/qemu/optee_os/lib/libmpa/mpa_conv.c:36
    1f50:	12800000 	mov	w0, #0xffffffff            	// #-1
/home/lagadanu/Desktop/qemu/optee_os/lib/libmpa/mpa_conv.c:37
    1f54:	54000088 	b.hi	1f64 <mpa_get_S32+0x3c>
/home/lagadanu/Desktop/qemu/optee_os/lib/libmpa/mpa_conv.c:39
    1f58:	36f80083 	tbz	w3, #31, 1f68 <mpa_get_S32+0x40>
/home/lagadanu/Desktop/qemu/optee_os/lib/libmpa/mpa_conv.c:42 (discriminator 1)
    1f5c:	2a0003e1 	mov	w1, w0
/home/lagadanu/Desktop/qemu/optee_os/lib/libmpa/mpa_conv.c:39 (discriminator 1)
    1f60:	37f800c2 	tbnz	w2, #31, 1f78 <mpa_get_S32+0x50>
/home/lagadanu/Desktop/qemu/optee_os/lib/libmpa/mpa_conv.c:48
    1f64:	d65f03c0 	ret
/home/lagadanu/Desktop/qemu/optee_os/lib/libmpa/mpa_conv.c:42
    1f68:	34000102 	cbz	w2, 1f88 <mpa_get_S32+0x60>
/home/lagadanu/Desktop/qemu/optee_os/lib/libmpa/mpa_conv.c:42 (discriminator 4)
    1f6c:	12800001 	mov	w1, #0xffffffff            	// #-1
    1f70:	6b01005f 	cmp	w2, w1
    1f74:	5a81d421 	cneg	w1, w1, gt
/home/lagadanu/Desktop/qemu/optee_os/lib/libmpa/mpa_conv.c:42 (discriminator 8)
    1f78:	1b037c21 	mul	w1, w1, w3
/home/lagadanu/Desktop/qemu/optee_os/lib/libmpa/mpa_conv.c:43 (discriminator 8)
    1f7c:	52800000 	mov	w0, #0x0                   	// #0
/home/lagadanu/Desktop/qemu/optee_os/lib/libmpa/mpa_conv.c:42 (discriminator 8)
    1f80:	b9000081 	str	w1, [x4]
/home/lagadanu/Desktop/qemu/optee_os/lib/libmpa/mpa_conv.c:43 (discriminator 8)
    1f84:	d65f03c0 	ret
/home/lagadanu/Desktop/qemu/optee_os/lib/libmpa/mpa_conv.c:42
    1f88:	52800003 	mov	w3, #0x0                   	// #0
    1f8c:	52800021 	mov	w1, #0x1                   	// #1
    1f90:	17fffffa 	b	1f78 <mpa_get_S32+0x50>
/home/lagadanu/Desktop/qemu/optee_os/lib/libmpa/mpa_conv.c:36
    1f94:	12800000 	mov	w0, #0xffffffff            	// #-1
    1f98:	17fffff3 	b	1f64 <mpa_get_S32+0x3c>

0000000000001f9c <mpa_set_word>:
mpa_set_word():
/home/lagadanu/Desktop/qemu/optee_os/lib/libmpa/mpa_conv.c:58
    1f9c:	7100003f 	cmp	w1, #0x0
/home/lagadanu/Desktop/qemu/optee_os/lib/libmpa/mpa_conv.c:57
    1fa0:	b9000801 	str	w1, [x0,#8]
/home/lagadanu/Desktop/qemu/optee_os/lib/libmpa/mpa_conv.c:58
    1fa4:	1a9f07e1 	cset	w1, ne
    1fa8:	b9000401 	str	w1, [x0,#4]
    1fac:	d65f03c0 	ret

0000000000001fb0 <mpa_get_word>:
mpa_get_word():
/home/lagadanu/Desktop/qemu/optee_os/lib/libmpa/mpa_conv.c:69
    1fb0:	b9400401 	ldr	w1, [x0,#4]
    1fb4:	34000061 	cbz	w1, 1fc0 <mpa_get_word+0x10>
/home/lagadanu/Desktop/qemu/optee_os/lib/libmpa/mpa_conv.c:69 (discriminator 1)
    1fb8:	b9400800 	ldr	w0, [x0,#8]
    1fbc:	d65f03c0 	ret
/home/lagadanu/Desktop/qemu/optee_os/lib/libmpa/mpa_conv.c:69
    1fc0:	52800000 	mov	w0, #0x0                   	// #0
/home/lagadanu/Desktop/qemu/optee_os/lib/libmpa/mpa_conv.c:70
    1fc4:	d65f03c0 	ret

0000000000001fc8 <__mpa_div_dword>:
__mpa_div_dword():
/home/lagadanu/Desktop/qemu/optee_os/lib/libmpa/mpa_div.c:59
    1fc8:	2a0003e0 	mov	w0, w0
__mpa_soft_div():
/home/lagadanu/Desktop/qemu/optee_os/lib/libmpa/mpa_div.c:24
    1fcc:	2a0203e2 	mov	w2, w2
__mpa_div_dword():
/home/lagadanu/Desktop/qemu/optee_os/lib/libmpa/mpa_div.c:59
    1fd0:	8b018001 	add	x1, x0, x1, lsl #32
__mpa_soft_div():
/home/lagadanu/Desktop/qemu/optee_os/lib/libmpa/mpa_div.c:23
    1fd4:	d2800024 	mov	x4, #0x1                   	// #1
/home/lagadanu/Desktop/qemu/optee_os/lib/libmpa/mpa_div.c:26
    1fd8:	b6f800c2 	tbz	x2, #63, 1ff0 <__mpa_div_dword+0x28>
    1fdc:	d2800000 	mov	x0, #0x0                   	// #0
/home/lagadanu/Desktop/qemu/optee_os/lib/libmpa/mpa_div.c:31
    1fe0:	b50000e4 	cbnz	x4, 1ffc <__mpa_div_dword+0x34>
/home/lagadanu/Desktop/qemu/optee_os/lib/libmpa/mpa_div.c:40
    1fe4:	b4000043 	cbz	x3, 1fec <__mpa_div_dword+0x24>
/home/lagadanu/Desktop/qemu/optee_os/lib/libmpa/mpa_div.c:41
    1fe8:	b9000061 	str	w1, [x3]
__mpa_div_dword():
/home/lagadanu/Desktop/qemu/optee_os/lib/libmpa/mpa_div.c:67
    1fec:	d65f03c0 	ret
__mpa_soft_div():
/home/lagadanu/Desktop/qemu/optee_os/lib/libmpa/mpa_div.c:27
    1ff0:	d37ff842 	lsl	x2, x2, #1
/home/lagadanu/Desktop/qemu/optee_os/lib/libmpa/mpa_div.c:28
    1ff4:	d37ff884 	lsl	x4, x4, #1
    1ff8:	17fffff8 	b	1fd8 <__mpa_div_dword+0x10>
/home/lagadanu/Desktop/qemu/optee_os/lib/libmpa/mpa_div.c:32
    1ffc:	eb02003f 	cmp	x1, x2
    2000:	54000063 	b.cc	200c <__mpa_div_dword+0x44>
/home/lagadanu/Desktop/qemu/optee_os/lib/libmpa/mpa_div.c:33
    2004:	cb020021 	sub	x1, x1, x2
/home/lagadanu/Desktop/qemu/optee_os/lib/libmpa/mpa_div.c:34
    2008:	8b040000 	add	x0, x0, x4
/home/lagadanu/Desktop/qemu/optee_os/lib/libmpa/mpa_div.c:36
    200c:	d341fc42 	lsr	x2, x2, #1
/home/lagadanu/Desktop/qemu/optee_os/lib/libmpa/mpa_div.c:37
    2010:	d341fc84 	lsr	x4, x4, #1
    2014:	17fffff3 	b	1fe0 <__mpa_div_dword+0x18>

0000000000002018 <__mpa_div_q_r_internal_word>:
__mpa_div_q_r_internal_word():
/home/lagadanu/Desktop/qemu/optee_os/lib/libmpa/mpa_div.c:247
    2018:	a9ba7bfd 	stp	x29, x30, [sp,#-96]!
    201c:	910003fd 	mov	x29, sp
    2020:	a9025bf5 	stp	x21, x22, [sp,#32]
    2024:	aa0103f5 	mov	x21, x1
/home/lagadanu/Desktop/qemu/optee_os/lib/libmpa/mpa_div.c:255
    2028:	b9400441 	ldr	w1, [x2,#4]
/home/lagadanu/Desktop/qemu/optee_os/lib/libmpa/mpa_div.c:247
    202c:	aa0203f6 	mov	x22, x2
    2030:	a90153f3 	stp	x19, x20, [sp,#16]
    2034:	2a0303f4 	mov	w20, w3
/home/lagadanu/Desktop/qemu/optee_os/lib/libmpa/mpa_div.c:255
    2038:	7100003f 	cmp	w1, #0x0
/home/lagadanu/Desktop/qemu/optee_os/lib/libmpa/mpa_div.c:247
    203c:	a90363f7 	stp	x23, x24, [sp,#48]
    2040:	a9046bf9 	stp	x25, x26, [sp,#64]
/home/lagadanu/Desktop/qemu/optee_os/lib/libmpa/mpa_div.c:255
    2044:	5a81a421 	cneg	w1, w1, lt
    2048:	7100043f 	cmp	w1, #0x1
    204c:	540001e1 	b.ne	2088 <__mpa_div_q_r_internal_word+0x70>
/home/lagadanu/Desktop/qemu/optee_os/lib/libmpa/mpa_div.c:256
    2050:	b9400841 	ldr	w1, [x2,#8]
    2054:	1ac30821 	udiv	w1, w1, w3
    2058:	97ffffd1 	bl	1f9c <mpa_set_word>
/home/lagadanu/Desktop/qemu/optee_os/lib/libmpa/mpa_div.c:257
    205c:	b9400ac0 	ldr	w0, [x22,#8]
    2060:	1ad40801 	udiv	w1, w0, w20
    2064:	1b148021 	msub	w1, w1, w20, w0
    2068:	aa1503e0 	mov	x0, x21
    206c:	97ffffcc 	bl	1f9c <mpa_set_word>
/home/lagadanu/Desktop/qemu/optee_os/lib/libmpa/mpa_div.c:279
    2070:	a94153f3 	ldp	x19, x20, [sp,#16]
    2074:	a9425bf5 	ldp	x21, x22, [sp,#32]
    2078:	a94363f7 	ldp	x23, x24, [sp,#48]
    207c:	a9446bf9 	ldp	x25, x26, [sp,#64]
    2080:	a8c67bfd 	ldp	x29, x30, [sp],#96
    2084:	d65f03c0 	ret
/home/lagadanu/Desktop/qemu/optee_os/lib/libmpa/mpa_div.c:260
    2088:	aa0203e1 	mov	x1, x2
    208c:	aa0003f3 	mov	x19, x0
    2090:	aa1503e0 	mov	x0, x21
    2094:	97fffd63 	bl	1620 <mpa_copy>
/home/lagadanu/Desktop/qemu/optee_os/lib/libmpa/mpa_div.c:261
    2098:	52800001 	mov	w1, #0x0                   	// #0
    209c:	aa1303e0 	mov	x0, x19
    20a0:	97ffffbf 	bl	1f9c <mpa_set_word>
/home/lagadanu/Desktop/qemu/optee_os/lib/libmpa/mpa_div.c:267
    20a4:	910173ba 	add	x26, x29, #0x5c
/home/lagadanu/Desktop/qemu/optee_os/lib/libmpa/mpa_div.c:263
    20a8:	b94006a1 	ldr	w1, [x21,#4]
    20ac:	7100003f 	cmp	w1, #0x0
    20b0:	5a81a421 	cneg	w1, w1, lt
    20b4:	51000422 	sub	w2, w1, #0x1
/home/lagadanu/Desktop/qemu/optee_os/lib/libmpa/mpa_div.c:265
    20b8:	93407c42 	sxtw	x2, w2
    20bc:	8b020aa0 	add	x0, x21, x2, lsl #2
    20c0:	91000843 	add	x3, x2, #0x2
    20c4:	d37ef477 	lsl	x23, x3, #2
    20c8:	cb21c063 	sub	x3, x3, w1, sxtw
    20cc:	51000821 	sub	w1, w1, #0x2
    20d0:	d37ef478 	lsl	x24, x3, #2
    20d4:	937e7c21 	sbfiz	x1, x1, #2, #32
    20d8:	b9400800 	ldr	w0, [x0,#8]
    20dc:	cb020821 	sub	x1, x1, x2, lsl #2
    20e0:	8b0102b9 	add	x25, x21, x1
/home/lagadanu/Desktop/qemu/optee_os/lib/libmpa/mpa_div.c:264
    20e4:	52800001 	mov	w1, #0x0                   	// #0
/home/lagadanu/Desktop/qemu/optee_os/lib/libmpa/mpa_div.c:266
    20e8:	eb1802ff 	cmp	x23, x24
    20ec:	54000281 	b.ne	213c <__mpa_div_q_r_internal_word+0x124>
/home/lagadanu/Desktop/qemu/optee_os/lib/libmpa/mpa_div.c:274
    20f0:	b9400aa0 	ldr	w0, [x21,#8]
    20f4:	7100001f 	cmp	w0, #0x0
    20f8:	1a9f07e0 	cset	w0, ne
    20fc:	b90006a0 	str	w0, [x21,#4]
/home/lagadanu/Desktop/qemu/optee_os/lib/libmpa/mpa_div.c:275
    2100:	b94006c0 	ldr	w0, [x22,#4]
    2104:	7100001f 	cmp	w0, #0x0
    2108:	5a80a400 	cneg	w0, w0, lt
    210c:	51000400 	sub	w0, w0, #0x1
    2110:	93407c00 	sxtw	x0, w0
    2114:	2a0003e1 	mov	w1, w0
/home/lagadanu/Desktop/qemu/optee_os/lib/libmpa/mpa_div.c:276
    2118:	3100041f 	cmn	w0, #0x1
    211c:	540000a0 	b.eq	2130 <__mpa_div_q_r_internal_word+0x118>
    2120:	d1000400 	sub	x0, x0, #0x1
/home/lagadanu/Desktop/qemu/optee_os/lib/libmpa/mpa_div.c:276 (discriminator 1)
    2124:	8b000a62 	add	x2, x19, x0, lsl #2
    2128:	b9400c42 	ldr	w2, [x2,#12]
    212c:	34ffff42 	cbz	w2, 2114 <__mpa_div_q_r_internal_word+0xfc>
/home/lagadanu/Desktop/qemu/optee_os/lib/libmpa/mpa_div.c:278
    2130:	11000420 	add	w0, w1, #0x1
    2134:	b9000660 	str	w0, [x19,#4]
    2138:	17ffffce 	b	2070 <__mpa_div_q_r_internal_word+0x58>
/home/lagadanu/Desktop/qemu/optee_os/lib/libmpa/mpa_div.c:267
    213c:	aa1a03e3 	mov	x3, x26
    2140:	2a1403e2 	mov	w2, w20
    2144:	97ffffa1 	bl	1fc8 <__mpa_div_dword>
/home/lagadanu/Desktop/qemu/optee_os/lib/libmpa/mpa_div.c:268
    2148:	b8376a60 	str	w0, [x19,x23]
/home/lagadanu/Desktop/qemu/optee_os/lib/libmpa/mpa_div.c:269
    214c:	b9405fa1 	ldr	w1, [x29,#92]
    2150:	b8376aa1 	str	w1, [x21,x23]
/home/lagadanu/Desktop/qemu/optee_os/lib/libmpa/mpa_div.c:271
    2154:	b8776b20 	ldr	w0, [x25,x23]
    2158:	d10012f7 	sub	x23, x23, #0x4
    215c:	17ffffe3 	b	20e8 <__mpa_div_q_r_internal_word+0xd0>

0000000000002160 <__mpa_div_q_r>:
__mpa_div_q_r():
/home/lagadanu/Desktop/qemu/optee_os/lib/libmpa/mpa_div.c:302
    2160:	a9b07bfd 	stp	x29, x30, [sp,#-256]!
    2164:	910003fd 	mov	x29, sp
    2168:	a90363f7 	stp	x23, x24, [sp,#48]
    216c:	aa0103f8 	mov	x24, x1
/home/lagadanu/Desktop/qemu/optee_os/lib/libmpa/mpa_div.c:306
    2170:	b9400441 	ldr	w1, [x2,#4]
/home/lagadanu/Desktop/qemu/optee_os/lib/libmpa/mpa_div.c:302
    2174:	a90153f3 	stp	x19, x20, [sp,#16]
    2178:	a9025bf5 	stp	x21, x22, [sp,#32]
    217c:	a9046bf9 	stp	x25, x26, [sp,#64]
    2180:	a90573fb 	stp	x27, x28, [sp,#80]
/home/lagadanu/Desktop/qemu/optee_os/lib/libmpa/mpa_div.c:306
    2184:	35000181 	cbnz	w1, 21b4 <__mpa_div_q_r+0x54>
/home/lagadanu/Desktop/qemu/optee_os/lib/libmpa/mpa_div.c:322
    2188:	97ffff85 	bl	1f9c <mpa_set_word>
/home/lagadanu/Desktop/qemu/optee_os/lib/libmpa/mpa_div.c:323
    218c:	52800001 	mov	w1, #0x0                   	// #0
    2190:	aa1803e0 	mov	x0, x24
    2194:	97ffff82 	bl	1f9c <mpa_set_word>
/home/lagadanu/Desktop/qemu/optee_os/lib/libmpa/mpa_div.c:338
    2198:	a94153f3 	ldp	x19, x20, [sp,#16]
    219c:	a9425bf5 	ldp	x21, x22, [sp,#32]
    21a0:	a94363f7 	ldp	x23, x24, [sp,#48]
    21a4:	a9446bf9 	ldp	x25, x26, [sp,#64]
    21a8:	a94573fb 	ldp	x27, x28, [sp,#80]
    21ac:	a8d07bfd 	ldp	x29, x30, [sp],#256
    21b0:	d65f03c0 	ret
    21b4:	aa0003f3 	mov	x19, x0
/home/lagadanu/Desktop/qemu/optee_os/lib/libmpa/mpa_div.c:311
    21b8:	b9400460 	ldr	w0, [x3,#4]
    21bc:	aa0303f4 	mov	x20, x3
    21c0:	34fffec0 	cbz	w0, 2198 <__mpa_div_q_r+0x38>
    21c4:	aa0203fa 	mov	x26, x2
    21c8:	aa0403f7 	mov	x23, x4
/home/lagadanu/Desktop/qemu/optee_os/lib/libmpa/mpa_div.c:318
    21cc:	36f82ee1 	tbz	w1, #31, 27a8 <__mpa_div_q_r+0x648>
/home/lagadanu/Desktop/qemu/optee_os/lib/libmpa/mpa_div.c:319
    21d0:	7100001f 	cmp	w0, #0x0
    21d4:	12800001 	mov	w1, #0xffffffff            	// #-1
    21d8:	5a81a420 	cneg	w0, w1, lt
    21dc:	14000176 	b	27b4 <__mpa_div_q_r+0x654>
/home/lagadanu/Desktop/qemu/optee_os/lib/libmpa/mpa_div.c:326
    21e0:	54002d6d 	b.le	278c <__mpa_div_q_r+0x62c>
/home/lagadanu/Desktop/qemu/optee_os/lib/libmpa/mpa_div.c:327
    21e4:	b9400680 	ldr	w0, [x20,#4]
    21e8:	7100001f 	cmp	w0, #0x0
    21ec:	5a80a400 	cneg	w0, w0, lt
    21f0:	7100041f 	cmp	w0, #0x1
    21f4:	54002c0d 	b.le	2774 <__mpa_div_q_r+0x614>
__mpa_div_q_r_internal():
/home/lagadanu/Desktop/qemu/optee_os/lib/libmpa/mpa_div.c:103
    21f8:	9103a3a0 	add	x0, x29, #0xe8
    21fc:	aa1703e1 	mov	x1, x23
    2200:	f9005fa0 	str	x0, [x29,#184]
    2204:	940003e6 	bl	319c <mpa_alloc_static_temp_var>
/home/lagadanu/Desktop/qemu/optee_os/lib/libmpa/mpa_div.c:104
    2208:	9103c3a0 	add	x0, x29, #0xf0
    220c:	aa1703e1 	mov	x1, x23
    2210:	f9005ba0 	str	x0, [x29,#176]
    2214:	940003e2 	bl	319c <mpa_alloc_static_temp_var>
/home/lagadanu/Desktop/qemu/optee_os/lib/libmpa/mpa_div.c:105
    2218:	f9407ba0 	ldr	x0, [x29,#240]
    221c:	aa1403e1 	mov	x1, x20
    2220:	97fffd00 	bl	1620 <mpa_copy>
/home/lagadanu/Desktop/qemu/optee_os/lib/libmpa/mpa_div.c:112
    2224:	9103e3a0 	add	x0, x29, #0xf8
    2228:	aa1703e1 	mov	x1, x23
    222c:	f90057a0 	str	x0, [x29,#168]
    2230:	940003db 	bl	319c <mpa_alloc_static_temp_var>
/home/lagadanu/Desktop/qemu/optee_os/lib/libmpa/mpa_div.c:113
    2234:	f9407fa0 	ldr	x0, [x29,#248]
    2238:	aa1a03e1 	mov	x1, x26
    223c:	97fffcf9 	bl	1620 <mpa_copy>
/home/lagadanu/Desktop/qemu/optee_os/lib/libmpa/mpa_div.c:114
    2240:	f9407fa1 	ldr	x1, [x29,#248]
    2244:	b9400420 	ldr	w0, [x1,#4]
    2248:	36f80060 	tbz	w0, #31, 2254 <__mpa_div_q_r+0xf4>
    224c:	4b0003e0 	neg	w0, w0
    2250:	b9000420 	str	w0, [x1,#4]
/home/lagadanu/Desktop/qemu/optee_os/lib/libmpa/mpa_div.c:115
    2254:	f9407ba2 	ldr	x2, [x29,#240]
    2258:	b9400440 	ldr	w0, [x2,#4]
    225c:	36f80060 	tbz	w0, #31, 2268 <__mpa_div_q_r+0x108>
    2260:	4b0003e0 	neg	w0, w0
    2264:	b9000440 	str	w0, [x2,#4]
/home/lagadanu/Desktop/qemu/optee_os/lib/libmpa/mpa_div.c:121
    2268:	b9400440 	ldr	w0, [x2,#4]
/home/lagadanu/Desktop/qemu/optee_os/lib/libmpa/mpa_div.c:120
    226c:	52800019 	mov	w25, #0x0                   	// #0
/home/lagadanu/Desktop/qemu/optee_os/lib/libmpa/mpa_div.c:121
    2270:	7100001f 	cmp	w0, #0x0
    2274:	5a80a400 	cneg	w0, w0, lt
    2278:	51000400 	sub	w0, w0, #0x1
    227c:	8b20c840 	add	x0, x2, w0, sxtw #2
    2280:	52800002 	mov	w2, #0x0                   	// #0
    2284:	b9400800 	ldr	w0, [x0,#8]
    2288:	b900d7a0 	str	w0, [x29,#212]
/home/lagadanu/Desktop/qemu/optee_os/lib/libmpa/mpa_div.c:122
    228c:	36f80fc0 	tbz	w0, #31, 2484 <__mpa_div_q_r+0x324>
    2290:	34000042 	cbz	w2, 2298 <__mpa_div_q_r+0x138>
    2294:	b900d7a0 	str	w0, [x29,#212]
/home/lagadanu/Desktop/qemu/optee_os/lib/libmpa/mpa_div.c:126
    2298:	34000119 	cbz	w25, 22b8 <__mpa_div_q_r+0x158>
/home/lagadanu/Desktop/qemu/optee_os/lib/libmpa/mpa_div.c:127
    229c:	aa0103e0 	mov	x0, x1
    22a0:	2a1903e2 	mov	w2, w25
    22a4:	9400053f 	bl	37a0 <mpa_shift_left>
/home/lagadanu/Desktop/qemu/optee_os/lib/libmpa/mpa_div.c:128
    22a8:	f9407ba1 	ldr	x1, [x29,#240]
    22ac:	2a1903e2 	mov	w2, w25
    22b0:	aa0103e0 	mov	x0, x1
    22b4:	9400053b 	bl	37a0 <mpa_shift_left>
/home/lagadanu/Desktop/qemu/optee_os/lib/libmpa/mpa_div.c:131
    22b8:	f9407fa0 	ldr	x0, [x29,#248]
    22bc:	b9400416 	ldr	w22, [x0,#4]
/home/lagadanu/Desktop/qemu/optee_os/lib/libmpa/mpa_div.c:132
    22c0:	f9407ba0 	ldr	x0, [x29,#240]
    22c4:	b9400400 	ldr	w0, [x0,#4]
    22c8:	b900cfa0 	str	w0, [x29,#204]
/home/lagadanu/Desktop/qemu/optee_os/lib/libmpa/mpa_div.c:133
    22cc:	2a0003e0 	mov	w0, w0
    22d0:	4b0002c0 	sub	w0, w22, w0
    22d4:	b900cba0 	str	w0, [x29,#200]
/home/lagadanu/Desktop/qemu/optee_os/lib/libmpa/mpa_div.c:135
    22d8:	aa1303e0 	mov	x0, x19
    22dc:	97fffcc5 	bl	15f0 <mpa_wipe>
/home/lagadanu/Desktop/qemu/optee_os/lib/libmpa/mpa_div.c:141
    22e0:	b940cba1 	ldr	w1, [x29,#200]
    22e4:	f9407ba0 	ldr	x0, [x29,#240]
    22e8:	940004ef 	bl	36a4 <__mpa_shift_words_left>
/home/lagadanu/Desktop/qemu/optee_os/lib/libmpa/mpa_div.c:147
    22ec:	a94f07a2 	ldp	x2, x1, [x29,#240]
/home/lagadanu/Desktop/qemu/optee_os/lib/libmpa/mpa_div.c:144
    22f0:	52800025 	mov	w5, #0x1                   	// #1
/home/lagadanu/Desktop/qemu/optee_os/lib/libmpa/mpa_div.c:143
    22f4:	b9400444 	ldr	w4, [x2,#4]
    22f8:	7100009f 	cmp	w4, #0x0
    22fc:	5a84a484 	cneg	w4, w4, lt
    2300:	51000483 	sub	w3, w4, #0x1
    2304:	2a0403e0 	mov	w0, w4
    2308:	93407c63 	sxtw	x3, w3
    230c:	91000863 	add	x3, x3, #0x2
    2310:	d37ef463 	lsl	x3, x3, #2
/home/lagadanu/Desktop/qemu/optee_os/lib/libmpa/mpa_div.c:145
    2314:	7100001f 	cmp	w0, #0x0
    2318:	1a9fd7e6 	cset	w6, gt
    231c:	6a0500df 	tst	w6, w5
    2320:	54000ba1 	b.ne	2494 <__mpa_div_q_r+0x334>
/home/lagadanu/Desktop/qemu/optee_os/lib/libmpa/mpa_div.c:149
    2324:	350002a5 	cbnz	w5, 2378 <__mpa_div_q_r+0x218>
    2328:	b9400423 	ldr	w3, [x1,#4]
    232c:	7100007f 	cmp	w3, #0x0
    2330:	5a83a463 	cneg	w3, w3, lt
    2334:	6b03001f 	cmp	w0, w3
    2338:	5400250a 	b.ge	27d8 <__mpa_div_q_r+0x678>
    233c:	8b20c823 	add	x3, x1, w0, sxtw #2
    2340:	6b00009f 	cmp	w4, w0
    2344:	b9400863 	ldr	w3, [x3,#8]
    2348:	5400006d 	b.le	2354 <__mpa_div_q_r+0x1f4>
    234c:	8b20c840 	add	x0, x2, w0, sxtw #2
    2350:	b9400805 	ldr	w5, [x0,#8]
    2354:	6b0300bf 	cmp	w5, w3
    2358:	54000102 	b.cs	2378 <__mpa_div_q_r+0x218>
/home/lagadanu/Desktop/qemu/optee_os/lib/libmpa/mpa_div.c:150
    235c:	b940cba0 	ldr	w0, [x29,#200]
    2360:	52800023 	mov	w3, #0x1                   	// #1
    2364:	8b20ca60 	add	x0, x19, w0, sxtw #2
    2368:	b9000803 	str	w3, [x0,#8]
/home/lagadanu/Desktop/qemu/optee_os/lib/libmpa/mpa_div.c:151
    236c:	aa1703e3 	mov	x3, x23
    2370:	aa0103e0 	mov	x0, x1
    2374:	940006ee 	bl	3f2c <mpa_sub>
/home/lagadanu/Desktop/qemu/optee_os/lib/libmpa/mpa_div.c:155
    2378:	f9407fa0 	ldr	x0, [x29,#248]
    237c:	510006d6 	sub	w22, w22, #0x1
    2380:	b9400415 	ldr	w21, [x0,#4]
    2384:	b940cfa0 	ldr	w0, [x29,#204]
    2388:	510006b4 	sub	w20, w21, #0x1
    238c:	51000ab5 	sub	w21, w21, #0x2
    2390:	93407e9b 	sxtw	x27, w20
    2394:	4b000294 	sub	w20, w20, w0
/home/lagadanu/Desktop/qemu/optee_os/lib/libmpa/mpa_div.c:173
    2398:	910353a0 	add	x0, x29, #0xd4
    239c:	f9003ba0 	str	x0, [x29,#112]
    23a0:	910363a0 	add	x0, x29, #0xd8
    23a4:	8b34ca74 	add	x20, x19, w20, sxtw #2
    23a8:	f90053a0 	str	x0, [x29,#160]
/home/lagadanu/Desktop/qemu/optee_os/lib/libmpa/mpa_div.c:180
    23ac:	910373a0 	add	x0, x29, #0xdc
    23b0:	93407eb5 	sxtw	x21, w21
    23b4:	f9004fa0 	str	x0, [x29,#152]
    23b8:	91002294 	add	x20, x20, #0x8
    23bc:	910383a0 	add	x0, x29, #0xe0
    23c0:	f90037a0 	str	x0, [x29,#104]
/home/lagadanu/Desktop/qemu/optee_os/lib/libmpa/mpa_div.c:184
    23c4:	910393a0 	add	x0, x29, #0xe4
    23c8:	f9004ba0 	str	x0, [x29,#144]
/home/lagadanu/Desktop/qemu/optee_os/lib/libmpa/mpa_div.c:156
    23cc:	b940cfa0 	ldr	w0, [x29,#204]
    23d0:	2a1b03fc 	mov	w28, w27
    23d4:	6b1b001f 	cmp	w0, w27
    23d8:	540007ed 	b.le	24d4 <__mpa_div_q_r+0x374>
    23dc:	b980cba0 	ldrsw	x0, [x29,#200]
    23e0:	2a0003e1 	mov	w1, w0
/home/lagadanu/Desktop/qemu/optee_os/lib/libmpa/mpa_div.c:217
    23e4:	36f81be0 	tbz	w0, #31, 2760 <__mpa_div_q_r+0x600>
/home/lagadanu/Desktop/qemu/optee_os/lib/libmpa/mpa_div.c:219
    23e8:	11000421 	add	w1, w1, #0x1
    23ec:	b9000661 	str	w1, [x19,#4]
/home/lagadanu/Desktop/qemu/optee_os/lib/libmpa/mpa_div.c:223
    23f0:	f9407fa1 	ldr	x1, [x29,#248]
    23f4:	2a1903e2 	mov	w2, w25
    23f8:	aa0103e0 	mov	x0, x1
    23fc:	9400054d 	bl	3930 <mpa_shift_right>
/home/lagadanu/Desktop/qemu/optee_os/lib/libmpa/mpa_div.c:224
    2400:	f9407fa1 	ldr	x1, [x29,#248]
    2404:	aa1803e0 	mov	x0, x24
    2408:	97fffc86 	bl	1620 <mpa_copy>
/home/lagadanu/Desktop/qemu/optee_os/lib/libmpa/mpa_div.c:229
    240c:	f9405fa0 	ldr	x0, [x29,#184]
    2410:	aa1703e1 	mov	x1, x23
    2414:	94000366 	bl	31ac <mpa_free_static_temp_var>
/home/lagadanu/Desktop/qemu/optee_os/lib/libmpa/mpa_div.c:230
    2418:	f9405ba0 	ldr	x0, [x29,#176]
    241c:	aa1703e1 	mov	x1, x23
    2420:	94000363 	bl	31ac <mpa_free_static_temp_var>
/home/lagadanu/Desktop/qemu/optee_os/lib/libmpa/mpa_div.c:231
    2424:	f94057a0 	ldr	x0, [x29,#168]
    2428:	aa1703e1 	mov	x1, x23
    242c:	94000360 	bl	31ac <mpa_free_static_temp_var>
__mpa_div_q_r():
/home/lagadanu/Desktop/qemu/optee_os/lib/libmpa/mpa_div.c:336
    2430:	b9400660 	ldr	w0, [x19,#4]
    2434:	12800001 	mov	w1, #0xffffffff            	// #-1
    2438:	b940c3a2 	ldr	w2, [x29,#192]
    243c:	6b01001f 	cmp	w0, w1
    2440:	5a81d421 	cneg	w1, w1, gt
    2444:	6b01005f 	cmp	w2, w1
    2448:	54000060 	b.eq	2454 <__mpa_div_q_r+0x2f4>
/home/lagadanu/Desktop/qemu/optee_os/lib/libmpa/mpa_div.c:336 (discriminator 5)
    244c:	4b0003e0 	neg	w0, w0
    2450:	b9000660 	str	w0, [x19,#4]
/home/lagadanu/Desktop/qemu/optee_os/lib/libmpa/mpa_div.c:337
    2454:	b9400701 	ldr	w1, [x24,#4]
    2458:	12800000 	mov	w0, #0xffffffff            	// #-1
    245c:	b9400743 	ldr	w3, [x26,#4]
    2460:	6b00003f 	cmp	w1, w0
    2464:	5a80d402 	cneg	w2, w0, gt
    2468:	6b00007f 	cmp	w3, w0
    246c:	5a80d400 	cneg	w0, w0, gt
    2470:	6b00005f 	cmp	w2, w0
    2474:	54ffe920 	b.eq	2198 <__mpa_div_q_r+0x38>
/home/lagadanu/Desktop/qemu/optee_os/lib/libmpa/mpa_div.c:337 (discriminator 9)
    2478:	4b0103e1 	neg	w1, w1
    247c:	b9000701 	str	w1, [x24,#4]
    2480:	17ffff46 	b	2198 <__mpa_div_q_r+0x38>
__mpa_div_q_r_internal():
/home/lagadanu/Desktop/qemu/optee_os/lib/libmpa/mpa_div.c:123
    2484:	11000739 	add	w25, w25, #0x1
/home/lagadanu/Desktop/qemu/optee_os/lib/libmpa/mpa_div.c:124
    2488:	531f7800 	lsl	w0, w0, #1
    248c:	52800022 	mov	w2, #0x1                   	// #1
    2490:	17ffff7f 	b	228c <__mpa_div_q_r+0x12c>
/home/lagadanu/Desktop/qemu/optee_os/lib/libmpa/mpa_div.c:147
    2494:	b9400425 	ldr	w5, [x1,#4]
/home/lagadanu/Desktop/qemu/optee_os/lib/libmpa/mpa_div.c:146
    2498:	51000400 	sub	w0, w0, #0x1
/home/lagadanu/Desktop/qemu/optee_os/lib/libmpa/mpa_div.c:147
    249c:	52800006 	mov	w6, #0x0                   	// #0
    24a0:	710000bf 	cmp	w5, #0x0
    24a4:	5a85a4a5 	cneg	w5, w5, lt
    24a8:	6b05001f 	cmp	w0, w5
    24ac:	5400004a 	b.ge	24b4 <__mpa_div_q_r+0x354>
    24b0:	b8636826 	ldr	w6, [x1,x3]
    24b4:	52800005 	mov	w5, #0x0                   	// #0
    24b8:	6b00009f 	cmp	w4, w0
    24bc:	5400004d 	b.le	24c4 <__mpa_div_q_r+0x364>
    24c0:	b8636845 	ldr	w5, [x2,x3]
    24c4:	6b0500df 	cmp	w6, w5
    24c8:	d1001063 	sub	x3, x3, #0x4
    24cc:	1a9f17e5 	cset	w5, eq
    24d0:	17ffff91 	b	2314 <__mpa_div_q_r+0x1b4>
/home/lagadanu/Desktop/qemu/optee_os/lib/libmpa/mpa_div.c:157
    24d4:	f9407fa5 	ldr	x5, [x29,#248]
    24d8:	52800001 	mov	w1, #0x0                   	// #0
    24dc:	b94004a0 	ldr	w0, [x5,#4]
    24e0:	7100001f 	cmp	w0, #0x0
    24e4:	5a80a403 	cneg	w3, w0, lt
    24e8:	6b1b007f 	cmp	w3, w27
    24ec:	5400006d 	b.le	24f8 <__mpa_div_q_r+0x398>
    24f0:	8b3cc8a0 	add	x0, x5, w28, sxtw #2
    24f4:	b9400801 	ldr	w1, [x0,#8]
/home/lagadanu/Desktop/qemu/optee_os/lib/libmpa/mpa_div.c:158
    24f8:	f9407ba6 	ldr	x6, [x29,#240]
    24fc:	110006c0 	add	w0, w22, #0x1
    2500:	b9008fa0 	str	w0, [x29,#140]
    2504:	110006c4 	add	w4, w22, #0x1
    2508:	52800002 	mov	w2, #0x0                   	// #0
    250c:	b94004c0 	ldr	w0, [x6,#4]
    2510:	7100001f 	cmp	w0, #0x0
    2514:	5a80a400 	cneg	w0, w0, lt
    2518:	6b04001f 	cmp	w0, w4
    251c:	5400006b 	b.lt	2528 <__mpa_div_q_r+0x3c8>
    2520:	8b36c8c6 	add	x6, x6, w22, sxtw #2
    2524:	b94008c2 	ldr	w2, [x6,#8]
    2528:	b940cfa0 	ldr	w0, [x29,#204]
/home/lagadanu/Desktop/qemu/optee_os/lib/libmpa/mpa_div.c:157
    252c:	6b02003f 	cmp	w1, w2
    2530:	4b000360 	sub	w0, w27, w0
    2534:	b900c7a0 	str	w0, [x29,#196]
    2538:	54000561 	b.ne	25e4 <__mpa_div_q_r+0x484>
/home/lagadanu/Desktop/qemu/optee_os/lib/libmpa/mpa_div.c:159
    253c:	8b20ca60 	add	x0, x19, w0, sxtw #2
    2540:	12800001 	mov	w1, #0xffffffff            	// #-1
    2544:	b9000801 	str	w1, [x0,#8]
/home/lagadanu/Desktop/qemu/optee_os/lib/libmpa/mpa_div.c:195
    2548:	510006a0 	sub	w0, w21, #0x1
    254c:	937e7c00 	sbfiz	x0, x0, #2, #32
    2550:	f90043a0 	str	x0, [x29,#128]
/home/lagadanu/Desktop/qemu/optee_os/lib/libmpa/mpa_div.c:180
    2554:	510006c0 	sub	w0, w22, #0x1
    2558:	93407c00 	sxtw	x0, w0
    255c:	f9003fa0 	str	x0, [x29,#120]
/home/lagadanu/Desktop/qemu/optee_os/lib/libmpa/mpa_div.c:174
    2560:	f9407ba3 	ldr	x3, [x29,#240]
/home/lagadanu/Desktop/qemu/optee_os/lib/libmpa/mpa_div.c:173
    2564:	b9408fa4 	ldr	w4, [x29,#140]
/home/lagadanu/Desktop/qemu/optee_os/lib/libmpa/mpa_div.c:170
    2568:	b900d7bf 	str	wzr, [x29,#212]
/home/lagadanu/Desktop/qemu/optee_os/lib/libmpa/mpa_div.c:171
    256c:	b900dfbf 	str	wzr, [x29,#220]
/home/lagadanu/Desktop/qemu/optee_os/lib/libmpa/mpa_div.c:174
    2570:	b9400461 	ldr	w1, [x3,#4]
/home/lagadanu/Desktop/qemu/optee_os/lib/libmpa/mpa_div.c:172
    2574:	b900e7bf 	str	wzr, [x29,#228]
/home/lagadanu/Desktop/qemu/optee_os/lib/libmpa/mpa_div.c:174
    2578:	7100003f 	cmp	w1, #0x0
/home/lagadanu/Desktop/qemu/optee_os/lib/libmpa/mpa_div.c:173
    257c:	b9400280 	ldr	w0, [x20]
/home/lagadanu/Desktop/qemu/optee_os/lib/libmpa/mpa_div.c:174
    2580:	5a81a422 	cneg	w2, w1, lt
/home/lagadanu/Desktop/qemu/optee_os/lib/libmpa/mpa_div.c:173
    2584:	52800001 	mov	w1, #0x0                   	// #0
    2588:	6b04005f 	cmp	w2, w4
    258c:	5400006b 	b.lt	2598 <__mpa_div_q_r+0x438>
    2590:	8b36c863 	add	x3, x3, w22, sxtw #2
    2594:	b9400861 	ldr	w1, [x3,#8]
    2598:	f94053a2 	ldr	x2, [x29,#160]
    259c:	f9403ba3 	ldr	x3, [x29,#112]
    25a0:	9400030a 	bl	31c8 <__mpa_mul_add_word>
/home/lagadanu/Desktop/qemu/optee_os/lib/libmpa/mpa_div.c:177
    25a4:	f9407fa1 	ldr	x1, [x29,#248]
    25a8:	52800002 	mov	w2, #0x0                   	// #0
    25ac:	b9400420 	ldr	w0, [x1,#4]
    25b0:	7100001f 	cmp	w0, #0x0
    25b4:	5a80a400 	cneg	w0, w0, lt
    25b8:	6b00039f 	cmp	w28, w0
    25bc:	5400006a 	b.ge	25c8 <__mpa_div_q_r+0x468>
    25c0:	8b3cc821 	add	x1, x1, w28, sxtw #2
    25c4:	b9400822 	ldr	w2, [x1,#8]
    25c8:	b940d7a0 	ldr	w0, [x29,#212]
    25cc:	6b02001f 	cmp	w0, w2
    25d0:	54000209 	b.ls	2610 <__mpa_div_q_r+0x4b0>
/home/lagadanu/Desktop/qemu/optee_os/lib/libmpa/mpa_div.c:199
    25d4:	b9400280 	ldr	w0, [x20]
    25d8:	51000400 	sub	w0, w0, #0x1
    25dc:	b9000280 	str	w0, [x20]
    25e0:	17ffffe0 	b	2560 <__mpa_div_q_r+0x400>
/home/lagadanu/Desktop/qemu/optee_os/lib/libmpa/mpa_div.c:162
    25e4:	52800000 	mov	w0, #0x0                   	// #0
    25e8:	6b1c007f 	cmp	w3, w28
    25ec:	5400006b 	b.lt	25f8 <__mpa_div_q_r+0x498>
    25f0:	8b35c8a5 	add	x5, x5, w21, sxtw #2
    25f4:	b94008a0 	ldr	w0, [x5,#8]
    25f8:	d2800003 	mov	x3, #0x0                   	// #0
    25fc:	97fffe73 	bl	1fc8 <__mpa_div_dword>
/home/lagadanu/Desktop/qemu/optee_os/lib/libmpa/mpa_div.c:161
    2600:	b940c7a1 	ldr	w1, [x29,#196]
    2604:	8b21ca61 	add	x1, x19, w1, sxtw #2
    2608:	b9000820 	str	w0, [x1,#8]
    260c:	17ffffcf 	b	2548 <__mpa_div_q_r+0x3e8>
/home/lagadanu/Desktop/qemu/optee_os/lib/libmpa/mpa_div.c:181
    2610:	f9407ba3 	ldr	x3, [x29,#240]
/home/lagadanu/Desktop/qemu/optee_os/lib/libmpa/mpa_div.c:180
    2614:	b9400280 	ldr	w0, [x20]
/home/lagadanu/Desktop/qemu/optee_os/lib/libmpa/mpa_div.c:181
    2618:	b9400461 	ldr	w1, [x3,#4]
    261c:	7100003f 	cmp	w1, #0x0
    2620:	5a81a422 	cneg	w2, w1, lt
/home/lagadanu/Desktop/qemu/optee_os/lib/libmpa/mpa_div.c:180
    2624:	52800001 	mov	w1, #0x0                   	// #0
    2628:	6b0202df 	cmp	w22, w2
    262c:	5400008c 	b.gt	263c <__mpa_div_q_r+0x4dc>
    2630:	f9403fa1 	ldr	x1, [x29,#120]
    2634:	8b010863 	add	x3, x3, x1, lsl #2
    2638:	b9400861 	ldr	w1, [x3,#8]
    263c:	f94037a2 	ldr	x2, [x29,#104]
    2640:	f9404fa3 	ldr	x3, [x29,#152]
    2644:	940002e1 	bl	31c8 <__mpa_mul_add_word>
/home/lagadanu/Desktop/qemu/optee_os/lib/libmpa/mpa_div.c:184
    2648:	295b07a0 	ldp	w0, w1, [x29,#216]
    264c:	a9490ba3 	ldp	x3, x2, [x29,#144]
    2650:	94000509 	bl	3a74 <__mpa_full_adder>
/home/lagadanu/Desktop/qemu/optee_os/lib/libmpa/mpa_div.c:185
    2654:	b900dbbf 	str	wzr, [x29,#216]
/home/lagadanu/Desktop/qemu/optee_os/lib/libmpa/mpa_div.c:186
    2658:	f9404ba2 	ldr	x2, [x29,#144]
    265c:	b940d7a0 	ldr	w0, [x29,#212]
    2660:	b940e7a1 	ldr	w1, [x29,#228]
    2664:	f94053a3 	ldr	x3, [x29,#160]
    2668:	94000503 	bl	3a74 <__mpa_full_adder>
/home/lagadanu/Desktop/qemu/optee_os/lib/libmpa/mpa_div.c:187
    266c:	b940dba2 	ldr	w2, [x29,#216]
    2670:	35fffb22 	cbnz	w2, 25d4 <__mpa_div_q_r+0x474>
    2674:	f9407fa1 	ldr	x1, [x29,#248]
    2678:	52800003 	mov	w3, #0x0                   	// #0
    267c:	b9400420 	ldr	w0, [x1,#4]
    2680:	7100001f 	cmp	w0, #0x0
    2684:	5a80a400 	cneg	w0, w0, lt
    2688:	6b00039f 	cmp	w28, w0
    268c:	5400006a 	b.ge	2698 <__mpa_div_q_r+0x538>
    2690:	8b3cc823 	add	x3, x1, w28, sxtw #2
    2694:	b9400863 	ldr	w3, [x3,#8]
    2698:	b940e7a5 	ldr	w5, [x29,#228]
    269c:	6b0300bf 	cmp	w5, w3
    26a0:	54fff9a8 	b.hi	25d4 <__mpa_div_q_r+0x474>
/home/lagadanu/Desktop/qemu/optee_os/lib/libmpa/mpa_div.c:189
    26a4:	54000243 	b.cc	26ec <__mpa_div_q_r+0x58c>
/home/lagadanu/Desktop/qemu/optee_os/lib/libmpa/mpa_div.c:191
    26a8:	52800003 	mov	w3, #0x0                   	// #0
    26ac:	6b00039f 	cmp	w28, w0
    26b0:	5400006c 	b.gt	26bc <__mpa_div_q_r+0x55c>
    26b4:	8b35c823 	add	x3, x1, w21, sxtw #2
    26b8:	b9400863 	ldr	w3, [x3,#8]
    26bc:	b940dfa5 	ldr	w5, [x29,#220]
    26c0:	6b0300bf 	cmp	w5, w3
    26c4:	54fff888 	b.hi	25d4 <__mpa_div_q_r+0x474>
/home/lagadanu/Desktop/qemu/optee_os/lib/libmpa/mpa_div.c:193
    26c8:	54000123 	b.cc	26ec <__mpa_div_q_r+0x58c>
/home/lagadanu/Desktop/qemu/optee_os/lib/libmpa/mpa_div.c:195
    26cc:	6b15001f 	cmp	w0, w21
    26d0:	5400008b 	b.lt	26e0 <__mpa_div_q_r+0x580>
    26d4:	f94043a0 	ldr	x0, [x29,#128]
    26d8:	8b000021 	add	x1, x1, x0
    26dc:	b9400822 	ldr	w2, [x1,#8]
    26e0:	b940e3a0 	ldr	w0, [x29,#224]
    26e4:	6b02001f 	cmp	w0, w2
    26e8:	54fff768 	b.hi	25d4 <__mpa_div_q_r+0x474>
/home/lagadanu/Desktop/qemu/optee_os/lib/libmpa/mpa_div.c:203
    26ec:	f9407ba0 	ldr	x0, [x29,#240]
    26f0:	52800021 	mov	w1, #0x1                   	// #1
    26f4:	94000412 	bl	373c <__mpa_shift_words_right>
    26f8:	b940c7a0 	ldr	w0, [x29,#196]
/home/lagadanu/Desktop/qemu/optee_os/lib/libmpa/mpa_div.c:205
    26fc:	aa1703e3 	mov	x3, x23
    2700:	8b20ca7c 	add	x28, x19, w0, sxtw #2
    2704:	a94e87a0 	ldp	x0, x1, [x29,#232]
    2708:	b9400b82 	ldr	w2, [x28,#8]
    270c:	94000359 	bl	3470 <mpa_mul_word>
/home/lagadanu/Desktop/qemu/optee_os/lib/libmpa/mpa_div.c:206
    2710:	f9407fa1 	ldr	x1, [x29,#248]
    2714:	aa1703e3 	mov	x3, x23
    2718:	f94077a2 	ldr	x2, [x29,#232]
    271c:	aa0103e0 	mov	x0, x1
    2720:	94000603 	bl	3f2c <mpa_sub>
/home/lagadanu/Desktop/qemu/optee_os/lib/libmpa/mpa_div.c:207
    2724:	f9407fa1 	ldr	x1, [x29,#248]
    2728:	b9400420 	ldr	w0, [x1,#4]
    272c:	36f80100 	tbz	w0, #31, 274c <__mpa_div_q_r+0x5ec>
/home/lagadanu/Desktop/qemu/optee_os/lib/libmpa/mpa_div.c:208
    2730:	f9407ba2 	ldr	x2, [x29,#240]
    2734:	aa0103e0 	mov	x0, x1
    2738:	aa1703e3 	mov	x3, x23
    273c:	94000597 	bl	3d98 <mpa_add>
/home/lagadanu/Desktop/qemu/optee_os/lib/libmpa/mpa_div.c:209
    2740:	b9400b80 	ldr	w0, [x28,#8]
    2744:	51000400 	sub	w0, w0, #0x1
    2748:	b9000b80 	str	w0, [x28,#8]
    274c:	d100077b 	sub	x27, x27, #0x1
    2750:	d10006b5 	sub	x21, x21, #0x1
    2754:	d1001294 	sub	x20, x20, #0x4
    2758:	510006d6 	sub	w22, w22, #0x1
    275c:	17ffff1c 	b	23cc <__mpa_div_q_r+0x26c>
    2760:	d1000400 	sub	x0, x0, #0x1
/home/lagadanu/Desktop/qemu/optee_os/lib/libmpa/mpa_div.c:217
    2764:	8b000a62 	add	x2, x19, x0, lsl #2
    2768:	b9400c42 	ldr	w2, [x2,#12]
    276c:	34ffe3a2 	cbz	w2, 23e0 <__mpa_div_q_r+0x280>
    2770:	17ffff1e 	b	23e8 <__mpa_div_q_r+0x288>
__mpa_div_q_r():
/home/lagadanu/Desktop/qemu/optee_os/lib/libmpa/mpa_div.c:330
    2774:	b9400a83 	ldr	w3, [x20,#8]
    2778:	aa1a03e2 	mov	x2, x26
    277c:	aa1803e1 	mov	x1, x24
    2780:	aa1303e0 	mov	x0, x19
    2784:	97fffe25 	bl	2018 <__mpa_div_q_r_internal_word>
    2788:	17ffff2a 	b	2430 <__mpa_div_q_r+0x2d0>
/home/lagadanu/Desktop/qemu/optee_os/lib/libmpa/mpa_div.c:332
    278c:	aa1303e0 	mov	x0, x19
    2790:	52800001 	mov	w1, #0x0                   	// #0
    2794:	97fffe02 	bl	1f9c <mpa_set_word>
/home/lagadanu/Desktop/qemu/optee_os/lib/libmpa/mpa_div.c:333
    2798:	aa1a03e1 	mov	x1, x26
    279c:	aa1803e0 	mov	x0, x24
    27a0:	97fffba0 	bl	1620 <mpa_copy>
/home/lagadanu/Desktop/qemu/optee_os/lib/libmpa/mpa_div.c:334
    27a4:	17fffe7d 	b	2198 <__mpa_div_q_r+0x38>
/home/lagadanu/Desktop/qemu/optee_os/lib/libmpa/mpa_div.c:319
    27a8:	12800001 	mov	w1, #0xffffffff            	// #-1
    27ac:	6b01001f 	cmp	w0, w1
    27b0:	5a81d420 	cneg	w0, w1, gt
    27b4:	b900c3a0 	str	w0, [x29,#192]
/home/lagadanu/Desktop/qemu/optee_os/lib/libmpa/mpa_div.c:320
    27b8:	aa1403e1 	mov	x1, x20
    27bc:	aa1a03e0 	mov	x0, x26
    27c0:	940006ea 	bl	4368 <__mpa_abs_cmp>
/home/lagadanu/Desktop/qemu/optee_os/lib/libmpa/mpa_div.c:321
    27c4:	7100001f 	cmp	w0, #0x0
    27c8:	54ffd0c1 	b.ne	21e0 <__mpa_div_q_r+0x80>
/home/lagadanu/Desktop/qemu/optee_os/lib/libmpa/mpa_div.c:322
    27cc:	52800021 	mov	w1, #0x1                   	// #1
    27d0:	aa1303e0 	mov	x0, x19
    27d4:	17fffe6d 	b	2188 <__mpa_div_q_r+0x28>
__mpa_div_q_r_internal():
/home/lagadanu/Desktop/qemu/optee_os/lib/libmpa/mpa_div.c:149
    27d8:	6b00009f 	cmp	w4, w0
    27dc:	54ffdced 	b.le	2378 <__mpa_div_q_r+0x218>
    27e0:	52800003 	mov	w3, #0x0                   	// #0
    27e4:	17fffeda 	b	234c <__mpa_div_q_r+0x1ec>

00000000000027e8 <mpa_div>:
mpa_div():
/home/lagadanu/Desktop/qemu/optee_os/lib/libmpa/mpa_div.c:357
    27e8:	a9ba7bfd 	stp	x29, x30, [sp,#-96]!
/home/lagadanu/Desktop/qemu/optee_os/lib/libmpa/mpa_div.c:364
    27ec:	eb02001f 	cmp	x0, x2
    27f0:	fa431004 	ccmp	x0, x3, #0x4, ne
/home/lagadanu/Desktop/qemu/optee_os/lib/libmpa/mpa_div.c:357
    27f4:	910003fd 	mov	x29, sp
    27f8:	a90153f3 	stp	x19, x20, [sp,#16]
/home/lagadanu/Desktop/qemu/optee_os/lib/libmpa/mpa_div.c:364
    27fc:	fa401804 	ccmp	x0, #0x0, #0x4, ne
/home/lagadanu/Desktop/qemu/optee_os/lib/libmpa/mpa_div.c:357
    2800:	a9025bf5 	stp	x21, x22, [sp,#32]
    2804:	aa0003f4 	mov	x20, x0
    2808:	a90363f7 	stp	x23, x24, [sp,#48]
    280c:	aa0103f3 	mov	x19, x1
    2810:	f90023f9 	str	x25, [sp,#64]
    2814:	aa0203f6 	mov	x22, x2
    2818:	aa0303f7 	mov	x23, x3
    281c:	aa0403f5 	mov	x21, x4
/home/lagadanu/Desktop/qemu/optee_os/lib/libmpa/mpa_div.c:364
    2820:	54000501 	b.ne	28c0 <mpa_div+0xd8>
/home/lagadanu/Desktop/qemu/optee_os/lib/libmpa/mpa_div.c:366
    2824:	52800039 	mov	w25, #0x1                   	// #1
/home/lagadanu/Desktop/qemu/optee_os/lib/libmpa/mpa_div.c:365
    2828:	aa0403e1 	mov	x1, x4
    282c:	910143a0 	add	x0, x29, #0x50
    2830:	9400025b 	bl	319c <mpa_alloc_static_temp_var>
/home/lagadanu/Desktop/qemu/optee_os/lib/libmpa/mpa_div.c:373
    2834:	f100027f 	cmp	x19, #0x0
    2838:	fa5312e4 	ccmp	x23, x19, #0x4, ne
    283c:	fa5312c4 	ccmp	x22, x19, #0x4, ne
    2840:	54000461 	b.ne	28cc <mpa_div+0xe4>
/home/lagadanu/Desktop/qemu/optee_os/lib/libmpa/mpa_div.c:375
    2844:	52800038 	mov	w24, #0x1                   	// #1
/home/lagadanu/Desktop/qemu/optee_os/lib/libmpa/mpa_div.c:374
    2848:	aa1503e1 	mov	x1, x21
    284c:	910163a0 	add	x0, x29, #0x58
    2850:	94000253 	bl	319c <mpa_alloc_static_temp_var>
/home/lagadanu/Desktop/qemu/optee_os/lib/libmpa/mpa_div.c:381
    2854:	a94507a0 	ldp	x0, x1, [x29,#80]
    2858:	aa1503e4 	mov	x4, x21
    285c:	aa1703e3 	mov	x3, x23
    2860:	aa1603e2 	mov	x2, x22
    2864:	97fffe3f 	bl	2160 <__mpa_div_q_r>
/home/lagadanu/Desktop/qemu/optee_os/lib/libmpa/mpa_div.c:383
    2868:	b4000094 	cbz	x20, 2878 <mpa_div+0x90>
/home/lagadanu/Desktop/qemu/optee_os/lib/libmpa/mpa_div.c:384
    286c:	f9402ba1 	ldr	x1, [x29,#80]
    2870:	aa1403e0 	mov	x0, x20
    2874:	97fffb6b 	bl	1620 <mpa_copy>
/home/lagadanu/Desktop/qemu/optee_os/lib/libmpa/mpa_div.c:385
    2878:	34000099 	cbz	w25, 2888 <mpa_div+0xa0>
/home/lagadanu/Desktop/qemu/optee_os/lib/libmpa/mpa_div.c:386
    287c:	aa1503e1 	mov	x1, x21
    2880:	910143a0 	add	x0, x29, #0x50
    2884:	9400024a 	bl	31ac <mpa_free_static_temp_var>
/home/lagadanu/Desktop/qemu/optee_os/lib/libmpa/mpa_div.c:387
    2888:	b4000093 	cbz	x19, 2898 <mpa_div+0xb0>
/home/lagadanu/Desktop/qemu/optee_os/lib/libmpa/mpa_div.c:388
    288c:	f9402fa1 	ldr	x1, [x29,#88]
    2890:	aa1303e0 	mov	x0, x19
    2894:	97fffb63 	bl	1620 <mpa_copy>
/home/lagadanu/Desktop/qemu/optee_os/lib/libmpa/mpa_div.c:389
    2898:	34000098 	cbz	w24, 28a8 <mpa_div+0xc0>
/home/lagadanu/Desktop/qemu/optee_os/lib/libmpa/mpa_div.c:390
    289c:	aa1503e1 	mov	x1, x21
    28a0:	910163a0 	add	x0, x29, #0x58
    28a4:	94000242 	bl	31ac <mpa_free_static_temp_var>
/home/lagadanu/Desktop/qemu/optee_os/lib/libmpa/mpa_div.c:391
    28a8:	a94153f3 	ldp	x19, x20, [sp,#16]
    28ac:	a9425bf5 	ldp	x21, x22, [sp,#32]
    28b0:	a94363f7 	ldp	x23, x24, [sp,#48]
    28b4:	f94023f9 	ldr	x25, [sp,#64]
    28b8:	a8c67bfd 	ldp	x29, x30, [sp],#96
    28bc:	d65f03c0 	ret
/home/lagadanu/Desktop/qemu/optee_os/lib/libmpa/mpa_div.c:369
    28c0:	52800019 	mov	w25, #0x0                   	// #0
/home/lagadanu/Desktop/qemu/optee_os/lib/libmpa/mpa_div.c:368
    28c4:	f9002ba0 	str	x0, [x29,#80]
    28c8:	17ffffdb 	b	2834 <mpa_div+0x4c>
/home/lagadanu/Desktop/qemu/optee_os/lib/libmpa/mpa_div.c:378
    28cc:	52800018 	mov	w24, #0x0                   	// #0
/home/lagadanu/Desktop/qemu/optee_os/lib/libmpa/mpa_div.c:377
    28d0:	f9002fb3 	str	x19, [x29,#88]
    28d4:	17ffffe0 	b	2854 <mpa_div+0x6c>

00000000000028d8 <__mpa_divby2>:
__mpa_divby2():
/home/lagadanu/Desktop/qemu/optee_os/lib/libmpa/mpa_gcd.c:25
    28d8:	b9400403 	ldr	w3, [x0,#4]
    28dc:	7100007f 	cmp	w3, #0x0
    28e0:	540002a0 	b.eq	2934 <__mpa_divby2+0x5c>
/home/lagadanu/Desktop/qemu/optee_os/lib/libmpa/mpa_gcd.c:28
    28e4:	5a83a466 	cneg	w6, w3, lt
/home/lagadanu/Desktop/qemu/optee_os/lib/libmpa/mpa_gcd.c:30
    28e8:	b9400804 	ldr	w4, [x0,#8]
/home/lagadanu/Desktop/qemu/optee_os/lib/libmpa/mpa_gcd.c:28
    28ec:	510004c1 	sub	w1, w6, #0x1
/home/lagadanu/Desktop/qemu/optee_os/lib/libmpa/mpa_gcd.c:31
    28f0:	52800025 	mov	w5, #0x1                   	// #1
/home/lagadanu/Desktop/qemu/optee_os/lib/libmpa/mpa_gcd.c:28
    28f4:	8b21c801 	add	x1, x0, w1, sxtw #2
/home/lagadanu/Desktop/qemu/optee_os/lib/libmpa/mpa_gcd.c:30
    28f8:	53017c84 	lsr	w4, w4, #1
/home/lagadanu/Desktop/qemu/optee_os/lib/libmpa/mpa_gcd.c:28
    28fc:	b9400821 	ldr	w1, [x1,#8]
    2900:	53017c21 	lsr	w1, w1, #1
    2904:	7100003f 	cmp	w1, #0x0
/home/lagadanu/Desktop/qemu/optee_os/lib/libmpa/mpa_gcd.c:30
    2908:	aa0003e1 	mov	x1, x0
/home/lagadanu/Desktop/qemu/optee_os/lib/libmpa/mpa_gcd.c:28
    290c:	1a9f17e2 	cset	w2, eq
/home/lagadanu/Desktop/qemu/optee_os/lib/libmpa/mpa_gcd.c:30
    2910:	b8008c24 	str	w4, [x1,#8]!
    2914:	91001021 	add	x1, x1, #0x4
/home/lagadanu/Desktop/qemu/optee_os/lib/libmpa/mpa_gcd.c:31 (discriminator 1)
    2918:	6b0600bf 	cmp	w5, w6
    291c:	540000e3 	b.cc	2938 <__mpa_divby2+0x60>
/home/lagadanu/Desktop/qemu/optee_os/lib/libmpa/mpa_gcd.c:38
    2920:	4b020061 	sub	w1, w3, w2
    2924:	7100007f 	cmp	w3, #0x0
    2928:	0b020062 	add	w2, w3, w2
    292c:	1a81b042 	csel	w2, w2, w1, lt
    2930:	b9000402 	str	w2, [x0,#4]
    2934:	d65f03c0 	ret
/home/lagadanu/Desktop/qemu/optee_os/lib/libmpa/mpa_gcd.c:32 (discriminator 3)
    2938:	b9400024 	ldr	w4, [x1]
/home/lagadanu/Desktop/qemu/optee_os/lib/libmpa/mpa_gcd.c:31 (discriminator 3)
    293c:	110004a5 	add	w5, w5, #0x1
/home/lagadanu/Desktop/qemu/optee_os/lib/libmpa/mpa_gcd.c:33 (discriminator 3)
    2940:	53017c87 	lsr	w7, w4, #1
    2944:	b9000027 	str	w7, [x1]
/home/lagadanu/Desktop/qemu/optee_os/lib/libmpa/mpa_gcd.c:34 (discriminator 3)
    2948:	b85fc027 	ldur	w7, [x1,#-4]
    294c:	4a047ce4 	eor	w4, w7, w4, lsl #31
    2950:	b81fc024 	stur	w4, [x1,#-4]
    2954:	17fffff0 	b	2914 <__mpa_divby2+0x3c>

0000000000002958 <__mpa_gcd.part.0>:
__mpa_gcd():
/home/lagadanu/Desktop/qemu/optee_os/lib/libmpa/mpa_gcd.c:190
    2958:	a9ba7bfd 	stp	x29, x30, [sp,#-96]!
    295c:	910003fd 	mov	x29, sp
    2960:	a9025bf5 	stp	x21, x22, [sp,#32]
/home/lagadanu/Desktop/qemu/optee_os/lib/libmpa/mpa_gcd.c:204
    2964:	910123b6 	add	x22, x29, #0x48
/home/lagadanu/Desktop/qemu/optee_os/lib/libmpa/mpa_gcd.c:190
    2968:	a90153f3 	stp	x19, x20, [sp,#16]
    296c:	aa0103f5 	mov	x21, x1
    2970:	aa0203f4 	mov	x20, x2
    2974:	aa0303f3 	mov	x19, x3
/home/lagadanu/Desktop/qemu/optee_os/lib/libmpa/mpa_gcd.c:204
    2978:	aa0303e1 	mov	x1, x3
/home/lagadanu/Desktop/qemu/optee_os/lib/libmpa/mpa_gcd.c:190
    297c:	a90363f7 	stp	x23, x24, [sp,#48]
    2980:	aa0003f8 	mov	x24, x0
/home/lagadanu/Desktop/qemu/optee_os/lib/libmpa/mpa_gcd.c:204
    2984:	aa1603e0 	mov	x0, x22
    2988:	94000205 	bl	319c <mpa_alloc_static_temp_var>
/home/lagadanu/Desktop/qemu/optee_os/lib/libmpa/mpa_gcd.c:205
    298c:	f94027a0 	ldr	x0, [x29,#72]
    2990:	aa1503e1 	mov	x1, x21
/home/lagadanu/Desktop/qemu/optee_os/lib/libmpa/mpa_gcd.c:206
    2994:	910143b5 	add	x21, x29, #0x50
/home/lagadanu/Desktop/qemu/optee_os/lib/libmpa/mpa_gcd.c:205
    2998:	97fffb22 	bl	1620 <mpa_copy>
/home/lagadanu/Desktop/qemu/optee_os/lib/libmpa/mpa_gcd.c:206
    299c:	aa1303e1 	mov	x1, x19
    29a0:	aa1503e0 	mov	x0, x21
    29a4:	940001fe 	bl	319c <mpa_alloc_static_temp_var>
/home/lagadanu/Desktop/qemu/optee_os/lib/libmpa/mpa_gcd.c:207
    29a8:	f9402ba0 	ldr	x0, [x29,#80]
    29ac:	aa1403e1 	mov	x1, x20
/home/lagadanu/Desktop/qemu/optee_os/lib/libmpa/mpa_gcd.c:209
    29b0:	52800014 	mov	w20, #0x0                   	// #0
/home/lagadanu/Desktop/qemu/optee_os/lib/libmpa/mpa_gcd.c:207
    29b4:	97fffb1b 	bl	1620 <mpa_copy>
/home/lagadanu/Desktop/qemu/optee_os/lib/libmpa/mpa_gcd.c:210
    29b8:	f94027a0 	ldr	x0, [x29,#72]
    29bc:	97fffb63 	bl	1748 <mpa_parity>
    29c0:	34000340 	cbz	w0, 2a28 <__mpa_gcd.part.0+0xd0>
/home/lagadanu/Desktop/qemu/optee_os/lib/libmpa/mpa_gcd.c:216
    29c4:	910163b7 	add	x23, x29, #0x58
    29c8:	aa1303e1 	mov	x1, x19
    29cc:	aa1703e0 	mov	x0, x23
    29d0:	940001f3 	bl	319c <mpa_alloc_static_temp_var>
/home/lagadanu/Desktop/qemu/optee_os/lib/libmpa/mpa_gcd.c:217
    29d4:	f94027a0 	ldr	x0, [x29,#72]
    29d8:	b9400400 	ldr	w0, [x0,#4]
    29dc:	350003c0 	cbnz	w0, 2a54 <__mpa_gcd.part.0+0xfc>
/home/lagadanu/Desktop/qemu/optee_os/lib/libmpa/mpa_gcd.c:234
    29e0:	f9402ba1 	ldr	x1, [x29,#80]
    29e4:	2a1403e2 	mov	w2, w20
    29e8:	aa1803e0 	mov	x0, x24
    29ec:	9400036d 	bl	37a0 <mpa_shift_left>
/home/lagadanu/Desktop/qemu/optee_os/lib/libmpa/mpa_gcd.c:235
    29f0:	aa1303e1 	mov	x1, x19
    29f4:	aa1703e0 	mov	x0, x23
    29f8:	940001ed 	bl	31ac <mpa_free_static_temp_var>
/home/lagadanu/Desktop/qemu/optee_os/lib/libmpa/mpa_gcd.c:236
    29fc:	aa1303e1 	mov	x1, x19
    2a00:	aa1603e0 	mov	x0, x22
    2a04:	940001ea 	bl	31ac <mpa_free_static_temp_var>
/home/lagadanu/Desktop/qemu/optee_os/lib/libmpa/mpa_gcd.c:237
    2a08:	aa1303e1 	mov	x1, x19
    2a0c:	aa1503e0 	mov	x0, x21
    2a10:	940001e7 	bl	31ac <mpa_free_static_temp_var>
/home/lagadanu/Desktop/qemu/optee_os/lib/libmpa/mpa_gcd.c:238
    2a14:	a94153f3 	ldp	x19, x20, [sp,#16]
    2a18:	a9425bf5 	ldp	x21, x22, [sp,#32]
    2a1c:	a94363f7 	ldp	x23, x24, [sp,#48]
    2a20:	a8c67bfd 	ldp	x29, x30, [sp],#96
    2a24:	d65f03c0 	ret
/home/lagadanu/Desktop/qemu/optee_os/lib/libmpa/mpa_gcd.c:210
    2a28:	f9402ba0 	ldr	x0, [x29,#80]
    2a2c:	97fffb47 	bl	1748 <mpa_parity>
    2a30:	35fffca0 	cbnz	w0, 29c4 <__mpa_gcd.part.0+0x6c>
/home/lagadanu/Desktop/qemu/optee_os/lib/libmpa/mpa_gcd.c:212
    2a34:	f94027a0 	ldr	x0, [x29,#72]
/home/lagadanu/Desktop/qemu/optee_os/lib/libmpa/mpa_gcd.c:211
    2a38:	11000694 	add	w20, w20, #0x1
/home/lagadanu/Desktop/qemu/optee_os/lib/libmpa/mpa_gcd.c:212
    2a3c:	97ffffa7 	bl	28d8 <__mpa_divby2>
/home/lagadanu/Desktop/qemu/optee_os/lib/libmpa/mpa_gcd.c:213
    2a40:	f9402ba0 	ldr	x0, [x29,#80]
    2a44:	97ffffa5 	bl	28d8 <__mpa_divby2>
    2a48:	17ffffdc 	b	29b8 <__mpa_gcd.part.0+0x60>
/home/lagadanu/Desktop/qemu/optee_os/lib/libmpa/mpa_gcd.c:219
    2a4c:	f94027a0 	ldr	x0, [x29,#72]
    2a50:	97ffffa2 	bl	28d8 <__mpa_divby2>
/home/lagadanu/Desktop/qemu/optee_os/lib/libmpa/mpa_gcd.c:218
    2a54:	f94027a0 	ldr	x0, [x29,#72]
    2a58:	97fffb3c 	bl	1748 <mpa_parity>
    2a5c:	34ffff80 	cbz	w0, 2a4c <__mpa_gcd.part.0+0xf4>
/home/lagadanu/Desktop/qemu/optee_os/lib/libmpa/mpa_gcd.c:221
    2a60:	f9402ba0 	ldr	x0, [x29,#80]
    2a64:	97fffb39 	bl	1748 <mpa_parity>
    2a68:	34000240 	cbz	w0, 2ab0 <__mpa_gcd.part.0+0x158>
/home/lagadanu/Desktop/qemu/optee_os/lib/libmpa/mpa_gcd.c:224
    2a6c:	a9448ba1 	ldp	x1, x2, [x29,#72]
    2a70:	aa1303e3 	mov	x3, x19
    2a74:	f9402fa0 	ldr	x0, [x29,#88]
    2a78:	9400052d 	bl	3f2c <mpa_sub>
/home/lagadanu/Desktop/qemu/optee_os/lib/libmpa/mpa_gcd.c:226
    2a7c:	f9402fa0 	ldr	x0, [x29,#88]
    2a80:	b9400401 	ldr	w1, [x0,#4]
    2a84:	36f80061 	tbz	w1, #31, 2a90 <__mpa_gcd.part.0+0x138>
    2a88:	4b0103e1 	neg	w1, w1
    2a8c:	b9000401 	str	w1, [x0,#4]
/home/lagadanu/Desktop/qemu/optee_os/lib/libmpa/mpa_gcd.c:227
    2a90:	97ffff92 	bl	28d8 <__mpa_divby2>
/home/lagadanu/Desktop/qemu/optee_os/lib/libmpa/mpa_gcd.c:228
    2a94:	a94487a0 	ldp	x0, x1, [x29,#72]
    2a98:	9400066d 	bl	444c <mpa_cmp>
/home/lagadanu/Desktop/qemu/optee_os/lib/libmpa/mpa_gcd.c:229
    2a9c:	f9402fa1 	ldr	x1, [x29,#88]
/home/lagadanu/Desktop/qemu/optee_os/lib/libmpa/mpa_gcd.c:228
    2aa0:	37f800e0 	tbnz	w0, #31, 2abc <__mpa_gcd.part.0+0x164>
/home/lagadanu/Desktop/qemu/optee_os/lib/libmpa/mpa_gcd.c:229
    2aa4:	f94027a0 	ldr	x0, [x29,#72]
/home/lagadanu/Desktop/qemu/optee_os/lib/libmpa/mpa_gcd.c:231
    2aa8:	97fffade 	bl	1620 <mpa_copy>
    2aac:	17ffffca 	b	29d4 <__mpa_gcd.part.0+0x7c>
/home/lagadanu/Desktop/qemu/optee_os/lib/libmpa/mpa_gcd.c:222
    2ab0:	f9402ba0 	ldr	x0, [x29,#80]
    2ab4:	97ffff89 	bl	28d8 <__mpa_divby2>
    2ab8:	17ffffea 	b	2a60 <__mpa_gcd.part.0+0x108>
/home/lagadanu/Desktop/qemu/optee_os/lib/libmpa/mpa_gcd.c:231
    2abc:	f9402ba0 	ldr	x0, [x29,#80]
    2ac0:	17fffffa 	b	2aa8 <__mpa_gcd.part.0+0x150>

0000000000002ac4 <__mpa_egcd>:
__mpa_egcd():
/home/lagadanu/Desktop/qemu/optee_os/lib/libmpa/mpa_gcd.c:94
    2ac4:	a9b57bfd 	stp	x29, x30, [sp,#-176]!
    2ac8:	910003fd 	mov	x29, sp
    2acc:	a90153f3 	stp	x19, x20, [sp,#16]
    2ad0:	aa0003f4 	mov	x20, x0
/home/lagadanu/Desktop/qemu/optee_os/lib/libmpa/mpa_gcd.c:105
    2ad4:	b9400480 	ldr	w0, [x4,#4]
/home/lagadanu/Desktop/qemu/optee_os/lib/libmpa/mpa_gcd.c:94
    2ad8:	a9025bf5 	stp	x21, x22, [sp,#32]
    2adc:	aa0103f6 	mov	x22, x1
    2ae0:	a9046bf9 	stp	x25, x26, [sp,#64]
    2ae4:	aa0203f5 	mov	x21, x2
    2ae8:	a90363f7 	stp	x23, x24, [sp,#48]
    2aec:	aa0303f9 	mov	x25, x3
    2af0:	a90573fb 	stp	x27, x28, [sp,#80]
/home/lagadanu/Desktop/qemu/optee_os/lib/libmpa/mpa_gcd.c:105
    2af4:	35000260 	cbnz	w0, 2b40 <__mpa_egcd+0x7c>
/home/lagadanu/Desktop/qemu/optee_os/lib/libmpa/mpa_gcd.c:106
    2af8:	b4000081 	cbz	x1, 2b08 <__mpa_egcd+0x44>
/home/lagadanu/Desktop/qemu/optee_os/lib/libmpa/mpa_gcd.c:107
    2afc:	52800021 	mov	w1, #0x1                   	// #1
    2b00:	aa1603e0 	mov	x0, x22
    2b04:	97fffd26 	bl	1f9c <mpa_set_word>
/home/lagadanu/Desktop/qemu/optee_os/lib/libmpa/mpa_gcd.c:108
    2b08:	b4000095 	cbz	x21, 2b18 <__mpa_egcd+0x54>
/home/lagadanu/Desktop/qemu/optee_os/lib/libmpa/mpa_gcd.c:109
    2b0c:	52800001 	mov	w1, #0x0                   	// #0
    2b10:	aa1503e0 	mov	x0, x21
    2b14:	97fffd22 	bl	1f9c <mpa_set_word>
/home/lagadanu/Desktop/qemu/optee_os/lib/libmpa/mpa_gcd.c:110
    2b18:	aa1903e1 	mov	x1, x25
    2b1c:	aa1403e0 	mov	x0, x20
    2b20:	97fffac0 	bl	1620 <mpa_copy>
/home/lagadanu/Desktop/qemu/optee_os/lib/libmpa/mpa_gcd.c:183
    2b24:	a94153f3 	ldp	x19, x20, [sp,#16]
    2b28:	a9425bf5 	ldp	x21, x22, [sp,#32]
    2b2c:	a94363f7 	ldp	x23, x24, [sp,#48]
    2b30:	a9446bf9 	ldp	x25, x26, [sp,#64]
    2b34:	a94573fb 	ldp	x27, x28, [sp,#80]
    2b38:	a8cb7bfd 	ldp	x29, x30, [sp],#176
    2b3c:	d65f03c0 	ret
/home/lagadanu/Desktop/qemu/optee_os/lib/libmpa/mpa_gcd.c:113
    2b40:	910263b8 	add	x24, x29, #0x98
    2b44:	aa0403f7 	mov	x23, x4
    2b48:	aa0503f3 	mov	x19, x5
    2b4c:	aa0503e1 	mov	x1, x5
    2b50:	aa1803e0 	mov	x0, x24
    2b54:	94000192 	bl	319c <mpa_alloc_static_temp_var>
/home/lagadanu/Desktop/qemu/optee_os/lib/libmpa/mpa_gcd.c:114
    2b58:	f9404fa0 	ldr	x0, [x29,#152]
    2b5c:	aa1903e1 	mov	x1, x25
    2b60:	97fffab0 	bl	1620 <mpa_copy>
/home/lagadanu/Desktop/qemu/optee_os/lib/libmpa/mpa_gcd.c:115
    2b64:	910283a0 	add	x0, x29, #0xa0
    2b68:	aa1303e1 	mov	x1, x19
    2b6c:	f90037a0 	str	x0, [x29,#104]
    2b70:	9400018b 	bl	319c <mpa_alloc_static_temp_var>
/home/lagadanu/Desktop/qemu/optee_os/lib/libmpa/mpa_gcd.c:116
    2b74:	f94053a0 	ldr	x0, [x29,#160]
    2b78:	aa1703e1 	mov	x1, x23
/home/lagadanu/Desktop/qemu/optee_os/lib/libmpa/mpa_gcd.c:118
    2b7c:	52800017 	mov	w23, #0x0                   	// #0
/home/lagadanu/Desktop/qemu/optee_os/lib/libmpa/mpa_gcd.c:116
    2b80:	97fffaa8 	bl	1620 <mpa_copy>
/home/lagadanu/Desktop/qemu/optee_os/lib/libmpa/mpa_gcd.c:119
    2b84:	f9404fa0 	ldr	x0, [x29,#152]
    2b88:	97fffaf0 	bl	1748 <mpa_parity>
    2b8c:	34000980 	cbz	w0, 2cbc <__mpa_egcd+0x1f8>
/home/lagadanu/Desktop/qemu/optee_os/lib/libmpa/mpa_gcd.c:125
    2b90:	9102a3a0 	add	x0, x29, #0xa8
    2b94:	aa1303e1 	mov	x1, x19
    2b98:	f90033a0 	str	x0, [x29,#96]
    2b9c:	94000180 	bl	319c <mpa_alloc_static_temp_var>
/home/lagadanu/Desktop/qemu/optee_os/lib/libmpa/mpa_gcd.c:126
    2ba0:	f9404fa1 	ldr	x1, [x29,#152]
/home/lagadanu/Desktop/qemu/optee_os/lib/libmpa/mpa_gcd.c:128
    2ba4:	9101e3bc 	add	x28, x29, #0x78
/home/lagadanu/Desktop/qemu/optee_os/lib/libmpa/mpa_gcd.c:126
    2ba8:	f94057a0 	ldr	x0, [x29,#168]
/home/lagadanu/Desktop/qemu/optee_os/lib/libmpa/mpa_gcd.c:130
    2bac:	910203bb 	add	x27, x29, #0x80
/home/lagadanu/Desktop/qemu/optee_os/lib/libmpa/mpa_gcd.c:132
    2bb0:	910223ba 	add	x26, x29, #0x88
/home/lagadanu/Desktop/qemu/optee_os/lib/libmpa/mpa_gcd.c:134
    2bb4:	910243b9 	add	x25, x29, #0x90
/home/lagadanu/Desktop/qemu/optee_os/lib/libmpa/mpa_gcd.c:126
    2bb8:	97fffa9a 	bl	1620 <mpa_copy>
/home/lagadanu/Desktop/qemu/optee_os/lib/libmpa/mpa_gcd.c:127
    2bbc:	f94053a1 	ldr	x1, [x29,#160]
    2bc0:	aa1403e0 	mov	x0, x20
    2bc4:	97fffa97 	bl	1620 <mpa_copy>
/home/lagadanu/Desktop/qemu/optee_os/lib/libmpa/mpa_gcd.c:128
    2bc8:	aa1303e1 	mov	x1, x19
    2bcc:	aa1c03e0 	mov	x0, x28
    2bd0:	94000173 	bl	319c <mpa_alloc_static_temp_var>
/home/lagadanu/Desktop/qemu/optee_os/lib/libmpa/mpa_gcd.c:129
    2bd4:	f9403fa0 	ldr	x0, [x29,#120]
    2bd8:	52800021 	mov	w1, #0x1                   	// #1
    2bdc:	97fffcf0 	bl	1f9c <mpa_set_word>
/home/lagadanu/Desktop/qemu/optee_os/lib/libmpa/mpa_gcd.c:130
    2be0:	aa1303e1 	mov	x1, x19
    2be4:	aa1b03e0 	mov	x0, x27
    2be8:	9400016d 	bl	319c <mpa_alloc_static_temp_var>
/home/lagadanu/Desktop/qemu/optee_os/lib/libmpa/mpa_gcd.c:131
    2bec:	f94043a0 	ldr	x0, [x29,#128]
    2bf0:	52800001 	mov	w1, #0x0                   	// #0
    2bf4:	97fffcea 	bl	1f9c <mpa_set_word>
/home/lagadanu/Desktop/qemu/optee_os/lib/libmpa/mpa_gcd.c:132
    2bf8:	aa1303e1 	mov	x1, x19
    2bfc:	aa1a03e0 	mov	x0, x26
    2c00:	94000167 	bl	319c <mpa_alloc_static_temp_var>
/home/lagadanu/Desktop/qemu/optee_os/lib/libmpa/mpa_gcd.c:133
    2c04:	f94047a0 	ldr	x0, [x29,#136]
    2c08:	52800001 	mov	w1, #0x0                   	// #0
    2c0c:	97fffce4 	bl	1f9c <mpa_set_word>
/home/lagadanu/Desktop/qemu/optee_os/lib/libmpa/mpa_gcd.c:134
    2c10:	aa1303e1 	mov	x1, x19
    2c14:	aa1903e0 	mov	x0, x25
    2c18:	94000161 	bl	319c <mpa_alloc_static_temp_var>
/home/lagadanu/Desktop/qemu/optee_os/lib/libmpa/mpa_gcd.c:135
    2c1c:	f9404ba0 	ldr	x0, [x29,#144]
    2c20:	52800021 	mov	w1, #0x1                   	// #1
    2c24:	97fffcde 	bl	1f9c <mpa_set_word>
/home/lagadanu/Desktop/qemu/optee_os/lib/libmpa/mpa_gcd.c:137
    2c28:	f94057a0 	ldr	x0, [x29,#168]
    2c2c:	b9400400 	ldr	w0, [x0,#4]
    2c30:	35000800 	cbnz	w0, 2d30 <__mpa_egcd+0x26c>
/home/lagadanu/Desktop/qemu/optee_os/lib/libmpa/mpa_gcd.c:170
    2c34:	b4000096 	cbz	x22, 2c44 <__mpa_egcd+0x180>
/home/lagadanu/Desktop/qemu/optee_os/lib/libmpa/mpa_gcd.c:171
    2c38:	f94047a1 	ldr	x1, [x29,#136]
    2c3c:	aa1603e0 	mov	x0, x22
    2c40:	97fffa78 	bl	1620 <mpa_copy>
/home/lagadanu/Desktop/qemu/optee_os/lib/libmpa/mpa_gcd.c:172
    2c44:	b4000095 	cbz	x21, 2c54 <__mpa_egcd+0x190>
/home/lagadanu/Desktop/qemu/optee_os/lib/libmpa/mpa_gcd.c:173
    2c48:	f9404ba1 	ldr	x1, [x29,#144]
    2c4c:	aa1503e0 	mov	x0, x21
    2c50:	97fffa74 	bl	1620 <mpa_copy>
/home/lagadanu/Desktop/qemu/optee_os/lib/libmpa/mpa_gcd.c:174
    2c54:	2a1703e2 	mov	w2, w23
    2c58:	aa1403e1 	mov	x1, x20
    2c5c:	aa1403e0 	mov	x0, x20
    2c60:	940002d0 	bl	37a0 <mpa_shift_left>
/home/lagadanu/Desktop/qemu/optee_os/lib/libmpa/mpa_gcd.c:176
    2c64:	aa1303e1 	mov	x1, x19
    2c68:	aa1c03e0 	mov	x0, x28
    2c6c:	94000150 	bl	31ac <mpa_free_static_temp_var>
/home/lagadanu/Desktop/qemu/optee_os/lib/libmpa/mpa_gcd.c:177
    2c70:	aa1303e1 	mov	x1, x19
    2c74:	aa1b03e0 	mov	x0, x27
    2c78:	9400014d 	bl	31ac <mpa_free_static_temp_var>
/home/lagadanu/Desktop/qemu/optee_os/lib/libmpa/mpa_gcd.c:178
    2c7c:	aa1303e1 	mov	x1, x19
    2c80:	aa1a03e0 	mov	x0, x26
    2c84:	9400014a 	bl	31ac <mpa_free_static_temp_var>
/home/lagadanu/Desktop/qemu/optee_os/lib/libmpa/mpa_gcd.c:179
    2c88:	aa1303e1 	mov	x1, x19
    2c8c:	aa1903e0 	mov	x0, x25
    2c90:	94000147 	bl	31ac <mpa_free_static_temp_var>
/home/lagadanu/Desktop/qemu/optee_os/lib/libmpa/mpa_gcd.c:180
    2c94:	aa1303e1 	mov	x1, x19
    2c98:	aa1803e0 	mov	x0, x24
    2c9c:	94000144 	bl	31ac <mpa_free_static_temp_var>
/home/lagadanu/Desktop/qemu/optee_os/lib/libmpa/mpa_gcd.c:181
    2ca0:	f94037a0 	ldr	x0, [x29,#104]
    2ca4:	aa1303e1 	mov	x1, x19
    2ca8:	94000141 	bl	31ac <mpa_free_static_temp_var>
/home/lagadanu/Desktop/qemu/optee_os/lib/libmpa/mpa_gcd.c:182
    2cac:	f94033a0 	ldr	x0, [x29,#96]
    2cb0:	aa1303e1 	mov	x1, x19
    2cb4:	9400013e 	bl	31ac <mpa_free_static_temp_var>
    2cb8:	17ffff9b 	b	2b24 <__mpa_egcd+0x60>
/home/lagadanu/Desktop/qemu/optee_os/lib/libmpa/mpa_gcd.c:119
    2cbc:	f94053a0 	ldr	x0, [x29,#160]
    2cc0:	97fffaa2 	bl	1748 <mpa_parity>
    2cc4:	35fff660 	cbnz	w0, 2b90 <__mpa_egcd+0xcc>
/home/lagadanu/Desktop/qemu/optee_os/lib/libmpa/mpa_gcd.c:121
    2cc8:	f9404fa0 	ldr	x0, [x29,#152]
/home/lagadanu/Desktop/qemu/optee_os/lib/libmpa/mpa_gcd.c:120
    2ccc:	110006f7 	add	w23, w23, #0x1
/home/lagadanu/Desktop/qemu/optee_os/lib/libmpa/mpa_gcd.c:121
    2cd0:	97ffff02 	bl	28d8 <__mpa_divby2>
/home/lagadanu/Desktop/qemu/optee_os/lib/libmpa/mpa_gcd.c:122
    2cd4:	f94053a0 	ldr	x0, [x29,#160]
    2cd8:	97ffff00 	bl	28d8 <__mpa_divby2>
    2cdc:	17ffffaa 	b	2b84 <__mpa_egcd+0xc0>
/home/lagadanu/Desktop/qemu/optee_os/lib/libmpa/mpa_gcd.c:139
    2ce0:	f94057a0 	ldr	x0, [x29,#168]
    2ce4:	97fffefd 	bl	28d8 <__mpa_divby2>
/home/lagadanu/Desktop/qemu/optee_os/lib/libmpa/mpa_gcd.c:140
    2ce8:	f9403fa0 	ldr	x0, [x29,#120]
    2cec:	97fffa97 	bl	1748 <mpa_parity>
    2cf0:	7100041f 	cmp	w0, #0x1
    2cf4:	54000521 	b.ne	2d98 <__mpa_egcd+0x2d4>
/home/lagadanu/Desktop/qemu/optee_os/lib/libmpa/mpa_gcd.c:141
    2cf8:	f9403fa1 	ldr	x1, [x29,#120]
    2cfc:	aa1303e3 	mov	x3, x19
    2d00:	f94053a2 	ldr	x2, [x29,#160]
    2d04:	aa0103e0 	mov	x0, x1
    2d08:	94000424 	bl	3d98 <mpa_add>
/home/lagadanu/Desktop/qemu/optee_os/lib/libmpa/mpa_gcd.c:142
    2d0c:	f94043a1 	ldr	x1, [x29,#128]
    2d10:	aa1303e3 	mov	x3, x19
    2d14:	f9404fa2 	ldr	x2, [x29,#152]
    2d18:	aa0103e0 	mov	x0, x1
    2d1c:	94000484 	bl	3f2c <mpa_sub>
/home/lagadanu/Desktop/qemu/optee_os/lib/libmpa/mpa_gcd.c:144
    2d20:	f9403fa0 	ldr	x0, [x29,#120]
    2d24:	97fffeed 	bl	28d8 <__mpa_divby2>
/home/lagadanu/Desktop/qemu/optee_os/lib/libmpa/mpa_gcd.c:145
    2d28:	f94043a0 	ldr	x0, [x29,#128]
    2d2c:	97fffeeb 	bl	28d8 <__mpa_divby2>
/home/lagadanu/Desktop/qemu/optee_os/lib/libmpa/mpa_gcd.c:138
    2d30:	f94057a0 	ldr	x0, [x29,#168]
    2d34:	97fffa85 	bl	1748 <mpa_parity>
    2d38:	34fffd40 	cbz	w0, 2ce0 <__mpa_egcd+0x21c>
/home/lagadanu/Desktop/qemu/optee_os/lib/libmpa/mpa_gcd.c:148
    2d3c:	aa1403e0 	mov	x0, x20
    2d40:	97fffa82 	bl	1748 <mpa_parity>
    2d44:	34000340 	cbz	w0, 2dac <__mpa_egcd+0x2e8>
/home/lagadanu/Desktop/qemu/optee_os/lib/libmpa/mpa_gcd.c:158
    2d48:	f94057a0 	ldr	x0, [x29,#168]
    2d4c:	aa1403e1 	mov	x1, x20
    2d50:	940005bf 	bl	444c <mpa_cmp>
/home/lagadanu/Desktop/qemu/optee_os/lib/libmpa/mpa_gcd.c:159
    2d54:	aa1303e3 	mov	x3, x19
/home/lagadanu/Desktop/qemu/optee_os/lib/libmpa/mpa_gcd.c:158
    2d58:	37f805c0 	tbnz	w0, #31, 2e10 <__mpa_egcd+0x34c>
/home/lagadanu/Desktop/qemu/optee_os/lib/libmpa/mpa_gcd.c:159
    2d5c:	f94057a1 	ldr	x1, [x29,#168]
    2d60:	aa1403e2 	mov	x2, x20
    2d64:	aa0103e0 	mov	x0, x1
    2d68:	94000471 	bl	3f2c <mpa_sub>
/home/lagadanu/Desktop/qemu/optee_os/lib/libmpa/mpa_gcd.c:160
    2d6c:	f9403fa1 	ldr	x1, [x29,#120]
    2d70:	aa1303e3 	mov	x3, x19
    2d74:	f94047a2 	ldr	x2, [x29,#136]
    2d78:	aa0103e0 	mov	x0, x1
    2d7c:	9400046c 	bl	3f2c <mpa_sub>
/home/lagadanu/Desktop/qemu/optee_os/lib/libmpa/mpa_gcd.c:161
    2d80:	f94043a1 	ldr	x1, [x29,#128]
    2d84:	aa1303e3 	mov	x3, x19
    2d88:	f9404ba2 	ldr	x2, [x29,#144]
/home/lagadanu/Desktop/qemu/optee_os/lib/libmpa/mpa_gcd.c:165
    2d8c:	aa0103e0 	mov	x0, x1
    2d90:	94000467 	bl	3f2c <mpa_sub>
    2d94:	17ffffa5 	b	2c28 <__mpa_egcd+0x164>
/home/lagadanu/Desktop/qemu/optee_os/lib/libmpa/mpa_gcd.c:140
    2d98:	f94043a0 	ldr	x0, [x29,#128]
    2d9c:	97fffa6b 	bl	1748 <mpa_parity>
    2da0:	7100041f 	cmp	w0, #0x1
    2da4:	54fffbe1 	b.ne	2d20 <__mpa_egcd+0x25c>
    2da8:	17ffffd4 	b	2cf8 <__mpa_egcd+0x234>
/home/lagadanu/Desktop/qemu/optee_os/lib/libmpa/mpa_gcd.c:149
    2dac:	aa1403e0 	mov	x0, x20
    2db0:	97fffeca 	bl	28d8 <__mpa_divby2>
/home/lagadanu/Desktop/qemu/optee_os/lib/libmpa/mpa_gcd.c:150
    2db4:	f94047a0 	ldr	x0, [x29,#136]
    2db8:	97fffa64 	bl	1748 <mpa_parity>
    2dbc:	7100041f 	cmp	w0, #0x1
    2dc0:	540001e1 	b.ne	2dfc <__mpa_egcd+0x338>
/home/lagadanu/Desktop/qemu/optee_os/lib/libmpa/mpa_gcd.c:151
    2dc4:	f94047a1 	ldr	x1, [x29,#136]
    2dc8:	aa1303e3 	mov	x3, x19
    2dcc:	f94053a2 	ldr	x2, [x29,#160]
    2dd0:	aa0103e0 	mov	x0, x1
    2dd4:	940003f1 	bl	3d98 <mpa_add>
/home/lagadanu/Desktop/qemu/optee_os/lib/libmpa/mpa_gcd.c:152
    2dd8:	a9490ba1 	ldp	x1, x2, [x29,#144]
    2ddc:	aa1303e3 	mov	x3, x19
    2de0:	aa0103e0 	mov	x0, x1
    2de4:	94000452 	bl	3f2c <mpa_sub>
/home/lagadanu/Desktop/qemu/optee_os/lib/libmpa/mpa_gcd.c:154
    2de8:	f94047a0 	ldr	x0, [x29,#136]
    2dec:	97fffebb 	bl	28d8 <__mpa_divby2>
/home/lagadanu/Desktop/qemu/optee_os/lib/libmpa/mpa_gcd.c:155
    2df0:	f9404ba0 	ldr	x0, [x29,#144]
    2df4:	97fffeb9 	bl	28d8 <__mpa_divby2>
    2df8:	17ffffd1 	b	2d3c <__mpa_egcd+0x278>
/home/lagadanu/Desktop/qemu/optee_os/lib/libmpa/mpa_gcd.c:150
    2dfc:	f9404ba0 	ldr	x0, [x29,#144]
    2e00:	97fffa52 	bl	1748 <mpa_parity>
    2e04:	7100041f 	cmp	w0, #0x1
    2e08:	54ffff01 	b.ne	2de8 <__mpa_egcd+0x324>
    2e0c:	17ffffee 	b	2dc4 <__mpa_egcd+0x300>
/home/lagadanu/Desktop/qemu/optee_os/lib/libmpa/mpa_gcd.c:163
    2e10:	f94057a2 	ldr	x2, [x29,#168]
    2e14:	aa1403e1 	mov	x1, x20
    2e18:	aa1403e0 	mov	x0, x20
    2e1c:	94000444 	bl	3f2c <mpa_sub>
/home/lagadanu/Desktop/qemu/optee_os/lib/libmpa/mpa_gcd.c:164
    2e20:	f94047a1 	ldr	x1, [x29,#136]
    2e24:	aa1303e3 	mov	x3, x19
    2e28:	f9403fa2 	ldr	x2, [x29,#120]
    2e2c:	aa0103e0 	mov	x0, x1
    2e30:	9400043f 	bl	3f2c <mpa_sub>
/home/lagadanu/Desktop/qemu/optee_os/lib/libmpa/mpa_gcd.c:165
    2e34:	aa1303e3 	mov	x3, x19
    2e38:	f94043a2 	ldr	x2, [x29,#128]
    2e3c:	f9404ba1 	ldr	x1, [x29,#144]
    2e40:	17ffffd3 	b	2d8c <__mpa_egcd+0x2c8>

0000000000002e44 <mpa_gcd>:
mpa_gcd():
/home/lagadanu/Desktop/qemu/optee_os/lib/libmpa/mpa_gcd.c:253
    2e44:	a9bc7bfd 	stp	x29, x30, [sp,#-64]!
    2e48:	910003fd 	mov	x29, sp
    2e4c:	a90153f3 	stp	x19, x20, [sp,#16]
    2e50:	aa0203f3 	mov	x19, x2
    2e54:	a9025bf5 	stp	x21, x22, [sp,#32]
    2e58:	aa0003f6 	mov	x22, x0
/home/lagadanu/Desktop/qemu/optee_os/lib/libmpa/mpa_gcd.c:259
    2e5c:	b9400420 	ldr	w0, [x1,#4]
/home/lagadanu/Desktop/qemu/optee_os/lib/libmpa/mpa_gcd.c:253
    2e60:	aa0103f4 	mov	x20, x1
/home/lagadanu/Desktop/qemu/optee_os/lib/libmpa/mpa_gcd.c:260
    2e64:	b9400661 	ldr	w1, [x19,#4]
/home/lagadanu/Desktop/qemu/optee_os/lib/libmpa/mpa_gcd.c:259
    2e68:	52800022 	mov	w2, #0x1                   	// #1
    2e6c:	7100001f 	cmp	w0, #0x0
/home/lagadanu/Desktop/qemu/optee_os/lib/libmpa/mpa_gcd.c:253
    2e70:	a90363f7 	stp	x23, x24, [sp,#48]
    2e74:	aa0303f8 	mov	x24, x3
/home/lagadanu/Desktop/qemu/optee_os/lib/libmpa/mpa_gcd.c:259
    2e78:	5a82a457 	cneg	w23, w2, lt
/home/lagadanu/Desktop/qemu/optee_os/lib/libmpa/mpa_gcd.c:260
    2e7c:	36f806e1 	tbz	w1, #31, 2f58 <mpa_gcd+0x114>
    2e80:	12800015 	mov	w21, #0xffffffff            	// #-1
/home/lagadanu/Desktop/qemu/optee_os/lib/libmpa/mpa_gcd.c:261
    2e84:	36f800a0 	tbz	w0, #31, 2e98 <mpa_gcd+0x54>
/home/lagadanu/Desktop/qemu/optee_os/lib/libmpa/mpa_gcd.c:261 (discriminator 1)
    2e88:	4b0003e0 	neg	w0, w0
    2e8c:	b9000680 	str	w0, [x20,#4]
/home/lagadanu/Desktop/qemu/optee_os/lib/libmpa/mpa_gcd.c:262 (discriminator 1)
    2e90:	b9400661 	ldr	w1, [x19,#4]
    2e94:	36f80061 	tbz	w1, #31, 2ea0 <mpa_gcd+0x5c>
    2e98:	4b0103e1 	neg	w1, w1
    2e9c:	b9000661 	str	w1, [x19,#4]
/home/lagadanu/Desktop/qemu/optee_os/lib/libmpa/mpa_gcd.c:264
    2ea0:	aa1303e1 	mov	x1, x19
    2ea4:	aa1403e0 	mov	x0, x20
    2ea8:	94000569 	bl	444c <mpa_cmp>
/home/lagadanu/Desktop/qemu/optee_os/lib/libmpa/mpa_gcd.c:265
    2eac:	7100001f 	cmp	w0, #0x0
    2eb0:	54000321 	b.ne	2f14 <mpa_gcd+0xd0>
/home/lagadanu/Desktop/qemu/optee_os/lib/libmpa/mpa_gcd.c:266
    2eb4:	aa1403e1 	mov	x1, x20
__mpa_gcd():
/home/lagadanu/Desktop/qemu/optee_os/lib/libmpa/mpa_gcd.c:201
    2eb8:	aa1603e0 	mov	x0, x22
    2ebc:	97fff9d9 	bl	1620 <mpa_copy>
mpa_gcd():
/home/lagadanu/Desktop/qemu/optee_os/lib/libmpa/mpa_gcd.c:277
    2ec0:	b9400680 	ldr	w0, [x20,#4]
    2ec4:	52800021 	mov	w1, #0x1                   	// #1
    2ec8:	7100001f 	cmp	w0, #0x0
    2ecc:	5a81a421 	cneg	w1, w1, lt
    2ed0:	6b0102ff 	cmp	w23, w1
    2ed4:	54000060 	b.eq	2ee0 <mpa_gcd+0x9c>
/home/lagadanu/Desktop/qemu/optee_os/lib/libmpa/mpa_gcd.c:277 (discriminator 5)
    2ed8:	4b0003e0 	neg	w0, w0
    2edc:	b9000680 	str	w0, [x20,#4]
/home/lagadanu/Desktop/qemu/optee_os/lib/libmpa/mpa_gcd.c:278
    2ee0:	b9400660 	ldr	w0, [x19,#4]
    2ee4:	52800021 	mov	w1, #0x1                   	// #1
    2ee8:	7100001f 	cmp	w0, #0x0
    2eec:	5a81a421 	cneg	w1, w1, lt
    2ef0:	6b15003f 	cmp	w1, w21
    2ef4:	54000060 	b.eq	2f00 <mpa_gcd+0xbc>
/home/lagadanu/Desktop/qemu/optee_os/lib/libmpa/mpa_gcd.c:278 (discriminator 5)
    2ef8:	4b0003e0 	neg	w0, w0
    2efc:	b9000660 	str	w0, [x19,#4]
/home/lagadanu/Desktop/qemu/optee_os/lib/libmpa/mpa_gcd.c:279
    2f00:	a94153f3 	ldp	x19, x20, [sp,#16]
    2f04:	a9425bf5 	ldp	x21, x22, [sp,#32]
    2f08:	a94363f7 	ldp	x23, x24, [sp,#48]
    2f0c:	a8c47bfd 	ldp	x29, x30, [sp],#64
    2f10:	d65f03c0 	ret
/home/lagadanu/Desktop/qemu/optee_os/lib/libmpa/mpa_gcd.c:269
    2f14:	5400016a 	b.ge	2f40 <mpa_gcd+0xfc>
__mpa_gcd():
/home/lagadanu/Desktop/qemu/optee_os/lib/libmpa/mpa_gcd.c:200
    2f18:	b9400680 	ldr	w0, [x20,#4]
    2f1c:	35000060 	cbnz	w0, 2f28 <mpa_gcd+0xe4>
/home/lagadanu/Desktop/qemu/optee_os/lib/libmpa/mpa_gcd.c:201
    2f20:	aa1303e1 	mov	x1, x19
    2f24:	17ffffe5 	b	2eb8 <mpa_gcd+0x74>
    2f28:	aa1803e3 	mov	x3, x24
    2f2c:	aa1403e2 	mov	x2, x20
    2f30:	aa1303e1 	mov	x1, x19
    2f34:	aa1603e0 	mov	x0, x22
    2f38:	97fffe88 	bl	2958 <__mpa_gcd.part.0>
    2f3c:	17ffffe1 	b	2ec0 <mpa_gcd+0x7c>
/home/lagadanu/Desktop/qemu/optee_os/lib/libmpa/mpa_gcd.c:200
    2f40:	b9400660 	ldr	w0, [x19,#4]
    2f44:	34fffb80 	cbz	w0, 2eb4 <mpa_gcd+0x70>
    2f48:	aa1803e3 	mov	x3, x24
    2f4c:	aa1303e2 	mov	x2, x19
    2f50:	aa1403e1 	mov	x1, x20
    2f54:	17fffff8 	b	2f34 <mpa_gcd+0xf0>
mpa_gcd():
/home/lagadanu/Desktop/qemu/optee_os/lib/libmpa/mpa_gcd.c:260
    2f58:	2a0203f5 	mov	w21, w2
/home/lagadanu/Desktop/qemu/optee_os/lib/libmpa/mpa_gcd.c:261
    2f5c:	36fffa20 	tbz	w0, #31, 2ea0 <mpa_gcd+0x5c>
    2f60:	17ffffca 	b	2e88 <mpa_gcd+0x44>

0000000000002f64 <mpa_extended_gcd>:
mpa_extended_gcd():
/home/lagadanu/Desktop/qemu/optee_os/lib/libmpa/mpa_gcd.c:295
    2f64:	a9b97bfd 	stp	x29, x30, [sp,#-112]!
/home/lagadanu/Desktop/qemu/optee_os/lib/libmpa/mpa_gcd.c:302
    2f68:	f100003f 	cmp	x1, #0x0
    2f6c:	fa400840 	ccmp	x2, #0x0, #0x0, eq
/home/lagadanu/Desktop/qemu/optee_os/lib/libmpa/mpa_gcd.c:295
    2f70:	910003fd 	mov	x29, sp
    2f74:	a90153f3 	stp	x19, x20, [sp,#16]
    2f78:	aa0303f3 	mov	x19, x3
    2f7c:	a9025bf5 	stp	x21, x22, [sp,#32]
    2f80:	aa0403f4 	mov	x20, x4
    2f84:	a9046bf9 	stp	x25, x26, [sp,#64]
    2f88:	aa0003f6 	mov	x22, x0
    2f8c:	a90363f7 	stp	x23, x24, [sp,#48]
    2f90:	aa0503f9 	mov	x25, x5
    2f94:	a90573fb 	stp	x27, x28, [sp,#80]
/home/lagadanu/Desktop/qemu/optee_os/lib/libmpa/mpa_gcd.c:302
    2f98:	540001a1 	b.ne	2fcc <mpa_extended_gcd+0x68>
/home/lagadanu/Desktop/qemu/optee_os/lib/libmpa/mpa_gcd.c:303
    2f9c:	b40000a0 	cbz	x0, 2fb0 <mpa_extended_gcd+0x4c>
/home/lagadanu/Desktop/qemu/optee_os/lib/libmpa/mpa_gcd.c:304
    2fa0:	aa0503e3 	mov	x3, x5
    2fa4:	aa0403e2 	mov	x2, x4
    2fa8:	aa1303e1 	mov	x1, x19
    2fac:	97ffffa6 	bl	2e44 <mpa_gcd>
/home/lagadanu/Desktop/qemu/optee_os/lib/libmpa/mpa_gcd.c:350
    2fb0:	a94153f3 	ldp	x19, x20, [sp,#16]
    2fb4:	a9425bf5 	ldp	x21, x22, [sp,#32]
    2fb8:	a94363f7 	ldp	x23, x24, [sp,#48]
    2fbc:	a9446bf9 	ldp	x25, x26, [sp,#64]
    2fc0:	a94573fb 	ldp	x27, x28, [sp,#80]
    2fc4:	a8c77bfd 	ldp	x29, x30, [sp],#112
    2fc8:	d65f03c0 	ret
/home/lagadanu/Desktop/qemu/optee_os/lib/libmpa/mpa_gcd.c:309
    2fcc:	b9400460 	ldr	w0, [x3,#4]
    2fd0:	aa0103f7 	mov	x23, x1
/home/lagadanu/Desktop/qemu/optee_os/lib/libmpa/mpa_gcd.c:310
    2fd4:	b9400481 	ldr	w1, [x4,#4]
/home/lagadanu/Desktop/qemu/optee_os/lib/libmpa/mpa_gcd.c:309
    2fd8:	52800035 	mov	w21, #0x1                   	// #1
    2fdc:	7100001f 	cmp	w0, #0x0
    2fe0:	aa0203f8 	mov	x24, x2
    2fe4:	5a95a6ba 	cneg	w26, w21, lt
/home/lagadanu/Desktop/qemu/optee_os/lib/libmpa/mpa_gcd.c:310
    2fe8:	36f80b01 	tbz	w1, #31, 3148 <mpa_extended_gcd+0x1e4>
    2fec:	12800015 	mov	w21, #0xffffffff            	// #-1
/home/lagadanu/Desktop/qemu/optee_os/lib/libmpa/mpa_gcd.c:311
    2ff0:	36f800a0 	tbz	w0, #31, 3004 <mpa_extended_gcd+0xa0>
/home/lagadanu/Desktop/qemu/optee_os/lib/libmpa/mpa_gcd.c:311 (discriminator 1)
    2ff4:	4b0003e0 	neg	w0, w0
    2ff8:	b9000660 	str	w0, [x19,#4]
/home/lagadanu/Desktop/qemu/optee_os/lib/libmpa/mpa_gcd.c:312 (discriminator 1)
    2ffc:	b9400681 	ldr	w1, [x20,#4]
    3000:	36f80061 	tbz	w1, #31, 300c <mpa_extended_gcd+0xa8>
    3004:	4b0103e1 	neg	w1, w1
    3008:	b9000681 	str	w1, [x20,#4]
/home/lagadanu/Desktop/qemu/optee_os/lib/libmpa/mpa_gcd.c:314
    300c:	aa1403e1 	mov	x1, x20
    3010:	aa1303e0 	mov	x0, x19
    3014:	9400050e 	bl	444c <mpa_cmp>
    3018:	2a0003fc 	mov	w28, w0
/home/lagadanu/Desktop/qemu/optee_os/lib/libmpa/mpa_gcd.c:315
    301c:	35000540 	cbnz	w0, 30c4 <mpa_extended_gcd+0x160>
/home/lagadanu/Desktop/qemu/optee_os/lib/libmpa/mpa_gcd.c:316
    3020:	b4000096 	cbz	x22, 3030 <mpa_extended_gcd+0xcc>
/home/lagadanu/Desktop/qemu/optee_os/lib/libmpa/mpa_gcd.c:317
    3024:	aa1303e1 	mov	x1, x19
    3028:	aa1603e0 	mov	x0, x22
    302c:	97fff97d 	bl	1620 <mpa_copy>
/home/lagadanu/Desktop/qemu/optee_os/lib/libmpa/mpa_gcd.c:318
    3030:	b4000097 	cbz	x23, 3040 <mpa_extended_gcd+0xdc>
/home/lagadanu/Desktop/qemu/optee_os/lib/libmpa/mpa_gcd.c:319
    3034:	52800021 	mov	w1, #0x1                   	// #1
    3038:	aa1703e0 	mov	x0, x23
    303c:	97fffbd8 	bl	1f9c <mpa_set_word>
/home/lagadanu/Desktop/qemu/optee_os/lib/libmpa/mpa_gcd.c:320
    3040:	b4000098 	cbz	x24, 3050 <mpa_extended_gcd+0xec>
/home/lagadanu/Desktop/qemu/optee_os/lib/libmpa/mpa_gcd.c:321
    3044:	52800001 	mov	w1, #0x0                   	// #0
    3048:	aa1803e0 	mov	x0, x24
    304c:	97fffbd4 	bl	1f9c <mpa_set_word>
/home/lagadanu/Desktop/qemu/optee_os/lib/libmpa/mpa_gcd.c:343
    3050:	b9400660 	ldr	w0, [x19,#4]
    3054:	52800021 	mov	w1, #0x1                   	// #1
    3058:	7100001f 	cmp	w0, #0x0
    305c:	5a81a421 	cneg	w1, w1, lt
    3060:	6b01035f 	cmp	w26, w1
    3064:	54000060 	b.eq	3070 <mpa_extended_gcd+0x10c>
/home/lagadanu/Desktop/qemu/optee_os/lib/libmpa/mpa_gcd.c:343 (discriminator 5)
    3068:	4b0003e0 	neg	w0, w0
    306c:	b9000660 	str	w0, [x19,#4]
/home/lagadanu/Desktop/qemu/optee_os/lib/libmpa/mpa_gcd.c:344
    3070:	b9400680 	ldr	w0, [x20,#4]
    3074:	52800021 	mov	w1, #0x1                   	// #1
    3078:	7100001f 	cmp	w0, #0x0
    307c:	5a81a421 	cneg	w1, w1, lt
    3080:	6b15003f 	cmp	w1, w21
    3084:	54000060 	b.eq	3090 <mpa_extended_gcd+0x12c>
/home/lagadanu/Desktop/qemu/optee_os/lib/libmpa/mpa_gcd.c:344 (discriminator 5)
    3088:	4b0003e0 	neg	w0, w0
    308c:	b9000680 	str	w0, [x20,#4]
/home/lagadanu/Desktop/qemu/optee_os/lib/libmpa/mpa_gcd.c:346
    3090:	f10002ff 	cmp	x23, #0x0
    3094:	3a411b40 	ccmn	w26, #0x1, #0x0, ne
    3098:	54000081 	b.ne	30a8 <mpa_extended_gcd+0x144>
/home/lagadanu/Desktop/qemu/optee_os/lib/libmpa/mpa_gcd.c:347
    309c:	b94006e0 	ldr	w0, [x23,#4]
    30a0:	4b0003e0 	neg	w0, w0
    30a4:	b90006e0 	str	w0, [x23,#4]
/home/lagadanu/Desktop/qemu/optee_os/lib/libmpa/mpa_gcd.c:348
    30a8:	f100031f 	cmp	x24, #0x0
    30ac:	3a411aa0 	ccmn	w21, #0x1, #0x0, ne
    30b0:	54fff801 	b.ne	2fb0 <mpa_extended_gcd+0x4c>
/home/lagadanu/Desktop/qemu/optee_os/lib/libmpa/mpa_gcd.c:349
    30b4:	b9400700 	ldr	w0, [x24,#4]
    30b8:	4b0003e0 	neg	w0, w0
    30bc:	b9000700 	str	w0, [x24,#4]
    30c0:	17ffffbc 	b	2fb0 <mpa_extended_gcd+0x4c>
/home/lagadanu/Desktop/qemu/optee_os/lib/libmpa/mpa_gcd.c:325
    30c4:	f10002df 	cmp	x22, #0x0
    30c8:	fa561284 	ccmp	x20, x22, #0x4, ne
    30cc:	fa561264 	ccmp	x19, x22, #0x4, ne
    30d0:	54000361 	b.ne	313c <mpa_extended_gcd+0x1d8>
    30d4:	5280003b 	mov	w27, #0x1                   	// #1
/home/lagadanu/Desktop/qemu/optee_os/lib/libmpa/mpa_gcd.c:327
    30d8:	aa1903e1 	mov	x1, x25
    30dc:	9101a3a0 	add	x0, x29, #0x68
    30e0:	9400002f 	bl	319c <mpa_alloc_static_temp_var>
/home/lagadanu/Desktop/qemu/optee_os/lib/libmpa/mpa_gcd.c:332
    30e4:	aa1903e5 	mov	x5, x25
/home/lagadanu/Desktop/qemu/optee_os/lib/libmpa/mpa_gcd.c:331
