
out/b689f2a7-8adf-477a-9f99-32e90c0ad0a2.elf:     file format elf64-littleaarch64
out/b689f2a7-8adf-477a-9f99-32e90c0ad0a2.elf
architecture: aarch64, flags 0x00000150:
HAS_SYMS, DYNAMIC, D_PAGED
start address 0x0000000000000020

Program Header:
    LOAD off    0x0000000000010000 vaddr 0x0000000000000000 paddr 0x0000000000000000 align 2**16
         filesz 0x000000000000ae3c memsz 0x000000000000ae3c flags r-x
    LOAD off    0x000000000001ae40 vaddr 0x000000000000ae40 paddr 0x000000000000ae40 align 2**16
         filesz 0x0000000000001d24 memsz 0x0000000000001d24 flags r--
    LOAD off    0x000000000001d000 vaddr 0x000000000000d000 paddr 0x000000000000d000 align 2**16
         filesz 0x00000000000000fc memsz 0x000000000000ab40 flags rw-
 DYNAMIC off    0x000000000001c820 vaddr 0x000000000000c820 paddr 0x000000000000c820 align 2**3
         filesz 0x0000000000000100 memsz 0x0000000000000100 flags rw-

Dynamic Section:
  HASH                 0x000000000000cb18
  STRTAB               0x000000000000ca70
  SYMTAB               0x000000000000c920
  STRSZ                0x00000000000000a1
  SYMENT               0x0000000000000018
  DEBUG                0x0000000000000000
  RELA                 0x000000000000c4d8
  RELASZ               0x00000000000002d0
  RELAENT              0x0000000000000018
  FLAGS_1              0x0000000008000000
  RELACOUNT            0x0000000000000013
private flags = 0:

Sections:
Idx Name          Size      VMA               LMA               File off  Algn
  0 .ta_head      00000020  0000000000000000  0000000000000000  00010000  2**3
                  CONTENTS, ALLOC, LOAD, DATA
  1 .text         0000ae1c  0000000000000020  0000000000000020  00010020  2**2
                  CONTENTS, ALLOC, LOAD, READONLY, CODE
  2 .rodata       00001698  000000000000ae40  000000000000ae40  0001ae40  2**3
                  CONTENTS, ALLOC, LOAD, READONLY, DATA
  3 .dynsym       00000150  000000000000c920  000000000000c920  0001c920  2**3
                  CONTENTS, ALLOC, LOAD, READONLY, DATA
  4 .rela.dyn     000001c8  000000000000c4d8  000000000000c4d8  0001c4d8  2**3
                  CONTENTS, ALLOC, LOAD, READONLY, DATA
  5 .got          00000078  000000000000c6a0  000000000000c6a0  0001c6a0  2**3
                  CONTENTS, ALLOC, LOAD, DATA
  6 .rela.got     00000108  000000000000c718  000000000000c718  0001c718  2**3
                  CONTENTS, ALLOC, LOAD, READONLY, DATA
  7 .dynamic      00000100  000000000000c820  000000000000c820  0001c820  2**3
                  CONTENTS, ALLOC, LOAD, DATA
  8 .dynstr       000000a1  000000000000ca70  000000000000ca70  0001ca70  2**0
                  CONTENTS, ALLOC, LOAD, READONLY, DATA
  9 .hash         0000004c  000000000000cb18  000000000000cb18  0001cb18  2**3
                  CONTENTS, ALLOC, LOAD, READONLY, DATA
 10 .data         000000fc  000000000000d000  000000000000d000  0001d000  2**3
                  CONTENTS, ALLOC, LOAD, DATA
 11 .bss          0000aa40  000000000000d100  000000000000d100  0001d0fc  2**3
                  ALLOC
 12 .debug_info   000145c7  0000000000000000  0000000000000000  0001d0fc  2**0
                  CONTENTS, READONLY, DEBUGGING
 13 .debug_abbrev 0000445e  0000000000000000  0000000000000000  000316c3  2**0
                  CONTENTS, READONLY, DEBUGGING
 14 .debug_loc    0001edc8  0000000000000000  0000000000000000  00035b21  2**0
                  CONTENTS, READONLY, DEBUGGING
 15 .debug_aranges 00000c30  0000000000000000  0000000000000000  000548f0  2**4
                  CONTENTS, READONLY, DEBUGGING
 16 .debug_macro  00005488  0000000000000000  0000000000000000  00055520  2**0
                  CONTENTS, READONLY, DEBUGGING
 17 .debug_line   00006f36  0000000000000000  0000000000000000  0005a9a8  2**0
                  CONTENTS, READONLY, DEBUGGING
 18 .debug_str    000111af  0000000000000000  0000000000000000  000618de  2**0
                  CONTENTS, READONLY, DEBUGGING
 19 .comment      0000002d  0000000000000000  0000000000000000  00072a8d  2**0
                  CONTENTS, READONLY
 20 .debug_frame  000032f0  0000000000000000  0000000000000000  00072ac0  2**3
                  CONTENTS, READONLY, DEBUGGING
 21 .debug_ranges 00000f90  0000000000000000  0000000000000000  00075db0  2**4
                  CONTENTS, READONLY, DEBUGGING
SYMBOL TABLE:
0000000000000000 l    d  .ta_head	0000000000000000 .ta_head
0000000000000020 l    d  .text	0000000000000000 .text
000000000000ae40 l    d  .rodata	0000000000000000 .rodata
000000000000c4d8 l    d  .rela.dyn	0000000000000000 .rela.dyn
000000000000c6a0 l    d  .got	0000000000000000 .got
000000000000c718 l    d  .rela.got	0000000000000000 .rela.got
000000000000c820 l    d  .dynamic	0000000000000000 .dynamic
000000000000c920 l    d  .dynsym	0000000000000000 .dynsym
000000000000ca70 l    d  .dynstr	0000000000000000 .dynstr
000000000000cb18 l    d  .hash	0000000000000000 .hash
000000000000d000 l    d  .data	0000000000000000 .data
000000000000d100 l    d  .bss	0000000000000000 .bss
0000000000000000 l    d  .debug_info	0000000000000000 .debug_info
0000000000000000 l    d  .debug_abbrev	0000000000000000 .debug_abbrev
0000000000000000 l    d  .debug_loc	0000000000000000 .debug_loc
0000000000000000 l    d  .debug_aranges	0000000000000000 .debug_aranges
0000000000000000 l    d  .debug_macro	0000000000000000 .debug_macro
0000000000000000 l    d  .debug_line	0000000000000000 .debug_line
0000000000000000 l    d  .debug_str	0000000000000000 .debug_str
0000000000000000 l    d  .comment	0000000000000000 .comment
0000000000000000 l    d  .debug_frame	0000000000000000 .debug_frame
0000000000000000 l    d  .debug_ranges	0000000000000000 .debug_ranges
0000000000000000 l    df *ABS*	0000000000000000 user_ta_header.c
000000000000ae88 l     O .rodata	0000000000000004 __compound_literal.4
000000000000ae8c l     O .rodata	0000000000000004 __compound_literal.3
000000000000ae90 l     O .rodata	0000000000000001 __compound_literal.2
000000000000ae91 l     O .rodata	0000000000000001 __compound_literal.1
000000000000ae92 l     O .rodata	0000000000000001 __compound_literal.0
0000000000000000 l    df *ABS*	0000000000000000 storage.c
000000000000ae40 l     O .rodata	0000000000000021 __func__.3905
000000000000ae68 l     O .rodata	0000000000000014 __func__.3919
0000000000000000 l    df *ABS*	0000000000000000 ta_entry.c
0000000000000000 l    df *ABS*	0000000000000000 trace.c
000000000000aea8 l     O .rodata	0000000000000005 lvl_strs.3178
0000000000000000 l    df *ABS*	0000000000000000 snprintk.c
000000000000aeb0 l     O .rodata	0000000000000011 HEXDIGITS
000000000000aec8 l     O .rodata	0000000000000011 hexdigits
0000000000000000 l    df *ABS*	0000000000000000 memchr.c
0000000000000000 l    df *ABS*	0000000000000000 memcpy.c
0000000000000000 l    df *ABS*	0000000000000000 strlen.c
0000000000000000 l    df *ABS*	0000000000000000 trace_ext.c
0000000000000000 l    df *ABS*	0000000000000000 tee_api.c
0000000000015100 l     O .bss	0000000000000008 tee_api_instance_data
000000000000aef0 l     O .rodata	000000000000000b __func__.4337
0000000000000000 l    df *ABS*	0000000000000000 tee_api_objects.c
0000000000000000 l    df *ABS*	0000000000000000 tee_api_operations.c
0000000000002d60 l     F .text	000000000000021c tee_buffer_update
0000000000000000 l    df *ABS*	0000000000000000 tee_api_panic.c
0000000000000000 l    df *ABS*	0000000000000000 user_ta_entry.c
00000000000051ac l     F .text	0000000000000028 ta_header_get_session
00000000000051d4 l     F .text	0000000000000094 ta_header_remove_session
0000000000017b38 l     O .bss	0000000000000001 init_done
000000000000d0b0 l     O .data	0000000000000010 ta_sessions
0000000000000000 l    df *ABS*	0000000000000000 utee_syscalls_a64.o
0000000000000000 l    df *ABS*	0000000000000000 gprof_a64.o
0000000000000000 l    df *ABS*	0000000000000000 tee_api_arith.c
0000000000005e98 l     F .text	0000000000000028 TEE_BigInt_Panic
0000000000015150 l     O .bss	0000000000001980 mempool_u32
0000000000016ad0 l     O .bss	0000000000000010 mem.4074
0000000000016ae0 l     O .bss	0000000000000008 mempool
0000000000000000 l    df *ABS*	0000000000000000 mpa_misc.c
0000000000000000 l    df *ABS*	0000000000000000 mpa_montgomery.c
0000000000000000 l    df *ABS*	0000000000000000 mpa_primetest.c
000000000000bb68 l     O .rodata	0000000000000010 const_miller_rabin_proof_limit
000000000000bb78 l     O .rodata	000000000000001c proof_a.3550
000000000000bb98 l     O .rodata	000000000000000c const_two
000000000000bba8 l     O .rodata	00000000000000b8 const_small_prime_factors
0000000000000000 l    df *ABS*	0000000000000000 mpa_conv.c
0000000000000000 l    df *ABS*	0000000000000000 mpa_div.c
0000000000000000 l    df *ABS*	0000000000000000 mpa_gcd.c
00000000000071cc l     F .text	0000000000000080 __mpa_divby2
000000000000724c l     F .text	000000000000016c __mpa_gcd.part.0
00000000000073b8 l     F .text	0000000000000380 __mpa_egcd
0000000000000000 l    df *ABS*	0000000000000000 mpa_mem_static.c
0000000000000000 l    df *ABS*	0000000000000000 mpa_mul.c
0000000000000000 l    df *ABS*	0000000000000000 mpa_random.c
0000000000000000 l    df *ABS*	0000000000000000 mpa_shift.c
0000000000000000 l    df *ABS*	0000000000000000 mpa_addsub.c
0000000000000000 l    df *ABS*	0000000000000000 mpa_cmp.c
0000000000000000 l    df *ABS*	0000000000000000 mpa_expmod.c
0000000000000000 l    df *ABS*	0000000000000000 mpa_init.c
0000000000000000 l    df *ABS*	0000000000000000 mpa_io.c
000000000000906c l     F .text	0000000000000044 __mpa_word_to_hexstr
00000000000090b0 l     F .text	0000000000000114 __mpa_mpanum_to_hexstr
00000000000091c4 l     F .text	000000000000003c __mpa_isspace
000000000000bc68 l     O .rodata	000000000000000c __func__.3624
000000000000bc78 l     O .rodata	000000000000000c __func__.3638
0000000000016ae8 l     O .bss	0000000000001002 buf.3610
0000000000000000 l    df *ABS*	0000000000000000 mpa_modulus.c
0000000000000000 l    df *ABS*	0000000000000000 bget_malloc.c
0000000000009a60 l     F .text	0000000000000040 raw_malloc_return_hook.isra.3
0000000000009aa0 l     F .text	0000000000000110 create_free_block.constprop.11
0000000000009d70 l     F .text	000000000000005c raw_malloc.constprop.15
000000000000bc88 l     O .rodata	0000000000000012 __func__.3464
000000000000bca0 l     O .rodata	0000000000000005 __func__.3319
000000000000bca8 l     O .rodata	0000000000000006 __func__.3334
000000000000bcb0 l     O .rodata	0000000000000005 __func__.3351
000000000000bcb8 l     O .rodata	0000000000000006 __func__.3343
000000000000bcc0 l     O .rodata	0000000000000006 __func__.3360
000000000000bcc8 l     O .rodata	0000000000000007 __func__.3370
000000000000bcd0 l     O .rodata	000000000000000d __func__.3500
000000000000bce0 l     O .rodata	000000000000000c __func__.3474
000000000000bcf0 l     O .rodata	000000000000000b __func__.3485
000000000000bd00 l     O .rodata	0000000000000010 __func__.3552
000000000000bd10 l     O .rodata	000000000000000e __func__.3506
000000000000bd20 l     O .rodata	0000000000000013 __func__.3411
0000000000017af0 l     O .bss	0000000000000038 mstats
0000000000017b28 l     O .bss	0000000000000008 malloc_pool_len
0000000000017b30 l     O .bss	0000000000000008 malloc_pool
000000000000d0c0 l     O .data	0000000000000038 malloc_poolset
0000000000000000 l    df *ABS*	0000000000000000 snprintf.c
0000000000000000 l    df *ABS*	0000000000000000 memcmp.c
0000000000000000 l    df *ABS*	0000000000000000 memmove.c
0000000000000000 l    df *ABS*	0000000000000000 memset.c
0000000000000000 l    df *ABS*	0000000000000000 buf_compare_ct.c
0000000000000000 l    df *ABS*	0000000000000000 mempool.c
000000000000bd38 l     O .rodata	0000000000000013 __func__.3181
0000000000000000 l    df *ABS*	0000000000000000 assert.c
0000000000000000 l    df *ABS*	0000000000000000 
000000000000c820 l     O *ABS*	0000000000000000 _DYNAMIC
000000000000c6b8 l     O *ABS*	0000000000000000 _GLOBAL_OFFSET_TABLE_
00000000000057ac g     F .text	000000000000000c utee_se_channel_transmit
0000000000001b8c g     F .text	000000000000003c putchar
0000000000008fe8 g     F .text	000000000000001c mpa_init_static
00000000000024c4 g     F .text	00000000000000c0 TEE_PopulateTransientObject
0000000000005f14 g     F .text	0000000000000054 mpa_copy
0000000000005dd8 g     F .text	000000000000001c TEE_BigIntConvertToFMM
0000000000005cb8 g     F .text	000000000000000c TEE_BigIntSquareMod
0000000000005934 g     F .text	0000000000000004 TEE_BigIntShiftRight
000000000000681c g     F .text	0000000000000074 mpa_get_S32
0000000000005f98 g     F .text	0000000000000044 mpa_highest_bit_index
0000000000005674 g     F .text	000000000000000c utee_storage_obj_create
0000000000005788 g     F .text	000000000000000c utee_se_session_close
000000000000547c g     F .text	000000000000000c utee_return
0000000000003d8c g     F .text	0000000000000070 TEE_DigestUpdate
0000000000005728 g     F .text	000000000000000c utee_se_service_get_readers
0000000000002088 g     F .text	0000000000000008 TEE_Realloc
000000000000690c g     F .text	0000000000000148 __mpa_div_q_r_internal_word
0000000000003adc g     F .text	0000000000000190 TEE_SetOperationKey2
0000000000008820 g     F .text	000000000000019c mpa_sub
0000000000001a80 g     F .text	00000000000000cc printf
0000000000005488 g     F .text	000000000000000c utee_log
000000000000bc60 g     O .rodata	0000000000000004 NR_STORED_PRIMES
0000000000002584 g     F .text	0000000000000054 TEE_InitRefAttribute
0000000000001d64 g     F .text	00000000000000b4 TEE_InvokeTACommand
0000000000006020 g     F .text	000000000000001c mpa_can_hold
00000000000009dc g     F .text	000000000000002c ta_storage_cmd_reset_obj
0000000000007af4 g     F .text	0000000000000098 __mpa_abs_mul_word
00000000000047d0 g     F .text	00000000000001bc TEE_AEEncryptFinal
00000000000063bc g     F .text	0000000000000088 mpa_montgomery_mul
0000000000001920 g     F .text	0000000000000054 vsnprintk
000000000000603c g     F .text	000000000000000c mpa_parity
000000000000ac14 g     F .text	000000000000004c memmove
00000000000083a8 g     F .text	0000000000000020 __mpa_full_adder_ackum
000000000000ab14 g     F .text	0000000000000078 snprintf
0000000000005930 g     F .text	0000000000000004 TEE_BigIntCmpS32
00000000000025d8 g     F .text	0000000000000050 TEE_InitValueAttribute
000000000000596c g     F .text	000000000000000c TEE_BigIntAdd
00000000000054ac g     F .text	000000000000000c utee_get_property_name_to_index
000000000000ae98 g     O .rodata	0000000000000008 ta_heap_size
000000000000bc64 g     O .rodata	0000000000000004 MAX_TABULATED_PRIME
0000000000002470 g     F .text	0000000000000054 TEE_ResetTransientObject
0000000000005530 g     F .text	000000000000000c utee_cryp_state_alloc
0000000000005638 g     F .text	000000000000000c utee_authenc_enc_final
0000000000007ad4 g     F .text	0000000000000020 __mpa_mul_add_word_cum
0000000000003ec0 g     F .text	00000000000000a4 TEE_CipherInit
0000000000005984 g     F .text	0000000000000004 TEE_BigIntNeg
0000000000000020 g     F .text	00000000000000b0 ta_storage_cmd_open
00000000000070dc g     F .text	00000000000000f0 mpa_div
0000000000000020 g       .text	0000000000000000 __text_start
0000000000002a94 g     F .text	0000000000000050 TEE_StartPersistentObjectEnumerator
000000000000af00 g     O .rodata	000000000000000c const_one
000000000000aaa8 g     F .text	000000000000006c malloc_buffer_overlaps_heap
0000000000008d28 g     F .text	0000000000000018 __mpa_abs_less_than
0000000000005b44 g     F .text	00000000000000a8 TEE_BigIntSubMod
0000000000004528 g     F .text	00000000000000c4 TEE_AEInit
0000000000007e28 g     F .text	000000000000010c mpa_get_random
0000000000000b34 g     F .text	0000000000000240 trace_printf
0000000000005710 g     F .text	000000000000000c utee_se_service_open
000000000000093c g     F .text	0000000000000034 ta_storage_cmd_restrict_usage
0000000000001a14 g     F .text	0000000000000020 memcpy
00000000000003e0 g     F .text	0000000000000018 ta_storage_cmd_trunc
0000000000000864 g     F .text	00000000000000d8 ta_storage_cmd_loop
0000000000005548 g     F .text	000000000000000c utee_cryp_state_free
0000000000005ee4 g     F .text	0000000000000030 mpa_wipe
0000000000005df4 g     F .text	0000000000000094 TEE_BigIntConvertFromFMM
00000000000051a4 g     F .text	0000000000000008 TEE_Panic
00000000000057a0 g     F .text	000000000000000c utee_se_channel_get_select_resp
0000000000003c6c g     F .text	0000000000000120 TEE_CopyOperation
0000000000001b4c g     F .text	0000000000000040 puts
0000000000005e88 g     F .text	0000000000000010 TEE_BigIntComputeFMM
0000000000006890 g     F .text	0000000000000014 mpa_set_word
000000000000a33c g     F .text	0000000000000030 malloc_get_stats
0000000000008094 g     F .text	0000000000000190 mpa_shift_left
0000000000005590 g     F .text	000000000000000c utee_cipher_final
0000000000007c80 g     F .text	00000000000000e4 mpa_mul
0000000000002004 g     F .text	0000000000000028 TEE_GetREETime
00000000000029e8 g     F .text	000000000000005c TEE_AllocatePersistentObjectEnumerator
000000000000d000 g     O .data	00000000000000a8 ta_props
0000000000004b24 g     F .text	0000000000000144 TEE_AsymmetricEncrypt
000000000000a36c g     F .text	0000000000000004 malloc
00000000000055cc g     F .text	000000000000000c utee_cryp_obj_close
000000000000574c g     F .text	000000000000000c utee_se_reader_open_session
000000000000ab8c g     F .text	0000000000000054 vsnprintf
0000000000002728 g     F .text	0000000000000084 TEE_GenerateKey
000000000000d0f8 g     O .data	0000000000000004 trace_level
000000000000592c g     F .text	0000000000000004 TEE_BigIntCmp
000000000000ae80 g     O .rodata	0000000000000008 ta_num_props
000000000000a0f0 g     F .text	00000000000000c8 bgetr
000000000000562c g     F .text	000000000000000c utee_authenc_update_payload
000000000000ada4 g     F .text	0000000000000040 mempool_free
0000000000003f64 g     F .text	000000000000015c TEE_CipherUpdate
00000000000058c8 g     F .text	0000000000000040 TEE_BigIntConvertToOctetString
000000000000382c g     F .text	0000000000000148 TEE_GetOperationInfoMultiple
00000000000057c4 g     F .text	000000000000000c utee_cache_operation
0000000000005614 g     F .text	000000000000000c utee_authenc_init
0000000000005938 g     F .text	000000000000001c TEE_BigIntGetBit
000000000000aea0 g     O .rodata	0000000000000003 trace_ext_prefix
00000000000083c8 g     F .text	00000000000000f4 __mpa_abs_add
0000000000009dcc g     F .text	0000000000000088 bgetz
0000000000001ebc g     F .text	000000000000000c TEE_GetInstanceData
0000000000001f08 g     F .text	000000000000003c TEE_Wait
00000000000056e0 g     F .text	000000000000000c utee_storage_obj_write
0000000000007aa0 g     F .text	000000000000001c mpa_free_static_temp_var
0000000000006444 g     F .text	00000000000003ac mpa_is_prob_prime
00000000000057b8 g     F .text	000000000000000c utee_se_channel_close
0000000000007d64 g     F .text	00000000000000c4 mpa_mul_word
000000000000209c g     F .text	0000000000000008 TEE_CacheFlush
0000000000000a2c g     F .text	0000000000000004 TA_DestroyEntryPoint
000000000000ade4 g     F .text	0000000000000044 _assert_log
000000000000588c g     F .text	0000000000000014 TEE_BigIntFMMContextSizeInU32
0000000000004468 g     F .text	00000000000000c0 TEE_MACCompareFinal
000000000000297c g     F .text	000000000000006c TEE_RenamePersistentObject
0000000000000334 g     F .text	00000000000000ac ta_storage_cmd_rename
0000000000003dfc g     F .text	00000000000000c4 TEE_DigestDoFinal
0000000000006a54 g     F .text	0000000000000688 __mpa_div_q_r
00000000000057d4 g     F .text	0000000000000058 _TEE_MathAPI_Init
00000000000056c8 g     F .text	000000000000000c utee_storage_next_enum
000000000000d100 g     O .bss	0000000000008000 ta_heap
0000000000005cc4 g     F .text	000000000000006c TEE_BigIntInvMod
0000000000000434 g     F .text	000000000000002c ta_storage_cmd_free_enum
0000000000000a38 g     F .text	0000000000000004 TA_CloseSessionEntryPoint
0000000000004c68 g     F .text	0000000000000148 TEE_AsymmetricDecrypt
00000000000027ac g     F .text	0000000000000098 TEE_OpenPersistentObject
0000000000005494 g     F .text	000000000000000c __utee_panic
0000000000000308 g     F .text	000000000000002c ta_storage_cmd_unlink
000000000000553c g     F .text	000000000000000c utee_cryp_state_copy
0000000000000a3c g     F .text	00000000000000bc TA_InvokeCommandEntryPoint
0000000000009524 g     F .text	0000000000000110 mpa_set_oct_str
0000000000000970 g     F .text	0000000000000040 ta_storage_cmd_alloc_obj
0000000000000240 g     F .text	000000000000002c ta_storage_cmd_close
000000000000577c g     F .text	000000000000000c utee_se_session_open_channel
000000000000ad24 g     F .text	0000000000000080 mempool_alloc
0000000000007f98 g     F .text	0000000000000098 __mpa_shift_words_left
00000000000055c0 g     F .text	000000000000000c utee_cryp_obj_alloc
0000000000005524 g     F .text	000000000000000c utee_set_ta_time
00000000000055b4 g     F .text	000000000000000c utee_cryp_obj_get_attr
00000000000026d4 g     F .text	0000000000000054 TEE_CopyObjectAttributes
00000000000060cc g     F .text	0000000000000090 __mpa_montgomery_sub_ack
000000000000a384 g     F .text	0000000000000070 calloc
000000000000202c g     F .text	000000000000005c TEE_Malloc
0000000000005500 g     F .text	000000000000000c utee_mask_cancellation
00000000000055d8 g     F .text	000000000000000c utee_cryp_obj_reset
0000000000001e9c g     F .text	0000000000000014 TEE_CheckMemoryAccessRights
0000000000017b40 g       .bss	0000000000000000 __gprof_buf_end
00000000000089bc g     F .text	000000000000002c mpa_neg
000000000000af30 g     O .rodata	0000000000000c38 PRIME_TABLE
0000000000002b68 g     F .text	0000000000000068 TEE_ReadObjectData
0000000000002214 g     F .text	00000000000000ac TEE_GetObjectBufferAttribute
0000000000000a30 g     F .text	0000000000000008 TA_OpenSessionEntryPoint
0000000000007738 g     F .text	0000000000000120 mpa_gcd
0000000000005f68 g     F .text	0000000000000030 mpa_abs
00000000000056bc g     F .text	000000000000000c utee_storage_start_enum
0000000000002f7c g     F .text	0000000000000044 TEE_FreeOperation
0000000000009208 g     F .text	0000000000000298 mpa_set_str
000000000000568c g     F .text	000000000000000c utee_storage_obj_rename
0000000000015108 g     O .bss	0000000000000004 ta_param_types
00000000000020ac g     F .text	000000000000004c __utee_from_attr
0000000000005db4 g     F .text	0000000000000024 TEE_BigIntIsProbablePrime
0000000000007a90 g     F .text	0000000000000010 mpa_alloc_static_temp_var
000000000000290c g     F .text	0000000000000044 TEE_CloseAndDeletePersistentObject1
00000000000054a0 g     F .text	000000000000000c utee_get_property
000000000000498c g     F .text	0000000000000198 TEE_AEDecryptFinal
000000000000582c g     F .text	0000000000000004 TEE_BigIntInit
0000000000001ec8 g     F .text	0000000000000008 TEE_MemMove
00000000000058a0 g     F .text	0000000000000028 TEE_BigIntConvertFromOctetString
000000000000d0a8 g     O .data	0000000000000008 _ref__utee_mcount
0000000000004268 g     F .text	00000000000000a4 TEE_MACInit
0000000000004db0 g     F .text	000000000000013c TEE_AsymmetricSignDigest
00000000000019e8 g     F .text	000000000000002c memchr
0000000000001e44 g     F .text	000000000000002c TEE_UnmaskCancellation
00000000000020f8 g     F .text	0000000000000048 TEE_GetObjectInfo
00000000000098c8 g     F .text	0000000000000084 mpa_mul_mod
0000000000005680 g     F .text	000000000000000c utee_storage_obj_del
0000000000000538 g     F .text	000000000000032c ta_storage_cmd_key_in_persistent
0000000000004680 g     F .text	0000000000000150 TEE_AEUpdate
00000000000056f8 g     F .text	000000000000000c utee_storage_obj_seek
000000000000241c g     F .text	0000000000000054 TEE_FreeTransientObject
0000000000006280 g     F .text	000000000000013c mpa_compute_fmm_context
0000000000005560 g     F .text	000000000000000c utee_hash_update
0000000000005180 g     F .text	0000000000000024 rand
00000000000057d0  w    F .text	0000000000000004 __utee_mcount
00000000000037e4 g     F .text	0000000000000048 TEE_GetOperationInfo
0000000000005a08 g     F .text	0000000000000094 TEE_BigIntMod
0000000000005794 g     F .text	000000000000000c utee_se_channel_select_next
00000000000054c4 g     F .text	000000000000000c utee_close_ta_session
00000000000059a4 g     F .text	0000000000000064 TEE_BigIntDiv
000000000000a324 g     F .text	0000000000000018 malloc_reset_stats
0000000000005584 g     F .text	000000000000000c utee_cipher_update
0000000000002180 g     F .text	0000000000000044 TEE_RestrictObjectUsage1
0000000000005770 g     F .text	000000000000000c utee_se_session_get_atr
000000000000a3f4 g     F .text	000000000000005c realloc
00000000000084bc g     F .text	00000000000000cc __mpa_abs_add_ackum
000000000000acbc g     F .text	0000000000000068 mempool_alloc_pool
000000000000565c g     F .text	000000000000000c utee_asymm_verify
0000000000005988 g     F .text	000000000000000c TEE_BigIntMul
0000000000003974 g     F .text	0000000000000078 TEE_ResetOperation
00000000000068a4 g     F .text	0000000000000018 mpa_get_word
0000000000001ed8 g     F .text	0000000000000008 TEE_MemFill
000000000000abe0 g     F .text	0000000000000034 memcmp
00000000000002b0 g     F .text	0000000000000058 ta_storage_cmd_seek
000000000000a7f8 g     F .text	0000000000000130 malloc_add_pool
000000000000430c g     F .text	00000000000000a0 TEE_MACUpdate
0000000000000b24 g     F .text	0000000000000010 trace_get_level
0000000000005608 g     F .text	000000000000000c utee_cryp_random_number_generate
00000000000021c4 g     F .text	0000000000000050 TEE_RestrictObjectUsage
000000000000587c g     F .text	0000000000000010 TEE_BigIntFMMSizeInU32
0000000000005830 g     F .text	0000000000000014 TEE_BigIntInitFMM
000000000000048c g     F .text	0000000000000018 ta_storage_cmd_start_enum
0000000000005650 g     F .text	000000000000000c utee_asymm_operate
0000000000002390 g     F .text	0000000000000028 TEE_CloseObject
0000000000005268 g     F .text	0000000000000208 __utee_entry
000000000000ae3c g       .text	0000000000000000 __text_end
0000000000005d30 g     F .text	0000000000000078 TEE_BigIntRelativePrime
0000000000007f34 g     F .text	0000000000000064 mpa_get_random_digits
00000000000003f8 g     F .text	000000000000003c ta_storage_cmd_alloc_enum
000000000000a1b8 g     F .text	00000000000000d4 bpool
00000000000067f0 g     F .text	000000000000002c mpa_set_S32
0000000000009004 g     F .text	0000000000000068 mpa_init_static_fmm_context
0000000000001e18 g     F .text	000000000000002c TEE_GetCancellationFlag
000000000000571c g     F .text	000000000000000c utee_se_service_close
0000000000001fc4 g     F .text	0000000000000040 TEE_SetTAPersistentTime
00000000000089e8 g     F .text	000000000000013c mpa_add_word
0000000000005734 g     F .text	000000000000000c utee_se_reader_get_prop
000000000000ac60 g     F .text	000000000000001c memset
0000000000001f44 g     F .text	0000000000000080 TEE_GetTAPersistentTime
0000000000000d74 g     F .text	0000000000000004 dhex_dump
0000000000002844 g     F .text	00000000000000c8 TEE_CreatePersistentObject
0000000000001e70 g     F .text	000000000000002c TEE_MaskCancellation
0000000000008384 g     F .text	0000000000000024 __mpa_full_sub
00000000000045ec g     F .text	0000000000000094 TEE_AEUpdateAAD
00000000000056d4 g     F .text	000000000000000c utee_storage_obj_read
00000000000009b0 g     F .text	000000000000002c ta_storage_cmd_free_obj
0000000000002c34 g     F .text	000000000000005c TEE_TruncateObjectData
00000000000055e4 g     F .text	000000000000000c utee_cryp_obj_populate
0000000000008d40 g     F .text	0000000000000068 mpa_cmp
000000000000994c g     F .text	0000000000000114 mpa_inv_mod
0000000000008b24 g     F .text	0000000000000138 mpa_sub_word
0000000000007abc g     F .text	0000000000000018 __mpa_mul_add_word
00000000000004a4 g     F .text	0000000000000094 ta_storage_cmd_next_enum
000000000000868c g     F .text	0000000000000194 mpa_add
0000000000008e2c g     F .text	00000000000001bc mpa_exp_mod
0000000000002140 g     F .text	0000000000000040 TEE_GetObjectInfo1
0000000000008030 g     F .text	0000000000000064 __mpa_shift_words_right
0000000000000b00 g     F .text	0000000000000024 trace_set_level
0000000000005764 g     F .text	000000000000000c utee_se_session_is_closed
000000000000559c g     F .text	000000000000000c utee_cryp_obj_get_info
00000000000022c0 g     F .text	00000000000000d0 TEE_GetObjectValueAttribute
00000000000039ec g     F .text	00000000000000f0 TEE_SetOperationKey
0000000000005698 g     F .text	000000000000000c utee_storage_alloc_enum
00000000000056b0 g     F .text	000000000000000c utee_storage_reset_enum
00000000000056ec g     F .text	000000000000000c utee_storage_obj_trunc
00000000000097a8 g     F .text	0000000000000018 mpa_mod
0000000000008d0c g     F .text	000000000000001c __mpa_abs_greater_than
000000000000590c g     F .text	0000000000000020 TEE_BigIntConvertToS32
0000000000005978 g     F .text	000000000000000c TEE_BigIntSub
00000000000054dc g     F .text	000000000000000c utee_get_cancellation_flag
0000000000005554 g     F .text	000000000000000c utee_hash_init
0000000000000af8 g     F .text	0000000000000008 tahead_get_trace_level
0000000000001bc8 g     F .text	0000000000000078 __utee_from_param
0000000000002c90 g     F .text	00000000000000d0 TEE_SeekObjectData
000000000000af10 g     O .rodata	0000000000000010 Const_1_LShift_Base
0000000000001c40 g     F .text	000000000000006c __utee_to_param
000000000000a450 g     F .text	00000000000003a8 memalign
00000000000040c0 g     F .text	00000000000001a8 TEE_CipherDoFinal
000000000000026c g     F .text	0000000000000024 ta_storage_cmd_read
0000000000005908 g     F .text	0000000000000004 TEE_BigIntConvertFromS32
0000000000009844 g     F .text	0000000000000084 mpa_sub_mod
00000000000055a8 g     F .text	000000000000000c utee_cryp_obj_restrict_usage
000000000000a928 g     F .text	0000000000000180 malloc_buffer_is_within_alloced
00000000000055f0 g     F .text	000000000000000c utee_cryp_obj_copy
0000000000008224 g     F .text	0000000000000144 mpa_shift_right
0000000000005844 g     F .text	0000000000000038 TEE_BigIntInitFMMContext
00000000000055fc g     F .text	000000000000000c utee_cryp_derive_key
0000000000000a08 g     F .text	000000000000001c ta_storage_cmd_get_obj_info
000000000000615c g     F .text	0000000000000124 __mpa_montgomery_mul
0000000000009634 g     F .text	0000000000000174 mpa_get_oct_str
00000000000000d0 g     F .text	00000000000000bc ta_storage_cmd_create
0000000000008da8 g     F .text	0000000000000084 mpa_cmp_short
0000000000005644 g     F .text	000000000000000c utee_authenc_dec_final
0000000000002a6c g     F .text	0000000000000028 TEE_ResetPersistentObjectEnumerator
0000000000002bd0 g     F .text	0000000000000064 TEE_WriteObjectData
0000000000008c5c g     F .text	00000000000000b0 __mpa_abs_cmp
0000000000005994 g     F .text	0000000000000010 TEE_BigIntSquare
0000000000000a24 g     F .text	0000000000000008 TA_CreateEntryPoint
0000000000001974 g     F .text	0000000000000074 snprintk
0000000000005954 g     F .text	0000000000000018 TEE_BigIntGetBitCount
0000000000005bec g     F .text	00000000000000cc TEE_BigIntMulMod
0000000000005018 g     F .text	0000000000000144 TEE_DeriveKey
0000000000015110 g     O .bss	0000000000000040 ta_params
0000000000007b8c g     F .text	00000000000000f4 __mpa_abs_mul
0000000000009bb0 g     F .text	00000000000001c0 bget
00000000000023b8 g     F .text	0000000000000064 TEE_AllocateTransientObject
0000000000002090 g     F .text	0000000000000004 TEE_Free
0000000000000460 g     F .text	000000000000002c ta_storage_cmd_reset_enum
0000000000005740 g     F .text	000000000000000c utee_se_reader_get_name
00000000000020a4 g     F .text	0000000000000008 TEE_CacheInvalidate
0000000000005578 g     F .text	000000000000000c utee_cipher_init
000000000000ae28 g     F .text	0000000000000014 _assert_break
0000000000005a9c g     F .text	00000000000000a8 TEE_BigIntAddMod
00000000000056a4 g     F .text	000000000000000c utee_storage_free_enum
0000000000005620 g     F .text	000000000000000c utee_authenc_update_aad
0000000000005fdc g     F .text	0000000000000044 mpa_get_bit
0000000000002fc0 g     F .text	0000000000000824 TEE_AllocateOperation
000000000000515c g     F .text	0000000000000024 TEE_GenerateRandom
0000000000001ed0 g     F .text	0000000000000008 TEE_MemCompare
0000000000000d78 g     F .text	0000000000000ba8 __vsnprintf
0000000000002a44 g     F .text	0000000000000028 TEE_FreePersistentObjectEnumerator
0000000000005470 g     F .text	000000000000000c utee_panic
0000000000001cac g     F .text	0000000000000090 TEE_OpenTASession
0000000000001a50 g     F .text	0000000000000028 trace_ext_puts
0000000000001a78 g     F .text	0000000000000008 trace_ext_get_thread_id
0000000000002950 g     F .text	000000000000002c TEE_CloseAndDeletePersistentObject
0000000000002094 g     F .text	0000000000000008 TEE_CacheClean
00000000000054b8 g     F .text	000000000000000c utee_open_ta_session
000000000000ac7c g     F .text	0000000000000040 buf_compare_ct
00000000000068bc g     F .text	0000000000000050 __mpa_div_dword
0000000000005ec0 g     F .text	0000000000000024 __mpa_set_unused_digits_to_zero
000000000000af20 g     O .rodata	000000000000000c const_largest_deci_base
0000000000009200 g     F .text	0000000000000008 mpa_get_str_size
0000000000002628 g     F .text	00000000000000ac TEE_CopyObjectAttributes1
000000000000556c g     F .text	000000000000000c utee_hash_final
0000000000001a34 g     F .text	000000000000001c strlen
0000000000005da8 g     F .text	000000000000000c TEE_BigIntComputeExtendedGcd
0000000000007858 g     F .text	00000000000001ec mpa_extended_gcd
00000000000097c0 g     F .text	0000000000000084 mpa_add_mod
0000000000005668 g     F .text	000000000000000c utee_storage_obj_open
00000000000054d0 g     F .text	000000000000000c utee_invoke_ta_command
00000000000094a0 g     F .text	0000000000000084 mpa_get_str
000000000000550c g     F .text	000000000000000c utee_wait
0000000000001ee0 g     F .text	0000000000000028 TEE_GetSystemTime
0000000000000000 g     O .ta_head	0000000000000020 ta_head
0000000000009e54 g     F .text	000000000000029c brel
000000000000018c g     F .text	00000000000000b4 ta_storage_cmd_create_overwrite
0000000000007a44 g     F .text	000000000000004c mpa_alloc_static_temp_var_size
0000000000005518 g     F .text	000000000000000c utee_get_time
0000000000006054 g     F .text	0000000000000078 __mpa_montgomery_mul_add
0000000000001eb0 g     F .text	000000000000000c TEE_SetInstanceData
00000000000054f4 g     F .text	000000000000000c utee_unmask_cancellation
00000000000054e8 g     F .text	000000000000000c utee_check_access_rights
0000000000005758 g     F .text	000000000000000c utee_se_reader_close_sessions
0000000000000290 g     F .text	0000000000000020 ta_storage_cmd_write
0000000000002ae4 g     F .text	0000000000000084 TEE_GetNextPersistentObject
0000000000005704 g     F .text	000000000000000c utee_cryp_obj_generate_key
0000000000006048 g     F .text	000000000000000c mpa_constant_one
0000000000001d3c g     F .text	0000000000000028 TEE_CloseTASession
0000000000004eec g     F .text	000000000000012c TEE_AsymmetricVerifyDigest
0000000000008368 g     F .text	000000000000001c __mpa_full_adder
0000000000008588 g     F .text	0000000000000104 __mpa_abs_sub
0000000000017b40 g       .bss	0000000000000000 __gprof_buf_start
000000000000a370 g     F .text	0000000000000014 free
000000000000a28c g     F .text	0000000000000098 bstats
00000000000043ac g     F .text	00000000000000bc TEE_MACComputeFinal



Disassembly of section .text:

0000000000000020 <ta_storage_cmd_open>:
ta_storage_cmd_open():
/home/lagadanu/Desktop/qemu/out-br/build/optee_test-1.0/ta/storage/storage.c:44
      20:	a9bb7bfd 	stp	x29, x30, [sp,#-80]!
/home/lagadanu/Desktop/qemu/out-br/build/optee_test-1.0/ta/storage/storage.c:49
      24:	7104d43f 	cmp	w1, #0x135
/home/lagadanu/Desktop/qemu/out-br/build/optee_test-1.0/ta/storage/storage.c:44
      28:	910003fd 	mov	x29, sp
      2c:	a9025bf5 	stp	x21, x22, [sp,#32]
/home/lagadanu/Desktop/qemu/out-br/build/optee_test-1.0/ta/storage/storage.c:49
      30:	129fff35 	mov	w21, #0xffff0006            	// #-65530
/home/lagadanu/Desktop/qemu/out-br/build/optee_test-1.0/ta/storage/storage.c:44
      34:	a90153f3 	stp	x19, x20, [sp,#16]
      38:	f9001bf7 	str	x23, [sp,#48]
/home/lagadanu/Desktop/qemu/out-br/build/optee_test-1.0/ta/storage/storage.c:49
      3c:	540003a1 	b.ne	b0 <ta_storage_cmd_open+0x90>
      40:	aa0203f3 	mov	x19, x2
      44:	2a0003f4 	mov	w20, w0
/home/lagadanu/Desktop/qemu/out-br/build/optee_test-1.0/ta/storage/storage.c:55
      48:	340000a0 	cbz	w0, 5c <ta_storage_cmd_open+0x3c>
      4c:	7100581f 	cmp	w0, #0x16
      50:	540003c0 	b.eq	c8 <ta_storage_cmd_open+0xa8>
/home/lagadanu/Desktop/qemu/out-br/build/optee_test-1.0/ta/storage/storage.c:68
      54:	129ffeb5 	mov	w21, #0xffff000a            	// #-65526
      58:	14000016 	b	b0 <ta_storage_cmd_open+0x90>
/home/lagadanu/Desktop/qemu/out-br/build/optee_test-1.0/ta/storage/storage.c:57
      5c:	b9400840 	ldr	w0, [x2,#8]
      60:	52800001 	mov	w1, #0x0                   	// #0
/home/lagadanu/Desktop/qemu/out-br/build/optee_test-1.0/ta/storage/storage.c:59
      64:	129ffe75 	mov	w21, #0xffff000c            	// #-65524
/home/lagadanu/Desktop/qemu/out-br/build/optee_test-1.0/ta/storage/storage.c:57
      68:	940007f1 	bl	202c <TEE_Malloc>
      6c:	aa0003f6 	mov	x22, x0
/home/lagadanu/Desktop/qemu/out-br/build/optee_test-1.0/ta/storage/storage.c:58
      70:	b4000200 	cbz	x0, b0 <ta_storage_cmd_open+0x90>
/home/lagadanu/Desktop/qemu/out-br/build/optee_test-1.0/ta/storage/storage.c:61
      74:	b9400a62 	ldr	w2, [x19,#8]
      78:	f9400261 	ldr	x1, [x19]
      7c:	94000793 	bl	1ec8 <TEE_MemMove>
/home/lagadanu/Desktop/qemu/out-br/build/optee_test-1.0/ta/storage/storage.c:71
      80:	b9400a62 	ldr	w2, [x19,#8]
      84:	910123a4 	add	x4, x29, #0x48
      88:	b9401263 	ldr	w3, [x19,#16]
      8c:	aa1603e1 	mov	x1, x22
      90:	b9402260 	ldr	w0, [x19,#32]
      94:	940009c6 	bl	27ac <TEE_OpenPersistentObject>
      98:	2a0003f5 	mov	w21, w0
/home/lagadanu/Desktop/qemu/out-br/build/optee_test-1.0/ta/storage/storage.c:75
      9c:	f94027a0 	ldr	x0, [x29,#72]
      a0:	b9001660 	str	w0, [x19,#20]
/home/lagadanu/Desktop/qemu/out-br/build/optee_test-1.0/ta/storage/storage.c:77
      a4:	35000074 	cbnz	w20, b0 <ta_storage_cmd_open+0x90>
/home/lagadanu/Desktop/qemu/out-br/build/optee_test-1.0/ta/storage/storage.c:78
      a8:	aa1603e0 	mov	x0, x22
      ac:	940007f9 	bl	2090 <TEE_Free>
/home/lagadanu/Desktop/qemu/out-br/build/optee_test-1.0/ta/storage/storage.c:81
      b0:	2a1503e0 	mov	w0, w21
      b4:	f9401bf7 	ldr	x23, [sp,#48]
      b8:	a94153f3 	ldp	x19, x20, [sp,#16]
      bc:	a9425bf5 	ldp	x21, x22, [sp,#32]
      c0:	a8c57bfd 	ldp	x29, x30, [sp],#80
      c4:	d65f03c0 	ret
/home/lagadanu/Desktop/qemu/out-br/build/optee_test-1.0/ta/storage/storage.c:65
      c8:	f9400056 	ldr	x22, [x2]
/home/lagadanu/Desktop/qemu/out-br/build/optee_test-1.0/ta/storage/storage.c:66
      cc:	17ffffed 	b	80 <ta_storage_cmd_open+0x60>

00000000000000d0 <ta_storage_cmd_create>:
ta_storage_cmd_create():
/home/lagadanu/Desktop/qemu/out-br/build/optee_test-1.0/ta/storage/storage.c:85
      d0:	a9bc7bfd 	stp	x29, x30, [sp,#-64]!
/home/lagadanu/Desktop/qemu/out-br/build/optee_test-1.0/ta/storage/storage.c:91
      d4:	528a26a3 	mov	w3, #0x5135                	// #20789
      d8:	6b03003f 	cmp	w1, w3
/home/lagadanu/Desktop/qemu/out-br/build/optee_test-1.0/ta/storage/storage.c:85
      dc:	910003fd 	mov	x29, sp
      e0:	a9025bf5 	stp	x21, x22, [sp,#32]
/home/lagadanu/Desktop/qemu/out-br/build/optee_test-1.0/ta/storage/storage.c:91
      e4:	129fff35 	mov	w21, #0xffff0006            	// #-65530
/home/lagadanu/Desktop/qemu/out-br/build/optee_test-1.0/ta/storage/storage.c:85
      e8:	a90153f3 	stp	x19, x20, [sp,#16]
/home/lagadanu/Desktop/qemu/out-br/build/optee_test-1.0/ta/storage/storage.c:91
      ec:	54000421 	b.ne	170 <ta_storage_cmd_create+0xa0>
      f0:	aa0203f3 	mov	x19, x2
      f4:	2a0003f4 	mov	w20, w0
/home/lagadanu/Desktop/qemu/out-br/build/optee_test-1.0/ta/storage/storage.c:97
      f8:	7100101f 	cmp	w0, #0x4
      fc:	540000a0 	b.eq	110 <ta_storage_cmd_create+0x40>
     100:	71005c1f 	cmp	w0, #0x17
     104:	54000400 	b.eq	184 <ta_storage_cmd_create+0xb4>
/home/lagadanu/Desktop/qemu/out-br/build/optee_test-1.0/ta/storage/storage.c:110
     108:	129ffeb5 	mov	w21, #0xffff000a            	// #-65526
     10c:	14000019 	b	170 <ta_storage_cmd_create+0xa0>
/home/lagadanu/Desktop/qemu/out-br/build/optee_test-1.0/ta/storage/storage.c:99
     110:	b9400840 	ldr	w0, [x2,#8]
     114:	52800001 	mov	w1, #0x0                   	// #0
/home/lagadanu/Desktop/qemu/out-br/build/optee_test-1.0/ta/storage/storage.c:101
     118:	129ffe75 	mov	w21, #0xffff000c            	// #-65524
/home/lagadanu/Desktop/qemu/out-br/build/optee_test-1.0/ta/storage/storage.c:99
     11c:	940007c4 	bl	202c <TEE_Malloc>
     120:	aa0003f6 	mov	x22, x0
/home/lagadanu/Desktop/qemu/out-br/build/optee_test-1.0/ta/storage/storage.c:100
     124:	b4000260 	cbz	x0, 170 <ta_storage_cmd_create+0xa0>
/home/lagadanu/Desktop/qemu/out-br/build/optee_test-1.0/ta/storage/storage.c:103
     128:	b9400a62 	ldr	w2, [x19,#8]
     12c:	f9400261 	ldr	x1, [x19]
     130:	94000766 	bl	1ec8 <TEE_MemMove>
/home/lagadanu/Desktop/qemu/out-br/build/optee_test-1.0/ta/storage/storage.c:115
     134:	b9400a62 	ldr	w2, [x19,#8]
     138:	9100e3a7 	add	x7, x29, #0x38
     13c:	b9401263 	ldr	w3, [x19,#16]
     140:	aa1603e1 	mov	x1, x22
     144:	29440264 	ldp	w4, w0, [x19,#32]
     148:	b9403a66 	ldr	w6, [x19,#56]
     14c:	f9401a65 	ldr	x5, [x19,#48]
     150:	940009bd 	bl	2844 <TEE_CreatePersistentObject>
     154:	2a0003f5 	mov	w21, w0
/home/lagadanu/Desktop/qemu/out-br/build/optee_test-1.0/ta/storage/storage.c:121
     158:	7100129f 	cmp	w20, #0x4
     15c:	54000061 	b.ne	168 <ta_storage_cmd_create+0x98>
/home/lagadanu/Desktop/qemu/out-br/build/optee_test-1.0/ta/storage/storage.c:122
     160:	aa1603e0 	mov	x0, x22
     164:	940007cb 	bl	2090 <TEE_Free>
/home/lagadanu/Desktop/qemu/out-br/build/optee_test-1.0/ta/storage/storage.c:124
     168:	f9401fa0 	ldr	x0, [x29,#56]
     16c:	b9001660 	str	w0, [x19,#20]
/home/lagadanu/Desktop/qemu/out-br/build/optee_test-1.0/ta/storage/storage.c:127
     170:	2a1503e0 	mov	w0, w21
     174:	a94153f3 	ldp	x19, x20, [sp,#16]
     178:	a9425bf5 	ldp	x21, x22, [sp,#32]
     17c:	a8c47bfd 	ldp	x29, x30, [sp],#64
     180:	d65f03c0 	ret
/home/lagadanu/Desktop/qemu/out-br/build/optee_test-1.0/ta/storage/storage.c:107
     184:	f9400056 	ldr	x22, [x2]
/home/lagadanu/Desktop/qemu/out-br/build/optee_test-1.0/ta/storage/storage.c:108
     188:	17ffffeb 	b	134 <ta_storage_cmd_create+0x64>

000000000000018c <ta_storage_cmd_create_overwrite>:
ta_storage_cmd_create_overwrite():
/home/lagadanu/Desktop/qemu/out-br/build/optee_test-1.0/ta/storage/storage.c:132
     18c:	a9bd7bfd 	stp	x29, x30, [sp,#-48]!
/home/lagadanu/Desktop/qemu/out-br/build/optee_test-1.0/ta/storage/storage.c:136
     190:	7100543f 	cmp	w1, #0x15
/home/lagadanu/Desktop/qemu/out-br/build/optee_test-1.0/ta/storage/storage.c:132
     194:	910003fd 	mov	x29, sp
     198:	a9025bf5 	stp	x21, x22, [sp,#32]
/home/lagadanu/Desktop/qemu/out-br/build/optee_test-1.0/ta/storage/storage.c:136
     19c:	129fff35 	mov	w21, #0xffff0006            	// #-65530
/home/lagadanu/Desktop/qemu/out-br/build/optee_test-1.0/ta/storage/storage.c:132
     1a0:	a90153f3 	stp	x19, x20, [sp,#16]
/home/lagadanu/Desktop/qemu/out-br/build/optee_test-1.0/ta/storage/storage.c:136
     1a4:	54000401 	b.ne	224 <ta_storage_cmd_create_overwrite+0x98>
     1a8:	aa0203f3 	mov	x19, x2
     1ac:	2a0003f4 	mov	w20, w0
/home/lagadanu/Desktop/qemu/out-br/build/optee_test-1.0/ta/storage/storage.c:142
     1b0:	7100381f 	cmp	w0, #0xe
     1b4:	540000a0 	b.eq	1c8 <ta_storage_cmd_create_overwrite+0x3c>
     1b8:	7100601f 	cmp	w0, #0x18
     1bc:	540003e0 	b.eq	238 <ta_storage_cmd_create_overwrite+0xac>
/home/lagadanu/Desktop/qemu/out-br/build/optee_test-1.0/ta/storage/storage.c:155
     1c0:	129ffeb5 	mov	w21, #0xffff000a            	// #-65526
     1c4:	14000018 	b	224 <ta_storage_cmd_create_overwrite+0x98>
/home/lagadanu/Desktop/qemu/out-br/build/optee_test-1.0/ta/storage/storage.c:144
     1c8:	b9400840 	ldr	w0, [x2,#8]
     1cc:	52800001 	mov	w1, #0x0                   	// #0
/home/lagadanu/Desktop/qemu/out-br/build/optee_test-1.0/ta/storage/storage.c:146
     1d0:	129ffe75 	mov	w21, #0xffff000c            	// #-65524
/home/lagadanu/Desktop/qemu/out-br/build/optee_test-1.0/ta/storage/storage.c:144
     1d4:	94000796 	bl	202c <TEE_Malloc>
     1d8:	aa0003f6 	mov	x22, x0
/home/lagadanu/Desktop/qemu/out-br/build/optee_test-1.0/ta/storage/storage.c:145
     1dc:	b4000240 	cbz	x0, 224 <ta_storage_cmd_create_overwrite+0x98>
/home/lagadanu/Desktop/qemu/out-br/build/optee_test-1.0/ta/storage/storage.c:148
     1e0:	b9400a62 	ldr	w2, [x19,#8]
     1e4:	f9400261 	ldr	x1, [x19]
     1e8:	94000738 	bl	1ec8 <TEE_MemMove>
/home/lagadanu/Desktop/qemu/out-br/build/optee_test-1.0/ta/storage/storage.c:158
     1ec:	b9400a62 	ldr	w2, [x19,#8]
     1f0:	d2800007 	mov	x7, #0x0                   	// #0
     1f4:	b9401260 	ldr	w0, [x19,#16]
     1f8:	52800006 	mov	w6, #0x0                   	// #0
     1fc:	d2800005 	mov	x5, #0x0                   	// #0
     200:	d2800004 	mov	x4, #0x0                   	// #0
     204:	52808003 	mov	w3, #0x400                 	// #1024
     208:	aa1603e1 	mov	x1, x22
     20c:	9400098e 	bl	2844 <TEE_CreatePersistentObject>
     210:	2a0003f5 	mov	w21, w0
/home/lagadanu/Desktop/qemu/out-br/build/optee_test-1.0/ta/storage/storage.c:163
     214:	71003a9f 	cmp	w20, #0xe
     218:	54000061 	b.ne	224 <ta_storage_cmd_create_overwrite+0x98>
/home/lagadanu/Desktop/qemu/out-br/build/optee_test-1.0/ta/storage/storage.c:164
     21c:	aa1603e0 	mov	x0, x22
     220:	9400079c 	bl	2090 <TEE_Free>
/home/lagadanu/Desktop/qemu/out-br/build/optee_test-1.0/ta/storage/storage.c:167
     224:	2a1503e0 	mov	w0, w21
     228:	a94153f3 	ldp	x19, x20, [sp,#16]
     22c:	a9425bf5 	ldp	x21, x22, [sp,#32]
     230:	a8c37bfd 	ldp	x29, x30, [sp],#48
     234:	d65f03c0 	ret
/home/lagadanu/Desktop/qemu/out-br/build/optee_test-1.0/ta/storage/storage.c:152
     238:	f9400056 	ldr	x22, [x2]
/home/lagadanu/Desktop/qemu/out-br/build/optee_test-1.0/ta/storage/storage.c:153
     23c:	17ffffec 	b	1ec <ta_storage_cmd_create_overwrite+0x60>

0000000000000240 <ta_storage_cmd_close>:
ta_storage_cmd_close():
/home/lagadanu/Desktop/qemu/out-br/build/optee_test-1.0/ta/storage/storage.c:171
     240:	7100041f 	cmp	w0, #0x1
     244:	54000101 	b.ne	264 <ta_storage_cmd_close+0x24>
/home/lagadanu/Desktop/qemu/out-br/build/optee_test-1.0/ta/storage/storage.c:170
     248:	a9bf7bfd 	stp	x29, x30, [sp,#-16]!
     24c:	910003fd 	mov	x29, sp
/home/lagadanu/Desktop/qemu/out-br/build/optee_test-1.0/ta/storage/storage.c:175
     250:	b9400020 	ldr	w0, [x1]
     254:	9400084f 	bl	2390 <TEE_CloseObject>
/home/lagadanu/Desktop/qemu/out-br/build/optee_test-1.0/ta/storage/storage.c:177
     258:	52800000 	mov	w0, #0x0                   	// #0
/home/lagadanu/Desktop/qemu/out-br/build/optee_test-1.0/ta/storage/storage.c:178
     25c:	a8c17bfd 	ldp	x29, x30, [sp],#16
     260:	d65f03c0 	ret
/home/lagadanu/Desktop/qemu/out-br/build/optee_test-1.0/ta/storage/storage.c:171
     264:	129fff20 	mov	w0, #0xffff0006            	// #-65530
     268:	d65f03c0 	ret

000000000000026c <ta_storage_cmd_read>:
ta_storage_cmd_read():
/home/lagadanu/Desktop/qemu/out-br/build/optee_test-1.0/ta/storage/storage.c:184
     26c:	7100d81f 	cmp	w0, #0x36
     270:	540000c1 	b.ne	288 <ta_storage_cmd_read+0x1c>
/home/lagadanu/Desktop/qemu/out-br/build/optee_test-1.0/ta/storage/storage.c:189
     274:	91005023 	add	x3, x1, #0x14
     278:	b9400822 	ldr	w2, [x1,#8]
     27c:	b9401020 	ldr	w0, [x1,#16]
     280:	f9400021 	ldr	x1, [x1]
     284:	14000a39 	b	2b68 <TEE_ReadObjectData>
/home/lagadanu/Desktop/qemu/out-br/build/optee_test-1.0/ta/storage/storage.c:191
     288:	129fff20 	mov	w0, #0xffff0006            	// #-65530
     28c:	d65f03c0 	ret

0000000000000290 <ta_storage_cmd_write>:
ta_storage_cmd_write():
/home/lagadanu/Desktop/qemu/out-br/build/optee_test-1.0/ta/storage/storage.c:197
     290:	7100541f 	cmp	w0, #0x15
     294:	540000a1 	b.ne	2a8 <ta_storage_cmd_write+0x18>
/home/lagadanu/Desktop/qemu/out-br/build/optee_test-1.0/ta/storage/storage.c:202
     298:	b9400822 	ldr	w2, [x1,#8]
     29c:	b9401020 	ldr	w0, [x1,#16]
     2a0:	f9400021 	ldr	x1, [x1]
     2a4:	14000a4b 	b	2bd0 <TEE_WriteObjectData>
/home/lagadanu/Desktop/qemu/out-br/build/optee_test-1.0/ta/storage/storage.c:204
     2a8:	129fff20 	mov	w0, #0xffff0006            	// #-65530
     2ac:	d65f03c0 	ret

00000000000002b0 <ta_storage_cmd_seek>:
ta_storage_cmd_seek():
/home/lagadanu/Desktop/qemu/out-br/build/optee_test-1.0/ta/storage/storage.c:213
     2b0:	7100c41f 	cmp	w0, #0x31
     2b4:	54000261 	b.ne	300 <ta_storage_cmd_seek+0x50>
/home/lagadanu/Desktop/qemu/out-br/build/optee_test-1.0/ta/storage/storage.c:207
     2b8:	a9bc7bfd 	stp	x29, x30, [sp,#-64]!
     2bc:	910003fd 	mov	x29, sp
     2c0:	a90153f3 	stp	x19, x20, [sp,#16]
/home/lagadanu/Desktop/qemu/out-br/build/optee_test-1.0/ta/storage/storage.c:210
     2c4:	aa0103f3 	mov	x19, x1
/home/lagadanu/Desktop/qemu/out-br/build/optee_test-1.0/ta/storage/storage.c:219
     2c8:	b9401022 	ldr	w2, [x1,#16]
     2cc:	b9400421 	ldr	w1, [x1,#4]
/home/lagadanu/Desktop/qemu/out-br/build/optee_test-1.0/ta/storage/storage.c:210
     2d0:	b8410674 	ldr	w20, [x19],#16
/home/lagadanu/Desktop/qemu/out-br/build/optee_test-1.0/ta/storage/storage.c:219
     2d4:	aa1403e0 	mov	x0, x20
     2d8:	94000a6e 	bl	2c90 <TEE_SeekObjectData>
/home/lagadanu/Desktop/qemu/out-br/build/optee_test-1.0/ta/storage/storage.c:220
     2dc:	350000c0 	cbnz	w0, 2f4 <ta_storage_cmd_seek+0x44>
/home/lagadanu/Desktop/qemu/out-br/build/optee_test-1.0/ta/storage/storage.c:222
     2e0:	910083a1 	add	x1, x29, #0x20
     2e4:	aa1403e0 	mov	x0, x20
     2e8:	94000796 	bl	2140 <TEE_GetObjectInfo1>
/home/lagadanu/Desktop/qemu/out-br/build/optee_test-1.0/ta/storage/storage.c:224
     2ec:	b94037a1 	ldr	w1, [x29,#52]
     2f0:	b9000661 	str	w1, [x19,#4]
/home/lagadanu/Desktop/qemu/out-br/build/optee_test-1.0/ta/storage/storage.c:227
     2f4:	a94153f3 	ldp	x19, x20, [sp,#16]
     2f8:	a8c47bfd 	ldp	x29, x30, [sp],#64
     2fc:	d65f03c0 	ret
/home/lagadanu/Desktop/qemu/out-br/build/optee_test-1.0/ta/storage/storage.c:213
     300:	129fff20 	mov	w0, #0xffff0006            	// #-65530
     304:	d65f03c0 	ret

0000000000000308 <ta_storage_cmd_unlink>:
ta_storage_cmd_unlink():
/home/lagadanu/Desktop/qemu/out-br/build/optee_test-1.0/ta/storage/storage.c:233
     308:	7100041f 	cmp	w0, #0x1
     30c:	54000101 	b.ne	32c <ta_storage_cmd_unlink+0x24>
/home/lagadanu/Desktop/qemu/out-br/build/optee_test-1.0/ta/storage/storage.c:230
     310:	a9bf7bfd 	stp	x29, x30, [sp,#-16]!
     314:	910003fd 	mov	x29, sp
/home/lagadanu/Desktop/qemu/out-br/build/optee_test-1.0/ta/storage/storage.c:237
     318:	b9400020 	ldr	w0, [x1]
     31c:	9400097c 	bl	290c <TEE_CloseAndDeletePersistentObject1>
/home/lagadanu/Desktop/qemu/out-br/build/optee_test-1.0/ta/storage/storage.c:239
     320:	52800000 	mov	w0, #0x0                   	// #0
/home/lagadanu/Desktop/qemu/out-br/build/optee_test-1.0/ta/storage/storage.c:240
     324:	a8c17bfd 	ldp	x29, x30, [sp],#16
     328:	d65f03c0 	ret
/home/lagadanu/Desktop/qemu/out-br/build/optee_test-1.0/ta/storage/storage.c:233
     32c:	129fff20 	mov	w0, #0xffff0006            	// #-65530
     330:	d65f03c0 	ret

0000000000000334 <ta_storage_cmd_rename>:
ta_storage_cmd_rename():
/home/lagadanu/Desktop/qemu/out-br/build/optee_test-1.0/ta/storage/storage.c:244
     334:	a9bc7bfd 	stp	x29, x30, [sp,#-64]!
/home/lagadanu/Desktop/qemu/out-br/build/optee_test-1.0/ta/storage/storage.c:249
     338:	7101443f 	cmp	w1, #0x51
/home/lagadanu/Desktop/qemu/out-br/build/optee_test-1.0/ta/storage/storage.c:244
     33c:	910003fd 	mov	x29, sp
     340:	a9025bf5 	stp	x21, x22, [sp,#32]
/home/lagadanu/Desktop/qemu/out-br/build/optee_test-1.0/ta/storage/storage.c:249
     344:	129fff35 	mov	w21, #0xffff0006            	// #-65530
/home/lagadanu/Desktop/qemu/out-br/build/optee_test-1.0/ta/storage/storage.c:244
     348:	a90153f3 	stp	x19, x20, [sp,#16]
     34c:	a90363f7 	stp	x23, x24, [sp,#48]
/home/lagadanu/Desktop/qemu/out-br/build/optee_test-1.0/ta/storage/storage.c:249
     350:	54000381 	b.ne	3c0 <ta_storage_cmd_rename+0x8c>
     354:	aa0203f3 	mov	x19, x2
     358:	2a0003f4 	mov	w20, w0
/home/lagadanu/Desktop/qemu/out-br/build/optee_test-1.0/ta/storage/storage.c:254
     35c:	71001c1f 	cmp	w0, #0x7
/home/lagadanu/Desktop/qemu/out-br/build/optee_test-1.0/ta/storage/storage.c:245
     360:	b9400058 	ldr	w24, [x2]
/home/lagadanu/Desktop/qemu/out-br/build/optee_test-1.0/ta/storage/storage.c:254
     364:	540000a0 	b.eq	378 <ta_storage_cmd_rename+0x44>
     368:	7100641f 	cmp	w0, #0x19
     36c:	54000360 	b.eq	3d8 <ta_storage_cmd_rename+0xa4>
/home/lagadanu/Desktop/qemu/out-br/build/optee_test-1.0/ta/storage/storage.c:267
     370:	129ffeb5 	mov	w21, #0xffff000a            	// #-65526
     374:	14000013 	b	3c0 <ta_storage_cmd_rename+0x8c>
/home/lagadanu/Desktop/qemu/out-br/build/optee_test-1.0/ta/storage/storage.c:256
     378:	b9401840 	ldr	w0, [x2,#24]
     37c:	52800001 	mov	w1, #0x0                   	// #0
/home/lagadanu/Desktop/qemu/out-br/build/optee_test-1.0/ta/storage/storage.c:258
     380:	129ffe75 	mov	w21, #0xffff000c            	// #-65524
/home/lagadanu/Desktop/qemu/out-br/build/optee_test-1.0/ta/storage/storage.c:256
     384:	9400072a 	bl	202c <TEE_Malloc>
     388:	aa0003f6 	mov	x22, x0
/home/lagadanu/Desktop/qemu/out-br/build/optee_test-1.0/ta/storage/storage.c:257
     38c:	b40001a0 	cbz	x0, 3c0 <ta_storage_cmd_rename+0x8c>
/home/lagadanu/Desktop/qemu/out-br/build/optee_test-1.0/ta/storage/storage.c:260
     390:	b9401a62 	ldr	w2, [x19,#24]
     394:	f9400a61 	ldr	x1, [x19,#16]
     398:	940006cc 	bl	1ec8 <TEE_MemMove>
/home/lagadanu/Desktop/qemu/out-br/build/optee_test-1.0/ta/storage/storage.c:270
     39c:	b9401a62 	ldr	w2, [x19,#24]
     3a0:	aa1603e1 	mov	x1, x22
     3a4:	2a1803e0 	mov	w0, w24
     3a8:	94000975 	bl	297c <TEE_RenamePersistentObject>
     3ac:	2a0003f5 	mov	w21, w0
/home/lagadanu/Desktop/qemu/out-br/build/optee_test-1.0/ta/storage/storage.c:272
     3b0:	71001e9f 	cmp	w20, #0x7
     3b4:	54000061 	b.ne	3c0 <ta_storage_cmd_rename+0x8c>
/home/lagadanu/Desktop/qemu/out-br/build/optee_test-1.0/ta/storage/storage.c:273
     3b8:	aa1603e0 	mov	x0, x22
     3bc:	94000735 	bl	2090 <TEE_Free>
/home/lagadanu/Desktop/qemu/out-br/build/optee_test-1.0/ta/storage/storage.c:276
     3c0:	2a1503e0 	mov	w0, w21
     3c4:	a94153f3 	ldp	x19, x20, [sp,#16]
     3c8:	a9425bf5 	ldp	x21, x22, [sp,#32]
     3cc:	a94363f7 	ldp	x23, x24, [sp,#48]
     3d0:	a8c47bfd 	ldp	x29, x30, [sp],#64
     3d4:	d65f03c0 	ret
/home/lagadanu/Desktop/qemu/out-br/build/optee_test-1.0/ta/storage/storage.c:264
     3d8:	f9400856 	ldr	x22, [x2,#16]
/home/lagadanu/Desktop/qemu/out-br/build/optee_test-1.0/ta/storage/storage.c:265
     3dc:	17fffff0 	b	39c <ta_storage_cmd_rename+0x68>

00000000000003e0 <ta_storage_cmd_trunc>:
ta_storage_cmd_trunc():
/home/lagadanu/Desktop/qemu/out-br/build/optee_test-1.0/ta/storage/storage.c:282
     3e0:	7100041f 	cmp	w0, #0x1
     3e4:	54000061 	b.ne	3f0 <ta_storage_cmd_trunc+0x10>
/home/lagadanu/Desktop/qemu/out-br/build/optee_test-1.0/ta/storage/storage.c:286
     3e8:	29400420 	ldp	w0, w1, [x1]
     3ec:	14000a12 	b	2c34 <TEE_TruncateObjectData>
/home/lagadanu/Desktop/qemu/out-br/build/optee_test-1.0/ta/storage/storage.c:287
     3f0:	129fff20 	mov	w0, #0xffff0006            	// #-65530
     3f4:	d65f03c0 	ret

00000000000003f8 <ta_storage_cmd_alloc_enum>:
ta_storage_cmd_alloc_enum():
/home/lagadanu/Desktop/qemu/out-br/build/optee_test-1.0/ta/storage/storage.c:294
     3f8:	7100081f 	cmp	w0, #0x2
     3fc:	54000181 	b.ne	42c <ta_storage_cmd_alloc_enum+0x34>
/home/lagadanu/Desktop/qemu/out-br/build/optee_test-1.0/ta/storage/storage.c:290
     400:	a9bd7bfd 	stp	x29, x30, [sp,#-48]!
     404:	910003fd 	mov	x29, sp
     408:	f9000bf3 	str	x19, [sp,#16]
     40c:	aa0103f3 	mov	x19, x1
/home/lagadanu/Desktop/qemu/out-br/build/optee_test-1.0/ta/storage/storage.c:298
     410:	9100a3a0 	add	x0, x29, #0x28
     414:	94000975 	bl	29e8 <TEE_AllocatePersistentObjectEnumerator>
/home/lagadanu/Desktop/qemu/out-br/build/optee_test-1.0/ta/storage/storage.c:299
     418:	f94017a1 	ldr	x1, [x29,#40]
     41c:	b9000261 	str	w1, [x19]
/home/lagadanu/Desktop/qemu/out-br/build/optee_test-1.0/ta/storage/storage.c:301
     420:	f9400bf3 	ldr	x19, [sp,#16]
     424:	a8c37bfd 	ldp	x29, x30, [sp],#48
     428:	d65f03c0 	ret
/home/lagadanu/Desktop/qemu/out-br/build/optee_test-1.0/ta/storage/storage.c:294
     42c:	129fff20 	mov	w0, #0xffff0006            	// #-65530
     430:	d65f03c0 	ret

0000000000000434 <ta_storage_cmd_free_enum>:
ta_storage_cmd_free_enum():
/home/lagadanu/Desktop/qemu/out-br/build/optee_test-1.0/ta/storage/storage.c:307
     434:	7100041f 	cmp	w0, #0x1
     438:	54000101 	b.ne	458 <ta_storage_cmd_free_enum+0x24>
/home/lagadanu/Desktop/qemu/out-br/build/optee_test-1.0/ta/storage/storage.c:304
     43c:	a9bf7bfd 	stp	x29, x30, [sp,#-16]!
     440:	910003fd 	mov	x29, sp
/home/lagadanu/Desktop/qemu/out-br/build/optee_test-1.0/ta/storage/storage.c:311
     444:	b9400020 	ldr	w0, [x1]
     448:	9400097f 	bl	2a44 <TEE_FreePersistentObjectEnumerator>
/home/lagadanu/Desktop/qemu/out-br/build/optee_test-1.0/ta/storage/storage.c:312
     44c:	52800000 	mov	w0, #0x0                   	// #0
/home/lagadanu/Desktop/qemu/out-br/build/optee_test-1.0/ta/storage/storage.c:313
     450:	a8c17bfd 	ldp	x29, x30, [sp],#16
     454:	d65f03c0 	ret
/home/lagadanu/Desktop/qemu/out-br/build/optee_test-1.0/ta/storage/storage.c:307
     458:	129fff20 	mov	w0, #0xffff0006            	// #-65530
     45c:	d65f03c0 	ret

0000000000000460 <ta_storage_cmd_reset_enum>:
ta_storage_cmd_reset_enum():
/home/lagadanu/Desktop/qemu/out-br/build/optee_test-1.0/ta/storage/storage.c:319
     460:	7100041f 	cmp	w0, #0x1
     464:	54000101 	b.ne	484 <ta_storage_cmd_reset_enum+0x24>
/home/lagadanu/Desktop/qemu/out-br/build/optee_test-1.0/ta/storage/storage.c:316
     468:	a9bf7bfd 	stp	x29, x30, [sp,#-16]!
     46c:	910003fd 	mov	x29, sp
/home/lagadanu/Desktop/qemu/out-br/build/optee_test-1.0/ta/storage/storage.c:323
     470:	b9400020 	ldr	w0, [x1]
     474:	9400097e 	bl	2a6c <TEE_ResetPersistentObjectEnumerator>
/home/lagadanu/Desktop/qemu/out-br/build/optee_test-1.0/ta/storage/storage.c:324
     478:	52800000 	mov	w0, #0x0                   	// #0
/home/lagadanu/Desktop/qemu/out-br/build/optee_test-1.0/ta/storage/storage.c:325
     47c:	a8c17bfd 	ldp	x29, x30, [sp],#16
     480:	d65f03c0 	ret
/home/lagadanu/Desktop/qemu/out-br/build/optee_test-1.0/ta/storage/storage.c:319
     484:	129fff20 	mov	w0, #0xffff0006            	// #-65530
     488:	d65f03c0 	ret

000000000000048c <ta_storage_cmd_start_enum>:
ta_storage_cmd_start_enum():
/home/lagadanu/Desktop/qemu/out-br/build/optee_test-1.0/ta/storage/storage.c:331
     48c:	7100041f 	cmp	w0, #0x1
     490:	54000061 	b.ne	49c <ta_storage_cmd_start_enum+0x10>
/home/lagadanu/Desktop/qemu/out-br/build/optee_test-1.0/ta/storage/storage.c:335
     494:	29400420 	ldp	w0, w1, [x1]
     498:	1400097f 	b	2a94 <TEE_StartPersistentObjectEnumerator>
/home/lagadanu/Desktop/qemu/out-br/build/optee_test-1.0/ta/storage/storage.c:336
     49c:	129fff20 	mov	w0, #0xffff0006            	// #-65530
     4a0:	d65f03c0 	ret

00000000000004a4 <ta_storage_cmd_next_enum>:
ta_storage_cmd_next_enum():
/home/lagadanu/Desktop/qemu/out-br/build/optee_test-1.0/ta/storage/storage.c:339
     4a4:	2a0003e2 	mov	w2, w0
/home/lagadanu/Desktop/qemu/out-br/build/optee_test-1.0/ta/storage/storage.c:343
     4a8:	12000c00 	and	w0, w0, #0xf
     4ac:	7100041f 	cmp	w0, #0x1
     4b0:	54000401 	b.ne	530 <ta_storage_cmd_next_enum+0x8c>
/home/lagadanu/Desktop/qemu/out-br/build/optee_test-1.0/ta/storage/storage.c:345
     4b4:	d3482c43 	ubfx	x3, x2, #8, #4
/home/lagadanu/Desktop/qemu/out-br/build/optee_test-1.0/ta/storage/storage.c:344
     4b8:	129fff20 	mov	w0, #0xffff0006            	// #-65530
/home/lagadanu/Desktop/qemu/out-br/build/optee_test-1.0/ta/storage/storage.c:345
     4bc:	7100187f 	cmp	w3, #0x6
     4c0:	540003a1 	b.ne	534 <ta_storage_cmd_next_enum+0x90>
/home/lagadanu/Desktop/qemu/out-br/build/optee_test-1.0/ta/storage/storage.c:347
     4c4:	f2740c5f 	tst	x2, #0xf000
     4c8:	54000361 	b.ne	534 <ta_storage_cmd_next_enum+0x90>
/home/lagadanu/Desktop/qemu/out-br/build/optee_test-1.0/ta/storage/storage.c:350
     4cc:	d3441c42 	ubfx	x2, x2, #4, #4
/home/lagadanu/Desktop/qemu/out-br/build/optee_test-1.0/ta/storage/storage.c:340
     4d0:	b9400025 	ldr	w5, [x1]
/home/lagadanu/Desktop/qemu/out-br/build/optee_test-1.0/ta/storage/storage.c:350
     4d4:	340002a2 	cbz	w2, 528 <ta_storage_cmd_next_enum+0x84>
/home/lagadanu/Desktop/qemu/out-br/build/optee_test-1.0/ta/storage/storage.c:352
     4d8:	7100185f 	cmp	w2, #0x6
     4dc:	540002c1 	b.ne	534 <ta_storage_cmd_next_enum+0x90>
/home/lagadanu/Desktop/qemu/out-br/build/optee_test-1.0/ta/storage/storage.c:354
     4e0:	91004022 	add	x2, x1, #0x10
     4e4:	52800383 	mov	w3, #0x1c                  	// #28
     4e8:	b9400840 	ldr	w0, [x2,#8]
/home/lagadanu/Desktop/qemu/out-br/build/optee_test-1.0/ta/storage/storage.c:355
     4ec:	b9000843 	str	w3, [x2,#8]
/home/lagadanu/Desktop/qemu/out-br/build/optee_test-1.0/ta/storage/storage.c:354
     4f0:	71006c1f 	cmp	w0, #0x1b
     4f4:	54000068 	b.hi	500 <ta_storage_cmd_next_enum+0x5c>
/home/lagadanu/Desktop/qemu/out-br/build/optee_test-1.0/ta/storage/storage.c:356
     4f8:	129ffde0 	mov	w0, #0xffff0010            	// #-65520
     4fc:	d65f03c0 	ret
/home/lagadanu/Desktop/qemu/out-br/build/optee_test-1.0/ta/storage/storage.c:359
     500:	f9400824 	ldr	x4, [x1,#16]
/home/lagadanu/Desktop/qemu/out-br/build/optee_test-1.0/ta/storage/storage.c:363
     504:	b9402822 	ldr	w2, [x1,#40]
/home/lagadanu/Desktop/qemu/out-br/build/optee_test-1.0/ta/storage/storage.c:364
     508:	129ffde0 	mov	w0, #0xffff0010            	// #-65520
/home/lagadanu/Desktop/qemu/out-br/build/optee_test-1.0/ta/storage/storage.c:363
     50c:	7100fc5f 	cmp	w2, #0x3f
     510:	54000129 	b.ls	534 <ta_storage_cmd_next_enum+0x90>
/home/lagadanu/Desktop/qemu/out-br/build/optee_test-1.0/ta/storage/storage.c:366
     514:	f9401022 	ldr	x2, [x1,#32]
     518:	9100a023 	add	x3, x1, #0x28
     51c:	2a0503e0 	mov	w0, w5
     520:	aa0403e1 	mov	x1, x4
     524:	14000970 	b	2ae4 <TEE_GetNextPersistentObject>
/home/lagadanu/Desktop/qemu/out-br/build/optee_test-1.0/ta/storage/storage.c:351
     528:	d2800004 	mov	x4, #0x0                   	// #0
     52c:	17fffff6 	b	504 <ta_storage_cmd_next_enum+0x60>
/home/lagadanu/Desktop/qemu/out-br/build/optee_test-1.0/ta/storage/storage.c:344
     530:	129fff20 	mov	w0, #0xffff0006            	// #-65530
/home/lagadanu/Desktop/qemu/out-br/build/optee_test-1.0/ta/storage/storage.c:369
     534:	d65f03c0 	ret

0000000000000538 <ta_storage_cmd_key_in_persistent>:
ta_storage_cmd_key_in_persistent():
/home/lagadanu/Desktop/qemu/out-br/build/optee_test-1.0/ta/storage/storage.c:383
     538:	a9b47bfd 	stp	x29, x30, [sp,#-192]!
/home/lagadanu/Desktop/qemu/out-br/build/optee_test-1.0/ta/storage/storage.c:396
     53c:	52800022 	mov	w2, #0x1                   	// #1
/home/lagadanu/Desktop/qemu/out-br/build/optee_test-1.0/ta/storage/storage.c:403
     540:	6b02001f 	cmp	w0, w2
/home/lagadanu/Desktop/qemu/out-br/build/optee_test-1.0/ta/storage/storage.c:383
     544:	910003fd 	mov	x29, sp
     548:	a90153f3 	stp	x19, x20, [sp,#16]
/home/lagadanu/Desktop/qemu/out-br/build/optee_test-1.0/ta/storage/storage.c:403
     54c:	129fff33 	mov	w19, #0xffff0006            	// #-65530
/home/lagadanu/Desktop/qemu/out-br/build/optee_test-1.0/ta/storage/storage.c:383
     550:	a9025bf5 	stp	x21, x22, [sp,#32]
/home/lagadanu/Desktop/qemu/out-br/build/optee_test-1.0/ta/storage/storage.c:396
     554:	b9003fa2 	str	w2, [x29,#60]
/home/lagadanu/Desktop/qemu/out-br/build/optee_test-1.0/ta/storage/storage.c:386
     558:	a9047fbf 	stp	xzr, xzr, [x29,#64]
/home/lagadanu/Desktop/qemu/out-br/build/optee_test-1.0/ta/storage/storage.c:388
     55c:	a9057fbf 	stp	xzr, xzr, [x29,#80]
/home/lagadanu/Desktop/qemu/out-br/build/optee_test-1.0/ta/storage/storage.c:403
     560:	54000261 	b.ne	5ac <ta_storage_cmd_key_in_persistent+0x74>
     564:	2a0003f4 	mov	w20, w0
/home/lagadanu/Desktop/qemu/out-br/build/optee_test-1.0/ta/storage/storage.c:407
     568:	52800200 	mov	w0, #0x10                  	// #16
     56c:	aa0103f6 	mov	x22, x1
     570:	910103a2 	add	x2, x29, #0x40
     574:	52802001 	mov	w1, #0x100                 	// #256
     578:	72b40000 	movk	w0, #0xa000, lsl #16
     57c:	9400078f 	bl	23b8 <TEE_AllocateTransientObject>
     580:	2a0003f3 	mov	w19, w0
/home/lagadanu/Desktop/qemu/out-br/build/optee_test-1.0/ta/storage/storage.c:409
     584:	340001e0 	cbz	w0, 5c0 <ta_storage_cmd_key_in_persistent+0x88>
/home/lagadanu/Desktop/qemu/out-br/build/optee_test-1.0/ta/storage/storage.c:410
     588:	2a0003e5 	mov	w5, w0
     58c:	f0000044 	adrp	x4, b000 <PRIME_TABLE+0xd0>
     590:	d0000040 	adrp	x0, a000 <brel+0x1ac>
     594:	91359884 	add	x4, x4, #0xd66
     598:	2a1403e3 	mov	w3, w20
     59c:	2a1403e2 	mov	w2, w20
     5a0:	52803361 	mov	w1, #0x19b                 	// #411
     5a4:	91390000 	add	x0, x0, #0xe40
     5a8:	94000163 	bl	b34 <trace_printf>
/home/lagadanu/Desktop/qemu/out-br/build/optee_test-1.0/ta/storage/storage.c:486
     5ac:	2a1303e0 	mov	w0, w19
     5b0:	a94153f3 	ldp	x19, x20, [sp,#16]
     5b4:	a9425bf5 	ldp	x21, x22, [sp,#32]
     5b8:	a8cc7bfd 	ldp	x29, x30, [sp],#192
     5bc:	d65f03c0 	ret
/home/lagadanu/Desktop/qemu/out-br/build/optee_test-1.0/ta/storage/storage.c:415
     5c0:	f94023a0 	ldr	x0, [x29,#64]
     5c4:	52800003 	mov	w3, #0x0                   	// #0
     5c8:	d2800002 	mov	x2, #0x0                   	// #0
     5cc:	52802001 	mov	w1, #0x100                 	// #256
     5d0:	94000856 	bl	2728 <TEE_GenerateKey>
     5d4:	2a0003f3 	mov	w19, w0
/home/lagadanu/Desktop/qemu/out-br/build/optee_test-1.0/ta/storage/storage.c:416
     5d8:	340001a0 	cbz	w0, 60c <ta_storage_cmd_key_in_persistent+0xd4>
/home/lagadanu/Desktop/qemu/out-br/build/optee_test-1.0/ta/storage/storage.c:417
     5dc:	f0000044 	adrp	x4, b000 <PRIME_TABLE+0xd0>
     5e0:	2a0003e5 	mov	w5, w0
     5e4:	91366084 	add	x4, x4, #0xd98
     5e8:	2a1403e3 	mov	w3, w20
     5ec:	2a1403e2 	mov	w2, w20
     5f0:	52803421 	mov	w1, #0x1a1                 	// #417
/home/lagadanu/Desktop/qemu/out-br/build/optee_test-1.0/ta/storage/storage.c:444
     5f4:	d0000040 	adrp	x0, a000 <brel+0x1ac>
     5f8:	91390000 	add	x0, x0, #0xe40
     5fc:	9400014e 	bl	b34 <trace_printf>
/home/lagadanu/Desktop/qemu/out-br/build/optee_test-1.0/ta/storage/storage.c:483
     600:	f94023a0 	ldr	x0, [x29,#64]
     604:	94000786 	bl	241c <TEE_FreeTransientObject>
     608:	17ffffe9 	b	5ac <ta_storage_cmd_key_in_persistent+0x74>
/home/lagadanu/Desktop/qemu/out-br/build/optee_test-1.0/ta/storage/storage.c:421
     60c:	f94023a0 	ldr	x0, [x29,#64]
     610:	910183a1 	add	x1, x29, #0x60
/home/lagadanu/Desktop/qemu/out-br/build/optee_test-1.0/ta/storage/storage.c:422
     614:	9100f3b5 	add	x21, x29, #0x3c
/home/lagadanu/Desktop/qemu/out-br/build/optee_test-1.0/ta/storage/storage.c:421
     618:	940006ca 	bl	2140 <TEE_GetObjectInfo1>
/home/lagadanu/Desktop/qemu/out-br/build/optee_test-1.0/ta/storage/storage.c:422
     61c:	b94002c0 	ldr	w0, [x22]
     620:	910123a7 	add	x7, x29, #0x48
     624:	f94023a4 	ldr	x4, [x29,#64]
     628:	52800006 	mov	w6, #0x0                   	// #0
     62c:	d2800005 	mov	x5, #0x0                   	// #0
     630:	528006e3 	mov	w3, #0x37                  	// #55
     634:	52800082 	mov	w2, #0x4                   	// #4
     638:	aa1503e1 	mov	x1, x21
     63c:	94000882 	bl	2844 <TEE_CreatePersistentObject>
     640:	2a0003f3 	mov	w19, w0
/home/lagadanu/Desktop/qemu/out-br/build/optee_test-1.0/ta/storage/storage.c:426
     644:	34000100 	cbz	w0, 664 <ta_storage_cmd_key_in_persistent+0x12c>
/home/lagadanu/Desktop/qemu/out-br/build/optee_test-1.0/ta/storage/storage.c:427
     648:	f0000044 	adrp	x4, b000 <PRIME_TABLE+0xd0>
     64c:	2a0003e5 	mov	w5, w0
     650:	91370484 	add	x4, x4, #0xdc1
     654:	2a1403e3 	mov	w3, w20
     658:	2a1403e2 	mov	w2, w20
     65c:	52803561 	mov	w1, #0x1ab                 	// #427
     660:	17ffffe5 	b	5f4 <ta_storage_cmd_key_in_persistent+0xbc>
/home/lagadanu/Desktop/qemu/out-br/build/optee_test-1.0/ta/storage/storage.c:431
     664:	f94027a0 	ldr	x0, [x29,#72]
     668:	910203a1 	add	x1, x29, #0x80
     66c:	940006b5 	bl	2140 <TEE_GetObjectInfo1>
check_obj():
/home/lagadanu/Desktop/qemu/out-br/build/optee_test-1.0/ta/storage/storage.c:373
     670:	b94063a1 	ldr	w1, [x29,#96]
     674:	b94083a0 	ldr	w0, [x29,#128]
     678:	6b00003f 	cmp	w1, w0
     67c:	54000d41 	b.ne	824 <ta_storage_cmd_key_in_persistent+0x2ec>
     680:	b94067a1 	ldr	w1, [x29,#100]
     684:	b94087a0 	ldr	w0, [x29,#132]
     688:	6b00003f 	cmp	w1, w0
     68c:	54000cc1 	b.ne	824 <ta_storage_cmd_key_in_persistent+0x2ec>
/home/lagadanu/Desktop/qemu/out-br/build/optee_test-1.0/ta/storage/storage.c:374
     690:	b9406ba1 	ldr	w1, [x29,#104]
     694:	b9408ba0 	ldr	w0, [x29,#136]
     698:	6b00003f 	cmp	w1, w0
     69c:	54000c41 	b.ne	824 <ta_storage_cmd_key_in_persistent+0x2ec>
/home/lagadanu/Desktop/qemu/out-br/build/optee_test-1.0/ta/storage/storage.c:375
     6a0:	b9406fa1 	ldr	w1, [x29,#108]
     6a4:	b9408fa0 	ldr	w0, [x29,#140]
     6a8:	6b00003f 	cmp	w1, w0
     6ac:	54000bc1 	b.ne	824 <ta_storage_cmd_key_in_persistent+0x2ec>
ta_storage_cmd_key_in_persistent():
/home/lagadanu/Desktop/qemu/out-br/build/optee_test-1.0/ta/storage/storage.c:438
     6b0:	f94027a0 	ldr	x0, [x29,#72]
     6b4:	94000737 	bl	2390 <TEE_CloseObject>
/home/lagadanu/Desktop/qemu/out-br/build/optee_test-1.0/ta/storage/storage.c:440
     6b8:	b94002c0 	ldr	w0, [x22]
     6bc:	910143a4 	add	x4, x29, #0x50
     6c0:	528006e3 	mov	w3, #0x37                  	// #55
     6c4:	52800082 	mov	w2, #0x4                   	// #4
     6c8:	aa1503e1 	mov	x1, x21
     6cc:	94000838 	bl	27ac <TEE_OpenPersistentObject>
     6d0:	2a0003f3 	mov	w19, w0
/home/lagadanu/Desktop/qemu/out-br/build/optee_test-1.0/ta/storage/storage.c:443
     6d4:	35000560 	cbnz	w0, 780 <ta_storage_cmd_key_in_persistent+0x248>
/home/lagadanu/Desktop/qemu/out-br/build/optee_test-1.0/ta/storage/storage.c:448
     6d8:	f9402ba0 	ldr	x0, [x29,#80]
     6dc:	910283a1 	add	x1, x29, #0xa0
     6e0:	94000686 	bl	20f8 <TEE_GetObjectInfo>
check_obj():
/home/lagadanu/Desktop/qemu/out-br/build/optee_test-1.0/ta/storage/storage.c:373
     6e4:	b94083a0 	ldr	w0, [x29,#128]
     6e8:	b940a3a1 	ldr	w1, [x29,#160]
     6ec:	6b00003f 	cmp	w1, w0
     6f0:	54000ae1 	b.ne	84c <ta_storage_cmd_key_in_persistent+0x314>
     6f4:	b94087a0 	ldr	w0, [x29,#132]
     6f8:	b940a7a1 	ldr	w1, [x29,#164]
     6fc:	6b00003f 	cmp	w1, w0
     700:	54000a61 	b.ne	84c <ta_storage_cmd_key_in_persistent+0x314>
/home/lagadanu/Desktop/qemu/out-br/build/optee_test-1.0/ta/storage/storage.c:374
     704:	b9408ba0 	ldr	w0, [x29,#136]
/home/lagadanu/Desktop/qemu/out-br/build/optee_test-1.0/ta/storage/storage.c:375
     708:	b940aba3 	ldr	w3, [x29,#168]
/home/lagadanu/Desktop/qemu/out-br/build/optee_test-1.0/ta/storage/storage.c:374
     70c:	6b00007f 	cmp	w3, w0
     710:	540009e1 	b.ne	84c <ta_storage_cmd_key_in_persistent+0x314>
/home/lagadanu/Desktop/qemu/out-br/build/optee_test-1.0/ta/storage/storage.c:375
     714:	b9408fa0 	ldr	w0, [x29,#140]
     718:	b940afa1 	ldr	w1, [x29,#172]
     71c:	6b00003f 	cmp	w1, w0
     720:	54000961 	b.ne	84c <ta_storage_cmd_key_in_persistent+0x314>
ta_storage_cmd_key_in_persistent():
/home/lagadanu/Desktop/qemu/out-br/build/optee_test-1.0/ta/storage/storage.c:455
     724:	52802201 	mov	w1, #0x110                 	// #272
     728:	52800002 	mov	w2, #0x0                   	// #0
     72c:	72a20001 	movk	w1, #0x1000, lsl #16
     730:	910163a0 	add	x0, x29, #0x58
     734:	94000a23 	bl	2fc0 <TEE_AllocateOperation>
     738:	2a0003f3 	mov	w19, w0
/home/lagadanu/Desktop/qemu/out-br/build/optee_test-1.0/ta/storage/storage.c:457
     73c:	35000300 	cbnz	w0, 79c <ta_storage_cmd_key_in_persistent+0x264>
/home/lagadanu/Desktop/qemu/out-br/build/optee_test-1.0/ta/storage/storage.c:462
     740:	a94503a1 	ldp	x1, x0, [x29,#80]
     744:	94000caa 	bl	39ec <TEE_SetOperationKey>
     748:	2a0003f3 	mov	w19, w0
/home/lagadanu/Desktop/qemu/out-br/build/optee_test-1.0/ta/storage/storage.c:463
     74c:	34000400 	cbz	w0, 7cc <ta_storage_cmd_key_in_persistent+0x294>
/home/lagadanu/Desktop/qemu/out-br/build/optee_test-1.0/ta/storage/storage.c:464
     750:	2a0003e5 	mov	w5, w0
     754:	f0000044 	adrp	x4, b000 <PRIME_TABLE+0xd0>
     758:	d0000040 	adrp	x0, a000 <brel+0x1ac>
     75c:	9138cc84 	add	x4, x4, #0xe33
     760:	52800023 	mov	w3, #0x1                   	// #1
     764:	52800022 	mov	w2, #0x1                   	// #1
     768:	52803a01 	mov	w1, #0x1d0                 	// #464
     76c:	91390000 	add	x0, x0, #0xe40
     770:	940000f1 	bl	b34 <trace_printf>
/home/lagadanu/Desktop/qemu/out-br/build/optee_test-1.0/ta/storage/storage.c:479
     774:	f9402fa0 	ldr	x0, [x29,#88]
     778:	94000a01 	bl	2f7c <TEE_FreeOperation>
     77c:	14000011 	b	7c0 <ta_storage_cmd_key_in_persistent+0x288>
/home/lagadanu/Desktop/qemu/out-br/build/optee_test-1.0/ta/storage/storage.c:444
     780:	f0000044 	adrp	x4, b000 <PRIME_TABLE+0xd0>
     784:	2a1303e5 	mov	w5, w19
     788:	9137a484 	add	x4, x4, #0xde9
     78c:	2a1403e3 	mov	w3, w20
     790:	2a1403e2 	mov	w2, w20
     794:	52803781 	mov	w1, #0x1bc                 	// #444
     798:	17ffff97 	b	5f4 <ta_storage_cmd_key_in_persistent+0xbc>
/home/lagadanu/Desktop/qemu/out-br/build/optee_test-1.0/ta/storage/storage.c:458
     79c:	f0000044 	adrp	x4, b000 <PRIME_TABLE+0xd0>
     7a0:	d0000040 	adrp	x0, a000 <brel+0x1ac>
     7a4:	2a1303e5 	mov	w5, w19
     7a8:	91383484 	add	x4, x4, #0xe0d
     7ac:	52800023 	mov	w3, #0x1                   	// #1
     7b0:	52800022 	mov	w2, #0x1                   	// #1
     7b4:	52803941 	mov	w1, #0x1ca                 	// #458
     7b8:	91390000 	add	x0, x0, #0xe40
     7bc:	940000de 	bl	b34 <trace_printf>
/home/lagadanu/Desktop/qemu/out-br/build/optee_test-1.0/ta/storage/storage.c:481
     7c0:	f9402ba0 	ldr	x0, [x29,#80]
     7c4:	94000852 	bl	290c <TEE_CloseAndDeletePersistentObject1>
     7c8:	17ffff8e 	b	600 <ta_storage_cmd_key_in_persistent+0xc8>
/home/lagadanu/Desktop/qemu/out-br/build/optee_test-1.0/ta/storage/storage.c:468
     7cc:	52800001 	mov	w1, #0x0                   	// #0
     7d0:	52800200 	mov	w0, #0x10                  	// #16
     7d4:	94000616 	bl	202c <TEE_Malloc>
     7d8:	aa0003f4 	mov	x20, x0
/home/lagadanu/Desktop/qemu/out-br/build/optee_test-1.0/ta/storage/storage.c:469
     7dc:	b5000160 	cbnz	x0, 808 <ta_storage_cmd_key_in_persistent+0x2d0>
/home/lagadanu/Desktop/qemu/out-br/build/optee_test-1.0/ta/storage/storage.c:470
     7e0:	f0000044 	adrp	x4, b000 <PRIME_TABLE+0xd0>
     7e4:	52800023 	mov	w3, #0x1                   	// #1
     7e8:	91395484 	add	x4, x4, #0xe55
     7ec:	52800022 	mov	w2, #0x1                   	// #1
     7f0:	52803ac1 	mov	w1, #0x1d6                 	// #470
     7f4:	d0000040 	adrp	x0, a000 <brel+0x1ac>
/home/lagadanu/Desktop/qemu/out-br/build/optee_test-1.0/ta/storage/storage.c:471
     7f8:	129ffe73 	mov	w19, #0xffff000c            	// #-65524
/home/lagadanu/Desktop/qemu/out-br/build/optee_test-1.0/ta/storage/storage.c:470
     7fc:	91390000 	add	x0, x0, #0xe40
     800:	940000cd 	bl	b34 <trace_printf>
/home/lagadanu/Desktop/qemu/out-br/build/optee_test-1.0/ta/storage/storage.c:472
     804:	17ffffdc 	b	774 <ta_storage_cmd_key_in_persistent+0x23c>
/home/lagadanu/Desktop/qemu/out-br/build/optee_test-1.0/ta/storage/storage.c:475
     808:	aa0003e1 	mov	x1, x0
     80c:	f9402fa0 	ldr	x0, [x29,#88]
     810:	52800202 	mov	w2, #0x10                  	// #16
     814:	94000dab 	bl	3ec0 <TEE_CipherInit>
/home/lagadanu/Desktop/qemu/out-br/build/optee_test-1.0/ta/storage/storage.c:476
     818:	aa1403e0 	mov	x0, x20
     81c:	9400061d 	bl	2090 <TEE_Free>
     820:	17ffffd5 	b	774 <ta_storage_cmd_key_in_persistent+0x23c>
/home/lagadanu/Desktop/qemu/out-br/build/optee_test-1.0/ta/storage/storage.c:434
     824:	f0000044 	adrp	x4, b000 <PRIME_TABLE+0xd0>
     828:	9139ac84 	add	x4, x4, #0xe6b
     82c:	52800023 	mov	w3, #0x1                   	// #1
     830:	52800022 	mov	w2, #0x1                   	// #1
     834:	52803641 	mov	w1, #0x1b2                 	// #434
/home/lagadanu/Desktop/qemu/out-br/build/optee_test-1.0/ta/storage/storage.c:451
     838:	d0000040 	adrp	x0, a000 <brel+0x1ac>
/home/lagadanu/Desktop/qemu/out-br/build/optee_test-1.0/ta/storage/storage.c:452
     83c:	52bffff3 	mov	w19, #0xffff0000            	// #-65536
/home/lagadanu/Desktop/qemu/out-br/build/optee_test-1.0/ta/storage/storage.c:451
     840:	91390000 	add	x0, x0, #0xe40
     844:	940000bc 	bl	b34 <trace_printf>
/home/lagadanu/Desktop/qemu/out-br/build/optee_test-1.0/ta/storage/storage.c:452
     848:	17ffff6e 	b	600 <ta_storage_cmd_key_in_persistent+0xc8>
/home/lagadanu/Desktop/qemu/out-br/build/optee_test-1.0/ta/storage/storage.c:451
     84c:	f0000044 	adrp	x4, b000 <PRIME_TABLE+0xd0>
     850:	52800023 	mov	w3, #0x1                   	// #1
     854:	913a3884 	add	x4, x4, #0xe8e
     858:	52800022 	mov	w2, #0x1                   	// #1
     85c:	52803861 	mov	w1, #0x1c3                 	// #451
     860:	17fffff6 	b	838 <ta_storage_cmd_key_in_persistent+0x300>

0000000000000864 <ta_storage_cmd_loop>:
ta_storage_cmd_loop():
/home/lagadanu/Desktop/qemu/out-br/build/optee_test-1.0/ta/storage/storage.c:489
     864:	a9bb7bfd 	stp	x29, x30, [sp,#-80]!
/home/lagadanu/Desktop/qemu/out-br/build/optee_test-1.0/ta/storage/storage.c:498
     868:	7100041f 	cmp	w0, #0x1
/home/lagadanu/Desktop/qemu/out-br/build/optee_test-1.0/ta/storage/storage.c:489
     86c:	910003fd 	mov	x29, sp
     870:	a90153f3 	stp	x19, x20, [sp,#16]
/home/lagadanu/Desktop/qemu/out-br/build/optee_test-1.0/ta/storage/storage.c:498
     874:	129fff33 	mov	w19, #0xffff0006            	// #-65530
/home/lagadanu/Desktop/qemu/out-br/build/optee_test-1.0/ta/storage/storage.c:489
     878:	a9025bf5 	stp	x21, x22, [sp,#32]
     87c:	f9001bf7 	str	x23, [sp,#48]
/home/lagadanu/Desktop/qemu/out-br/build/optee_test-1.0/ta/storage/storage.c:498
     880:	54000361 	b.ne	8ec <ta_storage_cmd_loop+0x88>
     884:	aa0103f5 	mov	x21, x1
/home/lagadanu/Desktop/qemu/out-br/build/optee_test-1.0/ta/storage/storage.c:506
     888:	910123b6 	add	x22, x29, #0x48
     88c:	910113b7 	add	x23, x29, #0x44
     890:	52800014 	mov	w20, #0x0                   	// #0
     894:	b94002a0 	ldr	w0, [x21]
     898:	aa1603e7 	mov	x7, x22
     89c:	52800006 	mov	w6, #0x0                   	// #0
     8a0:	d2800005 	mov	x5, #0x0                   	// #0
     8a4:	d2800004 	mov	x4, #0x0                   	// #0
     8a8:	52808083 	mov	w3, #0x404                 	// #1028
     8ac:	52800082 	mov	w2, #0x4                   	// #4
     8b0:	aa1703e1 	mov	x1, x23
/home/lagadanu/Desktop/qemu/out-br/build/optee_test-1.0/ta/storage/storage.c:505
     8b4:	b90047b4 	str	w20, [x29,#68]
/home/lagadanu/Desktop/qemu/out-br/build/optee_test-1.0/ta/storage/storage.c:504
     8b8:	f90027bf 	str	xzr, [x29,#72]
/home/lagadanu/Desktop/qemu/out-br/build/optee_test-1.0/ta/storage/storage.c:506
     8bc:	940007e2 	bl	2844 <TEE_CreatePersistentObject>
     8c0:	2a0003f3 	mov	w19, w0
/home/lagadanu/Desktop/qemu/out-br/build/optee_test-1.0/ta/storage/storage.c:511
     8c4:	34000200 	cbz	w0, 904 <ta_storage_cmd_loop+0xa0>
/home/lagadanu/Desktop/qemu/out-br/build/optee_test-1.0/ta/storage/storage.c:512
     8c8:	f0000044 	adrp	x4, b000 <PRIME_TABLE+0xd0>
     8cc:	913ac884 	add	x4, x4, #0xeb2
     8d0:	52800023 	mov	w3, #0x1                   	// #1
     8d4:	52800022 	mov	w2, #0x1                   	// #1
     8d8:	52804001 	mov	w1, #0x200                 	// #512
/home/lagadanu/Desktop/qemu/out-br/build/optee_test-1.0/ta/storage/storage.c:518
     8dc:	d0000040 	adrp	x0, a000 <brel+0x1ac>
     8e0:	91390000 	add	x0, x0, #0xe40
     8e4:	9100a000 	add	x0, x0, #0x28
     8e8:	94000093 	bl	b34 <trace_printf>
/home/lagadanu/Desktop/qemu/out-br/build/optee_test-1.0/ta/storage/storage.c:524
     8ec:	2a1303e0 	mov	w0, w19
     8f0:	f9401bf7 	ldr	x23, [sp,#48]
     8f4:	a94153f3 	ldp	x19, x20, [sp,#16]
     8f8:	a9425bf5 	ldp	x21, x22, [sp,#32]
     8fc:	a8c57bfd 	ldp	x29, x30, [sp],#80
     900:	d65f03c0 	ret
/home/lagadanu/Desktop/qemu/out-br/build/optee_test-1.0/ta/storage/storage.c:516
     904:	f94027a0 	ldr	x0, [x29,#72]
     908:	94000801 	bl	290c <TEE_CloseAndDeletePersistentObject1>
     90c:	2a0003f3 	mov	w19, w0
/home/lagadanu/Desktop/qemu/out-br/build/optee_test-1.0/ta/storage/storage.c:517
     910:	340000e0 	cbz	w0, 92c <ta_storage_cmd_loop+0xc8>
/home/lagadanu/Desktop/qemu/out-br/build/optee_test-1.0/ta/storage/storage.c:518
     914:	f0000044 	adrp	x4, b000 <PRIME_TABLE+0xd0>
     918:	52800023 	mov	w3, #0x1                   	// #1
     91c:	913ac884 	add	x4, x4, #0xeb2
     920:	52800022 	mov	w2, #0x1                   	// #1
     924:	528040c1 	mov	w1, #0x206                 	// #518
     928:	17ffffed 	b	8dc <ta_storage_cmd_loop+0x78>
/home/lagadanu/Desktop/qemu/out-br/build/optee_test-1.0/ta/storage/storage.c:502 (discriminator 2)
     92c:	11000694 	add	w20, w20, #0x1
     930:	7100529f 	cmp	w20, #0x14
     934:	54fffb01 	b.ne	894 <ta_storage_cmd_loop+0x30>
     938:	17ffffed 	b	8ec <ta_storage_cmd_loop+0x88>

000000000000093c <ta_storage_cmd_restrict_usage>:
ta_storage_cmd_restrict_usage():
/home/lagadanu/Desktop/qemu/out-br/build/optee_test-1.0/ta/storage/storage.c:531
     93c:	7100041f 	cmp	w0, #0x1
     940:	54000141 	b.ne	968 <ta_storage_cmd_restrict_usage+0x2c>
     944:	aa0103e0 	mov	x0, x1
/home/lagadanu/Desktop/qemu/out-br/build/optee_test-1.0/ta/storage/storage.c:528
     948:	a9bf7bfd 	stp	x29, x30, [sp,#-16]!
     94c:	910003fd 	mov	x29, sp
/home/lagadanu/Desktop/qemu/out-br/build/optee_test-1.0/ta/storage/storage.c:536
     950:	b9400421 	ldr	w1, [x1,#4]
     954:	b9400000 	ldr	w0, [x0]
     958:	9400060a 	bl	2180 <TEE_RestrictObjectUsage1>
/home/lagadanu/Desktop/qemu/out-br/build/optee_test-1.0/ta/storage/storage.c:537
     95c:	52800000 	mov	w0, #0x0                   	// #0
/home/lagadanu/Desktop/qemu/out-br/build/optee_test-1.0/ta/storage/storage.c:538
     960:	a8c17bfd 	ldp	x29, x30, [sp],#16
     964:	d65f03c0 	ret
/home/lagadanu/Desktop/qemu/out-br/build/optee_test-1.0/ta/storage/storage.c:531
     968:	129fff20 	mov	w0, #0xffff0006            	// #-65530
     96c:	d65f03c0 	ret

0000000000000970 <ta_storage_cmd_alloc_obj>:
ta_storage_cmd_alloc_obj():
/home/lagadanu/Desktop/qemu/out-br/build/optee_test-1.0/ta/storage/storage.c:545
     970:	7100841f 	cmp	w0, #0x21
     974:	540001a1 	b.ne	9a8 <ta_storage_cmd_alloc_obj+0x38>
/home/lagadanu/Desktop/qemu/out-br/build/optee_test-1.0/ta/storage/storage.c:541
     978:	a9bd7bfd 	stp	x29, x30, [sp,#-48]!
     97c:	910003fd 	mov	x29, sp
     980:	f9000bf3 	str	x19, [sp,#16]
     984:	aa0103f3 	mov	x19, x1
/home/lagadanu/Desktop/qemu/out-br/build/optee_test-1.0/ta/storage/storage.c:550
     988:	9100a3a2 	add	x2, x29, #0x28
     98c:	29400420 	ldp	w0, w1, [x1]
     990:	9400068a 	bl	23b8 <TEE_AllocateTransientObject>
/home/lagadanu/Desktop/qemu/out-br/build/optee_test-1.0/ta/storage/storage.c:552
     994:	f94017a1 	ldr	x1, [x29,#40]
     998:	b9001261 	str	w1, [x19,#16]
/home/lagadanu/Desktop/qemu/out-br/build/optee_test-1.0/ta/storage/storage.c:554
     99c:	f9400bf3 	ldr	x19, [sp,#16]
     9a0:	a8c37bfd 	ldp	x29, x30, [sp],#48
     9a4:	d65f03c0 	ret
/home/lagadanu/Desktop/qemu/out-br/build/optee_test-1.0/ta/storage/storage.c:545
     9a8:	129fff20 	mov	w0, #0xffff0006            	// #-65530
     9ac:	d65f03c0 	ret

00000000000009b0 <ta_storage_cmd_free_obj>:
ta_storage_cmd_free_obj():
/home/lagadanu/Desktop/qemu/out-br/build/optee_test-1.0/ta/storage/storage.c:560
     9b0:	7100041f 	cmp	w0, #0x1
     9b4:	54000101 	b.ne	9d4 <ta_storage_cmd_free_obj+0x24>
/home/lagadanu/Desktop/qemu/out-br/build/optee_test-1.0/ta/storage/storage.c:557
     9b8:	a9bf7bfd 	stp	x29, x30, [sp,#-16]!
     9bc:	910003fd 	mov	x29, sp
/home/lagadanu/Desktop/qemu/out-br/build/optee_test-1.0/ta/storage/storage.c:565
     9c0:	b9400020 	ldr	w0, [x1]
     9c4:	94000696 	bl	241c <TEE_FreeTransientObject>
/home/lagadanu/Desktop/qemu/out-br/build/optee_test-1.0/ta/storage/storage.c:566
     9c8:	52800000 	mov	w0, #0x0                   	// #0
/home/lagadanu/Desktop/qemu/out-br/build/optee_test-1.0/ta/storage/storage.c:567
     9cc:	a8c17bfd 	ldp	x29, x30, [sp],#16
     9d0:	d65f03c0 	ret
/home/lagadanu/Desktop/qemu/out-br/build/optee_test-1.0/ta/storage/storage.c:560
     9d4:	129fff20 	mov	w0, #0xffff0006            	// #-65530
     9d8:	d65f03c0 	ret

00000000000009dc <ta_storage_cmd_reset_obj>:
ta_storage_cmd_reset_obj():
/home/lagadanu/Desktop/qemu/out-br/build/optee_test-1.0/ta/storage/storage.c:573
     9dc:	7100041f 	cmp	w0, #0x1
     9e0:	54000101 	b.ne	a00 <ta_storage_cmd_reset_obj+0x24>
/home/lagadanu/Desktop/qemu/out-br/build/optee_test-1.0/ta/storage/storage.c:570
     9e4:	a9bf7bfd 	stp	x29, x30, [sp,#-16]!
     9e8:	910003fd 	mov	x29, sp
/home/lagadanu/Desktop/qemu/out-br/build/optee_test-1.0/ta/storage/storage.c:578
     9ec:	b9400020 	ldr	w0, [x1]
     9f0:	940006a0 	bl	2470 <TEE_ResetTransientObject>
/home/lagadanu/Desktop/qemu/out-br/build/optee_test-1.0/ta/storage/storage.c:579
     9f4:	52800000 	mov	w0, #0x0                   	// #0
/home/lagadanu/Desktop/qemu/out-br/build/optee_test-1.0/ta/storage/storage.c:580
     9f8:	a8c17bfd 	ldp	x29, x30, [sp],#16
     9fc:	d65f03c0 	ret
/home/lagadanu/Desktop/qemu/out-br/build/optee_test-1.0/ta/storage/storage.c:573
     a00:	129fff20 	mov	w0, #0xffff0006            	// #-65530
     a04:	d65f03c0 	ret

0000000000000a08 <ta_storage_cmd_get_obj_info>:
ta_storage_cmd_get_obj_info():
/home/lagadanu/Desktop/qemu/out-br/build/optee_test-1.0/ta/storage/storage.c:589
     a08:	7101841f 	cmp	w0, #0x61
     a0c:	54000081 	b.ne	a1c <ta_storage_cmd_get_obj_info+0x14>
/home/lagadanu/Desktop/qemu/out-br/build/optee_test-1.0/ta/storage/storage.c:595
     a10:	b9400020 	ldr	w0, [x1]
     a14:	f9400821 	ldr	x1, [x1,#16]
     a18:	140005ca 	b	2140 <TEE_GetObjectInfo1>
/home/lagadanu/Desktop/qemu/out-br/build/optee_test-1.0/ta/storage/storage.c:598
     a1c:	129fff20 	mov	w0, #0xffff0006            	// #-65530
     a20:	d65f03c0 	ret

0000000000000a24 <TA_CreateEntryPoint>:
TA_CreateEntryPoint():
/home/lagadanu/Desktop/qemu/out-br/build/optee_test-1.0/ta/storage/ta_entry.c:41
     a24:	52800000 	mov	w0, #0x0                   	// #0
     a28:	d65f03c0 	ret

0000000000000a2c <TA_DestroyEntryPoint>:
TA_DestroyEntryPoint():
/home/lagadanu/Desktop/qemu/out-br/build/optee_test-1.0/ta/storage/ta_entry.c:45
     a2c:	d65f03c0 	ret

0000000000000a30 <TA_OpenSessionEntryPoint>:
TA_OpenSessionEntryPoint():
/home/lagadanu/Desktop/qemu/out-br/build/optee_test-1.0/ta/storage/ta_entry.c:57
     a30:	52800000 	mov	w0, #0x0                   	// #0
     a34:	d65f03c0 	ret

0000000000000a38 <TA_CloseSessionEntryPoint>:
TA_CloseSessionEntryPoint():
/home/lagadanu/Desktop/qemu/out-br/build/optee_test-1.0/ta/storage/ta_entry.c:61
     a38:	d65f03c0 	ret

0000000000000a3c <TA_InvokeCommandEntryPoint>:
TA_InvokeCommandEntryPoint():
/home/lagadanu/Desktop/qemu/out-br/build/optee_test-1.0/ta/storage/ta_entry.c:69
     a3c:	2a0103e4 	mov	w4, w1
     a40:	2a0203e0 	mov	w0, w2
     a44:	aa0303e1 	mov	x1, x3
/home/lagadanu/Desktop/qemu/out-br/build/optee_test-1.0/ta/storage/ta_entry.c:72
     a48:	7100649f 	cmp	w4, #0x19
     a4c:	54000528 	b.hi	af0 <TA_InvokeCommandEntryPoint+0xb4>
     a50:	f0000042 	adrp	x2, b000 <PRIME_TABLE+0xd0>
     a54:	91353042 	add	x2, x2, #0xd4c
     a58:	38644842 	ldrb	w2, [x2,w4,uxtw]
     a5c:	10000063 	adr	x3, a68 <TA_InvokeCommandEntryPoint+0x2c>
     a60:	8b228862 	add	x2, x3, w2, sxtb #2
     a64:	d61f0040 	br	x2
/home/lagadanu/Desktop/qemu/out-br/build/optee_test-1.0/ta/storage/ta_entry.c:75
     a68:	aa0103e2 	mov	x2, x1
     a6c:	2a0003e1 	mov	w1, w0
     a70:	2a0403e0 	mov	w0, w4
     a74:	17fffd6b 	b	20 <ta_storage_cmd_open>
/home/lagadanu/Desktop/qemu/out-br/build/optee_test-1.0/ta/storage/ta_entry.c:78
     a78:	17fffdf2 	b	240 <ta_storage_cmd_close>
/home/lagadanu/Desktop/qemu/out-br/build/optee_test-1.0/ta/storage/ta_entry.c:81
     a7c:	17fffdfc 	b	26c <ta_storage_cmd_read>
/home/lagadanu/Desktop/qemu/out-br/build/optee_test-1.0/ta/storage/ta_entry.c:84
     a80:	17fffe04 	b	290 <ta_storage_cmd_write>
/home/lagadanu/Desktop/qemu/out-br/build/optee_test-1.0/ta/storage/ta_entry.c:88
     a84:	aa0103e2 	mov	x2, x1
     a88:	2a0003e1 	mov	w1, w0
     a8c:	2a0403e0 	mov	w0, w4
     a90:	17fffd90 	b	d0 <ta_storage_cmd_create>
/home/lagadanu/Desktop/qemu/out-br/build/optee_test-1.0/ta/storage/ta_entry.c:92
     a94:	aa0103e2 	mov	x2, x1
     a98:	2a0003e1 	mov	w1, w0
     a9c:	2a0403e0 	mov	w0, w4
     aa0:	17fffdbb 	b	18c <ta_storage_cmd_create_overwrite>
/home/lagadanu/Desktop/qemu/out-br/build/optee_test-1.0/ta/storage/ta_entry.c:95
     aa4:	17fffe03 	b	2b0 <ta_storage_cmd_seek>
/home/lagadanu/Desktop/qemu/out-br/build/optee_test-1.0/ta/storage/ta_entry.c:98
     aa8:	17fffe18 	b	308 <ta_storage_cmd_unlink>
/home/lagadanu/Desktop/qemu/out-br/build/optee_test-1.0/ta/storage/ta_entry.c:102
     aac:	aa0103e2 	mov	x2, x1
     ab0:	2a0003e1 	mov	w1, w0
     ab4:	2a0403e0 	mov	w0, w4
     ab8:	17fffe1f 	b	334 <ta_storage_cmd_rename>
/home/lagadanu/Desktop/qemu/out-br/build/optee_test-1.0/ta/storage/ta_entry.c:105
     abc:	17fffe49 	b	3e0 <ta_storage_cmd_trunc>
/home/lagadanu/Desktop/qemu/out-br/build/optee_test-1.0/ta/storage/ta_entry.c:108
     ac0:	17fffe4e 	b	3f8 <ta_storage_cmd_alloc_enum>
/home/lagadanu/Desktop/qemu/out-br/build/optee_test-1.0/ta/storage/ta_entry.c:111
     ac4:	17fffe5c 	b	434 <ta_storage_cmd_free_enum>
/home/lagadanu/Desktop/qemu/out-br/build/optee_test-1.0/ta/storage/ta_entry.c:114
     ac8:	17fffe66 	b	460 <ta_storage_cmd_reset_enum>
/home/lagadanu/Desktop/qemu/out-br/build/optee_test-1.0/ta/storage/ta_entry.c:117
     acc:	17fffe70 	b	48c <ta_storage_cmd_start_enum>
/home/lagadanu/Desktop/qemu/out-br/build/optee_test-1.0/ta/storage/ta_entry.c:120
     ad0:	17fffe75 	b	4a4 <ta_storage_cmd_next_enum>
/home/lagadanu/Desktop/qemu/out-br/build/optee_test-1.0/ta/storage/ta_entry.c:123
     ad4:	17fffe99 	b	538 <ta_storage_cmd_key_in_persistent>
/home/lagadanu/Desktop/qemu/out-br/build/optee_test-1.0/ta/storage/ta_entry.c:126
     ad8:	17ffff63 	b	864 <ta_storage_cmd_loop>
/home/lagadanu/Desktop/qemu/out-br/build/optee_test-1.0/ta/storage/ta_entry.c:129
     adc:	17ffff98 	b	93c <ta_storage_cmd_restrict_usage>
/home/lagadanu/Desktop/qemu/out-br/build/optee_test-1.0/ta/storage/ta_entry.c:132
     ae0:	17ffffa4 	b	970 <ta_storage_cmd_alloc_obj>
/home/lagadanu/Desktop/qemu/out-br/build/optee_test-1.0/ta/storage/ta_entry.c:135
     ae4:	17ffffb3 	b	9b0 <ta_storage_cmd_free_obj>
/home/lagadanu/Desktop/qemu/out-br/build/optee_test-1.0/ta/storage/ta_entry.c:138
     ae8:	17ffffbd 	b	9dc <ta_storage_cmd_reset_obj>
/home/lagadanu/Desktop/qemu/out-br/build/optee_test-1.0/ta/storage/ta_entry.c:141
     aec:	17ffffc7 	b	a08 <ta_storage_cmd_get_obj_info>
/home/lagadanu/Desktop/qemu/out-br/build/optee_test-1.0/ta/storage/ta_entry.c:146
     af0:	129fff20 	mov	w0, #0xffff0006            	// #-65530
     af4:	d65f03c0 	ret

0000000000000af8 <tahead_get_trace_level>:
tahead_get_trace_level():
/home/lagadanu/Desktop/qemu/optee_os/out/arm/export-ta_arm64/src/user_ta_header.c:107
     af8:	52800040 	mov	w0, #0x2                   	// #2
     afc:	d65f03c0 	ret

0000000000000b00 <trace_set_level>:
trace_set_level():
/home/lagadanu/Desktop/qemu/optee_os/lib/libutils/ext/trace.c:26
     b00:	51000401 	sub	w1, w0, #0x1
     b04:	71000c3f 	cmp	w1, #0x3
     b08:	90000061 	adrp	x1, c000 <__func__.3181+0x2c8>
     b0c:	54000088 	b.hi	b1c <trace_set_level+0x1c>
/home/lagadanu/Desktop/qemu/optee_os/lib/libutils/ext/trace.c:29
     b10:	f9436821 	ldr	x1, [x1,#1744]
     b14:	b9000020 	str	w0, [x1]
     b18:	d65f03c0 	ret
     b1c:	52800080 	mov	w0, #0x4                   	// #4
     b20:	17fffffc 	b	b10 <trace_set_level+0x10>

0000000000000b24 <trace_get_level>:
trace_get_level():
/home/lagadanu/Desktop/qemu/optee_os/lib/libutils/ext/trace.c:35
     b24:	90000060 	adrp	x0, c000 <__func__.3181+0x2c8>
     b28:	f9436800 	ldr	x0, [x0,#1744]
     b2c:	b9400000 	ldr	w0, [x0]
     b30:	d65f03c0 	ret

0000000000000b34 <trace_printf>:
trace_printf():
/home/lagadanu/Desktop/qemu/optee_os/lib/libutils/ext/trace.c:97
     b34:	d108c3ff 	sub	sp, sp, #0x230
     b38:	a9007bfd 	stp	x29, x30, [sp]
     b3c:	910003fd 	mov	x29, sp
     b40:	f9010fa5 	str	x5, [x29,#536]
     b44:	910403a5 	add	x5, x29, #0x100
     b48:	a9046bf9 	stp	x25, x26, [sp,#64]
/home/lagadanu/Desktop/qemu/optee_os/lib/libutils/ext/trace.c:103
     b4c:	72001c79 	ands	w25, w3, #0xff
/home/lagadanu/Desktop/qemu/optee_os/lib/libutils/ext/trace.c:97
     b50:	a90153f3 	stp	x19, x20, [sp,#16]
     b54:	a9025bf5 	stp	x21, x22, [sp,#32]
     b58:	a90363f7 	stp	x23, x24, [sp,#48]
     b5c:	f90113a6 	str	x6, [x29,#544]
     b60:	f90117a7 	str	x7, [x29,#552]
     b64:	3d8024a0 	str	q0, [x5,#144]
     b68:	3d8028a1 	str	q1, [x5,#160]
     b6c:	3d802ca2 	str	q2, [x5,#176]
     b70:	3d8030a3 	str	q3, [x5,#192]
     b74:	3d8034a4 	str	q4, [x5,#208]
     b78:	3d8038a5 	str	q5, [x5,#224]
     b7c:	3d803ca6 	str	q6, [x5,#240]
     b80:	910803a5 	add	x5, x29, #0x200
     b84:	3d8000a7 	str	q7, [x5]
/home/lagadanu/Desktop/qemu/optee_os/lib/libutils/ext/trace.c:103
     b88:	540008a0 	b.eq	c9c <trace_printf+0x168>
/home/lagadanu/Desktop/qemu/optee_os/lib/libutils/ext/trace.c:103 (discriminator 1)
     b8c:	90000063 	adrp	x3, c000 <__func__.3181+0x2c8>
     b90:	f9436863 	ldr	x3, [x3,#1744]
     b94:	b9400063 	ldr	w3, [x3]
     b98:	6b02007f 	cmp	w3, w2
     b9c:	5400072b 	b.lt	c80 <trace_printf+0x14c>
trace_level_to_string():
/home/lagadanu/Desktop/qemu/optee_os/lib/libutils/ext/trace.c:52
     ba0:	51000443 	sub	w3, w2, #0x1
     ba4:	71000c7f 	cmp	w3, #0x3
/home/lagadanu/Desktop/qemu/optee_os/lib/libutils/ext/trace.c:55
     ba8:	d0000043 	adrp	x3, a000 <brel+0x1ac>
/home/lagadanu/Desktop/qemu/optee_os/lib/libutils/ext/trace.c:52
     bac:	1a9f9045 	csel	w5, w2, wzr, ls
/home/lagadanu/Desktop/qemu/optee_os/lib/libutils/ext/trace.c:55
     bb0:	913aa063 	add	x3, x3, #0xea8
     bb4:	3865c863 	ldrb	w3, [x3,w5,sxtw]
trace_printf():
/home/lagadanu/Desktop/qemu/optee_os/lib/libutils/ext/trace.c:107
     bb8:	910243b4 	add	x20, x29, #0x90
     bbc:	2a0203f3 	mov	w19, w2
     bc0:	2a0103f8 	mov	w24, w1
     bc4:	aa0003f6 	mov	x22, x0
     bc8:	f0000042 	adrp	x2, b000 <PRIME_TABLE+0xd0>
     bcc:	aa0403f7 	mov	x23, x4
     bd0:	913d9442 	add	x2, x2, #0xf65
     bd4:	d2802001 	mov	x1, #0x100                 	// #256
     bd8:	aa1403e0 	mov	x0, x20
     bdc:	94000366 	bl	1974 <snprintk>
/home/lagadanu/Desktop/qemu/optee_os/lib/libutils/ext/trace.c:109
     be0:	37f80500 	tbnz	w0, #31, c80 <trace_printf+0x14c>
/home/lagadanu/Desktop/qemu/optee_os/lib/libutils/ext/trace.c:114
     be4:	90000063 	adrp	x3, c000 <__func__.3181+0x2c8>
/home/lagadanu/Desktop/qemu/optee_os/lib/libutils/ext/trace.c:111
     be8:	93407c15 	sxtw	x21, w0
/home/lagadanu/Desktop/qemu/optee_os/lib/libutils/ext/trace.c:114
     bec:	d280201a 	mov	x26, #0x100                 	// #256
     bf0:	f0000042 	adrp	x2, b000 <PRIME_TABLE+0xd0>
     bf4:	f9437063 	ldr	x3, [x3,#1760]
     bf8:	913da442 	add	x2, x2, #0xf69
     bfc:	cb150341 	sub	x1, x26, x21
     c00:	8b150280 	add	x0, x20, x21
     c04:	9400035c 	bl	1974 <snprintk>
/home/lagadanu/Desktop/qemu/optee_os/lib/libutils/ext/trace.c:116
     c08:	37f803c0 	tbnz	w0, #31, c80 <trace_printf+0x14c>
/home/lagadanu/Desktop/qemu/optee_os/lib/libutils/ext/trace.c:118
     c0c:	8b20c2b5 	add	x21, x21, w0, sxtw
/home/lagadanu/Desktop/qemu/optee_os/lib/libutils/ext/trace.c:120
     c10:	340005d9 	cbz	w25, cc8 <trace_printf+0x194>
/home/lagadanu/Desktop/qemu/optee_os/lib/libutils/ext/trace.c:120 (discriminator 1)
     c14:	52800342 	mov	w2, #0x1a                  	// #26
     c18:	1ad32440 	lsr	w0, w2, w19
     c1c:	36000560 	tbz	w0, #0, cc8 <trace_printf+0x194>
/home/lagadanu/Desktop/qemu/optee_os/lib/libutils/ext/trace.c:122
     c20:	8b150299 	add	x25, x20, x21
     c24:	cb15035a 	sub	x26, x26, x21
print_thread_id():
/home/lagadanu/Desktop/qemu/optee_os/lib/libutils/ext/trace.c:65
     c28:	94000394 	bl	1a78 <trace_ext_get_thread_id>
/home/lagadanu/Desktop/qemu/optee_os/lib/libutils/ext/trace.c:67
     c2c:	37f803c0 	tbnz	w0, #31, ca4 <trace_printf+0x170>
/home/lagadanu/Desktop/qemu/optee_os/lib/libutils/ext/trace.c:68
     c30:	2a0003e4 	mov	w4, w0
     c34:	f0000042 	adrp	x2, b000 <PRIME_TABLE+0xd0>
     c38:	52800023 	mov	w3, #0x1                   	// #1
     c3c:	913db442 	add	x2, x2, #0xf6d
     c40:	aa1a03e1 	mov	x1, x26
     c44:	aa1903e0 	mov	x0, x25
     c48:	9400034b 	bl	1974 <snprintk>
trace_printf():
/home/lagadanu/Desktop/qemu/optee_os/lib/libutils/ext/trace.c:129
     c4c:	37f801a0 	tbnz	w0, #31, c80 <trace_printf+0x14c>
/home/lagadanu/Desktop/qemu/optee_os/lib/libutils/ext/trace.c:131
     c50:	8b20c2b3 	add	x19, x21, w0, sxtw
/home/lagadanu/Desktop/qemu/optee_os/lib/libutils/ext/trace.c:133
     c54:	b4000476 	cbz	x22, ce0 <trace_printf+0x1ac>
/home/lagadanu/Desktop/qemu/optee_os/lib/libutils/ext/trace.c:134
     c58:	8b130280 	add	x0, x20, x19
     c5c:	2a1803e4 	mov	w4, w24
     c60:	aa1603e3 	mov	x3, x22
     c64:	f0000042 	adrp	x2, b000 <PRIME_TABLE+0xd0>
     c68:	d2802001 	mov	x1, #0x100                 	// #256
     c6c:	913de042 	add	x2, x2, #0xf78
     c70:	cb130021 	sub	x1, x1, x19
     c74:	94000340 	bl	1974 <snprintk>
/home/lagadanu/Desktop/qemu/optee_os/lib/libutils/ext/trace.c:138
     c78:	8b20c273 	add	x19, x19, w0, sxtw
/home/lagadanu/Desktop/qemu/optee_os/lib/libutils/ext/trace.c:136
     c7c:	36f80320 	tbz	w0, #31, ce0 <trace_printf+0x1ac>
/home/lagadanu/Desktop/qemu/optee_os/lib/libutils/ext/trace.c:164
     c80:	a94153f3 	ldp	x19, x20, [sp,#16]
     c84:	a9425bf5 	ldp	x21, x22, [sp,#32]
     c88:	a94363f7 	ldp	x23, x24, [sp,#48]
     c8c:	a9446bf9 	ldp	x25, x26, [sp,#64]
     c90:	a9407bfd 	ldp	x29, x30, [sp]
     c94:	9108c3ff 	add	sp, sp, #0x230
     c98:	d65f03c0 	ret
trace_level_to_string():
/home/lagadanu/Desktop/qemu/optee_os/lib/libutils/ext/trace.c:50
     c9c:	528009a3 	mov	w3, #0x4d                  	// #77
     ca0:	17ffffc6 	b	bb8 <trace_printf+0x84>
print_thread_id():
/home/lagadanu/Desktop/qemu/optee_os/lib/libutils/ext/trace.c:70
     ca4:	f0000044 	adrp	x4, b000 <PRIME_TABLE+0xd0>
     ca8:	52800023 	mov	w3, #0x1                   	// #1
     cac:	913f4884 	add	x4, x4, #0xfd2
     cb0:	f0000042 	adrp	x2, b000 <PRIME_TABLE+0xd0>
     cb4:	aa1a03e1 	mov	x1, x26
     cb8:	913dcc42 	add	x2, x2, #0xf73
     cbc:	aa1903e0 	mov	x0, x25
     cc0:	9400032d 	bl	1974 <snprintk>
     cc4:	17ffffe2 	b	c4c <trace_printf+0x118>
trace_printf():
/home/lagadanu/Desktop/qemu/optee_os/lib/libutils/ext/trace.c:142
     cc8:	f103fabf 	cmp	x21, #0xfe
     ccc:	54fffda8 	b.hi	c80 <trace_printf+0x14c>
/home/lagadanu/Desktop/qemu/optee_os/lib/libutils/ext/trace.c:144
     cd0:	910006b3 	add	x19, x21, #0x1
     cd4:	52800400 	mov	w0, #0x20                  	// #32
     cd8:	38356a80 	strb	w0, [x20,x21]
/home/lagadanu/Desktop/qemu/optee_os/lib/libutils/ext/trace.c:145
     cdc:	38336a9f 	strb	wzr, [x20,x19]
/home/lagadanu/Desktop/qemu/optee_os/lib/libutils/ext/trace.c:148
     ce0:	9108c3a0 	add	x0, x29, #0x230
     ce4:	a90703a0 	stp	x0, x0, [x29,#112]
     ce8:	910843a0 	add	x0, x29, #0x210
     cec:	f90043a0 	str	x0, [x29,#128]
     cf0:	128002e0 	mov	w0, #0xffffffe8            	// #-24
     cf4:	b9008ba0 	str	w0, [x29,#136]
     cf8:	12800fe0 	mov	w0, #0xffffff80            	// #-128
     cfc:	b9008fa0 	str	w0, [x29,#140]
/home/lagadanu/Desktop/qemu/optee_os/lib/libutils/ext/trace.c:149
     d00:	a94707a0 	ldp	x0, x1, [x29,#112]
     d04:	a90507a0 	stp	x0, x1, [x29,#80]
     d08:	a94807a0 	ldp	x0, x1, [x29,#128]
     d0c:	a90607a0 	stp	x0, x1, [x29,#96]
     d10:	d2802001 	mov	x1, #0x100                 	// #256
     d14:	cb130021 	sub	x1, x1, x19
     d18:	8b130280 	add	x0, x20, x19
     d1c:	910143a3 	add	x3, x29, #0x50
     d20:	aa1703e2 	mov	x2, x23
     d24:	940002ff 	bl	1920 <vsnprintk>
/home/lagadanu/Desktop/qemu/optee_os/lib/libutils/ext/trace.c:152
     d28:	7100001f 	cmp	w0, #0x0
     d2c:	8b20c261 	add	x1, x19, w0, sxtw
     d30:	9a93c033 	csel	x19, x1, x19, gt
     d34:	d2801fc0 	mov	x0, #0xfe                  	// #254
     d38:	f103fa7f 	cmp	x19, #0xfe
     d3c:	9a809273 	csel	x19, x19, x0, ls
/home/lagadanu/Desktop/qemu/optee_os/lib/libutils/ext/trace.c:157
     d40:	52800140 	mov	w0, #0xa                   	// #10
     d44:	38336a80 	strb	w0, [x20,x19]
/home/lagadanu/Desktop/qemu/optee_os/lib/libutils/ext/trace.c:158
     d48:	b4000093 	cbz	x19, d58 <trace_printf+0x224>
/home/lagadanu/Desktop/qemu/optee_os/lib/libutils/ext/trace.c:158 (discriminator 1)
     d4c:	38736a80 	ldrb	w0, [x20,x19]
     d50:	7100281f 	cmp	w0, #0xa
     d54:	540000c0 	b.eq	d6c <trace_printf+0x238>
/home/lagadanu/Desktop/qemu/optee_os/lib/libutils/ext/trace.c:161
     d58:	91024ba0 	add	x0, x29, #0x92
     d5c:	3833681f 	strb	wzr, [x0,x19]
/home/lagadanu/Desktop/qemu/optee_os/lib/libutils/ext/trace.c:163
     d60:	aa1403e0 	mov	x0, x20
     d64:	9400033b 	bl	1a50 <trace_ext_puts>
     d68:	17ffffc6 	b	c80 <trace_printf+0x14c>
/home/lagadanu/Desktop/qemu/optee_os/lib/libutils/ext/trace.c:159
     d6c:	d1000673 	sub	x19, x19, #0x1
     d70:	17fffff6 	b	d48 <trace_printf+0x214>

0000000000000d74 <dhex_dump>:
dhex_dump():
/home/lagadanu/Desktop/qemu/optee_os/lib/libutils/ext/trace.c:275
     d74:	d65f03c0 	ret

0000000000000d78 <__vsnprintf>:
__vsnprintf():
/home/lagadanu/Desktop/qemu/optee_os/lib/libutils/ext/snprintk.c:137
     d78:	d103c3ff 	sub	sp, sp, #0xf0
     d7c:	a9037bfd 	stp	x29, x30, [sp,#48]
     d80:	9100c3fd 	add	x29, sp, #0x30
     d84:	a90803a1 	stp	x1, x0, [x29,#128]
     d88:	12001c80 	and	w0, w4, #0xff
     d8c:	b9007fa0 	str	w0, [x29,#124]
/home/lagadanu/Desktop/qemu/optee_os/lib/libutils/ext/snprintk.c:141
     d90:	f94047a0 	ldr	x0, [x29,#136]
/home/lagadanu/Desktop/qemu/optee_os/lib/libutils/ext/snprintk.c:137
     d94:	a90453f3 	stp	x19, x20, [sp,#64]
     d98:	a90873fb 	stp	x27, x28, [sp,#128]
kprintf():
/home/lagadanu/Desktop/qemu/optee_os/lib/libutils/ext/snprintk.c:267
     d9c:	5280001b 	mov	w27, #0x0                   	// #0
     da0:	b9401874 	ldr	w20, [x3,#24]
     da4:	a9407073 	ldp	x19, x28, [x3]
__vsnprintf():
/home/lagadanu/Desktop/qemu/optee_os/lib/libutils/ext/snprintk.c:137
     da8:	a90663f7 	stp	x23, x24, [sp,#96]
     dac:	a9076bf9 	stp	x25, x26, [sp,#112]
     db0:	910263b8 	add	x24, x29, #0x98
     db4:	a9055bf5 	stp	x21, x22, [sp,#80]
     db8:	aa0203f9 	mov	x25, x2
/home/lagadanu/Desktop/qemu/optee_os/lib/libutils/ext/snprintk.c:141
     dbc:	8b01001a 	add	x26, x0, x1
     dc0:	aa0003f6 	mov	x22, x0
kprintf():
/home/lagadanu/Desktop/qemu/optee_os/lib/libutils/ext/snprintk.c:269
     dc4:	d2800017 	mov	x23, #0x0                   	// #0
/home/lagadanu/Desktop/qemu/optee_os/lib/libutils/ext/snprintk.c:275
     dc8:	39400320 	ldrb	w0, [x25]
     dcc:	7100941f 	cmp	w0, #0x25
     dd0:	7a401804 	ccmp	w0, #0x0, #0x4, ne
     dd4:	540003c1 	b.ne	e4c <__vsnprintf+0xd4>
/home/lagadanu/Desktop/qemu/optee_os/lib/libutils/ext/snprintk.c:279
     dd8:	34005780 	cbz	w0, 18c8 <__vsnprintf+0xb50>
/home/lagadanu/Desktop/qemu/optee_os/lib/libutils/ext/snprintk.c:287
     ddc:	12800004 	mov	w4, #0xffffffff            	// #-1
/home/lagadanu/Desktop/qemu/optee_os/lib/libutils/ext/snprintk.c:282
     de0:	91000722 	add	x2, x25, #0x1
     de4:	2a1403e0 	mov	w0, w20
/home/lagadanu/Desktop/qemu/optee_os/lib/libutils/ext/snprintk.c:324
     de8:	2a0403e5 	mov	w5, w4
/home/lagadanu/Desktop/qemu/optee_os/lib/libutils/ext/snprintk.c:288
     dec:	52800001 	mov	w1, #0x0                   	// #0
/home/lagadanu/Desktop/qemu/optee_os/lib/libutils/ext/snprintk.c:286
     df0:	5280000a 	mov	w10, #0x0                   	// #0
/home/lagadanu/Desktop/qemu/optee_os/lib/libutils/ext/snprintk.c:284
     df4:	52800015 	mov	w21, #0x0                   	// #0
/home/lagadanu/Desktop/qemu/optee_os/lib/libutils/ext/snprintk.c:299
     df8:	52800406 	mov	w6, #0x20                  	// #32
/home/lagadanu/Desktop/qemu/optee_os/lib/libutils/ext/snprintk.c:290
     dfc:	39400048 	ldrb	w8, [x2]
     e00:	91000459 	add	x25, x2, #0x1
/home/lagadanu/Desktop/qemu/optee_os/lib/libutils/ext/snprintk.c:291
     e04:	71018d1f 	cmp	w8, #0x63
     e08:	54001b80 	b.eq	1178 <__vsnprintf+0x400>
     e0c:	5400080c 	b.gt	f0c <__vsnprintf+0x194>
     e10:	7100c11f 	cmp	w8, #0x30
     e14:	54001960 	b.eq	1140 <__vsnprintf+0x3c8>
     e18:	540003cc 	b.gt	e90 <__vsnprintf+0x118>
     e1c:	7100a91f 	cmp	w8, #0x2a
     e20:	540012c0 	b.eq	1078 <__vsnprintf+0x300>
     e24:	5400024c 	b.gt	e6c <__vsnprintf+0xf4>
     e28:	7100811f 	cmp	w8, #0x20
     e2c:	540011c0 	b.eq	1064 <__vsnprintf+0x2ec>
     e30:	71008d1f 	cmp	w8, #0x23
     e34:	540011e0 	b.eq	1070 <__vsnprintf+0x2f8>
/home/lagadanu/Desktop/qemu/optee_os/lib/libutils/ext/snprintk.c:541
     e38:	34005488 	cbz	w8, 18c8 <__vsnprintf+0xb50>
/home/lagadanu/Desktop/qemu/optee_os/lib/libutils/ext/snprintk.c:545
     e3c:	910303a3 	add	x3, x29, #0xc0
     e40:	2a0003f4 	mov	w20, w0
     e44:	381d8c68 	strb	w8, [x3,#-40]!
     e48:	140000d4 	b	1198 <__vsnprintf+0x420>
/home/lagadanu/Desktop/qemu/optee_os/lib/libutils/ext/snprintk.c:276
     e4c:	1100077b 	add	w27, w27, #0x1
/home/lagadanu/Desktop/qemu/optee_os/lib/libutils/ext/snprintk.c:277
     e50:	b40000b6 	cbz	x22, e64 <__vsnprintf+0xec>
     e54:	eb16035f 	cmp	x26, x22
     e58:	54000069 	b.ls	e64 <__vsnprintf+0xec>
     e5c:	390002c0 	strb	w0, [x22]
     e60:	910006d6 	add	x22, x22, #0x1
/home/lagadanu/Desktop/qemu/optee_os/lib/libutils/ext/snprintk.c:275
     e64:	91000739 	add	x25, x25, #0x1
     e68:	17ffffd8 	b	dc8 <__vsnprintf+0x50>
/home/lagadanu/Desktop/qemu/optee_os/lib/libutils/ext/snprintk.c:291
     e6c:	7100b51f 	cmp	w8, #0x2d
     e70:	54001120 	b.eq	1094 <__vsnprintf+0x31c>
     e74:	7100b91f 	cmp	w8, #0x2e
     e78:	54001280 	b.eq	10c8 <__vsnprintf+0x350>
     e7c:	7100ad1f 	cmp	w8, #0x2b
     e80:	54fffdc1 	b.ne	e38 <__vsnprintf+0xc0>
/home/lagadanu/Desktop/qemu/optee_os/lib/libutils/ext/snprintk.c:319
     e84:	2a0803e1 	mov	w1, w8
/home/lagadanu/Desktop/qemu/optee_os/lib/libutils/ext/snprintk.c:322
     e88:	aa1903e2 	mov	x2, x25
     e8c:	17ffffdc 	b	dfc <__vsnprintf+0x84>
/home/lagadanu/Desktop/qemu/optee_os/lib/libutils/ext/snprintk.c:291
     e90:	7101111f 	cmp	w8, #0x44
     e94:	54001920 	b.eq	11b8 <__vsnprintf+0x440>
     e98:	5400018c 	b.gt	ec8 <__vsnprintf+0x150>
     e9c:	7100e51f 	cmp	w8, #0x39
     ea0:	54fffccc 	b.gt	e38 <__vsnprintf+0xc0>
     ea4:	5280000a 	mov	w10, #0x0                   	// #0
/home/lagadanu/Desktop/qemu/optee_os/lib/libutils/ext/snprintk.c:346
     ea8:	5100c108 	sub	w8, w8, #0x30
     eac:	52800142 	mov	w2, #0xa                   	// #10
     eb0:	1b02214a 	madd	w10, w10, w2, w8
/home/lagadanu/Desktop/qemu/optee_os/lib/libutils/ext/snprintk.c:347
     eb4:	38401728 	ldrb	w8, [x25],#1
/home/lagadanu/Desktop/qemu/optee_os/lib/libutils/ext/snprintk.c:348
     eb8:	5100c102 	sub	w2, w8, #0x30
     ebc:	7100245f 	cmp	w2, #0x9
     ec0:	54ffff49 	b.ls	ea8 <__vsnprintf+0x130>
     ec4:	17ffffd0 	b	e04 <__vsnprintf+0x8c>
/home/lagadanu/Desktop/qemu/optee_os/lib/libutils/ext/snprintk.c:291
     ec8:	7101551f 	cmp	w8, #0x55
     ecc:	54003c40 	b.eq	1654 <__vsnprintf+0x8dc>
     ed0:	7101611f 	cmp	w8, #0x58
     ed4:	54000ac0 	b.eq	102c <__vsnprintf+0x2b4>
     ed8:	71013d1f 	cmp	w8, #0x4f
     edc:	54fffae1 	b.ne	e38 <__vsnprintf+0xc0>
/home/lagadanu/Desktop/qemu/optee_os/lib/libutils/ext/snprintk.c:408
     ee0:	321c02b5 	orr	w21, w21, #0x10
/home/lagadanu/Desktop/qemu/optee_os/lib/libutils/ext/snprintk.c:411
     ee4:	36382695 	tbz	w21, #7, 13b4 <__vsnprintf+0x63c>
     ee8:	37f827e0 	tbnz	w0, #31, 13e4 <__vsnprintf+0x66c>
     eec:	91003e61 	add	x1, x19, #0xf
     ef0:	2a0003f4 	mov	w20, w0
     ef4:	aa1303e0 	mov	x0, x19
     ef8:	927df033 	and	x19, x1, #0xfffffffffffffff8
     efc:	f9400005 	ldr	x5, [x0]
/home/lagadanu/Desktop/qemu/optee_os/lib/libutils/ext/snprintk.c:412
     f00:	52800000 	mov	w0, #0x0                   	// #0
/home/lagadanu/Desktop/qemu/optee_os/lib/libutils/ext/snprintk.c:482
     f04:	52800001 	mov	w1, #0x0                   	// #0
     f08:	140000b8 	b	11e8 <__vsnprintf+0x470>
/home/lagadanu/Desktop/qemu/optee_os/lib/libutils/ext/snprintk.c:291
     f0c:	7101bd1f 	cmp	w8, #0x6f
     f10:	54fffea0 	b.eq	ee4 <__vsnprintf+0x16c>
     f14:	5400024c 	b.gt	f5c <__vsnprintf+0x1e4>
     f18:	7101a51f 	cmp	w8, #0x69
     f1c:	54001500 	b.eq	11bc <__vsnprintf+0x444>
     f20:	540000ec 	b.gt	f3c <__vsnprintf+0x1c4>
     f24:	7101911f 	cmp	w8, #0x64
     f28:	540014a0 	b.eq	11bc <__vsnprintf+0x444>
     f2c:	7101a11f 	cmp	w8, #0x68
     f30:	54fff841 	b.ne	e38 <__vsnprintf+0xc0>
/home/lagadanu/Desktop/qemu/optee_os/lib/libutils/ext/snprintk.c:352
     f34:	321a02b5 	orr	w21, w21, #0x40
     f38:	17ffffd4 	b	e88 <__vsnprintf+0x110>
/home/lagadanu/Desktop/qemu/optee_os/lib/libutils/ext/snprintk.c:291
     f3c:	7101b11f 	cmp	w8, #0x6c
     f40:	54001040 	b.eq	1148 <__vsnprintf+0x3d0>
     f44:	7101b91f 	cmp	w8, #0x6e
     f48:	54001d40 	b.eq	12f0 <__vsnprintf+0x578>
     f4c:	7101a91f 	cmp	w8, #0x6a
     f50:	54fff741 	b.ne	e38 <__vsnprintf+0xc0>
/home/lagadanu/Desktop/qemu/optee_os/lib/libutils/ext/snprintk.c:355
     f54:	321902b5 	orr	w21, w21, #0x80
     f58:	17ffffcc 	b	e88 <__vsnprintf+0x110>
/home/lagadanu/Desktop/qemu/optee_os/lib/libutils/ext/snprintk.c:291
     f5c:	7101d11f 	cmp	w8, #0x74
     f60:	54001040 	b.eq	1168 <__vsnprintf+0x3f0>
     f64:	5400046c 	b.gt	ff0 <__vsnprintf+0x278>
     f68:	7101c51f 	cmp	w8, #0x71
     f6c:	54000f60 	b.eq	1158 <__vsnprintf+0x3e0>
     f70:	540026cb 	b.lt	1448 <__vsnprintf+0x6d0>
     f74:	7101cd1f 	cmp	w8, #0x73
     f78:	54fff601 	b.ne	e38 <__vsnprintf+0xc0>
/home/lagadanu/Desktop/qemu/optee_os/lib/libutils/ext/snprintk.c:442
     f7c:	37f83480 	tbnz	w0, #31, 160c <__vsnprintf+0x894>
     f80:	91003e61 	add	x1, x19, #0xf
     f84:	2a0003f4 	mov	w20, w0
     f88:	aa1303e0 	mov	x0, x19
     f8c:	927df033 	and	x19, x1, #0xfffffffffffffff8
     f90:	f9400003 	ldr	x3, [x0]
/home/lagadanu/Desktop/qemu/optee_os/lib/libutils/ext/snprintk.c:444
     f94:	f0000040 	adrp	x0, b000 <PRIME_TABLE+0xd0>
     f98:	913dfc00 	add	x0, x0, #0xf7f
     f9c:	f100007f 	cmp	x3, #0x0
     fa0:	9a830003 	csel	x3, x0, x3, eq
/home/lagadanu/Desktop/qemu/optee_os/lib/libutils/ext/snprintk.c:445
     fa4:	3100049f 	cmn	w4, #0x1
     fa8:	540033e0 	b.eq	1624 <__vsnprintf+0x8ac>
/home/lagadanu/Desktop/qemu/optee_os/lib/libutils/ext/snprintk.c:451
     fac:	93407c82 	sxtw	x2, w4
     fb0:	aa0303e0 	mov	x0, x3
     fb4:	290d2ba8 	stp	w8, w10, [x29,#104]
     fb8:	52800001 	mov	w1, #0x0                   	// #0
     fbc:	f9003ba3 	str	x3, [x29,#112]
     fc0:	b9007ba4 	str	w4, [x29,#120]
     fc4:	94000289 	bl	19e8 <memchr>
/home/lagadanu/Desktop/qemu/optee_os/lib/libutils/ext/snprintk.c:453
     fc8:	294d2ba8 	ldp	w8, w10, [x29,#104]
     fcc:	b9407ba4 	ldr	w4, [x29,#120]
     fd0:	f9403ba3 	ldr	x3, [x29,#112]
     fd4:	b4000080 	cbz	x0, fe4 <__vsnprintf+0x26c>
/home/lagadanu/Desktop/qemu/optee_os/lib/libutils/ext/snprintk.c:454
     fd8:	cb030000 	sub	x0, x0, x3
     fdc:	6b00009f 	cmp	w4, w0
     fe0:	1a80d084 	csel	w4, w4, w0, le
/home/lagadanu/Desktop/qemu/optee_os/lib/libutils/ext/snprintk.c:285
     fe4:	52800000 	mov	w0, #0x0                   	// #0
/home/lagadanu/Desktop/qemu/optee_os/lib/libutils/ext/snprintk.c:461
     fe8:	52800001 	mov	w1, #0x0                   	// #0
     fec:	14000144 	b	14fc <__vsnprintf+0x784>
/home/lagadanu/Desktop/qemu/optee_os/lib/libutils/ext/snprintk.c:291
     ff0:	7101e11f 	cmp	w8, #0x78
     ff4:	540037e0 	b.eq	16f0 <__vsnprintf+0x978>
     ff8:	7101e91f 	cmp	w8, #0x7a
     ffc:	54000ba0 	b.eq	1170 <__vsnprintf+0x3f8>
    1000:	7101d51f 	cmp	w8, #0x75
    1004:	54fff1a1 	b.ne	e38 <__vsnprintf+0xc0>
/home/lagadanu/Desktop/qemu/optee_os/lib/libutils/ext/snprintk.c:467
    1008:	363832b5 	tbz	w21, #7, 165c <__vsnprintf+0x8e4>
    100c:	37f83400 	tbnz	w0, #31, 168c <__vsnprintf+0x914>
    1010:	91003e61 	add	x1, x19, #0xf
    1014:	2a0003f4 	mov	w20, w0
    1018:	aa1303e0 	mov	x0, x19
    101c:	927df033 	and	x19, x1, #0xfffffffffffffff8
    1020:	f9400005 	ldr	x5, [x0]
/home/lagadanu/Desktop/qemu/optee_os/lib/libutils/ext/snprintk.c:468
    1024:	52800020 	mov	w0, #0x1                   	// #1
    1028:	17ffffb7 	b	f04 <__vsnprintf+0x18c>
/home/lagadanu/Desktop/qemu/optee_os/lib/libutils/ext/snprintk.c:471
    102c:	b0000057 	adrp	x23, a000 <brel+0x1ac>
    1030:	913ac2f7 	add	x23, x23, #0xeb0
/home/lagadanu/Desktop/qemu/optee_os/lib/libutils/ext/snprintk.c:475
    1034:	36383675 	tbz	w21, #7, 1700 <__vsnprintf+0x988>
    1038:	37f837c0 	tbnz	w0, #31, 1730 <__vsnprintf+0x9b8>
    103c:	91003e61 	add	x1, x19, #0xf
    1040:	2a0003f4 	mov	w20, w0
    1044:	aa1303e0 	mov	x0, x19
    1048:	927df033 	and	x19, x1, #0xfffffffffffffff8
    104c:	f9400005 	ldr	x5, [x0]
/home/lagadanu/Desktop/qemu/optee_os/lib/libutils/ext/snprintk.c:478
    1050:	36000075 	tbz	w21, #0, 105c <__vsnprintf+0x2e4>
    1054:	b4000045 	cbz	x5, 105c <__vsnprintf+0x2e4>
/home/lagadanu/Desktop/qemu/optee_os/lib/libutils/ext/snprintk.c:479
    1058:	321f02b5 	orr	w21, w21, #0x2
/home/lagadanu/Desktop/qemu/optee_os/lib/libutils/ext/snprintk.c:476
    105c:	52800040 	mov	w0, #0x2                   	// #2
    1060:	17ffffa9 	b	f04 <__vsnprintf+0x18c>
/home/lagadanu/Desktop/qemu/optee_os/lib/libutils/ext/snprintk.c:299
    1064:	7100003f 	cmp	w1, #0x0
    1068:	1a861021 	csel	w1, w1, w6, ne
    106c:	17ffff87 	b	e88 <__vsnprintf+0x110>
/home/lagadanu/Desktop/qemu/optee_os/lib/libutils/ext/snprintk.c:302
    1070:	320002b5 	orr	w21, w21, #0x1
    1074:	17ffff85 	b	e88 <__vsnprintf+0x110>
/home/lagadanu/Desktop/qemu/optee_os/lib/libutils/ext/snprintk.c:311
    1078:	37f80120 	tbnz	w0, #31, 109c <__vsnprintf+0x324>
    107c:	91002e63 	add	x3, x19, #0xb
    1080:	aa1303e2 	mov	x2, x19
    1084:	927df073 	and	x19, x3, #0xfffffffffffffff8
    1088:	b940004a 	ldr	w10, [x2]
    108c:	36ffefea 	tbz	w10, #31, e88 <__vsnprintf+0x110>
/home/lagadanu/Desktop/qemu/optee_os/lib/libutils/ext/snprintk.c:313
    1090:	4b0a03ea 	neg	w10, w10
/home/lagadanu/Desktop/qemu/optee_os/lib/libutils/ext/snprintk.c:316
    1094:	321e02b5 	orr	w21, w21, #0x4
    1098:	17ffff7c 	b	e88 <__vsnprintf+0x110>
/home/lagadanu/Desktop/qemu/optee_os/lib/libutils/ext/snprintk.c:311
    109c:	11002003 	add	w3, w0, #0x8
    10a0:	7100007f 	cmp	w3, #0x0
    10a4:	540000cd 	b.le	10bc <__vsnprintf+0x344>
    10a8:	91002e67 	add	x7, x19, #0xb
    10ac:	aa1303e2 	mov	x2, x19
    10b0:	2a0303e0 	mov	w0, w3
    10b4:	927df0f3 	and	x19, x7, #0xfffffffffffffff8
    10b8:	17fffff4 	b	1088 <__vsnprintf+0x310>
    10bc:	8b20c382 	add	x2, x28, w0, sxtw
    10c0:	2a0303e0 	mov	w0, w3
    10c4:	17fffff1 	b	1088 <__vsnprintf+0x310>
/home/lagadanu/Desktop/qemu/optee_os/lib/libutils/ext/snprintk.c:322
    10c8:	39400328 	ldrb	w8, [x25]
    10cc:	91000723 	add	x3, x25, #0x1
    10d0:	7100a91f 	cmp	w8, #0x2a
    10d4:	54000140 	b.eq	10fc <__vsnprintf+0x384>
    10d8:	aa0303f9 	mov	x25, x3
    10dc:	52800004 	mov	w4, #0x0                   	// #0
/home/lagadanu/Desktop/qemu/optee_os/lib/libutils/ext/snprintk.c:328
    10e0:	5100c102 	sub	w2, w8, #0x30
    10e4:	7100245f 	cmp	w2, #0x9
    10e8:	54ffe8e8 	b.hi	e04 <__vsnprintf+0x8c>
/home/lagadanu/Desktop/qemu/optee_os/lib/libutils/ext/snprintk.c:329
    10ec:	52800143 	mov	w3, #0xa                   	// #10
/home/lagadanu/Desktop/qemu/optee_os/lib/libutils/ext/snprintk.c:330
    10f0:	38401728 	ldrb	w8, [x25],#1
/home/lagadanu/Desktop/qemu/optee_os/lib/libutils/ext/snprintk.c:329
    10f4:	1b030884 	madd	w4, w4, w3, w2
    10f8:	17fffffa 	b	10e0 <__vsnprintf+0x368>
/home/lagadanu/Desktop/qemu/optee_os/lib/libutils/ext/snprintk.c:323
    10fc:	37f80160 	tbnz	w0, #31, 1128 <__vsnprintf+0x3b0>
    1100:	91002e64 	add	x4, x19, #0xb
    1104:	2a0003e2 	mov	w2, w0
    1108:	aa1303e0 	mov	x0, x19
    110c:	927df093 	and	x19, x4, #0xfffffffffffffff8
/home/lagadanu/Desktop/qemu/optee_os/lib/libutils/ext/snprintk.c:324
    1110:	b9400004 	ldr	w4, [x0]
/home/lagadanu/Desktop/qemu/optee_os/lib/libutils/ext/snprintk.c:322
    1114:	aa0303f9 	mov	x25, x3
/home/lagadanu/Desktop/qemu/optee_os/lib/libutils/ext/snprintk.c:324
    1118:	2a0203e0 	mov	w0, w2
    111c:	7100009f 	cmp	w4, #0x0
    1120:	1a85a084 	csel	w4, w4, w5, ge
    1124:	17ffff59 	b	e88 <__vsnprintf+0x110>
/home/lagadanu/Desktop/qemu/optee_os/lib/libutils/ext/snprintk.c:323
    1128:	11002002 	add	w2, w0, #0x8
    112c:	8b20c380 	add	x0, x28, w0, sxtw
    1130:	7100005f 	cmp	w2, #0x0
    1134:	54fffeed 	b.le	1110 <__vsnprintf+0x398>
    1138:	91002e64 	add	x4, x19, #0xb
    113c:	17fffff3 	b	1108 <__vsnprintf+0x390>
/home/lagadanu/Desktop/qemu/optee_os/lib/libutils/ext/snprintk.c:340
    1140:	321602b5 	orr	w21, w21, #0x400
    1144:	17ffff51 	b	e88 <__vsnprintf+0x110>
/home/lagadanu/Desktop/qemu/optee_os/lib/libutils/ext/snprintk.c:358
    1148:	39400322 	ldrb	w2, [x25]
    114c:	7101b05f 	cmp	w2, #0x6c
    1150:	54000081 	b.ne	1160 <__vsnprintf+0x3e8>
/home/lagadanu/Desktop/qemu/optee_os/lib/libutils/ext/snprintk.c:359
    1154:	91000739 	add	x25, x25, #0x1
/home/lagadanu/Desktop/qemu/optee_os/lib/libutils/ext/snprintk.c:366
    1158:	321b02b5 	orr	w21, w21, #0x20
    115c:	17ffff4b 	b	e88 <__vsnprintf+0x110>
/home/lagadanu/Desktop/qemu/optee_os/lib/libutils/ext/snprintk.c:362
    1160:	321c02b5 	orr	w21, w21, #0x10
    1164:	17ffff49 	b	e88 <__vsnprintf+0x110>
/home/lagadanu/Desktop/qemu/optee_os/lib/libutils/ext/snprintk.c:369
    1168:	321802b5 	orr	w21, w21, #0x100
    116c:	17ffff47 	b	e88 <__vsnprintf+0x110>
/home/lagadanu/Desktop/qemu/optee_os/lib/libutils/ext/snprintk.c:372
    1170:	321702b5 	orr	w21, w21, #0x200
    1174:	17ffff45 	b	e88 <__vsnprintf+0x110>
/home/lagadanu/Desktop/qemu/optee_os/lib/libutils/ext/snprintk.c:375
    1178:	37f80140 	tbnz	w0, #31, 11a0 <__vsnprintf+0x428>
    117c:	91002e61 	add	x1, x19, #0xb
    1180:	2a0003f4 	mov	w20, w0
    1184:	aa1303e0 	mov	x0, x19
    1188:	927df033 	and	x19, x1, #0xfffffffffffffff8
    118c:	910303a3 	add	x3, x29, #0xc0
    1190:	b9400000 	ldr	w0, [x0]
    1194:	381d8c60 	strb	w0, [x3,#-40]!
/home/lagadanu/Desktop/qemu/optee_os/lib/libutils/ext/snprintk.c:546
    1198:	52800024 	mov	w4, #0x1                   	// #1
    119c:	17ffff92 	b	fe4 <__vsnprintf+0x26c>
/home/lagadanu/Desktop/qemu/optee_os/lib/libutils/ext/snprintk.c:375
    11a0:	11002014 	add	w20, w0, #0x8
    11a4:	8b20c380 	add	x0, x28, w0, sxtw
    11a8:	7100029f 	cmp	w20, #0x0
    11ac:	54ffff0d 	b.le	118c <__vsnprintf+0x414>
    11b0:	91002e61 	add	x1, x19, #0xb
    11b4:	17fffff4 	b	1184 <__vsnprintf+0x40c>
/home/lagadanu/Desktop/qemu/optee_os/lib/libutils/ext/snprintk.c:380
    11b8:	321c02b5 	orr	w21, w21, #0x10
/home/lagadanu/Desktop/qemu/optee_os/lib/libutils/ext/snprintk.c:384
    11bc:	36380515 	tbz	w21, #7, 125c <__vsnprintf+0x4e4>
    11c0:	37f80660 	tbnz	w0, #31, 128c <__vsnprintf+0x514>
    11c4:	91003e62 	add	x2, x19, #0xf
    11c8:	2a0003f4 	mov	w20, w0
    11cc:	aa1303e0 	mov	x0, x19
    11d0:	927df053 	and	x19, x2, #0xfffffffffffffff8
    11d4:	f9400005 	ldr	x5, [x0]
/home/lagadanu/Desktop/qemu/optee_os/lib/libutils/ext/snprintk.c:389
    11d8:	52800020 	mov	w0, #0x1                   	// #1
/home/lagadanu/Desktop/qemu/optee_os/lib/libutils/ext/snprintk.c:385
    11dc:	b6f80065 	tbz	x5, #63, 11e8 <__vsnprintf+0x470>
/home/lagadanu/Desktop/qemu/optee_os/lib/libutils/ext/snprintk.c:386
    11e0:	cb0503e5 	neg	x5, x5
/home/lagadanu/Desktop/qemu/optee_os/lib/libutils/ext/snprintk.c:387
    11e4:	528005a1 	mov	w1, #0x2d                  	// #45
/home/lagadanu/Desktop/qemu/optee_os/lib/libutils/ext/snprintk.c:489
    11e8:	3100049f 	cmn	w4, #0x1
    11ec:	12157aa2 	and	w2, w21, #0xfffffbff
    11f0:	1a951055 	csel	w21, w2, w21, ne
/home/lagadanu/Desktop/qemu/optee_os/lib/libutils/ext/snprintk.c:497
    11f4:	f10000bf 	cmp	x5, #0x0
    11f8:	7a400880 	ccmp	w4, #0x0, #0x0, eq
/home/lagadanu/Desktop/qemu/optee_os/lib/libutils/ext/snprintk.c:496
    11fc:	91009703 	add	x3, x24, #0x25
/home/lagadanu/Desktop/qemu/optee_os/lib/libutils/ext/snprintk.c:497
    1200:	54000260 	b.eq	124c <__vsnprintf+0x4d4>
/home/lagadanu/Desktop/qemu/optee_os/lib/libutils/ext/snprintk.c:503
    1204:	7100041f 	cmp	w0, #0x1
    1208:	54002c60 	b.eq	1794 <__vsnprintf+0xa1c>
    120c:	7100081f 	cmp	w0, #0x2
    1210:	54002e40 	b.eq	17d8 <__vsnprintf+0xa60>
    1214:	91009700 	add	x0, x24, #0x25
/home/lagadanu/Desktop/qemu/optee_os/lib/libutils/ext/snprintk.c:506
    1218:	120008a2 	and	w2, w5, #0x7
    121c:	d1000403 	sub	x3, x0, #0x1
    1220:	1100c042 	add	w2, w2, #0x30
    1224:	381ff002 	sturb	w2, [x0,#-1]
/home/lagadanu/Desktop/qemu/optee_os/lib/libutils/ext/snprintk.c:507
    1228:	d343fca5 	lsr	x5, x5, #3
/home/lagadanu/Desktop/qemu/optee_os/lib/libutils/ext/snprintk.c:508
    122c:	b5002c45 	cbnz	x5, 17b4 <__vsnprintf+0xa3c>
/home/lagadanu/Desktop/qemu/optee_os/lib/libutils/ext/snprintk.c:510
    1230:	7100c05f 	cmp	w2, #0x30
    1234:	1a9f07e2 	cset	w2, ne
    1238:	6a0202bf 	tst	w21, w2
    123c:	54000080 	b.eq	124c <__vsnprintf+0x4d4>
/home/lagadanu/Desktop/qemu/optee_os/lib/libutils/ext/snprintk.c:511
    1240:	52800602 	mov	w2, #0x30                  	// #48
    1244:	381ff062 	sturb	w2, [x3,#-1]
    1248:	d1000803 	sub	x3, x0, #0x2
/home/lagadanu/Desktop/qemu/optee_os/lib/libutils/ext/snprintk.c:537
    124c:	91009702 	add	x2, x24, #0x25
    1250:	2a0403e0 	mov	w0, w4
    1254:	4b030044 	sub	w4, w2, w3
    1258:	140000a9 	b	14fc <__vsnprintf+0x784>
/home/lagadanu/Desktop/qemu/optee_os/lib/libutils/ext/snprintk.c:384
    125c:	3747fb35 	tbnz	w21, #8, 11c0 <__vsnprintf+0x448>
    1260:	374ffb15 	tbnz	w21, #9, 11c0 <__vsnprintf+0x448>
    1264:	372ffaf5 	tbnz	w21, #5, 11c0 <__vsnprintf+0x448>
    1268:	3727fad5 	tbnz	w21, #4, 11c0 <__vsnprintf+0x448>
    126c:	36300295 	tbz	w21, #6, 12bc <__vsnprintf+0x544>
    1270:	37f801a0 	tbnz	w0, #31, 12a4 <__vsnprintf+0x52c>
    1274:	91002e62 	add	x2, x19, #0xb
    1278:	2a0003f4 	mov	w20, w0
    127c:	aa1303e0 	mov	x0, x19
    1280:	927df053 	and	x19, x2, #0xfffffffffffffff8
    1284:	79800005 	ldrsh	x5, [x0]
    1288:	17ffffd4 	b	11d8 <__vsnprintf+0x460>
    128c:	11002014 	add	w20, w0, #0x8
    1290:	8b20c380 	add	x0, x28, w0, sxtw
    1294:	7100029f 	cmp	w20, #0x0
    1298:	54fff9ed 	b.le	11d4 <__vsnprintf+0x45c>
    129c:	91003e62 	add	x2, x19, #0xf
    12a0:	17ffffcb 	b	11cc <__vsnprintf+0x454>
    12a4:	11002014 	add	w20, w0, #0x8
    12a8:	8b20c380 	add	x0, x28, w0, sxtw
    12ac:	7100029f 	cmp	w20, #0x0
    12b0:	54fffead 	b.le	1284 <__vsnprintf+0x50c>
    12b4:	91002e62 	add	x2, x19, #0xb
    12b8:	17fffff1 	b	127c <__vsnprintf+0x504>
    12bc:	37f800e0 	tbnz	w0, #31, 12d8 <__vsnprintf+0x560>
    12c0:	91002e62 	add	x2, x19, #0xb
    12c4:	2a0003f4 	mov	w20, w0
    12c8:	aa1303e0 	mov	x0, x19
    12cc:	927df053 	and	x19, x2, #0xfffffffffffffff8
    12d0:	b9800005 	ldrsw	x5, [x0]
    12d4:	17ffffc1 	b	11d8 <__vsnprintf+0x460>
    12d8:	11002014 	add	w20, w0, #0x8
    12dc:	8b20c380 	add	x0, x28, w0, sxtw
    12e0:	7100029f 	cmp	w20, #0x0
    12e4:	54ffff6d 	b.le	12d0 <__vsnprintf+0x558>
    12e8:	91002e62 	add	x2, x19, #0xb
    12ec:	17fffff7 	b	12c8 <__vsnprintf+0x550>
/home/lagadanu/Desktop/qemu/optee_os/lib/libutils/ext/snprintk.c:392
    12f0:	36380155 	tbz	w21, #7, 1318 <__vsnprintf+0x5a0>
/home/lagadanu/Desktop/qemu/optee_os/lib/libutils/ext/snprintk.c:401
    12f4:	37f802c0 	tbnz	w0, #31, 134c <__vsnprintf+0x5d4>
    12f8:	91003e61 	add	x1, x19, #0xf
    12fc:	2a0003f4 	mov	w20, w0
    1300:	aa1303e0 	mov	x0, x19
    1304:	927df033 	and	x19, x1, #0xfffffffffffffff8
    1308:	f9400000 	ldr	x0, [x0]
    130c:	93407f61 	sxtw	x1, w27
    1310:	f9000001 	str	x1, [x0]
    1314:	17fffead 	b	dc8 <__vsnprintf+0x50>
/home/lagadanu/Desktop/qemu/optee_os/lib/libutils/ext/snprintk.c:394
    1318:	3747fef5 	tbnz	w21, #8, 12f4 <__vsnprintf+0x57c>
/home/lagadanu/Desktop/qemu/optee_os/lib/libutils/ext/snprintk.c:396
    131c:	374ffed5 	tbnz	w21, #9, 12f4 <__vsnprintf+0x57c>
/home/lagadanu/Desktop/qemu/optee_os/lib/libutils/ext/snprintk.c:398
    1320:	372ffeb5 	tbnz	w21, #5, 12f4 <__vsnprintf+0x57c>
/home/lagadanu/Desktop/qemu/optee_os/lib/libutils/ext/snprintk.c:400
    1324:	3727fe95 	tbnz	w21, #4, 12f4 <__vsnprintf+0x57c>
/home/lagadanu/Desktop/qemu/optee_os/lib/libutils/ext/snprintk.c:402
    1328:	363002b5 	tbz	w21, #6, 137c <__vsnprintf+0x604>
/home/lagadanu/Desktop/qemu/optee_os/lib/libutils/ext/snprintk.c:403
    132c:	37f801c0 	tbnz	w0, #31, 1364 <__vsnprintf+0x5ec>
    1330:	91003e61 	add	x1, x19, #0xf
    1334:	2a0003f4 	mov	w20, w0
    1338:	aa1303e0 	mov	x0, x19
    133c:	927df033 	and	x19, x1, #0xfffffffffffffff8
    1340:	f9400000 	ldr	x0, [x0]
    1344:	7900001b 	strh	w27, [x0]
    1348:	17fffea0 	b	dc8 <__vsnprintf+0x50>
/home/lagadanu/Desktop/qemu/optee_os/lib/libutils/ext/snprintk.c:401
    134c:	11002014 	add	w20, w0, #0x8
    1350:	8b20c380 	add	x0, x28, w0, sxtw
    1354:	7100029f 	cmp	w20, #0x0
    1358:	54fffd8d 	b.le	1308 <__vsnprintf+0x590>
    135c:	91003e61 	add	x1, x19, #0xf
    1360:	17ffffe8 	b	1300 <__vsnprintf+0x588>
/home/lagadanu/Desktop/qemu/optee_os/lib/libutils/ext/snprintk.c:403
    1364:	11002014 	add	w20, w0, #0x8
    1368:	8b20c380 	add	x0, x28, w0, sxtw
    136c:	7100029f 	cmp	w20, #0x0
    1370:	54fffe8d 	b.le	1340 <__vsnprintf+0x5c8>
    1374:	91003e61 	add	x1, x19, #0xf
    1378:	17fffff0 	b	1338 <__vsnprintf+0x5c0>
/home/lagadanu/Desktop/qemu/optee_os/lib/libutils/ext/snprintk.c:405
    137c:	37f80100 	tbnz	w0, #31, 139c <__vsnprintf+0x624>
    1380:	91003e61 	add	x1, x19, #0xf
    1384:	2a0003f4 	mov	w20, w0
    1388:	aa1303e0 	mov	x0, x19
    138c:	927df033 	and	x19, x1, #0xfffffffffffffff8
    1390:	f9400000 	ldr	x0, [x0]
    1394:	b900001b 	str	w27, [x0]
    1398:	17fffe8c 	b	dc8 <__vsnprintf+0x50>
    139c:	11002014 	add	w20, w0, #0x8
    13a0:	8b20c380 	add	x0, x28, w0, sxtw
    13a4:	7100029f 	cmp	w20, #0x0
    13a8:	54ffff4d 	b.le	1390 <__vsnprintf+0x618>
    13ac:	91003e61 	add	x1, x19, #0xf
    13b0:	17fffff6 	b	1388 <__vsnprintf+0x610>
/home/lagadanu/Desktop/qemu/optee_os/lib/libutils/ext/snprintk.c:411
    13b4:	3747d9b5 	tbnz	w21, #8, ee8 <__vsnprintf+0x170>
    13b8:	374fd995 	tbnz	w21, #9, ee8 <__vsnprintf+0x170>
    13bc:	372fd975 	tbnz	w21, #5, ee8 <__vsnprintf+0x170>
    13c0:	3727d955 	tbnz	w21, #4, ee8 <__vsnprintf+0x170>
    13c4:	36300295 	tbz	w21, #6, 1414 <__vsnprintf+0x69c>
    13c8:	37f801a0 	tbnz	w0, #31, 13fc <__vsnprintf+0x684>
    13cc:	91002e61 	add	x1, x19, #0xb
    13d0:	2a0003f4 	mov	w20, w0
    13d4:	aa1303e0 	mov	x0, x19
    13d8:	927df033 	and	x19, x1, #0xfffffffffffffff8
    13dc:	79400005 	ldrh	w5, [x0]
    13e0:	17fffec8 	b	f00 <__vsnprintf+0x188>
    13e4:	11002014 	add	w20, w0, #0x8
    13e8:	8b20c380 	add	x0, x28, w0, sxtw
    13ec:	7100029f 	cmp	w20, #0x0
    13f0:	54ffd86d 	b.le	efc <__vsnprintf+0x184>
    13f4:	91003e61 	add	x1, x19, #0xf
    13f8:	17fffebf 	b	ef4 <__vsnprintf+0x17c>
    13fc:	11002014 	add	w20, w0, #0x8
    1400:	8b20c380 	add	x0, x28, w0, sxtw
    1404:	7100029f 	cmp	w20, #0x0
    1408:	54fffead 	b.le	13dc <__vsnprintf+0x664>
    140c:	91002e61 	add	x1, x19, #0xb
    1410:	17fffff1 	b	13d4 <__vsnprintf+0x65c>
    1414:	37f800e0 	tbnz	w0, #31, 1430 <__vsnprintf+0x6b8>
    1418:	91002e61 	add	x1, x19, #0xb
    141c:	2a0003f4 	mov	w20, w0
    1420:	aa1303e0 	mov	x0, x19
    1424:	927df033 	and	x19, x1, #0xfffffffffffffff8
    1428:	b9400005 	ldr	w5, [x0]
    142c:	17fffeb5 	b	f00 <__vsnprintf+0x188>
    1430:	11002014 	add	w20, w0, #0x8
    1434:	8b20c380 	add	x0, x28, w0, sxtw
    1438:	7100029f 	cmp	w20, #0x0
    143c:	54ffff6d 	b.le	1428 <__vsnprintf+0x6b0>
    1440:	91002e61 	add	x1, x19, #0xb
    1444:	17fffff7 	b	1420 <__vsnprintf+0x6a8>
/home/lagadanu/Desktop/qemu/optee_os/lib/libutils/ext/snprintk.c:415
    1448:	b9407fa1 	ldr	w1, [x29,#124]
    144c:	34000b81 	cbz	w1, 15bc <__vsnprintf+0x844>
    1450:	39400321 	ldrb	w1, [x25]
    1454:	7101543f 	cmp	w1, #0x55
    1458:	54000b21 	b.ne	15bc <__vsnprintf+0x844>
    145c:	39400721 	ldrb	w1, [x25,#1]
    1460:	7101b03f 	cmp	w1, #0x6c
    1464:	54000ac1 	b.ne	15bc <__vsnprintf+0x844>
/home/lagadanu/Desktop/qemu/optee_os/lib/libutils/ext/snprintk.c:420
    1468:	91000b39 	add	x25, x25, #0x2
/home/lagadanu/Desktop/qemu/optee_os/lib/libutils/ext/snprintk.c:421
    146c:	37f809c0 	tbnz	w0, #31, 15a4 <__vsnprintf+0x82c>
    1470:	91003e61 	add	x1, x19, #0xf
    1474:	2a0003f4 	mov	w20, w0
    1478:	aa1303e0 	mov	x0, x19
    147c:	927df033 	and	x19, x1, #0xfffffffffffffff8
    1480:	f9400000 	ldr	x0, [x0]
uuid2str():
/home/lagadanu/Desktop/qemu/optee_os/lib/libutils/ext/snprintk.c:223
    1484:	d0000042 	adrp	x2, b000 <PRIME_TABLE+0xd0>
    1488:	b90073aa 	str	w10, [x29,#112]
    148c:	913e1842 	add	x2, x2, #0xf86
    1490:	b9007ba8 	str	w8, [x29,#120]
    1494:	39403c01 	ldrb	w1, [x0,#15]
    1498:	79400804 	ldrh	w4, [x0,#4]
    149c:	39402407 	ldrb	w7, [x0,#9]
    14a0:	39402006 	ldrb	w6, [x0,#8]
    14a4:	79400c05 	ldrh	w5, [x0,#6]
    14a8:	b9002be1 	str	w1, [sp,#40]
    14ac:	39403801 	ldrb	w1, [x0,#14]
    14b0:	b90023e1 	str	w1, [sp,#32]
    14b4:	39403401 	ldrb	w1, [x0,#13]
    14b8:	b9001be1 	str	w1, [sp,#24]
    14bc:	39403001 	ldrb	w1, [x0,#12]
    14c0:	b90013e1 	str	w1, [sp,#16]
    14c4:	39402c01 	ldrb	w1, [x0,#11]
    14c8:	b9000be1 	str	w1, [sp,#8]
    14cc:	39402801 	ldrb	w1, [x0,#10]
    14d0:	b90003e1 	str	w1, [sp]
    14d4:	d28004a1 	mov	x1, #0x25                  	// #37
    14d8:	b9400003 	ldr	w3, [x0]
    14dc:	aa1803e0 	mov	x0, x24
    14e0:	94000125 	bl	1974 <snprintk>
    14e4:	2a0003e4 	mov	w4, w0
    14e8:	b94073aa 	ldr	w10, [x29,#112]
kprintf():
/home/lagadanu/Desktop/qemu/optee_os/lib/libutils/ext/snprintk.c:423
    14ec:	aa1803e3 	mov	x3, x24
    14f0:	b9407ba8 	ldr	w8, [x29,#120]
/home/lagadanu/Desktop/qemu/optee_os/lib/libutils/ext/snprintk.c:285
    14f4:	52800000 	mov	w0, #0x0                   	// #0
/home/lagadanu/Desktop/qemu/optee_os/lib/libutils/ext/snprintk.c:424
    14f8:	52800001 	mov	w1, #0x0                   	// #0
/home/lagadanu/Desktop/qemu/optee_os/lib/libutils/ext/snprintk.c:565
    14fc:	6b04001f 	cmp	w0, w4
    1500:	1a84a006 	csel	w6, w0, w4, ge
/home/lagadanu/Desktop/qemu/optee_os/lib/libutils/ext/snprintk.c:566
    1504:	34001781 	cbz	w1, 17f4 <__vsnprintf+0xa7c>
/home/lagadanu/Desktop/qemu/optee_os/lib/libutils/ext/snprintk.c:567
    1508:	110004c6 	add	w6, w6, #0x1
/home/lagadanu/Desktop/qemu/optee_os/lib/libutils/ext/snprintk.c:572
    150c:	6b06015f 	cmp	w10, w6
    1510:	1a86a142 	csel	w2, w10, w6, ge
    1514:	0b02037b 	add	w27, w27, w2
/home/lagadanu/Desktop/qemu/optee_os/lib/libutils/ext/snprintk.c:575
    1518:	52808082 	mov	w2, #0x404                 	// #1028
    151c:	6a0202a2 	ands	w2, w21, w2
    1520:	540000a1 	b.ne	1534 <__vsnprintf+0x7bc>
/home/lagadanu/Desktop/qemu/optee_os/lib/libutils/ext/snprintk.c:576
    1524:	4b060145 	sub	w5, w10, w6
/home/lagadanu/Desktop/qemu/optee_os/lib/libutils/ext/snprintk.c:578
    1528:	52800407 	mov	w7, #0x20                  	// #32
/home/lagadanu/Desktop/qemu/optee_os/lib/libutils/ext/snprintk.c:577
    152c:	710000bf 	cmp	w5, #0x0
    1530:	540016ac 	b.gt	1804 <__vsnprintf+0xa8c>
/home/lagadanu/Desktop/qemu/optee_os/lib/libutils/ext/snprintk.c:582
    1534:	34001801 	cbz	w1, 1834 <__vsnprintf+0xabc>
/home/lagadanu/Desktop/qemu/optee_os/lib/libutils/ext/snprintk.c:583
    1538:	b5001756 	cbnz	x22, 1820 <__vsnprintf+0xaa8>
/home/lagadanu/Desktop/qemu/optee_os/lib/libutils/ext/snprintk.c:586
    153c:	d2800016 	mov	x22, #0x0                   	// #0
/home/lagadanu/Desktop/qemu/optee_os/lib/libutils/ext/snprintk.c:590
    1540:	7110005f 	cmp	w2, #0x400
    1544:	540000a1 	b.ne	1558 <__vsnprintf+0x7e0>
/home/lagadanu/Desktop/qemu/optee_os/lib/libutils/ext/snprintk.c:591
    1548:	4b060141 	sub	w1, w10, w6
/home/lagadanu/Desktop/qemu/optee_os/lib/libutils/ext/snprintk.c:593
    154c:	52800602 	mov	w2, #0x30                  	// #48
/home/lagadanu/Desktop/qemu/optee_os/lib/libutils/ext/snprintk.c:592
    1550:	7100003f 	cmp	w1, #0x0
    1554:	540018ec 	b.gt	1870 <__vsnprintf+0xaf8>
/home/lagadanu/Desktop/qemu/optee_os/lib/libutils/ext/snprintk.c:597
    1558:	4b040000 	sub	w0, w0, w4
/home/lagadanu/Desktop/qemu/optee_os/lib/libutils/ext/snprintk.c:599
    155c:	52800601 	mov	w1, #0x30                  	// #48
/home/lagadanu/Desktop/qemu/optee_os/lib/libutils/ext/snprintk.c:598
    1560:	7100001f 	cmp	w0, #0x0
    1564:	5400194c 	b.gt	188c <__vsnprintf+0xb14>
    1568:	8b244064 	add	x4, x3, w4, uxtw
/home/lagadanu/Desktop/qemu/optee_os/lib/libutils/ext/snprintk.c:602
    156c:	eb04007f 	cmp	x3, x4
    1570:	540019c1 	b.ne	18a8 <__vsnprintf+0xb30>
/home/lagadanu/Desktop/qemu/optee_os/lib/libutils/ext/snprintk.c:605
    1574:	3617c2b5 	tbz	w21, #2, dc8 <__vsnprintf+0x50>
/home/lagadanu/Desktop/qemu/optee_os/lib/libutils/ext/snprintk.c:606
    1578:	4b06014a 	sub	w10, w10, w6
/home/lagadanu/Desktop/qemu/optee_os/lib/libutils/ext/snprintk.c:608
    157c:	52800400 	mov	w0, #0x20                  	// #32
/home/lagadanu/Desktop/qemu/optee_os/lib/libutils/ext/snprintk.c:607
    1580:	7100015f 	cmp	w10, #0x0
    1584:	54ffc22d 	b.le	dc8 <__vsnprintf+0x50>
/home/lagadanu/Desktop/qemu/optee_os/lib/libutils/ext/snprintk.c:608
    1588:	b40000b6 	cbz	x22, 159c <__vsnprintf+0x824>
    158c:	eb16035f 	cmp	x26, x22
    1590:	54000069 	b.ls	159c <__vsnprintf+0x824>
    1594:	390002c0 	strb	w0, [x22]
    1598:	910006d6 	add	x22, x22, #0x1
    159c:	5100054a 	sub	w10, w10, #0x1
    15a0:	17fffff8 	b	1580 <__vsnprintf+0x808>
/home/lagadanu/Desktop/qemu/optee_os/lib/libutils/ext/snprintk.c:421
    15a4:	11002014 	add	w20, w0, #0x8
    15a8:	8b20c380 	add	x0, x28, w0, sxtw
    15ac:	7100029f 	cmp	w20, #0x0
    15b0:	54fff68d 	b.le	1480 <__vsnprintf+0x708>
    15b4:	91003e61 	add	x1, x19, #0xf
    15b8:	17ffffb0 	b	1478 <__vsnprintf+0x700>
/home/lagadanu/Desktop/qemu/optee_os/lib/libutils/ext/snprintk.c:435
    15bc:	37f801c0 	tbnz	w0, #31, 15f4 <__vsnprintf+0x87c>
    15c0:	91003e61 	add	x1, x19, #0xf
    15c4:	2a0003f4 	mov	w20, w0
    15c8:	aa1303e0 	mov	x0, x19
    15cc:	927df033 	and	x19, x1, #0xfffffffffffffff8
/home/lagadanu/Desktop/qemu/optee_os/lib/libutils/ext/snprintk.c:437
    15d0:	b0000057 	adrp	x23, a000 <brel+0x1ac>
    15d4:	913ac2f7 	add	x23, x23, #0xeb0
/home/lagadanu/Desktop/qemu/optee_os/lib/libutils/ext/snprintk.c:435
    15d8:	f9400005 	ldr	x5, [x0]
/home/lagadanu/Desktop/qemu/optee_os/lib/libutils/ext/snprintk.c:438
    15dc:	321f02b5 	orr	w21, w21, #0x2
/home/lagadanu/Desktop/qemu/optee_os/lib/libutils/ext/snprintk.c:437
    15e0:	910062f7 	add	x23, x23, #0x18
/home/lagadanu/Desktop/qemu/optee_os/lib/libutils/ext/snprintk.c:482
    15e4:	52800001 	mov	w1, #0x0                   	// #0
/home/lagadanu/Desktop/qemu/optee_os/lib/libutils/ext/snprintk.c:439
    15e8:	52800f08 	mov	w8, #0x78                  	// #120
/home/lagadanu/Desktop/qemu/optee_os/lib/libutils/ext/snprintk.c:436
    15ec:	52800040 	mov	w0, #0x2                   	// #2
    15f0:	17fffefe 	b	11e8 <__vsnprintf+0x470>
/home/lagadanu/Desktop/qemu/optee_os/lib/libutils/ext/snprintk.c:435
    15f4:	11002014 	add	w20, w0, #0x8
    15f8:	8b20c380 	add	x0, x28, w0, sxtw
    15fc:	7100029f 	cmp	w20, #0x0
    1600:	54fffe8d 	b.le	15d0 <__vsnprintf+0x858>
    1604:	91003e61 	add	x1, x19, #0xf
    1608:	17fffff0 	b	15c8 <__vsnprintf+0x850>
/home/lagadanu/Desktop/qemu/optee_os/lib/libutils/ext/snprintk.c:442
    160c:	11002014 	add	w20, w0, #0x8
    1610:	8b20c380 	add	x0, x28, w0, sxtw
    1614:	7100029f 	cmp	w20, #0x0
    1618:	54ffcbcd 	b.le	f90 <__vsnprintf+0x218>
    161c:	91003e61 	add	x1, x19, #0xf
    1620:	17fffe5a 	b	f88 <__vsnprintf+0x210>
/home/lagadanu/Desktop/qemu/optee_os/lib/libutils/ext/snprintk.c:460
    1624:	aa0303e0 	mov	x0, x3
    1628:	b9006fa8 	str	w8, [x29,#108]
    162c:	f9003ba3 	str	x3, [x29,#112]
    1630:	b9007baa 	str	w10, [x29,#120]
    1634:	94000100 	bl	1a34 <strlen>
/home/lagadanu/Desktop/qemu/optee_os/lib/libutils/ext/snprintk.c:461
    1638:	52800001 	mov	w1, #0x0                   	// #0
/home/lagadanu/Desktop/qemu/optee_os/lib/libutils/ext/snprintk.c:460
    163c:	2a0003e4 	mov	w4, w0
    1640:	b9406fa8 	ldr	w8, [x29,#108]
/home/lagadanu/Desktop/qemu/optee_os/lib/libutils/ext/snprintk.c:285
    1644:	52800000 	mov	w0, #0x0                   	// #0
    1648:	b9407baa 	ldr	w10, [x29,#120]
    164c:	f9403ba3 	ldr	x3, [x29,#112]
    1650:	17ffffab 	b	14fc <__vsnprintf+0x784>
/home/lagadanu/Desktop/qemu/optee_os/lib/libutils/ext/snprintk.c:464
    1654:	321c02b5 	orr	w21, w21, #0x10
    1658:	17fffe6c 	b	1008 <__vsnprintf+0x290>
/home/lagadanu/Desktop/qemu/optee_os/lib/libutils/ext/snprintk.c:467
    165c:	3747cd95 	tbnz	w21, #8, 100c <__vsnprintf+0x294>
    1660:	374fcd75 	tbnz	w21, #9, 100c <__vsnprintf+0x294>
    1664:	372fcd55 	tbnz	w21, #5, 100c <__vsnprintf+0x294>
    1668:	3727cd35 	tbnz	w21, #4, 100c <__vsnprintf+0x294>
    166c:	36300295 	tbz	w21, #6, 16bc <__vsnprintf+0x944>
    1670:	37f801a0 	tbnz	w0, #31, 16a4 <__vsnprintf+0x92c>
    1674:	91002e61 	add	x1, x19, #0xb
    1678:	2a0003f4 	mov	w20, w0
    167c:	aa1303e0 	mov	x0, x19
    1680:	927df033 	and	x19, x1, #0xfffffffffffffff8
    1684:	79400005 	ldrh	w5, [x0]
    1688:	17fffe67 	b	1024 <__vsnprintf+0x2ac>
    168c:	11002014 	add	w20, w0, #0x8
    1690:	8b20c380 	add	x0, x28, w0, sxtw
    1694:	7100029f 	cmp	w20, #0x0
    1698:	54ffcc4d 	b.le	1020 <__vsnprintf+0x2a8>
    169c:	91003e61 	add	x1, x19, #0xf
    16a0:	17fffe5e 	b	1018 <__vsnprintf+0x2a0>
    16a4:	11002014 	add	w20, w0, #0x8
    16a8:	8b20c380 	add	x0, x28, w0, sxtw
    16ac:	7100029f 	cmp	w20, #0x0
    16b0:	54fffead 	b.le	1684 <__vsnprintf+0x90c>
    16b4:	91002e61 	add	x1, x19, #0xb
    16b8:	17fffff1 	b	167c <__vsnprintf+0x904>
    16bc:	37f800e0 	tbnz	w0, #31, 16d8 <__vsnprintf+0x960>
    16c0:	91002e61 	add	x1, x19, #0xb
    16c4:	2a0003f4 	mov	w20, w0
    16c8:	aa1303e0 	mov	x0, x19
    16cc:	927df033 	and	x19, x1, #0xfffffffffffffff8
    16d0:	b9400005 	ldr	w5, [x0]
    16d4:	17fffe54 	b	1024 <__vsnprintf+0x2ac>
    16d8:	11002014 	add	w20, w0, #0x8
    16dc:	8b20c380 	add	x0, x28, w0, sxtw
    16e0:	7100029f 	cmp	w20, #0x0
    16e4:	54ffff6d 	b.le	16d0 <__vsnprintf+0x958>
    16e8:	91002e61 	add	x1, x19, #0xb
    16ec:	17fffff7 	b	16c8 <__vsnprintf+0x950>
/home/lagadanu/Desktop/qemu/optee_os/lib/libutils/ext/snprintk.c:474
    16f0:	b0000057 	adrp	x23, a000 <brel+0x1ac>
    16f4:	913ac2f7 	add	x23, x23, #0xeb0
    16f8:	910062f7 	add	x23, x23, #0x18
    16fc:	17fffe4e 	b	1034 <__vsnprintf+0x2bc>
/home/lagadanu/Desktop/qemu/optee_os/lib/libutils/ext/snprintk.c:475
    1700:	3747c9d5 	tbnz	w21, #8, 1038 <__vsnprintf+0x2c0>
    1704:	374fc9b5 	tbnz	w21, #9, 1038 <__vsnprintf+0x2c0>
    1708:	372fc995 	tbnz	w21, #5, 1038 <__vsnprintf+0x2c0>
    170c:	3727c975 	tbnz	w21, #4, 1038 <__vsnprintf+0x2c0>
    1710:	36300295 	tbz	w21, #6, 1760 <__vsnprintf+0x9e8>
    1714:	37f801a0 	tbnz	w0, #31, 1748 <__vsnprintf+0x9d0>
    1718:	91002e61 	add	x1, x19, #0xb
    171c:	2a0003f4 	mov	w20, w0
    1720:	aa1303e0 	mov	x0, x19
    1724:	927df033 	and	x19, x1, #0xfffffffffffffff8
    1728:	79400005 	ldrh	w5, [x0]
    172c:	17fffe49 	b	1050 <__vsnprintf+0x2d8>
    1730:	11002014 	add	w20, w0, #0x8
    1734:	8b20c380 	add	x0, x28, w0, sxtw
    1738:	7100029f 	cmp	w20, #0x0
    173c:	54ffc88d 	b.le	104c <__vsnprintf+0x2d4>
    1740:	91003e61 	add	x1, x19, #0xf
    1744:	17fffe40 	b	1044 <__vsnprintf+0x2cc>
    1748:	11002014 	add	w20, w0, #0x8
    174c:	8b20c380 	add	x0, x28, w0, sxtw
    1750:	7100029f 	cmp	w20, #0x0
    1754:	54fffead 	b.le	1728 <__vsnprintf+0x9b0>
    1758:	91002e61 	add	x1, x19, #0xb
    175c:	17fffff1 	b	1720 <__vsnprintf+0x9a8>
    1760:	37f800e0 	tbnz	w0, #31, 177c <__vsnprintf+0xa04>
    1764:	91002e61 	add	x1, x19, #0xb
    1768:	2a0003f4 	mov	w20, w0
    176c:	aa1303e0 	mov	x0, x19
    1770:	927df033 	and	x19, x1, #0xfffffffffffffff8
    1774:	b9400005 	ldr	w5, [x0]
    1778:	17fffe36 	b	1050 <__vsnprintf+0x2d8>
    177c:	11002014 	add	w20, w0, #0x8
    1780:	8b20c380 	add	x0, x28, w0, sxtw
    1784:	7100029f 	cmp	w20, #0x0
    1788:	54ffff6d 	b.le	1774 <__vsnprintf+0x9fc>
    178c:	91002e61 	add	x1, x19, #0xb
    1790:	17fffff7 	b	176c <__vsnprintf+0x9f4>
/home/lagadanu/Desktop/qemu/optee_os/lib/libutils/ext/snprintk.c:503
    1794:	91009700 	add	x0, x24, #0x25
/home/lagadanu/Desktop/qemu/optee_os/lib/libutils/ext/snprintk.c:517
    1798:	d2800146 	mov	x6, #0xa                   	// #10
/home/lagadanu/Desktop/qemu/optee_os/lib/libutils/ext/snprintk.c:516
    179c:	f10024bf 	cmp	x5, #0x9
    17a0:	d1000403 	sub	x3, x0, #0x1
    17a4:	540000c8 	b.hi	17bc <__vsnprintf+0xa44>
/home/lagadanu/Desktop/qemu/optee_os/lib/libutils/ext/snprintk.c:520
    17a8:	1100c0a2 	add	w2, w5, #0x30
    17ac:	381ff002 	sturb	w2, [x0,#-1]
    17b0:	17fffea7 	b	124c <__vsnprintf+0x4d4>
/home/lagadanu/Desktop/qemu/optee_os/lib/libutils/ext/snprintk.c:508
    17b4:	aa0303e0 	mov	x0, x3
    17b8:	17fffe98 	b	1218 <__vsnprintf+0x4a0>
/home/lagadanu/Desktop/qemu/optee_os/lib/libutils/ext/snprintk.c:517
    17bc:	aa0303e0 	mov	x0, x3
    17c0:	9ac608a3 	udiv	x3, x5, x6
    17c4:	9b069462 	msub	x2, x3, x6, x5
/home/lagadanu/Desktop/qemu/optee_os/lib/libutils/ext/snprintk.c:518
    17c8:	aa0303e5 	mov	x5, x3
/home/lagadanu/Desktop/qemu/optee_os/lib/libutils/ext/snprintk.c:517
    17cc:	1100c042 	add	w2, w2, #0x30
    17d0:	39000002 	strb	w2, [x0]
    17d4:	17fffff2 	b	179c <__vsnprintf+0xa24>
/home/lagadanu/Desktop/qemu/optee_os/lib/libutils/ext/snprintk.c:503
    17d8:	91009703 	add	x3, x24, #0x25
/home/lagadanu/Desktop/qemu/optee_os/lib/libutils/ext/snprintk.c:525
    17dc:	92400ca0 	and	x0, x5, #0xf
/home/lagadanu/Desktop/qemu/optee_os/lib/libutils/ext/snprintk.c:526
    17e0:	d344fca5 	lsr	x5, x5, #4
/home/lagadanu/Desktop/qemu/optee_os/lib/libutils/ext/snprintk.c:525
    17e4:	38606ae0 	ldrb	w0, [x23,x0]
    17e8:	381ffc60 	strb	w0, [x3,#-1]!
/home/lagadanu/Desktop/qemu/optee_os/lib/libutils/ext/snprintk.c:527
    17ec:	b5ffff85 	cbnz	x5, 17dc <__vsnprintf+0xa64>
    17f0:	17fffe97 	b	124c <__vsnprintf+0x4d4>
/home/lagadanu/Desktop/qemu/optee_os/lib/libutils/ext/snprintk.c:569
    17f4:	110008c2 	add	w2, w6, #0x2
    17f8:	f27f02bf 	tst	x21, #0x2
    17fc:	1a861046 	csel	w6, w2, w6, ne
    1800:	17ffff43 	b	150c <__vsnprintf+0x794>
/home/lagadanu/Desktop/qemu/optee_os/lib/libutils/ext/snprintk.c:578
    1804:	b40000b6 	cbz	x22, 1818 <__vsnprintf+0xaa0>
    1808:	eb16035f 	cmp	x26, x22
    180c:	54000069 	b.ls	1818 <__vsnprintf+0xaa0>
    1810:	390002c7 	strb	w7, [x22]
    1814:	910006d6 	add	x22, x22, #0x1
    1818:	510004a5 	sub	w5, w5, #0x1
    181c:	17ffff44 	b	152c <__vsnprintf+0x7b4>
/home/lagadanu/Desktop/qemu/optee_os/lib/libutils/ext/snprintk.c:583
    1820:	eb16035f 	cmp	x26, x22
    1824:	54ffe8e9 	b.ls	1540 <__vsnprintf+0x7c8>
    1828:	390002c1 	strb	w1, [x22]
    182c:	910006d6 	add	x22, x22, #0x1
    1830:	17ffff44 	b	1540 <__vsnprintf+0x7c8>
/home/lagadanu/Desktop/qemu/optee_os/lib/libutils/ext/snprintk.c:584
    1834:	360fe875 	tbz	w21, #1, 1540 <__vsnprintf+0x7c8>
/home/lagadanu/Desktop/qemu/optee_os/lib/libutils/ext/snprintk.c:585
    1838:	b4ffe836 	cbz	x22, 153c <__vsnprintf+0x7c4>
    183c:	eb16035f 	cmp	x26, x22
    1840:	54ffe809 	b.ls	1540 <__vsnprintf+0x7c8>
    1844:	52800601 	mov	w1, #0x30                  	// #48
    1848:	390002c1 	strb	w1, [x22]
/home/lagadanu/Desktop/qemu/optee_os/lib/libutils/ext/snprintk.c:586
    184c:	b10006c1 	adds	x1, x22, #0x1
    1850:	54ffe760 	b.eq	153c <__vsnprintf+0x7c4>
    1854:	eb01035f 	cmp	x26, x1
    1858:	54000089 	b.ls	1868 <__vsnprintf+0xaf0>
    185c:	390006c8 	strb	w8, [x22,#1]
    1860:	91000ad6 	add	x22, x22, #0x2
    1864:	17ffff37 	b	1540 <__vsnprintf+0x7c8>
    1868:	aa0103f6 	mov	x22, x1
    186c:	17ffff35 	b	1540 <__vsnprintf+0x7c8>
/home/lagadanu/Desktop/qemu/optee_os/lib/libutils/ext/snprintk.c:593
    1870:	b40000b6 	cbz	x22, 1884 <__vsnprintf+0xb0c>
    1874:	eb16035f 	cmp	x26, x22
    1878:	54000069 	b.ls	1884 <__vsnprintf+0xb0c>
    187c:	390002c2 	strb	w2, [x22]
    1880:	910006d6 	add	x22, x22, #0x1
    1884:	51000421 	sub	w1, w1, #0x1
    1888:	17ffff32 	b	1550 <__vsnprintf+0x7d8>
/home/lagadanu/Desktop/qemu/optee_os/lib/libutils/ext/snprintk.c:599
    188c:	b40000b6 	cbz	x22, 18a0 <__vsnprintf+0xb28>
    1890:	eb16035f 	cmp	x26, x22
    1894:	54000069 	b.ls	18a0 <__vsnprintf+0xb28>
    1898:	390002c1 	strb	w1, [x22]
    189c:	910006d6 	add	x22, x22, #0x1
    18a0:	51000400 	sub	w0, w0, #0x1
    18a4:	17ffff2f 	b	1560 <__vsnprintf+0x7e8>
/home/lagadanu/Desktop/qemu/optee_os/lib/libutils/ext/snprintk.c:603
    18a8:	b40000d6 	cbz	x22, 18c0 <__vsnprintf+0xb48>
    18ac:	eb16035f 	cmp	x26, x22
    18b0:	54000089 	b.ls	18c0 <__vsnprintf+0xb48>
    18b4:	39400060 	ldrb	w0, [x3]
    18b8:	910006d6 	add	x22, x22, #0x1
    18bc:	381ff2c0 	sturb	w0, [x22,#-1]
/home/lagadanu/Desktop/qemu/optee_os/lib/libutils/ext/snprintk.c:602
    18c0:	91000463 	add	x3, x3, #0x1
    18c4:	17ffff2a 	b	156c <__vsnprintf+0x7f4>
__vsnprintf():
/home/lagadanu/Desktop/qemu/optee_os/lib/libutils/ext/snprintk.c:143
    18c8:	f94047a0 	ldr	x0, [x29,#136]
    18cc:	f100001f 	cmp	x0, #0x0
    18d0:	f94043a0 	ldr	x0, [x29,#128]
    18d4:	fa401804 	ccmp	x0, #0x0, #0x4, ne
    18d8:	540000c0 	b.eq	18f0 <__vsnprintf+0xb78>
/home/lagadanu/Desktop/qemu/optee_os/lib/libutils/ext/snprintk.c:145
    18dc:	f94043a1 	ldr	x1, [x29,#128]
    18e0:	93407f60 	sxtw	x0, w27
    18e4:	eb00003f 	cmp	x1, x0
    18e8:	54000168 	b.hi	1914 <__vsnprintf+0xb9c>
/home/lagadanu/Desktop/qemu/optee_os/lib/libutils/ext/snprintk.c:146
    18ec:	381ff35f 	sturb	wzr, [x26,#-1]
/home/lagadanu/Desktop/qemu/optee_os/lib/libutils/ext/snprintk.c:151
    18f0:	2a1b03e0 	mov	w0, w27
    18f4:	a94453f3 	ldp	x19, x20, [sp,#64]
    18f8:	a9455bf5 	ldp	x21, x22, [sp,#80]
    18fc:	a94663f7 	ldp	x23, x24, [sp,#96]
    1900:	a9476bf9 	ldp	x25, x26, [sp,#112]
    1904:	a94873fb 	ldp	x27, x28, [sp,#128]
    1908:	a9437bfd 	ldp	x29, x30, [sp,#48]
    190c:	9103c3ff 	add	sp, sp, #0xf0
    1910:	d65f03c0 	ret
/home/lagadanu/Desktop/qemu/optee_os/lib/libutils/ext/snprintk.c:148
    1914:	f94047a1 	ldr	x1, [x29,#136]
    1918:	3820683f 	strb	wzr, [x1,x0]
/home/lagadanu/Desktop/qemu/optee_os/lib/libutils/ext/snprintk.c:150
    191c:	17fffff5 	b	18f0 <__vsnprintf+0xb78>

0000000000001920 <vsnprintk>:
vsnprintk():
/home/lagadanu/Desktop/qemu/optee_os/lib/libutils/ext/snprintk.c:129
    1920:	a9bb7bfd 	stp	x29, x30, [sp,#-80]!
    1924:	910003fd 	mov	x29, sp
    1928:	a90153f3 	stp	x19, x20, [sp,#16]
    192c:	aa0003f3 	mov	x19, x0
    1930:	f90013f5 	str	x21, [sp,#32]
    1934:	aa0103f4 	mov	x20, x1
    1938:	aa0203f5 	mov	x21, x2
/home/lagadanu/Desktop/qemu/optee_os/lib/libutils/ext/snprintk.c:130
    193c:	aa0303e1 	mov	x1, x3
    1940:	9100c3a0 	add	x0, x29, #0x30
    1944:	d2800402 	mov	x2, #0x20                  	// #32
    1948:	94000033 	bl	1a14 <memcpy>
    194c:	aa0003e3 	mov	x3, x0
    1950:	aa1503e2 	mov	x2, x21
    1954:	aa1403e1 	mov	x1, x20
    1958:	52800024 	mov	w4, #0x1                   	// #1
    195c:	aa1303e0 	mov	x0, x19
    1960:	97fffd06 	bl	d78 <__vsnprintf>
/home/lagadanu/Desktop/qemu/optee_os/lib/libutils/ext/snprintk.c:131
    1964:	f94013f5 	ldr	x21, [sp,#32]
    1968:	a94153f3 	ldp	x19, x20, [sp,#16]
    196c:	a8c57bfd 	ldp	x29, x30, [sp],#80
    1970:	d65f03c0 	ret

0000000000001974 <snprintk>:
snprintk():
/home/lagadanu/Desktop/qemu/optee_os/lib/libutils/ext/snprintk.c:112
    1974:	a9b07bfd 	stp	x29, x30, [sp,#-256]!
    1978:	910003fd 	mov	x29, sp
    197c:	a90d93a3 	stp	x3, x4, [x29,#216]
/home/lagadanu/Desktop/qemu/optee_os/lib/libutils/ext/snprintk.c:116
    1980:	910403a3 	add	x3, x29, #0x100
    1984:	a9030fa3 	stp	x3, x3, [x29,#48]
    1988:	910343a3 	add	x3, x29, #0xd0
    198c:	f90023a3 	str	x3, [x29,#64]
    1990:	128004e3 	mov	w3, #0xffffffd8            	// #-40
    1994:	b9004ba3 	str	w3, [x29,#72]
    1998:	12800fe3 	mov	w3, #0xffffff80            	// #-128
    199c:	b9004fa3 	str	w3, [x29,#76]
/home/lagadanu/Desktop/qemu/optee_os/lib/libutils/ext/snprintk.c:117
    19a0:	910043a3 	add	x3, x29, #0x10
/home/lagadanu/Desktop/qemu/optee_os/lib/libutils/ext/snprintk.c:112
    19a4:	a90e9ba5 	stp	x5, x6, [x29,#232]
/home/lagadanu/Desktop/qemu/optee_os/lib/libutils/ext/snprintk.c:117
    19a8:	a94317a4 	ldp	x4, x5, [x29,#48]
    19ac:	a90117a4 	stp	x4, x5, [x29,#16]
    19b0:	a94417a4 	ldp	x4, x5, [x29,#64]
/home/lagadanu/Desktop/qemu/optee_os/lib/libutils/ext/snprintk.c:112
    19b4:	3d8017a0 	str	q0, [x29,#80]
    19b8:	3d801ba1 	str	q1, [x29,#96]
    19bc:	3d801fa2 	str	q2, [x29,#112]
    19c0:	3d8023a3 	str	q3, [x29,#128]
    19c4:	3d8027a4 	str	q4, [x29,#144]
    19c8:	3d802ba5 	str	q5, [x29,#160]
    19cc:	3d802fa6 	str	q6, [x29,#176]
    19d0:	3d8033a7 	str	q7, [x29,#192]
    19d4:	f9007fa7 	str	x7, [x29,#248]
/home/lagadanu/Desktop/qemu/optee_os/lib/libutils/ext/snprintk.c:117
    19d8:	a90217a4 	stp	x4, x5, [x29,#32]
    19dc:	97ffffd1 	bl	1920 <vsnprintk>
/home/lagadanu/Desktop/qemu/optee_os/lib/libutils/ext/snprintk.c:121
    19e0:	a8d07bfd 	ldp	x29, x30, [sp],#256
    19e4:	d65f03c0 	ret

00000000000019e8 <memchr>:
memchr():
/home/lagadanu/Desktop/qemu/optee_os/lib/libutils/isoc/newlib/memchr.c:109
    19e8:	12001c21 	and	w1, w1, #0xff
    19ec:	8b020002 	add	x2, x0, x2
/home/lagadanu/Desktop/qemu/optee_os/lib/libutils/isoc/newlib/memchr.c:153
    19f0:	eb02001f 	cmp	x0, x2
    19f4:	54000061 	b.ne	1a00 <memchr+0x18>
/home/lagadanu/Desktop/qemu/optee_os/lib/libutils/isoc/newlib/memchr.c:159
    19f8:	d2800000 	mov	x0, #0x0                   	// #0
/home/lagadanu/Desktop/qemu/optee_os/lib/libutils/isoc/newlib/memchr.c:160
    19fc:	d65f03c0 	ret
/home/lagadanu/Desktop/qemu/optee_os/lib/libutils/isoc/newlib/memchr.c:154
    1a00:	39400003 	ldrb	w3, [x0]
    1a04:	6b01007f 	cmp	w3, w1
    1a08:	54ffffa0 	b.eq	19fc <memchr+0x14>
/home/lagadanu/Desktop/qemu/optee_os/lib/libutils/isoc/newlib/memchr.c:156
    1a0c:	91000400 	add	x0, x0, #0x1
    1a10:	17fffff8 	b	19f0 <memchr+0x8>

0000000000001a14 <memcpy>:
memcpy():
/home/lagadanu/Desktop/qemu/optee_os/lib/libutils/isoc/newlib/memcpy.c:94
    1a14:	d2800003 	mov	x3, #0x0                   	// #0
    1a18:	eb03005f 	cmp	x2, x3
    1a1c:	54000041 	b.ne	1a24 <memcpy+0x10>
/home/lagadanu/Desktop/qemu/optee_os/lib/libutils/isoc/newlib/memcpy.c:135
    1a20:	d65f03c0 	ret
/home/lagadanu/Desktop/qemu/optee_os/lib/libutils/isoc/newlib/memcpy.c:95
    1a24:	38636824 	ldrb	w4, [x1,x3]
    1a28:	38236804 	strb	w4, [x0,x3]
    1a2c:	91000463 	add	x3, x3, #0x1
    1a30:	17fffffa 	b	1a18 <memcpy+0x4>

0000000000001a34 <strlen>:
strlen():
/home/lagadanu/Desktop/qemu/optee_os/lib/libutils/isoc/newlib/strlen.c:117
    1a34:	aa0003e1 	mov	x1, x0
    1a38:	39400022 	ldrb	w2, [x1]
    1a3c:	35000062 	cbnz	w2, 1a48 <strlen+0x14>
/home/lagadanu/Desktop/qemu/optee_os/lib/libutils/isoc/newlib/strlen.c:120
    1a40:	cb000020 	sub	x0, x1, x0
    1a44:	d65f03c0 	ret
/home/lagadanu/Desktop/qemu/optee_os/lib/libutils/isoc/newlib/strlen.c:118
    1a48:	91000421 	add	x1, x1, #0x1
    1a4c:	17fffffb 	b	1a38 <strlen+0x4>

0000000000001a50 <trace_ext_puts>:
trace_ext_puts():
/home/lagadanu/Desktop/qemu/optee_os/lib/libutee/trace_ext.c:17
    1a50:	a9be7bfd 	stp	x29, x30, [sp,#-32]!
    1a54:	910003fd 	mov	x29, sp
    1a58:	f9000bf3 	str	x19, [sp,#16]
    1a5c:	aa0003f3 	mov	x19, x0
/home/lagadanu/Desktop/qemu/optee_os/lib/libutee/trace_ext.c:18
    1a60:	97fffff5 	bl	1a34 <strlen>
    1a64:	aa0003e1 	mov	x1, x0
    1a68:	aa1303e0 	mov	x0, x19
/home/lagadanu/Desktop/qemu/optee_os/lib/libutee/trace_ext.c:19
    1a6c:	f9400bf3 	ldr	x19, [sp,#16]
    1a70:	a8c27bfd 	ldp	x29, x30, [sp],#32
/home/lagadanu/Desktop/qemu/optee_os/lib/libutee/trace_ext.c:18
    1a74:	14000e85 	b	5488 <utee_log>

0000000000001a78 <trace_ext_get_thread_id>:
trace_ext_get_thread_id():
/home/lagadanu/Desktop/qemu/optee_os/lib/libutee/trace_ext.c:24
    1a78:	12800000 	mov	w0, #0xffffffff            	// #-1
    1a7c:	d65f03c0 	ret

0000000000001a80 <printf>:
printf():
/home/lagadanu/Desktop/qemu/optee_os/lib/libutee/trace_ext.c:32
    1a80:	d10883ff 	sub	sp, sp, #0x220
    1a84:	a9007bfd 	stp	x29, x30, [sp]
    1a88:	910003fd 	mov	x29, sp
    1a8c:	a90153f3 	stp	x19, x20, [sp,#16]
    1a90:	aa0003f3 	mov	x19, x0
    1a94:	910403a0 	add	x0, x29, #0x100
    1a98:	a91e8ba1 	stp	x1, x2, [x29,#488]
    1a9c:	a91f93a3 	stp	x3, x4, [x29,#504]
    1aa0:	f90107a5 	str	x5, [x29,#520]
    1aa4:	f9010ba6 	str	x6, [x29,#528]
    1aa8:	f9010fa7 	str	x7, [x29,#536]
    1aac:	3d801800 	str	q0, [x0,#96]
    1ab0:	3d801c01 	str	q1, [x0,#112]
    1ab4:	3d802002 	str	q2, [x0,#128]
    1ab8:	3d802403 	str	q3, [x0,#144]
    1abc:	3d802804 	str	q4, [x0,#160]
    1ac0:	3d802c05 	str	q5, [x0,#176]
    1ac4:	3d803006 	str	q6, [x0,#192]
    1ac8:	3d803407 	str	q7, [x0,#208]
/home/lagadanu/Desktop/qemu/optee_os/lib/libutee/trace_ext.c:37
    1acc:	97fffc16 	bl	b24 <trace_get_level>
    1ad0:	7100001f 	cmp	w0, #0x0
    1ad4:	5400038d 	b.le	1b44 <printf+0xc4>
/home/lagadanu/Desktop/qemu/optee_os/lib/libutee/trace_ext.c:40
    1ad8:	910883a0 	add	x0, x29, #0x220
    1adc:	a90403a0 	stp	x0, x0, [x29,#64]
    1ae0:	910783a0 	add	x0, x29, #0x1e0
    1ae4:	f9002ba0 	str	x0, [x29,#80]
    1ae8:	128006e0 	mov	w0, #0xffffffc8            	// #-56
    1aec:	b9005ba0 	str	w0, [x29,#88]
    1af0:	12800fe0 	mov	w0, #0xffffff80            	// #-128
    1af4:	b9005fa0 	str	w0, [x29,#92]
/home/lagadanu/Desktop/qemu/optee_os/lib/libutee/trace_ext.c:41
    1af8:	a94407a0 	ldp	x0, x1, [x29,#64]
    1afc:	a90207a0 	stp	x0, x1, [x29,#32]
    1b00:	a94507a0 	ldp	x0, x1, [x29,#80]
    1b04:	910183b4 	add	x20, x29, #0x60
    1b08:	a90307a0 	stp	x0, x1, [x29,#48]
    1b0c:	aa1303e2 	mov	x2, x19
    1b10:	910083a3 	add	x3, x29, #0x20
    1b14:	d2802001 	mov	x1, #0x100                 	// #256
    1b18:	aa1403e0 	mov	x0, x20
    1b1c:	9400241c 	bl	ab8c <vsnprintf>
    1b20:	2a0003f3 	mov	w19, w0
/home/lagadanu/Desktop/qemu/optee_os/lib/libutee/trace_ext.c:44
    1b24:	37f80060 	tbnz	w0, #31, 1b30 <printf+0xb0>
/home/lagadanu/Desktop/qemu/optee_os/lib/libutee/trace_ext.c:47
    1b28:	aa1403e0 	mov	x0, x20
    1b2c:	97ffffc9 	bl	1a50 <trace_ext_puts>
/home/lagadanu/Desktop/qemu/optee_os/lib/libutee/trace_ext.c:50
    1b30:	2a1303e0 	mov	w0, w19
    1b34:	a94153f3 	ldp	x19, x20, [sp,#16]
    1b38:	a9407bfd 	ldp	x29, x30, [sp]
    1b3c:	910883ff 	add	sp, sp, #0x220
    1b40:	d65f03c0 	ret
/home/lagadanu/Desktop/qemu/optee_os/lib/libutee/trace_ext.c:38
    1b44:	52800013 	mov	w19, #0x0                   	// #0
    1b48:	17fffffa 	b	1b30 <printf+0xb0>

0000000000001b4c <puts>:
puts():
/home/lagadanu/Desktop/qemu/optee_os/lib/libutee/trace_ext.c:53
    1b4c:	a9be7bfd 	stp	x29, x30, [sp,#-32]!
    1b50:	910003fd 	mov	x29, sp
    1b54:	f9000bf3 	str	x19, [sp,#16]
    1b58:	aa0003f3 	mov	x19, x0
/home/lagadanu/Desktop/qemu/optee_os/lib/libutee/trace_ext.c:54
    1b5c:	97fffbf2 	bl	b24 <trace_get_level>
    1b60:	7100001f 	cmp	w0, #0x0
    1b64:	540000cd 	b.le	1b7c <puts+0x30>
/home/lagadanu/Desktop/qemu/optee_os/lib/libutee/trace_ext.c:55
    1b68:	aa1303e0 	mov	x0, x19
    1b6c:	97ffffb9 	bl	1a50 <trace_ext_puts>
/home/lagadanu/Desktop/qemu/optee_os/lib/libutee/trace_ext.c:56
    1b70:	d0000040 	adrp	x0, b000 <PRIME_TABLE+0xd0>
    1b74:	913f4400 	add	x0, x0, #0xfd1
    1b78:	97ffffb6 	bl	1a50 <trace_ext_puts>
/home/lagadanu/Desktop/qemu/optee_os/lib/libutee/trace_ext.c:59
    1b7c:	52800020 	mov	w0, #0x1                   	// #1
    1b80:	f9400bf3 	ldr	x19, [sp,#16]
    1b84:	a8c27bfd 	ldp	x29, x30, [sp],#32
    1b88:	d65f03c0 	ret

0000000000001b8c <putchar>:
putchar():
/home/lagadanu/Desktop/qemu/optee_os/lib/libutee/trace_ext.c:62
    1b8c:	a9bd7bfd 	stp	x29, x30, [sp,#-48]!
    1b90:	910003fd 	mov	x29, sp
    1b94:	f9000bf3 	str	x19, [sp,#16]
    1b98:	2a0003f3 	mov	w19, w0
/home/lagadanu/Desktop/qemu/optee_os/lib/libutee/trace_ext.c:63
    1b9c:	3900a3a0 	strb	w0, [x29,#40]
    1ba0:	3900a7bf 	strb	wzr, [x29,#41]
/home/lagadanu/Desktop/qemu/optee_os/lib/libutee/trace_ext.c:65
    1ba4:	97fffbe0 	bl	b24 <trace_get_level>
    1ba8:	7100001f 	cmp	w0, #0x0
    1bac:	5400006d 	b.le	1bb8 <putchar+0x2c>
/home/lagadanu/Desktop/qemu/optee_os/lib/libutee/trace_ext.c:66
    1bb0:	9100a3a0 	add	x0, x29, #0x28
    1bb4:	97ffffa7 	bl	1a50 <trace_ext_puts>
/home/lagadanu/Desktop/qemu/optee_os/lib/libutee/trace_ext.c:73
    1bb8:	12001e60 	and	w0, w19, #0xff
    1bbc:	f9400bf3 	ldr	x19, [sp,#16]
    1bc0:	a8c37bfd 	ldp	x29, x30, [sp],#48
    1bc4:	d65f03c0 	ret

0000000000001bc8 <__utee_from_param>:
__utee_from_param():
/home/lagadanu/Desktop/qemu/optee_os/lib/libutee/tee_api.c:25
    1bc8:	b0000045 	adrp	x5, a000 <brel+0x1ac>
    1bcc:	913b80a5 	add	x5, x5, #0xee0
/home/lagadanu/Desktop/qemu/optee_os/lib/libutee/tee_api.c:23
    1bd0:	2a0103e3 	mov	w3, w1
    1bd4:	52800004 	mov	w4, #0x0                   	// #0
    1bd8:	f8008403 	str	x3, [x0],#8
/home/lagadanu/Desktop/qemu/optee_os/lib/libutee/tee_api.c:25
    1bdc:	1ac42423 	lsr	w3, w1, w4
    1be0:	12000c63 	and	w3, w3, #0xf
    1be4:	51000463 	sub	w3, w3, #0x1
    1be8:	7100187f 	cmp	w3, #0x6
    1bec:	54000268 	b.hi	1c38 <__utee_from_param+0x70>
    1bf0:	386348a3 	ldrb	w3, [x5,w3,uxtw]
    1bf4:	10000066 	adr	x6, 1c00 <__utee_from_param+0x38>
    1bf8:	8b2388c3 	add	x3, x6, w3, sxtb #2
    1bfc:	d61f0060 	br	x3
/home/lagadanu/Desktop/qemu/optee_os/lib/libutee/tee_api.c:29
    1c00:	b9400043 	ldr	w3, [x2]
    1c04:	f9000003 	str	x3, [x0]
/home/lagadanu/Desktop/qemu/optee_os/lib/libutee/tee_api.c:30
    1c08:	b9400443 	ldr	w3, [x2,#4]
/home/lagadanu/Desktop/qemu/optee_os/lib/libutee/tee_api.c:36
    1c0c:	f9000403 	str	x3, [x0,#8]
    1c10:	11001084 	add	w4, w4, #0x4
    1c14:	91004042 	add	x2, x2, #0x10
    1c18:	91004000 	add	x0, x0, #0x10
/home/lagadanu/Desktop/qemu/optee_os/lib/libutee/tee_api.c:24 (discriminator 2)
    1c1c:	7100409f 	cmp	w4, #0x10
    1c20:	54fffde1 	b.ne	1bdc <__utee_from_param+0x14>
/home/lagadanu/Desktop/qemu/optee_os/lib/libutee/tee_api.c:44
    1c24:	d65f03c0 	ret
/home/lagadanu/Desktop/qemu/optee_os/lib/libutee/tee_api.c:35
    1c28:	f9400043 	ldr	x3, [x2]
    1c2c:	f9000003 	str	x3, [x0]
/home/lagadanu/Desktop/qemu/optee_os/lib/libutee/tee_api.c:36
    1c30:	b9400843 	ldr	w3, [x2,#8]
    1c34:	17fffff6 	b	1c0c <__utee_from_param+0x44>
/home/lagadanu/Desktop/qemu/optee_os/lib/libutee/tee_api.c:40
    1c38:	a9007c1f 	stp	xzr, xzr, [x0]
/home/lagadanu/Desktop/qemu/optee_os/lib/libutee/tee_api.c:41
    1c3c:	17fffff5 	b	1c10 <__utee_from_param+0x48>

0000000000001c40 <__utee_to_param>:
__utee_to_param():
/home/lagadanu/Desktop/qemu/optee_os/lib/libutee/tee_api.c:50
    1c40:	f8408446 	ldr	x6, [x2],#8
/home/lagadanu/Desktop/qemu/optee_os/lib/libutee/tee_api.c:56
    1c44:	b0000045 	adrp	x5, a000 <brel+0x1ac>
    1c48:	913ba0a5 	add	x5, x5, #0xee8
/home/lagadanu/Desktop/qemu/optee_os/lib/libutee/tee_api.c:50
    1c4c:	52800004 	mov	w4, #0x0                   	// #0
    1c50:	2a0603e9 	mov	w9, w6
/home/lagadanu/Desktop/qemu/optee_os/lib/libutee/tee_api.c:56
    1c54:	1ac42523 	lsr	w3, w9, w4
    1c58:	12000c63 	and	w3, w3, #0xf
    1c5c:	51000463 	sub	w3, w3, #0x1
    1c60:	7100187f 	cmp	w3, #0x6
/home/lagadanu/Desktop/qemu/optee_os/lib/libutee/tee_api.c:54
    1c64:	a9401c48 	ldp	x8, x7, [x2]
/home/lagadanu/Desktop/qemu/optee_os/lib/libutee/tee_api.c:56
    1c68:	540000c8 	b.hi	1c80 <__utee_to_param+0x40>
    1c6c:	386348a3 	ldrb	w3, [x5,w3,uxtw]
    1c70:	1000006a 	adr	x10, 1c7c <__utee_to_param+0x3c>
    1c74:	8b238943 	add	x3, x10, w3, sxtb #2
    1c78:	d61f0060 	br	x3
/home/lagadanu/Desktop/qemu/optee_os/lib/libutee/tee_api.c:61
    1c7c:	29001c08 	stp	w8, w7, [x0]
    1c80:	11001084 	add	w4, w4, #0x4
    1c84:	91004042 	add	x2, x2, #0x10
    1c88:	91004000 	add	x0, x0, #0x10
/home/lagadanu/Desktop/qemu/optee_os/lib/libutee/tee_api.c:52 (discriminator 2)
    1c8c:	7100409f 	cmp	w4, #0x10
    1c90:	54fffe21 	b.ne	1c54 <__utee_to_param+0x14>
/home/lagadanu/Desktop/qemu/optee_os/lib/libutee/tee_api.c:74
    1c94:	b4000041 	cbz	x1, 1c9c <__utee_to_param+0x5c>
/home/lagadanu/Desktop/qemu/optee_os/lib/libutee/tee_api.c:75
    1c98:	b9000026 	str	w6, [x1]
    1c9c:	d65f03c0 	ret
/home/lagadanu/Desktop/qemu/optee_os/lib/libutee/tee_api.c:66
    1ca0:	f9000008 	str	x8, [x0]
/home/lagadanu/Desktop/qemu/optee_os/lib/libutee/tee_api.c:67
    1ca4:	b9000807 	str	w7, [x0,#8]
/home/lagadanu/Desktop/qemu/optee_os/lib/libutee/tee_api.c:68
    1ca8:	17fffff6 	b	1c80 <__utee_to_param+0x40>

0000000000001cac <TEE_OpenTASession>:
TEE_OpenTASession():
/home/lagadanu/Desktop/qemu/optee_os/lib/libutee/tee_api.c:84
    1cac:	a9b77bfd 	stp	x29, x30, [sp,#-144]!
    1cb0:	910003fd 	mov	x29, sp
    1cb4:	a90153f3 	stp	x19, x20, [sp,#16]
/home/lagadanu/Desktop/qemu/optee_os/lib/libutee/tee_api.c:89
    1cb8:	910123b3 	add	x19, x29, #0x48
/home/lagadanu/Desktop/qemu/optee_os/lib/libutee/tee_api.c:84
    1cbc:	a9025bf5 	stp	x21, x22, [sp,#32]
    1cc0:	aa0303f4 	mov	x20, x3
    1cc4:	a90363f7 	stp	x23, x24, [sp,#48]
    1cc8:	aa0003f6 	mov	x22, x0
    1ccc:	aa0503f8 	mov	x24, x5
    1cd0:	2a0103f7 	mov	w23, w1
    1cd4:	aa0403f5 	mov	x21, x4
    1cd8:	2a0203e1 	mov	w1, w2
/home/lagadanu/Desktop/qemu/optee_os/lib/libutee/tee_api.c:89
    1cdc:	aa1303e0 	mov	x0, x19
    1ce0:	aa0303e2 	mov	x2, x3
    1ce4:	97ffffb9 	bl	1bc8 <__utee_from_param>
/home/lagadanu/Desktop/qemu/optee_os/lib/libutee/tee_api.c:90
    1ce8:	aa1803e4 	mov	x4, x24
    1cec:	910113a3 	add	x3, x29, #0x44
    1cf0:	aa1303e2 	mov	x2, x19
    1cf4:	2a1703e1 	mov	w1, w23
    1cf8:	aa1603e0 	mov	x0, x22
    1cfc:	94000def 	bl	54b8 <utee_open_ta_session>
/home/lagadanu/Desktop/qemu/optee_os/lib/libutee/tee_api.c:92
    1d00:	aa1303e2 	mov	x2, x19
/home/lagadanu/Desktop/qemu/optee_os/lib/libutee/tee_api.c:90
    1d04:	2a0003f6 	mov	w22, w0
/home/lagadanu/Desktop/qemu/optee_os/lib/libutee/tee_api.c:92
    1d08:	d2800001 	mov	x1, #0x0                   	// #0
    1d0c:	aa1403e0 	mov	x0, x20
    1d10:	97ffffcc 	bl	1c40 <__utee_to_param>
/home/lagadanu/Desktop/qemu/optee_os/lib/libutee/tee_api.c:98
    1d14:	34000056 	cbz	w22, 1d1c <TEE_OpenTASession+0x70>
/home/lagadanu/Desktop/qemu/optee_os/lib/libutee/tee_api.c:99
    1d18:	b90047bf 	str	wzr, [x29,#68]
/home/lagadanu/Desktop/qemu/optee_os/lib/libutee/tee_api.c:101
    1d1c:	b94047a0 	ldr	w0, [x29,#68]
/home/lagadanu/Desktop/qemu/optee_os/lib/libutee/tee_api.c:103
    1d20:	a94153f3 	ldp	x19, x20, [sp,#16]
    1d24:	a94363f7 	ldp	x23, x24, [sp,#48]
/home/lagadanu/Desktop/qemu/optee_os/lib/libutee/tee_api.c:101
    1d28:	f90002a0 	str	x0, [x21]
/home/lagadanu/Desktop/qemu/optee_os/lib/libutee/tee_api.c:103
    1d2c:	2a1603e0 	mov	w0, w22
    1d30:	a9425bf5 	ldp	x21, x22, [sp,#32]
    1d34:	a8c97bfd 	ldp	x29, x30, [sp],#144
    1d38:	d65f03c0 	ret

0000000000001d3c <TEE_CloseTASession>:
TEE_CloseTASession():
/home/lagadanu/Desktop/qemu/optee_os/lib/libutee/tee_api.c:107
    1d3c:	b4000120 	cbz	x0, 1d60 <TEE_CloseTASession+0x24>
/home/lagadanu/Desktop/qemu/optee_os/lib/libutee/tee_api.c:106
    1d40:	a9bf7bfd 	stp	x29, x30, [sp,#-16]!
    1d44:	910003fd 	mov	x29, sp
/home/lagadanu/Desktop/qemu/optee_os/lib/libutee/tee_api.c:108
    1d48:	94000ddf 	bl	54c4 <utee_close_ta_session>
/home/lagadanu/Desktop/qemu/optee_os/lib/libutee/tee_api.c:110
    1d4c:	34000060 	cbz	w0, 1d58 <TEE_CloseTASession+0x1c>
/home/lagadanu/Desktop/qemu/optee_os/lib/libutee/tee_api.c:113
    1d50:	a8c17bfd 	ldp	x29, x30, [sp],#16
/home/lagadanu/Desktop/qemu/optee_os/lib/libutee/tee_api.c:111
    1d54:	14000d14 	b	51a4 <TEE_Panic>
/home/lagadanu/Desktop/qemu/optee_os/lib/libutee/tee_api.c:113
    1d58:	a8c17bfd 	ldp	x29, x30, [sp],#16
    1d5c:	d65f03c0 	ret
    1d60:	d65f03c0 	ret

0000000000001d64 <TEE_InvokeTACommand>:
TEE_InvokeTACommand():
/home/lagadanu/Desktop/qemu/optee_os/lib/libutee/tee_api.c:120
    1d64:	a9b77bfd 	stp	x29, x30, [sp,#-144]!
    1d68:	910003fd 	mov	x29, sp
    1d6c:	a90153f3 	stp	x19, x20, [sp,#16]
/home/lagadanu/Desktop/qemu/optee_os/lib/libutee/tee_api.c:125
    1d70:	910123b4 	add	x20, x29, #0x48
/home/lagadanu/Desktop/qemu/optee_os/lib/libutee/tee_api.c:120
    1d74:	a9025bf5 	stp	x21, x22, [sp,#32]
    1d78:	aa0003f3 	mov	x19, x0
    1d7c:	a90363f7 	stp	x23, x24, [sp,#48]
    1d80:	aa0403f6 	mov	x22, x4
    1d84:	aa0503f5 	mov	x21, x5
    1d88:	2a0103f7 	mov	w23, w1
    1d8c:	2a0203f8 	mov	w24, w2
/home/lagadanu/Desktop/qemu/optee_os/lib/libutee/tee_api.c:125
    1d90:	2a0303e1 	mov	w1, w3
    1d94:	aa0403e2 	mov	x2, x4
    1d98:	aa1403e0 	mov	x0, x20
    1d9c:	97ffff8b 	bl	1bc8 <__utee_from_param>
/home/lagadanu/Desktop/qemu/optee_os/lib/libutee/tee_api.c:126
    1da0:	910113a4 	add	x4, x29, #0x44
    1da4:	aa1403e3 	mov	x3, x20
    1da8:	2a1803e2 	mov	w2, w24
    1dac:	2a1703e1 	mov	w1, w23
    1db0:	aa1303e0 	mov	x0, x19
    1db4:	94000dc7 	bl	54d0 <utee_invoke_ta_command>
/home/lagadanu/Desktop/qemu/optee_os/lib/libutee/tee_api.c:129
    1db8:	aa1403e2 	mov	x2, x20
/home/lagadanu/Desktop/qemu/optee_os/lib/libutee/tee_api.c:126
    1dbc:	2a0003f3 	mov	w19, w0
/home/lagadanu/Desktop/qemu/optee_os/lib/libutee/tee_api.c:129
    1dc0:	d2800001 	mov	x1, #0x0                   	// #0
    1dc4:	aa1603e0 	mov	x0, x22
    1dc8:	97ffff9e 	bl	1c40 <__utee_to_param>
    1dcc:	b94047a0 	ldr	w0, [x29,#68]
/home/lagadanu/Desktop/qemu/optee_os/lib/libutee/tee_api.c:131
    1dd0:	b4000055 	cbz	x21, 1dd8 <TEE_InvokeTACommand+0x74>
/home/lagadanu/Desktop/qemu/optee_os/lib/libutee/tee_api.c:132
    1dd4:	b90002a0 	str	w0, [x21]
/home/lagadanu/Desktop/qemu/optee_os/lib/libutee/tee_api.c:134
    1dd8:	7100101f 	cmp	w0, #0x4
    1ddc:	54000120 	b.eq	1e00 <TEE_InvokeTACommand+0x9c>
/home/lagadanu/Desktop/qemu/optee_os/lib/libutee/tee_api.c:138
    1de0:	7100027f 	cmp	w19, #0x0
    1de4:	129ffe60 	mov	w0, #0xffff000c            	// #-65524
    1de8:	7a401264 	ccmp	w19, w0, #0x4, ne
    1dec:	1299fb60 	mov	w0, #0xffff3024            	// #-53212
    1df0:	7a401264 	ccmp	w19, w0, #0x4, ne
    1df4:	54000060 	b.eq	1e00 <TEE_InvokeTACommand+0x9c>
/home/lagadanu/Desktop/qemu/optee_os/lib/libutee/tee_api.c:140
    1df8:	2a1303e0 	mov	w0, w19
    1dfc:	94000cea 	bl	51a4 <TEE_Panic>
/home/lagadanu/Desktop/qemu/optee_os/lib/libutee/tee_api.c:143
    1e00:	2a1303e0 	mov	w0, w19
    1e04:	a94153f3 	ldp	x19, x20, [sp,#16]
    1e08:	a9425bf5 	ldp	x21, x22, [sp,#32]
    1e0c:	a94363f7 	ldp	x23, x24, [sp,#48]
    1e10:	a8c97bfd 	ldp	x29, x30, [sp],#144
    1e14:	d65f03c0 	ret

0000000000001e18 <TEE_GetCancellationFlag>:
TEE_GetCancellationFlag():
/home/lagadanu/Desktop/qemu/optee_os/lib/libutee/tee_api.c:148
    1e18:	a9be7bfd 	stp	x29, x30, [sp,#-32]!
    1e1c:	910003fd 	mov	x29, sp
/home/lagadanu/Desktop/qemu/optee_os/lib/libutee/tee_api.c:150
    1e20:	910073a0 	add	x0, x29, #0x1c
    1e24:	94000dae 	bl	54dc <utee_get_cancellation_flag>
/home/lagadanu/Desktop/qemu/optee_os/lib/libutee/tee_api.c:152
    1e28:	34000040 	cbz	w0, 1e30 <TEE_GetCancellationFlag+0x18>
/home/lagadanu/Desktop/qemu/optee_os/lib/libutee/tee_api.c:153
    1e2c:	b9001fbf 	str	wzr, [x29,#28]
/home/lagadanu/Desktop/qemu/optee_os/lib/libutee/tee_api.c:154
    1e30:	b9401fa0 	ldr	w0, [x29,#28]
/home/lagadanu/Desktop/qemu/optee_os/lib/libutee/tee_api.c:155
    1e34:	a8c27bfd 	ldp	x29, x30, [sp],#32
/home/lagadanu/Desktop/qemu/optee_os/lib/libutee/tee_api.c:154
    1e38:	7100001f 	cmp	w0, #0x0
/home/lagadanu/Desktop/qemu/optee_os/lib/libutee/tee_api.c:155
    1e3c:	1a9f07e0 	cset	w0, ne
    1e40:	d65f03c0 	ret

0000000000001e44 <TEE_UnmaskCancellation>:
TEE_UnmaskCancellation():
/home/lagadanu/Desktop/qemu/optee_os/lib/libutee/tee_api.c:158
    1e44:	a9be7bfd 	stp	x29, x30, [sp,#-32]!
    1e48:	910003fd 	mov	x29, sp
/home/lagadanu/Desktop/qemu/optee_os/lib/libutee/tee_api.c:160
    1e4c:	910073a0 	add	x0, x29, #0x1c
    1e50:	94000da9 	bl	54f4 <utee_unmask_cancellation>
/home/lagadanu/Desktop/qemu/optee_os/lib/libutee/tee_api.c:162
    1e54:	34000040 	cbz	w0, 1e5c <TEE_UnmaskCancellation+0x18>
/home/lagadanu/Desktop/qemu/optee_os/lib/libutee/tee_api.c:163
    1e58:	94000cd3 	bl	51a4 <TEE_Panic>
/home/lagadanu/Desktop/qemu/optee_os/lib/libutee/tee_api.c:164
    1e5c:	b9401fa0 	ldr	w0, [x29,#28]
/home/lagadanu/Desktop/qemu/optee_os/lib/libutee/tee_api.c:165
    1e60:	a8c27bfd 	ldp	x29, x30, [sp],#32
/home/lagadanu/Desktop/qemu/optee_os/lib/libutee/tee_api.c:164
    1e64:	7100001f 	cmp	w0, #0x0
/home/lagadanu/Desktop/qemu/optee_os/lib/libutee/tee_api.c:165
    1e68:	1a9f07e0 	cset	w0, ne
    1e6c:	d65f03c0 	ret

0000000000001e70 <TEE_MaskCancellation>:
TEE_MaskCancellation():
/home/lagadanu/Desktop/qemu/optee_os/lib/libutee/tee_api.c:168
    1e70:	a9be7bfd 	stp	x29, x30, [sp,#-32]!
    1e74:	910003fd 	mov	x29, sp
/home/lagadanu/Desktop/qemu/optee_os/lib/libutee/tee_api.c:170
    1e78:	910073a0 	add	x0, x29, #0x1c
    1e7c:	94000da1 	bl	5500 <utee_mask_cancellation>
/home/lagadanu/Desktop/qemu/optee_os/lib/libutee/tee_api.c:172
    1e80:	34000040 	cbz	w0, 1e88 <TEE_MaskCancellation+0x18>
/home/lagadanu/Desktop/qemu/optee_os/lib/libutee/tee_api.c:173
    1e84:	94000cc8 	bl	51a4 <TEE_Panic>
/home/lagadanu/Desktop/qemu/optee_os/lib/libutee/tee_api.c:174
    1e88:	b9401fa0 	ldr	w0, [x29,#28]
/home/lagadanu/Desktop/qemu/optee_os/lib/libutee/tee_api.c:175
    1e8c:	a8c27bfd 	ldp	x29, x30, [sp],#32
/home/lagadanu/Desktop/qemu/optee_os/lib/libutee/tee_api.c:174
    1e90:	7100001f 	cmp	w0, #0x0
/home/lagadanu/Desktop/qemu/optee_os/lib/libutee/tee_api.c:175
    1e94:	1a9f07e0 	cset	w0, ne
    1e98:	d65f03c0 	ret

0000000000001e9c <TEE_CheckMemoryAccessRights>:
TEE_CheckMemoryAccessRights():
/home/lagadanu/Desktop/qemu/optee_os/lib/libutee/tee_api.c:184
    1e9c:	34000062 	cbz	w2, 1ea8 <TEE_CheckMemoryAccessRights+0xc>
/home/lagadanu/Desktop/qemu/optee_os/lib/libutee/tee_api.c:188
    1ea0:	2a0203e2 	mov	w2, w2
    1ea4:	14000d91 	b	54e8 <utee_check_access_rights>
/home/lagadanu/Desktop/qemu/optee_os/lib/libutee/tee_api.c:200
    1ea8:	52800000 	mov	w0, #0x0                   	// #0
    1eac:	d65f03c0 	ret

0000000000001eb0 <TEE_SetInstanceData>:
TEE_SetInstanceData():
/home/lagadanu/Desktop/qemu/optee_os/lib/libutee/tee_api.c:204
    1eb0:	900000a1 	adrp	x1, 15000 <ta_heap+0x7f00>
    1eb4:	f9008020 	str	x0, [x1,#256]
    1eb8:	d65f03c0 	ret

0000000000001ebc <TEE_GetInstanceData>:
TEE_GetInstanceData():
/home/lagadanu/Desktop/qemu/optee_os/lib/libutee/tee_api.c:210
    1ebc:	900000a0 	adrp	x0, 15000 <ta_heap+0x7f00>
    1ec0:	f9408000 	ldr	x0, [x0,#256]
    1ec4:	d65f03c0 	ret

0000000000001ec8 <TEE_MemMove>:
TEE_MemMove():
/home/lagadanu/Desktop/qemu/optee_os/lib/libutee/tee_api.c:214
    1ec8:	2a0203e2 	mov	w2, w2
    1ecc:	14002352 	b	ac14 <memmove>

0000000000001ed0 <TEE_MemCompare>:
TEE_MemCompare():
/home/lagadanu/Desktop/qemu/optee_os/lib/libutee/tee_api.c:219
    1ed0:	2a0203e2 	mov	w2, w2
    1ed4:	14002343 	b	abe0 <memcmp>

0000000000001ed8 <TEE_MemFill>:
TEE_MemFill():
/home/lagadanu/Desktop/qemu/optee_os/lib/libutee/tee_api.c:224
    1ed8:	2a0203e2 	mov	w2, w2
    1edc:	14002361 	b	ac60 <memset>

0000000000001ee0 <TEE_GetSystemTime>:
TEE_GetSystemTime():
/home/lagadanu/Desktop/qemu/optee_os/lib/libutee/tee_api.c:230
    1ee0:	a9bf7bfd 	stp	x29, x30, [sp,#-16]!
/home/lagadanu/Desktop/qemu/optee_os/lib/libutee/tee_api.c:231
    1ee4:	aa0003e1 	mov	x1, x0
    1ee8:	d2800000 	mov	x0, #0x0                   	// #0
/home/lagadanu/Desktop/qemu/optee_os/lib/libutee/tee_api.c:230
    1eec:	910003fd 	mov	x29, sp
/home/lagadanu/Desktop/qemu/optee_os/lib/libutee/tee_api.c:231
    1ef0:	94000d8a 	bl	5518 <utee_get_time>
/home/lagadanu/Desktop/qemu/optee_os/lib/libutee/tee_api.c:233
    1ef4:	34000060 	cbz	w0, 1f00 <TEE_GetSystemTime+0x20>
/home/lagadanu/Desktop/qemu/optee_os/lib/libutee/tee_api.c:235
    1ef8:	a8c17bfd 	ldp	x29, x30, [sp],#16
/home/lagadanu/Desktop/qemu/optee_os/lib/libutee/tee_api.c:234
    1efc:	14000caa 	b	51a4 <TEE_Panic>
/home/lagadanu/Desktop/qemu/optee_os/lib/libutee/tee_api.c:235
    1f00:	a8c17bfd 	ldp	x29, x30, [sp],#16
    1f04:	d65f03c0 	ret

0000000000001f08 <TEE_Wait>:
TEE_Wait():
/home/lagadanu/Desktop/qemu/optee_os/lib/libutee/tee_api.c:238
    1f08:	a9be7bfd 	stp	x29, x30, [sp,#-32]!
/home/lagadanu/Desktop/qemu/optee_os/lib/libutee/tee_api.c:239
    1f0c:	2a0003e0 	mov	w0, w0
/home/lagadanu/Desktop/qemu/optee_os/lib/libutee/tee_api.c:238
    1f10:	910003fd 	mov	x29, sp
    1f14:	f9000bf3 	str	x19, [sp,#16]
/home/lagadanu/Desktop/qemu/optee_os/lib/libutee/tee_api.c:239
    1f18:	94000d7d 	bl	550c <utee_wait>
/home/lagadanu/Desktop/qemu/optee_os/lib/libutee/tee_api.c:241
    1f1c:	7100001f 	cmp	w0, #0x0
    1f20:	129fffa1 	mov	w1, #0xffff0002            	// #-65534
/home/lagadanu/Desktop/qemu/optee_os/lib/libutee/tee_api.c:239
    1f24:	2a0003f3 	mov	w19, w0
/home/lagadanu/Desktop/qemu/optee_os/lib/libutee/tee_api.c:241
    1f28:	7a411004 	ccmp	w0, w1, #0x4, ne
    1f2c:	54000040 	b.eq	1f34 <TEE_Wait+0x2c>
/home/lagadanu/Desktop/qemu/optee_os/lib/libutee/tee_api.c:242
    1f30:	94000c9d 	bl	51a4 <TEE_Panic>
/home/lagadanu/Desktop/qemu/optee_os/lib/libutee/tee_api.c:245
    1f34:	2a1303e0 	mov	w0, w19
    1f38:	f9400bf3 	ldr	x19, [sp,#16]
    1f3c:	a8c27bfd 	ldp	x29, x30, [sp],#32
    1f40:	d65f03c0 	ret

0000000000001f44 <TEE_GetTAPersistentTime>:
TEE_GetTAPersistentTime():
/home/lagadanu/Desktop/qemu/optee_os/lib/libutee/tee_api.c:248
    1f44:	a9be7bfd 	stp	x29, x30, [sp,#-32]!
/home/lagadanu/Desktop/qemu/optee_os/lib/libutee/tee_api.c:251
    1f48:	aa0003e1 	mov	x1, x0
/home/lagadanu/Desktop/qemu/optee_os/lib/libutee/tee_api.c:248
    1f4c:	910003fd 	mov	x29, sp
    1f50:	a90153f3 	stp	x19, x20, [sp,#16]
    1f54:	aa0003f4 	mov	x20, x0
/home/lagadanu/Desktop/qemu/optee_os/lib/libutee/tee_api.c:251
    1f58:	d2800020 	mov	x0, #0x1                   	// #1
    1f5c:	94000d6f 	bl	5518 <utee_get_time>
/home/lagadanu/Desktop/qemu/optee_os/lib/libutee/tee_api.c:253
    1f60:	7100001f 	cmp	w0, #0x0
/home/lagadanu/Desktop/qemu/optee_os/lib/libutee/tee_api.c:251
    1f64:	2a0003f3 	mov	w19, w0
/home/lagadanu/Desktop/qemu/optee_os/lib/libutee/tee_api.c:253
    1f68:	1a9f07e1 	cset	w1, ne
    1f6c:	1299fe00 	mov	w0, #0xffff300f            	// #-53233
    1f70:	6b00027f 	cmp	w19, w0
    1f74:	1a9f07e0 	cset	w0, ne
    1f78:	6a00003f 	tst	w1, w0
    1f7c:	54000040 	b.eq	1f84 <TEE_GetTAPersistentTime+0x40>
/home/lagadanu/Desktop/qemu/optee_os/lib/libutee/tee_api.c:255
    1f80:	29007e9f 	stp	wzr, wzr, [x20]
/home/lagadanu/Desktop/qemu/optee_os/lib/libutee/tee_api.c:259
    1f84:	11402e62 	add	w2, w19, #0xb, lsl #12
    1f88:	7100045f 	cmp	w2, #0x1
    1f8c:	1a9f97e2 	cset	w2, hi
/home/lagadanu/Desktop/qemu/optee_os/lib/libutee/tee_api.c:258
    1f90:	6a02003f 	tst	w1, w2
    1f94:	54000100 	b.eq	1fb4 <TEE_GetTAPersistentTime+0x70>
/home/lagadanu/Desktop/qemu/optee_os/lib/libutee/tee_api.c:261
    1f98:	129ffe61 	mov	w1, #0xffff000c            	// #-65524
    1f9c:	6b01027f 	cmp	w19, w1
    1fa0:	1a9f07e1 	cset	w1, ne
    1fa4:	6a01001f 	tst	w0, w1
    1fa8:	54000060 	b.eq	1fb4 <TEE_GetTAPersistentTime+0x70>
/home/lagadanu/Desktop/qemu/optee_os/lib/libutee/tee_api.c:263
    1fac:	2a1303e0 	mov	w0, w19
    1fb0:	94000c7d 	bl	51a4 <TEE_Panic>
/home/lagadanu/Desktop/qemu/optee_os/lib/libutee/tee_api.c:266
    1fb4:	2a1303e0 	mov	w0, w19
    1fb8:	a94153f3 	ldp	x19, x20, [sp,#16]
    1fbc:	a8c27bfd 	ldp	x29, x30, [sp],#32
    1fc0:	d65f03c0 	ret

0000000000001fc4 <TEE_SetTAPersistentTime>:
TEE_SetTAPersistentTime():
/home/lagadanu/Desktop/qemu/optee_os/lib/libutee/tee_api.c:269
    1fc4:	a9be7bfd 	stp	x29, x30, [sp,#-32]!
    1fc8:	910003fd 	mov	x29, sp
    1fcc:	f9000bf3 	str	x19, [sp,#16]
/home/lagadanu/Desktop/qemu/optee_os/lib/libutee/tee_api.c:272
    1fd0:	94000d55 	bl	5524 <utee_set_ta_time>
/home/lagadanu/Desktop/qemu/optee_os/lib/libutee/tee_api.c:275
    1fd4:	7100001f 	cmp	w0, #0x0
    1fd8:	129ffe61 	mov	w1, #0xffff000c            	// #-65524
    1fdc:	7a411004 	ccmp	w0, w1, #0x4, ne
/home/lagadanu/Desktop/qemu/optee_os/lib/libutee/tee_api.c:272
    1fe0:	2a0003f3 	mov	w19, w0
/home/lagadanu/Desktop/qemu/optee_os/lib/libutee/tee_api.c:275
    1fe4:	1299f7c1 	mov	w1, #0xffff3041            	// #-53183
    1fe8:	7a411004 	ccmp	w0, w1, #0x4, ne
    1fec:	54000040 	b.eq	1ff4 <TEE_SetTAPersistentTime+0x30>
/home/lagadanu/Desktop/qemu/optee_os/lib/libutee/tee_api.c:277
    1ff0:	94000c6d 	bl	51a4 <TEE_Panic>
/home/lagadanu/Desktop/qemu/optee_os/lib/libutee/tee_api.c:280
    1ff4:	2a1303e0 	mov	w0, w19
    1ff8:	f9400bf3 	ldr	x19, [sp,#16]
    1ffc:	a8c27bfd 	ldp	x29, x30, [sp],#32
    2000:	d65f03c0 	ret

0000000000002004 <TEE_GetREETime>:
TEE_GetREETime():
/home/lagadanu/Desktop/qemu/optee_os/lib/libutee/tee_api.c:283
    2004:	a9bf7bfd 	stp	x29, x30, [sp,#-16]!
/home/lagadanu/Desktop/qemu/optee_os/lib/libutee/tee_api.c:284
    2008:	aa0003e1 	mov	x1, x0
    200c:	d2800040 	mov	x0, #0x2                   	// #2
/home/lagadanu/Desktop/qemu/optee_os/lib/libutee/tee_api.c:283
    2010:	910003fd 	mov	x29, sp
/home/lagadanu/Desktop/qemu/optee_os/lib/libutee/tee_api.c:284
    2014:	94000d41 	bl	5518 <utee_get_time>
/home/lagadanu/Desktop/qemu/optee_os/lib/libutee/tee_api.c:286
    2018:	34000060 	cbz	w0, 2024 <TEE_GetREETime+0x20>
/home/lagadanu/Desktop/qemu/optee_os/lib/libutee/tee_api.c:288
    201c:	a8c17bfd 	ldp	x29, x30, [sp],#16
/home/lagadanu/Desktop/qemu/optee_os/lib/libutee/tee_api.c:287
    2020:	14000c61 	b	51a4 <TEE_Panic>
/home/lagadanu/Desktop/qemu/optee_os/lib/libutee/tee_api.c:288
    2024:	a8c17bfd 	ldp	x29, x30, [sp],#16
    2028:	d65f03c0 	ret

000000000000202c <TEE_Malloc>:
TEE_Malloc():
/home/lagadanu/Desktop/qemu/optee_os/lib/libutee/tee_api.c:292
    202c:	35000081 	cbnz	w1, 203c <TEE_Malloc+0x10>
/home/lagadanu/Desktop/qemu/optee_os/lib/libutee/tee_api.c:293
    2030:	2a0003e1 	mov	w1, w0
    2034:	d2800020 	mov	x0, #0x1                   	// #1
    2038:	140020d3 	b	a384 <calloc>
/home/lagadanu/Desktop/qemu/optee_os/lib/libutee/tee_api.c:294
    203c:	52b00002 	mov	w2, #0x80000000            	// #-2147483648
    2040:	6b02003f 	cmp	w1, w2
    2044:	54000061 	b.ne	2050 <TEE_Malloc+0x24>
/home/lagadanu/Desktop/qemu/optee_os/lib/libutee/tee_api.c:295
    2048:	2a0003e0 	mov	w0, w0
    204c:	140020c8 	b	a36c <malloc>
/home/lagadanu/Desktop/qemu/optee_os/lib/libutee/tee_api.c:291
    2050:	a9bf7bfd 	stp	x29, x30, [sp,#-16]!
    2054:	2a0103e5 	mov	w5, w1
/home/lagadanu/Desktop/qemu/optee_os/lib/libutee/tee_api.c:297
    2058:	52800023 	mov	w3, #0x1                   	// #1
    205c:	52800022 	mov	w2, #0x1                   	// #1
/home/lagadanu/Desktop/qemu/optee_os/lib/libutee/tee_api.c:291
    2060:	910003fd 	mov	x29, sp
/home/lagadanu/Desktop/qemu/optee_os/lib/libutee/tee_api.c:297
    2064:	52802521 	mov	w1, #0x129                 	// #297
    2068:	b0000044 	adrp	x4, b000 <PRIME_TABLE+0xd0>
    206c:	90000040 	adrp	x0, a000 <brel+0x1ac>
    2070:	913edc84 	add	x4, x4, #0xfb7
    2074:	913bc000 	add	x0, x0, #0xef0
    2078:	97fffaaf 	bl	b34 <trace_printf>
/home/lagadanu/Desktop/qemu/optee_os/lib/libutee/tee_api.c:300
    207c:	d2800000 	mov	x0, #0x0                   	// #0
    2080:	a8c17bfd 	ldp	x29, x30, [sp],#16
    2084:	d65f03c0 	ret

0000000000002088 <TEE_Realloc>:
TEE_Realloc():
/home/lagadanu/Desktop/qemu/optee_os/lib/libutee/tee_api.c:304
    2088:	2a0103e1 	mov	w1, w1
    208c:	140020da 	b	a3f4 <realloc>

0000000000002090 <TEE_Free>:
TEE_Free():
/home/lagadanu/Desktop/qemu/optee_os/lib/libutee/tee_api.c:309
    2090:	140020b8 	b	a370 <free>

0000000000002094 <TEE_CacheClean>:
TEE_CacheClean():
/home/lagadanu/Desktop/qemu/optee_os/lib/libutee/tee_api.c:315
    2094:	d2800002 	mov	x2, #0x0                   	// #0
    2098:	14000dcb 	b	57c4 <utee_cache_operation>

000000000000209c <TEE_CacheFlush>:
TEE_CacheFlush():
/home/lagadanu/Desktop/qemu/optee_os/lib/libutee/tee_api.c:319
    209c:	d2800022 	mov	x2, #0x1                   	// #1
    20a0:	14000dc9 	b	57c4 <utee_cache_operation>

00000000000020a4 <TEE_CacheInvalidate>:
TEE_CacheInvalidate():
/home/lagadanu/Desktop/qemu/optee_os/lib/libutee/tee_api.c:324
    20a4:	d2800042 	mov	x2, #0x2                   	// #2
    20a8:	14000dc7 	b	57c4 <utee_cache_operation>

00000000000020ac <__utee_from_attr>:
__utee_from_attr():
/home/lagadanu/Desktop/qemu/optee_os/lib/libutee/tee_api_objects.c:19
    20ac:	52800303 	mov	w3, #0x18                  	// #24
    20b0:	9ba30442 	umaddl	x2, w2, w3, x1
/home/lagadanu/Desktop/qemu/optee_os/lib/libutee/tee_api_objects.c:22 (discriminator 1)
    20b4:	eb02003f 	cmp	x1, x2
    20b8:	54000041 	b.ne	20c0 <__utee_from_attr+0x14>
/home/lagadanu/Desktop/qemu/optee_os/lib/libutee/tee_api_objects.c:32
    20bc:	d65f03c0 	ret
/home/lagadanu/Desktop/qemu/optee_os/lib/libutee/tee_api_objects.c:23
    20c0:	b9400023 	ldr	w3, [x1]
    20c4:	b9001003 	str	w3, [x0,#16]
/home/lagadanu/Desktop/qemu/optee_os/lib/libutee/tee_api_objects.c:24
    20c8:	36e80103 	tbz	w3, #29, 20e8 <__utee_from_attr+0x3c>
/home/lagadanu/Desktop/qemu/optee_os/lib/libutee/tee_api_objects.c:25
    20cc:	b9400823 	ldr	w3, [x1,#8]
    20d0:	f9000003 	str	x3, [x0]
/home/lagadanu/Desktop/qemu/optee_os/lib/libutee/tee_api_objects.c:26
    20d4:	b9400c23 	ldr	w3, [x1,#12]
/home/lagadanu/Desktop/qemu/optee_os/lib/libutee/tee_api_objects.c:29
    20d8:	f9000403 	str	x3, [x0,#8]
    20dc:	91006021 	add	x1, x1, #0x18
    20e0:	91006000 	add	x0, x0, #0x18
    20e4:	17fffff4 	b	20b4 <__utee_from_attr+0x8>
/home/lagadanu/Desktop/qemu/optee_os/lib/libutee/tee_api_objects.c:28
    20e8:	f9400423 	ldr	x3, [x1,#8]
    20ec:	f9000003 	str	x3, [x0]
/home/lagadanu/Desktop/qemu/optee_os/lib/libutee/tee_api_objects.c:29
    20f0:	b9401023 	ldr	w3, [x1,#16]
    20f4:	17fffff9 	b	20d8 <__utee_from_attr+0x2c>

00000000000020f8 <TEE_GetObjectInfo>:
TEE_GetObjectInfo():
/home/lagadanu/Desktop/qemu/optee_os/lib/libutee/tee_api_objects.c:42
    20f8:	a9be7bfd 	stp	x29, x30, [sp,#-32]!
    20fc:	910003fd 	mov	x29, sp
    2100:	f9000bf3 	str	x19, [sp,#16]
    2104:	aa0103f3 	mov	x19, x1
/home/lagadanu/Desktop/qemu/optee_os/lib/libutee/tee_api_objects.c:45
    2108:	94000d25 	bl	559c <utee_cryp_obj_get_info>
/home/lagadanu/Desktop/qemu/optee_os/lib/libutee/tee_api_objects.c:47
    210c:	34000040 	cbz	w0, 2114 <TEE_GetObjectInfo+0x1c>
/home/lagadanu/Desktop/qemu/optee_os/lib/libutee/tee_api_objects.c:48
    2110:	94000c25 	bl	51a4 <TEE_Panic>
/home/lagadanu/Desktop/qemu/optee_os/lib/libutee/tee_api_objects.c:50
    2114:	b9400261 	ldr	w1, [x19]
    2118:	528017c0 	mov	w0, #0xbe                  	// #190
    211c:	72b40000 	movk	w0, #0xa000, lsl #16
    2120:	6b00003f 	cmp	w1, w0
    2124:	54000081 	b.ne	2134 <TEE_GetObjectInfo+0x3c>
/home/lagadanu/Desktop/qemu/optee_os/lib/libutee/tee_api_objects.c:52
    2128:	2900fe7f 	stp	wzr, wzr, [x19,#4]
/home/lagadanu/Desktop/qemu/optee_os/lib/libutee/tee_api_objects.c:54
    212c:	2901fe7f 	stp	wzr, wzr, [x19,#12]
/home/lagadanu/Desktop/qemu/optee_os/lib/libutee/tee_api_objects.c:56
    2130:	2902fe7f 	stp	wzr, wzr, [x19,#20]
/home/lagadanu/Desktop/qemu/optee_os/lib/libutee/tee_api_objects.c:58
    2134:	f9400bf3 	ldr	x19, [sp,#16]
    2138:	a8c27bfd 	ldp	x29, x30, [sp],#32
    213c:	d65f03c0 	ret

0000000000002140 <TEE_GetObjectInfo1>:
TEE_GetObjectInfo1():
/home/lagadanu/Desktop/qemu/optee_os/lib/libutee/tee_api_objects.c:61
    2140:	a9be7bfd 	stp	x29, x30, [sp,#-32]!
    2144:	910003fd 	mov	x29, sp
    2148:	f9000bf3 	str	x19, [sp,#16]
/home/lagadanu/Desktop/qemu/optee_os/lib/libutee/tee_api_objects.c:64
    214c:	94000d14 	bl	559c <utee_cryp_obj_get_info>
/home/lagadanu/Desktop/qemu/optee_os/lib/libutee/tee_api_objects.c:67
    2150:	52800021 	mov	w1, #0x1                   	// #1
    2154:	121e7802 	and	w2, w0, #0xfffffffd
    2158:	7100001f 	cmp	w0, #0x0
    215c:	72be0201 	movk	w1, #0xf010, lsl #16
/home/lagadanu/Desktop/qemu/optee_os/lib/libutee/tee_api_objects.c:64
    2160:	2a0003f3 	mov	w19, w0
/home/lagadanu/Desktop/qemu/optee_os/lib/libutee/tee_api_objects.c:67
    2164:	7a411044 	ccmp	w2, w1, #0x4, ne
    2168:	54000040 	b.eq	2170 <TEE_GetObjectInfo1+0x30>
/home/lagadanu/Desktop/qemu/optee_os/lib/libutee/tee_api_objects.c:69
    216c:	94000c0e 	bl	51a4 <TEE_Panic>
/home/lagadanu/Desktop/qemu/optee_os/lib/libutee/tee_api_objects.c:72
    2170:	2a1303e0 	mov	w0, w19
    2174:	f9400bf3 	ldr	x19, [sp,#16]
    2178:	a8c27bfd 	ldp	x29, x30, [sp],#32
    217c:	d65f03c0 	ret

0000000000002180 <TEE_RestrictObjectUsage1>:
TEE_RestrictObjectUsage1():
/home/lagadanu/Desktop/qemu/optee_os/lib/libutee/tee_api_objects.c:96
    2180:	a9be7bfd 	stp	x29, x30, [sp,#-32]!
/home/lagadanu/Desktop/qemu/optee_os/lib/libutee/tee_api_objects.c:99
    2184:	2a0103e1 	mov	w1, w1
/home/lagadanu/Desktop/qemu/optee_os/lib/libutee/tee_api_objects.c:96
    2188:	910003fd 	mov	x29, sp
    218c:	f9000bf3 	str	x19, [sp,#16]
/home/lagadanu/Desktop/qemu/optee_os/lib/libutee/tee_api_objects.c:99
    2190:	94000d06 	bl	55a8 <utee_cryp_obj_restrict_usage>
/home/lagadanu/Desktop/qemu/optee_os/lib/libutee/tee_api_objects.c:102
    2194:	52800021 	mov	w1, #0x1                   	// #1
    2198:	121e7802 	and	w2, w0, #0xfffffffd
    219c:	7100001f 	cmp	w0, #0x0
    21a0:	72be0201 	movk	w1, #0xf010, lsl #16
/home/lagadanu/Desktop/qemu/optee_os/lib/libutee/tee_api_objects.c:99
    21a4:	2a0003f3 	mov	w19, w0
/home/lagadanu/Desktop/qemu/optee_os/lib/libutee/tee_api_objects.c:102
    21a8:	7a411044 	ccmp	w2, w1, #0x4, ne
    21ac:	54000040 	b.eq	21b4 <TEE_RestrictObjectUsage1+0x34>
/home/lagadanu/Desktop/qemu/optee_os/lib/libutee/tee_api_objects.c:104
    21b0:	94000bfd 	bl	51a4 <TEE_Panic>
/home/lagadanu/Desktop/qemu/optee_os/lib/libutee/tee_api_objects.c:107
    21b4:	2a1303e0 	mov	w0, w19
    21b8:	f9400bf3 	ldr	x19, [sp,#16]
    21bc:	a8c27bfd 	ldp	x29, x30, [sp],#32
    21c0:	d65f03c0 	ret

00000000000021c4 <TEE_RestrictObjectUsage>:
TEE_RestrictObjectUsage():
/home/lagadanu/Desktop/qemu/optee_os/lib/libutee/tee_api_objects.c:81
    21c4:	a9bc7bfd 	stp	x29, x30, [sp,#-64]!
    21c8:	910003fd 	mov	x29, sp
    21cc:	a90153f3 	stp	x19, x20, [sp,#16]
    21d0:	aa0003f3 	mov	x19, x0
    21d4:	2a0103f4 	mov	w20, w1
/home/lagadanu/Desktop/qemu/optee_os/lib/libutee/tee_api_objects.c:85
    21d8:	910083a1 	add	x1, x29, #0x20
    21dc:	94000cf0 	bl	559c <utee_cryp_obj_get_info>
/home/lagadanu/Desktop/qemu/optee_os/lib/libutee/tee_api_objects.c:86
    21e0:	b94023a1 	ldr	w1, [x29,#32]
    21e4:	528017c0 	mov	w0, #0xbe                  	// #190
    21e8:	72b40000 	movk	w0, #0xa000, lsl #16
    21ec:	6b00003f 	cmp	w1, w0
    21f0:	540000c0 	b.eq	2208 <TEE_RestrictObjectUsage+0x44>
/home/lagadanu/Desktop/qemu/optee_os/lib/libutee/tee_api_objects.c:89
    21f4:	2a1403e1 	mov	w1, w20
    21f8:	aa1303e0 	mov	x0, x19
    21fc:	97ffffe1 	bl	2180 <TEE_RestrictObjectUsage1>
/home/lagadanu/Desktop/qemu/optee_os/lib/libutee/tee_api_objects.c:91
    2200:	34000040 	cbz	w0, 2208 <TEE_RestrictObjectUsage+0x44>
/home/lagadanu/Desktop/qemu/optee_os/lib/libutee/tee_api_objects.c:92
    2204:	94000be8 	bl	51a4 <TEE_Panic>
/home/lagadanu/Desktop/qemu/optee_os/lib/libutee/tee_api_objects.c:93
    2208:	a94153f3 	ldp	x19, x20, [sp,#16]
    220c:	a8c47bfd 	ldp	x29, x30, [sp],#64
    2210:	d65f03c0 	ret

0000000000002214 <TEE_GetObjectBufferAttribute>:
TEE_GetObjectBufferAttribute():
/home/lagadanu/Desktop/qemu/optee_os/lib/libutee/tee_api_objects.c:112
    2214:	a9b97bfd 	stp	x29, x30, [sp,#-112]!
    2218:	910003fd 	mov	x29, sp
    221c:	a90153f3 	stp	x19, x20, [sp,#16]
    2220:	aa0303f4 	mov	x20, x3
    2224:	a9025bf5 	stp	x21, x22, [sp,#32]
    2228:	aa0003f6 	mov	x22, x0
    222c:	f9001bf7 	str	x23, [sp,#48]
    2230:	2a0103f5 	mov	w21, w1
    2234:	aa0203f7 	mov	x23, x2
/home/lagadanu/Desktop/qemu/optee_os/lib/libutee/tee_api_objects.c:117
    2238:	910143a1 	add	x1, x29, #0x50
    223c:	94000cd8 	bl	559c <utee_cryp_obj_get_info>
    2240:	2a0003f3 	mov	w19, w0
/home/lagadanu/Desktop/qemu/optee_os/lib/libutee/tee_api_objects.c:118
    2244:	350001a0 	cbnz	w0, 2278 <TEE_GetObjectBufferAttribute+0x64>
/home/lagadanu/Desktop/qemu/optee_os/lib/libutee/tee_api_objects.c:123
    2248:	129fff33 	mov	w19, #0xffff0006            	// #-65530
/home/lagadanu/Desktop/qemu/optee_os/lib/libutee/tee_api_objects.c:122
    224c:	37e80175 	tbnz	w21, #29, 2278 <TEE_GetObjectBufferAttribute+0x64>
/home/lagadanu/Desktop/qemu/optee_os/lib/libutee/tee_api_objects.c:127
    2250:	9101c3a3 	add	x3, x29, #0x70
    2254:	b9400280 	ldr	w0, [x20]
/home/lagadanu/Desktop/qemu/optee_os/lib/libutee/tee_api_objects.c:128
    2258:	aa1703e2 	mov	x2, x23
    225c:	2a1503e1 	mov	w1, w21
/home/lagadanu/Desktop/qemu/optee_os/lib/libutee/tee_api_objects.c:127
    2260:	f81d8c60 	str	x0, [x3,#-40]!
/home/lagadanu/Desktop/qemu/optee_os/lib/libutee/tee_api_objects.c:128
    2264:	aa1603e0 	mov	x0, x22
    2268:	94000cd3 	bl	55b4 <utee_cryp_obj_get_attr>
    226c:	2a0003f3 	mov	w19, w0
/home/lagadanu/Desktop/qemu/optee_os/lib/libutee/tee_api_objects.c:130
    2270:	f94027a0 	ldr	x0, [x29,#72]
    2274:	b9000280 	str	w0, [x20]
/home/lagadanu/Desktop/qemu/optee_os/lib/libutee/tee_api_objects.c:134
    2278:	529fff00 	mov	w0, #0xfff8                	// #65528
    227c:	0b000260 	add	w0, w19, w0
/home/lagadanu/Desktop/qemu/optee_os/lib/libutee/tee_api_objects.c:133
    2280:	721c781f 	tst	w0, #0xfffffff7
    2284:	7a401a64 	ccmp	w19, #0x0, #0x4, ne
    2288:	54000100 	b.eq	22a8 <TEE_GetObjectBufferAttribute+0x94>
/home/lagadanu/Desktop/qemu/optee_os/lib/libutee/tee_api_objects.c:136
    228c:	121e7a61 	and	w1, w19, #0xfffffffd
    2290:	52800020 	mov	w0, #0x1                   	// #1
    2294:	72be0200 	movk	w0, #0xf010, lsl #16
    2298:	6b00003f 	cmp	w1, w0
    229c:	54000060 	b.eq	22a8 <TEE_GetObjectBufferAttribute+0x94>
/home/lagadanu/Desktop/qemu/optee_os/lib/libutee/tee_api_objects.c:138
    22a0:	2a1303e0 	mov	w0, w19
    22a4:	94000bc0 	bl	51a4 <TEE_Panic>
/home/lagadanu/Desktop/qemu/optee_os/lib/libutee/tee_api_objects.c:141
    22a8:	2a1303e0 	mov	w0, w19
    22ac:	f9401bf7 	ldr	x23, [sp,#48]
    22b0:	a94153f3 	ldp	x19, x20, [sp,#16]
    22b4:	a9425bf5 	ldp	x21, x22, [sp,#32]
    22b8:	a8c77bfd 	ldp	x29, x30, [sp],#112
    22bc:	d65f03c0 	ret

00000000000022c0 <TEE_GetObjectValueAttribute>:
TEE_GetObjectValueAttribute():
/home/lagadanu/Desktop/qemu/optee_os/lib/libutee/tee_api_objects.c:146
    22c0:	a9b97bfd 	stp	x29, x30, [sp,#-112]!
    22c4:	910003fd 	mov	x29, sp
    22c8:	a9025bf5 	stp	x21, x22, [sp,#32]
    22cc:	2a0103f6 	mov	w22, w1
/home/lagadanu/Desktop/qemu/optee_os/lib/libutee/tee_api_objects.c:150
    22d0:	d2800101 	mov	x1, #0x8                   	// #8
/home/lagadanu/Desktop/qemu/optee_os/lib/libutee/tee_api_objects.c:146
    22d4:	a90153f3 	stp	x19, x20, [sp,#16]
/home/lagadanu/Desktop/qemu/optee_os/lib/libutee/tee_api_objects.c:150
    22d8:	f90027a1 	str	x1, [x29,#72]
/home/lagadanu/Desktop/qemu/optee_os/lib/libutee/tee_api_objects.c:146
    22dc:	aa0203f5 	mov	x21, x2
    22e0:	f9001bf7 	str	x23, [sp,#48]
    22e4:	aa0303f4 	mov	x20, x3
/home/lagadanu/Desktop/qemu/optee_os/lib/libutee/tee_api_objects.c:152
    22e8:	910143a1 	add	x1, x29, #0x50
/home/lagadanu/Desktop/qemu/optee_os/lib/libutee/tee_api_objects.c:146
    22ec:	aa0003f7 	mov	x23, x0
/home/lagadanu/Desktop/qemu/optee_os/lib/libutee/tee_api_objects.c:152
    22f0:	94000cab 	bl	559c <utee_cryp_obj_get_info>
    22f4:	2a0003f3 	mov	w19, w0
/home/lagadanu/Desktop/qemu/optee_os/lib/libutee/tee_api_objects.c:153
    22f8:	35000120 	cbnz	w0, 231c <TEE_GetObjectValueAttribute+0x5c>
/home/lagadanu/Desktop/qemu/optee_os/lib/libutee/tee_api_objects.c:158
    22fc:	129fff33 	mov	w19, #0xffff0006            	// #-65530
/home/lagadanu/Desktop/qemu/optee_os/lib/libutee/tee_api_objects.c:157
    2300:	36e800f6 	tbz	w22, #29, 231c <TEE_GetObjectValueAttribute+0x5c>
/home/lagadanu/Desktop/qemu/optee_os/lib/libutee/tee_api_objects.c:162
    2304:	910123a3 	add	x3, x29, #0x48
    2308:	910103a2 	add	x2, x29, #0x40
    230c:	2a1603e1 	mov	w1, w22
    2310:	aa1703e0 	mov	x0, x23
    2314:	94000ca8 	bl	55b4 <utee_cryp_obj_get_attr>
    2318:	2a0003f3 	mov	w19, w0
/home/lagadanu/Desktop/qemu/optee_os/lib/libutee/tee_api_objects.c:166
    231c:	7100027f 	cmp	w19, #0x0
    2320:	129ffee0 	mov	w0, #0xffff0008            	// #-65528
    2324:	7a401264 	ccmp	w19, w0, #0x4, ne
    2328:	54000100 	b.eq	2348 <TEE_GetObjectValueAttribute+0x88>
/home/lagadanu/Desktop/qemu/optee_os/lib/libutee/tee_api_objects.c:168
    232c:	121e7a61 	and	w1, w19, #0xfffffffd
    2330:	52800020 	mov	w0, #0x1                   	// #1
    2334:	72be0200 	movk	w0, #0xf010, lsl #16
    2338:	6b00003f 	cmp	w1, w0
    233c:	54000060 	b.eq	2348 <TEE_GetObjectValueAttribute+0x88>
/home/lagadanu/Desktop/qemu/optee_os/lib/libutee/tee_api_objects.c:170
    2340:	2a1303e0 	mov	w0, w19
    2344:	94000b98 	bl	51a4 <TEE_Panic>
/home/lagadanu/Desktop/qemu/optee_os/lib/libutee/tee_api_objects.c:172
    2348:	f94027a0 	ldr	x0, [x29,#72]
    234c:	f100201f 	cmp	x0, #0x8
    2350:	54000060 	b.eq	235c <TEE_GetObjectValueAttribute+0x9c>
/home/lagadanu/Desktop/qemu/optee_os/lib/libutee/tee_api_objects.c:173
    2354:	52800000 	mov	w0, #0x0                   	// #0
    2358:	94000b93 	bl	51a4 <TEE_Panic>
/home/lagadanu/Desktop/qemu/optee_os/lib/libutee/tee_api_objects.c:175
    235c:	350000f3 	cbnz	w19, 2378 <TEE_GetObjectValueAttribute+0xb8>
/home/lagadanu/Desktop/qemu/optee_os/lib/libutee/tee_api_objects.c:176
    2360:	b4000075 	cbz	x21, 236c <TEE_GetObjectValueAttribute+0xac>
/home/lagadanu/Desktop/qemu/optee_os/lib/libutee/tee_api_objects.c:177
    2364:	b94043a0 	ldr	w0, [x29,#64]
    2368:	b90002a0 	str	w0, [x21]
/home/lagadanu/Desktop/qemu/optee_os/lib/libutee/tee_api_objects.c:178
    236c:	b4000074 	cbz	x20, 2378 <TEE_GetObjectValueAttribute+0xb8>
/home/lagadanu/Desktop/qemu/optee_os/lib/libutee/tee_api_objects.c:179
    2370:	b94047a0 	ldr	w0, [x29,#68]
    2374:	b9000280 	str	w0, [x20]
/home/lagadanu/Desktop/qemu/optee_os/lib/libutee/tee_api_objects.c:183
    2378:	2a1303e0 	mov	w0, w19
    237c:	f9401bf7 	ldr	x23, [sp,#48]
    2380:	a94153f3 	ldp	x19, x20, [sp,#16]
    2384:	a9425bf5 	ldp	x21, x22, [sp,#32]
    2388:	a8c77bfd 	ldp	x29, x30, [sp],#112
    238c:	d65f03c0 	ret

0000000000002390 <TEE_CloseObject>:
TEE_CloseObject():
/home/lagadanu/Desktop/qemu/optee_os/lib/libutee/tee_api_objects.c:189
    2390:	b4000120 	cbz	x0, 23b4 <TEE_CloseObject+0x24>
/home/lagadanu/Desktop/qemu/optee_os/lib/libutee/tee_api_objects.c:186
    2394:	a9bf7bfd 	stp	x29, x30, [sp,#-16]!
    2398:	910003fd 	mov	x29, sp
/home/lagadanu/Desktop/qemu/optee_os/lib/libutee/tee_api_objects.c:192
    239c:	94000c8c 	bl	55cc <utee_cryp_obj_close>
/home/lagadanu/Desktop/qemu/optee_os/lib/libutee/tee_api_objects.c:193
    23a0:	34000060 	cbz	w0, 23ac <TEE_CloseObject+0x1c>
/home/lagadanu/Desktop/qemu/optee_os/lib/libutee/tee_api_objects.c:195
    23a4:	a8c17bfd 	ldp	x29, x30, [sp],#16
/home/lagadanu/Desktop/qemu/optee_os/lib/libutee/tee_api_objects.c:194
    23a8:	14000b7f 	b	51a4 <TEE_Panic>
/home/lagadanu/Desktop/qemu/optee_os/lib/libutee/tee_api_objects.c:195
    23ac:	a8c17bfd 	ldp	x29, x30, [sp],#16
    23b0:	d65f03c0 	ret
    23b4:	d65f03c0 	ret

00000000000023b8 <TEE_AllocateTransientObject>:
TEE_AllocateTransientObject():
/home/lagadanu/Desktop/qemu/optee_os/lib/libutee/tee_api_objects.c:202
    23b8:	a9bd7bfd 	stp	x29, x30, [sp,#-48]!
/home/lagadanu/Desktop/qemu/optee_os/lib/libutee/tee_api_objects.c:206
    23bc:	2a0103e1 	mov	w1, w1
    23c0:	2a0003e0 	mov	w0, w0
/home/lagadanu/Desktop/qemu/optee_os/lib/libutee/tee_api_objects.c:202
    23c4:	910003fd 	mov	x29, sp
    23c8:	a90153f3 	stp	x19, x20, [sp,#16]
    23cc:	aa0203f4 	mov	x20, x2
/home/lagadanu/Desktop/qemu/optee_os/lib/libutee/tee_api_objects.c:206
    23d0:	9100b3a2 	add	x2, x29, #0x2c
    23d4:	94000c7b 	bl	55c0 <utee_cryp_obj_alloc>
/home/lagadanu/Desktop/qemu/optee_os/lib/libutee/tee_api_objects.c:208
    23d8:	7100001f 	cmp	w0, #0x0
    23dc:	129ffe61 	mov	w1, #0xffff000c            	// #-65524
/home/lagadanu/Desktop/qemu/optee_os/lib/libutee/tee_api_objects.c:206
    23e0:	2a0003f3 	mov	w19, w0
/home/lagadanu/Desktop/qemu/optee_os/lib/libutee/tee_api_objects.c:208
    23e4:	7a411004 	ccmp	w0, w1, #0x4, ne
    23e8:	54000120 	b.eq	240c <TEE_AllocateTransientObject+0x54>
/home/lagadanu/Desktop/qemu/optee_os/lib/libutee/tee_api_objects.c:209
    23ec:	129ffea1 	mov	w1, #0xffff000a            	// #-65526
    23f0:	6b01001f 	cmp	w0, w1
    23f4:	54000040 	b.eq	23fc <TEE_AllocateTransientObject+0x44>
/home/lagadanu/Desktop/qemu/optee_os/lib/libutee/tee_api_objects.c:211
    23f8:	94000b6b 	bl	51a4 <TEE_Panic>
/home/lagadanu/Desktop/qemu/optee_os/lib/libutee/tee_api_objects.c:217
    23fc:	2a1303e0 	mov	w0, w19
    2400:	a94153f3 	ldp	x19, x20, [sp,#16]
    2404:	a8c37bfd 	ldp	x29, x30, [sp],#48
    2408:	d65f03c0 	ret
/home/lagadanu/Desktop/qemu/optee_os/lib/libutee/tee_api_objects.c:213
    240c:	35ffff80 	cbnz	w0, 23fc <TEE_AllocateTransientObject+0x44>
/home/lagadanu/Desktop/qemu/optee_os/lib/libutee/tee_api_objects.c:214
    2410:	b9402fa0 	ldr	w0, [x29,#44]
    2414:	f9000280 	str	x0, [x20]
/home/lagadanu/Desktop/qemu/optee_os/lib/libutee/tee_api_objects.c:216
    2418:	17fffff9 	b	23fc <TEE_AllocateTransientObject+0x44>

000000000000241c <TEE_FreeTransientObject>:
TEE_FreeTransientObject():
/home/lagadanu/Desktop/qemu/optee_os/lib/libutee/tee_api_objects.c:224
    241c:	b4000280 	cbz	x0, 246c <TEE_FreeTransientObject+0x50>
/home/lagadanu/Desktop/qemu/optee_os/lib/libutee/tee_api_objects.c:220
    2420:	a9bc7bfd 	stp	x29, x30, [sp,#-64]!
    2424:	910003fd 	mov	x29, sp
    2428:	f9000bf3 	str	x19, [sp,#16]
/home/lagadanu/Desktop/qemu/optee_os/lib/libutee/tee_api_objects.c:227
    242c:	910083a1 	add	x1, x29, #0x20
    2430:	aa0003f3 	mov	x19, x0
    2434:	94000c5a 	bl	559c <utee_cryp_obj_get_info>
/home/lagadanu/Desktop/qemu/optee_os/lib/libutee/tee_api_objects.c:228
    2438:	34000040 	cbz	w0, 2440 <TEE_FreeTransientObject+0x24>
/home/lagadanu/Desktop/qemu/optee_os/lib/libutee/tee_api_objects.c:229
    243c:	94000b5a 	bl	51a4 <TEE_Panic>
/home/lagadanu/Desktop/qemu/optee_os/lib/libutee/tee_api_objects.c:231
    2440:	b9403ba0 	ldr	w0, [x29,#56]
    2444:	36800060 	tbz	w0, #16, 2450 <TEE_FreeTransientObject+0x34>
/home/lagadanu/Desktop/qemu/optee_os/lib/libutee/tee_api_objects.c:232
    2448:	52800000 	mov	w0, #0x0                   	// #0
    244c:	94000b56 	bl	51a4 <TEE_Panic>
/home/lagadanu/Desktop/qemu/optee_os/lib/libutee/tee_api_objects.c:234
    2450:	aa1303e0 	mov	x0, x19
    2454:	94000c5e 	bl	55cc <utee_cryp_obj_close>
/home/lagadanu/Desktop/qemu/optee_os/lib/libutee/tee_api_objects.c:235
    2458:	34000040 	cbz	w0, 2460 <TEE_FreeTransientObject+0x44>
/home/lagadanu/Desktop/qemu/optee_os/lib/libutee/tee_api_objects.c:236
    245c:	94000b52 	bl	51a4 <TEE_Panic>
/home/lagadanu/Desktop/qemu/optee_os/lib/libutee/tee_api_objects.c:237
    2460:	f9400bf3 	ldr	x19, [sp,#16]
    2464:	a8c47bfd 	ldp	x29, x30, [sp],#64
    2468:	d65f03c0 	ret
    246c:	d65f03c0 	ret

0000000000002470 <TEE_ResetTransientObject>:
TEE_ResetTransientObject():
/home/lagadanu/Desktop/qemu/optee_os/lib/libutee/tee_api_objects.c:244
    2470:	b4000280 	cbz	x0, 24c0 <TEE_ResetTransientObject+0x50>
/home/lagadanu/Desktop/qemu/optee_os/lib/libutee/tee_api_objects.c:240
    2474:	a9bc7bfd 	stp	x29, x30, [sp,#-64]!
    2478:	910003fd 	mov	x29, sp
    247c:	f9000bf3 	str	x19, [sp,#16]
/home/lagadanu/Desktop/qemu/optee_os/lib/libutee/tee_api_objects.c:247
    2480:	910083a1 	add	x1, x29, #0x20
    2484:	aa0003f3 	mov	x19, x0
    2488:	94000c45 	bl	559c <utee_cryp_obj_get_info>
/home/lagadanu/Desktop/qemu/optee_os/lib/libutee/tee_api_objects.c:248
    248c:	34000040 	cbz	w0, 2494 <TEE_ResetTransientObject+0x24>
/home/lagadanu/Desktop/qemu/optee_os/lib/libutee/tee_api_objects.c:249
    2490:	94000b45 	bl	51a4 <TEE_Panic>
/home/lagadanu/Desktop/qemu/optee_os/lib/libutee/tee_api_objects.c:251
    2494:	b9403ba0 	ldr	w0, [x29,#56]
    2498:	36800060 	tbz	w0, #16, 24a4 <TEE_ResetTransientObject+0x34>
/home/lagadanu/Desktop/qemu/optee_os/lib/libutee/tee_api_objects.c:252
    249c:	52800000 	mov	w0, #0x0                   	// #0
    24a0:	94000b41 	bl	51a4 <TEE_Panic>
/home/lagadanu/Desktop/qemu/optee_os/lib/libutee/tee_api_objects.c:254
    24a4:	aa1303e0 	mov	x0, x19
    24a8:	94000c4c 	bl	55d8 <utee_cryp_obj_reset>
/home/lagadanu/Desktop/qemu/optee_os/lib/libutee/tee_api_objects.c:255
    24ac:	34000040 	cbz	w0, 24b4 <TEE_ResetTransientObject+0x44>
/home/lagadanu/Desktop/qemu/optee_os/lib/libutee/tee_api_objects.c:256
    24b0:	94000b3d 	bl	51a4 <TEE_Panic>
/home/lagadanu/Desktop/qemu/optee_os/lib/libutee/tee_api_objects.c:257
    24b4:	f9400bf3 	ldr	x19, [sp,#16]
    24b8:	a8c47bfd 	ldp	x29, x30, [sp],#64
    24bc:	d65f03c0 	ret
    24c0:	d65f03c0 	ret

00000000000024c4 <TEE_PopulateTransientObject>:
TEE_PopulateTransientObject():
/home/lagadanu/Desktop/qemu/optee_os/lib/libutee/tee_api_objects.c:262
    24c4:	a9ba7bfd 	stp	x29, x30, [sp,#-96]!
    24c8:	910003fd 	mov	x29, sp
    24cc:	a9025bf5 	stp	x21, x22, [sp,#32]
    24d0:	2a0203f6 	mov	w22, w2
    24d4:	f9001bf7 	str	x23, [sp,#48]
    24d8:	aa0103f7 	mov	x23, x1
/home/lagadanu/Desktop/qemu/optee_os/lib/libutee/tee_api_objects.c:265
    24dc:	52800301 	mov	w1, #0x18                  	// #24
/home/lagadanu/Desktop/qemu/optee_os/lib/libutee/tee_api_objects.c:262
    24e0:	a90153f3 	stp	x19, x20, [sp,#16]
    24e4:	aa0003f5 	mov	x21, x0
    24e8:	aa1603f3 	mov	x19, x22
/home/lagadanu/Desktop/qemu/optee_os/lib/libutee/tee_api_objects.c:265
    24ec:	9ba17ec1 	umull	x1, w22, w1
    24f0:	91005821 	add	x1, x1, #0x16
    24f4:	927c8421 	and	x1, x1, #0x3ffffffff0
    24f8:	cb2163ff 	sub	sp, sp, x1
/home/lagadanu/Desktop/qemu/optee_os/lib/libutee/tee_api_objects.c:267
    24fc:	910103a1 	add	x1, x29, #0x40
/home/lagadanu/Desktop/qemu/optee_os/lib/libutee/tee_api_objects.c:265
    2500:	910003f4 	mov	x20, sp
/home/lagadanu/Desktop/qemu/optee_os/lib/libutee/tee_api_objects.c:267
    2504:	94000c26 	bl	559c <utee_cryp_obj_get_info>
/home/lagadanu/Desktop/qemu/optee_os/lib/libutee/tee_api_objects.c:268
    2508:	34000040 	cbz	w0, 2510 <TEE_PopulateTransientObject+0x4c>
/home/lagadanu/Desktop/qemu/optee_os/lib/libutee/tee_api_objects.c:269
    250c:	94000b26 	bl	51a4 <TEE_Panic>
/home/lagadanu/Desktop/qemu/optee_os/lib/libutee/tee_api_objects.c:272
    2510:	b9405ba0 	ldr	w0, [x29,#88]
    2514:	36800060 	tbz	w0, #16, 2520 <TEE_PopulateTransientObject+0x5c>
/home/lagadanu/Desktop/qemu/optee_os/lib/libutee/tee_api_objects.c:273
    2518:	52800000 	mov	w0, #0x0                   	// #0
    251c:	94000b22 	bl	51a4 <TEE_Panic>
/home/lagadanu/Desktop/qemu/optee_os/lib/libutee/tee_api_objects.c:276
    2520:	b9405ba0 	ldr	w0, [x29,#88]
    2524:	36880060 	tbz	w0, #17, 2530 <TEE_PopulateTransientObject+0x6c>
/home/lagadanu/Desktop/qemu/optee_os/lib/libutee/tee_api_objects.c:277
    2528:	52800000 	mov	w0, #0x0                   	// #0
    252c:	94000b1e 	bl	51a4 <TEE_Panic>
/home/lagadanu/Desktop/qemu/optee_os/lib/libutee/tee_api_objects.c:279
    2530:	2a1303e2 	mov	w2, w19
    2534:	aa1703e1 	mov	x1, x23
    2538:	aa1403e0 	mov	x0, x20
    253c:	97fffedc 	bl	20ac <__utee_from_attr>
/home/lagadanu/Desktop/qemu/optee_os/lib/libutee/tee_api_objects.c:280
    2540:	aa1403e1 	mov	x1, x20
    2544:	aa1603e2 	mov	x2, x22
    2548:	aa1503e0 	mov	x0, x21
    254c:	94000c26 	bl	55e4 <utee_cryp_obj_populate>
/home/lagadanu/Desktop/qemu/optee_os/lib/libutee/tee_api_objects.c:281
    2550:	7100001f 	cmp	w0, #0x0
    2554:	129fff21 	mov	w1, #0xffff0006            	// #-65530
/home/lagadanu/Desktop/qemu/optee_os/lib/libutee/tee_api_objects.c:280
    2558:	2a0003f3 	mov	w19, w0
/home/lagadanu/Desktop/qemu/optee_os/lib/libutee/tee_api_objects.c:281
    255c:	7a411004 	ccmp	w0, w1, #0x4, ne
    2560:	54000040 	b.eq	2568 <TEE_PopulateTransientObject+0xa4>
/home/lagadanu/Desktop/qemu/optee_os/lib/libutee/tee_api_objects.c:282
    2564:	94000b10 	bl	51a4 <TEE_Panic>
/home/lagadanu/Desktop/qemu/optee_os/lib/libutee/tee_api_objects.c:284
    2568:	910003bf 	mov	sp, x29
    256c:	2a1303e0 	mov	w0, w19
    2570:	f9401bf7 	ldr	x23, [sp,#48]
    2574:	a94153f3 	ldp	x19, x20, [sp,#16]
    2578:	a9425bf5 	ldp	x21, x22, [sp,#32]
    257c:	a8c67bfd 	ldp	x29, x30, [sp],#96
    2580:	d65f03c0 	ret

0000000000002584 <TEE_InitRefAttribute>:
TEE_InitRefAttribute():
/home/lagadanu/Desktop/qemu/optee_os/lib/libutee/tee_api_objects.c:288
    2584:	a9bd7bfd 	stp	x29, x30, [sp,#-48]!
    2588:	910003fd 	mov	x29, sp
    258c:	a90153f3 	stp	x19, x20, [sp,#16]
    2590:	aa0003f3 	mov	x19, x0
    2594:	a9025bf5 	stp	x21, x22, [sp,#32]
    2598:	2a0103f4 	mov	w20, w1
    259c:	aa0203f6 	mov	x22, x2
    25a0:	2a0303f5 	mov	w21, w3
/home/lagadanu/Desktop/qemu/optee_os/lib/libutee/tee_api_objects.c:289
    25a4:	b5000060 	cbnz	x0, 25b0 <TEE_InitRefAttribute+0x2c>
/home/lagadanu/Desktop/qemu/optee_os/lib/libutee/tee_api_objects.c:290
    25a8:	52800000 	mov	w0, #0x0                   	// #0
    25ac:	94000afe 	bl	51a4 <TEE_Panic>
/home/lagadanu/Desktop/qemu/optee_os/lib/libutee/tee_api_objects.c:291
    25b0:	36e80074 	tbz	w20, #29, 25bc <TEE_InitRefAttribute+0x38>
/home/lagadanu/Desktop/qemu/optee_os/lib/libutee/tee_api_objects.c:292
    25b4:	52800000 	mov	w0, #0x0                   	// #0
    25b8:	94000afb 	bl	51a4 <TEE_Panic>
/home/lagadanu/Desktop/qemu/optee_os/lib/libutee/tee_api_objects.c:294
    25bc:	f9000676 	str	x22, [x19,#8]
/home/lagadanu/Desktop/qemu/optee_os/lib/libutee/tee_api_objects.c:295
    25c0:	b9001275 	str	w21, [x19,#16]
/home/lagadanu/Desktop/qemu/optee_os/lib/libutee/tee_api_objects.c:293
    25c4:	b9000274 	str	w20, [x19]
/home/lagadanu/Desktop/qemu/optee_os/lib/libutee/tee_api_objects.c:296
    25c8:	a9425bf5 	ldp	x21, x22, [sp,#32]
    25cc:	a94153f3 	ldp	x19, x20, [sp,#16]
    25d0:	a8c37bfd 	ldp	x29, x30, [sp],#48
    25d4:	d65f03c0 	ret

00000000000025d8 <TEE_InitValueAttribute>:
TEE_InitValueAttribute():
/home/lagadanu/Desktop/qemu/optee_os/lib/libutee/tee_api_objects.c:300
    25d8:	a9bd7bfd 	stp	x29, x30, [sp,#-48]!
    25dc:	910003fd 	mov	x29, sp
    25e0:	a90153f3 	stp	x19, x20, [sp,#16]
    25e4:	aa0003f3 	mov	x19, x0
    25e8:	a9025bf5 	stp	x21, x22, [sp,#32]
    25ec:	2a0103f4 	mov	w20, w1
    25f0:	2a0203f6 	mov	w22, w2
    25f4:	2a0303f5 	mov	w21, w3
/home/lagadanu/Desktop/qemu/optee_os/lib/libutee/tee_api_objects.c:301
    25f8:	b5000060 	cbnz	x0, 2604 <TEE_InitValueAttribute+0x2c>
/home/lagadanu/Desktop/qemu/optee_os/lib/libutee/tee_api_objects.c:302
    25fc:	52800000 	mov	w0, #0x0                   	// #0
    2600:	94000ae9 	bl	51a4 <TEE_Panic>
/home/lagadanu/Desktop/qemu/optee_os/lib/libutee/tee_api_objects.c:303
    2604:	37e80074 	tbnz	w20, #29, 2610 <TEE_InitValueAttribute+0x38>
/home/lagadanu/Desktop/qemu/optee_os/lib/libutee/tee_api_objects.c:304
    2608:	52800000 	mov	w0, #0x0                   	// #0
    260c:	94000ae6 	bl	51a4 <TEE_Panic>
/home/lagadanu/Desktop/qemu/optee_os/lib/libutee/tee_api_objects.c:307
    2610:	29015676 	stp	w22, w21, [x19,#8]
/home/lagadanu/Desktop/qemu/optee_os/lib/libutee/tee_api_objects.c:305
    2614:	b9000274 	str	w20, [x19]
/home/lagadanu/Desktop/qemu/optee_os/lib/libutee/tee_api_objects.c:308
    2618:	a9425bf5 	ldp	x21, x22, [sp,#32]
    261c:	a94153f3 	ldp	x19, x20, [sp,#16]
    2620:	a8c37bfd 	ldp	x29, x30, [sp],#48
    2624:	d65f03c0 	ret

0000000000002628 <TEE_CopyObjectAttributes1>:
TEE_CopyObjectAttributes1():
/home/lagadanu/Desktop/qemu/optee_os/lib/libutee/tee_api_objects.c:333
    2628:	a9b97bfd 	stp	x29, x30, [sp,#-112]!
    262c:	910003fd 	mov	x29, sp
    2630:	a90153f3 	stp	x19, x20, [sp,#16]
    2634:	aa0103f4 	mov	x20, x1
    2638:	f90013f5 	str	x21, [sp,#32]
/home/lagadanu/Desktop/qemu/optee_os/lib/libutee/tee_api_objects.c:338
    263c:	9100c3a1 	add	x1, x29, #0x30
/home/lagadanu/Desktop/qemu/optee_os/lib/libutee/tee_api_objects.c:333
    2640:	aa0003f5 	mov	x21, x0
/home/lagadanu/Desktop/qemu/optee_os/lib/libutee/tee_api_objects.c:338
    2644:	94000bd6 	bl	559c <utee_cryp_obj_get_info>
    2648:	2a0003f3 	mov	w19, w0
/home/lagadanu/Desktop/qemu/optee_os/lib/libutee/tee_api_objects.c:339
    264c:	350002a0 	cbnz	w0, 26a0 <TEE_CopyObjectAttributes1+0x78>
/home/lagadanu/Desktop/qemu/optee_os/lib/libutee/tee_api_objects.c:342
    2650:	910143a1 	add	x1, x29, #0x50
    2654:	aa1403e0 	mov	x0, x20
    2658:	94000bd1 	bl	559c <utee_cryp_obj_get_info>
    265c:	2a0003f3 	mov	w19, w0
/home/lagadanu/Desktop/qemu/optee_os/lib/libutee/tee_api_objects.c:343
    2660:	35000200 	cbnz	w0, 26a0 <TEE_CopyObjectAttributes1+0x78>
/home/lagadanu/Desktop/qemu/optee_os/lib/libutee/tee_api_objects.c:346
    2664:	b9406ba1 	ldr	w1, [x29,#104]
    2668:	37880041 	tbnz	w1, #17, 2670 <TEE_CopyObjectAttributes1+0x48>
/home/lagadanu/Desktop/qemu/optee_os/lib/libutee/tee_api_objects.c:347
    266c:	94000ace 	bl	51a4 <TEE_Panic>
/home/lagadanu/Desktop/qemu/optee_os/lib/libutee/tee_api_objects.c:349
    2670:	b9404ba0 	ldr	w0, [x29,#72]
    2674:	36800060 	tbz	w0, #16, 2680 <TEE_CopyObjectAttributes1+0x58>
/home/lagadanu/Desktop/qemu/optee_os/lib/libutee/tee_api_objects.c:350
    2678:	52800000 	mov	w0, #0x0                   	// #0
    267c:	94000aca 	bl	51a4 <TEE_Panic>
/home/lagadanu/Desktop/qemu/optee_os/lib/libutee/tee_api_objects.c:352
    2680:	b9404ba0 	ldr	w0, [x29,#72]
    2684:	36880060 	tbz	w0, #17, 2690 <TEE_CopyObjectAttributes1+0x68>
/home/lagadanu/Desktop/qemu/optee_os/lib/libutee/tee_api_objects.c:353
    2688:	52800000 	mov	w0, #0x0                   	// #0
    268c:	94000ac6 	bl	51a4 <TEE_Panic>
/home/lagadanu/Desktop/qemu/optee_os/lib/libutee/tee_api_objects.c:355
    2690:	aa1403e1 	mov	x1, x20
    2694:	aa1503e0 	mov	x0, x21
    2698:	94000bd6 	bl	55f0 <utee_cryp_obj_copy>
    269c:	2a0003f3 	mov	w19, w0
/home/lagadanu/Desktop/qemu/optee_os/lib/libutee/tee_api_objects.c:360
    26a0:	121e7a60 	and	w0, w19, #0xfffffffd
    26a4:	7100027f 	cmp	w19, #0x0
    26a8:	52800021 	mov	w1, #0x1                   	// #1
    26ac:	72be0201 	movk	w1, #0xf010, lsl #16
    26b0:	7a411004 	ccmp	w0, w1, #0x4, ne
    26b4:	54000060 	b.eq	26c0 <TEE_CopyObjectAttributes1+0x98>
/home/lagadanu/Desktop/qemu/optee_os/lib/libutee/tee_api_objects.c:362
    26b8:	2a1303e0 	mov	w0, w19
    26bc:	94000aba 	bl	51a4 <TEE_Panic>
/home/lagadanu/Desktop/qemu/optee_os/lib/libutee/tee_api_objects.c:365
    26c0:	2a1303e0 	mov	w0, w19
    26c4:	f94013f5 	ldr	x21, [sp,#32]
    26c8:	a94153f3 	ldp	x19, x20, [sp,#16]
    26cc:	a8c77bfd 	ldp	x29, x30, [sp],#112
    26d0:	d65f03c0 	ret

00000000000026d4 <TEE_CopyObjectAttributes>:
TEE_CopyObjectAttributes():
/home/lagadanu/Desktop/qemu/optee_os/lib/libutee/tee_api_objects.c:318
    26d4:	a9bc7bfd 	stp	x29, x30, [sp,#-64]!
    26d8:	910003fd 	mov	x29, sp
    26dc:	a90153f3 	stp	x19, x20, [sp,#16]
    26e0:	aa0103f3 	mov	x19, x1
    26e4:	aa0003f4 	mov	x20, x0
/home/lagadanu/Desktop/qemu/optee_os/lib/libutee/tee_api_objects.c:322
    26e8:	910083a1 	add	x1, x29, #0x20
    26ec:	aa1303e0 	mov	x0, x19
    26f0:	94000bab 	bl	559c <utee_cryp_obj_get_info>
/home/lagadanu/Desktop/qemu/optee_os/lib/libutee/tee_api_objects.c:323
    26f4:	b94023a1 	ldr	w1, [x29,#32]
    26f8:	528017c0 	mov	w0, #0xbe                  	// #190
    26fc:	72b40000 	movk	w0, #0xa000, lsl #16
    2700:	6b00003f 	cmp	w1, w0
    2704:	540000c0 	b.eq	271c <TEE_CopyObjectAttributes+0x48>
/home/lagadanu/Desktop/qemu/optee_os/lib/libutee/tee_api_objects.c:326
    2708:	aa1303e1 	mov	x1, x19
    270c:	aa1403e0 	mov	x0, x20
    2710:	97ffffc6 	bl	2628 <TEE_CopyObjectAttributes1>
/home/lagadanu/Desktop/qemu/optee_os/lib/libutee/tee_api_objects.c:327
    2714:	34000040 	cbz	w0, 271c <TEE_CopyObjectAttributes+0x48>
/home/lagadanu/Desktop/qemu/optee_os/lib/libutee/tee_api_objects.c:328
    2718:	94000aa3 	bl	51a4 <TEE_Panic>
/home/lagadanu/Desktop/qemu/optee_os/lib/libutee/tee_api_objects.c:329
    271c:	a94153f3 	ldp	x19, x20, [sp,#16]
    2720:	a8c47bfd 	ldp	x29, x30, [sp],#64
    2724:	d65f03c0 	ret

0000000000002728 <TEE_GenerateKey>:
TEE_GenerateKey():
/home/lagadanu/Desktop/qemu/optee_os/lib/libutee/tee_api_objects.c:369
    2728:	a9bd7bfd 	stp	x29, x30, [sp,#-48]!
    272c:	910003fd 	mov	x29, sp
    2730:	a9025bf5 	stp	x21, x22, [sp,#32]
    2734:	aa0003f5 	mov	x21, x0
/home/lagadanu/Desktop/qemu/optee_os/lib/libutee/tee_api_objects.c:371
    2738:	52800300 	mov	w0, #0x18                  	// #24
/home/lagadanu/Desktop/qemu/optee_os/lib/libutee/tee_api_objects.c:369
    273c:	a90153f3 	stp	x19, x20, [sp,#16]
    2740:	2a0103f6 	mov	w22, w1
    2744:	2a0303f3 	mov	w19, w3
/home/lagadanu/Desktop/qemu/optee_os/lib/libutee/tee_api_objects.c:371
    2748:	9ba07c60 	umull	x0, w3, w0
/home/lagadanu/Desktop/qemu/optee_os/lib/libutee/tee_api_objects.c:369
    274c:	aa0203e1 	mov	x1, x2
/home/lagadanu/Desktop/qemu/optee_os/lib/libutee/tee_api_objects.c:373
    2750:	2a0303e2 	mov	w2, w3
/home/lagadanu/Desktop/qemu/optee_os/lib/libutee/tee_api_objects.c:371
    2754:	91005800 	add	x0, x0, #0x16
    2758:	927c8400 	and	x0, x0, #0x3ffffffff0
    275c:	cb2063ff 	sub	sp, sp, x0
/home/lagadanu/Desktop/qemu/optee_os/lib/libutee/tee_api_objects.c:373
    2760:	910003e0 	mov	x0, sp
    2764:	97fffe52 	bl	20ac <__utee_from_attr>
/home/lagadanu/Desktop/qemu/optee_os/lib/libutee/tee_api_objects.c:374
    2768:	2a1303e3 	mov	w3, w19
    276c:	2a1603e1 	mov	w1, w22
    2770:	910003e2 	mov	x2, sp
    2774:	aa1503e0 	mov	x0, x21
    2778:	94000be3 	bl	5704 <utee_cryp_obj_generate_key>
/home/lagadanu/Desktop/qemu/optee_os/lib/libutee/tee_api_objects.c:377
    277c:	7100001f 	cmp	w0, #0x0
    2780:	129fff21 	mov	w1, #0xffff0006            	// #-65530
/home/lagadanu/Desktop/qemu/optee_os/lib/libutee/tee_api_objects.c:374
    2784:	2a0003f3 	mov	w19, w0
/home/lagadanu/Desktop/qemu/optee_os/lib/libutee/tee_api_objects.c:377
    2788:	7a411004 	ccmp	w0, w1, #0x4, ne
    278c:	54000040 	b.eq	2794 <TEE_GenerateKey+0x6c>
/home/lagadanu/Desktop/qemu/optee_os/lib/libutee/tee_api_objects.c:378
    2790:	94000a85 	bl	51a4 <TEE_Panic>
/home/lagadanu/Desktop/qemu/optee_os/lib/libutee/tee_api_objects.c:381
    2794:	910003bf 	mov	sp, x29
    2798:	2a1303e0 	mov	w0, w19
    279c:	a94153f3 	ldp	x19, x20, [sp,#16]
    27a0:	a9425bf5 	ldp	x21, x22, [sp,#32]
    27a4:	a8c37bfd 	ldp	x29, x30, [sp],#48
    27a8:	d65f03c0 	ret

00000000000027ac <TEE_OpenPersistentObject>:
TEE_OpenPersistentObject():
/home/lagadanu/Desktop/qemu/optee_os/lib/libutee/tee_api_objects.c:388
    27ac:	a9bd7bfd 	stp	x29, x30, [sp,#-48]!
    27b0:	910003fd 	mov	x29, sp
    27b4:	a90153f3 	stp	x19, x20, [sp,#16]
/home/lagadanu/Desktop/qemu/optee_os/lib/libutee/tee_api_objects.c:393
    27b8:	129ffef3 	mov	w19, #0xffff0008            	// #-65528
/home/lagadanu/Desktop/qemu/optee_os/lib/libutee/tee_api_objects.c:392
    27bc:	b40001e1 	cbz	x1, 27f8 <TEE_OpenPersistentObject+0x4c>
/home/lagadanu/Desktop/qemu/optee_os/lib/libutee/tee_api_objects.c:402
    27c0:	7101005f 	cmp	w2, #0x40
    27c4:	aa0403f4 	mov	x20, x4
/home/lagadanu/Desktop/qemu/optee_os/lib/libutee/tee_api_objects.c:403
    27c8:	129fff33 	mov	w19, #0xffff0006            	// #-65530
/home/lagadanu/Desktop/qemu/optee_os/lib/libutee/tee_api_objects.c:402
    27cc:	fa409884 	ccmp	x4, #0x0, #0x4, ls
    27d0:	54000140 	b.eq	27f8 <TEE_OpenPersistentObject+0x4c>
/home/lagadanu/Desktop/qemu/optee_os/lib/libutee/tee_api_objects.c:407
    27d4:	9100b3a4 	add	x4, x29, #0x2c
    27d8:	2a0303e3 	mov	w3, w3
    27dc:	2a0203e2 	mov	w2, w2
    27e0:	2a0003e0 	mov	w0, w0
    27e4:	94000ba1 	bl	5668 <utee_storage_obj_open>
    27e8:	2a0003f3 	mov	w19, w0
/home/lagadanu/Desktop/qemu/optee_os/lib/libutee/tee_api_objects.c:409
    27ec:	35000060 	cbnz	w0, 27f8 <TEE_OpenPersistentObject+0x4c>
/home/lagadanu/Desktop/qemu/optee_os/lib/libutee/tee_api_objects.c:410
    27f0:	b9402fa0 	ldr	w0, [x29,#44]
    27f4:	f9000280 	str	x0, [x20]
/home/lagadanu/Desktop/qemu/optee_os/lib/libutee/tee_api_objects.c:414
    27f8:	121d7a60 	and	w0, w19, #0xfffffffb
/home/lagadanu/Desktop/qemu/optee_os/lib/libutee/tee_api_objects.c:413
    27fc:	7100027f 	cmp	w19, #0x0
    2800:	129ffee1 	mov	w1, #0xffff0008            	// #-65528
    2804:	7a411004 	ccmp	w0, w1, #0x4, ne
    2808:	54000160 	b.eq	2834 <TEE_OpenPersistentObject+0x88>
/home/lagadanu/Desktop/qemu/optee_os/lib/libutee/tee_api_objects.c:415
    280c:	129fff80 	mov	w0, #0xffff0003            	// #-65533
    2810:	6b00027f 	cmp	w19, w0
    2814:	54000100 	b.eq	2834 <TEE_OpenPersistentObject+0x88>
/home/lagadanu/Desktop/qemu/optee_os/lib/libutee/tee_api_objects.c:417
    2818:	121e7a61 	and	w1, w19, #0xfffffffd
    281c:	52800020 	mov	w0, #0x1                   	// #1
    2820:	72be0200 	movk	w0, #0xf010, lsl #16
    2824:	6b00003f 	cmp	w1, w0
    2828:	54000060 	b.eq	2834 <TEE_OpenPersistentObject+0x88>
/home/lagadanu/Desktop/qemu/optee_os/lib/libutee/tee_api_objects.c:419
    282c:	2a1303e0 	mov	w0, w19
    2830:	94000a5d 	bl	51a4 <TEE_Panic>
/home/lagadanu/Desktop/qemu/optee_os/lib/libutee/tee_api_objects.c:422
    2834:	2a1303e0 	mov	w0, w19
    2838:	a94153f3 	ldp	x19, x20, [sp,#16]
    283c:	a8c37bfd 	ldp	x29, x30, [sp],#48
    2840:	d65f03c0 	ret

0000000000002844 <TEE_CreatePersistentObject>:
TEE_CreatePersistentObject():
/home/lagadanu/Desktop/qemu/optee_os/lib/libutee/tee_api_objects.c:430
    2844:	a9bd7bfd 	stp	x29, x30, [sp,#-48]!
    2848:	910003fd 	mov	x29, sp
    284c:	f9000bf3 	str	x19, [sp,#16]
    2850:	aa0703f3 	mov	x19, x7
/home/lagadanu/Desktop/qemu/optee_os/lib/libutee/tee_api_objects.c:434
    2854:	b4000501 	cbz	x1, 28f4 <TEE_CreatePersistentObject+0xb0>
/home/lagadanu/Desktop/qemu/optee_os/lib/libutee/tee_api_objects.c:439
    2858:	7101005f 	cmp	w2, #0x40
    285c:	54000528 	b.hi	2900 <TEE_CreatePersistentObject+0xbc>
/home/lagadanu/Desktop/qemu/optee_os/lib/libutee/tee_api_objects.c:444
    2860:	9100b3a7 	add	x7, x29, #0x2c
    2864:	2a0603e6 	mov	w6, w6
    2868:	2a0303e3 	mov	w3, w3
    286c:	2a0203e2 	mov	w2, w2
    2870:	2a0003e0 	mov	w0, w0
    2874:	94000b80 	bl	5674 <utee_storage_obj_create>
/home/lagadanu/Desktop/qemu/optee_os/lib/libutee/tee_api_objects.c:447
    2878:	35000380 	cbnz	w0, 28e8 <TEE_CreatePersistentObject+0xa4>
    287c:	b9402fa1 	ldr	w1, [x29,#44]
/home/lagadanu/Desktop/qemu/optee_os/lib/libutee/tee_api_objects.c:448
    2880:	b40000b3 	cbz	x19, 2894 <TEE_CreatePersistentObject+0x50>
/home/lagadanu/Desktop/qemu/optee_os/lib/libutee/tee_api_objects.c:449
    2884:	f9000261 	str	x1, [x19]
/home/lagadanu/Desktop/qemu/optee_os/lib/libutee/tee_api_objects.c:468
    2888:	f9400bf3 	ldr	x19, [sp,#16]
    288c:	a8c37bfd 	ldp	x29, x30, [sp],#48
    2890:	d65f03c0 	ret
/home/lagadanu/Desktop/qemu/optee_os/lib/libutee/tee_api_objects.c:451
    2894:	aa0103e0 	mov	x0, x1
    2898:	94000b4d 	bl	55cc <utee_cryp_obj_close>
/home/lagadanu/Desktop/qemu/optee_os/lib/libutee/tee_api_objects.c:452
    289c:	34ffff60 	cbz	w0, 2888 <TEE_CreatePersistentObject+0x44>
/home/lagadanu/Desktop/qemu/optee_os/lib/libutee/tee_api_objects.c:458
    28a0:	129ffee1 	mov	w1, #0xffff0008            	// #-65528
    28a4:	6b01001f 	cmp	w0, w1
    28a8:	129fff81 	mov	w1, #0xffff0003            	// #-65533
    28ac:	7a411004 	ccmp	w0, w1, #0x4, ne
    28b0:	54fffec0 	b.eq	2888 <TEE_CreatePersistentObject+0x44>
/home/lagadanu/Desktop/qemu/optee_os/lib/libutee/tee_api_objects.c:460
    28b4:	129ffe61 	mov	w1, #0xffff000c            	// #-65524
    28b8:	6b01001f 	cmp	w0, w1
    28bc:	1299f7c1 	mov	w1, #0xffff3041            	// #-53183
    28c0:	7a411004 	ccmp	w0, w1, #0x4, ne
    28c4:	54fffe20 	b.eq	2888 <TEE_CreatePersistentObject+0x44>
/home/lagadanu/Desktop/qemu/optee_os/lib/libutee/tee_api_objects.c:462
    28c8:	121e7802 	and	w2, w0, #0xfffffffd
    28cc:	52800021 	mov	w1, #0x1                   	// #1
    28d0:	72be0201 	movk	w1, #0xf010, lsl #16
    28d4:	6b01005f 	cmp	w2, w1
    28d8:	54fffd80 	b.eq	2888 <TEE_CreatePersistentObject+0x44>
/home/lagadanu/Desktop/qemu/optee_os/lib/libutee/tee_api_objects.c:465
    28dc:	94000a32 	bl	51a4 <TEE_Panic>
/home/lagadanu/Desktop/qemu/optee_os/lib/libutee/tee_api_objects.c:467
    28e0:	52800000 	mov	w0, #0x0                   	// #0
    28e4:	17ffffe9 	b	2888 <TEE_CreatePersistentObject+0x44>
/home/lagadanu/Desktop/qemu/optee_os/lib/libutee/tee_api_objects.c:456
    28e8:	b4fffdd3 	cbz	x19, 28a0 <TEE_CreatePersistentObject+0x5c>
/home/lagadanu/Desktop/qemu/optee_os/lib/libutee/tee_api_objects.c:457
    28ec:	f900027f 	str	xzr, [x19]
    28f0:	17ffffec 	b	28a0 <TEE_CreatePersistentObject+0x5c>
/home/lagadanu/Desktop/qemu/optee_os/lib/libutee/tee_api_objects.c:435
    28f4:	129ffee0 	mov	w0, #0xffff0008            	// #-65528
/home/lagadanu/Desktop/qemu/optee_os/lib/libutee/tee_api_objects.c:456
    28f8:	b5ffffa7 	cbnz	x7, 28ec <TEE_CreatePersistentObject+0xa8>
    28fc:	17ffffe3 	b	2888 <TEE_CreatePersistentObject+0x44>
/home/lagadanu/Desktop/qemu/optee_os/lib/libutee/tee_api_objects.c:440
    2900:	129fff20 	mov	w0, #0xffff0006            	// #-65530
/home/lagadanu/Desktop/qemu/optee_os/lib/libutee/tee_api_objects.c:456
    2904:	b5ffff47 	cbnz	x7, 28ec <TEE_CreatePersistentObject+0xa8>
    2908:	17ffffeb 	b	28b4 <TEE_CreatePersistentObject+0x70>

000000000000290c <TEE_CloseAndDeletePersistentObject1>:
TEE_CloseAndDeletePersistentObject1():
/home/lagadanu/Desktop/qemu/optee_os/lib/libutee/tee_api_objects.c:490
    290c:	a9be7bfd 	stp	x29, x30, [sp,#-32]!
    2910:	910003fd 	mov	x29, sp
    2914:	a90153f3 	stp	x19, x20, [sp,#16]
    2918:	52800074 	mov	w20, #0x3                   	// #3
    291c:	72be0214 	movk	w20, #0xf010, lsl #16
/home/lagadanu/Desktop/qemu/optee_os/lib/libutee/tee_api_objects.c:494
    2920:	2a1403f3 	mov	w19, w20
/home/lagadanu/Desktop/qemu/optee_os/lib/libutee/tee_api_objects.c:493
    2924:	b40000e0 	cbz	x0, 2940 <TEE_CloseAndDeletePersistentObject1+0x34>
/home/lagadanu/Desktop/qemu/optee_os/lib/libutee/tee_api_objects.c:496
    2928:	94000b56 	bl	5680 <utee_storage_obj_del>
/home/lagadanu/Desktop/qemu/optee_os/lib/libutee/tee_api_objects.c:498
    292c:	7100001f 	cmp	w0, #0x0
/home/lagadanu/Desktop/qemu/optee_os/lib/libutee/tee_api_objects.c:496
    2930:	2a0003f3 	mov	w19, w0
/home/lagadanu/Desktop/qemu/optee_os/lib/libutee/tee_api_objects.c:498
    2934:	7a541004 	ccmp	w0, w20, #0x4, ne
    2938:	54000040 	b.eq	2940 <TEE_CloseAndDeletePersistentObject1+0x34>
/home/lagadanu/Desktop/qemu/optee_os/lib/libutee/tee_api_objects.c:499
    293c:	94000a1a 	bl	51a4 <TEE_Panic>
/home/lagadanu/Desktop/qemu/optee_os/lib/libutee/tee_api_objects.c:502
    2940:	2a1303e0 	mov	w0, w19
    2944:	a94153f3 	ldp	x19, x20, [sp,#16]
    2948:	a8c27bfd 	ldp	x29, x30, [sp],#32
    294c:	d65f03c0 	ret

0000000000002950 <TEE_CloseAndDeletePersistentObject>:
TEE_CloseAndDeletePersistentObject():
/home/lagadanu/Desktop/qemu/optee_os/lib/libutee/tee_api_objects.c:480
    2950:	b4000140 	cbz	x0, 2978 <TEE_CloseAndDeletePersistentObject+0x28>
/home/lagadanu/Desktop/qemu/optee_os/lib/libutee/tee_api_objects.c:477
    2954:	a9bf7bfd 	stp	x29, x30, [sp,#-16]!
    2958:	910003fd 	mov	x29, sp
/home/lagadanu/Desktop/qemu/optee_os/lib/libutee/tee_api_objects.c:483
    295c:	97ffffec 	bl	290c <TEE_CloseAndDeletePersistentObject1>
/home/lagadanu/Desktop/qemu/optee_os/lib/libutee/tee_api_objects.c:485
    2960:	34000080 	cbz	w0, 2970 <TEE_CloseAndDeletePersistentObject+0x20>
/home/lagadanu/Desktop/qemu/optee_os/lib/libutee/tee_api_objects.c:487
    2964:	a8c17bfd 	ldp	x29, x30, [sp],#16
/home/lagadanu/Desktop/qemu/optee_os/lib/libutee/tee_api_objects.c:486
    2968:	52800000 	mov	w0, #0x0                   	// #0
    296c:	14000a0e 	b	51a4 <TEE_Panic>
/home/lagadanu/Desktop/qemu/optee_os/lib/libutee/tee_api_objects.c:487
    2970:	a8c17bfd 	ldp	x29, x30, [sp],#16
    2974:	d65f03c0 	ret
    2978:	d65f03c0 	ret

000000000000297c <TEE_RenamePersistentObject>:
TEE_RenamePersistentObject():
/home/lagadanu/Desktop/qemu/optee_os/lib/libutee/tee_api_objects.c:508
    297c:	a9be7bfd 	stp	x29, x30, [sp,#-32]!
    2980:	910003fd 	mov	x29, sp
    2984:	f9000bf3 	str	x19, [sp,#16]
/home/lagadanu/Desktop/qemu/optee_os/lib/libutee/tee_api_objects.c:512
    2988:	129ffef3 	mov	w19, #0xffff0008            	// #-65528
/home/lagadanu/Desktop/qemu/optee_os/lib/libutee/tee_api_objects.c:511
    298c:	b4000100 	cbz	x0, 29ac <TEE_RenamePersistentObject+0x30>
/home/lagadanu/Desktop/qemu/optee_os/lib/libutee/tee_api_objects.c:521
    2990:	7101005f 	cmp	w2, #0x40
/home/lagadanu/Desktop/qemu/optee_os/lib/libutee/tee_api_objects.c:522
    2994:	129fff33 	mov	w19, #0xffff0006            	// #-65530
/home/lagadanu/Desktop/qemu/optee_os/lib/libutee/tee_api_objects.c:521
    2998:	fa409824 	ccmp	x1, #0x0, #0x4, ls
    299c:	54000080 	b.eq	29ac <TEE_RenamePersistentObject+0x30>
/home/lagadanu/Desktop/qemu/optee_os/lib/libutee/tee_api_objects.c:526
    29a0:	2a0203e2 	mov	w2, w2
    29a4:	94000b3a 	bl	568c <utee_storage_obj_rename>
    29a8:	2a0003f3 	mov	w19, w0
/home/lagadanu/Desktop/qemu/optee_os/lib/libutee/tee_api_objects.c:530
    29ac:	7100027f 	cmp	w19, #0x0
    29b0:	129fff80 	mov	w0, #0xffff0003            	// #-65533
    29b4:	7a401264 	ccmp	w19, w0, #0x4, ne
    29b8:	54000100 	b.eq	29d8 <TEE_RenamePersistentObject+0x5c>
/home/lagadanu/Desktop/qemu/optee_os/lib/libutee/tee_api_objects.c:532
    29bc:	121e7a61 	and	w1, w19, #0xfffffffd
    29c0:	52800020 	mov	w0, #0x1                   	// #1
    29c4:	72be0200 	movk	w0, #0xf010, lsl #16
    29c8:	6b00003f 	cmp	w1, w0
    29cc:	54000060 	b.eq	29d8 <TEE_RenamePersistentObject+0x5c>
/home/lagadanu/Desktop/qemu/optee_os/lib/libutee/tee_api_objects.c:534
    29d0:	2a1303e0 	mov	w0, w19
    29d4:	940009f4 	bl	51a4 <TEE_Panic>
/home/lagadanu/Desktop/qemu/optee_os/lib/libutee/tee_api_objects.c:537
    29d8:	2a1303e0 	mov	w0, w19
    29dc:	f9400bf3 	ldr	x19, [sp,#16]
    29e0:	a8c27bfd 	ldp	x29, x30, [sp],#32
    29e4:	d65f03c0 	ret

00000000000029e8 <TEE_AllocatePersistentObjectEnumerator>:
TEE_AllocatePersistentObjectEnumerator():
/home/lagadanu/Desktop/qemu/optee_os/lib/libutee/tee_api_objects.c:541
    29e8:	a9bd7bfd 	stp	x29, x30, [sp,#-48]!
    29ec:	910003fd 	mov	x29, sp
    29f0:	a90153f3 	stp	x19, x20, [sp,#16]
/home/lagadanu/Desktop/qemu/optee_os/lib/libutee/tee_api_objects.c:546
    29f4:	129fff33 	mov	w19, #0xffff0006            	// #-65530
/home/lagadanu/Desktop/qemu/optee_os/lib/libutee/tee_api_objects.c:545
    29f8:	b40001e0 	cbz	x0, 2a34 <TEE_AllocatePersistentObjectEnumerator+0x4c>
    29fc:	aa0003f4 	mov	x20, x0
/home/lagadanu/Desktop/qemu/optee_os/lib/libutee/tee_api_objects.c:548
    2a00:	9100b3a0 	add	x0, x29, #0x2c
    2a04:	94000b25 	bl	5698 <utee_storage_alloc_enum>
    2a08:	2a0003f3 	mov	w19, w0
/home/lagadanu/Desktop/qemu/optee_os/lib/libutee/tee_api_objects.c:550
    2a0c:	34000040 	cbz	w0, 2a14 <TEE_AllocatePersistentObjectEnumerator+0x2c>
/home/lagadanu/Desktop/qemu/optee_os/lib/libutee/tee_api_objects.c:551
    2a10:	b9002fbf 	str	wzr, [x29,#44]
/home/lagadanu/Desktop/qemu/optee_os/lib/libutee/tee_api_objects.c:553
    2a14:	b9402fa0 	ldr	w0, [x29,#44]
/home/lagadanu/Desktop/qemu/optee_os/lib/libutee/tee_api_objects.c:555
    2a18:	7100027f 	cmp	w19, #0x0
/home/lagadanu/Desktop/qemu/optee_os/lib/libutee/tee_api_objects.c:553
    2a1c:	f9000280 	str	x0, [x20]
/home/lagadanu/Desktop/qemu/optee_os/lib/libutee/tee_api_objects.c:555
    2a20:	129fff80 	mov	w0, #0xffff0003            	// #-65533
    2a24:	7a401264 	ccmp	w19, w0, #0x4, ne
    2a28:	54000060 	b.eq	2a34 <TEE_AllocatePersistentObjectEnumerator+0x4c>
/home/lagadanu/Desktop/qemu/optee_os/lib/libutee/tee_api_objects.c:557
    2a2c:	2a1303e0 	mov	w0, w19
    2a30:	940009dd 	bl	51a4 <TEE_Panic>
/home/lagadanu/Desktop/qemu/optee_os/lib/libutee/tee_api_objects.c:560
    2a34:	2a1303e0 	mov	w0, w19
    2a38:	a94153f3 	ldp	x19, x20, [sp,#16]
    2a3c:	a8c37bfd 	ldp	x29, x30, [sp],#48
    2a40:	d65f03c0 	ret

0000000000002a44 <TEE_FreePersistentObjectEnumerator>:
TEE_FreePersistentObjectEnumerator():
/home/lagadanu/Desktop/qemu/optee_os/lib/libutee/tee_api_objects.c:566
    2a44:	b4000120 	cbz	x0, 2a68 <TEE_FreePersistentObjectEnumerator+0x24>
/home/lagadanu/Desktop/qemu/optee_os/lib/libutee/tee_api_objects.c:563
    2a48:	a9bf7bfd 	stp	x29, x30, [sp,#-16]!
    2a4c:	910003fd 	mov	x29, sp
/home/lagadanu/Desktop/qemu/optee_os/lib/libutee/tee_api_objects.c:569
    2a50:	94000b15 	bl	56a4 <utee_storage_free_enum>
/home/lagadanu/Desktop/qemu/optee_os/lib/libutee/tee_api_objects.c:571
    2a54:	34000060 	cbz	w0, 2a60 <TEE_FreePersistentObjectEnumerator+0x1c>
/home/lagadanu/Desktop/qemu/optee_os/lib/libutee/tee_api_objects.c:573
    2a58:	a8c17bfd 	ldp	x29, x30, [sp],#16
/home/lagadanu/Desktop/qemu/optee_os/lib/libutee/tee_api_objects.c:572
    2a5c:	140009d2 	b	51a4 <TEE_Panic>
/home/lagadanu/Desktop/qemu/optee_os/lib/libutee/tee_api_objects.c:573
    2a60:	a8c17bfd 	ldp	x29, x30, [sp],#16
    2a64:	d65f03c0 	ret
    2a68:	d65f03c0 	ret

0000000000002a6c <TEE_ResetPersistentObjectEnumerator>:
TEE_ResetPersistentObjectEnumerator():
/home/lagadanu/Desktop/qemu/optee_os/lib/libutee/tee_api_objects.c:579
    2a6c:	b4000120 	cbz	x0, 2a90 <TEE_ResetPersistentObjectEnumerator+0x24>
/home/lagadanu/Desktop/qemu/optee_os/lib/libutee/tee_api_objects.c:576
    2a70:	a9bf7bfd 	stp	x29, x30, [sp,#-16]!
    2a74:	910003fd 	mov	x29, sp
/home/lagadanu/Desktop/qemu/optee_os/lib/libutee/tee_api_objects.c:582
    2a78:	94000b0e 	bl	56b0 <utee_storage_reset_enum>
/home/lagadanu/Desktop/qemu/optee_os/lib/libutee/tee_api_objects.c:584
    2a7c:	34000060 	cbz	w0, 2a88 <TEE_ResetPersistentObjectEnumerator+0x1c>
/home/lagadanu/Desktop/qemu/optee_os/lib/libutee/tee_api_objects.c:586
    2a80:	a8c17bfd 	ldp	x29, x30, [sp],#16
/home/lagadanu/Desktop/qemu/optee_os/lib/libutee/tee_api_objects.c:585
    2a84:	140009c8 	b	51a4 <TEE_Panic>
/home/lagadanu/Desktop/qemu/optee_os/lib/libutee/tee_api_objects.c:586
    2a88:	a8c17bfd 	ldp	x29, x30, [sp],#16
    2a8c:	d65f03c0 	ret
    2a90:	d65f03c0 	ret

0000000000002a94 <TEE_StartPersistentObjectEnumerator>:
TEE_StartPersistentObjectEnumerator():
/home/lagadanu/Desktop/qemu/optee_os/lib/libutee/tee_api_objects.c:591
    2a94:	a9be7bfd 	stp	x29, x30, [sp,#-32]!
/home/lagadanu/Desktop/qemu/optee_os/lib/libutee/tee_api_objects.c:594
    2a98:	2a0103e1 	mov	w1, w1
/home/lagadanu/Desktop/qemu/optee_os/lib/libutee/tee_api_objects.c:591
    2a9c:	910003fd 	mov	x29, sp
    2aa0:	f9000bf3 	str	x19, [sp,#16]
/home/lagadanu/Desktop/qemu/optee_os/lib/libutee/tee_api_objects.c:594
    2aa4:	94000b06 	bl	56bc <utee_storage_start_enum>
/home/lagadanu/Desktop/qemu/optee_os/lib/libutee/tee_api_objects.c:597
    2aa8:	7100001f 	cmp	w0, #0x0
    2aac:	129ffee1 	mov	w1, #0xffff0008            	// #-65528
/home/lagadanu/Desktop/qemu/optee_os/lib/libutee/tee_api_objects.c:594
    2ab0:	2a0003f3 	mov	w19, w0
/home/lagadanu/Desktop/qemu/optee_os/lib/libutee/tee_api_objects.c:597
    2ab4:	7a411004 	ccmp	w0, w1, #0x4, ne
    2ab8:	540000e0 	b.eq	2ad4 <TEE_StartPersistentObjectEnumerator+0x40>
/home/lagadanu/Desktop/qemu/optee_os/lib/libutee/tee_api_objects.c:599
    2abc:	121e7802 	and	w2, w0, #0xfffffffd
    2ac0:	52800021 	mov	w1, #0x1                   	// #1
    2ac4:	72be0201 	movk	w1, #0xf010, lsl #16
    2ac8:	6b01005f 	cmp	w2, w1
    2acc:	54000040 	b.eq	2ad4 <TEE_StartPersistentObjectEnumerator+0x40>
/home/lagadanu/Desktop/qemu/optee_os/lib/libutee/tee_api_objects.c:601
    2ad0:	940009b5 	bl	51a4 <TEE_Panic>
/home/lagadanu/Desktop/qemu/optee_os/lib/libutee/tee_api_objects.c:604
    2ad4:	2a1303e0 	mov	w0, w19
    2ad8:	f9400bf3 	ldr	x19, [sp,#16]
    2adc:	a8c27bfd 	ldp	x29, x30, [sp],#32
    2ae0:	d65f03c0 	ret

0000000000002ae4 <TEE_GetNextPersistentObject>:
TEE_GetNextPersistentObject():
/home/lagadanu/Desktop/qemu/optee_os/lib/libutee/tee_api_objects.c:609
    2ae4:	a9bb7bfd 	stp	x29, x30, [sp,#-80]!
/home/lagadanu/Desktop/qemu/optee_os/lib/libutee/tee_api_objects.c:620
    2ae8:	f100005f 	cmp	x2, #0x0
    2aec:	fa401864 	ccmp	x3, #0x0, #0x4, ne
/home/lagadanu/Desktop/qemu/optee_os/lib/libutee/tee_api_objects.c:609
    2af0:	910003fd 	mov	x29, sp
    2af4:	a90153f3 	stp	x19, x20, [sp,#16]
    2af8:	129fff33 	mov	w19, #0xffff0006            	// #-65530
/home/lagadanu/Desktop/qemu/optee_os/lib/libutee/tee_api_objects.c:620
    2afc:	54000180 	b.eq	2b2c <TEE_GetNextPersistentObject+0x48>
    2b00:	aa0303f4 	mov	x20, x3
/home/lagadanu/Desktop/qemu/optee_os/lib/libutee/tee_api_objects.c:629
    2b04:	910143a3 	add	x3, x29, #0x50
/home/lagadanu/Desktop/qemu/optee_os/lib/libutee/tee_api_objects.c:628
    2b08:	f100003f 	cmp	x1, #0x0
/home/lagadanu/Desktop/qemu/optee_os/lib/libutee/tee_api_objects.c:629
    2b0c:	b9400284 	ldr	w4, [x20]
    2b10:	f81d8c64 	str	x4, [x3,#-40]!
/home/lagadanu/Desktop/qemu/optee_os/lib/libutee/tee_api_objects.c:630
    2b14:	9100c3a4 	add	x4, x29, #0x30
    2b18:	9a810081 	csel	x1, x4, x1, eq
    2b1c:	94000aeb 	bl	56c8 <utee_storage_next_enum>
    2b20:	2a0003f3 	mov	w19, w0
/home/lagadanu/Desktop/qemu/optee_os/lib/libutee/tee_api_objects.c:632
    2b24:	f94017a0 	ldr	x0, [x29,#40]
    2b28:	b9000280 	str	w0, [x20]
/home/lagadanu/Desktop/qemu/optee_os/lib/libutee/tee_api_objects.c:635
    2b2c:	7100027f 	cmp	w19, #0x0
    2b30:	129ffee0 	mov	w0, #0xffff0008            	// #-65528
    2b34:	7a401264 	ccmp	w19, w0, #0x4, ne
    2b38:	54000100 	b.eq	2b58 <TEE_GetNextPersistentObject+0x74>
/home/lagadanu/Desktop/qemu/optee_os/lib/libutee/tee_api_objects.c:637
    2b3c:	121e7a61 	and	w1, w19, #0xfffffffd
    2b40:	52800020 	mov	w0, #0x1                   	// #1
    2b44:	72be0200 	movk	w0, #0xf010, lsl #16
    2b48:	6b00003f 	cmp	w1, w0
    2b4c:	54000060 	b.eq	2b58 <TEE_GetNextPersistentObject+0x74>
/home/lagadanu/Desktop/qemu/optee_os/lib/libutee/tee_api_objects.c:639
    2b50:	2a1303e0 	mov	w0, w19
    2b54:	94000994 	bl	51a4 <TEE_Panic>
/home/lagadanu/Desktop/qemu/optee_os/lib/libutee/tee_api_objects.c:642
    2b58:	2a1303e0 	mov	w0, w19
    2b5c:	a94153f3 	ldp	x19, x20, [sp,#16]
    2b60:	a8c57bfd 	ldp	x29, x30, [sp],#80
    2b64:	d65f03c0 	ret

0000000000002b68 <TEE_ReadObjectData>:
TEE_ReadObjectData():
/home/lagadanu/Desktop/qemu/optee_os/lib/libutee/tee_api_objects.c:648
    2b68:	a9bd7bfd 	stp	x29, x30, [sp,#-48]!
    2b6c:	910003fd 	mov	x29, sp
    2b70:	a90153f3 	stp	x19, x20, [sp,#16]
    2b74:	129fff33 	mov	w19, #0xffff0006            	// #-65530
/home/lagadanu/Desktop/qemu/optee_os/lib/libutee/tee_api_objects.c:652
    2b78:	b4000140 	cbz	x0, 2ba0 <TEE_ReadObjectData+0x38>
    2b7c:	aa0303f4 	mov	x20, x3
/home/lagadanu/Desktop/qemu/optee_os/lib/libutee/tee_api_objects.c:657
    2b80:	9100c3a3 	add	x3, x29, #0x30
/home/lagadanu/Desktop/qemu/optee_os/lib/libutee/tee_api_objects.c:658
    2b84:	2a0203e2 	mov	w2, w2
/home/lagadanu/Desktop/qemu/optee_os/lib/libutee/tee_api_objects.c:657
    2b88:	b9400284 	ldr	w4, [x20]
    2b8c:	f81f8c64 	str	x4, [x3,#-8]!
/home/lagadanu/Desktop/qemu/optee_os/lib/libutee/tee_api_objects.c:658
    2b90:	94000ad1 	bl	56d4 <utee_storage_obj_read>
    2b94:	2a0003f3 	mov	w19, w0
/home/lagadanu/Desktop/qemu/optee_os/lib/libutee/tee_api_objects.c:660
    2b98:	f94017a0 	ldr	x0, [x29,#40]
    2b9c:	b9000280 	str	w0, [x20]
/home/lagadanu/Desktop/qemu/optee_os/lib/libutee/tee_api_objects.c:664
    2ba0:	121e7a60 	and	w0, w19, #0xfffffffd
    2ba4:	7100027f 	cmp	w19, #0x0
    2ba8:	52800021 	mov	w1, #0x1                   	// #1
    2bac:	72be0201 	movk	w1, #0xf010, lsl #16
    2bb0:	7a411004 	ccmp	w0, w1, #0x4, ne
    2bb4:	54000060 	b.eq	2bc0 <TEE_ReadObjectData+0x58>
/home/lagadanu/Desktop/qemu/optee_os/lib/libutee/tee_api_objects.c:666
    2bb8:	2a1303e0 	mov	w0, w19
    2bbc:	9400097a 	bl	51a4 <TEE_Panic>
/home/lagadanu/Desktop/qemu/optee_os/lib/libutee/tee_api_objects.c:669
    2bc0:	2a1303e0 	mov	w0, w19
    2bc4:	a94153f3 	ldp	x19, x20, [sp,#16]
    2bc8:	a8c37bfd 	ldp	x29, x30, [sp],#48
    2bcc:	d65f03c0 	ret

0000000000002bd0 <TEE_WriteObjectData>:
TEE_WriteObjectData():
/home/lagadanu/Desktop/qemu/optee_os/lib/libutee/tee_api_objects.c:673
    2bd0:	a9be7bfd 	stp	x29, x30, [sp,#-32]!
    2bd4:	910003fd 	mov	x29, sp
    2bd8:	f9000bf3 	str	x19, [sp,#16]
    2bdc:	129fff33 	mov	w19, #0xffff0006            	// #-65530
/home/lagadanu/Desktop/qemu/optee_os/lib/libutee/tee_api_objects.c:676
    2be0:	b4000080 	cbz	x0, 2bf0 <TEE_WriteObjectData+0x20>
/home/lagadanu/Desktop/qemu/optee_os/lib/libutee/tee_api_objects.c:686
    2be4:	2a0203e2 	mov	w2, w2
    2be8:	94000abe 	bl	56e0 <utee_storage_obj_write>
    2bec:	2a0003f3 	mov	w19, w0
/home/lagadanu/Desktop/qemu/optee_os/lib/libutee/tee_api_objects.c:689
    2bf0:	7100027f 	cmp	w19, #0x0
    2bf4:	1299f7c0 	mov	w0, #0xffff3041            	// #-53183
    2bf8:	7a401264 	ccmp	w19, w0, #0x4, ne
    2bfc:	54000140 	b.eq	2c24 <TEE_WriteObjectData+0x54>
/home/lagadanu/Desktop/qemu/optee_os/lib/libutee/tee_api_objects.c:692
    2c00:	121e7a61 	and	w1, w19, #0xfffffffd
    2c04:	52800020 	mov	w0, #0x1                   	// #1
    2c08:	72be0200 	movk	w0, #0xf010, lsl #16
    2c0c:	6b00003f 	cmp	w1, w0
    2c10:	1299fe00 	mov	w0, #0xffff300f            	// #-53233
    2c14:	7a401264 	ccmp	w19, w0, #0x4, ne
    2c18:	54000060 	b.eq	2c24 <TEE_WriteObjectData+0x54>
/home/lagadanu/Desktop/qemu/optee_os/lib/libutee/tee_api_objects.c:694
    2c1c:	2a1303e0 	mov	w0, w19
    2c20:	94000961 	bl	51a4 <TEE_Panic>
/home/lagadanu/Desktop/qemu/optee_os/lib/libutee/tee_api_objects.c:697
    2c24:	2a1303e0 	mov	w0, w19
    2c28:	f9400bf3 	ldr	x19, [sp,#16]
    2c2c:	a8c27bfd 	ldp	x29, x30, [sp],#32
    2c30:	d65f03c0 	ret

0000000000002c34 <TEE_TruncateObjectData>:
TEE_TruncateObjectData():
/home/lagadanu/Desktop/qemu/optee_os/lib/libutee/tee_api_objects.c:700
    2c34:	a9be7bfd 	stp	x29, x30, [sp,#-32]!
    2c38:	910003fd 	mov	x29, sp
    2c3c:	f9000bf3 	str	x19, [sp,#16]
    2c40:	129fff33 	mov	w19, #0xffff0006            	// #-65530
/home/lagadanu/Desktop/qemu/optee_os/lib/libutee/tee_api_objects.c:703
    2c44:	b4000080 	cbz	x0, 2c54 <TEE_TruncateObjectData+0x20>
/home/lagadanu/Desktop/qemu/optee_os/lib/libutee/tee_api_objects.c:708
    2c48:	2a0103e1 	mov	w1, w1
    2c4c:	94000aa8 	bl	56ec <utee_storage_obj_trunc>
    2c50:	2a0003f3 	mov	w19, w0
/home/lagadanu/Desktop/qemu/optee_os/lib/libutee/tee_api_objects.c:711
    2c54:	7100027f 	cmp	w19, #0x0
    2c58:	1299f7c0 	mov	w0, #0xffff3041            	// #-53183
    2c5c:	7a401264 	ccmp	w19, w0, #0x4, ne
    2c60:	54000100 	b.eq	2c80 <TEE_TruncateObjectData+0x4c>
/home/lagadanu/Desktop/qemu/optee_os/lib/libutee/tee_api_objects.c:713
    2c64:	121e7a61 	and	w1, w19, #0xfffffffd
    2c68:	52800020 	mov	w0, #0x1                   	// #1
    2c6c:	72be0200 	movk	w0, #0xf010, lsl #16
    2c70:	6b00003f 	cmp	w1, w0
    2c74:	54000060 	b.eq	2c80 <TEE_TruncateObjectData+0x4c>
/home/lagadanu/Desktop/qemu/optee_os/lib/libutee/tee_api_objects.c:715
    2c78:	2a1303e0 	mov	w0, w19
    2c7c:	9400094a 	bl	51a4 <TEE_Panic>
/home/lagadanu/Desktop/qemu/optee_os/lib/libutee/tee_api_objects.c:718
    2c80:	2a1303e0 	mov	w0, w19
    2c84:	f9400bf3 	ldr	x19, [sp,#16]
    2c88:	a8c27bfd 	ldp	x29, x30, [sp],#32
    2c8c:	d65f03c0 	ret

0000000000002c90 <TEE_SeekObjectData>:
TEE_SeekObjectData():
/home/lagadanu/Desktop/qemu/optee_os/lib/libutee/tee_api_objects.c:722
    2c90:	a9bb7bfd 	stp	x29, x30, [sp,#-80]!
    2c94:	910003fd 	mov	x29, sp
    2c98:	a90153f3 	stp	x19, x20, [sp,#16]
/home/lagadanu/Desktop/qemu/optee_os/lib/libutee/tee_api_objects.c:727
    2c9c:	129fff33 	mov	w19, #0xffff0006            	// #-65530
/home/lagadanu/Desktop/qemu/optee_os/lib/libutee/tee_api_objects.c:722
    2ca0:	a9025bf5 	stp	x21, x22, [sp,#32]
/home/lagadanu/Desktop/qemu/optee_os/lib/libutee/tee_api_objects.c:726
    2ca4:	b40003e0 	cbz	x0, 2d20 <TEE_SeekObjectData+0x90>
    2ca8:	aa0003f6 	mov	x22, x0
    2cac:	2a0103f4 	mov	w20, w1
    2cb0:	2a0203f5 	mov	w21, w2
/home/lagadanu/Desktop/qemu/optee_os/lib/libutee/tee_api_objects.c:731
    2cb4:	9100c3a1 	add	x1, x29, #0x30
    2cb8:	94000a39 	bl	559c <utee_cryp_obj_get_info>
    2cbc:	2a0003f3 	mov	w19, w0
/home/lagadanu/Desktop/qemu/optee_os/lib/libutee/tee_api_objects.c:732
    2cc0:	35000300 	cbnz	w0, 2d20 <TEE_SeekObjectData+0x90>
/home/lagadanu/Desktop/qemu/optee_os/lib/libutee/tee_api_objects.c:735
    2cc4:	710006bf 	cmp	w21, #0x1
    2cc8:	540000c0 	b.eq	2ce0 <TEE_SeekObjectData+0x50>
    2ccc:	34000115 	cbz	w21, 2cec <TEE_SeekObjectData+0x5c>
    2cd0:	71000abf 	cmp	w21, #0x2
    2cd4:	54000180 	b.eq	2d04 <TEE_SeekObjectData+0x74>
/home/lagadanu/Desktop/qemu/optee_os/lib/libutee/tee_api_objects.c:761
    2cd8:	129ffef3 	mov	w19, #0xffff0008            	// #-65528
    2cdc:	14000011 	b	2d20 <TEE_SeekObjectData+0x90>
/home/lagadanu/Desktop/qemu/optee_os/lib/libutee/tee_api_objects.c:746
    2ce0:	b94047a0 	ldr	w0, [x29,#68]
/home/lagadanu/Desktop/qemu/optee_os/lib/libutee/tee_api_objects.c:743
    2ce4:	7100029f 	cmp	w20, #0x0
    2ce8:	5400014c 	b.gt	2d10 <TEE_SeekObjectData+0x80>
/home/lagadanu/Desktop/qemu/optee_os/lib/libutee/tee_api_objects.c:765
    2cec:	2a1503e2 	mov	w2, w21
    2cf0:	2a1403e1 	mov	w1, w20
    2cf4:	aa1603e0 	mov	x0, x22
    2cf8:	94000a80 	bl	56f8 <utee_storage_obj_seek>
    2cfc:	2a0003f3 	mov	w19, w0
    2d00:	14000008 	b	2d20 <TEE_SeekObjectData+0x90>
/home/lagadanu/Desktop/qemu/optee_os/lib/libutee/tee_api_objects.c:753
    2d04:	7100029f 	cmp	w20, #0x0
    2d08:	54ffff2d 	b.le	2cec <TEE_SeekObjectData+0x5c>
/home/lagadanu/Desktop/qemu/optee_os/lib/libutee/tee_api_objects.c:755 (discriminator 1)
    2d0c:	b94043a0 	ldr	w0, [x29,#64]
    2d10:	0b000281 	add	w1, w20, w0
/home/lagadanu/Desktop/qemu/optee_os/lib/libutee/tee_api_objects.c:748 (discriminator 1)
    2d14:	1299fe13 	mov	w19, #0xffff300f            	// #-53233
/home/lagadanu/Desktop/qemu/optee_os/lib/libutee/tee_api_objects.c:753 (discriminator 1)
    2d18:	6b01001f 	cmp	w0, w1
    2d1c:	54fffe89 	b.ls	2cec <TEE_SeekObjectData+0x5c>
/home/lagadanu/Desktop/qemu/optee_os/lib/libutee/tee_api_objects.c:768
    2d20:	7100027f 	cmp	w19, #0x0
    2d24:	1299fe00 	mov	w0, #0xffff300f            	// #-53233
    2d28:	7a401264 	ccmp	w19, w0, #0x4, ne
    2d2c:	54000100 	b.eq	2d4c <TEE_SeekObjectData+0xbc>
/home/lagadanu/Desktop/qemu/optee_os/lib/libutee/tee_api_objects.c:770
    2d30:	121e7a61 	and	w1, w19, #0xfffffffd
    2d34:	52800020 	mov	w0, #0x1                   	// #1
    2d38:	72be0200 	movk	w0, #0xf010, lsl #16
    2d3c:	6b00003f 	cmp	w1, w0
    2d40:	54000060 	b.eq	2d4c <TEE_SeekObjectData+0xbc>
/home/lagadanu/Desktop/qemu/optee_os/lib/libutee/tee_api_objects.c:772
    2d44:	2a1303e0 	mov	w0, w19
    2d48:	94000917 	bl	51a4 <TEE_Panic>
/home/lagadanu/Desktop/qemu/optee_os/lib/libutee/tee_api_objects.c:775
    2d4c:	2a1303e0 	mov	w0, w19
    2d50:	a94153f3 	ldp	x19, x20, [sp,#16]
    2d54:	a9425bf5 	ldp	x21, x22, [sp,#32]
    2d58:	a8c57bfd 	ldp	x29, x30, [sp],#80
    2d5c:	d65f03c0 	ret

0000000000002d60 <tee_buffer_update>:
tee_buffer_update():
/home/lagadanu/Desktop/qemu/optee_os/lib/libutee/tee_api_operations.c:845
    2d60:	a9b87bfd 	stp	x29, x30, [sp,#-128]!
    2d64:	910003fd 	mov	x29, sp
    2d68:	a90153f3 	stp	x19, x20, [sp,#16]
    2d6c:	aa0003f3 	mov	x19, x0
    2d70:	a9025bf5 	stp	x21, x22, [sp,#32]
    2d74:	a9046bf9 	stp	x25, x26, [sp,#64]
    2d78:	aa0303f9 	mov	x25, x3
    2d7c:	a90363f7 	stp	x23, x24, [sp,#48]
    2d80:	a90573fb 	stp	x27, x28, [sp,#80]
    2d84:	f90037a5 	str	x5, [x29,#104]
/home/lagadanu/Desktop/qemu/optee_os/lib/libutee/tee_api_operations.c:850
    2d88:	f94000b6 	ldr	x22, [x5]
/home/lagadanu/Desktop/qemu/optee_os/lib/libutee/tee_api_operations.c:857
    2d8c:	b5000202 	cbnz	x2, 2dcc <tee_buffer_update+0x6c>
/home/lagadanu/Desktop/qemu/optee_os/lib/libutee/tee_api_operations.c:858
    2d90:	b5000183 	cbnz	x3, 2dc0 <tee_buffer_update+0x60>
/home/lagadanu/Desktop/qemu/optee_os/lib/libutee/tee_api_operations.c:851
    2d94:	d2800017 	mov	x23, #0x0                   	// #0
/home/lagadanu/Desktop/qemu/optee_os/lib/libutee/tee_api_operations.c:933
    2d98:	f94037a0 	ldr	x0, [x29,#104]
/home/lagadanu/Desktop/qemu/optee_os/lib/libutee/tee_api_operations.c:935
    2d9c:	a94153f3 	ldp	x19, x20, [sp,#16]
    2da0:	a9425bf5 	ldp	x21, x22, [sp,#32]
    2da4:	a9446bf9 	ldp	x25, x26, [sp,#64]
    2da8:	a94573fb 	ldp	x27, x28, [sp,#80]
/home/lagadanu/Desktop/qemu/optee_os/lib/libutee/tee_api_operations.c:933
    2dac:	f9000017 	str	x23, [x0]
/home/lagadanu/Desktop/qemu/optee_os/lib/libutee/tee_api_operations.c:935
    2db0:	a94363f7 	ldp	x23, x24, [sp,#48]
    2db4:	52800000 	mov	w0, #0x0                   	// #0
    2db8:	a8c87bfd 	ldp	x29, x30, [sp],#128
    2dbc:	d65f03c0 	ret
/home/lagadanu/Desktop/qemu/optee_os/lib/libutee/tee_api_operations.c:859
    2dc0:	52800000 	mov	w0, #0x0                   	// #0
    2dc4:	940008f8 	bl	51a4 <TEE_Panic>
    2dc8:	17fffff3 	b	2d94 <tee_buffer_update+0x34>
/home/lagadanu/Desktop/qemu/optee_os/lib/libutee/tee_api_operations.c:863
    2dcc:	39410000 	ldrb	w0, [x0,#64]
    2dd0:	aa0103f8 	mov	x24, x1
    2dd4:	aa0203f5 	mov	x21, x2
    2dd8:	aa0403fb 	mov	x27, x4
    2ddc:	f940267a 	ldr	x26, [x19,#72]
    2de0:	34000860 	cbz	w0, 2eec <tee_buffer_update+0x18c>
/home/lagadanu/Desktop/qemu/optee_os/lib/libutee/tee_api_operations.c:864
    2de4:	d37ffb54 	lsl	x20, x26, #1
/home/lagadanu/Desktop/qemu/optee_os/lib/libutee/tee_api_operations.c:865
    2de8:	d280003c 	mov	x28, #0x1                   	// #1
/home/lagadanu/Desktop/qemu/optee_os/lib/libutee/tee_api_operations.c:871
    2dec:	f9402a60 	ldr	x0, [x19,#80]
    2df0:	b4000260 	cbz	x0, 2e3c <tee_buffer_update+0xdc>
/home/lagadanu/Desktop/qemu/optee_os/lib/libutee/tee_api_operations.c:873
    2df4:	eb1a001f 	cmp	x0, x26
    2df8:	54000802 	b.cs	2ef8 <tee_buffer_update+0x198>
/home/lagadanu/Desktop/qemu/optee_os/lib/libutee/tee_api_operations.c:874
    2dfc:	cb00035a 	sub	x26, x26, x0
/home/lagadanu/Desktop/qemu/optee_os/lib/libutee/tee_api_operations.c:877
    2e00:	f9401e63 	ldr	x3, [x19,#56]
/home/lagadanu/Desktop/qemu/optee_os/lib/libutee/tee_api_operations.c:876
    2e04:	eb19035f 	cmp	x26, x25
    2e08:	9a99935a 	csel	x26, x26, x25, ls
/home/lagadanu/Desktop/qemu/optee_os/lib/libutee/tee_api_operations.c:877
    2e0c:	aa1503e1 	mov	x1, x21
    2e10:	aa1a03e2 	mov	x2, x26
    2e14:	8b000060 	add	x0, x3, x0
    2e18:	97fffaff 	bl	1a14 <memcpy>
/home/lagadanu/Desktop/qemu/optee_os/lib/libutee/tee_api_operations.c:878
    2e1c:	a9448262 	ldp	x2, x0, [x19,#72]
    2e20:	8b000340 	add	x0, x26, x0
    2e24:	f9002a60 	str	x0, [x19,#80]
/home/lagadanu/Desktop/qemu/optee_os/lib/libutee/tee_api_operations.c:881
    2e28:	9ac20801 	udiv	x1, x0, x2
    2e2c:	9b028020 	msub	x0, x1, x2, x0
    2e30:	b5fffb20 	cbnz	x0, 2d94 <tee_buffer_update+0x34>
/home/lagadanu/Desktop/qemu/optee_os/lib/libutee/tee_api_operations.c:879
    2e34:	8b1a02b5 	add	x21, x21, x26
/home/lagadanu/Desktop/qemu/optee_os/lib/libutee/tee_api_operations.c:880
    2e38:	cb1a0339 	sub	x25, x25, x26
/home/lagadanu/Desktop/qemu/optee_os/lib/libutee/tee_api_operations.c:886
    2e3c:	f9402a77 	ldr	x23, [x19,#80]
    2e40:	8b1c029c 	add	x28, x20, x28
    2e44:	b4000617 	cbz	x23, 2f04 <tee_buffer_update+0x1a4>
/home/lagadanu/Desktop/qemu/optee_os/lib/libutee/tee_api_operations.c:887 (discriminator 1)
    2e48:	8b170320 	add	x0, x25, x23
/home/lagadanu/Desktop/qemu/optee_os/lib/libutee/tee_api_operations.c:886 (discriminator 1)
    2e4c:	eb1c001f 	cmp	x0, x28
    2e50:	54000583 	b.cc	2f00 <tee_buffer_update+0x1a0>
/home/lagadanu/Desktop/qemu/optee_os/lib/libutee/tee_api_operations.c:888
    2e54:	f9402661 	ldr	x1, [x19,#72]
    2e58:	cb14001a 	sub	x26, x0, x20
/home/lagadanu/Desktop/qemu/optee_os/lib/libutee/tee_api_operations.c:891
    2e5c:	910203a4 	add	x4, x29, #0x80
/home/lagadanu/Desktop/qemu/optee_os/lib/libutee/tee_api_operations.c:892
    2e60:	aa1b03e3 	mov	x3, x27
/home/lagadanu/Desktop/qemu/optee_os/lib/libutee/tee_api_operations.c:888
    2e64:	d1000420 	sub	x0, x1, #0x1
    2e68:	cb0103e1 	neg	x1, x1
    2e6c:	8b00035a 	add	x26, x26, x0
/home/lagadanu/Desktop/qemu/optee_os/lib/libutee/tee_api_operations.c:892
    2e70:	b9405a60 	ldr	w0, [x19,#88]
/home/lagadanu/Desktop/qemu/optee_os/lib/libutee/tee_api_operations.c:888
    2e74:	8a01035a 	and	x26, x26, x1
/home/lagadanu/Desktop/qemu/optee_os/lib/libutee/tee_api_operations.c:892
    2e78:	f9401e61 	ldr	x1, [x19,#56]
/home/lagadanu/Desktop/qemu/optee_os/lib/libutee/tee_api_operations.c:890
    2e7c:	eb17035f 	cmp	x26, x23
/home/lagadanu/Desktop/qemu/optee_os/lib/libutee/tee_api_operations.c:891
    2e80:	f81f8c96 	str	x22, [x4,#-8]!
/home/lagadanu/Desktop/qemu/optee_os/lib/libutee/tee_api_operations.c:890
    2e84:	9a97935a 	csel	x26, x26, x23, ls
