
out/12345678-5b69-11e4-9dbb-101f74f00099.elf:     file format elf64-littleaarch64
out/12345678-5b69-11e4-9dbb-101f74f00099.elf
architecture: aarch64, flags 0x00000150:
HAS_SYMS, DYNAMIC, D_PAGED
start address 0x0000000000000020

Program Header:
    LOAD off    0x0000000000010000 vaddr 0x0000000000000000 paddr 0x0000000000000000 align 2**16
         filesz 0x00000000000076f0 memsz 0x00000000000076f0 flags r-x
    LOAD off    0x00000000000176f0 vaddr 0x00000000000076f0 paddr 0x00000000000076f0 align 2**16
         filesz 0x0000000000001c2c memsz 0x0000000000001c2c flags r--
    LOAD off    0x000000000001a000 vaddr 0x000000000000a000 paddr 0x000000000000a000 align 2**16
         filesz 0x00000000000000fc memsz 0x000000000000ab50 flags rw-
 DYNAMIC off    0x0000000000019040 vaddr 0x0000000000009040 paddr 0x0000000000009040 align 2**3
         filesz 0x0000000000000100 memsz 0x0000000000000100 flags rw-

Dynamic Section:
  HASH                 0x00000000000092d8
  STRTAB               0x0000000000009260
  SYMTAB               0x0000000000009140
  STRSZ                0x0000000000000072
  SYMENT               0x0000000000000018
  DEBUG                0x0000000000000000
  RELA                 0x0000000000008d38
  RELASZ               0x00000000000002a0
  RELAENT              0x0000000000000018
  FLAGS_1              0x0000000008000000
  RELACOUNT            0x0000000000000013
private flags = 0:

Sections:
Idx Name          Size      VMA               LMA               File off  Algn
  0 .ta_head      00000020  0000000000000000  0000000000000000  00010000  2**3
                  CONTENTS, ALLOC, LOAD, DATA
  1 .text         000076d0  0000000000000020  0000000000000020  00010020  2**2
                  CONTENTS, ALLOC, LOAD, READONLY, CODE
  2 .rodata       00001645  00000000000076f0  00000000000076f0  000176f0  2**3
                  CONTENTS, ALLOC, LOAD, READONLY, DATA
  3 .dynsym       00000120  0000000000009140  0000000000009140  00019140  2**3
                  CONTENTS, ALLOC, LOAD, READONLY, DATA
  4 .rela.dyn     000001c8  0000000000008d38  0000000000008d38  00018d38  2**3
                  CONTENTS, ALLOC, LOAD, READONLY, DATA
  5 .got          00000068  0000000000008f00  0000000000008f00  00018f00  2**3
                  CONTENTS, ALLOC, LOAD, DATA
  6 .rela.got     000000d8  0000000000008f68  0000000000008f68  00018f68  2**3
                  CONTENTS, ALLOC, LOAD, READONLY, DATA
  7 .dynamic      00000100  0000000000009040  0000000000009040  00019040  2**3
                  CONTENTS, ALLOC, LOAD, DATA
  8 .dynstr       00000072  0000000000009260  0000000000009260  00019260  2**0
                  CONTENTS, ALLOC, LOAD, READONLY, DATA
  9 .hash         00000044  00000000000092d8  00000000000092d8  000192d8  2**3
                  CONTENTS, ALLOC, LOAD, READONLY, DATA
 10 .data         000000fc  000000000000a000  000000000000a000  0001a000  2**3
                  CONTENTS, ALLOC, LOAD, DATA
 11 .bss          0000aa50  000000000000a100  000000000000a100  0001a0fc  2**3
                  ALLOC
 12 .debug_info   0000f0a6  0000000000000000  0000000000000000  0001a0fc  2**0
                  CONTENTS, READONLY, DEBUGGING
 13 .debug_abbrev 00003b96  0000000000000000  0000000000000000  000291a2  2**0
                  CONTENTS, READONLY, DEBUGGING
 14 .debug_loc    00015d10  0000000000000000  0000000000000000  0002cd38  2**0
                  CONTENTS, READONLY, DEBUGGING
 15 .debug_aranges 00000b70  0000000000000000  0000000000000000  00042a50  2**4
                  CONTENTS, READONLY, DEBUGGING
 16 .debug_ranges 00000f30  0000000000000000  0000000000000000  000435c0  2**4
                  CONTENTS, READONLY, DEBUGGING
 17 .debug_macro  00004f6d  0000000000000000  0000000000000000  000444f0  2**0
                  CONTENTS, READONLY, DEBUGGING
 18 .debug_line   00005ee7  0000000000000000  0000000000000000  0004945d  2**0
                  CONTENTS, READONLY, DEBUGGING
 19 .debug_str    0000f374  0000000000000000  0000000000000000  0004f344  2**0
                  CONTENTS, READONLY, DEBUGGING
 20 .comment      0000002d  0000000000000000  0000000000000000  0005e6b8  2**0
                  CONTENTS, READONLY
 21 .debug_frame  00002238  0000000000000000  0000000000000000  0005e6e8  2**3
                  CONTENTS, READONLY, DEBUGGING
SYMBOL TABLE:
0000000000000000 l    d  .ta_head	0000000000000000 .ta_head
0000000000000020 l    d  .text	0000000000000000 .text
00000000000076f0 l    d  .rodata	0000000000000000 .rodata
0000000000008d38 l    d  .rela.dyn	0000000000000000 .rela.dyn
0000000000008f00 l    d  .got	0000000000000000 .got
0000000000008f68 l    d  .rela.got	0000000000000000 .rela.got
0000000000009040 l    d  .dynamic	0000000000000000 .dynamic
0000000000009140 l    d  .dynsym	0000000000000000 .dynsym
0000000000009260 l    d  .dynstr	0000000000000000 .dynstr
00000000000092d8 l    d  .hash	0000000000000000 .hash
000000000000a000 l    d  .data	0000000000000000 .data
000000000000a100 l    d  .bss	0000000000000000 .bss
0000000000000000 l    d  .debug_info	0000000000000000 .debug_info
0000000000000000 l    d  .debug_abbrev	0000000000000000 .debug_abbrev
0000000000000000 l    d  .debug_loc	0000000000000000 .debug_loc
0000000000000000 l    d  .debug_aranges	0000000000000000 .debug_aranges
0000000000000000 l    d  .debug_ranges	0000000000000000 .debug_ranges
0000000000000000 l    d  .debug_macro	0000000000000000 .debug_macro
0000000000000000 l    d  .debug_line	0000000000000000 .debug_line
0000000000000000 l    d  .debug_str	0000000000000000 .debug_str
0000000000000000 l    d  .comment	0000000000000000 .comment
0000000000000000 l    d  .debug_frame	0000000000000000 .debug_frame
0000000000000000 l    df *ABS*	0000000000000000 user_ta_header.c
0000000000007780 l     O .rodata	0000000000000004 __compound_literal.4
0000000000007784 l     O .rodata	0000000000000004 __compound_literal.3
0000000000007788 l     O .rodata	0000000000000001 __compound_literal.2
0000000000007789 l     O .rodata	0000000000000001 __compound_literal.1
000000000000778a l     O .rodata	0000000000000001 __compound_literal.0
0000000000000000 l    df *ABS*	0000000000000000 ta_sdp_basic.c
0000000000000020 l     F .text	000000000000010c cmd_invoke
000000000000012c l     F .text	0000000000000118 cmd_invoke_pta
000000000000a100 l     O .bss	0000000000000008 sess.3836
000000000000a108 l     O .bss	0000000000000008 sess.3847
0000000000007718 l     O .rodata	000000000000000b __func__.3839
0000000000007738 l     O .rodata	000000000000000f __func__.3850
0000000000007748 l     O .rodata	000000000000000b __func__.3810
0000000000007758 l     O .rodata	000000000000000e __func__.3818
0000000000007768 l     O .rodata	0000000000000009 __func__.3829
0000000000000000 l    df *ABS*	0000000000000000 memcpy.c
0000000000000000 l    df *ABS*	0000000000000000 trace.c
00000000000077a0 l     O .rodata	0000000000000005 lvl_strs.3178
0000000000000000 l    df *ABS*	0000000000000000 snprintk.c
00000000000077a8 l     O .rodata	0000000000000011 HEXDIGITS
00000000000077c0 l     O .rodata	0000000000000011 hexdigits
0000000000000000 l    df *ABS*	0000000000000000 memchr.c
0000000000000000 l    df *ABS*	0000000000000000 strlen.c
0000000000000000 l    df *ABS*	0000000000000000 trace_ext.c
0000000000000000 l    df *ABS*	0000000000000000 tee_api.c
0000000000012110 l     O .bss	0000000000000008 tee_api_instance_data
00000000000077e8 l     O .rodata	000000000000000b __func__.4337
0000000000000000 l    df *ABS*	0000000000000000 tee_api_panic.c
0000000000000000 l    df *ABS*	0000000000000000 user_ta_entry.c
0000000000001aa0 l     F .text	0000000000000028 ta_header_get_session
0000000000001ac8 l     F .text	0000000000000094 ta_header_remove_session
0000000000014b48 l     O .bss	0000000000000001 init_done
000000000000a0b0 l     O .data	0000000000000010 ta_sessions
0000000000000000 l    df *ABS*	0000000000000000 utee_syscalls_a64.o
0000000000000000 l    df *ABS*	0000000000000000 gprof_a64.o
0000000000000000 l    df *ABS*	0000000000000000 tee_api_arith.c
000000000000278c l     F .text	0000000000000028 TEE_BigInt_Panic
0000000000012160 l     O .bss	0000000000001980 mempool_u32
0000000000013ae0 l     O .bss	0000000000000010 mem.4074
0000000000013af0 l     O .bss	0000000000000008 mempool
0000000000000000 l    df *ABS*	0000000000000000 mpa_misc.c
0000000000000000 l    df *ABS*	0000000000000000 mpa_montgomery.c
0000000000000000 l    df *ABS*	0000000000000000 mpa_primetest.c
0000000000008460 l     O .rodata	0000000000000010 const_miller_rabin_proof_limit
0000000000008470 l     O .rodata	000000000000001c proof_a.3550
0000000000008490 l     O .rodata	000000000000000c const_two
00000000000084a0 l     O .rodata	00000000000000b8 const_small_prime_factors
0000000000000000 l    df *ABS*	0000000000000000 mpa_conv.c
0000000000000000 l    df *ABS*	0000000000000000 mpa_div.c
0000000000000000 l    df *ABS*	0000000000000000 mpa_gcd.c
0000000000003ac0 l     F .text	0000000000000080 __mpa_divby2
0000000000003b40 l     F .text	000000000000016c __mpa_gcd.part.0
0000000000003cac l     F .text	0000000000000380 __mpa_egcd
0000000000000000 l    df *ABS*	0000000000000000 mpa_mem_static.c
0000000000000000 l    df *ABS*	0000000000000000 mpa_mul.c
0000000000000000 l    df *ABS*	0000000000000000 mpa_random.c
0000000000000000 l    df *ABS*	0000000000000000 mpa_shift.c
0000000000000000 l    df *ABS*	0000000000000000 mpa_addsub.c
0000000000000000 l    df *ABS*	0000000000000000 mpa_cmp.c
0000000000000000 l    df *ABS*	0000000000000000 mpa_expmod.c
0000000000000000 l    df *ABS*	0000000000000000 mpa_init.c
0000000000000000 l    df *ABS*	0000000000000000 mpa_io.c
0000000000005960 l     F .text	0000000000000044 __mpa_word_to_hexstr
00000000000059a4 l     F .text	0000000000000114 __mpa_mpanum_to_hexstr
0000000000005ab8 l     F .text	000000000000003c __mpa_isspace
0000000000008560 l     O .rodata	000000000000000c __func__.3624
0000000000008570 l     O .rodata	000000000000000c __func__.3638
0000000000013af8 l     O .bss	0000000000001002 buf.3610
0000000000000000 l    df *ABS*	0000000000000000 mpa_modulus.c
0000000000000000 l    df *ABS*	0000000000000000 bget_malloc.c
0000000000006354 l     F .text	0000000000000040 raw_malloc_return_hook.isra.3
0000000000006394 l     F .text	0000000000000110 create_free_block.constprop.11
0000000000006664 l     F .text	000000000000005c raw_malloc.constprop.15
0000000000008580 l     O .rodata	0000000000000012 __func__.3464
0000000000008598 l     O .rodata	0000000000000005 __func__.3319
00000000000085a0 l     O .rodata	0000000000000006 __func__.3334
00000000000085a8 l     O .rodata	0000000000000005 __func__.3351
00000000000085b0 l     O .rodata	0000000000000006 __func__.3343
00000000000085b8 l     O .rodata	0000000000000006 __func__.3360
00000000000085c0 l     O .rodata	0000000000000007 __func__.3370
00000000000085c8 l     O .rodata	000000000000000d __func__.3500
00000000000085d8 l     O .rodata	000000000000000c __func__.3474
00000000000085e8 l     O .rodata	000000000000000b __func__.3485
00000000000085f8 l     O .rodata	0000000000000010 __func__.3552
0000000000008608 l     O .rodata	000000000000000e __func__.3506
0000000000008618 l     O .rodata	0000000000000013 __func__.3411
0000000000014b00 l     O .bss	0000000000000038 mstats
0000000000014b38 l     O .bss	0000000000000008 malloc_pool_len
0000000000014b40 l     O .bss	0000000000000008 malloc_pool
000000000000a0c0 l     O .data	0000000000000038 malloc_poolset
0000000000000000 l    df *ABS*	0000000000000000 snprintf.c
0000000000000000 l    df *ABS*	0000000000000000 memcmp.c
0000000000000000 l    df *ABS*	0000000000000000 memmove.c
0000000000000000 l    df *ABS*	0000000000000000 memset.c
0000000000000000 l    df *ABS*	0000000000000000 mempool.c
0000000000008630 l     O .rodata	0000000000000013 __func__.3181
0000000000000000 l    df *ABS*	0000000000000000 assert.c
0000000000000000 l    df *ABS*	0000000000000000 
0000000000009040 l     O *ABS*	0000000000000000 _DYNAMIC
0000000000008f18 l     O *ABS*	0000000000000000 _GLOBAL_OFFSET_TABLE_
00000000000020a0 g     F .text	000000000000000c utee_se_channel_transmit
0000000000001578 g     F .text	000000000000003c putchar
00000000000058dc g     F .text	000000000000001c mpa_init_static
0000000000002808 g     F .text	0000000000000054 mpa_copy
00000000000026cc g     F .text	000000000000001c TEE_BigIntConvertToFMM
00000000000025ac g     F .text	000000000000000c TEE_BigIntSquareMod
0000000000002228 g     F .text	0000000000000004 TEE_BigIntShiftRight
0000000000003110 g     F .text	0000000000000074 mpa_get_S32
000000000000288c g     F .text	0000000000000044 mpa_highest_bit_index
0000000000001f68 g     F .text	000000000000000c utee_storage_obj_create
000000000000207c g     F .text	000000000000000c utee_se_session_close
0000000000001d70 g     F .text	000000000000000c utee_return
000000000000201c g     F .text	000000000000000c utee_se_service_get_readers
0000000000001a74 g     F .text	0000000000000008 TEE_Realloc
0000000000003200 g     F .text	0000000000000148 __mpa_div_q_r_internal_word
0000000000005114 g     F .text	000000000000019c mpa_sub
000000000000146c g     F .text	00000000000000cc printf
0000000000001d7c g     F .text	000000000000000c utee_log
0000000000008558 g     O .rodata	0000000000000004 NR_STORED_PRIMES
0000000000001750 g     F .text	00000000000000b4 TEE_InvokeTACommand
0000000000002914 g     F .text	000000000000001c mpa_can_hold
00000000000043e8 g     F .text	0000000000000098 __mpa_abs_mul_word
0000000000002cb0 g     F .text	0000000000000088 mpa_montgomery_mul
000000000000132c g     F .text	0000000000000054 vsnprintk
0000000000002930 g     F .text	000000000000000c mpa_parity
0000000000007508 g     F .text	000000000000004c memmove
0000000000004c9c g     F .text	0000000000000020 __mpa_full_adder_ackum
0000000000007408 g     F .text	0000000000000078 snprintf
0000000000002224 g     F .text	0000000000000004 TEE_BigIntCmpS32
0000000000002260 g     F .text	000000000000000c TEE_BigIntAdd
0000000000001da0 g     F .text	000000000000000c utee_get_property_name_to_index
0000000000007790 g     O .rodata	0000000000000008 ta_heap_size
000000000000855c g     O .rodata	0000000000000004 MAX_TABULATED_PRIME
0000000000001e24 g     F .text	000000000000000c utee_cryp_state_alloc
0000000000001f2c g     F .text	000000000000000c utee_authenc_enc_final
00000000000043c8 g     F .text	0000000000000020 __mpa_mul_add_word_cum
0000000000002278 g     F .text	0000000000000004 TEE_BigIntNeg
00000000000039d0 g     F .text	00000000000000f0 mpa_div
0000000000000020 g       .text	0000000000000000 __text_start
00000000000077f8 g     O .rodata	000000000000000c const_one
000000000000739c g     F .text	000000000000006c malloc_buffer_overlaps_heap
000000000000561c g     F .text	0000000000000018 __mpa_abs_less_than
0000000000002438 g     F .text	00000000000000a8 TEE_BigIntSubMod
000000000000471c g     F .text	000000000000010c mpa_get_random
0000000000000540 g     F .text	0000000000000240 trace_printf
0000000000002004 g     F .text	000000000000000c utee_se_service_open
00000000000004ec g     F .text	0000000000000020 memcpy
0000000000001e3c g     F .text	000000000000000c utee_cryp_state_free
00000000000027d8 g     F .text	0000000000000030 mpa_wipe
00000000000026e8 g     F .text	0000000000000094 TEE_BigIntConvertFromFMM
0000000000001a98 g     F .text	0000000000000008 TEE_Panic
0000000000002094 g     F .text	000000000000000c utee_se_channel_get_select_resp
0000000000001538 g     F .text	0000000000000040 puts
000000000000277c g     F .text	0000000000000010 TEE_BigIntComputeFMM
0000000000003184 g     F .text	0000000000000014 mpa_set_word
0000000000006c30 g     F .text	0000000000000030 malloc_get_stats
0000000000004988 g     F .text	0000000000000190 mpa_shift_left
0000000000001e84 g     F .text	000000000000000c utee_cipher_final
0000000000004574 g     F .text	00000000000000e4 mpa_mul
00000000000019f0 g     F .text	0000000000000028 TEE_GetREETime
000000000000a000 g     O .data	00000000000000a8 ta_props
0000000000006c60 g     F .text	0000000000000004 malloc
0000000000001ec0 g     F .text	000000000000000c utee_cryp_obj_close
0000000000002040 g     F .text	000000000000000c utee_se_reader_open_session
0000000000007480 g     F .text	0000000000000054 vsnprintf
000000000000a0f8 g     O .data	0000000000000004 trace_level
0000000000002220 g     F .text	0000000000000004 TEE_BigIntCmp
0000000000007778 g     O .rodata	0000000000000008 ta_num_props
00000000000069e4 g     F .text	00000000000000c8 bgetr
0000000000001f20 g     F .text	000000000000000c utee_authenc_update_payload
0000000000007658 g     F .text	0000000000000040 mempool_free
00000000000021bc g     F .text	0000000000000040 TEE_BigIntConvertToOctetString
00000000000020b8 g     F .text	000000000000000c utee_cache_operation
0000000000001f08 g     F .text	000000000000000c utee_authenc_init
000000000000222c g     F .text	000000000000001c TEE_BigIntGetBit
0000000000007798 g     O .rodata	0000000000000003 trace_ext_prefix
0000000000004cbc g     F .text	00000000000000f4 __mpa_abs_add
00000000000066c0 g     F .text	0000000000000088 bgetz
00000000000018a8 g     F .text	000000000000000c TEE_GetInstanceData
00000000000018f4 g     F .text	000000000000003c TEE_Wait
0000000000001fd4 g     F .text	000000000000000c utee_storage_obj_write
0000000000004394 g     F .text	000000000000001c mpa_free_static_temp_var
0000000000002d38 g     F .text	00000000000003ac mpa_is_prob_prime
00000000000020ac g     F .text	000000000000000c utee_se_channel_close
0000000000004658 g     F .text	00000000000000c4 mpa_mul_word
0000000000001a88 g     F .text	0000000000000008 TEE_CacheFlush
000000000000024c g     F .text	0000000000000004 TA_DestroyEntryPoint
0000000000007698 g     F .text	0000000000000044 _assert_log
0000000000002180 g     F .text	0000000000000014 TEE_BigIntFMMContextSizeInU32
0000000000003348 g     F .text	0000000000000688 __mpa_div_q_r
00000000000020c8 g     F .text	0000000000000058 _TEE_MathAPI_Init
0000000000001fbc g     F .text	000000000000000c utee_storage_next_enum
000000000000a110 g     O .bss	0000000000008000 ta_heap
00000000000025b8 g     F .text	000000000000006c TEE_BigIntInvMod
0000000000000258 g     F .text	0000000000000004 TA_CloseSessionEntryPoint
0000000000001d88 g     F .text	000000000000000c __utee_panic
0000000000001e30 g     F .text	000000000000000c utee_cryp_state_copy
000000000000025c g     F .text	0000000000000288 TA_InvokeCommandEntryPoint
0000000000005e18 g     F .text	0000000000000110 mpa_set_oct_str
0000000000002070 g     F .text	000000000000000c utee_se_session_open_channel
00000000000075d8 g     F .text	0000000000000080 mempool_alloc
000000000000488c g     F .text	0000000000000098 __mpa_shift_words_left
0000000000001eb4 g     F .text	000000000000000c utee_cryp_obj_alloc
0000000000001e18 g     F .text	000000000000000c utee_set_ta_time
0000000000001ea8 g     F .text	000000000000000c utee_cryp_obj_get_attr
00000000000029c0 g     F .text	0000000000000090 __mpa_montgomery_sub_ack
0000000000006c78 g     F .text	0000000000000070 calloc
0000000000001a18 g     F .text	000000000000005c TEE_Malloc
0000000000001df4 g     F .text	000000000000000c utee_mask_cancellation
0000000000001ecc g     F .text	000000000000000c utee_cryp_obj_reset
0000000000001888 g     F .text	0000000000000014 TEE_CheckMemoryAccessRights
0000000000014b50 g       .bss	0000000000000000 __gprof_buf_end
00000000000052b0 g     F .text	000000000000002c mpa_neg
0000000000007828 g     O .rodata	0000000000000c38 PRIME_TABLE
0000000000000250 g     F .text	0000000000000008 TA_OpenSessionEntryPoint
000000000000402c g     F .text	0000000000000120 mpa_gcd
000000000000285c g     F .text	0000000000000030 mpa_abs
0000000000001fb0 g     F .text	000000000000000c utee_storage_start_enum
0000000000005afc g     F .text	0000000000000298 mpa_set_str
0000000000001f80 g     F .text	000000000000000c utee_storage_obj_rename
0000000000012118 g     O .bss	0000000000000004 ta_param_types
00000000000026a8 g     F .text	0000000000000024 TEE_BigIntIsProbablePrime
0000000000004384 g     F .text	0000000000000010 mpa_alloc_static_temp_var
0000000000001d94 g     F .text	000000000000000c utee_get_property
0000000000002120 g     F .text	0000000000000004 TEE_BigIntInit
00000000000018b4 g     F .text	0000000000000008 TEE_MemMove
0000000000002194 g     F .text	0000000000000028 TEE_BigIntConvertFromOctetString
000000000000a0a8 g     O .data	0000000000000008 _ref__utee_mcount
00000000000013f4 g     F .text	000000000000002c memchr
0000000000001830 g     F .text	000000000000002c TEE_UnmaskCancellation
00000000000061bc g     F .text	0000000000000084 mpa_mul_mod
0000000000001f74 g     F .text	000000000000000c utee_storage_obj_del
0000000000001fec g     F .text	000000000000000c utee_storage_obj_seek
0000000000002b74 g     F .text	000000000000013c mpa_compute_fmm_context
0000000000001e54 g     F .text	000000000000000c utee_hash_update
00000000000020c4  w    F .text	0000000000000004 __utee_mcount
00000000000022fc g     F .text	0000000000000094 TEE_BigIntMod
0000000000002088 g     F .text	000000000000000c utee_se_channel_select_next
0000000000001db8 g     F .text	000000000000000c utee_close_ta_session
0000000000002298 g     F .text	0000000000000064 TEE_BigIntDiv
0000000000006c18 g     F .text	0000000000000018 malloc_reset_stats
0000000000001e78 g     F .text	000000000000000c utee_cipher_update
0000000000002064 g     F .text	000000000000000c utee_se_session_get_atr
0000000000006ce8 g     F .text	000000000000005c realloc
0000000000004db0 g     F .text	00000000000000cc __mpa_abs_add_ackum
0000000000007570 g     F .text	0000000000000068 mempool_alloc_pool
0000000000001f50 g     F .text	000000000000000c utee_asymm_verify
000000000000227c g     F .text	000000000000000c TEE_BigIntMul
0000000000003198 g     F .text	0000000000000018 mpa_get_word
00000000000018c4 g     F .text	0000000000000008 TEE_MemFill
00000000000074d4 g     F .text	0000000000000034 memcmp
00000000000070ec g     F .text	0000000000000130 malloc_add_pool
0000000000000530 g     F .text	0000000000000010 trace_get_level
0000000000001efc g     F .text	000000000000000c utee_cryp_random_number_generate
0000000000002170 g     F .text	0000000000000010 TEE_BigIntFMMSizeInU32
0000000000002124 g     F .text	0000000000000014 TEE_BigIntInitFMM
0000000000001f44 g     F .text	000000000000000c utee_asymm_operate
0000000000001b5c g     F .text	0000000000000208 __utee_entry
00000000000076f0 g       .text	0000000000000000 __text_end
0000000000002624 g     F .text	0000000000000078 TEE_BigIntRelativePrime
0000000000004828 g     F .text	0000000000000064 mpa_get_random_digits
0000000000006aac g     F .text	00000000000000d4 bpool
00000000000030e4 g     F .text	000000000000002c mpa_set_S32
00000000000058f8 g     F .text	0000000000000068 mpa_init_static_fmm_context
0000000000001804 g     F .text	000000000000002c TEE_GetCancellationFlag
0000000000002010 g     F .text	000000000000000c utee_se_service_close
00000000000019b0 g     F .text	0000000000000040 TEE_SetTAPersistentTime
00000000000052dc g     F .text	000000000000013c mpa_add_word
0000000000002028 g     F .text	000000000000000c utee_se_reader_get_prop
0000000000007554 g     F .text	000000000000001c memset
0000000000001930 g     F .text	0000000000000080 TEE_GetTAPersistentTime
0000000000000780 g     F .text	0000000000000004 dhex_dump
000000000000185c g     F .text	000000000000002c TEE_MaskCancellation
0000000000004c78 g     F .text	0000000000000024 __mpa_full_sub
0000000000001fc8 g     F .text	000000000000000c utee_storage_obj_read
0000000000001ed8 g     F .text	000000000000000c utee_cryp_obj_populate
0000000000005634 g     F .text	0000000000000068 mpa_cmp
0000000000006240 g     F .text	0000000000000114 mpa_inv_mod
0000000000005418 g     F .text	0000000000000138 mpa_sub_word
00000000000043b0 g     F .text	0000000000000018 __mpa_mul_add_word
0000000000004f80 g     F .text	0000000000000194 mpa_add
0000000000005720 g     F .text	00000000000001bc mpa_exp_mod
0000000000004924 g     F .text	0000000000000064 __mpa_shift_words_right
000000000000050c g     F .text	0000000000000024 trace_set_level
0000000000002058 g     F .text	000000000000000c utee_se_session_is_closed
0000000000001e90 g     F .text	000000000000000c utee_cryp_obj_get_info
0000000000001f8c g     F .text	000000000000000c utee_storage_alloc_enum
0000000000001fa4 g     F .text	000000000000000c utee_storage_reset_enum
0000000000001fe0 g     F .text	000000000000000c utee_storage_obj_trunc
000000000000609c g     F .text	0000000000000018 mpa_mod
0000000000005600 g     F .text	000000000000001c __mpa_abs_greater_than
0000000000002200 g     F .text	0000000000000020 TEE_BigIntConvertToS32
000000000000226c g     F .text	000000000000000c TEE_BigIntSub
0000000000001dd0 g     F .text	000000000000000c utee_get_cancellation_flag
0000000000001e48 g     F .text	000000000000000c utee_hash_init
00000000000004e4 g     F .text	0000000000000008 tahead_get_trace_level
00000000000015b4 g     F .text	0000000000000078 __utee_from_param
0000000000007808 g     O .rodata	0000000000000010 Const_1_LShift_Base
000000000000162c g     F .text	000000000000006c __utee_to_param
0000000000006d44 g     F .text	00000000000003a8 memalign
00000000000021fc g     F .text	0000000000000004 TEE_BigIntConvertFromS32
0000000000006138 g     F .text	0000000000000084 mpa_sub_mod
0000000000001e9c g     F .text	000000000000000c utee_cryp_obj_restrict_usage
000000000000721c g     F .text	0000000000000180 malloc_buffer_is_within_alloced
0000000000001ee4 g     F .text	000000000000000c utee_cryp_obj_copy
0000000000004b18 g     F .text	0000000000000144 mpa_shift_right
0000000000002138 g     F .text	0000000000000038 TEE_BigIntInitFMMContext
0000000000001ef0 g     F .text	000000000000000c utee_cryp_derive_key
0000000000002a50 g     F .text	0000000000000124 __mpa_montgomery_mul
0000000000005f28 g     F .text	0000000000000174 mpa_get_oct_str
000000000000569c g     F .text	0000000000000084 mpa_cmp_short
0000000000001f38 g     F .text	000000000000000c utee_authenc_dec_final
0000000000005550 g     F .text	00000000000000b0 __mpa_abs_cmp
0000000000002288 g     F .text	0000000000000010 TEE_BigIntSquare
0000000000000244 g     F .text	0000000000000008 TA_CreateEntryPoint
0000000000001380 g     F .text	0000000000000074 snprintk
0000000000002248 g     F .text	0000000000000018 TEE_BigIntGetBitCount
00000000000024e0 g     F .text	00000000000000cc TEE_BigIntMulMod
0000000000012120 g     O .bss	0000000000000040 ta_params
0000000000004480 g     F .text	00000000000000f4 __mpa_abs_mul
00000000000064a4 g     F .text	00000000000001c0 bget
0000000000001a7c g     F .text	0000000000000004 TEE_Free
0000000000002034 g     F .text	000000000000000c utee_se_reader_get_name
0000000000001a90 g     F .text	0000000000000008 TEE_CacheInvalidate
0000000000001e6c g     F .text	000000000000000c utee_cipher_init
00000000000076dc g     F .text	0000000000000014 _assert_break
0000000000002390 g     F .text	00000000000000a8 TEE_BigIntAddMod
0000000000001f98 g     F .text	000000000000000c utee_storage_free_enum
0000000000001f14 g     F .text	000000000000000c utee_authenc_update_aad
00000000000028d0 g     F .text	0000000000000044 mpa_get_bit
00000000000018bc g     F .text	0000000000000008 TEE_MemCompare
0000000000000784 g     F .text	0000000000000ba8 __vsnprintf
0000000000001d64 g     F .text	000000000000000c utee_panic
0000000000001698 g     F .text	0000000000000090 TEE_OpenTASession
000000000000143c g     F .text	0000000000000028 trace_ext_puts
0000000000001464 g     F .text	0000000000000008 trace_ext_get_thread_id
0000000000001a80 g     F .text	0000000000000008 TEE_CacheClean
0000000000001dac g     F .text	000000000000000c utee_open_ta_session
00000000000031b0 g     F .text	0000000000000050 __mpa_div_dword
00000000000027b4 g     F .text	0000000000000024 __mpa_set_unused_digits_to_zero
0000000000007818 g     O .rodata	000000000000000c const_largest_deci_base
0000000000005af4 g     F .text	0000000000000008 mpa_get_str_size
0000000000001e60 g     F .text	000000000000000c utee_hash_final
0000000000001420 g     F .text	000000000000001c strlen
000000000000269c g     F .text	000000000000000c TEE_BigIntComputeExtendedGcd
000000000000414c g     F .text	00000000000001ec mpa_extended_gcd
00000000000060b4 g     F .text	0000000000000084 mpa_add_mod
0000000000001f5c g     F .text	000000000000000c utee_storage_obj_open
0000000000001dc4 g     F .text	000000000000000c utee_invoke_ta_command
0000000000005d94 g     F .text	0000000000000084 mpa_get_str
0000000000001e00 g     F .text	000000000000000c utee_wait
00000000000018cc g     F .text	0000000000000028 TEE_GetSystemTime
0000000000000000 g     O .ta_head	0000000000000020 ta_head
0000000000006748 g     F .text	000000000000029c brel
0000000000004338 g     F .text	000000000000004c mpa_alloc_static_temp_var_size
0000000000001e0c g     F .text	000000000000000c utee_get_time
0000000000002948 g     F .text	0000000000000078 __mpa_montgomery_mul_add
000000000000189c g     F .text	000000000000000c TEE_SetInstanceData
0000000000001de8 g     F .text	000000000000000c utee_unmask_cancellation
0000000000001ddc g     F .text	000000000000000c utee_check_access_rights
000000000000204c g     F .text	000000000000000c utee_se_reader_close_sessions
0000000000001ff8 g     F .text	000000000000000c utee_cryp_obj_generate_key
000000000000293c g     F .text	000000000000000c mpa_constant_one
0000000000001728 g     F .text	0000000000000028 TEE_CloseTASession
0000000000004c5c g     F .text	000000000000001c __mpa_full_adder
0000000000004e7c g     F .text	0000000000000104 __mpa_abs_sub
0000000000014b50 g       .bss	0000000000000000 __gprof_buf_start
0000000000006c64 g     F .text	0000000000000014 free
0000000000006b80 g     F .text	0000000000000098 bstats



Disassembly of section .text:

0000000000000020 <cmd_invoke>:
cmd_invoke():
/home/lagadanu/Desktop/qemu/out-br/build/optee_test-1.0/ta/sdp_basic/ta_sdp_basic.c:270
      20:	a9b97bfd 	stp	x29, x30, [sp,#-112]!
      24:	910003fd 	mov	x29, sp
/home/lagadanu/Desktop/qemu/out-br/build/optee_test-1.0/ta/sdp_basic/ta_sdp_basic.c:271
      28:	910183a6 	add	x6, x29, #0x60
/home/lagadanu/Desktop/qemu/out-br/build/optee_test-1.0/ta/sdp_basic/ta_sdp_basic.c:270
      2c:	a9025bf5 	stp	x21, x22, [sp,#32]
      30:	a9046bf9 	stp	x25, x26, [sp,#64]
/home/lagadanu/Desktop/qemu/out-br/build/optee_test-1.0/ta/sdp_basic/ta_sdp_basic.c:271
      34:	f000003a 	adrp	x26, 7000 <memalign+0x2bc>
/home/lagadanu/Desktop/qemu/out-br/build/optee_test-1.0/ta/sdp_basic/ta_sdp_basic.c:270
      38:	a90153f3 	stp	x19, x20, [sp,#16]
/home/lagadanu/Desktop/qemu/out-br/build/optee_test-1.0/ta/sdp_basic/ta_sdp_basic.c:271
      3c:	911c2356 	add	x22, x26, #0x708
/home/lagadanu/Desktop/qemu/out-br/build/optee_test-1.0/ta/sdp_basic/ta_sdp_basic.c:276
      40:	d0000053 	adrp	x19, a000 <ta_props>
/home/lagadanu/Desktop/qemu/out-br/build/optee_test-1.0/ta/sdp_basic/ta_sdp_basic.c:270
      44:	a90363f7 	stp	x23, x24, [sp,#48]
      48:	aa0103f9 	mov	x25, x1
      4c:	2a0003f8 	mov	w24, w0
      50:	2a0203f7 	mov	w23, w2
/home/lagadanu/Desktop/qemu/out-br/build/optee_test-1.0/ta/sdp_basic/ta_sdp_basic.c:271
      54:	aa0603e0 	mov	x0, x6
      58:	d2800202 	mov	x2, #0x10                  	// #16
      5c:	aa1603e1 	mov	x1, x22
      60:	94000123 	bl	4ec <memcpy>
      64:	aa0003e6 	mov	x6, x0
/home/lagadanu/Desktop/qemu/out-br/build/optee_test-1.0/ta/sdp_basic/ta_sdp_basic.c:276
      68:	f9408260 	ldr	x0, [x19,#256]
      6c:	910173b5 	add	x21, x29, #0x5c
      70:	b5000360 	cbnz	x0, dc <cmd_invoke+0xbc>
      74:	91040264 	add	x4, x19, #0x100
/home/lagadanu/Desktop/qemu/out-br/build/optee_test-1.0/ta/sdp_basic/ta_sdp_basic.c:277
      78:	aa1503e5 	mov	x5, x21
      7c:	d2800003 	mov	x3, #0x0                   	// #0
      80:	52800002 	mov	w2, #0x0                   	// #0
      84:	52800001 	mov	w1, #0x0                   	// #0
      88:	aa0603e0 	mov	x0, x6
      8c:	94000583 	bl	1698 <TEE_OpenTASession>
      90:	2a0003f4 	mov	w20, w0
/home/lagadanu/Desktop/qemu/out-br/build/optee_test-1.0/ta/sdp_basic/ta_sdp_basic.c:278
      94:	34000240 	cbz	w0, dc <cmd_invoke+0xbc>
/home/lagadanu/Desktop/qemu/out-br/build/optee_test-1.0/ta/sdp_basic/ta_sdp_basic.c:279
      98:	90000044 	adrp	x4, 8000 <PRIME_TABLE+0x7d8>
      9c:	52800023 	mov	w3, #0x1                   	// #1
      a0:	91190c84 	add	x4, x4, #0x643
      a4:	52800022 	mov	w2, #0x1                   	// #1
      a8:	528022e1 	mov	w1, #0x117                 	// #279
      ac:	910042c0 	add	x0, x22, #0x10
      b0:	94000124 	bl	540 <trace_printf>
/home/lagadanu/Desktop/qemu/out-br/build/optee_test-1.0/ta/sdp_basic/ta_sdp_basic.c:293
      b4:	f9408260 	ldr	x0, [x19,#256]
      b8:	9400059c 	bl	1728 <TEE_CloseTASession>
/home/lagadanu/Desktop/qemu/out-br/build/optee_test-1.0/ta/sdp_basic/ta_sdp_basic.c:294
      bc:	f900827f 	str	xzr, [x19,#256]
/home/lagadanu/Desktop/qemu/out-br/build/optee_test-1.0/ta/sdp_basic/ta_sdp_basic.c:297
      c0:	2a1403e0 	mov	w0, w20
      c4:	a94153f3 	ldp	x19, x20, [sp,#16]
      c8:	a9425bf5 	ldp	x21, x22, [sp,#32]
      cc:	a94363f7 	ldp	x23, x24, [sp,#48]
      d0:	a9446bf9 	ldp	x25, x26, [sp,#64]
      d4:	a8c77bfd 	ldp	x29, x30, [sp],#112
      d8:	d65f03c0 	ret
/home/lagadanu/Desktop/qemu/out-br/build/optee_test-1.0/ta/sdp_basic/ta_sdp_basic.c:285
      dc:	f9408260 	ldr	x0, [x19,#256]
      e0:	aa1503e5 	mov	x5, x21
      e4:	aa1903e4 	mov	x4, x25
      e8:	2a1803e3 	mov	w3, w24
      ec:	2a1703e2 	mov	w2, w23
      f0:	52800001 	mov	w1, #0x0                   	// #0
      f4:	94000597 	bl	1750 <TEE_InvokeTACommand>
      f8:	2a0003f4 	mov	w20, w0
/home/lagadanu/Desktop/qemu/out-br/build/optee_test-1.0/ta/sdp_basic/ta_sdp_basic.c:286
      fc:	34fffe20 	cbz	w0, c0 <cmd_invoke+0xa0>
/home/lagadanu/Desktop/qemu/out-br/build/optee_test-1.0/ta/sdp_basic/ta_sdp_basic.c:287
     100:	b9405fa6 	ldr	w6, [x29,#92]
     104:	911c2340 	add	x0, x26, #0x708
     108:	2a1403e5 	mov	w5, w20
     10c:	90000044 	adrp	x4, 8000 <PRIME_TABLE+0x7d8>
     110:	52800023 	mov	w3, #0x1                   	// #1
     114:	9119cc84 	add	x4, x4, #0x673
     118:	52800022 	mov	w2, #0x1                   	// #1
     11c:	52802401 	mov	w1, #0x120                 	// #288
     120:	91004000 	add	x0, x0, #0x10
     124:	94000107 	bl	540 <trace_printf>
     128:	17ffffe3 	b	b4 <cmd_invoke+0x94>

000000000000012c <cmd_invoke_pta>:
cmd_invoke_pta():
/home/lagadanu/Desktop/qemu/out-br/build/optee_test-1.0/ta/sdp_basic/ta_sdp_basic.c:302
     12c:	a9b97bfd 	stp	x29, x30, [sp,#-112]!
     130:	910003fd 	mov	x29, sp
/home/lagadanu/Desktop/qemu/out-br/build/optee_test-1.0/ta/sdp_basic/ta_sdp_basic.c:303
     134:	910183a6 	add	x6, x29, #0x60
/home/lagadanu/Desktop/qemu/out-br/build/optee_test-1.0/ta/sdp_basic/ta_sdp_basic.c:302
     138:	a90153f3 	stp	x19, x20, [sp,#16]
     13c:	a90363f7 	stp	x23, x24, [sp,#48]
/home/lagadanu/Desktop/qemu/out-br/build/optee_test-1.0/ta/sdp_basic/ta_sdp_basic.c:303
     140:	f0000034 	adrp	x20, 7000 <memalign+0x2bc>
     144:	911c2297 	add	x23, x20, #0x708
/home/lagadanu/Desktop/qemu/out-br/build/optee_test-1.0/ta/sdp_basic/ta_sdp_basic.c:302
     148:	a9046bf9 	stp	x25, x26, [sp,#64]
     14c:	a9025bf5 	stp	x21, x22, [sp,#32]
     150:	2a0003f9 	mov	w25, w0
     154:	aa0103fa 	mov	x26, x1
/home/lagadanu/Desktop/qemu/out-br/build/optee_test-1.0/ta/sdp_basic/ta_sdp_basic.c:303
     158:	aa0603e0 	mov	x0, x6
/home/lagadanu/Desktop/qemu/out-br/build/optee_test-1.0/ta/sdp_basic/ta_sdp_basic.c:302
     15c:	2a0203f8 	mov	w24, w2
/home/lagadanu/Desktop/qemu/out-br/build/optee_test-1.0/ta/sdp_basic/ta_sdp_basic.c:303
     160:	910082e1 	add	x1, x23, #0x20
     164:	d2800202 	mov	x2, #0x10                  	// #16
     168:	940000e1 	bl	4ec <memcpy>
/home/lagadanu/Desktop/qemu/out-br/build/optee_test-1.0/ta/sdp_basic/ta_sdp_basic.c:308
     16c:	d0000053 	adrp	x19, a000 <ta_props>
     170:	91040264 	add	x4, x19, #0x100
/home/lagadanu/Desktop/qemu/out-br/build/optee_test-1.0/ta/sdp_basic/ta_sdp_basic.c:303
     174:	aa0003e6 	mov	x6, x0
     178:	910173b6 	add	x22, x29, #0x5c
/home/lagadanu/Desktop/qemu/out-br/build/optee_test-1.0/ta/sdp_basic/ta_sdp_basic.c:308
     17c:	f9400480 	ldr	x0, [x4,#8]
     180:	b5000380 	cbnz	x0, 1f0 <cmd_invoke_pta+0xc4>
/home/lagadanu/Desktop/qemu/out-br/build/optee_test-1.0/ta/sdp_basic/ta_sdp_basic.c:309
     184:	aa1603e5 	mov	x5, x22
     188:	91002084 	add	x4, x4, #0x8
     18c:	d2800003 	mov	x3, #0x0                   	// #0
     190:	52800002 	mov	w2, #0x0                   	// #0
     194:	52800001 	mov	w1, #0x0                   	// #0
     198:	aa0603e0 	mov	x0, x6
     19c:	9400053f 	bl	1698 <TEE_OpenTASession>
     1a0:	2a0003f5 	mov	w21, w0
/home/lagadanu/Desktop/qemu/out-br/build/optee_test-1.0/ta/sdp_basic/ta_sdp_basic.c:310
     1a4:	34000260 	cbz	w0, 1f0 <cmd_invoke_pta+0xc4>
/home/lagadanu/Desktop/qemu/out-br/build/optee_test-1.0/ta/sdp_basic/ta_sdp_basic.c:311
     1a8:	90000044 	adrp	x4, 8000 <PRIME_TABLE+0x7d8>
     1ac:	52800023 	mov	w3, #0x1                   	// #1
     1b0:	91190c84 	add	x4, x4, #0x643
     1b4:	52800022 	mov	w2, #0x1                   	// #1
     1b8:	528026e1 	mov	w1, #0x137                 	// #311
     1bc:	9100c2e0 	add	x0, x23, #0x30
     1c0:	940000e0 	bl	540 <trace_printf>
/home/lagadanu/Desktop/qemu/out-br/build/optee_test-1.0/ta/sdp_basic/ta_sdp_basic.c:325
     1c4:	91040273 	add	x19, x19, #0x100
     1c8:	f9400660 	ldr	x0, [x19,#8]
     1cc:	94000557 	bl	1728 <TEE_CloseTASession>
/home/lagadanu/Desktop/qemu/out-br/build/optee_test-1.0/ta/sdp_basic/ta_sdp_basic.c:326
     1d0:	f900067f 	str	xzr, [x19,#8]
/home/lagadanu/Desktop/qemu/out-br/build/optee_test-1.0/ta/sdp_basic/ta_sdp_basic.c:329
     1d4:	2a1503e0 	mov	w0, w21
     1d8:	a94153f3 	ldp	x19, x20, [sp,#16]
     1dc:	a9425bf5 	ldp	x21, x22, [sp,#32]
     1e0:	a94363f7 	ldp	x23, x24, [sp,#48]
     1e4:	a9446bf9 	ldp	x25, x26, [sp,#64]
     1e8:	a8c77bfd 	ldp	x29, x30, [sp],#112
     1ec:	d65f03c0 	ret
/home/lagadanu/Desktop/qemu/out-br/build/optee_test-1.0/ta/sdp_basic/ta_sdp_basic.c:317
     1f0:	91040260 	add	x0, x19, #0x100
     1f4:	aa1603e5 	mov	x5, x22
     1f8:	aa1a03e4 	mov	x4, x26
     1fc:	2a1903e3 	mov	w3, w25
     200:	2a1803e2 	mov	w2, w24
     204:	52800001 	mov	w1, #0x0                   	// #0
     208:	f9400400 	ldr	x0, [x0,#8]
     20c:	94000551 	bl	1750 <TEE_InvokeTACommand>
     210:	2a0003f5 	mov	w21, w0
/home/lagadanu/Desktop/qemu/out-br/build/optee_test-1.0/ta/sdp_basic/ta_sdp_basic.c:318
     214:	34fffe00 	cbz	w0, 1d4 <cmd_invoke_pta+0xa8>
/home/lagadanu/Desktop/qemu/out-br/build/optee_test-1.0/ta/sdp_basic/ta_sdp_basic.c:319
     218:	b9405fa6 	ldr	w6, [x29,#92]
     21c:	911c2280 	add	x0, x20, #0x708
     220:	2a1503e5 	mov	w5, w21
     224:	90000044 	adrp	x4, 8000 <PRIME_TABLE+0x7d8>
     228:	52800023 	mov	w3, #0x1                   	// #1
     22c:	9119cc84 	add	x4, x4, #0x673
     230:	52800022 	mov	w2, #0x1                   	// #1
     234:	52802801 	mov	w1, #0x140                 	// #320
     238:	9100c000 	add	x0, x0, #0x30
     23c:	940000c1 	bl	540 <trace_printf>
     240:	17ffffe1 	b	1c4 <cmd_invoke_pta+0x98>

0000000000000244 <TA_CreateEntryPoint>:
TA_CreateEntryPoint():
/home/lagadanu/Desktop/qemu/out-br/build/optee_test-1.0/ta/sdp_basic/ta_sdp_basic.c:334
     244:	52800000 	mov	w0, #0x0                   	// #0
     248:	d65f03c0 	ret

000000000000024c <TA_DestroyEntryPoint>:
TA_DestroyEntryPoint():
/home/lagadanu/Desktop/qemu/out-br/build/optee_test-1.0/ta/sdp_basic/ta_sdp_basic.c:337
     24c:	d65f03c0 	ret

0000000000000250 <TA_OpenSessionEntryPoint>:
TA_OpenSessionEntryPoint():
/home/lagadanu/Desktop/qemu/out-br/build/optee_test-1.0/ta/sdp_basic/ta_sdp_basic.c:348
     250:	52800000 	mov	w0, #0x0                   	// #0
     254:	d65f03c0 	ret

0000000000000258 <TA_CloseSessionEntryPoint>:
TA_CloseSessionEntryPoint():
/home/lagadanu/Desktop/qemu/out-br/build/optee_test-1.0/ta/sdp_basic/ta_sdp_basic.c:351
     258:	d65f03c0 	ret

000000000000025c <TA_InvokeCommandEntryPoint>:
TA_InvokeCommandEntryPoint():
/home/lagadanu/Desktop/qemu/out-br/build/optee_test-1.0/ta/sdp_basic/ta_sdp_basic.c:358
     25c:	a9bd7bfd 	stp	x29, x30, [sp,#-48]!
/home/lagadanu/Desktop/qemu/out-br/build/optee_test-1.0/ta/sdp_basic/ta_sdp_basic.c:361
     260:	7100203f 	cmp	w1, #0x8
/home/lagadanu/Desktop/qemu/out-br/build/optee_test-1.0/ta/sdp_basic/ta_sdp_basic.c:358
     264:	910003fd 	mov	x29, sp
     268:	a90153f3 	stp	x19, x20, [sp,#16]
     26c:	f90013f5 	str	x21, [sp,#32]
/home/lagadanu/Desktop/qemu/out-br/build/optee_test-1.0/ta/sdp_basic/ta_sdp_basic.c:361
     270:	540002a8 	b.hi	2c4 <TA_InvokeCommandEntryPoint+0x68>
     274:	2a0203e0 	mov	w0, w2
     278:	aa0303f3 	mov	x19, x3
     27c:	f0000022 	adrp	x2, 7000 <memalign+0x2bc>
     280:	911bc042 	add	x2, x2, #0x6f0
     284:	78615841 	ldrh	w1, [x2,w1,uxtw #1]
     288:	10000062 	adr	x2, 294 <TA_InvokeCommandEntryPoint+0x38>
     28c:	8b21a841 	add	x1, x2, w1, sxth #2
     290:	d61f0020 	br	x1
cmd_inject():
/home/lagadanu/Desktop/qemu/out-br/build/optee_test-1.0/ta/sdp_basic/ta_sdp_basic.c:52
     294:	7101941f 	cmp	w0, #0x65
     298:	540001a0 	b.eq	2cc <TA_InvokeCommandEntryPoint+0x70>
/home/lagadanu/Desktop/qemu/out-br/build/optee_test-1.0/ta/sdp_basic/ta_sdp_basic.c:56
     29c:	2a0003e5 	mov	w5, w0
     2a0:	f0000020 	adrp	x0, 7000 <memalign+0x2bc>
     2a4:	911c2000 	add	x0, x0, #0x708
     2a8:	90000044 	adrp	x4, 8000 <PRIME_TABLE+0x7d8>
     2ac:	52800023 	mov	w3, #0x1                   	// #1
     2b0:	911aa084 	add	x4, x4, #0x6a8
     2b4:	52800022 	mov	w2, #0x1                   	// #1
     2b8:	52800701 	mov	w1, #0x38                  	// #56
     2bc:	91010000 	add	x0, x0, #0x40
     2c0:	940000a0 	bl	540 <trace_printf>
TA_InvokeCommandEntryPoint():
/home/lagadanu/Desktop/qemu/out-br/build/optee_test-1.0/ta/sdp_basic/ta_sdp_basic.c:384
     2c4:	129fff34 	mov	w20, #0xffff0006            	// #-65530
     2c8:	14000017 	b	324 <TA_InvokeCommandEntryPoint+0xc8>
cmd_inject():
/home/lagadanu/Desktop/qemu/out-br/build/optee_test-1.0/ta/sdp_basic/ta_sdp_basic.c:60
     2cc:	91004075 	add	x21, x3, #0x10
     2d0:	b9400862 	ldr	w2, [x3,#8]
     2d4:	b9400aa0 	ldr	w0, [x21,#8]
/home/lagadanu/Desktop/qemu/out-br/build/optee_test-1.0/ta/sdp_basic/ta_sdp_basic.c:61
     2d8:	129ffdf4 	mov	w20, #0xffff0010            	// #-65520
/home/lagadanu/Desktop/qemu/out-br/build/optee_test-1.0/ta/sdp_basic/ta_sdp_basic.c:60
     2dc:	6b02001f 	cmp	w0, w2
     2e0:	54000223 	b.cc	324 <TA_InvokeCommandEntryPoint+0xc8>
/home/lagadanu/Desktop/qemu/out-br/build/optee_test-1.0/ta/sdp_basic/ta_sdp_basic.c:71
     2e4:	f9400061 	ldr	x1, [x3]
     2e8:	528000a0 	mov	w0, #0x5                   	// #5
     2ec:	72a20000 	movk	w0, #0x1000, lsl #16
     2f0:	94000566 	bl	1888 <TEE_CheckMemoryAccessRights>
     2f4:	2a0003f4 	mov	w20, w0
/home/lagadanu/Desktop/qemu/out-br/build/optee_test-1.0/ta/sdp_basic/ta_sdp_basic.c:76
     2f8:	34000200 	cbz	w0, 338 <TA_InvokeCommandEntryPoint+0xdc>
/home/lagadanu/Desktop/qemu/out-br/build/optee_test-1.0/ta/sdp_basic/ta_sdp_basic.c:77
     2fc:	90000044 	adrp	x4, 8000 <PRIME_TABLE+0x7d8>
     300:	2a0003e5 	mov	w5, w0
     304:	911ae884 	add	x4, x4, #0x6ba
     308:	52800023 	mov	w3, #0x1                   	// #1
     30c:	52800022 	mov	w2, #0x1                   	// #1
     310:	528009a1 	mov	w1, #0x4d                  	// #77
/home/lagadanu/Desktop/qemu/out-br/build/optee_test-1.0/ta/sdp_basic/ta_sdp_basic.c:87
     314:	f0000020 	adrp	x0, 7000 <memalign+0x2bc>
     318:	911c2000 	add	x0, x0, #0x708
     31c:	91010000 	add	x0, x0, #0x40
     320:	94000088 	bl	540 <trace_printf>
TA_InvokeCommandEntryPoint():
/home/lagadanu/Desktop/qemu/out-br/build/optee_test-1.0/ta/sdp_basic/ta_sdp_basic.c:386
     324:	2a1403e0 	mov	w0, w20
     328:	f94013f5 	ldr	x21, [sp,#32]
     32c:	a94153f3 	ldp	x19, x20, [sp,#16]
     330:	a8c37bfd 	ldp	x29, x30, [sp],#48
     334:	d65f03c0 	ret
cmd_inject():
/home/lagadanu/Desktop/qemu/out-br/build/optee_test-1.0/ta/sdp_basic/ta_sdp_basic.c:81
     338:	b9400aa2 	ldr	w2, [x21,#8]
     33c:	528000c0 	mov	w0, #0x6                   	// #6
     340:	f9400a61 	ldr	x1, [x19,#16]
     344:	72a40000 	movk	w0, #0x2000, lsl #16
     348:	94000550 	bl	1888 <TEE_CheckMemoryAccessRights>
     34c:	2a0003f4 	mov	w20, w0
/home/lagadanu/Desktop/qemu/out-br/build/optee_test-1.0/ta/sdp_basic/ta_sdp_basic.c:86
     350:	34000100 	cbz	w0, 370 <TA_InvokeCommandEntryPoint+0x114>
/home/lagadanu/Desktop/qemu/out-br/build/optee_test-1.0/ta/sdp_basic/ta_sdp_basic.c:87
     354:	90000044 	adrp	x4, 8000 <PRIME_TABLE+0x7d8>
     358:	2a0003e5 	mov	w5, w0
     35c:	911b9884 	add	x4, x4, #0x6e6
     360:	52800023 	mov	w3, #0x1                   	// #1
     364:	52800022 	mov	w2, #0x1                   	// #1
     368:	52800ae1 	mov	w1, #0x57                  	// #87
     36c:	17ffffea 	b	314 <TA_InvokeCommandEntryPoint+0xb8>
/home/lagadanu/Desktop/qemu/out-br/build/optee_test-1.0/ta/sdp_basic/ta_sdp_basic.c:110
     370:	b9400aa2 	ldr	w2, [x21,#8]
cmd_dump():
/home/lagadanu/Desktop/qemu/out-br/build/optee_test-1.0/ta/sdp_basic/ta_sdp_basic.c:260
     374:	f9400261 	ldr	x1, [x19]
     378:	f9400a60 	ldr	x0, [x19,#16]
     37c:	9400054e 	bl	18b4 <TEE_MemMove>
     380:	17ffffe9 	b	324 <TA_InvokeCommandEntryPoint+0xc8>
cmd_transform():
/home/lagadanu/Desktop/qemu/out-br/build/optee_test-1.0/ta/sdp_basic/ta_sdp_basic.c:139
     384:	129fff34 	mov	w20, #0xffff0006            	// #-65530
/home/lagadanu/Desktop/qemu/out-br/build/optee_test-1.0/ta/sdp_basic/ta_sdp_basic.c:135
     388:	71001c1f 	cmp	w0, #0x7
     38c:	54fffcc1 	b.ne	324 <TA_InvokeCommandEntryPoint+0xc8>
/home/lagadanu/Desktop/qemu/out-br/build/optee_test-1.0/ta/sdp_basic/ta_sdp_basic.c:149
     390:	b9400862 	ldr	w2, [x3,#8]
     394:	72a40000 	movk	w0, #0x2000, lsl #16
     398:	f9400061 	ldr	x1, [x3]
     39c:	9400053b 	bl	1888 <TEE_CheckMemoryAccessRights>
     3a0:	2a0003f4 	mov	w20, w0
/home/lagadanu/Desktop/qemu/out-br/build/optee_test-1.0/ta/sdp_basic/ta_sdp_basic.c:155
     3a4:	34000160 	cbz	w0, 3d0 <TA_InvokeCommandEntryPoint+0x174>
/home/lagadanu/Desktop/qemu/out-br/build/optee_test-1.0/ta/sdp_basic/ta_sdp_basic.c:156
     3a8:	2a0003e5 	mov	w5, w0
     3ac:	f0000020 	adrp	x0, 7000 <memalign+0x2bc>
     3b0:	911c2000 	add	x0, x0, #0x708
     3b4:	90000044 	adrp	x4, 8000 <PRIME_TABLE+0x7d8>
     3b8:	52800023 	mov	w3, #0x1                   	// #1
     3bc:	911b9884 	add	x4, x4, #0x6e6
     3c0:	52800022 	mov	w2, #0x1                   	// #1
     3c4:	52801381 	mov	w1, #0x9c                  	// #156
     3c8:	91014000 	add	x0, x0, #0x50
     3cc:	17ffffd5 	b	320 <TA_InvokeCommandEntryPoint+0xc4>
/home/lagadanu/Desktop/qemu/out-br/build/optee_test-1.0/ta/sdp_basic/ta_sdp_basic.c:180
     3d0:	b9400a61 	ldr	w1, [x19,#8]
/home/lagadanu/Desktop/qemu/out-br/build/optee_test-1.0/ta/sdp_basic/ta_sdp_basic.c:179
     3d4:	f9400260 	ldr	x0, [x19]
     3d8:	8b010001 	add	x1, x0, x1
/home/lagadanu/Desktop/qemu/out-br/build/optee_test-1.0/ta/sdp_basic/ta_sdp_basic.c:181
     3dc:	eb01001f 	cmp	x0, x1
     3e0:	54fffa20 	b.eq	324 <TA_InvokeCommandEntryPoint+0xc8>
/home/lagadanu/Desktop/qemu/out-br/build/optee_test-1.0/ta/sdp_basic/ta_sdp_basic.c:182
     3e4:	39400002 	ldrb	w2, [x0]
     3e8:	4b0203e2 	neg	w2, w2
     3ec:	38001402 	strb	w2, [x0],#1
     3f0:	17fffffb 	b	3dc <TA_InvokeCommandEntryPoint+0x180>
/home/lagadanu/Desktop/qemu/out-br/build/optee_test-1.0/ta/sdp_basic/ta_sdp_basic.c:139
     3f4:	129fff34 	mov	w20, #0xffff0006            	// #-65530
cmd_dump():
/home/lagadanu/Desktop/qemu/out-br/build/optee_test-1.0/ta/sdp_basic/ta_sdp_basic.c:205
     3f8:	7101941f 	cmp	w0, #0x65
     3fc:	54fff941 	b.ne	324 <TA_InvokeCommandEntryPoint+0xc8>
/home/lagadanu/Desktop/qemu/out-br/build/optee_test-1.0/ta/sdp_basic/ta_sdp_basic.c:211
     400:	b9400860 	ldr	w0, [x3,#8]
cmd_inject():
/home/lagadanu/Desktop/qemu/out-br/build/optee_test-1.0/ta/sdp_basic/ta_sdp_basic.c:61
     404:	129ffdf4 	mov	w20, #0xffff0010            	// #-65520
cmd_dump():
/home/lagadanu/Desktop/qemu/out-br/build/optee_test-1.0/ta/sdp_basic/ta_sdp_basic.c:211
     408:	b9401862 	ldr	w2, [x3,#24]
     40c:	6b00005f 	cmp	w2, w0
     410:	54fff8a3 	b.cc	324 <TA_InvokeCommandEntryPoint+0xc8>
/home/lagadanu/Desktop/qemu/out-br/build/optee_test-1.0/ta/sdp_basic/ta_sdp_basic.c:222
     414:	f9400861 	ldr	x1, [x3,#16]
     418:	528000c0 	mov	w0, #0x6                   	// #6
     41c:	72a20000 	movk	w0, #0x1000, lsl #16
     420:	9400051a 	bl	1888 <TEE_CheckMemoryAccessRights>
     424:	2a0003f4 	mov	w20, w0
/home/lagadanu/Desktop/qemu/out-br/build/optee_test-1.0/ta/sdp_basic/ta_sdp_basic.c:227
     428:	34000160 	cbz	w0, 454 <TA_InvokeCommandEntryPoint+0x1f8>
/home/lagadanu/Desktop/qemu/out-br/build/optee_test-1.0/ta/sdp_basic/ta_sdp_basic.c:228
     42c:	90000044 	adrp	x4, 8000 <PRIME_TABLE+0x7d8>
     430:	2a0003e5 	mov	w5, w0
     434:	911ae884 	add	x4, x4, #0x6ba
     438:	52800023 	mov	w3, #0x1                   	// #1
     43c:	52800022 	mov	w2, #0x1                   	// #1
     440:	52801c81 	mov	w1, #0xe4                  	// #228
/home/lagadanu/Desktop/qemu/out-br/build/optee_test-1.0/ta/sdp_basic/ta_sdp_basic.c:238
     444:	f0000020 	adrp	x0, 7000 <memalign+0x2bc>
     448:	911c2000 	add	x0, x0, #0x708
     44c:	91018000 	add	x0, x0, #0x60
     450:	17ffffb4 	b	320 <TA_InvokeCommandEntryPoint+0xc4>
/home/lagadanu/Desktop/qemu/out-br/build/optee_test-1.0/ta/sdp_basic/ta_sdp_basic.c:232
     454:	b9400a62 	ldr	w2, [x19,#8]
     458:	528000a0 	mov	w0, #0x5                   	// #5
     45c:	f9400261 	ldr	x1, [x19]
     460:	72a40000 	movk	w0, #0x2000, lsl #16
     464:	94000509 	bl	1888 <TEE_CheckMemoryAccessRights>
     468:	2a0003f4 	mov	w20, w0
/home/lagadanu/Desktop/qemu/out-br/build/optee_test-1.0/ta/sdp_basic/ta_sdp_basic.c:237
     46c:	34000100 	cbz	w0, 48c <TA_InvokeCommandEntryPoint+0x230>
/home/lagadanu/Desktop/qemu/out-br/build/optee_test-1.0/ta/sdp_basic/ta_sdp_basic.c:238
     470:	90000044 	adrp	x4, 8000 <PRIME_TABLE+0x7d8>
     474:	2a0003e5 	mov	w5, w0
     478:	911b9884 	add	x4, x4, #0x6e6
     47c:	52800023 	mov	w3, #0x1                   	// #1
     480:	52800022 	mov	w2, #0x1                   	// #1
     484:	52801dc1 	mov	w1, #0xee                  	// #238
     488:	17ffffef 	b	444 <TA_InvokeCommandEntryPoint+0x1e8>
/home/lagadanu/Desktop/qemu/out-br/build/optee_test-1.0/ta/sdp_basic/ta_sdp_basic.c:260
     48c:	b9400a62 	ldr	w2, [x19,#8]
     490:	17ffffb9 	b	374 <TA_InvokeCommandEntryPoint+0x118>
TA_InvokeCommandEntryPoint():
/home/lagadanu/Desktop/qemu/out-br/build/optee_test-1.0/ta/sdp_basic/ta_sdp_basic.c:370
     494:	52800002 	mov	w2, #0x0                   	// #0
/home/lagadanu/Desktop/qemu/out-br/build/optee_test-1.0/ta/sdp_basic/ta_sdp_basic.c:372
     498:	aa1303e1 	mov	x1, x19
/home/lagadanu/Desktop/qemu/out-br/build/optee_test-1.0/ta/sdp_basic/ta_sdp_basic.c:386
     49c:	f94013f5 	ldr	x21, [sp,#32]
     4a0:	a94153f3 	ldp	x19, x20, [sp,#16]
     4a4:	a8c37bfd 	ldp	x29, x30, [sp],#48
/home/lagadanu/Desktop/qemu/out-br/build/optee_test-1.0/ta/sdp_basic/ta_sdp_basic.c:372
     4a8:	17fffede 	b	20 <cmd_invoke>
     4ac:	52800022 	mov	w2, #0x1                   	// #1
     4b0:	17fffffa 	b	498 <TA_InvokeCommandEntryPoint+0x23c>
/home/lagadanu/Desktop/qemu/out-br/build/optee_test-1.0/ta/sdp_basic/ta_sdp_basic.c:374
     4b4:	52800042 	mov	w2, #0x2                   	// #2
     4b8:	17fffff8 	b	498 <TA_InvokeCommandEntryPoint+0x23c>
/home/lagadanu/Desktop/qemu/out-br/build/optee_test-1.0/ta/sdp_basic/ta_sdp_basic.c:377
     4bc:	52800062 	mov	w2, #0x3                   	// #3
/home/lagadanu/Desktop/qemu/out-br/build/optee_test-1.0/ta/sdp_basic/ta_sdp_basic.c:381
     4c0:	aa1303e1 	mov	x1, x19
/home/lagadanu/Desktop/qemu/out-br/build/optee_test-1.0/ta/sdp_basic/ta_sdp_basic.c:386
     4c4:	f94013f5 	ldr	x21, [sp,#32]
     4c8:	a94153f3 	ldp	x19, x20, [sp,#16]
     4cc:	a8c37bfd 	ldp	x29, x30, [sp],#48
/home/lagadanu/Desktop/qemu/out-br/build/optee_test-1.0/ta/sdp_basic/ta_sdp_basic.c:381
     4d0:	17ffff17 	b	12c <cmd_invoke_pta>
/home/lagadanu/Desktop/qemu/out-br/build/optee_test-1.0/ta/sdp_basic/ta_sdp_basic.c:379
     4d4:	52800082 	mov	w2, #0x4                   	// #4
     4d8:	17fffffa 	b	4c0 <TA_InvokeCommandEntryPoint+0x264>
/home/lagadanu/Desktop/qemu/out-br/build/optee_test-1.0/ta/sdp_basic/ta_sdp_basic.c:381
     4dc:	528000a2 	mov	w2, #0x5                   	// #5
     4e0:	17fffff8 	b	4c0 <TA_InvokeCommandEntryPoint+0x264>

00000000000004e4 <tahead_get_trace_level>:
tahead_get_trace_level():
/home/lagadanu/Desktop/qemu/optee_os/out/arm/export-ta_arm64/src/user_ta_header.c:107
     4e4:	52800040 	mov	w0, #0x2                   	// #2
     4e8:	d65f03c0 	ret

00000000000004ec <memcpy>:
memcpy():
/home/lagadanu/Desktop/qemu/optee_os/lib/libutils/isoc/newlib/memcpy.c:94
     4ec:	d2800003 	mov	x3, #0x0                   	// #0
     4f0:	eb03005f 	cmp	x2, x3
     4f4:	54000041 	b.ne	4fc <memcpy+0x10>
/home/lagadanu/Desktop/qemu/optee_os/lib/libutils/isoc/newlib/memcpy.c:135
     4f8:	d65f03c0 	ret
/home/lagadanu/Desktop/qemu/optee_os/lib/libutils/isoc/newlib/memcpy.c:95
     4fc:	38636824 	ldrb	w4, [x1,x3]
     500:	38236804 	strb	w4, [x0,x3]
     504:	91000463 	add	x3, x3, #0x1
     508:	17fffffa 	b	4f0 <memcpy+0x4>

000000000000050c <trace_set_level>:
trace_set_level():
/home/lagadanu/Desktop/qemu/optee_os/lib/libutils/ext/trace.c:26
     50c:	51000401 	sub	w1, w0, #0x1
     510:	71000c3f 	cmp	w1, #0x3
     514:	90000041 	adrp	x1, 8000 <PRIME_TABLE+0x7d8>
     518:	54000088 	b.hi	528 <trace_set_level+0x1c>
/home/lagadanu/Desktop/qemu/optee_os/lib/libutils/ext/trace.c:29
     51c:	f9479821 	ldr	x1, [x1,#3888]
     520:	b9000020 	str	w0, [x1]
     524:	d65f03c0 	ret
     528:	52800080 	mov	w0, #0x4                   	// #4
     52c:	17fffffc 	b	51c <trace_set_level+0x10>

0000000000000530 <trace_get_level>:
trace_get_level():
/home/lagadanu/Desktop/qemu/optee_os/lib/libutils/ext/trace.c:35
     530:	90000040 	adrp	x0, 8000 <PRIME_TABLE+0x7d8>
     534:	f9479800 	ldr	x0, [x0,#3888]
     538:	b9400000 	ldr	w0, [x0]
     53c:	d65f03c0 	ret

0000000000000540 <trace_printf>:
trace_printf():
/home/lagadanu/Desktop/qemu/optee_os/lib/libutils/ext/trace.c:97
     540:	d108c3ff 	sub	sp, sp, #0x230
     544:	a9007bfd 	stp	x29, x30, [sp]
     548:	910003fd 	mov	x29, sp
     54c:	f9010fa5 	str	x5, [x29,#536]
     550:	910403a5 	add	x5, x29, #0x100
     554:	a9046bf9 	stp	x25, x26, [sp,#64]
/home/lagadanu/Desktop/qemu/optee_os/lib/libutils/ext/trace.c:103
     558:	72001c79 	ands	w25, w3, #0xff
/home/lagadanu/Desktop/qemu/optee_os/lib/libutils/ext/trace.c:97
     55c:	a90153f3 	stp	x19, x20, [sp,#16]
     560:	a9025bf5 	stp	x21, x22, [sp,#32]
     564:	a90363f7 	stp	x23, x24, [sp,#48]
     568:	f90113a6 	str	x6, [x29,#544]
     56c:	f90117a7 	str	x7, [x29,#552]
     570:	3d8024a0 	str	q0, [x5,#144]
     574:	3d8028a1 	str	q1, [x5,#160]
     578:	3d802ca2 	str	q2, [x5,#176]
     57c:	3d8030a3 	str	q3, [x5,#192]
     580:	3d8034a4 	str	q4, [x5,#208]
     584:	3d8038a5 	str	q5, [x5,#224]
     588:	3d803ca6 	str	q6, [x5,#240]
     58c:	910803a5 	add	x5, x29, #0x200
     590:	3d8000a7 	str	q7, [x5]
/home/lagadanu/Desktop/qemu/optee_os/lib/libutils/ext/trace.c:103
     594:	540008a0 	b.eq	6a8 <trace_printf+0x168>
/home/lagadanu/Desktop/qemu/optee_os/lib/libutils/ext/trace.c:103 (discriminator 1)
     598:	90000043 	adrp	x3, 8000 <PRIME_TABLE+0x7d8>
     59c:	f9479863 	ldr	x3, [x3,#3888]
     5a0:	b9400063 	ldr	w3, [x3]
     5a4:	6b02007f 	cmp	w3, w2
     5a8:	5400072b 	b.lt	68c <trace_printf+0x14c>
trace_level_to_string():
/home/lagadanu/Desktop/qemu/optee_os/lib/libutils/ext/trace.c:52
     5ac:	51000443 	sub	w3, w2, #0x1
     5b0:	71000c7f 	cmp	w3, #0x3
/home/lagadanu/Desktop/qemu/optee_os/lib/libutils/ext/trace.c:55
     5b4:	f0000023 	adrp	x3, 7000 <memalign+0x2bc>
/home/lagadanu/Desktop/qemu/optee_os/lib/libutils/ext/trace.c:52
     5b8:	1a9f9045 	csel	w5, w2, wzr, ls
/home/lagadanu/Desktop/qemu/optee_os/lib/libutils/ext/trace.c:55
     5bc:	911e8063 	add	x3, x3, #0x7a0
     5c0:	3865c863 	ldrb	w3, [x3,w5,sxtw]
trace_printf():
/home/lagadanu/Desktop/qemu/optee_os/lib/libutils/ext/trace.c:107
     5c4:	910243b4 	add	x20, x29, #0x90
     5c8:	2a0203f3 	mov	w19, w2
     5cc:	2a0103f8 	mov	w24, w1
     5d0:	aa0003f6 	mov	x22, x0
     5d4:	90000042 	adrp	x2, 8000 <PRIME_TABLE+0x7d8>
     5d8:	aa0403f7 	mov	x23, x4
     5dc:	911f0842 	add	x2, x2, #0x7c2
     5e0:	d2802001 	mov	x1, #0x100                 	// #256
     5e4:	aa1403e0 	mov	x0, x20
     5e8:	94000366 	bl	1380 <snprintk>
/home/lagadanu/Desktop/qemu/optee_os/lib/libutils/ext/trace.c:109
     5ec:	37f80500 	tbnz	w0, #31, 68c <trace_printf+0x14c>
/home/lagadanu/Desktop/qemu/optee_os/lib/libutils/ext/trace.c:114
     5f0:	90000043 	adrp	x3, 8000 <PRIME_TABLE+0x7d8>
/home/lagadanu/Desktop/qemu/optee_os/lib/libutils/ext/trace.c:111
     5f4:	93407c15 	sxtw	x21, w0
/home/lagadanu/Desktop/qemu/optee_os/lib/libutils/ext/trace.c:114
     5f8:	d280201a 	mov	x26, #0x100                 	// #256
     5fc:	90000042 	adrp	x2, 8000 <PRIME_TABLE+0x7d8>
     600:	f9479c63 	ldr	x3, [x3,#3896]
     604:	911f1842 	add	x2, x2, #0x7c6
     608:	cb150341 	sub	x1, x26, x21
     60c:	8b150280 	add	x0, x20, x21
     610:	9400035c 	bl	1380 <snprintk>
/home/lagadanu/Desktop/qemu/optee_os/lib/libutils/ext/trace.c:116
     614:	37f803c0 	tbnz	w0, #31, 68c <trace_printf+0x14c>
/home/lagadanu/Desktop/qemu/optee_os/lib/libutils/ext/trace.c:118
     618:	8b20c2b5 	add	x21, x21, w0, sxtw
/home/lagadanu/Desktop/qemu/optee_os/lib/libutils/ext/trace.c:120
     61c:	340005d9 	cbz	w25, 6d4 <trace_printf+0x194>
/home/lagadanu/Desktop/qemu/optee_os/lib/libutils/ext/trace.c:120 (discriminator 1)
     620:	52800342 	mov	w2, #0x1a                  	// #26
     624:	1ad32440 	lsr	w0, w2, w19
     628:	36000560 	tbz	w0, #0, 6d4 <trace_printf+0x194>
/home/lagadanu/Desktop/qemu/optee_os/lib/libutils/ext/trace.c:122
     62c:	8b150299 	add	x25, x20, x21
     630:	cb15035a 	sub	x26, x26, x21
print_thread_id():
/home/lagadanu/Desktop/qemu/optee_os/lib/libutils/ext/trace.c:65
     634:	9400038c 	bl	1464 <trace_ext_get_thread_id>
/home/lagadanu/Desktop/qemu/optee_os/lib/libutils/ext/trace.c:67
     638:	37f803c0 	tbnz	w0, #31, 6b0 <trace_printf+0x170>
/home/lagadanu/Desktop/qemu/optee_os/lib/libutils/ext/trace.c:68
     63c:	2a0003e4 	mov	w4, w0
     640:	90000042 	adrp	x2, 8000 <PRIME_TABLE+0x7d8>
     644:	52800023 	mov	w3, #0x1                   	// #1
     648:	911f2842 	add	x2, x2, #0x7ca
     64c:	aa1a03e1 	mov	x1, x26
     650:	aa1903e0 	mov	x0, x25
     654:	9400034b 	bl	1380 <snprintk>
trace_printf():
/home/lagadanu/Desktop/qemu/optee_os/lib/libutils/ext/trace.c:129
     658:	37f801a0 	tbnz	w0, #31, 68c <trace_printf+0x14c>
/home/lagadanu/Desktop/qemu/optee_os/lib/libutils/ext/trace.c:131
     65c:	8b20c2b3 	add	x19, x21, w0, sxtw
/home/lagadanu/Desktop/qemu/optee_os/lib/libutils/ext/trace.c:133
     660:	b4000476 	cbz	x22, 6ec <trace_printf+0x1ac>
/home/lagadanu/Desktop/qemu/optee_os/lib/libutils/ext/trace.c:134
     664:	8b130280 	add	x0, x20, x19
     668:	2a1803e4 	mov	w4, w24
     66c:	aa1603e3 	mov	x3, x22
     670:	90000042 	adrp	x2, 8000 <PRIME_TABLE+0x7d8>
     674:	d2802001 	mov	x1, #0x100                 	// #256
     678:	911f5442 	add	x2, x2, #0x7d5
     67c:	cb130021 	sub	x1, x1, x19
     680:	94000340 	bl	1380 <snprintk>
/home/lagadanu/Desktop/qemu/optee_os/lib/libutils/ext/trace.c:138
     684:	8b20c273 	add	x19, x19, w0, sxtw
/home/lagadanu/Desktop/qemu/optee_os/lib/libutils/ext/trace.c:136
     688:	36f80320 	tbz	w0, #31, 6ec <trace_printf+0x1ac>
/home/lagadanu/Desktop/qemu/optee_os/lib/libutils/ext/trace.c:164
     68c:	a94153f3 	ldp	x19, x20, [sp,#16]
     690:	a9425bf5 	ldp	x21, x22, [sp,#32]
     694:	a94363f7 	ldp	x23, x24, [sp,#48]
     698:	a9446bf9 	ldp	x25, x26, [sp,#64]
     69c:	a9407bfd 	ldp	x29, x30, [sp]
     6a0:	9108c3ff 	add	sp, sp, #0x230
     6a4:	d65f03c0 	ret
trace_level_to_string():
/home/lagadanu/Desktop/qemu/optee_os/lib/libutils/ext/trace.c:50
     6a8:	528009a3 	mov	w3, #0x4d                  	// #77
     6ac:	17ffffc6 	b	5c4 <trace_printf+0x84>
print_thread_id():
/home/lagadanu/Desktop/qemu/optee_os/lib/libutils/ext/trace.c:70
     6b0:	90000044 	adrp	x4, 8000 <PRIME_TABLE+0x7d8>
     6b4:	52800023 	mov	w3, #0x1                   	// #1
     6b8:	9119c884 	add	x4, x4, #0x672
     6bc:	90000042 	adrp	x2, 8000 <PRIME_TABLE+0x7d8>
     6c0:	aa1a03e1 	mov	x1, x26
     6c4:	911f4042 	add	x2, x2, #0x7d0
     6c8:	aa1903e0 	mov	x0, x25
     6cc:	9400032d 	bl	1380 <snprintk>
     6d0:	17ffffe2 	b	658 <trace_printf+0x118>
trace_printf():
/home/lagadanu/Desktop/qemu/optee_os/lib/libutils/ext/trace.c:142
     6d4:	f103fabf 	cmp	x21, #0xfe
     6d8:	54fffda8 	b.hi	68c <trace_printf+0x14c>
/home/lagadanu/Desktop/qemu/optee_os/lib/libutils/ext/trace.c:144
     6dc:	910006b3 	add	x19, x21, #0x1
     6e0:	52800400 	mov	w0, #0x20                  	// #32
     6e4:	38356a80 	strb	w0, [x20,x21]
/home/lagadanu/Desktop/qemu/optee_os/lib/libutils/ext/trace.c:145
     6e8:	38336a9f 	strb	wzr, [x20,x19]
/home/lagadanu/Desktop/qemu/optee_os/lib/libutils/ext/trace.c:148
     6ec:	9108c3a0 	add	x0, x29, #0x230
     6f0:	a90703a0 	stp	x0, x0, [x29,#112]
     6f4:	910843a0 	add	x0, x29, #0x210
     6f8:	f90043a0 	str	x0, [x29,#128]
     6fc:	128002e0 	mov	w0, #0xffffffe8            	// #-24
     700:	b9008ba0 	str	w0, [x29,#136]
     704:	12800fe0 	mov	w0, #0xffffff80            	// #-128
     708:	b9008fa0 	str	w0, [x29,#140]
/home/lagadanu/Desktop/qemu/optee_os/lib/libutils/ext/trace.c:149
     70c:	a94707a0 	ldp	x0, x1, [x29,#112]
     710:	a90507a0 	stp	x0, x1, [x29,#80]
     714:	a94807a0 	ldp	x0, x1, [x29,#128]
     718:	a90607a0 	stp	x0, x1, [x29,#96]
     71c:	d2802001 	mov	x1, #0x100                 	// #256
     720:	cb130021 	sub	x1, x1, x19
     724:	8b130280 	add	x0, x20, x19
     728:	910143a3 	add	x3, x29, #0x50
     72c:	aa1703e2 	mov	x2, x23
     730:	940002ff 	bl	132c <vsnprintk>
/home/lagadanu/Desktop/qemu/optee_os/lib/libutils/ext/trace.c:152
     734:	7100001f 	cmp	w0, #0x0
     738:	8b20c261 	add	x1, x19, w0, sxtw
     73c:	9a93c033 	csel	x19, x1, x19, gt
     740:	d2801fc0 	mov	x0, #0xfe                  	// #254
     744:	f103fa7f 	cmp	x19, #0xfe
     748:	9a809273 	csel	x19, x19, x0, ls
/home/lagadanu/Desktop/qemu/optee_os/lib/libutils/ext/trace.c:157
     74c:	52800140 	mov	w0, #0xa                   	// #10
     750:	38336a80 	strb	w0, [x20,x19]
/home/lagadanu/Desktop/qemu/optee_os/lib/libutils/ext/trace.c:158
     754:	b4000093 	cbz	x19, 764 <trace_printf+0x224>
/home/lagadanu/Desktop/qemu/optee_os/lib/libutils/ext/trace.c:158 (discriminator 1)
     758:	38736a80 	ldrb	w0, [x20,x19]
     75c:	7100281f 	cmp	w0, #0xa
     760:	540000c0 	b.eq	778 <trace_printf+0x238>
/home/lagadanu/Desktop/qemu/optee_os/lib/libutils/ext/trace.c:161
     764:	91024ba0 	add	x0, x29, #0x92
     768:	3833681f 	strb	wzr, [x0,x19]
/home/lagadanu/Desktop/qemu/optee_os/lib/libutils/ext/trace.c:163
     76c:	aa1403e0 	mov	x0, x20
     770:	94000333 	bl	143c <trace_ext_puts>
     774:	17ffffc6 	b	68c <trace_printf+0x14c>
/home/lagadanu/Desktop/qemu/optee_os/lib/libutils/ext/trace.c:159
     778:	d1000673 	sub	x19, x19, #0x1
     77c:	17fffff6 	b	754 <trace_printf+0x214>

0000000000000780 <dhex_dump>:
dhex_dump():
/home/lagadanu/Desktop/qemu/optee_os/lib/libutils/ext/trace.c:275
     780:	d65f03c0 	ret

0000000000000784 <__vsnprintf>:
__vsnprintf():
/home/lagadanu/Desktop/qemu/optee_os/lib/libutils/ext/snprintk.c:137
     784:	d103c3ff 	sub	sp, sp, #0xf0
     788:	a9037bfd 	stp	x29, x30, [sp,#48]
     78c:	9100c3fd 	add	x29, sp, #0x30
     790:	a90803a1 	stp	x1, x0, [x29,#128]
     794:	12001c80 	and	w0, w4, #0xff
     798:	b9007fa0 	str	w0, [x29,#124]
/home/lagadanu/Desktop/qemu/optee_os/lib/libutils/ext/snprintk.c:141
     79c:	f94047a0 	ldr	x0, [x29,#136]
/home/lagadanu/Desktop/qemu/optee_os/lib/libutils/ext/snprintk.c:137
     7a0:	a90453f3 	stp	x19, x20, [sp,#64]
     7a4:	a90873fb 	stp	x27, x28, [sp,#128]
kprintf():
/home/lagadanu/Desktop/qemu/optee_os/lib/libutils/ext/snprintk.c:267
     7a8:	5280001b 	mov	w27, #0x0                   	// #0
     7ac:	b9401874 	ldr	w20, [x3,#24]
     7b0:	a9407073 	ldp	x19, x28, [x3]
__vsnprintf():
/home/lagadanu/Desktop/qemu/optee_os/lib/libutils/ext/snprintk.c:137
     7b4:	a90663f7 	stp	x23, x24, [sp,#96]
     7b8:	a9076bf9 	stp	x25, x26, [sp,#112]
     7bc:	910263b8 	add	x24, x29, #0x98
     7c0:	a9055bf5 	stp	x21, x22, [sp,#80]
     7c4:	aa0203f9 	mov	x25, x2
/home/lagadanu/Desktop/qemu/optee_os/lib/libutils/ext/snprintk.c:141
     7c8:	8b01001a 	add	x26, x0, x1
     7cc:	aa0003f6 	mov	x22, x0
kprintf():
/home/lagadanu/Desktop/qemu/optee_os/lib/libutils/ext/snprintk.c:269
     7d0:	d2800017 	mov	x23, #0x0                   	// #0
/home/lagadanu/Desktop/qemu/optee_os/lib/libutils/ext/snprintk.c:275
     7d4:	39400320 	ldrb	w0, [x25]
     7d8:	7100941f 	cmp	w0, #0x25
     7dc:	7a401804 	ccmp	w0, #0x0, #0x4, ne
     7e0:	540003c1 	b.ne	858 <__vsnprintf+0xd4>
/home/lagadanu/Desktop/qemu/optee_os/lib/libutils/ext/snprintk.c:279
     7e4:	34005780 	cbz	w0, 12d4 <__vsnprintf+0xb50>
/home/lagadanu/Desktop/qemu/optee_os/lib/libutils/ext/snprintk.c:287
     7e8:	12800004 	mov	w4, #0xffffffff            	// #-1
/home/lagadanu/Desktop/qemu/optee_os/lib/libutils/ext/snprintk.c:282
     7ec:	91000722 	add	x2, x25, #0x1
     7f0:	2a1403e0 	mov	w0, w20
/home/lagadanu/Desktop/qemu/optee_os/lib/libutils/ext/snprintk.c:324
     7f4:	2a0403e5 	mov	w5, w4
/home/lagadanu/Desktop/qemu/optee_os/lib/libutils/ext/snprintk.c:288
     7f8:	52800001 	mov	w1, #0x0                   	// #0
/home/lagadanu/Desktop/qemu/optee_os/lib/libutils/ext/snprintk.c:286
     7fc:	5280000a 	mov	w10, #0x0                   	// #0
/home/lagadanu/Desktop/qemu/optee_os/lib/libutils/ext/snprintk.c:284
     800:	52800015 	mov	w21, #0x0                   	// #0
/home/lagadanu/Desktop/qemu/optee_os/lib/libutils/ext/snprintk.c:299
     804:	52800406 	mov	w6, #0x20                  	// #32
/home/lagadanu/Desktop/qemu/optee_os/lib/libutils/ext/snprintk.c:290
     808:	39400048 	ldrb	w8, [x2]
     80c:	91000459 	add	x25, x2, #0x1
/home/lagadanu/Desktop/qemu/optee_os/lib/libutils/ext/snprintk.c:291
     810:	71018d1f 	cmp	w8, #0x63
     814:	54001b80 	b.eq	b84 <__vsnprintf+0x400>
     818:	5400080c 	b.gt	918 <__vsnprintf+0x194>
     81c:	7100c11f 	cmp	w8, #0x30
     820:	54001960 	b.eq	b4c <__vsnprintf+0x3c8>
     824:	540003cc 	b.gt	89c <__vsnprintf+0x118>
     828:	7100a91f 	cmp	w8, #0x2a
     82c:	540012c0 	b.eq	a84 <__vsnprintf+0x300>
     830:	5400024c 	b.gt	878 <__vsnprintf+0xf4>
     834:	7100811f 	cmp	w8, #0x20
     838:	540011c0 	b.eq	a70 <__vsnprintf+0x2ec>
     83c:	71008d1f 	cmp	w8, #0x23
     840:	540011e0 	b.eq	a7c <__vsnprintf+0x2f8>
/home/lagadanu/Desktop/qemu/optee_os/lib/libutils/ext/snprintk.c:541
     844:	34005488 	cbz	w8, 12d4 <__vsnprintf+0xb50>
/home/lagadanu/Desktop/qemu/optee_os/lib/libutils/ext/snprintk.c:545
     848:	910303a3 	add	x3, x29, #0xc0
     84c:	2a0003f4 	mov	w20, w0
     850:	381d8c68 	strb	w8, [x3,#-40]!
     854:	140000d4 	b	ba4 <__vsnprintf+0x420>
/home/lagadanu/Desktop/qemu/optee_os/lib/libutils/ext/snprintk.c:276
     858:	1100077b 	add	w27, w27, #0x1
/home/lagadanu/Desktop/qemu/optee_os/lib/libutils/ext/snprintk.c:277
     85c:	b40000b6 	cbz	x22, 870 <__vsnprintf+0xec>
     860:	eb16035f 	cmp	x26, x22
     864:	54000069 	b.ls	870 <__vsnprintf+0xec>
     868:	390002c0 	strb	w0, [x22]
     86c:	910006d6 	add	x22, x22, #0x1
/home/lagadanu/Desktop/qemu/optee_os/lib/libutils/ext/snprintk.c:275
     870:	91000739 	add	x25, x25, #0x1
     874:	17ffffd8 	b	7d4 <__vsnprintf+0x50>
/home/lagadanu/Desktop/qemu/optee_os/lib/libutils/ext/snprintk.c:291
     878:	7100b51f 	cmp	w8, #0x2d
     87c:	54001120 	b.eq	aa0 <__vsnprintf+0x31c>
     880:	7100b91f 	cmp	w8, #0x2e
     884:	54001280 	b.eq	ad4 <__vsnprintf+0x350>
     888:	7100ad1f 	cmp	w8, #0x2b
     88c:	54fffdc1 	b.ne	844 <__vsnprintf+0xc0>
/home/lagadanu/Desktop/qemu/optee_os/lib/libutils/ext/snprintk.c:319
     890:	2a0803e1 	mov	w1, w8
/home/lagadanu/Desktop/qemu/optee_os/lib/libutils/ext/snprintk.c:322
     894:	aa1903e2 	mov	x2, x25
     898:	17ffffdc 	b	808 <__vsnprintf+0x84>
/home/lagadanu/Desktop/qemu/optee_os/lib/libutils/ext/snprintk.c:291
     89c:	7101111f 	cmp	w8, #0x44
     8a0:	54001920 	b.eq	bc4 <__vsnprintf+0x440>
     8a4:	5400018c 	b.gt	8d4 <__vsnprintf+0x150>
     8a8:	7100e51f 	cmp	w8, #0x39
     8ac:	54fffccc 	b.gt	844 <__vsnprintf+0xc0>
     8b0:	5280000a 	mov	w10, #0x0                   	// #0
/home/lagadanu/Desktop/qemu/optee_os/lib/libutils/ext/snprintk.c:346
     8b4:	5100c108 	sub	w8, w8, #0x30
     8b8:	52800142 	mov	w2, #0xa                   	// #10
     8bc:	1b02214a 	madd	w10, w10, w2, w8
/home/lagadanu/Desktop/qemu/optee_os/lib/libutils/ext/snprintk.c:347
     8c0:	38401728 	ldrb	w8, [x25],#1
/home/lagadanu/Desktop/qemu/optee_os/lib/libutils/ext/snprintk.c:348
     8c4:	5100c102 	sub	w2, w8, #0x30
     8c8:	7100245f 	cmp	w2, #0x9
     8cc:	54ffff49 	b.ls	8b4 <__vsnprintf+0x130>
     8d0:	17ffffd0 	b	810 <__vsnprintf+0x8c>
/home/lagadanu/Desktop/qemu/optee_os/lib/libutils/ext/snprintk.c:291
     8d4:	7101551f 	cmp	w8, #0x55
     8d8:	54003c40 	b.eq	1060 <__vsnprintf+0x8dc>
     8dc:	7101611f 	cmp	w8, #0x58
     8e0:	54000ac0 	b.eq	a38 <__vsnprintf+0x2b4>
     8e4:	71013d1f 	cmp	w8, #0x4f
     8e8:	54fffae1 	b.ne	844 <__vsnprintf+0xc0>
/home/lagadanu/Desktop/qemu/optee_os/lib/libutils/ext/snprintk.c:408
     8ec:	321c02b5 	orr	w21, w21, #0x10
/home/lagadanu/Desktop/qemu/optee_os/lib/libutils/ext/snprintk.c:411
     8f0:	36382695 	tbz	w21, #7, dc0 <__vsnprintf+0x63c>
     8f4:	37f827e0 	tbnz	w0, #31, df0 <__vsnprintf+0x66c>
     8f8:	91003e61 	add	x1, x19, #0xf
     8fc:	2a0003f4 	mov	w20, w0
     900:	aa1303e0 	mov	x0, x19
     904:	927df033 	and	x19, x1, #0xfffffffffffffff8
     908:	f9400005 	ldr	x5, [x0]
/home/lagadanu/Desktop/qemu/optee_os/lib/libutils/ext/snprintk.c:412
     90c:	52800000 	mov	w0, #0x0                   	// #0
/home/lagadanu/Desktop/qemu/optee_os/lib/libutils/ext/snprintk.c:482
     910:	52800001 	mov	w1, #0x0                   	// #0
     914:	140000b8 	b	bf4 <__vsnprintf+0x470>
/home/lagadanu/Desktop/qemu/optee_os/lib/libutils/ext/snprintk.c:291
     918:	7101bd1f 	cmp	w8, #0x6f
     91c:	54fffea0 	b.eq	8f0 <__vsnprintf+0x16c>
     920:	5400024c 	b.gt	968 <__vsnprintf+0x1e4>
     924:	7101a51f 	cmp	w8, #0x69
     928:	54001500 	b.eq	bc8 <__vsnprintf+0x444>
     92c:	540000ec 	b.gt	948 <__vsnprintf+0x1c4>
     930:	7101911f 	cmp	w8, #0x64
     934:	540014a0 	b.eq	bc8 <__vsnprintf+0x444>
     938:	7101a11f 	cmp	w8, #0x68
     93c:	54fff841 	b.ne	844 <__vsnprintf+0xc0>
/home/lagadanu/Desktop/qemu/optee_os/lib/libutils/ext/snprintk.c:352
     940:	321a02b5 	orr	w21, w21, #0x40
     944:	17ffffd4 	b	894 <__vsnprintf+0x110>
/home/lagadanu/Desktop/qemu/optee_os/lib/libutils/ext/snprintk.c:291
     948:	7101b11f 	cmp	w8, #0x6c
     94c:	54001040 	b.eq	b54 <__vsnprintf+0x3d0>
     950:	7101b91f 	cmp	w8, #0x6e
     954:	54001d40 	b.eq	cfc <__vsnprintf+0x578>
     958:	7101a91f 	cmp	w8, #0x6a
     95c:	54fff741 	b.ne	844 <__vsnprintf+0xc0>
/home/lagadanu/Desktop/qemu/optee_os/lib/libutils/ext/snprintk.c:355
     960:	321902b5 	orr	w21, w21, #0x80
     964:	17ffffcc 	b	894 <__vsnprintf+0x110>
/home/lagadanu/Desktop/qemu/optee_os/lib/libutils/ext/snprintk.c:291
     968:	7101d11f 	cmp	w8, #0x74
     96c:	54001040 	b.eq	b74 <__vsnprintf+0x3f0>
     970:	5400046c 	b.gt	9fc <__vsnprintf+0x278>
     974:	7101c51f 	cmp	w8, #0x71
     978:	54000f60 	b.eq	b64 <__vsnprintf+0x3e0>
     97c:	540026cb 	b.lt	e54 <__vsnprintf+0x6d0>
     980:	7101cd1f 	cmp	w8, #0x73
     984:	54fff601 	b.ne	844 <__vsnprintf+0xc0>
/home/lagadanu/Desktop/qemu/optee_os/lib/libutils/ext/snprintk.c:442
     988:	37f83480 	tbnz	w0, #31, 1018 <__vsnprintf+0x894>
     98c:	91003e61 	add	x1, x19, #0xf
     990:	2a0003f4 	mov	w20, w0
     994:	aa1303e0 	mov	x0, x19
     998:	927df033 	and	x19, x1, #0xfffffffffffffff8
     99c:	f9400003 	ldr	x3, [x0]
/home/lagadanu/Desktop/qemu/optee_os/lib/libutils/ext/snprintk.c:444
     9a0:	90000040 	adrp	x0, 8000 <PRIME_TABLE+0x7d8>
     9a4:	911f7000 	add	x0, x0, #0x7dc
     9a8:	f100007f 	cmp	x3, #0x0
     9ac:	9a830003 	csel	x3, x0, x3, eq
/home/lagadanu/Desktop/qemu/optee_os/lib/libutils/ext/snprintk.c:445
     9b0:	3100049f 	cmn	w4, #0x1
     9b4:	540033e0 	b.eq	1030 <__vsnprintf+0x8ac>
/home/lagadanu/Desktop/qemu/optee_os/lib/libutils/ext/snprintk.c:451
     9b8:	93407c82 	sxtw	x2, w4
     9bc:	aa0303e0 	mov	x0, x3
     9c0:	290d2ba8 	stp	w8, w10, [x29,#104]
     9c4:	52800001 	mov	w1, #0x0                   	// #0
     9c8:	f9003ba3 	str	x3, [x29,#112]
     9cc:	b9007ba4 	str	w4, [x29,#120]
     9d0:	94000289 	bl	13f4 <memchr>
/home/lagadanu/Desktop/qemu/optee_os/lib/libutils/ext/snprintk.c:453
     9d4:	294d2ba8 	ldp	w8, w10, [x29,#104]
     9d8:	b9407ba4 	ldr	w4, [x29,#120]
     9dc:	f9403ba3 	ldr	x3, [x29,#112]
     9e0:	b4000080 	cbz	x0, 9f0 <__vsnprintf+0x26c>
/home/lagadanu/Desktop/qemu/optee_os/lib/libutils/ext/snprintk.c:454
     9e4:	cb030000 	sub	x0, x0, x3
     9e8:	6b00009f 	cmp	w4, w0
     9ec:	1a80d084 	csel	w4, w4, w0, le
/home/lagadanu/Desktop/qemu/optee_os/lib/libutils/ext/snprintk.c:285
     9f0:	52800000 	mov	w0, #0x0                   	// #0
/home/lagadanu/Desktop/qemu/optee_os/lib/libutils/ext/snprintk.c:461
     9f4:	52800001 	mov	w1, #0x0                   	// #0
     9f8:	14000144 	b	f08 <__vsnprintf+0x784>
/home/lagadanu/Desktop/qemu/optee_os/lib/libutils/ext/snprintk.c:291
     9fc:	7101e11f 	cmp	w8, #0x78
     a00:	540037e0 	b.eq	10fc <__vsnprintf+0x978>
     a04:	7101e91f 	cmp	w8, #0x7a
     a08:	54000ba0 	b.eq	b7c <__vsnprintf+0x3f8>
     a0c:	7101d51f 	cmp	w8, #0x75
     a10:	54fff1a1 	b.ne	844 <__vsnprintf+0xc0>
/home/lagadanu/Desktop/qemu/optee_os/lib/libutils/ext/snprintk.c:467
     a14:	363832b5 	tbz	w21, #7, 1068 <__vsnprintf+0x8e4>
     a18:	37f83400 	tbnz	w0, #31, 1098 <__vsnprintf+0x914>
     a1c:	91003e61 	add	x1, x19, #0xf
     a20:	2a0003f4 	mov	w20, w0
     a24:	aa1303e0 	mov	x0, x19
     a28:	927df033 	and	x19, x1, #0xfffffffffffffff8
     a2c:	f9400005 	ldr	x5, [x0]
/home/lagadanu/Desktop/qemu/optee_os/lib/libutils/ext/snprintk.c:468
     a30:	52800020 	mov	w0, #0x1                   	// #1
     a34:	17ffffb7 	b	910 <__vsnprintf+0x18c>
/home/lagadanu/Desktop/qemu/optee_os/lib/libutils/ext/snprintk.c:471
     a38:	f0000037 	adrp	x23, 7000 <memalign+0x2bc>
     a3c:	911ea2f7 	add	x23, x23, #0x7a8
/home/lagadanu/Desktop/qemu/optee_os/lib/libutils/ext/snprintk.c:475
     a40:	36383675 	tbz	w21, #7, 110c <__vsnprintf+0x988>
     a44:	37f837c0 	tbnz	w0, #31, 113c <__vsnprintf+0x9b8>
     a48:	91003e61 	add	x1, x19, #0xf
     a4c:	2a0003f4 	mov	w20, w0
     a50:	aa1303e0 	mov	x0, x19
     a54:	927df033 	and	x19, x1, #0xfffffffffffffff8
     a58:	f9400005 	ldr	x5, [x0]
/home/lagadanu/Desktop/qemu/optee_os/lib/libutils/ext/snprintk.c:478
     a5c:	36000075 	tbz	w21, #0, a68 <__vsnprintf+0x2e4>
     a60:	b4000045 	cbz	x5, a68 <__vsnprintf+0x2e4>
/home/lagadanu/Desktop/qemu/optee_os/lib/libutils/ext/snprintk.c:479
     a64:	321f02b5 	orr	w21, w21, #0x2
/home/lagadanu/Desktop/qemu/optee_os/lib/libutils/ext/snprintk.c:476
     a68:	52800040 	mov	w0, #0x2                   	// #2
     a6c:	17ffffa9 	b	910 <__vsnprintf+0x18c>
/home/lagadanu/Desktop/qemu/optee_os/lib/libutils/ext/snprintk.c:299
     a70:	7100003f 	cmp	w1, #0x0
     a74:	1a861021 	csel	w1, w1, w6, ne
     a78:	17ffff87 	b	894 <__vsnprintf+0x110>
/home/lagadanu/Desktop/qemu/optee_os/lib/libutils/ext/snprintk.c:302
     a7c:	320002b5 	orr	w21, w21, #0x1
     a80:	17ffff85 	b	894 <__vsnprintf+0x110>
/home/lagadanu/Desktop/qemu/optee_os/lib/libutils/ext/snprintk.c:311
     a84:	37f80120 	tbnz	w0, #31, aa8 <__vsnprintf+0x324>
     a88:	91002e63 	add	x3, x19, #0xb
     a8c:	aa1303e2 	mov	x2, x19
     a90:	927df073 	and	x19, x3, #0xfffffffffffffff8
     a94:	b940004a 	ldr	w10, [x2]
     a98:	36ffefea 	tbz	w10, #31, 894 <__vsnprintf+0x110>
/home/lagadanu/Desktop/qemu/optee_os/lib/libutils/ext/snprintk.c:313
     a9c:	4b0a03ea 	neg	w10, w10
/home/lagadanu/Desktop/qemu/optee_os/lib/libutils/ext/snprintk.c:316
     aa0:	321e02b5 	orr	w21, w21, #0x4
     aa4:	17ffff7c 	b	894 <__vsnprintf+0x110>
/home/lagadanu/Desktop/qemu/optee_os/lib/libutils/ext/snprintk.c:311
     aa8:	11002003 	add	w3, w0, #0x8
     aac:	7100007f 	cmp	w3, #0x0
     ab0:	540000cd 	b.le	ac8 <__vsnprintf+0x344>
     ab4:	91002e67 	add	x7, x19, #0xb
     ab8:	aa1303e2 	mov	x2, x19
     abc:	2a0303e0 	mov	w0, w3
     ac0:	927df0f3 	and	x19, x7, #0xfffffffffffffff8
     ac4:	17fffff4 	b	a94 <__vsnprintf+0x310>
     ac8:	8b20c382 	add	x2, x28, w0, sxtw
     acc:	2a0303e0 	mov	w0, w3
     ad0:	17fffff1 	b	a94 <__vsnprintf+0x310>
/home/lagadanu/Desktop/qemu/optee_os/lib/libutils/ext/snprintk.c:322
     ad4:	39400328 	ldrb	w8, [x25]
     ad8:	91000723 	add	x3, x25, #0x1
     adc:	7100a91f 	cmp	w8, #0x2a
     ae0:	54000140 	b.eq	b08 <__vsnprintf+0x384>
     ae4:	aa0303f9 	mov	x25, x3
     ae8:	52800004 	mov	w4, #0x0                   	// #0
/home/lagadanu/Desktop/qemu/optee_os/lib/libutils/ext/snprintk.c:328
     aec:	5100c102 	sub	w2, w8, #0x30
     af0:	7100245f 	cmp	w2, #0x9
     af4:	54ffe8e8 	b.hi	810 <__vsnprintf+0x8c>
/home/lagadanu/Desktop/qemu/optee_os/lib/libutils/ext/snprintk.c:329
     af8:	52800143 	mov	w3, #0xa                   	// #10
/home/lagadanu/Desktop/qemu/optee_os/lib/libutils/ext/snprintk.c:330
     afc:	38401728 	ldrb	w8, [x25],#1
/home/lagadanu/Desktop/qemu/optee_os/lib/libutils/ext/snprintk.c:329
     b00:	1b030884 	madd	w4, w4, w3, w2
     b04:	17fffffa 	b	aec <__vsnprintf+0x368>
/home/lagadanu/Desktop/qemu/optee_os/lib/libutils/ext/snprintk.c:323
     b08:	37f80160 	tbnz	w0, #31, b34 <__vsnprintf+0x3b0>
     b0c:	91002e64 	add	x4, x19, #0xb
     b10:	2a0003e2 	mov	w2, w0
     b14:	aa1303e0 	mov	x0, x19
     b18:	927df093 	and	x19, x4, #0xfffffffffffffff8
/home/lagadanu/Desktop/qemu/optee_os/lib/libutils/ext/snprintk.c:324
     b1c:	b9400004 	ldr	w4, [x0]
/home/lagadanu/Desktop/qemu/optee_os/lib/libutils/ext/snprintk.c:322
     b20:	aa0303f9 	mov	x25, x3
/home/lagadanu/Desktop/qemu/optee_os/lib/libutils/ext/snprintk.c:324
     b24:	2a0203e0 	mov	w0, w2
     b28:	7100009f 	cmp	w4, #0x0
     b2c:	1a85a084 	csel	w4, w4, w5, ge
     b30:	17ffff59 	b	894 <__vsnprintf+0x110>
/home/lagadanu/Desktop/qemu/optee_os/lib/libutils/ext/snprintk.c:323
     b34:	11002002 	add	w2, w0, #0x8
     b38:	8b20c380 	add	x0, x28, w0, sxtw
     b3c:	7100005f 	cmp	w2, #0x0
     b40:	54fffeed 	b.le	b1c <__vsnprintf+0x398>
     b44:	91002e64 	add	x4, x19, #0xb
     b48:	17fffff3 	b	b14 <__vsnprintf+0x390>
/home/lagadanu/Desktop/qemu/optee_os/lib/libutils/ext/snprintk.c:340
     b4c:	321602b5 	orr	w21, w21, #0x400
     b50:	17ffff51 	b	894 <__vsnprintf+0x110>
/home/lagadanu/Desktop/qemu/optee_os/lib/libutils/ext/snprintk.c:358
     b54:	39400322 	ldrb	w2, [x25]
     b58:	7101b05f 	cmp	w2, #0x6c
     b5c:	54000081 	b.ne	b6c <__vsnprintf+0x3e8>
/home/lagadanu/Desktop/qemu/optee_os/lib/libutils/ext/snprintk.c:359
     b60:	91000739 	add	x25, x25, #0x1
/home/lagadanu/Desktop/qemu/optee_os/lib/libutils/ext/snprintk.c:366
     b64:	321b02b5 	orr	w21, w21, #0x20
     b68:	17ffff4b 	b	894 <__vsnprintf+0x110>
/home/lagadanu/Desktop/qemu/optee_os/lib/libutils/ext/snprintk.c:362
     b6c:	321c02b5 	orr	w21, w21, #0x10
     b70:	17ffff49 	b	894 <__vsnprintf+0x110>
/home/lagadanu/Desktop/qemu/optee_os/lib/libutils/ext/snprintk.c:369
     b74:	321802b5 	orr	w21, w21, #0x100
     b78:	17ffff47 	b	894 <__vsnprintf+0x110>
/home/lagadanu/Desktop/qemu/optee_os/lib/libutils/ext/snprintk.c:372
     b7c:	321702b5 	orr	w21, w21, #0x200
     b80:	17ffff45 	b	894 <__vsnprintf+0x110>
/home/lagadanu/Desktop/qemu/optee_os/lib/libutils/ext/snprintk.c:375
     b84:	37f80140 	tbnz	w0, #31, bac <__vsnprintf+0x428>
     b88:	91002e61 	add	x1, x19, #0xb
     b8c:	2a0003f4 	mov	w20, w0
     b90:	aa1303e0 	mov	x0, x19
     b94:	927df033 	and	x19, x1, #0xfffffffffffffff8
     b98:	910303a3 	add	x3, x29, #0xc0
     b9c:	b9400000 	ldr	w0, [x0]
     ba0:	381d8c60 	strb	w0, [x3,#-40]!
/home/lagadanu/Desktop/qemu/optee_os/lib/libutils/ext/snprintk.c:546
     ba4:	52800024 	mov	w4, #0x1                   	// #1
     ba8:	17ffff92 	b	9f0 <__vsnprintf+0x26c>
/home/lagadanu/Desktop/qemu/optee_os/lib/libutils/ext/snprintk.c:375
     bac:	11002014 	add	w20, w0, #0x8
     bb0:	8b20c380 	add	x0, x28, w0, sxtw
     bb4:	7100029f 	cmp	w20, #0x0
     bb8:	54ffff0d 	b.le	b98 <__vsnprintf+0x414>
     bbc:	91002e61 	add	x1, x19, #0xb
     bc0:	17fffff4 	b	b90 <__vsnprintf+0x40c>
/home/lagadanu/Desktop/qemu/optee_os/lib/libutils/ext/snprintk.c:380
     bc4:	321c02b5 	orr	w21, w21, #0x10
/home/lagadanu/Desktop/qemu/optee_os/lib/libutils/ext/snprintk.c:384
     bc8:	36380515 	tbz	w21, #7, c68 <__vsnprintf+0x4e4>
     bcc:	37f80660 	tbnz	w0, #31, c98 <__vsnprintf+0x514>
     bd0:	91003e62 	add	x2, x19, #0xf
     bd4:	2a0003f4 	mov	w20, w0
     bd8:	aa1303e0 	mov	x0, x19
     bdc:	927df053 	and	x19, x2, #0xfffffffffffffff8
     be0:	f9400005 	ldr	x5, [x0]
/home/lagadanu/Desktop/qemu/optee_os/lib/libutils/ext/snprintk.c:389
     be4:	52800020 	mov	w0, #0x1                   	// #1
/home/lagadanu/Desktop/qemu/optee_os/lib/libutils/ext/snprintk.c:385
     be8:	b6f80065 	tbz	x5, #63, bf4 <__vsnprintf+0x470>
/home/lagadanu/Desktop/qemu/optee_os/lib/libutils/ext/snprintk.c:386
     bec:	cb0503e5 	neg	x5, x5
/home/lagadanu/Desktop/qemu/optee_os/lib/libutils/ext/snprintk.c:387
     bf0:	528005a1 	mov	w1, #0x2d                  	// #45
/home/lagadanu/Desktop/qemu/optee_os/lib/libutils/ext/snprintk.c:489
     bf4:	3100049f 	cmn	w4, #0x1
     bf8:	12157aa2 	and	w2, w21, #0xfffffbff
     bfc:	1a951055 	csel	w21, w2, w21, ne
/home/lagadanu/Desktop/qemu/optee_os/lib/libutils/ext/snprintk.c:497
     c00:	f10000bf 	cmp	x5, #0x0
     c04:	7a400880 	ccmp	w4, #0x0, #0x0, eq
/home/lagadanu/Desktop/qemu/optee_os/lib/libutils/ext/snprintk.c:496
     c08:	91009703 	add	x3, x24, #0x25
/home/lagadanu/Desktop/qemu/optee_os/lib/libutils/ext/snprintk.c:497
     c0c:	54000260 	b.eq	c58 <__vsnprintf+0x4d4>
/home/lagadanu/Desktop/qemu/optee_os/lib/libutils/ext/snprintk.c:503
     c10:	7100041f 	cmp	w0, #0x1
     c14:	54002c60 	b.eq	11a0 <__vsnprintf+0xa1c>
     c18:	7100081f 	cmp	w0, #0x2
     c1c:	54002e40 	b.eq	11e4 <__vsnprintf+0xa60>
     c20:	91009700 	add	x0, x24, #0x25
/home/lagadanu/Desktop/qemu/optee_os/lib/libutils/ext/snprintk.c:506
     c24:	120008a2 	and	w2, w5, #0x7
     c28:	d1000403 	sub	x3, x0, #0x1
     c2c:	1100c042 	add	w2, w2, #0x30
     c30:	381ff002 	sturb	w2, [x0,#-1]
/home/lagadanu/Desktop/qemu/optee_os/lib/libutils/ext/snprintk.c:507
     c34:	d343fca5 	lsr	x5, x5, #3
/home/lagadanu/Desktop/qemu/optee_os/lib/libutils/ext/snprintk.c:508
     c38:	b5002c45 	cbnz	x5, 11c0 <__vsnprintf+0xa3c>
/home/lagadanu/Desktop/qemu/optee_os/lib/libutils/ext/snprintk.c:510
     c3c:	7100c05f 	cmp	w2, #0x30
     c40:	1a9f07e2 	cset	w2, ne
     c44:	6a0202bf 	tst	w21, w2
     c48:	54000080 	b.eq	c58 <__vsnprintf+0x4d4>
/home/lagadanu/Desktop/qemu/optee_os/lib/libutils/ext/snprintk.c:511
     c4c:	52800602 	mov	w2, #0x30                  	// #48
     c50:	381ff062 	sturb	w2, [x3,#-1]
     c54:	d1000803 	sub	x3, x0, #0x2
/home/lagadanu/Desktop/qemu/optee_os/lib/libutils/ext/snprintk.c:537
     c58:	91009702 	add	x2, x24, #0x25
     c5c:	2a0403e0 	mov	w0, w4
     c60:	4b030044 	sub	w4, w2, w3
     c64:	140000a9 	b	f08 <__vsnprintf+0x784>
/home/lagadanu/Desktop/qemu/optee_os/lib/libutils/ext/snprintk.c:384
     c68:	3747fb35 	tbnz	w21, #8, bcc <__vsnprintf+0x448>
     c6c:	374ffb15 	tbnz	w21, #9, bcc <__vsnprintf+0x448>
     c70:	372ffaf5 	tbnz	w21, #5, bcc <__vsnprintf+0x448>
     c74:	3727fad5 	tbnz	w21, #4, bcc <__vsnprintf+0x448>
     c78:	36300295 	tbz	w21, #6, cc8 <__vsnprintf+0x544>
     c7c:	37f801a0 	tbnz	w0, #31, cb0 <__vsnprintf+0x52c>
     c80:	91002e62 	add	x2, x19, #0xb
     c84:	2a0003f4 	mov	w20, w0
     c88:	aa1303e0 	mov	x0, x19
     c8c:	927df053 	and	x19, x2, #0xfffffffffffffff8
     c90:	79800005 	ldrsh	x5, [x0]
     c94:	17ffffd4 	b	be4 <__vsnprintf+0x460>
     c98:	11002014 	add	w20, w0, #0x8
     c9c:	8b20c380 	add	x0, x28, w0, sxtw
     ca0:	7100029f 	cmp	w20, #0x0
     ca4:	54fff9ed 	b.le	be0 <__vsnprintf+0x45c>
     ca8:	91003e62 	add	x2, x19, #0xf
     cac:	17ffffcb 	b	bd8 <__vsnprintf+0x454>
     cb0:	11002014 	add	w20, w0, #0x8
     cb4:	8b20c380 	add	x0, x28, w0, sxtw
     cb8:	7100029f 	cmp	w20, #0x0
     cbc:	54fffead 	b.le	c90 <__vsnprintf+0x50c>
     cc0:	91002e62 	add	x2, x19, #0xb
     cc4:	17fffff1 	b	c88 <__vsnprintf+0x504>
     cc8:	37f800e0 	tbnz	w0, #31, ce4 <__vsnprintf+0x560>
     ccc:	91002e62 	add	x2, x19, #0xb
     cd0:	2a0003f4 	mov	w20, w0
     cd4:	aa1303e0 	mov	x0, x19
     cd8:	927df053 	and	x19, x2, #0xfffffffffffffff8
     cdc:	b9800005 	ldrsw	x5, [x0]
     ce0:	17ffffc1 	b	be4 <__vsnprintf+0x460>
     ce4:	11002014 	add	w20, w0, #0x8
     ce8:	8b20c380 	add	x0, x28, w0, sxtw
     cec:	7100029f 	cmp	w20, #0x0
     cf0:	54ffff6d 	b.le	cdc <__vsnprintf+0x558>
     cf4:	91002e62 	add	x2, x19, #0xb
     cf8:	17fffff7 	b	cd4 <__vsnprintf+0x550>
/home/lagadanu/Desktop/qemu/optee_os/lib/libutils/ext/snprintk.c:392
     cfc:	36380155 	tbz	w21, #7, d24 <__vsnprintf+0x5a0>
/home/lagadanu/Desktop/qemu/optee_os/lib/libutils/ext/snprintk.c:401
     d00:	37f802c0 	tbnz	w0, #31, d58 <__vsnprintf+0x5d4>
     d04:	91003e61 	add	x1, x19, #0xf
     d08:	2a0003f4 	mov	w20, w0
     d0c:	aa1303e0 	mov	x0, x19
     d10:	927df033 	and	x19, x1, #0xfffffffffffffff8
     d14:	f9400000 	ldr	x0, [x0]
     d18:	93407f61 	sxtw	x1, w27
     d1c:	f9000001 	str	x1, [x0]
     d20:	17fffead 	b	7d4 <__vsnprintf+0x50>
/home/lagadanu/Desktop/qemu/optee_os/lib/libutils/ext/snprintk.c:394
     d24:	3747fef5 	tbnz	w21, #8, d00 <__vsnprintf+0x57c>
/home/lagadanu/Desktop/qemu/optee_os/lib/libutils/ext/snprintk.c:396
     d28:	374ffed5 	tbnz	w21, #9, d00 <__vsnprintf+0x57c>
/home/lagadanu/Desktop/qemu/optee_os/lib/libutils/ext/snprintk.c:398
     d2c:	372ffeb5 	tbnz	w21, #5, d00 <__vsnprintf+0x57c>
/home/lagadanu/Desktop/qemu/optee_os/lib/libutils/ext/snprintk.c:400
     d30:	3727fe95 	tbnz	w21, #4, d00 <__vsnprintf+0x57c>
/home/lagadanu/Desktop/qemu/optee_os/lib/libutils/ext/snprintk.c:402
     d34:	363002b5 	tbz	w21, #6, d88 <__vsnprintf+0x604>
/home/lagadanu/Desktop/qemu/optee_os/lib/libutils/ext/snprintk.c:403
     d38:	37f801c0 	tbnz	w0, #31, d70 <__vsnprintf+0x5ec>
     d3c:	91003e61 	add	x1, x19, #0xf
     d40:	2a0003f4 	mov	w20, w0
     d44:	aa1303e0 	mov	x0, x19
     d48:	927df033 	and	x19, x1, #0xfffffffffffffff8
     d4c:	f9400000 	ldr	x0, [x0]
     d50:	7900001b 	strh	w27, [x0]
     d54:	17fffea0 	b	7d4 <__vsnprintf+0x50>
/home/lagadanu/Desktop/qemu/optee_os/lib/libutils/ext/snprintk.c:401
     d58:	11002014 	add	w20, w0, #0x8
     d5c:	8b20c380 	add	x0, x28, w0, sxtw
     d60:	7100029f 	cmp	w20, #0x0
     d64:	54fffd8d 	b.le	d14 <__vsnprintf+0x590>
     d68:	91003e61 	add	x1, x19, #0xf
     d6c:	17ffffe8 	b	d0c <__vsnprintf+0x588>
/home/lagadanu/Desktop/qemu/optee_os/lib/libutils/ext/snprintk.c:403
     d70:	11002014 	add	w20, w0, #0x8
     d74:	8b20c380 	add	x0, x28, w0, sxtw
     d78:	7100029f 	cmp	w20, #0x0
     d7c:	54fffe8d 	b.le	d4c <__vsnprintf+0x5c8>
     d80:	91003e61 	add	x1, x19, #0xf
     d84:	17fffff0 	b	d44 <__vsnprintf+0x5c0>
/home/lagadanu/Desktop/qemu/optee_os/lib/libutils/ext/snprintk.c:405
     d88:	37f80100 	tbnz	w0, #31, da8 <__vsnprintf+0x624>
     d8c:	91003e61 	add	x1, x19, #0xf
     d90:	2a0003f4 	mov	w20, w0
     d94:	aa1303e0 	mov	x0, x19
     d98:	927df033 	and	x19, x1, #0xfffffffffffffff8
     d9c:	f9400000 	ldr	x0, [x0]
     da0:	b900001b 	str	w27, [x0]
     da4:	17fffe8c 	b	7d4 <__vsnprintf+0x50>
     da8:	11002014 	add	w20, w0, #0x8
     dac:	8b20c380 	add	x0, x28, w0, sxtw
     db0:	7100029f 	cmp	w20, #0x0
     db4:	54ffff4d 	b.le	d9c <__vsnprintf+0x618>
     db8:	91003e61 	add	x1, x19, #0xf
     dbc:	17fffff6 	b	d94 <__vsnprintf+0x610>
/home/lagadanu/Desktop/qemu/optee_os/lib/libutils/ext/snprintk.c:411
     dc0:	3747d9b5 	tbnz	w21, #8, 8f4 <__vsnprintf+0x170>
     dc4:	374fd995 	tbnz	w21, #9, 8f4 <__vsnprintf+0x170>
     dc8:	372fd975 	tbnz	w21, #5, 8f4 <__vsnprintf+0x170>
     dcc:	3727d955 	tbnz	w21, #4, 8f4 <__vsnprintf+0x170>
     dd0:	36300295 	tbz	w21, #6, e20 <__vsnprintf+0x69c>
     dd4:	37f801a0 	tbnz	w0, #31, e08 <__vsnprintf+0x684>
     dd8:	91002e61 	add	x1, x19, #0xb
     ddc:	2a0003f4 	mov	w20, w0
     de0:	aa1303e0 	mov	x0, x19
     de4:	927df033 	and	x19, x1, #0xfffffffffffffff8
     de8:	79400005 	ldrh	w5, [x0]
     dec:	17fffec8 	b	90c <__vsnprintf+0x188>
     df0:	11002014 	add	w20, w0, #0x8
     df4:	8b20c380 	add	x0, x28, w0, sxtw
     df8:	7100029f 	cmp	w20, #0x0
     dfc:	54ffd86d 	b.le	908 <__vsnprintf+0x184>
     e00:	91003e61 	add	x1, x19, #0xf
     e04:	17fffebf 	b	900 <__vsnprintf+0x17c>
     e08:	11002014 	add	w20, w0, #0x8
     e0c:	8b20c380 	add	x0, x28, w0, sxtw
     e10:	7100029f 	cmp	w20, #0x0
     e14:	54fffead 	b.le	de8 <__vsnprintf+0x664>
     e18:	91002e61 	add	x1, x19, #0xb
     e1c:	17fffff1 	b	de0 <__vsnprintf+0x65c>
     e20:	37f800e0 	tbnz	w0, #31, e3c <__vsnprintf+0x6b8>
     e24:	91002e61 	add	x1, x19, #0xb
     e28:	2a0003f4 	mov	w20, w0
     e2c:	aa1303e0 	mov	x0, x19
     e30:	927df033 	and	x19, x1, #0xfffffffffffffff8
     e34:	b9400005 	ldr	w5, [x0]
     e38:	17fffeb5 	b	90c <__vsnprintf+0x188>
     e3c:	11002014 	add	w20, w0, #0x8
     e40:	8b20c380 	add	x0, x28, w0, sxtw
     e44:	7100029f 	cmp	w20, #0x0
     e48:	54ffff6d 	b.le	e34 <__vsnprintf+0x6b0>
     e4c:	91002e61 	add	x1, x19, #0xb
     e50:	17fffff7 	b	e2c <__vsnprintf+0x6a8>
/home/lagadanu/Desktop/qemu/optee_os/lib/libutils/ext/snprintk.c:415
     e54:	b9407fa1 	ldr	w1, [x29,#124]
     e58:	34000b81 	cbz	w1, fc8 <__vsnprintf+0x844>
     e5c:	39400321 	ldrb	w1, [x25]
     e60:	7101543f 	cmp	w1, #0x55
     e64:	54000b21 	b.ne	fc8 <__vsnprintf+0x844>
     e68:	39400721 	ldrb	w1, [x25,#1]
     e6c:	7101b03f 	cmp	w1, #0x6c
     e70:	54000ac1 	b.ne	fc8 <__vsnprintf+0x844>
/home/lagadanu/Desktop/qemu/optee_os/lib/libutils/ext/snprintk.c:420
     e74:	91000b39 	add	x25, x25, #0x2
/home/lagadanu/Desktop/qemu/optee_os/lib/libutils/ext/snprintk.c:421
     e78:	37f809c0 	tbnz	w0, #31, fb0 <__vsnprintf+0x82c>
     e7c:	91003e61 	add	x1, x19, #0xf
     e80:	2a0003f4 	mov	w20, w0
     e84:	aa1303e0 	mov	x0, x19
     e88:	927df033 	and	x19, x1, #0xfffffffffffffff8
     e8c:	f9400000 	ldr	x0, [x0]
uuid2str():
/home/lagadanu/Desktop/qemu/optee_os/lib/libutils/ext/snprintk.c:223
     e90:	90000042 	adrp	x2, 8000 <PRIME_TABLE+0x7d8>
     e94:	b90073aa 	str	w10, [x29,#112]
     e98:	911f8c42 	add	x2, x2, #0x7e3
     e9c:	b9007ba8 	str	w8, [x29,#120]
     ea0:	39403c01 	ldrb	w1, [x0,#15]
     ea4:	79400804 	ldrh	w4, [x0,#4]
     ea8:	39402407 	ldrb	w7, [x0,#9]
     eac:	39402006 	ldrb	w6, [x0,#8]
     eb0:	79400c05 	ldrh	w5, [x0,#6]
     eb4:	b9002be1 	str	w1, [sp,#40]
     eb8:	39403801 	ldrb	w1, [x0,#14]
     ebc:	b90023e1 	str	w1, [sp,#32]
     ec0:	39403401 	ldrb	w1, [x0,#13]
     ec4:	b9001be1 	str	w1, [sp,#24]
     ec8:	39403001 	ldrb	w1, [x0,#12]
     ecc:	b90013e1 	str	w1, [sp,#16]
     ed0:	39402c01 	ldrb	w1, [x0,#11]
     ed4:	b9000be1 	str	w1, [sp,#8]
     ed8:	39402801 	ldrb	w1, [x0,#10]
     edc:	b90003e1 	str	w1, [sp]
     ee0:	d28004a1 	mov	x1, #0x25                  	// #37
     ee4:	b9400003 	ldr	w3, [x0]
     ee8:	aa1803e0 	mov	x0, x24
     eec:	94000125 	bl	1380 <snprintk>
     ef0:	2a0003e4 	mov	w4, w0
     ef4:	b94073aa 	ldr	w10, [x29,#112]
kprintf():
/home/lagadanu/Desktop/qemu/optee_os/lib/libutils/ext/snprintk.c:423
     ef8:	aa1803e3 	mov	x3, x24
     efc:	b9407ba8 	ldr	w8, [x29,#120]
/home/lagadanu/Desktop/qemu/optee_os/lib/libutils/ext/snprintk.c:285
     f00:	52800000 	mov	w0, #0x0                   	// #0
/home/lagadanu/Desktop/qemu/optee_os/lib/libutils/ext/snprintk.c:424
     f04:	52800001 	mov	w1, #0x0                   	// #0
/home/lagadanu/Desktop/qemu/optee_os/lib/libutils/ext/snprintk.c:565
     f08:	6b04001f 	cmp	w0, w4
     f0c:	1a84a006 	csel	w6, w0, w4, ge
/home/lagadanu/Desktop/qemu/optee_os/lib/libutils/ext/snprintk.c:566
     f10:	34001781 	cbz	w1, 1200 <__vsnprintf+0xa7c>
/home/lagadanu/Desktop/qemu/optee_os/lib/libutils/ext/snprintk.c:567
     f14:	110004c6 	add	w6, w6, #0x1
/home/lagadanu/Desktop/qemu/optee_os/lib/libutils/ext/snprintk.c:572
     f18:	6b06015f 	cmp	w10, w6
     f1c:	1a86a142 	csel	w2, w10, w6, ge
     f20:	0b02037b 	add	w27, w27, w2
/home/lagadanu/Desktop/qemu/optee_os/lib/libutils/ext/snprintk.c:575
     f24:	52808082 	mov	w2, #0x404                 	// #1028
     f28:	6a0202a2 	ands	w2, w21, w2
     f2c:	540000a1 	b.ne	f40 <__vsnprintf+0x7bc>
/home/lagadanu/Desktop/qemu/optee_os/lib/libutils/ext/snprintk.c:576
     f30:	4b060145 	sub	w5, w10, w6
/home/lagadanu/Desktop/qemu/optee_os/lib/libutils/ext/snprintk.c:578
     f34:	52800407 	mov	w7, #0x20                  	// #32
/home/lagadanu/Desktop/qemu/optee_os/lib/libutils/ext/snprintk.c:577
     f38:	710000bf 	cmp	w5, #0x0
     f3c:	540016ac 	b.gt	1210 <__vsnprintf+0xa8c>
/home/lagadanu/Desktop/qemu/optee_os/lib/libutils/ext/snprintk.c:582
     f40:	34001801 	cbz	w1, 1240 <__vsnprintf+0xabc>
/home/lagadanu/Desktop/qemu/optee_os/lib/libutils/ext/snprintk.c:583
     f44:	b5001756 	cbnz	x22, 122c <__vsnprintf+0xaa8>
/home/lagadanu/Desktop/qemu/optee_os/lib/libutils/ext/snprintk.c:586
     f48:	d2800016 	mov	x22, #0x0                   	// #0
/home/lagadanu/Desktop/qemu/optee_os/lib/libutils/ext/snprintk.c:590
     f4c:	7110005f 	cmp	w2, #0x400
     f50:	540000a1 	b.ne	f64 <__vsnprintf+0x7e0>
/home/lagadanu/Desktop/qemu/optee_os/lib/libutils/ext/snprintk.c:591
     f54:	4b060141 	sub	w1, w10, w6
/home/lagadanu/Desktop/qemu/optee_os/lib/libutils/ext/snprintk.c:593
     f58:	52800602 	mov	w2, #0x30                  	// #48
/home/lagadanu/Desktop/qemu/optee_os/lib/libutils/ext/snprintk.c:592
     f5c:	7100003f 	cmp	w1, #0x0
     f60:	540018ec 	b.gt	127c <__vsnprintf+0xaf8>
/home/lagadanu/Desktop/qemu/optee_os/lib/libutils/ext/snprintk.c:597
     f64:	4b040000 	sub	w0, w0, w4
/home/lagadanu/Desktop/qemu/optee_os/lib/libutils/ext/snprintk.c:599
     f68:	52800601 	mov	w1, #0x30                  	// #48
/home/lagadanu/Desktop/qemu/optee_os/lib/libutils/ext/snprintk.c:598
     f6c:	7100001f 	cmp	w0, #0x0
     f70:	5400194c 	b.gt	1298 <__vsnprintf+0xb14>
     f74:	8b244064 	add	x4, x3, w4, uxtw
/home/lagadanu/Desktop/qemu/optee_os/lib/libutils/ext/snprintk.c:602
     f78:	eb04007f 	cmp	x3, x4
     f7c:	540019c1 	b.ne	12b4 <__vsnprintf+0xb30>
/home/lagadanu/Desktop/qemu/optee_os/lib/libutils/ext/snprintk.c:605
     f80:	3617c2b5 	tbz	w21, #2, 7d4 <__vsnprintf+0x50>
/home/lagadanu/Desktop/qemu/optee_os/lib/libutils/ext/snprintk.c:606
     f84:	4b06014a 	sub	w10, w10, w6
/home/lagadanu/Desktop/qemu/optee_os/lib/libutils/ext/snprintk.c:608
     f88:	52800400 	mov	w0, #0x20                  	// #32
/home/lagadanu/Desktop/qemu/optee_os/lib/libutils/ext/snprintk.c:607
     f8c:	7100015f 	cmp	w10, #0x0
     f90:	54ffc22d 	b.le	7d4 <__vsnprintf+0x50>
/home/lagadanu/Desktop/qemu/optee_os/lib/libutils/ext/snprintk.c:608
     f94:	b40000b6 	cbz	x22, fa8 <__vsnprintf+0x824>
     f98:	eb16035f 	cmp	x26, x22
     f9c:	54000069 	b.ls	fa8 <__vsnprintf+0x824>
     fa0:	390002c0 	strb	w0, [x22]
     fa4:	910006d6 	add	x22, x22, #0x1
     fa8:	5100054a 	sub	w10, w10, #0x1
     fac:	17fffff8 	b	f8c <__vsnprintf+0x808>
/home/lagadanu/Desktop/qemu/optee_os/lib/libutils/ext/snprintk.c:421
     fb0:	11002014 	add	w20, w0, #0x8
     fb4:	8b20c380 	add	x0, x28, w0, sxtw
     fb8:	7100029f 	cmp	w20, #0x0
     fbc:	54fff68d 	b.le	e8c <__vsnprintf+0x708>
     fc0:	91003e61 	add	x1, x19, #0xf
     fc4:	17ffffb0 	b	e84 <__vsnprintf+0x700>
/home/lagadanu/Desktop/qemu/optee_os/lib/libutils/ext/snprintk.c:435
     fc8:	37f801c0 	tbnz	w0, #31, 1000 <__vsnprintf+0x87c>
     fcc:	91003e61 	add	x1, x19, #0xf
     fd0:	2a0003f4 	mov	w20, w0
     fd4:	aa1303e0 	mov	x0, x19
     fd8:	927df033 	and	x19, x1, #0xfffffffffffffff8
/home/lagadanu/Desktop/qemu/optee_os/lib/libutils/ext/snprintk.c:437
     fdc:	f0000037 	adrp	x23, 7000 <memalign+0x2bc>
     fe0:	911ea2f7 	add	x23, x23, #0x7a8
/home/lagadanu/Desktop/qemu/optee_os/lib/libutils/ext/snprintk.c:435
     fe4:	f9400005 	ldr	x5, [x0]
/home/lagadanu/Desktop/qemu/optee_os/lib/libutils/ext/snprintk.c:438
     fe8:	321f02b5 	orr	w21, w21, #0x2
/home/lagadanu/Desktop/qemu/optee_os/lib/libutils/ext/snprintk.c:437
     fec:	910062f7 	add	x23, x23, #0x18
/home/lagadanu/Desktop/qemu/optee_os/lib/libutils/ext/snprintk.c:482
     ff0:	52800001 	mov	w1, #0x0                   	// #0
/home/lagadanu/Desktop/qemu/optee_os/lib/libutils/ext/snprintk.c:439
     ff4:	52800f08 	mov	w8, #0x78                  	// #120
/home/lagadanu/Desktop/qemu/optee_os/lib/libutils/ext/snprintk.c:436
     ff8:	52800040 	mov	w0, #0x2                   	// #2
     ffc:	17fffefe 	b	bf4 <__vsnprintf+0x470>
/home/lagadanu/Desktop/qemu/optee_os/lib/libutils/ext/snprintk.c:435
    1000:	11002014 	add	w20, w0, #0x8
    1004:	8b20c380 	add	x0, x28, w0, sxtw
    1008:	7100029f 	cmp	w20, #0x0
    100c:	54fffe8d 	b.le	fdc <__vsnprintf+0x858>
    1010:	91003e61 	add	x1, x19, #0xf
    1014:	17fffff0 	b	fd4 <__vsnprintf+0x850>
/home/lagadanu/Desktop/qemu/optee_os/lib/libutils/ext/snprintk.c:442
    1018:	11002014 	add	w20, w0, #0x8
    101c:	8b20c380 	add	x0, x28, w0, sxtw
    1020:	7100029f 	cmp	w20, #0x0
    1024:	54ffcbcd 	b.le	99c <__vsnprintf+0x218>
    1028:	91003e61 	add	x1, x19, #0xf
    102c:	17fffe5a 	b	994 <__vsnprintf+0x210>
/home/lagadanu/Desktop/qemu/optee_os/lib/libutils/ext/snprintk.c:460
    1030:	aa0303e0 	mov	x0, x3
    1034:	b9006fa8 	str	w8, [x29,#108]
    1038:	f9003ba3 	str	x3, [x29,#112]
    103c:	b9007baa 	str	w10, [x29,#120]
    1040:	940000f8 	bl	1420 <strlen>
/home/lagadanu/Desktop/qemu/optee_os/lib/libutils/ext/snprintk.c:461
    1044:	52800001 	mov	w1, #0x0                   	// #0
/home/lagadanu/Desktop/qemu/optee_os/lib/libutils/ext/snprintk.c:460
    1048:	2a0003e4 	mov	w4, w0
    104c:	b9406fa8 	ldr	w8, [x29,#108]
/home/lagadanu/Desktop/qemu/optee_os/lib/libutils/ext/snprintk.c:285
    1050:	52800000 	mov	w0, #0x0                   	// #0
    1054:	b9407baa 	ldr	w10, [x29,#120]
    1058:	f9403ba3 	ldr	x3, [x29,#112]
    105c:	17ffffab 	b	f08 <__vsnprintf+0x784>
/home/lagadanu/Desktop/qemu/optee_os/lib/libutils/ext/snprintk.c:464
    1060:	321c02b5 	orr	w21, w21, #0x10
    1064:	17fffe6c 	b	a14 <__vsnprintf+0x290>
/home/lagadanu/Desktop/qemu/optee_os/lib/libutils/ext/snprintk.c:467
    1068:	3747cd95 	tbnz	w21, #8, a18 <__vsnprintf+0x294>
    106c:	374fcd75 	tbnz	w21, #9, a18 <__vsnprintf+0x294>
    1070:	372fcd55 	tbnz	w21, #5, a18 <__vsnprintf+0x294>
    1074:	3727cd35 	tbnz	w21, #4, a18 <__vsnprintf+0x294>
    1078:	36300295 	tbz	w21, #6, 10c8 <__vsnprintf+0x944>
    107c:	37f801a0 	tbnz	w0, #31, 10b0 <__vsnprintf+0x92c>
    1080:	91002e61 	add	x1, x19, #0xb
    1084:	2a0003f4 	mov	w20, w0
    1088:	aa1303e0 	mov	x0, x19
    108c:	927df033 	and	x19, x1, #0xfffffffffffffff8
    1090:	79400005 	ldrh	w5, [x0]
    1094:	17fffe67 	b	a30 <__vsnprintf+0x2ac>
    1098:	11002014 	add	w20, w0, #0x8
    109c:	8b20c380 	add	x0, x28, w0, sxtw
    10a0:	7100029f 	cmp	w20, #0x0
    10a4:	54ffcc4d 	b.le	a2c <__vsnprintf+0x2a8>
    10a8:	91003e61 	add	x1, x19, #0xf
    10ac:	17fffe5e 	b	a24 <__vsnprintf+0x2a0>
    10b0:	11002014 	add	w20, w0, #0x8
    10b4:	8b20c380 	add	x0, x28, w0, sxtw
    10b8:	7100029f 	cmp	w20, #0x0
    10bc:	54fffead 	b.le	1090 <__vsnprintf+0x90c>
    10c0:	91002e61 	add	x1, x19, #0xb
    10c4:	17fffff1 	b	1088 <__vsnprintf+0x904>
    10c8:	37f800e0 	tbnz	w0, #31, 10e4 <__vsnprintf+0x960>
    10cc:	91002e61 	add	x1, x19, #0xb
    10d0:	2a0003f4 	mov	w20, w0
    10d4:	aa1303e0 	mov	x0, x19
    10d8:	927df033 	and	x19, x1, #0xfffffffffffffff8
    10dc:	b9400005 	ldr	w5, [x0]
    10e0:	17fffe54 	b	a30 <__vsnprintf+0x2ac>
    10e4:	11002014 	add	w20, w0, #0x8
    10e8:	8b20c380 	add	x0, x28, w0, sxtw
    10ec:	7100029f 	cmp	w20, #0x0
    10f0:	54ffff6d 	b.le	10dc <__vsnprintf+0x958>
    10f4:	91002e61 	add	x1, x19, #0xb
    10f8:	17fffff7 	b	10d4 <__vsnprintf+0x950>
/home/lagadanu/Desktop/qemu/optee_os/lib/libutils/ext/snprintk.c:474
    10fc:	d0000037 	adrp	x23, 7000 <memalign+0x2bc>
    1100:	911ea2f7 	add	x23, x23, #0x7a8
    1104:	910062f7 	add	x23, x23, #0x18
    1108:	17fffe4e 	b	a40 <__vsnprintf+0x2bc>
/home/lagadanu/Desktop/qemu/optee_os/lib/libutils/ext/snprintk.c:475
    110c:	3747c9d5 	tbnz	w21, #8, a44 <__vsnprintf+0x2c0>
    1110:	374fc9b5 	tbnz	w21, #9, a44 <__vsnprintf+0x2c0>
    1114:	372fc995 	tbnz	w21, #5, a44 <__vsnprintf+0x2c0>
    1118:	3727c975 	tbnz	w21, #4, a44 <__vsnprintf+0x2c0>
    111c:	36300295 	tbz	w21, #6, 116c <__vsnprintf+0x9e8>
    1120:	37f801a0 	tbnz	w0, #31, 1154 <__vsnprintf+0x9d0>
    1124:	91002e61 	add	x1, x19, #0xb
    1128:	2a0003f4 	mov	w20, w0
    112c:	aa1303e0 	mov	x0, x19
    1130:	927df033 	and	x19, x1, #0xfffffffffffffff8
    1134:	79400005 	ldrh	w5, [x0]
    1138:	17fffe49 	b	a5c <__vsnprintf+0x2d8>
    113c:	11002014 	add	w20, w0, #0x8
    1140:	8b20c380 	add	x0, x28, w0, sxtw
    1144:	7100029f 	cmp	w20, #0x0
    1148:	54ffc88d 	b.le	a58 <__vsnprintf+0x2d4>
    114c:	91003e61 	add	x1, x19, #0xf
    1150:	17fffe40 	b	a50 <__vsnprintf+0x2cc>
    1154:	11002014 	add	w20, w0, #0x8
    1158:	8b20c380 	add	x0, x28, w0, sxtw
    115c:	7100029f 	cmp	w20, #0x0
    1160:	54fffead 	b.le	1134 <__vsnprintf+0x9b0>
    1164:	91002e61 	add	x1, x19, #0xb
    1168:	17fffff1 	b	112c <__vsnprintf+0x9a8>
    116c:	37f800e0 	tbnz	w0, #31, 1188 <__vsnprintf+0xa04>
    1170:	91002e61 	add	x1, x19, #0xb
    1174:	2a0003f4 	mov	w20, w0
    1178:	aa1303e0 	mov	x0, x19
    117c:	927df033 	and	x19, x1, #0xfffffffffffffff8
    1180:	b9400005 	ldr	w5, [x0]
    1184:	17fffe36 	b	a5c <__vsnprintf+0x2d8>
    1188:	11002014 	add	w20, w0, #0x8
    118c:	8b20c380 	add	x0, x28, w0, sxtw
    1190:	7100029f 	cmp	w20, #0x0
    1194:	54ffff6d 	b.le	1180 <__vsnprintf+0x9fc>
    1198:	91002e61 	add	x1, x19, #0xb
    119c:	17fffff7 	b	1178 <__vsnprintf+0x9f4>
/home/lagadanu/Desktop/qemu/optee_os/lib/libutils/ext/snprintk.c:503
    11a0:	91009700 	add	x0, x24, #0x25
/home/lagadanu/Desktop/qemu/optee_os/lib/libutils/ext/snprintk.c:517
    11a4:	d2800146 	mov	x6, #0xa                   	// #10
/home/lagadanu/Desktop/qemu/optee_os/lib/libutils/ext/snprintk.c:516
    11a8:	f10024bf 	cmp	x5, #0x9
    11ac:	d1000403 	sub	x3, x0, #0x1
    11b0:	540000c8 	b.hi	11c8 <__vsnprintf+0xa44>
/home/lagadanu/Desktop/qemu/optee_os/lib/libutils/ext/snprintk.c:520
    11b4:	1100c0a2 	add	w2, w5, #0x30
    11b8:	381ff002 	sturb	w2, [x0,#-1]
    11bc:	17fffea7 	b	c58 <__vsnprintf+0x4d4>
/home/lagadanu/Desktop/qemu/optee_os/lib/libutils/ext/snprintk.c:508
    11c0:	aa0303e0 	mov	x0, x3
    11c4:	17fffe98 	b	c24 <__vsnprintf+0x4a0>
/home/lagadanu/Desktop/qemu/optee_os/lib/libutils/ext/snprintk.c:517
    11c8:	aa0303e0 	mov	x0, x3
    11cc:	9ac608a3 	udiv	x3, x5, x6
    11d0:	9b069462 	msub	x2, x3, x6, x5
/home/lagadanu/Desktop/qemu/optee_os/lib/libutils/ext/snprintk.c:518
    11d4:	aa0303e5 	mov	x5, x3
/home/lagadanu/Desktop/qemu/optee_os/lib/libutils/ext/snprintk.c:517
    11d8:	1100c042 	add	w2, w2, #0x30
    11dc:	39000002 	strb	w2, [x0]
    11e0:	17fffff2 	b	11a8 <__vsnprintf+0xa24>
/home/lagadanu/Desktop/qemu/optee_os/lib/libutils/ext/snprintk.c:503
    11e4:	91009703 	add	x3, x24, #0x25
/home/lagadanu/Desktop/qemu/optee_os/lib/libutils/ext/snprintk.c:525
    11e8:	92400ca0 	and	x0, x5, #0xf
/home/lagadanu/Desktop/qemu/optee_os/lib/libutils/ext/snprintk.c:526
    11ec:	d344fca5 	lsr	x5, x5, #4
/home/lagadanu/Desktop/qemu/optee_os/lib/libutils/ext/snprintk.c:525
    11f0:	38606ae0 	ldrb	w0, [x23,x0]
    11f4:	381ffc60 	strb	w0, [x3,#-1]!
/home/lagadanu/Desktop/qemu/optee_os/lib/libutils/ext/snprintk.c:527
    11f8:	b5ffff85 	cbnz	x5, 11e8 <__vsnprintf+0xa64>
    11fc:	17fffe97 	b	c58 <__vsnprintf+0x4d4>
/home/lagadanu/Desktop/qemu/optee_os/lib/libutils/ext/snprintk.c:569
    1200:	110008c2 	add	w2, w6, #0x2
    1204:	f27f02bf 	tst	x21, #0x2
    1208:	1a861046 	csel	w6, w2, w6, ne
    120c:	17ffff43 	b	f18 <__vsnprintf+0x794>
/home/lagadanu/Desktop/qemu/optee_os/lib/libutils/ext/snprintk.c:578
    1210:	b40000b6 	cbz	x22, 1224 <__vsnprintf+0xaa0>
    1214:	eb16035f 	cmp	x26, x22
    1218:	54000069 	b.ls	1224 <__vsnprintf+0xaa0>
    121c:	390002c7 	strb	w7, [x22]
    1220:	910006d6 	add	x22, x22, #0x1
    1224:	510004a5 	sub	w5, w5, #0x1
    1228:	17ffff44 	b	f38 <__vsnprintf+0x7b4>
/home/lagadanu/Desktop/qemu/optee_os/lib/libutils/ext/snprintk.c:583
    122c:	eb16035f 	cmp	x26, x22
    1230:	54ffe8e9 	b.ls	f4c <__vsnprintf+0x7c8>
    1234:	390002c1 	strb	w1, [x22]
    1238:	910006d6 	add	x22, x22, #0x1
    123c:	17ffff44 	b	f4c <__vsnprintf+0x7c8>
/home/lagadanu/Desktop/qemu/optee_os/lib/libutils/ext/snprintk.c:584
    1240:	360fe875 	tbz	w21, #1, f4c <__vsnprintf+0x7c8>
/home/lagadanu/Desktop/qemu/optee_os/lib/libutils/ext/snprintk.c:585
    1244:	b4ffe836 	cbz	x22, f48 <__vsnprintf+0x7c4>
    1248:	eb16035f 	cmp	x26, x22
    124c:	54ffe809 	b.ls	f4c <__vsnprintf+0x7c8>
    1250:	52800601 	mov	w1, #0x30                  	// #48
    1254:	390002c1 	strb	w1, [x22]
/home/lagadanu/Desktop/qemu/optee_os/lib/libutils/ext/snprintk.c:586
    1258:	b10006c1 	adds	x1, x22, #0x1
    125c:	54ffe760 	b.eq	f48 <__vsnprintf+0x7c4>
    1260:	eb01035f 	cmp	x26, x1
    1264:	54000089 	b.ls	1274 <__vsnprintf+0xaf0>
    1268:	390006c8 	strb	w8, [x22,#1]
    126c:	91000ad6 	add	x22, x22, #0x2
    1270:	17ffff37 	b	f4c <__vsnprintf+0x7c8>
    1274:	aa0103f6 	mov	x22, x1
    1278:	17ffff35 	b	f4c <__vsnprintf+0x7c8>
/home/lagadanu/Desktop/qemu/optee_os/lib/libutils/ext/snprintk.c:593
    127c:	b40000b6 	cbz	x22, 1290 <__vsnprintf+0xb0c>
    1280:	eb16035f 	cmp	x26, x22
    1284:	54000069 	b.ls	1290 <__vsnprintf+0xb0c>
    1288:	390002c2 	strb	w2, [x22]
    128c:	910006d6 	add	x22, x22, #0x1
    1290:	51000421 	sub	w1, w1, #0x1
    1294:	17ffff32 	b	f5c <__vsnprintf+0x7d8>
/home/lagadanu/Desktop/qemu/optee_os/lib/libutils/ext/snprintk.c:599
    1298:	b40000b6 	cbz	x22, 12ac <__vsnprintf+0xb28>
    129c:	eb16035f 	cmp	x26, x22
    12a0:	54000069 	b.ls	12ac <__vsnprintf+0xb28>
    12a4:	390002c1 	strb	w1, [x22]
    12a8:	910006d6 	add	x22, x22, #0x1
    12ac:	51000400 	sub	w0, w0, #0x1
    12b0:	17ffff2f 	b	f6c <__vsnprintf+0x7e8>
/home/lagadanu/Desktop/qemu/optee_os/lib/libutils/ext/snprintk.c:603
    12b4:	b40000d6 	cbz	x22, 12cc <__vsnprintf+0xb48>
    12b8:	eb16035f 	cmp	x26, x22
    12bc:	54000089 	b.ls	12cc <__vsnprintf+0xb48>
    12c0:	39400060 	ldrb	w0, [x3]
    12c4:	910006d6 	add	x22, x22, #0x1
    12c8:	381ff2c0 	sturb	w0, [x22,#-1]
/home/lagadanu/Desktop/qemu/optee_os/lib/libutils/ext/snprintk.c:602
    12cc:	91000463 	add	x3, x3, #0x1
    12d0:	17ffff2a 	b	f78 <__vsnprintf+0x7f4>
__vsnprintf():
/home/lagadanu/Desktop/qemu/optee_os/lib/libutils/ext/snprintk.c:143
    12d4:	f94047a0 	ldr	x0, [x29,#136]
    12d8:	f100001f 	cmp	x0, #0x0
    12dc:	f94043a0 	ldr	x0, [x29,#128]
    12e0:	fa401804 	ccmp	x0, #0x0, #0x4, ne
    12e4:	540000c0 	b.eq	12fc <__vsnprintf+0xb78>
/home/lagadanu/Desktop/qemu/optee_os/lib/libutils/ext/snprintk.c:145
    12e8:	f94043a1 	ldr	x1, [x29,#128]
    12ec:	93407f60 	sxtw	x0, w27
    12f0:	eb00003f 	cmp	x1, x0
    12f4:	54000168 	b.hi	1320 <__vsnprintf+0xb9c>
/home/lagadanu/Desktop/qemu/optee_os/lib/libutils/ext/snprintk.c:146
    12f8:	381ff35f 	sturb	wzr, [x26,#-1]
/home/lagadanu/Desktop/qemu/optee_os/lib/libutils/ext/snprintk.c:151
    12fc:	2a1b03e0 	mov	w0, w27
    1300:	a94453f3 	ldp	x19, x20, [sp,#64]
    1304:	a9455bf5 	ldp	x21, x22, [sp,#80]
    1308:	a94663f7 	ldp	x23, x24, [sp,#96]
    130c:	a9476bf9 	ldp	x25, x26, [sp,#112]
    1310:	a94873fb 	ldp	x27, x28, [sp,#128]
    1314:	a9437bfd 	ldp	x29, x30, [sp,#48]
    1318:	9103c3ff 	add	sp, sp, #0xf0
    131c:	d65f03c0 	ret
/home/lagadanu/Desktop/qemu/optee_os/lib/libutils/ext/snprintk.c:148
    1320:	f94047a1 	ldr	x1, [x29,#136]
    1324:	3820683f 	strb	wzr, [x1,x0]
/home/lagadanu/Desktop/qemu/optee_os/lib/libutils/ext/snprintk.c:150
    1328:	17fffff5 	b	12fc <__vsnprintf+0xb78>

000000000000132c <vsnprintk>:
vsnprintk():
/home/lagadanu/Desktop/qemu/optee_os/lib/libutils/ext/snprintk.c:129
    132c:	a9bb7bfd 	stp	x29, x30, [sp,#-80]!
    1330:	910003fd 	mov	x29, sp
    1334:	a90153f3 	stp	x19, x20, [sp,#16]
    1338:	aa0003f3 	mov	x19, x0
    133c:	f90013f5 	str	x21, [sp,#32]
    1340:	aa0103f4 	mov	x20, x1
    1344:	aa0203f5 	mov	x21, x2
/home/lagadanu/Desktop/qemu/optee_os/lib/libutils/ext/snprintk.c:130
    1348:	aa0303e1 	mov	x1, x3
    134c:	9100c3a0 	add	x0, x29, #0x30
    1350:	d2800402 	mov	x2, #0x20                  	// #32
    1354:	97fffc66 	bl	4ec <memcpy>
    1358:	aa0003e3 	mov	x3, x0
    135c:	aa1503e2 	mov	x2, x21
    1360:	aa1403e1 	mov	x1, x20
    1364:	52800024 	mov	w4, #0x1                   	// #1
    1368:	aa1303e0 	mov	x0, x19
    136c:	97fffd06 	bl	784 <__vsnprintf>
/home/lagadanu/Desktop/qemu/optee_os/lib/libutils/ext/snprintk.c:131
    1370:	f94013f5 	ldr	x21, [sp,#32]
    1374:	a94153f3 	ldp	x19, x20, [sp,#16]
    1378:	a8c57bfd 	ldp	x29, x30, [sp],#80
    137c:	d65f03c0 	ret

0000000000001380 <snprintk>:
snprintk():
/home/lagadanu/Desktop/qemu/optee_os/lib/libutils/ext/snprintk.c:112
    1380:	a9b07bfd 	stp	x29, x30, [sp,#-256]!
    1384:	910003fd 	mov	x29, sp
    1388:	a90d93a3 	stp	x3, x4, [x29,#216]
/home/lagadanu/Desktop/qemu/optee_os/lib/libutils/ext/snprintk.c:116
    138c:	910403a3 	add	x3, x29, #0x100
    1390:	a9030fa3 	stp	x3, x3, [x29,#48]
    1394:	910343a3 	add	x3, x29, #0xd0
    1398:	f90023a3 	str	x3, [x29,#64]
    139c:	128004e3 	mov	w3, #0xffffffd8            	// #-40
    13a0:	b9004ba3 	str	w3, [x29,#72]
    13a4:	12800fe3 	mov	w3, #0xffffff80            	// #-128
    13a8:	b9004fa3 	str	w3, [x29,#76]
/home/lagadanu/Desktop/qemu/optee_os/lib/libutils/ext/snprintk.c:117
    13ac:	910043a3 	add	x3, x29, #0x10
/home/lagadanu/Desktop/qemu/optee_os/lib/libutils/ext/snprintk.c:112
    13b0:	a90e9ba5 	stp	x5, x6, [x29,#232]
/home/lagadanu/Desktop/qemu/optee_os/lib/libutils/ext/snprintk.c:117
    13b4:	a94317a4 	ldp	x4, x5, [x29,#48]
    13b8:	a90117a4 	stp	x4, x5, [x29,#16]
    13bc:	a94417a4 	ldp	x4, x5, [x29,#64]
/home/lagadanu/Desktop/qemu/optee_os/lib/libutils/ext/snprintk.c:112
    13c0:	3d8017a0 	str	q0, [x29,#80]
    13c4:	3d801ba1 	str	q1, [x29,#96]
    13c8:	3d801fa2 	str	q2, [x29,#112]
    13cc:	3d8023a3 	str	q3, [x29,#128]
    13d0:	3d8027a4 	str	q4, [x29,#144]
    13d4:	3d802ba5 	str	q5, [x29,#160]
    13d8:	3d802fa6 	str	q6, [x29,#176]
    13dc:	3d8033a7 	str	q7, [x29,#192]
    13e0:	f9007fa7 	str	x7, [x29,#248]
/home/lagadanu/Desktop/qemu/optee_os/lib/libutils/ext/snprintk.c:117
    13e4:	a90217a4 	stp	x4, x5, [x29,#32]
    13e8:	97ffffd1 	bl	132c <vsnprintk>
/home/lagadanu/Desktop/qemu/optee_os/lib/libutils/ext/snprintk.c:121
    13ec:	a8d07bfd 	ldp	x29, x30, [sp],#256
    13f0:	d65f03c0 	ret

00000000000013f4 <memchr>:
memchr():
/home/lagadanu/Desktop/qemu/optee_os/lib/libutils/isoc/newlib/memchr.c:109
    13f4:	12001c21 	and	w1, w1, #0xff
    13f8:	8b020002 	add	x2, x0, x2
/home/lagadanu/Desktop/qemu/optee_os/lib/libutils/isoc/newlib/memchr.c:153
    13fc:	eb02001f 	cmp	x0, x2
    1400:	54000061 	b.ne	140c <memchr+0x18>
/home/lagadanu/Desktop/qemu/optee_os/lib/libutils/isoc/newlib/memchr.c:159
    1404:	d2800000 	mov	x0, #0x0                   	// #0
/home/lagadanu/Desktop/qemu/optee_os/lib/libutils/isoc/newlib/memchr.c:160
    1408:	d65f03c0 	ret
/home/lagadanu/Desktop/qemu/optee_os/lib/libutils/isoc/newlib/memchr.c:154
    140c:	39400003 	ldrb	w3, [x0]
    1410:	6b01007f 	cmp	w3, w1
    1414:	54ffffa0 	b.eq	1408 <memchr+0x14>
/home/lagadanu/Desktop/qemu/optee_os/lib/libutils/isoc/newlib/memchr.c:156
    1418:	91000400 	add	x0, x0, #0x1
    141c:	17fffff8 	b	13fc <memchr+0x8>

0000000000001420 <strlen>:
strlen():
/home/lagadanu/Desktop/qemu/optee_os/lib/libutils/isoc/newlib/strlen.c:117
    1420:	aa0003e1 	mov	x1, x0
    1424:	39400022 	ldrb	w2, [x1]
    1428:	35000062 	cbnz	w2, 1434 <strlen+0x14>
/home/lagadanu/Desktop/qemu/optee_os/lib/libutils/isoc/newlib/strlen.c:120
    142c:	cb000020 	sub	x0, x1, x0
    1430:	d65f03c0 	ret
/home/lagadanu/Desktop/qemu/optee_os/lib/libutils/isoc/newlib/strlen.c:118
    1434:	91000421 	add	x1, x1, #0x1
    1438:	17fffffb 	b	1424 <strlen+0x4>

000000000000143c <trace_ext_puts>:
trace_ext_puts():
/home/lagadanu/Desktop/qemu/optee_os/lib/libutee/trace_ext.c:17
    143c:	a9be7bfd 	stp	x29, x30, [sp,#-32]!
    1440:	910003fd 	mov	x29, sp
    1444:	f9000bf3 	str	x19, [sp,#16]
    1448:	aa0003f3 	mov	x19, x0
/home/lagadanu/Desktop/qemu/optee_os/lib/libutee/trace_ext.c:18
    144c:	97fffff5 	bl	1420 <strlen>
    1450:	aa0003e1 	mov	x1, x0
    1454:	aa1303e0 	mov	x0, x19
/home/lagadanu/Desktop/qemu/optee_os/lib/libutee/trace_ext.c:19
    1458:	f9400bf3 	ldr	x19, [sp,#16]
    145c:	a8c27bfd 	ldp	x29, x30, [sp],#32
/home/lagadanu/Desktop/qemu/optee_os/lib/libutee/trace_ext.c:18
    1460:	14000247 	b	1d7c <utee_log>

0000000000001464 <trace_ext_get_thread_id>:
trace_ext_get_thread_id():
/home/lagadanu/Desktop/qemu/optee_os/lib/libutee/trace_ext.c:24
    1464:	12800000 	mov	w0, #0xffffffff            	// #-1
    1468:	d65f03c0 	ret

000000000000146c <printf>:
printf():
/home/lagadanu/Desktop/qemu/optee_os/lib/libutee/trace_ext.c:32
    146c:	d10883ff 	sub	sp, sp, #0x220
    1470:	a9007bfd 	stp	x29, x30, [sp]
    1474:	910003fd 	mov	x29, sp
    1478:	a90153f3 	stp	x19, x20, [sp,#16]
    147c:	aa0003f3 	mov	x19, x0
    1480:	910403a0 	add	x0, x29, #0x100
    1484:	a91e8ba1 	stp	x1, x2, [x29,#488]
    1488:	a91f93a3 	stp	x3, x4, [x29,#504]
    148c:	f90107a5 	str	x5, [x29,#520]
    1490:	f9010ba6 	str	x6, [x29,#528]
    1494:	f9010fa7 	str	x7, [x29,#536]
    1498:	3d801800 	str	q0, [x0,#96]
    149c:	3d801c01 	str	q1, [x0,#112]
    14a0:	3d802002 	str	q2, [x0,#128]
    14a4:	3d802403 	str	q3, [x0,#144]
    14a8:	3d802804 	str	q4, [x0,#160]
    14ac:	3d802c05 	str	q5, [x0,#176]
    14b0:	3d803006 	str	q6, [x0,#192]
    14b4:	3d803407 	str	q7, [x0,#208]
/home/lagadanu/Desktop/qemu/optee_os/lib/libutee/trace_ext.c:37
    14b8:	97fffc1e 	bl	530 <trace_get_level>
    14bc:	7100001f 	cmp	w0, #0x0
    14c0:	5400038d 	b.le	1530 <printf+0xc4>
/home/lagadanu/Desktop/qemu/optee_os/lib/libutee/trace_ext.c:40
    14c4:	910883a0 	add	x0, x29, #0x220
    14c8:	a90403a0 	stp	x0, x0, [x29,#64]
    14cc:	910783a0 	add	x0, x29, #0x1e0
    14d0:	f9002ba0 	str	x0, [x29,#80]
    14d4:	128006e0 	mov	w0, #0xffffffc8            	// #-56
    14d8:	b9005ba0 	str	w0, [x29,#88]
    14dc:	12800fe0 	mov	w0, #0xffffff80            	// #-128
    14e0:	b9005fa0 	str	w0, [x29,#92]
/home/lagadanu/Desktop/qemu/optee_os/lib/libutee/trace_ext.c:41
    14e4:	a94407a0 	ldp	x0, x1, [x29,#64]
    14e8:	a90207a0 	stp	x0, x1, [x29,#32]
    14ec:	a94507a0 	ldp	x0, x1, [x29,#80]
    14f0:	910183b4 	add	x20, x29, #0x60
    14f4:	a90307a0 	stp	x0, x1, [x29,#48]
    14f8:	aa1303e2 	mov	x2, x19
    14fc:	910083a3 	add	x3, x29, #0x20
    1500:	d2802001 	mov	x1, #0x100                 	// #256
    1504:	aa1403e0 	mov	x0, x20
    1508:	940017de 	bl	7480 <vsnprintf>
    150c:	2a0003f3 	mov	w19, w0
/home/lagadanu/Desktop/qemu/optee_os/lib/libutee/trace_ext.c:44
    1510:	37f80060 	tbnz	w0, #31, 151c <printf+0xb0>
/home/lagadanu/Desktop/qemu/optee_os/lib/libutee/trace_ext.c:47
    1514:	aa1403e0 	mov	x0, x20
    1518:	97ffffc9 	bl	143c <trace_ext_puts>
/home/lagadanu/Desktop/qemu/optee_os/lib/libutee/trace_ext.c:50
    151c:	2a1303e0 	mov	w0, w19
    1520:	a94153f3 	ldp	x19, x20, [sp,#16]
    1524:	a9407bfd 	ldp	x29, x30, [sp]
    1528:	910883ff 	add	sp, sp, #0x220
    152c:	d65f03c0 	ret
/home/lagadanu/Desktop/qemu/optee_os/lib/libutee/trace_ext.c:38
    1530:	52800013 	mov	w19, #0x0                   	// #0
    1534:	17fffffa 	b	151c <printf+0xb0>

0000000000001538 <puts>:
puts():
/home/lagadanu/Desktop/qemu/optee_os/lib/libutee/trace_ext.c:53
    1538:	a9be7bfd 	stp	x29, x30, [sp,#-32]!
    153c:	910003fd 	mov	x29, sp
    1540:	f9000bf3 	str	x19, [sp,#16]
    1544:	aa0003f3 	mov	x19, x0
/home/lagadanu/Desktop/qemu/optee_os/lib/libutee/trace_ext.c:54
    1548:	97fffbfa 	bl	530 <trace_get_level>
    154c:	7100001f 	cmp	w0, #0x0
    1550:	540000cd 	b.le	1568 <puts+0x30>
/home/lagadanu/Desktop/qemu/optee_os/lib/libutee/trace_ext.c:55
    1554:	aa1303e0 	mov	x0, x19
    1558:	97ffffb9 	bl	143c <trace_ext_puts>
/home/lagadanu/Desktop/qemu/optee_os/lib/libutee/trace_ext.c:56
    155c:	f0000020 	adrp	x0, 8000 <PRIME_TABLE+0x7d8>
    1560:	9119c400 	add	x0, x0, #0x671
    1564:	97ffffb6 	bl	143c <trace_ext_puts>
/home/lagadanu/Desktop/qemu/optee_os/lib/libutee/trace_ext.c:59
    1568:	52800020 	mov	w0, #0x1                   	// #1
    156c:	f9400bf3 	ldr	x19, [sp,#16]
    1570:	a8c27bfd 	ldp	x29, x30, [sp],#32
    1574:	d65f03c0 	ret

0000000000001578 <putchar>:
putchar():
/home/lagadanu/Desktop/qemu/optee_os/lib/libutee/trace_ext.c:62
    1578:	a9bd7bfd 	stp	x29, x30, [sp,#-48]!
    157c:	910003fd 	mov	x29, sp
    1580:	f9000bf3 	str	x19, [sp,#16]
    1584:	2a0003f3 	mov	w19, w0
/home/lagadanu/Desktop/qemu/optee_os/lib/libutee/trace_ext.c:63
    1588:	3900a3a0 	strb	w0, [x29,#40]
    158c:	3900a7bf 	strb	wzr, [x29,#41]
/home/lagadanu/Desktop/qemu/optee_os/lib/libutee/trace_ext.c:65
    1590:	97fffbe8 	bl	530 <trace_get_level>
    1594:	7100001f 	cmp	w0, #0x0
    1598:	5400006d 	b.le	15a4 <putchar+0x2c>
/home/lagadanu/Desktop/qemu/optee_os/lib/libutee/trace_ext.c:66
    159c:	9100a3a0 	add	x0, x29, #0x28
    15a0:	97ffffa7 	bl	143c <trace_ext_puts>
/home/lagadanu/Desktop/qemu/optee_os/lib/libutee/trace_ext.c:73
    15a4:	12001e60 	and	w0, w19, #0xff
    15a8:	f9400bf3 	ldr	x19, [sp,#16]
    15ac:	a8c37bfd 	ldp	x29, x30, [sp],#48
    15b0:	d65f03c0 	ret

00000000000015b4 <__utee_from_param>:
__utee_from_param():
/home/lagadanu/Desktop/qemu/optee_os/lib/libutee/tee_api.c:25
    15b4:	d0000025 	adrp	x5, 7000 <memalign+0x2bc>
    15b8:	911f60a5 	add	x5, x5, #0x7d8
/home/lagadanu/Desktop/qemu/optee_os/lib/libutee/tee_api.c:23
    15bc:	2a0103e3 	mov	w3, w1
    15c0:	52800004 	mov	w4, #0x0                   	// #0
    15c4:	f8008403 	str	x3, [x0],#8
/home/lagadanu/Desktop/qemu/optee_os/lib/libutee/tee_api.c:25
    15c8:	1ac42423 	lsr	w3, w1, w4
    15cc:	12000c63 	and	w3, w3, #0xf
    15d0:	51000463 	sub	w3, w3, #0x1
    15d4:	7100187f 	cmp	w3, #0x6
    15d8:	54000268 	b.hi	1624 <__utee_from_param+0x70>
    15dc:	386348a3 	ldrb	w3, [x5,w3,uxtw]
    15e0:	10000066 	adr	x6, 15ec <__utee_from_param+0x38>
    15e4:	8b2388c3 	add	x3, x6, w3, sxtb #2
    15e8:	d61f0060 	br	x3
/home/lagadanu/Desktop/qemu/optee_os/lib/libutee/tee_api.c:29
    15ec:	b9400043 	ldr	w3, [x2]
    15f0:	f9000003 	str	x3, [x0]
/home/lagadanu/Desktop/qemu/optee_os/lib/libutee/tee_api.c:30
    15f4:	b9400443 	ldr	w3, [x2,#4]
/home/lagadanu/Desktop/qemu/optee_os/lib/libutee/tee_api.c:36
    15f8:	f9000403 	str	x3, [x0,#8]
    15fc:	11001084 	add	w4, w4, #0x4
    1600:	91004042 	add	x2, x2, #0x10
    1604:	91004000 	add	x0, x0, #0x10
/home/lagadanu/Desktop/qemu/optee_os/lib/libutee/tee_api.c:24 (discriminator 2)
    1608:	7100409f 	cmp	w4, #0x10
    160c:	54fffde1 	b.ne	15c8 <__utee_from_param+0x14>
/home/lagadanu/Desktop/qemu/optee_os/lib/libutee/tee_api.c:44
    1610:	d65f03c0 	ret
/home/lagadanu/Desktop/qemu/optee_os/lib/libutee/tee_api.c:35
    1614:	f9400043 	ldr	x3, [x2]
    1618:	f9000003 	str	x3, [x0]
/home/lagadanu/Desktop/qemu/optee_os/lib/libutee/tee_api.c:36
    161c:	b9400843 	ldr	w3, [x2,#8]
    1620:	17fffff6 	b	15f8 <__utee_from_param+0x44>
/home/lagadanu/Desktop/qemu/optee_os/lib/libutee/tee_api.c:40
    1624:	a9007c1f 	stp	xzr, xzr, [x0]
/home/lagadanu/Desktop/qemu/optee_os/lib/libutee/tee_api.c:41
    1628:	17fffff5 	b	15fc <__utee_from_param+0x48>

000000000000162c <__utee_to_param>:
__utee_to_param():
/home/lagadanu/Desktop/qemu/optee_os/lib/libutee/tee_api.c:50
    162c:	f8408446 	ldr	x6, [x2],#8
/home/lagadanu/Desktop/qemu/optee_os/lib/libutee/tee_api.c:56
    1630:	d0000025 	adrp	x5, 7000 <memalign+0x2bc>
    1634:	911f80a5 	add	x5, x5, #0x7e0
/home/lagadanu/Desktop/qemu/optee_os/lib/libutee/tee_api.c:50
    1638:	52800004 	mov	w4, #0x0                   	// #0
    163c:	2a0603e9 	mov	w9, w6
/home/lagadanu/Desktop/qemu/optee_os/lib/libutee/tee_api.c:56
    1640:	1ac42523 	lsr	w3, w9, w4
    1644:	12000c63 	and	w3, w3, #0xf
    1648:	51000463 	sub	w3, w3, #0x1
    164c:	7100187f 	cmp	w3, #0x6
/home/lagadanu/Desktop/qemu/optee_os/lib/libutee/tee_api.c:54
    1650:	a9401c48 	ldp	x8, x7, [x2]
/home/lagadanu/Desktop/qemu/optee_os/lib/libutee/tee_api.c:56
    1654:	540000c8 	b.hi	166c <__utee_to_param+0x40>
    1658:	386348a3 	ldrb	w3, [x5,w3,uxtw]
    165c:	1000006a 	adr	x10, 1668 <__utee_to_param+0x3c>
    1660:	8b238943 	add	x3, x10, w3, sxtb #2
    1664:	d61f0060 	br	x3
/home/lagadanu/Desktop/qemu/optee_os/lib/libutee/tee_api.c:61
    1668:	29001c08 	stp	w8, w7, [x0]
    166c:	11001084 	add	w4, w4, #0x4
    1670:	91004042 	add	x2, x2, #0x10
    1674:	91004000 	add	x0, x0, #0x10
/home/lagadanu/Desktop/qemu/optee_os/lib/libutee/tee_api.c:52 (discriminator 2)
    1678:	7100409f 	cmp	w4, #0x10
    167c:	54fffe21 	b.ne	1640 <__utee_to_param+0x14>
/home/lagadanu/Desktop/qemu/optee_os/lib/libutee/tee_api.c:74
    1680:	b4000041 	cbz	x1, 1688 <__utee_to_param+0x5c>
/home/lagadanu/Desktop/qemu/optee_os/lib/libutee/tee_api.c:75
    1684:	b9000026 	str	w6, [x1]
    1688:	d65f03c0 	ret
/home/lagadanu/Desktop/qemu/optee_os/lib/libutee/tee_api.c:66
    168c:	f9000008 	str	x8, [x0]
/home/lagadanu/Desktop/qemu/optee_os/lib/libutee/tee_api.c:67
    1690:	b9000807 	str	w7, [x0,#8]
/home/lagadanu/Desktop/qemu/optee_os/lib/libutee/tee_api.c:68
    1694:	17fffff6 	b	166c <__utee_to_param+0x40>

0000000000001698 <TEE_OpenTASession>:
TEE_OpenTASession():
/home/lagadanu/Desktop/qemu/optee_os/lib/libutee/tee_api.c:84
    1698:	a9b77bfd 	stp	x29, x30, [sp,#-144]!
    169c:	910003fd 	mov	x29, sp
    16a0:	a90153f3 	stp	x19, x20, [sp,#16]
/home/lagadanu/Desktop/qemu/optee_os/lib/libutee/tee_api.c:89
    16a4:	910123b3 	add	x19, x29, #0x48
/home/lagadanu/Desktop/qemu/optee_os/lib/libutee/tee_api.c:84
    16a8:	a9025bf5 	stp	x21, x22, [sp,#32]
    16ac:	aa0303f4 	mov	x20, x3
    16b0:	a90363f7 	stp	x23, x24, [sp,#48]
    16b4:	aa0003f6 	mov	x22, x0
    16b8:	aa0503f8 	mov	x24, x5
    16bc:	2a0103f7 	mov	w23, w1
    16c0:	aa0403f5 	mov	x21, x4
    16c4:	2a0203e1 	mov	w1, w2
/home/lagadanu/Desktop/qemu/optee_os/lib/libutee/tee_api.c:89
    16c8:	aa1303e0 	mov	x0, x19
    16cc:	aa0303e2 	mov	x2, x3
    16d0:	97ffffb9 	bl	15b4 <__utee_from_param>
/home/lagadanu/Desktop/qemu/optee_os/lib/libutee/tee_api.c:90
    16d4:	aa1803e4 	mov	x4, x24
    16d8:	910113a3 	add	x3, x29, #0x44
    16dc:	aa1303e2 	mov	x2, x19
    16e0:	2a1703e1 	mov	w1, w23
    16e4:	aa1603e0 	mov	x0, x22
    16e8:	940001b1 	bl	1dac <utee_open_ta_session>
/home/lagadanu/Desktop/qemu/optee_os/lib/libutee/tee_api.c:92
    16ec:	aa1303e2 	mov	x2, x19
/home/lagadanu/Desktop/qemu/optee_os/lib/libutee/tee_api.c:90
    16f0:	2a0003f6 	mov	w22, w0
/home/lagadanu/Desktop/qemu/optee_os/lib/libutee/tee_api.c:92
    16f4:	d2800001 	mov	x1, #0x0                   	// #0
    16f8:	aa1403e0 	mov	x0, x20
    16fc:	97ffffcc 	bl	162c <__utee_to_param>
/home/lagadanu/Desktop/qemu/optee_os/lib/libutee/tee_api.c:98
    1700:	34000056 	cbz	w22, 1708 <TEE_OpenTASession+0x70>
/home/lagadanu/Desktop/qemu/optee_os/lib/libutee/tee_api.c:99
    1704:	b90047bf 	str	wzr, [x29,#68]
/home/lagadanu/Desktop/qemu/optee_os/lib/libutee/tee_api.c:101
    1708:	b94047a0 	ldr	w0, [x29,#68]
/home/lagadanu/Desktop/qemu/optee_os/lib/libutee/tee_api.c:103
    170c:	a94153f3 	ldp	x19, x20, [sp,#16]
    1710:	a94363f7 	ldp	x23, x24, [sp,#48]
/home/lagadanu/Desktop/qemu/optee_os/lib/libutee/tee_api.c:101
    1714:	f90002a0 	str	x0, [x21]
/home/lagadanu/Desktop/qemu/optee_os/lib/libutee/tee_api.c:103
    1718:	2a1603e0 	mov	w0, w22
    171c:	a9425bf5 	ldp	x21, x22, [sp,#32]
    1720:	a8c97bfd 	ldp	x29, x30, [sp],#144
    1724:	d65f03c0 	ret

0000000000001728 <TEE_CloseTASession>:
TEE_CloseTASession():
/home/lagadanu/Desktop/qemu/optee_os/lib/libutee/tee_api.c:107
    1728:	b4000120 	cbz	x0, 174c <TEE_CloseTASession+0x24>
/home/lagadanu/Desktop/qemu/optee_os/lib/libutee/tee_api.c:106
    172c:	a9bf7bfd 	stp	x29, x30, [sp,#-16]!
    1730:	910003fd 	mov	x29, sp
/home/lagadanu/Desktop/qemu/optee_os/lib/libutee/tee_api.c:108
    1734:	940001a1 	bl	1db8 <utee_close_ta_session>
/home/lagadanu/Desktop/qemu/optee_os/lib/libutee/tee_api.c:110
    1738:	34000060 	cbz	w0, 1744 <TEE_CloseTASession+0x1c>
/home/lagadanu/Desktop/qemu/optee_os/lib/libutee/tee_api.c:113
    173c:	a8c17bfd 	ldp	x29, x30, [sp],#16
/home/lagadanu/Desktop/qemu/optee_os/lib/libutee/tee_api.c:111
    1740:	140000d6 	b	1a98 <TEE_Panic>
/home/lagadanu/Desktop/qemu/optee_os/lib/libutee/tee_api.c:113
    1744:	a8c17bfd 	ldp	x29, x30, [sp],#16
    1748:	d65f03c0 	ret
    174c:	d65f03c0 	ret

0000000000001750 <TEE_InvokeTACommand>:
TEE_InvokeTACommand():
/home/lagadanu/Desktop/qemu/optee_os/lib/libutee/tee_api.c:120
    1750:	a9b77bfd 	stp	x29, x30, [sp,#-144]!
    1754:	910003fd 	mov	x29, sp
    1758:	a90153f3 	stp	x19, x20, [sp,#16]
/home/lagadanu/Desktop/qemu/optee_os/lib/libutee/tee_api.c:125
    175c:	910123b4 	add	x20, x29, #0x48
/home/lagadanu/Desktop/qemu/optee_os/lib/libutee/tee_api.c:120
    1760:	a9025bf5 	stp	x21, x22, [sp,#32]
    1764:	aa0003f3 	mov	x19, x0
    1768:	a90363f7 	stp	x23, x24, [sp,#48]
    176c:	aa0403f6 	mov	x22, x4
    1770:	aa0503f5 	mov	x21, x5
    1774:	2a0103f7 	mov	w23, w1
    1778:	2a0203f8 	mov	w24, w2
/home/lagadanu/Desktop/qemu/optee_os/lib/libutee/tee_api.c:125
    177c:	2a0303e1 	mov	w1, w3
    1780:	aa0403e2 	mov	x2, x4
    1784:	aa1403e0 	mov	x0, x20
    1788:	97ffff8b 	bl	15b4 <__utee_from_param>
/home/lagadanu/Desktop/qemu/optee_os/lib/libutee/tee_api.c:126
    178c:	910113a4 	add	x4, x29, #0x44
    1790:	aa1403e3 	mov	x3, x20
    1794:	2a1803e2 	mov	w2, w24
    1798:	2a1703e1 	mov	w1, w23
    179c:	aa1303e0 	mov	x0, x19
    17a0:	94000189 	bl	1dc4 <utee_invoke_ta_command>
/home/lagadanu/Desktop/qemu/optee_os/lib/libutee/tee_api.c:129
    17a4:	aa1403e2 	mov	x2, x20
/home/lagadanu/Desktop/qemu/optee_os/lib/libutee/tee_api.c:126
    17a8:	2a0003f3 	mov	w19, w0
/home/lagadanu/Desktop/qemu/optee_os/lib/libutee/tee_api.c:129
    17ac:	d2800001 	mov	x1, #0x0                   	// #0
    17b0:	aa1603e0 	mov	x0, x22
    17b4:	97ffff9e 	bl	162c <__utee_to_param>
    17b8:	b94047a0 	ldr	w0, [x29,#68]
/home/lagadanu/Desktop/qemu/optee_os/lib/libutee/tee_api.c:131
    17bc:	b4000055 	cbz	x21, 17c4 <TEE_InvokeTACommand+0x74>
/home/lagadanu/Desktop/qemu/optee_os/lib/libutee/tee_api.c:132
    17c0:	b90002a0 	str	w0, [x21]
/home/lagadanu/Desktop/qemu/optee_os/lib/libutee/tee_api.c:134
    17c4:	7100101f 	cmp	w0, #0x4
    17c8:	54000120 	b.eq	17ec <TEE_InvokeTACommand+0x9c>
/home/lagadanu/Desktop/qemu/optee_os/lib/libutee/tee_api.c:138
    17cc:	7100027f 	cmp	w19, #0x0
    17d0:	129ffe60 	mov	w0, #0xffff000c            	// #-65524
    17d4:	7a401264 	ccmp	w19, w0, #0x4, ne
    17d8:	1299fb60 	mov	w0, #0xffff3024            	// #-53212
    17dc:	7a401264 	ccmp	w19, w0, #0x4, ne
    17e0:	54000060 	b.eq	17ec <TEE_InvokeTACommand+0x9c>
/home/lagadanu/Desktop/qemu/optee_os/lib/libutee/tee_api.c:140
    17e4:	2a1303e0 	mov	w0, w19
    17e8:	940000ac 	bl	1a98 <TEE_Panic>
/home/lagadanu/Desktop/qemu/optee_os/lib/libutee/tee_api.c:143
    17ec:	2a1303e0 	mov	w0, w19
    17f0:	a94153f3 	ldp	x19, x20, [sp,#16]
    17f4:	a9425bf5 	ldp	x21, x22, [sp,#32]
    17f8:	a94363f7 	ldp	x23, x24, [sp,#48]
    17fc:	a8c97bfd 	ldp	x29, x30, [sp],#144
    1800:	d65f03c0 	ret

0000000000001804 <TEE_GetCancellationFlag>:
TEE_GetCancellationFlag():
/home/lagadanu/Desktop/qemu/optee_os/lib/libutee/tee_api.c:148
    1804:	a9be7bfd 	stp	x29, x30, [sp,#-32]!
    1808:	910003fd 	mov	x29, sp
/home/lagadanu/Desktop/qemu/optee_os/lib/libutee/tee_api.c:150
    180c:	910073a0 	add	x0, x29, #0x1c
    1810:	94000170 	bl	1dd0 <utee_get_cancellation_flag>
/home/lagadanu/Desktop/qemu/optee_os/lib/libutee/tee_api.c:152
    1814:	34000040 	cbz	w0, 181c <TEE_GetCancellationFlag+0x18>
/home/lagadanu/Desktop/qemu/optee_os/lib/libutee/tee_api.c:153
    1818:	b9001fbf 	str	wzr, [x29,#28]
/home/lagadanu/Desktop/qemu/optee_os/lib/libutee/tee_api.c:154
    181c:	b9401fa0 	ldr	w0, [x29,#28]
/home/lagadanu/Desktop/qemu/optee_os/lib/libutee/tee_api.c:155
    1820:	a8c27bfd 	ldp	x29, x30, [sp],#32
/home/lagadanu/Desktop/qemu/optee_os/lib/libutee/tee_api.c:154
    1824:	7100001f 	cmp	w0, #0x0
/home/lagadanu/Desktop/qemu/optee_os/lib/libutee/tee_api.c:155
    1828:	1a9f07e0 	cset	w0, ne
    182c:	d65f03c0 	ret

0000000000001830 <TEE_UnmaskCancellation>:
TEE_UnmaskCancellation():
/home/lagadanu/Desktop/qemu/optee_os/lib/libutee/tee_api.c:158
    1830:	a9be7bfd 	stp	x29, x30, [sp,#-32]!
    1834:	910003fd 	mov	x29, sp
/home/lagadanu/Desktop/qemu/optee_os/lib/libutee/tee_api.c:160
    1838:	910073a0 	add	x0, x29, #0x1c
    183c:	9400016b 	bl	1de8 <utee_unmask_cancellation>
/home/lagadanu/Desktop/qemu/optee_os/lib/libutee/tee_api.c:162
    1840:	34000040 	cbz	w0, 1848 <TEE_UnmaskCancellation+0x18>
/home/lagadanu/Desktop/qemu/optee_os/lib/libutee/tee_api.c:163
    1844:	94000095 	bl	1a98 <TEE_Panic>
/home/lagadanu/Desktop/qemu/optee_os/lib/libutee/tee_api.c:164
    1848:	b9401fa0 	ldr	w0, [x29,#28]
/home/lagadanu/Desktop/qemu/optee_os/lib/libutee/tee_api.c:165
    184c:	a8c27bfd 	ldp	x29, x30, [sp],#32
/home/lagadanu/Desktop/qemu/optee_os/lib/libutee/tee_api.c:164
    1850:	7100001f 	cmp	w0, #0x0
/home/lagadanu/Desktop/qemu/optee_os/lib/libutee/tee_api.c:165
    1854:	1a9f07e0 	cset	w0, ne
    1858:	d65f03c0 	ret

000000000000185c <TEE_MaskCancellation>:
TEE_MaskCancellation():
/home/lagadanu/Desktop/qemu/optee_os/lib/libutee/tee_api.c:168
    185c:	a9be7bfd 	stp	x29, x30, [sp,#-32]!
    1860:	910003fd 	mov	x29, sp
/home/lagadanu/Desktop/qemu/optee_os/lib/libutee/tee_api.c:170
    1864:	910073a0 	add	x0, x29, #0x1c
    1868:	94000163 	bl	1df4 <utee_mask_cancellation>
/home/lagadanu/Desktop/qemu/optee_os/lib/libutee/tee_api.c:172
    186c:	34000040 	cbz	w0, 1874 <TEE_MaskCancellation+0x18>
/home/lagadanu/Desktop/qemu/optee_os/lib/libutee/tee_api.c:173
    1870:	9400008a 	bl	1a98 <TEE_Panic>
/home/lagadanu/Desktop/qemu/optee_os/lib/libutee/tee_api.c:174
    1874:	b9401fa0 	ldr	w0, [x29,#28]
/home/lagadanu/Desktop/qemu/optee_os/lib/libutee/tee_api.c:175
    1878:	a8c27bfd 	ldp	x29, x30, [sp],#32
/home/lagadanu/Desktop/qemu/optee_os/lib/libutee/tee_api.c:174
    187c:	7100001f 	cmp	w0, #0x0
/home/lagadanu/Desktop/qemu/optee_os/lib/libutee/tee_api.c:175
    1880:	1a9f07e0 	cset	w0, ne
    1884:	d65f03c0 	ret

0000000000001888 <TEE_CheckMemoryAccessRights>:
TEE_CheckMemoryAccessRights():
/home/lagadanu/Desktop/qemu/optee_os/lib/libutee/tee_api.c:184
    1888:	34000062 	cbz	w2, 1894 <TEE_CheckMemoryAccessRights+0xc>
/home/lagadanu/Desktop/qemu/optee_os/lib/libutee/tee_api.c:188
    188c:	2a0203e2 	mov	w2, w2
    1890:	14000153 	b	1ddc <utee_check_access_rights>
/home/lagadanu/Desktop/qemu/optee_os/lib/libutee/tee_api.c:200
    1894:	52800000 	mov	w0, #0x0                   	// #0
    1898:	d65f03c0 	ret

000000000000189c <TEE_SetInstanceData>:
TEE_SetInstanceData():
/home/lagadanu/Desktop/qemu/optee_os/lib/libutee/tee_api.c:204
    189c:	b0000081 	adrp	x1, 12000 <ta_heap+0x7ef0>
    18a0:	f9008820 	str	x0, [x1,#272]
    18a4:	d65f03c0 	ret

00000000000018a8 <TEE_GetInstanceData>:
TEE_GetInstanceData():
/home/lagadanu/Desktop/qemu/optee_os/lib/libutee/tee_api.c:210
    18a8:	b0000080 	adrp	x0, 12000 <ta_heap+0x7ef0>
    18ac:	f9408800 	ldr	x0, [x0,#272]
    18b0:	d65f03c0 	ret

00000000000018b4 <TEE_MemMove>:
TEE_MemMove():
/home/lagadanu/Desktop/qemu/optee_os/lib/libutee/tee_api.c:214
    18b4:	2a0203e2 	mov	w2, w2
    18b8:	14001714 	b	7508 <memmove>

00000000000018bc <TEE_MemCompare>:
TEE_MemCompare():
/home/lagadanu/Desktop/qemu/optee_os/lib/libutee/tee_api.c:219
    18bc:	2a0203e2 	mov	w2, w2
    18c0:	14001705 	b	74d4 <memcmp>

00000000000018c4 <TEE_MemFill>:
TEE_MemFill():
/home/lagadanu/Desktop/qemu/optee_os/lib/libutee/tee_api.c:224
    18c4:	2a0203e2 	mov	w2, w2
    18c8:	14001723 	b	7554 <memset>

00000000000018cc <TEE_GetSystemTime>:
TEE_GetSystemTime():
/home/lagadanu/Desktop/qemu/optee_os/lib/libutee/tee_api.c:230
    18cc:	a9bf7bfd 	stp	x29, x30, [sp,#-16]!
/home/lagadanu/Desktop/qemu/optee_os/lib/libutee/tee_api.c:231
    18d0:	aa0003e1 	mov	x1, x0
    18d4:	d2800000 	mov	x0, #0x0                   	// #0
/home/lagadanu/Desktop/qemu/optee_os/lib/libutee/tee_api.c:230
    18d8:	910003fd 	mov	x29, sp
/home/lagadanu/Desktop/qemu/optee_os/lib/libutee/tee_api.c:231
    18dc:	9400014c 	bl	1e0c <utee_get_time>
/home/lagadanu/Desktop/qemu/optee_os/lib/libutee/tee_api.c:233
    18e0:	34000060 	cbz	w0, 18ec <TEE_GetSystemTime+0x20>
/home/lagadanu/Desktop/qemu/optee_os/lib/libutee/tee_api.c:235
    18e4:	a8c17bfd 	ldp	x29, x30, [sp],#16
/home/lagadanu/Desktop/qemu/optee_os/lib/libutee/tee_api.c:234
    18e8:	1400006c 	b	1a98 <TEE_Panic>
/home/lagadanu/Desktop/qemu/optee_os/lib/libutee/tee_api.c:235
    18ec:	a8c17bfd 	ldp	x29, x30, [sp],#16
    18f0:	d65f03c0 	ret

00000000000018f4 <TEE_Wait>:
TEE_Wait():
/home/lagadanu/Desktop/qemu/optee_os/lib/libutee/tee_api.c:238
    18f4:	a9be7bfd 	stp	x29, x30, [sp,#-32]!
/home/lagadanu/Desktop/qemu/optee_os/lib/libutee/tee_api.c:239
    18f8:	2a0003e0 	mov	w0, w0
/home/lagadanu/Desktop/qemu/optee_os/lib/libutee/tee_api.c:238
    18fc:	910003fd 	mov	x29, sp
    1900:	f9000bf3 	str	x19, [sp,#16]
/home/lagadanu/Desktop/qemu/optee_os/lib/libutee/tee_api.c:239
    1904:	9400013f 	bl	1e00 <utee_wait>
/home/lagadanu/Desktop/qemu/optee_os/lib/libutee/tee_api.c:241
    1908:	7100001f 	cmp	w0, #0x0
    190c:	129fffa1 	mov	w1, #0xffff0002            	// #-65534
/home/lagadanu/Desktop/qemu/optee_os/lib/libutee/tee_api.c:239
    1910:	2a0003f3 	mov	w19, w0
/home/lagadanu/Desktop/qemu/optee_os/lib/libutee/tee_api.c:241
    1914:	7a411004 	ccmp	w0, w1, #0x4, ne
    1918:	54000040 	b.eq	1920 <TEE_Wait+0x2c>
/home/lagadanu/Desktop/qemu/optee_os/lib/libutee/tee_api.c:242
    191c:	9400005f 	bl	1a98 <TEE_Panic>
/home/lagadanu/Desktop/qemu/optee_os/lib/libutee/tee_api.c:245
    1920:	2a1303e0 	mov	w0, w19
    1924:	f9400bf3 	ldr	x19, [sp,#16]
    1928:	a8c27bfd 	ldp	x29, x30, [sp],#32
    192c:	d65f03c0 	ret

0000000000001930 <TEE_GetTAPersistentTime>:
TEE_GetTAPersistentTime():
/home/lagadanu/Desktop/qemu/optee_os/lib/libutee/tee_api.c:248
    1930:	a9be7bfd 	stp	x29, x30, [sp,#-32]!
/home/lagadanu/Desktop/qemu/optee_os/lib/libutee/tee_api.c:251
    1934:	aa0003e1 	mov	x1, x0
/home/lagadanu/Desktop/qemu/optee_os/lib/libutee/tee_api.c:248
    1938:	910003fd 	mov	x29, sp
    193c:	a90153f3 	stp	x19, x20, [sp,#16]
    1940:	aa0003f4 	mov	x20, x0
/home/lagadanu/Desktop/qemu/optee_os/lib/libutee/tee_api.c:251
    1944:	d2800020 	mov	x0, #0x1                   	// #1
    1948:	94000131 	bl	1e0c <utee_get_time>
/home/lagadanu/Desktop/qemu/optee_os/lib/libutee/tee_api.c:253
    194c:	7100001f 	cmp	w0, #0x0
/home/lagadanu/Desktop/qemu/optee_os/lib/libutee/tee_api.c:251
    1950:	2a0003f3 	mov	w19, w0
/home/lagadanu/Desktop/qemu/optee_os/lib/libutee/tee_api.c:253
    1954:	1a9f07e1 	cset	w1, ne
    1958:	1299fe00 	mov	w0, #0xffff300f            	// #-53233
    195c:	6b00027f 	cmp	w19, w0
    1960:	1a9f07e0 	cset	w0, ne
    1964:	6a00003f 	tst	w1, w0
    1968:	54000040 	b.eq	1970 <TEE_GetTAPersistentTime+0x40>
/home/lagadanu/Desktop/qemu/optee_os/lib/libutee/tee_api.c:255
    196c:	29007e9f 	stp	wzr, wzr, [x20]
/home/lagadanu/Desktop/qemu/optee_os/lib/libutee/tee_api.c:259
    1970:	11402e62 	add	w2, w19, #0xb, lsl #12
    1974:	7100045f 	cmp	w2, #0x1
    1978:	1a9f97e2 	cset	w2, hi
/home/lagadanu/Desktop/qemu/optee_os/lib/libutee/tee_api.c:258
    197c:	6a02003f 	tst	w1, w2
    1980:	54000100 	b.eq	19a0 <TEE_GetTAPersistentTime+0x70>
/home/lagadanu/Desktop/qemu/optee_os/lib/libutee/tee_api.c:261
    1984:	129ffe61 	mov	w1, #0xffff000c            	// #-65524
    1988:	6b01027f 	cmp	w19, w1
    198c:	1a9f07e1 	cset	w1, ne
    1990:	6a01001f 	tst	w0, w1
    1994:	54000060 	b.eq	19a0 <TEE_GetTAPersistentTime+0x70>
/home/lagadanu/Desktop/qemu/optee_os/lib/libutee/tee_api.c:263
    1998:	2a1303e0 	mov	w0, w19
    199c:	9400003f 	bl	1a98 <TEE_Panic>
/home/lagadanu/Desktop/qemu/optee_os/lib/libutee/tee_api.c:266
    19a0:	2a1303e0 	mov	w0, w19
    19a4:	a94153f3 	ldp	x19, x20, [sp,#16]
    19a8:	a8c27bfd 	ldp	x29, x30, [sp],#32
    19ac:	d65f03c0 	ret

00000000000019b0 <TEE_SetTAPersistentTime>:
TEE_SetTAPersistentTime():
/home/lagadanu/Desktop/qemu/optee_os/lib/libutee/tee_api.c:269
    19b0:	a9be7bfd 	stp	x29, x30, [sp,#-32]!
    19b4:	910003fd 	mov	x29, sp
    19b8:	f9000bf3 	str	x19, [sp,#16]
/home/lagadanu/Desktop/qemu/optee_os/lib/libutee/tee_api.c:272
    19bc:	94000117 	bl	1e18 <utee_set_ta_time>
/home/lagadanu/Desktop/qemu/optee_os/lib/libutee/tee_api.c:275
    19c0:	7100001f 	cmp	w0, #0x0
    19c4:	129ffe61 	mov	w1, #0xffff000c            	// #-65524
    19c8:	7a411004 	ccmp	w0, w1, #0x4, ne
/home/lagadanu/Desktop/qemu/optee_os/lib/libutee/tee_api.c:272
    19cc:	2a0003f3 	mov	w19, w0
/home/lagadanu/Desktop/qemu/optee_os/lib/libutee/tee_api.c:275
    19d0:	1299f7c1 	mov	w1, #0xffff3041            	// #-53183
    19d4:	7a411004 	ccmp	w0, w1, #0x4, ne
    19d8:	54000040 	b.eq	19e0 <TEE_SetTAPersistentTime+0x30>
/home/lagadanu/Desktop/qemu/optee_os/lib/libutee/tee_api.c:277
    19dc:	9400002f 	bl	1a98 <TEE_Panic>
/home/lagadanu/Desktop/qemu/optee_os/lib/libutee/tee_api.c:280
    19e0:	2a1303e0 	mov	w0, w19
    19e4:	f9400bf3 	ldr	x19, [sp,#16]
    19e8:	a8c27bfd 	ldp	x29, x30, [sp],#32
    19ec:	d65f03c0 	ret

00000000000019f0 <TEE_GetREETime>:
TEE_GetREETime():
/home/lagadanu/Desktop/qemu/optee_os/lib/libutee/tee_api.c:283
    19f0:	a9bf7bfd 	stp	x29, x30, [sp,#-16]!
/home/lagadanu/Desktop/qemu/optee_os/lib/libutee/tee_api.c:284
    19f4:	aa0003e1 	mov	x1, x0
    19f8:	d2800040 	mov	x0, #0x2                   	// #2
/home/lagadanu/Desktop/qemu/optee_os/lib/libutee/tee_api.c:283
    19fc:	910003fd 	mov	x29, sp
/home/lagadanu/Desktop/qemu/optee_os/lib/libutee/tee_api.c:284
    1a00:	94000103 	bl	1e0c <utee_get_time>
/home/lagadanu/Desktop/qemu/optee_os/lib/libutee/tee_api.c:286
    1a04:	34000060 	cbz	w0, 1a10 <TEE_GetREETime+0x20>
/home/lagadanu/Desktop/qemu/optee_os/lib/libutee/tee_api.c:288
    1a08:	a8c17bfd 	ldp	x29, x30, [sp],#16
/home/lagadanu/Desktop/qemu/optee_os/lib/libutee/tee_api.c:287
    1a0c:	14000023 	b	1a98 <TEE_Panic>
/home/lagadanu/Desktop/qemu/optee_os/lib/libutee/tee_api.c:288
    1a10:	a8c17bfd 	ldp	x29, x30, [sp],#16
    1a14:	d65f03c0 	ret

0000000000001a18 <TEE_Malloc>:
TEE_Malloc():
/home/lagadanu/Desktop/qemu/optee_os/lib/libutee/tee_api.c:292
    1a18:	35000081 	cbnz	w1, 1a28 <TEE_Malloc+0x10>
/home/lagadanu/Desktop/qemu/optee_os/lib/libutee/tee_api.c:293
    1a1c:	2a0003e1 	mov	w1, w0
    1a20:	d2800020 	mov	x0, #0x1                   	// #1
    1a24:	14001495 	b	6c78 <calloc>
/home/lagadanu/Desktop/qemu/optee_os/lib/libutee/tee_api.c:294
    1a28:	52b00002 	mov	w2, #0x80000000            	// #-2147483648
    1a2c:	6b02003f 	cmp	w1, w2
    1a30:	54000061 	b.ne	1a3c <TEE_Malloc+0x24>
/home/lagadanu/Desktop/qemu/optee_os/lib/libutee/tee_api.c:295
    1a34:	2a0003e0 	mov	w0, w0
    1a38:	1400148a 	b	6c60 <malloc>
/home/lagadanu/Desktop/qemu/optee_os/lib/libutee/tee_api.c:291
    1a3c:	a9bf7bfd 	stp	x29, x30, [sp,#-16]!
    1a40:	2a0103e5 	mov	w5, w1
/home/lagadanu/Desktop/qemu/optee_os/lib/libutee/tee_api.c:297
    1a44:	52800023 	mov	w3, #0x1                   	// #1
    1a48:	52800022 	mov	w2, #0x1                   	// #1
/home/lagadanu/Desktop/qemu/optee_os/lib/libutee/tee_api.c:291
    1a4c:	910003fd 	mov	x29, sp
/home/lagadanu/Desktop/qemu/optee_os/lib/libutee/tee_api.c:297
    1a50:	52802521 	mov	w1, #0x129                 	// #297
    1a54:	f0000024 	adrp	x4, 8000 <PRIME_TABLE+0x7d8>
    1a58:	d0000020 	adrp	x0, 7000 <memalign+0x2bc>
    1a5c:	91205084 	add	x4, x4, #0x814
    1a60:	911fa000 	add	x0, x0, #0x7e8
    1a64:	97fffab7 	bl	540 <trace_printf>
/home/lagadanu/Desktop/qemu/optee_os/lib/libutee/tee_api.c:300
    1a68:	d2800000 	mov	x0, #0x0                   	// #0
    1a6c:	a8c17bfd 	ldp	x29, x30, [sp],#16
    1a70:	d65f03c0 	ret

0000000000001a74 <TEE_Realloc>:
TEE_Realloc():
/home/lagadanu/Desktop/qemu/optee_os/lib/libutee/tee_api.c:304
    1a74:	2a0103e1 	mov	w1, w1
    1a78:	1400149c 	b	6ce8 <realloc>

0000000000001a7c <TEE_Free>:
TEE_Free():
/home/lagadanu/Desktop/qemu/optee_os/lib/libutee/tee_api.c:309
    1a7c:	1400147a 	b	6c64 <free>

0000000000001a80 <TEE_CacheClean>:
TEE_CacheClean():
/home/lagadanu/Desktop/qemu/optee_os/lib/libutee/tee_api.c:315
    1a80:	d2800002 	mov	x2, #0x0                   	// #0
    1a84:	1400018d 	b	20b8 <utee_cache_operation>

0000000000001a88 <TEE_CacheFlush>:
TEE_CacheFlush():
/home/lagadanu/Desktop/qemu/optee_os/lib/libutee/tee_api.c:319
    1a88:	d2800022 	mov	x2, #0x1                   	// #1
    1a8c:	1400018b 	b	20b8 <utee_cache_operation>

0000000000001a90 <TEE_CacheInvalidate>:
TEE_CacheInvalidate():
/home/lagadanu/Desktop/qemu/optee_os/lib/libutee/tee_api.c:324
    1a90:	d2800042 	mov	x2, #0x2                   	// #2
    1a94:	14000189 	b	20b8 <utee_cache_operation>

0000000000001a98 <TEE_Panic>:
TEE_Panic():
/home/lagadanu/Desktop/qemu/optee_os/lib/libutee/tee_api_panic.c:12
    1a98:	2a0003e0 	mov	w0, w0
    1a9c:	140000b2 	b	1d64 <utee_panic>

0000000000001aa0 <ta_header_get_session>:
ta_header_get_session():
/home/lagadanu/Desktop/qemu/optee_os/lib/libutee/arch/arm/user_ta_entry.c:78
    1aa0:	2a0003e1 	mov	w1, w0
/home/lagadanu/Desktop/qemu/optee_os/lib/libutee/arch/arm/user_ta_entry.c:81
    1aa4:	b0000040 	adrp	x0, a000 <ta_props>
    1aa8:	f9405800 	ldr	x0, [x0,#176]
/home/lagadanu/Desktop/qemu/optee_os/lib/libutee/arch/arm/user_ta_entry.c:81 (discriminator 1)
    1aac:	b5000040 	cbnz	x0, 1ab4 <ta_header_get_session+0x14>
/home/lagadanu/Desktop/qemu/optee_os/lib/libutee/arch/arm/user_ta_entry.c:86
    1ab0:	d65f03c0 	ret
/home/lagadanu/Desktop/qemu/optee_os/lib/libutee/arch/arm/user_ta_entry.c:82
    1ab4:	b9400002 	ldr	w2, [x0]
    1ab8:	6b01005f 	cmp	w2, w1
    1abc:	54ffffa0 	b.eq	1ab0 <ta_header_get_session+0x10>
/home/lagadanu/Desktop/qemu/optee_os/lib/libutee/arch/arm/user_ta_entry.c:81 (discriminator 2)
    1ac0:	f9400800 	ldr	x0, [x0,#16]
    1ac4:	17fffffa 	b	1aac <ta_header_get_session+0xc>

0000000000001ac8 <ta_header_remove_session>:
ta_header_remove_session():
/home/lagadanu/Desktop/qemu/optee_os/lib/libutee/arch/arm/user_ta_entry.c:115
    1ac8:	a9be7bfd 	stp	x29, x30, [sp,#-32]!
    1acc:	2a0003e2 	mov	w2, w0
    1ad0:	910003fd 	mov	x29, sp
    1ad4:	f9000bf3 	str	x19, [sp,#16]
/home/lagadanu/Desktop/qemu/optee_os/lib/libutee/arch/arm/user_ta_entry.c:119
    1ad8:	b0000053 	adrp	x19, a000 <ta_props>
    1adc:	f9405a60 	ldr	x0, [x19,#176]
/home/lagadanu/Desktop/qemu/optee_os/lib/libutee/arch/arm/user_ta_entry.c:119 (discriminator 1)
    1ae0:	b5000080 	cbnz	x0, 1af0 <ta_header_remove_session+0x28>
/home/lagadanu/Desktop/qemu/optee_os/lib/libutee/arch/arm/user_ta_entry.c:133
    1ae4:	f9400bf3 	ldr	x19, [sp,#16]
    1ae8:	a8c27bfd 	ldp	x29, x30, [sp],#32
    1aec:	d65f03c0 	ret
/home/lagadanu/Desktop/qemu/optee_os/lib/libutee/arch/arm/user_ta_entry.c:120
    1af0:	b9400001 	ldr	w1, [x0]
    1af4:	6b02003f 	cmp	w1, w2
    1af8:	f9400801 	ldr	x1, [x0,#16]
    1afc:	540002c1 	b.ne	1b54 <ta_header_remove_session+0x8c>
    1b00:	f9400c02 	ldr	x2, [x0,#24]
/home/lagadanu/Desktop/qemu/optee_os/lib/libutee/arch/arm/user_ta_entry.c:121
    1b04:	b4000221 	cbz	x1, 1b48 <ta_header_remove_session+0x80>
/home/lagadanu/Desktop/qemu/optee_os/lib/libutee/arch/arm/user_ta_entry.c:121 (discriminator 1)
    1b08:	f9000c22 	str	x2, [x1,#24]
/home/lagadanu/Desktop/qemu/optee_os/lib/libutee/arch/arm/user_ta_entry.c:121 (discriminator 4)
    1b0c:	f9400c02 	ldr	x2, [x0,#24]
    1b10:	f9000041 	str	x1, [x2]
/home/lagadanu/Desktop/qemu/optee_os/lib/libutee/arch/arm/user_ta_entry.c:122 (discriminator 4)
    1b14:	97ffffda 	bl	1a7c <TEE_Free>
/home/lagadanu/Desktop/qemu/optee_os/lib/libutee/arch/arm/user_ta_entry.c:125 (discriminator 4)
    1b18:	f0000020 	adrp	x0, 8000 <PRIME_TABLE+0x7d8>
/home/lagadanu/Desktop/qemu/optee_os/lib/libutee/arch/arm/user_ta_entry.c:127 (discriminator 4)
    1b1c:	f9405a61 	ldr	x1, [x19,#176]
/home/lagadanu/Desktop/qemu/optee_os/lib/libutee/arch/arm/user_ta_entry.c:125 (discriminator 4)
    1b20:	52800282 	mov	w2, #0x14                  	// #20
    1b24:	f947b000 	ldr	x0, [x0,#3936]
/home/lagadanu/Desktop/qemu/optee_os/lib/libutee/arch/arm/user_ta_entry.c:127 (discriminator 4)
    1b28:	f100003f 	cmp	x1, #0x0
/home/lagadanu/Desktop/qemu/optee_os/lib/libutee/arch/arm/user_ta_entry.c:125 (discriminator 4)
    1b2c:	b9401400 	ldr	w0, [x0,#20]
    1b30:	0a020000 	and	w0, w0, w2
/home/lagadanu/Desktop/qemu/optee_os/lib/libutee/arch/arm/user_ta_entry.c:127 (discriminator 4)
    1b34:	7a420004 	ccmp	w0, w2, #0x4, eq
    1b38:	54fffd60 	b.eq	1ae4 <ta_header_remove_session+0x1c>
/home/lagadanu/Desktop/qemu/optee_os/lib/libutee/arch/arm/user_ta_entry.c:133
    1b3c:	f9400bf3 	ldr	x19, [sp,#16]
    1b40:	a8c27bfd 	ldp	x29, x30, [sp],#32
uninit_instance():
/home/lagadanu/Desktop/qemu/optee_os/lib/libutee/arch/arm/user_ta_entry.c:63
    1b44:	17fff9c2 	b	24c <TA_DestroyEntryPoint>
ta_header_remove_session():
/home/lagadanu/Desktop/qemu/optee_os/lib/libutee/arch/arm/user_ta_entry.c:121 (discriminator 2)
    1b48:	9102c263 	add	x3, x19, #0xb0
    1b4c:	f9000462 	str	x2, [x3,#8]
    1b50:	17ffffef 	b	1b0c <ta_header_remove_session+0x44>
/home/lagadanu/Desktop/qemu/optee_os/lib/libutee/arch/arm/user_ta_entry.c:119 (discriminator 2)
    1b54:	aa0103e0 	mov	x0, x1
    1b58:	17ffffe2 	b	1ae0 <ta_header_remove_session+0x18>

0000000000001b5c <__utee_entry>:
__utee_entry():
/home/lagadanu/Desktop/qemu/optee_os/lib/libutee/arch/arm/user_ta_entry.c:200
    1b5c:	a9b77bfd 	stp	x29, x30, [sp,#-144]!
/home/lagadanu/Desktop/qemu/optee_os/lib/libutee/arch/arm/user_ta_entry.c:211
    1b60:	f100041f 	cmp	x0, #0x1
/home/lagadanu/Desktop/qemu/optee_os/lib/libutee/arch/arm/user_ta_entry.c:200
    1b64:	910003fd 	mov	x29, sp
    1b68:	a90153f3 	stp	x19, x20, [sp,#16]
    1b6c:	aa0103f4 	mov	x20, x1
    1b70:	a9025bf5 	stp	x21, x22, [sp,#32]
    1b74:	f9001bf7 	str	x23, [sp,#48]
/home/lagadanu/Desktop/qemu/optee_os/lib/libutee/arch/arm/user_ta_entry.c:211
    1b78:	54000a60 	b.eq	1cc4 <__utee_entry+0x168>
    1b7c:	aa0203f6 	mov	x22, x2
    1b80:	b40000e0 	cbz	x0, 1b9c <__utee_entry+0x40>
    1b84:	f100081f 	cmp	x0, #0x2
    1b88:	54000b20 	b.eq	1cec <__utee_entry+0x190>
/home/lagadanu/Desktop/qemu/optee_os/lib/libutee/arch/arm/user_ta_entry.c:223
    1b8c:	52800000 	mov	w0, #0x0                   	// #0
/home/lagadanu/Desktop/qemu/optee_os/lib/libutee/arch/arm/user_ta_entry.c:222
    1b90:	12800013 	mov	w19, #0xffffffff            	// #-1
/home/lagadanu/Desktop/qemu/optee_os/lib/libutee/arch/arm/user_ta_entry.c:223
    1b94:	97ffffc1 	bl	1a98 <TEE_Panic>
/home/lagadanu/Desktop/qemu/optee_os/lib/libutee/arch/arm/user_ta_entry.c:224
    1b98:	1400000c 	b	1bc8 <__utee_entry+0x6c>
ta_header_add_session():
/home/lagadanu/Desktop/qemu/optee_os/lib/libutee/arch/arm/user_ta_entry.c:90
    1b9c:	2a0103e0 	mov	w0, w1
    1ba0:	97ffffc0 	bl	1aa0 <ta_header_get_session>
/home/lagadanu/Desktop/qemu/optee_os/lib/libutee/arch/arm/user_ta_entry.c:93
    1ba4:	b5000520 	cbnz	x0, 1c48 <__utee_entry+0xec>
/home/lagadanu/Desktop/qemu/optee_os/lib/libutee/arch/arm/user_ta_entry.c:96
    1ba8:	f0000080 	adrp	x0, 14000 <buf.3610+0x508>
    1bac:	396d2001 	ldrb	w1, [x0,#2888]
    1bb0:	340001e1 	cbz	w1, 1bec <__utee_entry+0x90>
/home/lagadanu/Desktop/qemu/optee_os/lib/libutee/arch/arm/user_ta_entry.c:103
    1bb4:	52b00001 	mov	w1, #0x80000000            	// #-2147483648
    1bb8:	52800400 	mov	w0, #0x20                  	// #32
/home/lagadanu/Desktop/qemu/optee_os/lib/libutee/arch/arm/user_ta_entry.c:106
    1bbc:	129ffe73 	mov	w19, #0xffff000c            	// #-65524
/home/lagadanu/Desktop/qemu/optee_os/lib/libutee/arch/arm/user_ta_entry.c:103
    1bc0:	97ffff96 	bl	1a18 <TEE_Malloc>
/home/lagadanu/Desktop/qemu/optee_os/lib/libutee/arch/arm/user_ta_entry.c:105
    1bc4:	b5000300 	cbnz	x0, 1c24 <__utee_entry+0xc8>
ta_header_save_params():
/home/lagadanu/Desktop/qemu/optee_os/lib/libutee/arch/arm/user_ta_entry.c:69
    1bc8:	f0000020 	adrp	x0, 8000 <PRIME_TABLE+0x7d8>
/home/lagadanu/Desktop/qemu/optee_os/lib/libutee/arch/arm/user_ta_entry.c:74
    1bcc:	d2800802 	mov	x2, #0x40                  	// #64
/home/lagadanu/Desktop/qemu/optee_os/lib/libutee/arch/arm/user_ta_entry.c:69
    1bd0:	f947a401 	ldr	x1, [x0,#3912]
/home/lagadanu/Desktop/qemu/optee_os/lib/libutee/arch/arm/user_ta_entry.c:74
    1bd4:	f947ac00 	ldr	x0, [x0,#3928]
/home/lagadanu/Desktop/qemu/optee_os/lib/libutee/arch/arm/user_ta_entry.c:69
    1bd8:	b900003f 	str	wzr, [x1]
/home/lagadanu/Desktop/qemu/optee_os/lib/libutee/arch/arm/user_ta_entry.c:74
    1bdc:	52800001 	mov	w1, #0x0                   	// #0
    1be0:	9400165d 	bl	7554 <memset>
__utee_entry():
/home/lagadanu/Desktop/qemu/optee_os/lib/libutee/arch/arm/user_ta_entry.c:227
    1be4:	2a1303e0 	mov	w0, w19
    1be8:	94000062 	bl	1d70 <utee_return>
ta_header_add_session():
/home/lagadanu/Desktop/qemu/optee_os/lib/libutee/arch/arm/user_ta_entry.c:97
    1bec:	52800021 	mov	w1, #0x1                   	// #1
    1bf0:	392d2001 	strb	w1, [x0,#2888]
init_instance():
/home/lagadanu/Desktop/qemu/optee_os/lib/libutee/arch/arm/user_ta_entry.c:53
    1bf4:	97fffa3c 	bl	4e4 <tahead_get_trace_level>
    1bf8:	97fffa45 	bl	50c <trace_set_level>
/home/lagadanu/Desktop/qemu/optee_os/lib/libutee/arch/arm/user_ta_entry.c:55
    1bfc:	f0000020 	adrp	x0, 8000 <PRIME_TABLE+0x7d8>
    1c00:	f9479001 	ldr	x1, [x0,#3872]
    1c04:	f947a000 	ldr	x0, [x0,#3904]
    1c08:	f9400021 	ldr	x1, [x1]
    1c0c:	94001538 	bl	70ec <malloc_add_pool>
/home/lagadanu/Desktop/qemu/optee_os/lib/libutee/arch/arm/user_ta_entry.c:56
    1c10:	9400012e 	bl	20c8 <_TEE_MathAPI_Init>
/home/lagadanu/Desktop/qemu/optee_os/lib/libutee/arch/arm/user_ta_entry.c:57
    1c14:	97fff98c 	bl	244 <TA_CreateEntryPoint>
    1c18:	2a0003f3 	mov	w19, w0
ta_header_add_session():
/home/lagadanu/Desktop/qemu/optee_os/lib/libutee/arch/arm/user_ta_entry.c:99
    1c1c:	34fffcc0 	cbz	w0, 1bb4 <__utee_entry+0x58>
    1c20:	17ffffea 	b	1bc8 <__utee_entry+0x6c>
/home/lagadanu/Desktop/qemu/optee_os/lib/libutee/arch/arm/user_ta_entry.c:109
    1c24:	b0000041 	adrp	x1, a000 <ta_props>
    1c28:	9102c021 	add	x1, x1, #0xb0
    1c2c:	f9400422 	ldr	x2, [x1,#8]
    1c30:	f9000c02 	str	x2, [x0,#24]
/home/lagadanu/Desktop/qemu/optee_os/lib/libutee/arch/arm/user_ta_entry.c:107
    1c34:	b9000014 	str	w20, [x0]
/home/lagadanu/Desktop/qemu/optee_os/lib/libutee/arch/arm/user_ta_entry.c:109
    1c38:	a900fc1f 	stp	xzr, xzr, [x0,#8]
    1c3c:	f9000040 	str	x0, [x2]
    1c40:	91004000 	add	x0, x0, #0x10
    1c44:	f9000420 	str	x0, [x1,#8]
entry_open_session():
/home/lagadanu/Desktop/qemu/optee_os/lib/libutee/arch/arm/user_ta_entry.c:147
    1c48:	2a1403e0 	mov	w0, w20
/home/lagadanu/Desktop/qemu/optee_os/lib/libutee/arch/arm/user_ta_entry.c:149
    1c4c:	129fff13 	mov	w19, #0xffff0007            	// #-65529
/home/lagadanu/Desktop/qemu/optee_os/lib/libutee/arch/arm/user_ta_entry.c:147
    1c50:	97ffff94 	bl	1aa0 <ta_header_get_session>
    1c54:	aa0003f7 	mov	x23, x0
/home/lagadanu/Desktop/qemu/optee_os/lib/libutee/arch/arm/user_ta_entry.c:148
    1c58:	b4fffb80 	cbz	x0, 1bc8 <__utee_entry+0x6c>
/home/lagadanu/Desktop/qemu/optee_os/lib/libutee/arch/arm/user_ta_entry.c:151
    1c5c:	910143b5 	add	x21, x29, #0x50
    1c60:	aa1603e2 	mov	x2, x22
    1c64:	910133a1 	add	x1, x29, #0x4c
    1c68:	aa1503e0 	mov	x0, x21
    1c6c:	97fffe70 	bl	162c <__utee_to_param>
/home/lagadanu/Desktop/qemu/optee_os/lib/libutee/arch/arm/user_ta_entry.c:152
    1c70:	b9404fb3 	ldr	w19, [x29,#76]
ta_header_save_params():
/home/lagadanu/Desktop/qemu/optee_os/lib/libutee/arch/arm/user_ta_entry.c:69
    1c74:	f0000020 	adrp	x0, 8000 <PRIME_TABLE+0x7d8>
/home/lagadanu/Desktop/qemu/optee_os/lib/libutee/arch/arm/user_ta_entry.c:72
    1c78:	d2800802 	mov	x2, #0x40                  	// #64
/home/lagadanu/Desktop/qemu/optee_os/lib/libutee/arch/arm/user_ta_entry.c:69
    1c7c:	f947a401 	ldr	x1, [x0,#3912]
/home/lagadanu/Desktop/qemu/optee_os/lib/libutee/arch/arm/user_ta_entry.c:72
    1c80:	f947ac00 	ldr	x0, [x0,#3928]
/home/lagadanu/Desktop/qemu/optee_os/lib/libutee/arch/arm/user_ta_entry.c:69
    1c84:	b9000033 	str	w19, [x1]
/home/lagadanu/Desktop/qemu/optee_os/lib/libutee/arch/arm/user_ta_entry.c:72
    1c88:	aa1503e1 	mov	x1, x21
    1c8c:	97fffa18 	bl	4ec <memcpy>
entry_open_session():
/home/lagadanu/Desktop/qemu/optee_os/lib/libutee/arch/arm/user_ta_entry.c:154
    1c90:	910022e2 	add	x2, x23, #0x8
    1c94:	aa1503e1 	mov	x1, x21
    1c98:	2a1303e0 	mov	w0, w19
    1c9c:	97fff96d 	bl	250 <TA_OpenSessionEntryPoint>
/home/lagadanu/Desktop/qemu/optee_os/lib/libutee/arch/arm/user_ta_entry.c:157
    1ca0:	b9404fa1 	ldr	w1, [x29,#76]
/home/lagadanu/Desktop/qemu/optee_os/lib/libutee/arch/arm/user_ta_entry.c:154
    1ca4:	2a0003f3 	mov	w19, w0
/home/lagadanu/Desktop/qemu/optee_os/lib/libutee/arch/arm/user_ta_entry.c:157
    1ca8:	aa1503e2 	mov	x2, x21
    1cac:	aa1603e0 	mov	x0, x22
    1cb0:	97fffe41 	bl	15b4 <__utee_from_param>
/home/lagadanu/Desktop/qemu/optee_os/lib/libutee/arch/arm/user_ta_entry.c:159
    1cb4:	34fff8b3 	cbz	w19, 1bc8 <__utee_entry+0x6c>
/home/lagadanu/Desktop/qemu/optee_os/lib/libutee/arch/arm/user_ta_entry.c:160
    1cb8:	2a1403e0 	mov	w0, w20
    1cbc:	97ffff83 	bl	1ac8 <ta_header_remove_session>
    1cc0:	17ffffc2 	b	1bc8 <__utee_entry+0x6c>
entry_close_session():
/home/lagadanu/Desktop/qemu/optee_os/lib/libutee/arch/arm/user_ta_entry.c:166
    1cc4:	2a0103e0 	mov	w0, w1
/home/lagadanu/Desktop/qemu/optee_os/lib/libutee/arch/arm/user_ta_entry.c:169
    1cc8:	129fff13 	mov	w19, #0xffff0007            	// #-65529
/home/lagadanu/Desktop/qemu/optee_os/lib/libutee/arch/arm/user_ta_entry.c:166
    1ccc:	97ffff75 	bl	1aa0 <ta_header_get_session>
/home/lagadanu/Desktop/qemu/optee_os/lib/libutee/arch/arm/user_ta_entry.c:168
    1cd0:	b4fff7c0 	cbz	x0, 1bc8 <__utee_entry+0x6c>
/home/lagadanu/Desktop/qemu/optee_os/lib/libutee/arch/arm/user_ta_entry.c:171
    1cd4:	f9400400 	ldr	x0, [x0,#8]
/home/lagadanu/Desktop/qemu/optee_os/lib/libutee/arch/arm/user_ta_entry.c:174
    1cd8:	52800013 	mov	w19, #0x0                   	// #0
/home/lagadanu/Desktop/qemu/optee_os/lib/libutee/arch/arm/user_ta_entry.c:171
    1cdc:	97fff95f 	bl	258 <TA_CloseSessionEntryPoint>
/home/lagadanu/Desktop/qemu/optee_os/lib/libutee/arch/arm/user_ta_entry.c:173
    1ce0:	2a1403e0 	mov	w0, w20
    1ce4:	97ffff79 	bl	1ac8 <ta_header_remove_session>
    1ce8:	17ffffb8 	b	1bc8 <__utee_entry+0x6c>
entry_invoke_command():
/home/lagadanu/Desktop/qemu/optee_os/lib/libutee/arch/arm/user_ta_entry.c:183
    1cec:	2a0103e0 	mov	w0, w1
/home/lagadanu/Desktop/qemu/optee_os/lib/libutee/arch/arm/user_ta_entry.c:186
    1cf0:	129fff13 	mov	w19, #0xffff0007            	// #-65529
/home/lagadanu/Desktop/qemu/optee_os/lib/libutee/arch/arm/user_ta_entry.c:183
    1cf4:	97ffff6b 	bl	1aa0 <ta_header_get_session>
    1cf8:	aa0003f5 	mov	x21, x0
/home/lagadanu/Desktop/qemu/optee_os/lib/libutee/arch/arm/user_ta_entry.c:185
    1cfc:	b4fff660 	cbz	x0, 1bc8 <__utee_entry+0x6c>
/home/lagadanu/Desktop/qemu/optee_os/lib/libutee/arch/arm/user_ta_entry.c:188
    1d00:	910143b4 	add	x20, x29, #0x50
    1d04:	aa0303f7 	mov	x23, x3
    1d08:	aa1603e2 	mov	x2, x22
    1d0c:	910133a1 	add	x1, x29, #0x4c
    1d10:	aa1403e0 	mov	x0, x20
    1d14:	97fffe46 	bl	162c <__utee_to_param>
ta_header_save_params():
/home/lagadanu/Desktop/qemu/optee_os/lib/libutee/arch/arm/user_ta_entry.c:69
    1d18:	f0000020 	adrp	x0, 8000 <PRIME_TABLE+0x7d8>
entry_invoke_command():
/home/lagadanu/Desktop/qemu/optee_os/lib/libutee/arch/arm/user_ta_entry.c:189
    1d1c:	b9404fb3 	ldr	w19, [x29,#76]
ta_header_save_params():
/home/lagadanu/Desktop/qemu/optee_os/lib/libutee/arch/arm/user_ta_entry.c:72
    1d20:	d2800802 	mov	x2, #0x40                  	// #64
/home/lagadanu/Desktop/qemu/optee_os/lib/libutee/arch/arm/user_ta_entry.c:69
    1d24:	f947a401 	ldr	x1, [x0,#3912]
/home/lagadanu/Desktop/qemu/optee_os/lib/libutee/arch/arm/user_ta_entry.c:72
    1d28:	f947ac00 	ldr	x0, [x0,#3928]
/home/lagadanu/Desktop/qemu/optee_os/lib/libutee/arch/arm/user_ta_entry.c:69
    1d2c:	b9000033 	str	w19, [x1]
/home/lagadanu/Desktop/qemu/optee_os/lib/libutee/arch/arm/user_ta_entry.c:72
    1d30:	aa1403e1 	mov	x1, x20
    1d34:	97fff9ee 	bl	4ec <memcpy>
entry_invoke_command():
/home/lagadanu/Desktop/qemu/optee_os/lib/libutee/arch/arm/user_ta_entry.c:191
    1d38:	f94006a0 	ldr	x0, [x21,#8]
    1d3c:	2a1303e2 	mov	w2, w19
    1d40:	2a1703e1 	mov	w1, w23
    1d44:	aa1403e3 	mov	x3, x20
    1d48:	97fff945 	bl	25c <TA_InvokeCommandEntryPoint>
    1d4c:	2a0003f3 	mov	w19, w0
/home/lagadanu/Desktop/qemu/optee_os/lib/libutee/arch/arm/user_ta_entry.c:194
    1d50:	b9404fa1 	ldr	w1, [x29,#76]
    1d54:	aa1403e2 	mov	x2, x20
    1d58:	aa1603e0 	mov	x0, x22
    1d5c:	97fffe16 	bl	15b4 <__utee_from_param>
    1d60:	17ffff9a 	b	1bc8 <__utee_entry+0x6c>

0000000000001d64 <utee_panic>:
utee_panic():
/home/lagadanu/Desktop/qemu/optee_os/lib/libutee/arch/arm/utee_syscalls_a64.S:24
    1d64:	a9bf7bfd 	stp	x29, x30, [sp,#-16]!
/home/lagadanu/Desktop/qemu/optee_os/lib/libutee/arch/arm/utee_syscalls_a64.S:25
    1d68:	910003e1 	mov	x1, sp
/home/lagadanu/Desktop/qemu/optee_os/lib/libutee/arch/arm/utee_syscalls_a64.S:26
    1d6c:	94000007 	bl	1d88 <__utee_panic>

0000000000001d70 <utee_return>:
utee_return():
/home/lagadanu/Desktop/qemu/optee_os/lib/libutee/arch/arm/utee_syscalls_asm.S:8
    1d70:	d2800008 	mov	x8, #0x0                   	// #0
    1d74:	d4000001 	svc	#0x0
    1d78:	d65f03c0 	ret

0000000000001d7c <utee_log>:
utee_log():
/home/lagadanu/Desktop/qemu/optee_os/lib/libutee/arch/arm/utee_syscalls_asm.S:10
    1d7c:	d2800028 	mov	x8, #0x1                   	// #1
    1d80:	d4000001 	svc	#0x0
    1d84:	d65f03c0 	ret

0000000000001d88 <__utee_panic>:
__utee_panic():
/home/lagadanu/Desktop/qemu/optee_os/lib/libutee/arch/arm/utee_syscalls_asm.S:12
    1d88:	d2800048 	mov	x8, #0x2                   	// #2
    1d8c:	d4000001 	svc	#0x0
    1d90:	d65f03c0 	ret

0000000000001d94 <utee_get_property>:
utee_get_property():
/home/lagadanu/Desktop/qemu/optee_os/lib/libutee/arch/arm/utee_syscalls_asm.S:14
    1d94:	d2800068 	mov	x8, #0x3                   	// #3
    1d98:	d4000001 	svc	#0x0
    1d9c:	d65f03c0 	ret

0000000000001da0 <utee_get_property_name_to_index>:
utee_get_property_name_to_index():
/home/lagadanu/Desktop/qemu/optee_os/lib/libutee/arch/arm/utee_syscalls_asm.S:16
    1da0:	d2800088 	mov	x8, #0x4                   	// #4
    1da4:	d4000001 	svc	#0x0
    1da8:	d65f03c0 	ret

0000000000001dac <utee_open_ta_session>:
utee_open_ta_session():
/home/lagadanu/Desktop/qemu/optee_os/lib/libutee/arch/arm/utee_syscalls_asm.S:19
    1dac:	d28000a8 	mov	x8, #0x5                   	// #5
    1db0:	d4000001 	svc	#0x0
    1db4:	d65f03c0 	ret

0000000000001db8 <utee_close_ta_session>:
utee_close_ta_session():
/home/lagadanu/Desktop/qemu/optee_os/lib/libutee/arch/arm/utee_syscalls_asm.S:21
    1db8:	d28000c8 	mov	x8, #0x6                   	// #6
    1dbc:	d4000001 	svc	#0x0
    1dc0:	d65f03c0 	ret

0000000000001dc4 <utee_invoke_ta_command>:
utee_invoke_ta_command():
/home/lagadanu/Desktop/qemu/optee_os/lib/libutee/arch/arm/utee_syscalls_asm.S:23
    1dc4:	d28000e8 	mov	x8, #0x7                   	// #7
    1dc8:	d4000001 	svc	#0x0
    1dcc:	d65f03c0 	ret

0000000000001dd0 <utee_get_cancellation_flag>:
utee_get_cancellation_flag():
/home/lagadanu/Desktop/qemu/optee_os/lib/libutee/arch/arm/utee_syscalls_asm.S:25
    1dd0:	d2800128 	mov	x8, #0x9                   	// #9
    1dd4:	d4000001 	svc	#0x0
    1dd8:	d65f03c0 	ret

0000000000001ddc <utee_check_access_rights>:
utee_check_access_rights():
/home/lagadanu/Desktop/qemu/optee_os/lib/libutee/arch/arm/utee_syscalls_asm.S:28
    1ddc:	d2800108 	mov	x8, #0x8                   	// #8
    1de0:	d4000001 	svc	#0x0
    1de4:	d65f03c0 	ret

0000000000001de8 <utee_unmask_cancellation>:
utee_unmask_cancellation():
/home/lagadanu/Desktop/qemu/optee_os/lib/libutee/arch/arm/utee_syscalls_asm.S:30
    1de8:	d2800148 	mov	x8, #0xa                   	// #10
    1dec:	d4000001 	svc	#0x0
    1df0:	d65f03c0 	ret

0000000000001df4 <utee_mask_cancellation>:
utee_mask_cancellation():
/home/lagadanu/Desktop/qemu/optee_os/lib/libutee/arch/arm/utee_syscalls_asm.S:32
    1df4:	d2800168 	mov	x8, #0xb                   	// #11
    1df8:	d4000001 	svc	#0x0
    1dfc:	d65f03c0 	ret

0000000000001e00 <utee_wait>:
utee_wait():
/home/lagadanu/Desktop/qemu/optee_os/lib/libutee/arch/arm/utee_syscalls_asm.S:34
    1e00:	d2800188 	mov	x8, #0xc                   	// #12
    1e04:	d4000001 	svc	#0x0
    1e08:	d65f03c0 	ret

0000000000001e0c <utee_get_time>:
utee_get_time():
/home/lagadanu/Desktop/qemu/optee_os/lib/libutee/arch/arm/utee_syscalls_asm.S:36
    1e0c:	d28001a8 	mov	x8, #0xd                   	// #13
    1e10:	d4000001 	svc	#0x0
    1e14:	d65f03c0 	ret

0000000000001e18 <utee_set_ta_time>:
utee_set_ta_time():
/home/lagadanu/Desktop/qemu/optee_os/lib/libutee/arch/arm/utee_syscalls_asm.S:38
    1e18:	d28001c8 	mov	x8, #0xe                   	// #14
    1e1c:	d4000001 	svc	#0x0
    1e20:	d65f03c0 	ret

0000000000001e24 <utee_cryp_state_alloc>:
utee_cryp_state_alloc():
/home/lagadanu/Desktop/qemu/optee_os/lib/libutee/arch/arm/utee_syscalls_asm.S:40
    1e24:	d28001e8 	mov	x8, #0xf                   	// #15
    1e28:	d4000001 	svc	#0x0
    1e2c:	d65f03c0 	ret

0000000000001e30 <utee_cryp_state_copy>:
utee_cryp_state_copy():
/home/lagadanu/Desktop/qemu/optee_os/lib/libutee/arch/arm/utee_syscalls_asm.S:42
    1e30:	d2800208 	mov	x8, #0x10                  	// #16
    1e34:	d4000001 	svc	#0x0
    1e38:	d65f03c0 	ret

0000000000001e3c <utee_cryp_state_free>:
utee_cryp_state_free():
/home/lagadanu/Desktop/qemu/optee_os/lib/libutee/arch/arm/utee_syscalls_asm.S:44
    1e3c:	d2800228 	mov	x8, #0x11                  	// #17
    1e40:	d4000001 	svc	#0x0
    1e44:	d65f03c0 	ret

0000000000001e48 <utee_hash_init>:
utee_hash_init():
/home/lagadanu/Desktop/qemu/optee_os/lib/libutee/arch/arm/utee_syscalls_asm.S:46
    1e48:	d2800248 	mov	x8, #0x12                  	// #18
    1e4c:	d4000001 	svc	#0x0
    1e50:	d65f03c0 	ret

0000000000001e54 <utee_hash_update>:
utee_hash_update():
/home/lagadanu/Desktop/qemu/optee_os/lib/libutee/arch/arm/utee_syscalls_asm.S:48
    1e54:	d2800268 	mov	x8, #0x13                  	// #19
    1e58:	d4000001 	svc	#0x0
    1e5c:	d65f03c0 	ret

0000000000001e60 <utee_hash_final>:
utee_hash_final():
/home/lagadanu/Desktop/qemu/optee_os/lib/libutee/arch/arm/utee_syscalls_asm.S:50
    1e60:	d2800288 	mov	x8, #0x14                  	// #20
    1e64:	d4000001 	svc	#0x0
    1e68:	d65f03c0 	ret

0000000000001e6c <utee_cipher_init>:
utee_cipher_init():
/home/lagadanu/Desktop/qemu/optee_os/lib/libutee/arch/arm/utee_syscalls_asm.S:52
    1e6c:	d28002a8 	mov	x8, #0x15                  	// #21
    1e70:	d4000001 	svc	#0x0
    1e74:	d65f03c0 	ret

0000000000001e78 <utee_cipher_update>:
utee_cipher_update():
/home/lagadanu/Desktop/qemu/optee_os/lib/libutee/arch/arm/utee_syscalls_asm.S:54
    1e78:	d28002c8 	mov	x8, #0x16                  	// #22
    1e7c:	d4000001 	svc	#0x0
    1e80:	d65f03c0 	ret

0000000000001e84 <utee_cipher_final>:
utee_cipher_final():
/home/lagadanu/Desktop/qemu/optee_os/lib/libutee/arch/arm/utee_syscalls_asm.S:56
    1e84:	d28002e8 	mov	x8, #0x17                  	// #23
    1e88:	d4000001 	svc	#0x0
    1e8c:	d65f03c0 	ret

0000000000001e90 <utee_cryp_obj_get_info>:
utee_cryp_obj_get_info():
/home/lagadanu/Desktop/qemu/optee_os/lib/libutee/arch/arm/utee_syscalls_asm.S:58
    1e90:	d2800308 	mov	x8, #0x18                  	// #24
    1e94:	d4000001 	svc	#0x0
    1e98:	d65f03c0 	ret

0000000000001e9c <utee_cryp_obj_restrict_usage>:
utee_cryp_obj_restrict_usage():
/home/lagadanu/Desktop/qemu/optee_os/lib/libutee/arch/arm/utee_syscalls_asm.S:60
    1e9c:	d2800328 	mov	x8, #0x19                  	// #25
    1ea0:	d4000001 	svc	#0x0
    1ea4:	d65f03c0 	ret

0000000000001ea8 <utee_cryp_obj_get_attr>:
utee_cryp_obj_get_attr():
/home/lagadanu/Desktop/qemu/optee_os/lib/libutee/arch/arm/utee_syscalls_asm.S:63
    1ea8:	d2800348 	mov	x8, #0x1a                  	// #26
    1eac:	d4000001 	svc	#0x0
    1eb0:	d65f03c0 	ret

0000000000001eb4 <utee_cryp_obj_alloc>:
utee_cryp_obj_alloc():
/home/lagadanu/Desktop/qemu/optee_os/lib/libutee/arch/arm/utee_syscalls_asm.S:65
    1eb4:	d2800368 	mov	x8, #0x1b                  	// #27
    1eb8:	d4000001 	svc	#0x0
    1ebc:	d65f03c0 	ret

0000000000001ec0 <utee_cryp_obj_close>:
utee_cryp_obj_close():
/home/lagadanu/Desktop/qemu/optee_os/lib/libutee/arch/arm/utee_syscalls_asm.S:67
    1ec0:	d2800388 	mov	x8, #0x1c                  	// #28
    1ec4:	d4000001 	svc	#0x0
    1ec8:	d65f03c0 	ret

0000000000001ecc <utee_cryp_obj_reset>:
utee_cryp_obj_reset():
/home/lagadanu/Desktop/qemu/optee_os/lib/libutee/arch/arm/utee_syscalls_asm.S:69
    1ecc:	d28003a8 	mov	x8, #0x1d                  	// #29
    1ed0:	d4000001 	svc	#0x0
    1ed4:	d65f03c0 	ret

0000000000001ed8 <utee_cryp_obj_populate>:
utee_cryp_obj_populate():
/home/lagadanu/Desktop/qemu/optee_os/lib/libutee/arch/arm/utee_syscalls_asm.S:71
    1ed8:	d28003c8 	mov	x8, #0x1e                  	// #30
    1edc:	d4000001 	svc	#0x0
    1ee0:	d65f03c0 	ret

0000000000001ee4 <utee_cryp_obj_copy>:
utee_cryp_obj_copy():
/home/lagadanu/Desktop/qemu/optee_os/lib/libutee/arch/arm/utee_syscalls_asm.S:73
    1ee4:	d28003e8 	mov	x8, #0x1f                  	// #31
    1ee8:	d4000001 	svc	#0x0
    1eec:	d65f03c0 	ret

0000000000001ef0 <utee_cryp_derive_key>:
utee_cryp_derive_key():
/home/lagadanu/Desktop/qemu/optee_os/lib/libutee/arch/arm/utee_syscalls_asm.S:75
    1ef0:	d2800408 	mov	x8, #0x20                  	// #32
    1ef4:	d4000001 	svc	#0x0
    1ef8:	d65f03c0 	ret

0000000000001efc <utee_cryp_random_number_generate>:
utee_cryp_random_number_generate():
/home/lagadanu/Desktop/qemu/optee_os/lib/libutee/arch/arm/utee_syscalls_asm.S:77
    1efc:	d2800428 	mov	x8, #0x21                  	// #33
    1f00:	d4000001 	svc	#0x0
    1f04:	d65f03c0 	ret

0000000000001f08 <utee_authenc_init>:
utee_authenc_init():
/home/lagadanu/Desktop/qemu/optee_os/lib/libutee/arch/arm/utee_syscalls_asm.S:80
    1f08:	d2800448 	mov	x8, #0x22                  	// #34
    1f0c:	d4000001 	svc	#0x0
    1f10:	d65f03c0 	ret

0000000000001f14 <utee_authenc_update_aad>:
utee_authenc_update_aad():
/home/lagadanu/Desktop/qemu/optee_os/lib/libutee/arch/arm/utee_syscalls_asm.S:82
    1f14:	d2800468 	mov	x8, #0x23                  	// #35
    1f18:	d4000001 	svc	#0x0
    1f1c:	d65f03c0 	ret

0000000000001f20 <utee_authenc_update_payload>:
utee_authenc_update_payload():
/home/lagadanu/Desktop/qemu/optee_os/lib/libutee/arch/arm/utee_syscalls_asm.S:84
    1f20:	d2800488 	mov	x8, #0x24                  	// #36
    1f24:	d4000001 	svc	#0x0
    1f28:	d65f03c0 	ret

0000000000001f2c <utee_authenc_enc_final>:
utee_authenc_enc_final():
/home/lagadanu/Desktop/qemu/optee_os/lib/libutee/arch/arm/utee_syscalls_asm.S:87
    1f2c:	d28004a8 	mov	x8, #0x25                  	// #37
    1f30:	d4000001 	svc	#0x0
    1f34:	d65f03c0 	ret

0000000000001f38 <utee_authenc_dec_final>:
utee_authenc_dec_final():
/home/lagadanu/Desktop/qemu/optee_os/lib/libutee/arch/arm/utee_syscalls_asm.S:89
    1f38:	d28004c8 	mov	x8, #0x26                  	// #38
    1f3c:	d4000001 	svc	#0x0
    1f40:	d65f03c0 	ret

0000000000001f44 <utee_asymm_operate>:
utee_asymm_operate():
/home/lagadanu/Desktop/qemu/optee_os/lib/libutee/arch/arm/utee_syscalls_asm.S:91
    1f44:	d28004e8 	mov	x8, #0x27                  	// #39
    1f48:	d4000001 	svc	#0x0
    1f4c:	d65f03c0 	ret

0000000000001f50 <utee_asymm_verify>:
utee_asymm_verify():
/home/lagadanu/Desktop/qemu/optee_os/lib/libutee/arch/arm/utee_syscalls_asm.S:93
    1f50:	d2800508 	mov	x8, #0x28                  	// #40
    1f54:	d4000001 	svc	#0x0
    1f58:	d65f03c0 	ret

0000000000001f5c <utee_storage_obj_open>:
utee_storage_obj_open():
/home/lagadanu/Desktop/qemu/optee_os/lib/libutee/arch/arm/utee_syscalls_asm.S:95
    1f5c:	d2800528 	mov	x8, #0x29                  	// #41
    1f60:	d4000001 	svc	#0x0
    1f64:	d65f03c0 	ret

0000000000001f68 <utee_storage_obj_create>:
utee_storage_obj_create():
/home/lagadanu/Desktop/qemu/optee_os/lib/libutee/arch/arm/utee_syscalls_asm.S:97
    1f68:	d2800548 	mov	x8, #0x2a                  	// #42
    1f6c:	d4000001 	svc	#0x0
    1f70:	d65f03c0 	ret

0000000000001f74 <utee_storage_obj_del>:
utee_storage_obj_del():
/home/lagadanu/Desktop/qemu/optee_os/lib/libutee/arch/arm/utee_syscalls_asm.S:99
    1f74:	d2800568 	mov	x8, #0x2b                  	// #43
    1f78:	d4000001 	svc	#0x0
    1f7c:	d65f03c0 	ret

0000000000001f80 <utee_storage_obj_rename>:
utee_storage_obj_rename():
/home/lagadanu/Desktop/qemu/optee_os/lib/libutee/arch/arm/utee_syscalls_asm.S:101
    1f80:	d2800588 	mov	x8, #0x2c                  	// #44
    1f84:	d4000001 	svc	#0x0
    1f88:	d65f03c0 	ret

0000000000001f8c <utee_storage_alloc_enum>:
utee_storage_alloc_enum():
/home/lagadanu/Desktop/qemu/optee_os/lib/libutee/arch/arm/utee_syscalls_asm.S:103
    1f8c:	d28005a8 	mov	x8, #0x2d                  	// #45
    1f90:	d4000001 	svc	#0x0
    1f94:	d65f03c0 	ret

0000000000001f98 <utee_storage_free_enum>:
utee_storage_free_enum():
/home/lagadanu/Desktop/qemu/optee_os/lib/libutee/arch/arm/utee_syscalls_asm.S:105
    1f98:	d28005c8 	mov	x8, #0x2e                  	// #46
    1f9c:	d4000001 	svc	#0x0
    1fa0:	d65f03c0 	ret

0000000000001fa4 <utee_storage_reset_enum>:
utee_storage_reset_enum():
/home/lagadanu/Desktop/qemu/optee_os/lib/libutee/arch/arm/utee_syscalls_asm.S:107
    1fa4:	d28005e8 	mov	x8, #0x2f                  	// #47
    1fa8:	d4000001 	svc	#0x0
    1fac:	d65f03c0 	ret

0000000000001fb0 <utee_storage_start_enum>:
utee_storage_start_enum():
/home/lagadanu/Desktop/qemu/optee_os/lib/libutee/arch/arm/utee_syscalls_asm.S:109
    1fb0:	d2800608 	mov	x8, #0x30                  	// #48
    1fb4:	d4000001 	svc	#0x0
    1fb8:	d65f03c0 	ret

0000000000001fbc <utee_storage_next_enum>:
utee_storage_next_enum():
/home/lagadanu/Desktop/qemu/optee_os/lib/libutee/arch/arm/utee_syscalls_asm.S:111
    1fbc:	d2800628 	mov	x8, #0x31                  	// #49
    1fc0:	d4000001 	svc	#0x0
    1fc4:	d65f03c0 	ret

0000000000001fc8 <utee_storage_obj_read>:
utee_storage_obj_read():
/home/lagadanu/Desktop/qemu/optee_os/lib/libutee/arch/arm/utee_syscalls_asm.S:113
    1fc8:	d2800648 	mov	x8, #0x32                  	// #50
    1fcc:	d4000001 	svc	#0x0
    1fd0:	d65f03c0 	ret

0000000000001fd4 <utee_storage_obj_write>:
utee_storage_obj_write():
/home/lagadanu/Desktop/qemu/optee_os/lib/libutee/arch/arm/utee_syscalls_asm.S:115
    1fd4:	d2800668 	mov	x8, #0x33                  	// #51
    1fd8:	d4000001 	svc	#0x0
    1fdc:	d65f03c0 	ret

0000000000001fe0 <utee_storage_obj_trunc>:
utee_storage_obj_trunc():
/home/lagadanu/Desktop/qemu/optee_os/lib/libutee/arch/arm/utee_syscalls_asm.S:117
    1fe0:	d2800688 	mov	x8, #0x34                  	// #52
    1fe4:	d4000001 	svc	#0x0
    1fe8:	d65f03c0 	ret

0000000000001fec <utee_storage_obj_seek>:
utee_storage_obj_seek():
/home/lagadanu/Desktop/qemu/optee_os/lib/libutee/arch/arm/utee_syscalls_asm.S:119
    1fec:	d28006a8 	mov	x8, #0x35                  	// #53
    1ff0:	d4000001 	svc	#0x0
    1ff4:	d65f03c0 	ret

0000000000001ff8 <utee_cryp_obj_generate_key>:
utee_cryp_obj_generate_key():
/home/lagadanu/Desktop/qemu/optee_os/lib/libutee/arch/arm/utee_syscalls_asm.S:121
    1ff8:	d28006c8 	mov	x8, #0x36                  	// #54
    1ffc:	d4000001 	svc	#0x0
    2000:	d65f03c0 	ret

0000000000002004 <utee_se_service_open>:
utee_se_service_open():
/home/lagadanu/Desktop/qemu/optee_os/lib/libutee/arch/arm/utee_syscalls_asm.S:124
    2004:	d28006e8 	mov	x8, #0x37                  	// #55
    2008:	d4000001 	svc	#0x0
    200c:	d65f03c0 	ret

0000000000002010 <utee_se_service_close>:
utee_se_service_close():
/home/lagadanu/Desktop/qemu/optee_os/lib/libutee/arch/arm/utee_syscalls_asm.S:126
    2010:	d2800708 	mov	x8, #0x38                  	// #56
    2014:	d4000001 	svc	#0x0
    2018:	d65f03c0 	ret

000000000000201c <utee_se_service_get_readers>:
utee_se_service_get_readers():
/home/lagadanu/Desktop/qemu/optee_os/lib/libutee/arch/arm/utee_syscalls_asm.S:128
    201c:	d2800728 	mov	x8, #0x39                  	// #57
    2020:	d4000001 	svc	#0x0
    2024:	d65f03c0 	ret

0000000000002028 <utee_se_reader_get_prop>:
utee_se_reader_get_prop():
/home/lagadanu/Desktop/qemu/optee_os/lib/libutee/arch/arm/utee_syscalls_asm.S:131
    2028:	d2800748 	mov	x8, #0x3a                  	// #58
    202c:	d4000001 	svc	#0x0
    2030:	d65f03c0 	ret

0000000000002034 <utee_se_reader_get_name>:
utee_se_reader_get_name():
/home/lagadanu/Desktop/qemu/optee_os/lib/libutee/arch/arm/utee_syscalls_asm.S:134
    2034:	d2800768 	mov	x8, #0x3b                  	// #59
    2038:	d4000001 	svc	#0x0
    203c:	d65f03c0 	ret

0000000000002040 <utee_se_reader_open_session>:
utee_se_reader_open_session():
/home/lagadanu/Desktop/qemu/optee_os/lib/libutee/arch/arm/utee_syscalls_asm.S:137
    2040:	d2800788 	mov	x8, #0x3c                  	// #60
    2044:	d4000001 	svc	#0x0
    2048:	d65f03c0 	ret

000000000000204c <utee_se_reader_close_sessions>:
utee_se_reader_close_sessions():
/home/lagadanu/Desktop/qemu/optee_os/lib/libutee/arch/arm/utee_syscalls_asm.S:140
    204c:	d28007a8 	mov	x8, #0x3d                  	// #61
    2050:	d4000001 	svc	#0x0
    2054:	d65f03c0 	ret

0000000000002058 <utee_se_session_is_closed>:
utee_se_session_is_closed():
/home/lagadanu/Desktop/qemu/optee_os/lib/libutee/arch/arm/utee_syscalls_asm.S:143
    2058:	d28007c8 	mov	x8, #0x3e                  	// #62
    205c:	d4000001 	svc	#0x0
    2060:	d65f03c0 	ret

0000000000002064 <utee_se_session_get_atr>:
utee_se_session_get_atr():
/home/lagadanu/Desktop/qemu/optee_os/lib/libutee/arch/arm/utee_syscalls_asm.S:146
    2064:	d28007e8 	mov	x8, #0x3f                  	// #63
    2068:	d4000001 	svc	#0x0
    206c:	d65f03c0 	ret

0000000000002070 <utee_se_session_open_channel>:
utee_se_session_open_channel():
/home/lagadanu/Desktop/qemu/optee_os/lib/libutee/arch/arm/utee_syscalls_asm.S:149
    2070:	d2800808 	mov	x8, #0x40                  	// #64
    2074:	d4000001 	svc	#0x0
    2078:	d65f03c0 	ret

000000000000207c <utee_se_session_close>:
utee_se_session_close():
/home/lagadanu/Desktop/qemu/optee_os/lib/libutee/arch/arm/utee_syscalls_asm.S:152
    207c:	d2800828 	mov	x8, #0x41                  	// #65
    2080:	d4000001 	svc	#0x0
    2084:	d65f03c0 	ret

0000000000002088 <utee_se_channel_select_next>:
utee_se_channel_select_next():
/home/lagadanu/Desktop/qemu/optee_os/lib/libutee/arch/arm/utee_syscalls_asm.S:155
    2088:	d2800848 	mov	x8, #0x42                  	// #66
    208c:	d4000001 	svc	#0x0
    2090:	d65f03c0 	ret

0000000000002094 <utee_se_channel_get_select_resp>:
utee_se_channel_get_select_resp():
/home/lagadanu/Desktop/qemu/optee_os/lib/libutee/arch/arm/utee_syscalls_asm.S:158
    2094:	d2800868 	mov	x8, #0x43                  	// #67
    2098:	d4000001 	svc	#0x0
    209c:	d65f03c0 	ret

00000000000020a0 <utee_se_channel_transmit>:
utee_se_channel_transmit():
/home/lagadanu/Desktop/qemu/optee_os/lib/libutee/arch/arm/utee_syscalls_asm.S:161
    20a0:	d2800888 	mov	x8, #0x44                  	// #68
    20a4:	d4000001 	svc	#0x0
    20a8:	d65f03c0 	ret

00000000000020ac <utee_se_channel_close>:
utee_se_channel_close():
/home/lagadanu/Desktop/qemu/optee_os/lib/libutee/arch/arm/utee_syscalls_asm.S:164
    20ac:	d28008a8 	mov	x8, #0x45                  	// #69
    20b0:	d4000001 	svc	#0x0
    20b4:	d65f03c0 	ret

00000000000020b8 <utee_cache_operation>:
utee_cache_operation():
/home/lagadanu/Desktop/qemu/optee_os/lib/libutee/arch/arm/utee_syscalls_asm.S:167
    20b8:	d28008c8 	mov	x8, #0x46                  	// #70
    20bc:	d4000001 	svc	#0x0
    20c0:	d65f03c0 	ret

00000000000020c4 <__utee_mcount>:
__utee_mcount():
/home/lagadanu/Desktop/qemu/optee_os/lib/libutee/arch/arm/gprof/gprof_a64.S:52
    20c4:	d65f03c0 	ret

00000000000020c8 <_TEE_MathAPI_Init>:
_TEE_MathAPI_Init():
/home/lagadanu/Desktop/qemu/optee_os/lib/libutee/tee_api_arith.c:50
    20c8:	a9be7bfd 	stp	x29, x30, [sp,#-32]!
/home/lagadanu/Desktop/qemu/optee_os/lib/libutee/tee_api_arith.c:53
    20cc:	d2800002 	mov	x2, #0x0                   	// #0
    20d0:	d2833001 	mov	x1, #0x1980                	// #6528
    20d4:	90000080 	adrp	x0, 12000 <ta_heap+0x7ef0>
/home/lagadanu/Desktop/qemu/optee_os/lib/libutee/tee_api_arith.c:50
    20d8:	910003fd 	mov	x29, sp
    20dc:	f9000bf3 	str	x19, [sp,#16]
/home/lagadanu/Desktop/qemu/optee_os/lib/libutee/tee_api_arith.c:53
    20e0:	91058000 	add	x0, x0, #0x160
    20e4:	94001523 	bl	7570 <mempool_alloc_pool>
    20e8:	b0000081 	adrp	x1, 13000 <mempool_u32+0xea0>
    20ec:	91098022 	add	x2, x1, #0x260
    20f0:	aa0103f3 	mov	x19, x1
    20f4:	f9044040 	str	x0, [x2,#2176]
/home/lagadanu/Desktop/qemu/optee_os/lib/libutee/tee_api_arith.c:54
    20f8:	b5000040 	cbnz	x0, 2100 <_TEE_MathAPI_Init+0x38>
/home/lagadanu/Desktop/qemu/optee_os/lib/libutee/tee_api_arith.c:55
    20fc:	97fffe67 	bl	1a98 <TEE_Panic>
/home/lagadanu/Desktop/qemu/optee_os/lib/libutee/tee_api_arith.c:61
    2100:	91098260 	add	x0, x19, #0x260
    2104:	52820002 	mov	w2, #0x1000                	// #4096
/home/lagadanu/Desktop/qemu/optee_os/lib/libutee/tee_api_arith.c:63
    2108:	f9400bf3 	ldr	x19, [sp,#16]
/home/lagadanu/Desktop/qemu/optee_os/lib/libutee/tee_api_arith.c:61
    210c:	91220001 	add	x1, x0, #0x880
    2110:	b9088802 	str	w2, [x0,#2184]
/home/lagadanu/Desktop/qemu/optee_os/lib/libutee/tee_api_arith.c:62
    2114:	f9044801 	str	x1, [x0,#2192]
/home/lagadanu/Desktop/qemu/optee_os/lib/libutee/tee_api_arith.c:63
    2118:	a8c27bfd 	ldp	x29, x30, [sp],#32
    211c:	d65f03c0 	ret

0000000000002120 <TEE_BigIntInit>:
TEE_BigIntInit():
/home/lagadanu/Desktop/qemu/optee_os/lib/libutee/tee_api_arith.c:70
    2120:	14000def 	b	58dc <mpa_init_static>

0000000000002124 <TEE_BigIntInitFMM>:
TEE_BigIntInitFMM():
/home/lagadanu/Desktop/qemu/optee_os/lib/libutee/tee_api_arith.c:80
    2124:	531e7421 	lsl	w1, w1, #2
    2128:	51002021 	sub	w1, w1, #0x8
    212c:	d3427c21 	ubfx	x1, x1, #2, #30
/home/lagadanu/Desktop/qemu/optee_os/lib/libutee/tee_api_arith.c:81
    2130:	29007c01 	stp	w1, wzr, [x0]
    2134:	d65f03c0 	ret

0000000000002138 <TEE_BigIntInitFMMContext>:
TEE_BigIntInitFMMContext():
/home/lagadanu/Desktop/qemu/optee_os/lib/libutee/tee_api_arith.c:89
    2138:	a9be7bfd 	stp	x29, x30, [sp,#-32]!
    213c:	910003fd 	mov	x29, sp
    2140:	a90153f3 	stp	x19, x20, [sp,#16]
    2144:	aa0003f3 	mov	x19, x0
    2148:	aa0203f4 	mov	x20, x2
/home/lagadanu/Desktop/qemu/optee_os/lib/libutee/tee_api_arith.c:93
    214c:	94000deb 	bl	58f8 <mpa_init_static_fmm_context>
/home/lagadanu/Desktop/qemu/optee_os/lib/libutee/tee_api_arith.c:94
    2150:	b0000080 	adrp	x0, 13000 <mempool_u32+0xea0>
    2154:	91004263 	add	x3, x19, #0x10
    2158:	a9400a61 	ldp	x1, x2, [x19]
    215c:	f9457804 	ldr	x4, [x0,#2800]
    2160:	aa1403e0 	mov	x0, x20
/home/lagadanu/Desktop/qemu/optee_os/lib/libutee/tee_api_arith.c:97
    2164:	a94153f3 	ldp	x19, x20, [sp,#16]
    2168:	a8c27bfd 	ldp	x29, x30, [sp],#32
/home/lagadanu/Desktop/qemu/optee_os/lib/libutee/tee_api_arith.c:94
    216c:	14000282 	b	2b74 <mpa_compute_fmm_context>

0000000000002170 <TEE_BigIntFMMSizeInU32>:
TEE_BigIntFMMSizeInU32():
/home/lagadanu/Desktop/qemu/optee_os/lib/libutee/tee_api_arith.c:108
    2170:	11007c00 	add	w0, w0, #0x1f
    2174:	53057c00 	lsr	w0, w0, #5
/home/lagadanu/Desktop/qemu/optee_os/lib/libutee/tee_api_arith.c:109
    2178:	11000c00 	add	w0, w0, #0x3
    217c:	d65f03c0 	ret

0000000000002180 <TEE_BigIntFMMContextSizeInU32>:
TEE_BigIntFMMContextSizeInU32():
/home/lagadanu/Desktop/qemu/optee_os/lib/libutee/tee_api_arith.c:116
    2180:	11007c00 	add	w0, w0, #0x1f
    2184:	53057c00 	lsr	w0, w0, #5
    2188:	11001c00 	add	w0, w0, #0x7
/home/lagadanu/Desktop/qemu/optee_os/lib/libutee/tee_api_arith.c:117
    218c:	531f7800 	lsl	w0, w0, #1
    2190:	d65f03c0 	ret

0000000000002194 <TEE_BigIntConvertFromOctetString>:
TEE_BigIntConvertFromOctetString():
/home/lagadanu/Desktop/qemu/optee_os/lib/libutee/tee_api_arith.c:130
    2194:	a9bf7bfd 	stp	x29, x30, [sp,#-16]!
/home/lagadanu/Desktop/qemu/optee_os/lib/libutee/tee_api_arith.c:135
    2198:	531f7c63 	lsr	w3, w3, #31
    219c:	2a0203e2 	mov	w2, w2
/home/lagadanu/Desktop/qemu/optee_os/lib/libutee/tee_api_arith.c:130
    21a0:	910003fd 	mov	x29, sp
/home/lagadanu/Desktop/qemu/optee_os/lib/libutee/tee_api_arith.c:135
    21a4:	94000f1d 	bl	5e18 <mpa_set_oct_str>
/home/lagadanu/Desktop/qemu/optee_os/lib/libutee/tee_api_arith.c:136
    21a8:	7100001f 	cmp	w0, #0x0
/home/lagadanu/Desktop/qemu/optee_os/lib/libutee/tee_api_arith.c:145
    21ac:	a8c17bfd 	ldp	x29, x30, [sp],#16
    21b0:	1299fe00 	mov	w0, #0xffff300f            	// #-53233
    21b4:	1a9f1000 	csel	w0, w0, wzr, ne
    21b8:	d65f03c0 	ret

00000000000021bc <TEE_BigIntConvertToOctetString>:
TEE_BigIntConvertToOctetString():
/home/lagadanu/Desktop/qemu/optee_os/lib/libutee/tee_api_arith.c:153
    21bc:	a9bd7bfd 	stp	x29, x30, [sp,#-48]!
    21c0:	910003fd 	mov	x29, sp
    21c4:	f9000bf3 	str	x19, [sp,#16]
    21c8:	aa0103f3 	mov	x19, x1
/home/lagadanu/Desktop/qemu/optee_os/lib/libutee/tee_api_arith.c:155
    21cc:	9100c3a1 	add	x1, x29, #0x30
    21d0:	b9400263 	ldr	w3, [x19]
    21d4:	f81f8c23 	str	x3, [x1,#-8]!
/home/lagadanu/Desktop/qemu/optee_os/lib/libutee/tee_api_arith.c:158
    21d8:	94000f54 	bl	5f28 <mpa_get_oct_str>
/home/lagadanu/Desktop/qemu/optee_os/lib/libutee/tee_api_arith.c:159
    21dc:	7100001f 	cmp	w0, #0x0
/home/lagadanu/Desktop/qemu/optee_os/lib/libutee/tee_api_arith.c:163
    21e0:	f94017a0 	ldr	x0, [x29,#40]
    21e4:	b9000260 	str	w0, [x19]
/home/lagadanu/Desktop/qemu/optee_os/lib/libutee/tee_api_arith.c:170
    21e8:	f9400bf3 	ldr	x19, [sp,#16]
    21ec:	129ffde0 	mov	w0, #0xffff0010            	// #-65520
    21f0:	1a9f1000 	csel	w0, w0, wzr, ne
    21f4:	a8c37bfd 	ldp	x29, x30, [sp],#48
    21f8:	d65f03c0 	ret

00000000000021fc <TEE_BigIntConvertFromS32>:
TEE_BigIntConvertFromS32():
/home/lagadanu/Desktop/qemu/optee_os/lib/libutee/tee_api_arith.c:180
    21fc:	140003ba 	b	30e4 <mpa_set_S32>

0000000000002200 <TEE_BigIntConvertToS32>:
TEE_BigIntConvertToS32():
/home/lagadanu/Desktop/qemu/optee_os/lib/libutee/tee_api_arith.c:190
    2200:	a9bf7bfd 	stp	x29, x30, [sp,#-16]!
    2204:	910003fd 	mov	x29, sp
/home/lagadanu/Desktop/qemu/optee_os/lib/libutee/tee_api_arith.c:194
    2208:	940003c2 	bl	3110 <mpa_get_S32>
/home/lagadanu/Desktop/qemu/optee_os/lib/libutee/tee_api_arith.c:195
    220c:	7100001f 	cmp	w0, #0x0
/home/lagadanu/Desktop/qemu/optee_os/lib/libutee/tee_api_arith.c:204
    2210:	a8c17bfd 	ldp	x29, x30, [sp],#16
    2214:	1299fe00 	mov	w0, #0xffff300f            	// #-53233
    2218:	1a9f1000 	csel	w0, w0, wzr, ne
    221c:	d65f03c0 	ret

0000000000002220 <TEE_BigIntCmp>:
TEE_BigIntCmp():
/home/lagadanu/Desktop/qemu/optee_os/lib/libutee/tee_api_arith.c:218
    2220:	14000d05 	b	5634 <mpa_cmp>

0000000000002224 <TEE_BigIntCmpS32>:
TEE_BigIntCmpS32():
/home/lagadanu/Desktop/qemu/optee_os/lib/libutee/tee_api_arith.c:228
    2224:	14000d1e 	b	569c <mpa_cmp_short>

0000000000002228 <TEE_BigIntShiftRight>:
TEE_BigIntShiftRight():
/home/lagadanu/Desktop/qemu/optee_os/lib/libutee/tee_api_arith.c:240
    2228:	14000a3c 	b	4b18 <mpa_shift_right>

000000000000222c <TEE_BigIntGetBit>:
TEE_BigIntGetBit():
/home/lagadanu/Desktop/qemu/optee_os/lib/libutee/tee_api_arith.c:247
    222c:	a9bf7bfd 	stp	x29, x30, [sp,#-16]!
    2230:	910003fd 	mov	x29, sp
/home/lagadanu/Desktop/qemu/optee_os/lib/libutee/tee_api_arith.c:250
    2234:	940001a7 	bl	28d0 <mpa_get_bit>
    2238:	7100001f 	cmp	w0, #0x0
/home/lagadanu/Desktop/qemu/optee_os/lib/libutee/tee_api_arith.c:251
    223c:	1a9f07e0 	cset	w0, ne
    2240:	a8c17bfd 	ldp	x29, x30, [sp],#16
    2244:	d65f03c0 	ret

0000000000002248 <TEE_BigIntGetBitCount>:
TEE_BigIntGetBitCount():
/home/lagadanu/Desktop/qemu/optee_os/lib/libutee/tee_api_arith.c:257
    2248:	a9bf7bfd 	stp	x29, x30, [sp,#-16]!
    224c:	910003fd 	mov	x29, sp
/home/lagadanu/Desktop/qemu/optee_os/lib/libutee/tee_api_arith.c:260
    2250:	9400018f 	bl	288c <mpa_highest_bit_index>
/home/lagadanu/Desktop/qemu/optee_os/lib/libutee/tee_api_arith.c:261
    2254:	11000400 	add	w0, w0, #0x1
    2258:	a8c17bfd 	ldp	x29, x30, [sp],#16
    225c:	d65f03c0 	ret

0000000000002260 <TEE_BigIntAdd>:
TEE_BigIntAdd():
/home/lagadanu/Desktop/qemu/optee_os/lib/libutee/tee_api_arith.c:277
    2260:	b0000083 	adrp	x3, 13000 <mempool_u32+0xea0>
    2264:	f9457863 	ldr	x3, [x3,#2800]
    2268:	14000b46 	b	4f80 <mpa_add>

000000000000226c <TEE_BigIntSub>:
TEE_BigIntSub():
/home/lagadanu/Desktop/qemu/optee_os/lib/libutee/tee_api_arith.c:290
    226c:	b0000083 	adrp	x3, 13000 <mempool_u32+0xea0>
    2270:	f9457863 	ldr	x3, [x3,#2800]
    2274:	14000ba8 	b	5114 <mpa_sub>

0000000000002278 <TEE_BigIntNeg>:
TEE_BigIntNeg():
/home/lagadanu/Desktop/qemu/optee_os/lib/libutee/tee_api_arith.c:301
    2278:	14000c0e 	b	52b0 <mpa_neg>

000000000000227c <TEE_BigIntMul>:
TEE_BigIntMul():
/home/lagadanu/Desktop/qemu/optee_os/lib/libutee/tee_api_arith.c:314
    227c:	b0000083 	adrp	x3, 13000 <mempool_u32+0xea0>
    2280:	f9457863 	ldr	x3, [x3,#2800]
    2284:	140008bc 	b	4574 <mpa_mul>

0000000000002288 <TEE_BigIntSquare>:
TEE_BigIntSquare():
/home/lagadanu/Desktop/qemu/optee_os/lib/libutee/tee_api_arith.c:325
    2288:	b0000082 	adrp	x2, 13000 <mempool_u32+0xea0>
    228c:	f9457843 	ldr	x3, [x2,#2800]
    2290:	aa0103e2 	mov	x2, x1
    2294:	140008b8 	b	4574 <mpa_mul>

0000000000002298 <TEE_BigIntDiv>:
TEE_BigIntDiv():
/home/lagadanu/Desktop/qemu/optee_os/lib/libutee/tee_api_arith.c:333
    2298:	a9bd7bfd 	stp	x29, x30, [sp,#-48]!
    229c:	910003fd 	mov	x29, sp
    22a0:	a90153f3 	stp	x19, x20, [sp,#16]
    22a4:	aa0003f4 	mov	x20, x0
    22a8:	a9025bf5 	stp	x21, x22, [sp,#32]
    22ac:	aa0303f3 	mov	x19, x3
    22b0:	aa0103f5 	mov	x21, x1
    22b4:	aa0203f6 	mov	x22, x2
TEE_BigIntCmpS32():
/home/lagadanu/Desktop/qemu/optee_os/lib/libutee/tee_api_arith.c:228
    22b8:	52800001 	mov	w1, #0x0                   	// #0
    22bc:	aa0303e0 	mov	x0, x3
    22c0:	94000cf7 	bl	569c <mpa_cmp_short>
TEE_BigIntDiv():
/home/lagadanu/Desktop/qemu/optee_os/lib/libutee/tee_api_arith.c:339
    22c4:	35000080 	cbnz	w0, 22d4 <TEE_BigIntDiv+0x3c>
/home/lagadanu/Desktop/qemu/optee_os/lib/libutee/tee_api_arith.c:340
    22c8:	d0000020 	adrp	x0, 8000 <PRIME_TABLE+0x7d8>
    22cc:	9120c000 	add	x0, x0, #0x830
    22d0:	9400012f 	bl	278c <TEE_BigInt_Panic>
/home/lagadanu/Desktop/qemu/optee_os/lib/libutee/tee_api_arith.c:342
    22d4:	b0000080 	adrp	x0, 13000 <mempool_u32+0xea0>
    22d8:	aa1303e3 	mov	x3, x19
    22dc:	aa1603e2 	mov	x2, x22
    22e0:	aa1503e1 	mov	x1, x21
    22e4:	f9457804 	ldr	x4, [x0,#2800]
    22e8:	aa1403e0 	mov	x0, x20
/home/lagadanu/Desktop/qemu/optee_os/lib/libutee/tee_api_arith.c:343
    22ec:	a9425bf5 	ldp	x21, x22, [sp,#32]
    22f0:	a94153f3 	ldp	x19, x20, [sp,#16]
    22f4:	a8c37bfd 	ldp	x29, x30, [sp],#48
/home/lagadanu/Desktop/qemu/optee_os/lib/libutee/tee_api_arith.c:342
    22f8:	140005b6 	b	39d0 <mpa_div>

00000000000022fc <TEE_BigIntMod>:
TEE_BigIntMod():
/home/lagadanu/Desktop/qemu/optee_os/lib/libutee/tee_api_arith.c:354
    22fc:	a9bd7bfd 	stp	x29, x30, [sp,#-48]!
    2300:	910003fd 	mov	x29, sp
    2304:	a9025bf5 	stp	x21, x22, [sp,#32]
    2308:	aa0103f6 	mov	x22, x1
    230c:	a90153f3 	stp	x19, x20, [sp,#16]
    2310:	aa0203f5 	mov	x21, x2
    2314:	aa0003f4 	mov	x20, x0
TEE_BigIntCmpS32():
/home/lagadanu/Desktop/qemu/optee_os/lib/libutee/tee_api_arith.c:228
    2318:	52800041 	mov	w1, #0x2                   	// #2
    231c:	aa0203e0 	mov	x0, x2
    2320:	94000cdf 	bl	569c <mpa_cmp_short>
TEE_BigIntMod():
/home/lagadanu/Desktop/qemu/optee_os/lib/libutee/tee_api_arith.c:359
    2324:	36f80080 	tbz	w0, #31, 2334 <TEE_BigIntMod+0x38>
/home/lagadanu/Desktop/qemu/optee_os/lib/libutee/tee_api_arith.c:360
    2328:	d0000020 	adrp	x0, 8000 <PRIME_TABLE+0x7d8>
    232c:	91210000 	add	x0, x0, #0x840
    2330:	94000117 	bl	278c <TEE_BigInt_Panic>
/home/lagadanu/Desktop/qemu/optee_os/lib/libutee/tee_api_arith.c:362
    2334:	b0000093 	adrp	x19, 13000 <mempool_u32+0xea0>
    2338:	91098273 	add	x19, x19, #0x260
    233c:	aa1503e2 	mov	x2, x21
    2340:	aa1603e1 	mov	x1, x22
    2344:	aa1403e0 	mov	x0, x20
    2348:	f9444a63 	ldr	x3, [x19,#2192]
    234c:	94000f54 	bl	609c <mpa_mod>
/home/lagadanu/Desktop/qemu/optee_os/lib/libutee/tee_api_arith.c:364
    2350:	52800001 	mov	w1, #0x0                   	// #0
    2354:	aa1403e0 	mov	x0, x20
    2358:	94000cd1 	bl	569c <mpa_cmp_short>
    235c:	36f80120 	tbz	w0, #31, 2380 <TEE_BigIntMod+0x84>
/home/lagadanu/Desktop/qemu/optee_os/lib/libutee/tee_api_arith.c:365
    2360:	aa1503e2 	mov	x2, x21
    2364:	aa1403e1 	mov	x1, x20
    2368:	aa1403e0 	mov	x0, x20
    236c:	f9444a63 	ldr	x3, [x19,#2192]
/home/lagadanu/Desktop/qemu/optee_os/lib/libutee/tee_api_arith.c:366
    2370:	a9425bf5 	ldp	x21, x22, [sp,#32]
    2374:	a94153f3 	ldp	x19, x20, [sp,#16]
    2378:	a8c37bfd 	ldp	x29, x30, [sp],#48
/home/lagadanu/Desktop/qemu/optee_os/lib/libutee/tee_api_arith.c:365
    237c:	14000b01 	b	4f80 <mpa_add>
/home/lagadanu/Desktop/qemu/optee_os/lib/libutee/tee_api_arith.c:366
    2380:	a94153f3 	ldp	x19, x20, [sp,#16]
    2384:	a9425bf5 	ldp	x21, x22, [sp,#32]
    2388:	a8c37bfd 	ldp	x29, x30, [sp],#48
    238c:	d65f03c0 	ret

0000000000002390 <TEE_BigIntAddMod>:
TEE_BigIntAddMod():
/home/lagadanu/Desktop/qemu/optee_os/lib/libutee/tee_api_arith.c:373
    2390:	a9bc7bfd 	stp	x29, x30, [sp,#-64]!
    2394:	910003fd 	mov	x29, sp
    2398:	a9025bf5 	stp	x21, x22, [sp,#32]
    239c:	aa0103f6 	mov	x22, x1
    23a0:	a90153f3 	stp	x19, x20, [sp,#16]
    23a4:	aa0303f5 	mov	x21, x3
    23a8:	f9001bf7 	str	x23, [sp,#48]
    23ac:	aa0003f4 	mov	x20, x0
TEE_BigIntCmpS32():
/home/lagadanu/Desktop/qemu/optee_os/lib/libutee/tee_api_arith.c:228
    23b0:	52800041 	mov	w1, #0x2                   	// #2
    23b4:	aa0303e0 	mov	x0, x3
TEE_BigIntAddMod():
/home/lagadanu/Desktop/qemu/optee_os/lib/libutee/tee_api_arith.c:373
    23b8:	aa0203f7 	mov	x23, x2
TEE_BigIntCmpS32():
/home/lagadanu/Desktop/qemu/optee_os/lib/libutee/tee_api_arith.c:228
    23bc:	94000cb8 	bl	569c <mpa_cmp_short>
TEE_BigIntAddMod():
/home/lagadanu/Desktop/qemu/optee_os/lib/libutee/tee_api_arith.c:379
    23c0:	36f80080 	tbz	w0, #31, 23d0 <TEE_BigIntAddMod+0x40>
/home/lagadanu/Desktop/qemu/optee_os/lib/libutee/tee_api_arith.c:380
    23c4:	d0000020 	adrp	x0, 8000 <PRIME_TABLE+0x7d8>
    23c8:	91210000 	add	x0, x0, #0x840
    23cc:	940000f0 	bl	278c <TEE_BigInt_Panic>
/home/lagadanu/Desktop/qemu/optee_os/lib/libutee/tee_api_arith.c:382
    23d0:	b0000093 	adrp	x19, 13000 <mempool_u32+0xea0>
    23d4:	91098273 	add	x19, x19, #0x260
    23d8:	aa1503e3 	mov	x3, x21
    23dc:	aa1703e2 	mov	x2, x23
    23e0:	aa1603e1 	mov	x1, x22
    23e4:	aa1403e0 	mov	x0, x20
    23e8:	f9444a64 	ldr	x4, [x19,#2192]
    23ec:	94000f32 	bl	60b4 <mpa_add_mod>
/home/lagadanu/Desktop/qemu/optee_os/lib/libutee/tee_api_arith.c:383
    23f0:	52800001 	mov	w1, #0x0                   	// #0
    23f4:	aa1403e0 	mov	x0, x20
    23f8:	94000ca9 	bl	569c <mpa_cmp_short>
    23fc:	36f80140 	tbz	w0, #31, 2424 <TEE_BigIntAddMod+0x94>
/home/lagadanu/Desktop/qemu/optee_os/lib/libutee/tee_api_arith.c:384
    2400:	aa1503e2 	mov	x2, x21
    2404:	aa1403e1 	mov	x1, x20
    2408:	aa1403e0 	mov	x0, x20
    240c:	f9444a63 	ldr	x3, [x19,#2192]
/home/lagadanu/Desktop/qemu/optee_os/lib/libutee/tee_api_arith.c:385
    2410:	a9425bf5 	ldp	x21, x22, [sp,#32]
    2414:	a94153f3 	ldp	x19, x20, [sp,#16]
    2418:	f9401bf7 	ldr	x23, [sp,#48]
    241c:	a8c47bfd 	ldp	x29, x30, [sp],#64
/home/lagadanu/Desktop/qemu/optee_os/lib/libutee/tee_api_arith.c:384
    2420:	14000ad8 	b	4f80 <mpa_add>
/home/lagadanu/Desktop/qemu/optee_os/lib/libutee/tee_api_arith.c:385
    2424:	a94153f3 	ldp	x19, x20, [sp,#16]
    2428:	a9425bf5 	ldp	x21, x22, [sp,#32]
    242c:	f9401bf7 	ldr	x23, [sp,#48]
    2430:	a8c47bfd 	ldp	x29, x30, [sp],#64
    2434:	d65f03c0 	ret

0000000000002438 <TEE_BigIntSubMod>:
TEE_BigIntSubMod():
/home/lagadanu/Desktop/qemu/optee_os/lib/libutee/tee_api_arith.c:392
    2438:	a9bc7bfd 	stp	x29, x30, [sp,#-64]!
    243c:	910003fd 	mov	x29, sp
    2440:	a9025bf5 	stp	x21, x22, [sp,#32]
    2444:	aa0103f6 	mov	x22, x1
    2448:	a90153f3 	stp	x19, x20, [sp,#16]
    244c:	aa0303f5 	mov	x21, x3
    2450:	f9001bf7 	str	x23, [sp,#48]
    2454:	aa0003f4 	mov	x20, x0
TEE_BigIntCmpS32():
/home/lagadanu/Desktop/qemu/optee_os/lib/libutee/tee_api_arith.c:228
    2458:	52800041 	mov	w1, #0x2                   	// #2
    245c:	aa0303e0 	mov	x0, x3
TEE_BigIntSubMod():
/home/lagadanu/Desktop/qemu/optee_os/lib/libutee/tee_api_arith.c:392
    2460:	aa0203f7 	mov	x23, x2
TEE_BigIntCmpS32():
/home/lagadanu/Desktop/qemu/optee_os/lib/libutee/tee_api_arith.c:228
    2464:	94000c8e 	bl	569c <mpa_cmp_short>
TEE_BigIntSubMod():
/home/lagadanu/Desktop/qemu/optee_os/lib/libutee/tee_api_arith.c:398
    2468:	36f80080 	tbz	w0, #31, 2478 <TEE_BigIntSubMod+0x40>
/home/lagadanu/Desktop/qemu/optee_os/lib/libutee/tee_api_arith.c:399
    246c:	d0000020 	adrp	x0, 8000 <PRIME_TABLE+0x7d8>
    2470:	91210000 	add	x0, x0, #0x840
    2474:	940000c6 	bl	278c <TEE_BigInt_Panic>
/home/lagadanu/Desktop/qemu/optee_os/lib/libutee/tee_api_arith.c:401
    2478:	b0000093 	adrp	x19, 13000 <mempool_u32+0xea0>
    247c:	91098273 	add	x19, x19, #0x260
    2480:	aa1503e3 	mov	x3, x21
    2484:	aa1703e2 	mov	x2, x23
    2488:	aa1603e1 	mov	x1, x22
    248c:	aa1403e0 	mov	x0, x20
    2490:	f9444a64 	ldr	x4, [x19,#2192]
    2494:	94000f29 	bl	6138 <mpa_sub_mod>
/home/lagadanu/Desktop/qemu/optee_os/lib/libutee/tee_api_arith.c:402
    2498:	52800001 	mov	w1, #0x0                   	// #0
    249c:	aa1403e0 	mov	x0, x20
    24a0:	94000c7f 	bl	569c <mpa_cmp_short>
    24a4:	36f80140 	tbz	w0, #31, 24cc <TEE_BigIntSubMod+0x94>
/home/lagadanu/Desktop/qemu/optee_os/lib/libutee/tee_api_arith.c:403
    24a8:	aa1503e2 	mov	x2, x21
    24ac:	aa1403e1 	mov	x1, x20
    24b0:	aa1403e0 	mov	x0, x20
    24b4:	f9444a63 	ldr	x3, [x19,#2192]
/home/lagadanu/Desktop/qemu/optee_os/lib/libutee/tee_api_arith.c:404
    24b8:	a9425bf5 	ldp	x21, x22, [sp,#32]
    24bc:	a94153f3 	ldp	x19, x20, [sp,#16]
    24c0:	f9401bf7 	ldr	x23, [sp,#48]
    24c4:	a8c47bfd 	ldp	x29, x30, [sp],#64
/home/lagadanu/Desktop/qemu/optee_os/lib/libutee/tee_api_arith.c:403
    24c8:	14000aae 	b	4f80 <mpa_add>
/home/lagadanu/Desktop/qemu/optee_os/lib/libutee/tee_api_arith.c:404
    24cc:	a94153f3 	ldp	x19, x20, [sp,#16]
    24d0:	a9425bf5 	ldp	x21, x22, [sp,#32]
    24d4:	f9401bf7 	ldr	x23, [sp,#48]
    24d8:	a8c47bfd 	ldp	x29, x30, [sp],#64
    24dc:	d65f03c0 	ret

00000000000024e0 <TEE_BigIntMulMod>:
TEE_BigIntMulMod():
/home/lagadanu/Desktop/qemu/optee_os/lib/libutee/tee_api_arith.c:411
    24e0:	a9ba7bfd 	stp	x29, x30, [sp,#-96]!
    24e4:	910003fd 	mov	x29, sp
    24e8:	a90363f7 	stp	x23, x24, [sp,#48]
    24ec:	aa0003f7 	mov	x23, x0
    24f0:	a90153f3 	stp	x19, x20, [sp,#16]
    24f4:	aa0103f8 	mov	x24, x1
    24f8:	f90023f9 	str	x25, [sp,#64]
    24fc:	aa0303f4 	mov	x20, x3
    2500:	a9025bf5 	stp	x21, x22, [sp,#32]
TEE_BigIntCmpS32():
/home/lagadanu/Desktop/qemu/optee_os/lib/libutee/tee_api_arith.c:228
    2504:	52800041 	mov	w1, #0x2                   	// #2
    2508:	aa0303e0 	mov	x0, x3
TEE_BigIntMulMod():
/home/lagadanu/Desktop/qemu/optee_os/lib/libutee/tee_api_arith.c:411
    250c:	aa0203f9 	mov	x25, x2
TEE_BigIntCmpS32():
/home/lagadanu/Desktop/qemu/optee_os/lib/libutee/tee_api_arith.c:228
    2510:	94000c63 	bl	569c <mpa_cmp_short>
TEE_BigIntMulMod():
/home/lagadanu/Desktop/qemu/optee_os/lib/libutee/tee_api_arith.c:418
    2514:	36f80080 	tbz	w0, #31, 2524 <TEE_BigIntMulMod+0x44>
/home/lagadanu/Desktop/qemu/optee_os/lib/libutee/tee_api_arith.c:419
    2518:	d0000020 	adrp	x0, 8000 <PRIME_TABLE+0x7d8>
    251c:	91210000 	add	x0, x0, #0x840
    2520:	9400009b 	bl	278c <TEE_BigInt_Panic>
/home/lagadanu/Desktop/qemu/optee_os/lib/libutee/tee_api_arith.c:429
    2524:	b0000093 	adrp	x19, 13000 <mempool_u32+0xea0>
    2528:	91098275 	add	x21, x19, #0x260
    252c:	910163b6 	add	x22, x29, #0x58
    2530:	aa1603e0 	mov	x0, x22
    2534:	f9444aa1 	ldr	x1, [x21,#2192]
    2538:	94000793 	bl	4384 <mpa_alloc_static_temp_var>
/home/lagadanu/Desktop/qemu/optee_os/lib/libutee/tee_api_arith.c:430
    253c:	f9402fa0 	ldr	x0, [x29,#88]
    2540:	aa1803e1 	mov	x1, x24
    2544:	f9444aa4 	ldr	x4, [x21,#2192]
    2548:	aa1403e3 	mov	x3, x20
    254c:	aa1903e2 	mov	x2, x25
    2550:	94000f1b 	bl	61bc <mpa_mul_mod>
/home/lagadanu/Desktop/qemu/optee_os/lib/libutee/tee_api_arith.c:431
    2554:	f9402fa0 	ldr	x0, [x29,#88]
    2558:	52800001 	mov	w1, #0x0                   	// #0
    255c:	94000c50 	bl	569c <mpa_cmp_short>
    2560:	36f800c0 	tbz	w0, #31, 2578 <TEE_BigIntMulMod+0x98>
/home/lagadanu/Desktop/qemu/optee_os/lib/libutee/tee_api_arith.c:432
    2564:	f9402fa1 	ldr	x1, [x29,#88]
    2568:	aa1403e2 	mov	x2, x20
    256c:	f9444aa3 	ldr	x3, [x21,#2192]
    2570:	aa0103e0 	mov	x0, x1
    2574:	94000a83 	bl	4f80 <mpa_add>
/home/lagadanu/Desktop/qemu/optee_os/lib/libutee/tee_api_arith.c:433
    2578:	f9402fa1 	ldr	x1, [x29,#88]
/home/lagadanu/Desktop/qemu/optee_os/lib/libutee/tee_api_arith.c:434
    257c:	91098273 	add	x19, x19, #0x260
/home/lagadanu/Desktop/qemu/optee_os/lib/libutee/tee_api_arith.c:433
    2580:	aa1703e0 	mov	x0, x23
    2584:	940000a1 	bl	2808 <mpa_copy>
/home/lagadanu/Desktop/qemu/optee_os/lib/libutee/tee_api_arith.c:434
    2588:	f9444a61 	ldr	x1, [x19,#2192]
    258c:	aa1603e0 	mov	x0, x22
    2590:	94000781 	bl	4394 <mpa_free_static_temp_var>
/home/lagadanu/Desktop/qemu/optee_os/lib/libutee/tee_api_arith.c:435
    2594:	f94023f9 	ldr	x25, [sp,#64]
    2598:	a94153f3 	ldp	x19, x20, [sp,#16]
    259c:	a9425bf5 	ldp	x21, x22, [sp,#32]
    25a0:	a94363f7 	ldp	x23, x24, [sp,#48]
    25a4:	a8c67bfd 	ldp	x29, x30, [sp],#96
    25a8:	d65f03c0 	ret

00000000000025ac <TEE_BigIntSquareMod>:
TEE_BigIntSquareMod():
/home/lagadanu/Desktop/qemu/optee_os/lib/libutee/tee_api_arith.c:443
    25ac:	aa0203e3 	mov	x3, x2
    25b0:	aa0103e2 	mov	x2, x1
    25b4:	17ffffcb 	b	24e0 <TEE_BigIntMulMod>

00000000000025b8 <TEE_BigIntInvMod>:
TEE_BigIntInvMod():
/home/lagadanu/Desktop/qemu/optee_os/lib/libutee/tee_api_arith.c:451
    25b8:	a9bd7bfd 	stp	x29, x30, [sp,#-48]!
    25bc:	910003fd 	mov	x29, sp
    25c0:	a90153f3 	stp	x19, x20, [sp,#16]
    25c4:	aa0103f3 	mov	x19, x1
    25c8:	f90013f5 	str	x21, [sp,#32]
    25cc:	aa0203f4 	mov	x20, x2
    25d0:	aa0003f5 	mov	x21, x0
TEE_BigIntCmpS32():
/home/lagadanu/Desktop/qemu/optee_os/lib/libutee/tee_api_arith.c:228
    25d4:	52800041 	mov	w1, #0x2                   	// #2
    25d8:	aa0203e0 	mov	x0, x2
    25dc:	94000c30 	bl	569c <mpa_cmp_short>
TEE_BigIntInvMod():
/home/lagadanu/Desktop/qemu/optee_os/lib/libutee/tee_api_arith.c:456
    25e0:	36f80080 	tbz	w0, #31, 25f0 <TEE_BigIntInvMod+0x38>
/home/lagadanu/Desktop/qemu/optee_os/lib/libutee/tee_api_arith.c:457
    25e4:	d0000020 	adrp	x0, 8000 <PRIME_TABLE+0x7d8>
    25e8:	91215400 	add	x0, x0, #0x855
    25ec:	94000068 	bl	278c <TEE_BigInt_Panic>
TEE_BigIntCmpS32():
/home/lagadanu/Desktop/qemu/optee_os/lib/libutee/tee_api_arith.c:228
    25f0:	52800001 	mov	w1, #0x0                   	// #0
    25f4:	aa1303e0 	mov	x0, x19
    25f8:	94000c29 	bl	569c <mpa_cmp_short>
TEE_BigIntInvMod():
/home/lagadanu/Desktop/qemu/optee_os/lib/libutee/tee_api_arith.c:456
    25fc:	34ffff40 	cbz	w0, 25e4 <TEE_BigIntInvMod+0x2c>
/home/lagadanu/Desktop/qemu/optee_os/lib/libutee/tee_api_arith.c:459
    2600:	b0000080 	adrp	x0, 13000 <mempool_u32+0xea0>
    2604:	aa1403e2 	mov	x2, x20
    2608:	aa1303e1 	mov	x1, x19
    260c:	f9457803 	ldr	x3, [x0,#2800]
    2610:	aa1503e0 	mov	x0, x21
/home/lagadanu/Desktop/qemu/optee_os/lib/libutee/tee_api_arith.c:460
    2614:	a94153f3 	ldp	x19, x20, [sp,#16]
    2618:	f94013f5 	ldr	x21, [sp,#32]
    261c:	a8c37bfd 	ldp	x29, x30, [sp],#48
/home/lagadanu/Desktop/qemu/optee_os/lib/libutee/tee_api_arith.c:459
    2620:	14000f08 	b	6240 <mpa_inv_mod>

0000000000002624 <TEE_BigIntRelativePrime>:
TEE_BigIntRelativePrime():
/home/lagadanu/Desktop/qemu/optee_os/lib/libutee/tee_api_arith.c:470
    2624:	a9bc7bfd 	stp	x29, x30, [sp,#-64]!
    2628:	910003fd 	mov	x29, sp
    262c:	a90153f3 	stp	x19, x20, [sp,#16]
/home/lagadanu/Desktop/qemu/optee_os/lib/libutee/tee_api_arith.c:476
    2630:	b0000093 	adrp	x19, 13000 <mempool_u32+0xea0>
    2634:	91098273 	add	x19, x19, #0x260
/home/lagadanu/Desktop/qemu/optee_os/lib/libutee/tee_api_arith.c:470
    2638:	a9025bf5 	stp	x21, x22, [sp,#32]
    263c:	aa0103f6 	mov	x22, x1
/home/lagadanu/Desktop/qemu/optee_os/lib/libutee/tee_api_arith.c:476
    2640:	9100e3b4 	add	x20, x29, #0x38
/home/lagadanu/Desktop/qemu/optee_os/lib/libutee/tee_api_arith.c:470
    2644:	aa0003f5 	mov	x21, x0
/home/lagadanu/Desktop/qemu/optee_os/lib/libutee/tee_api_arith.c:476
    2648:	aa1403e0 	mov	x0, x20
    264c:	f9444a61 	ldr	x1, [x19,#2192]
    2650:	9400074d 	bl	4384 <mpa_alloc_static_temp_var>
/home/lagadanu/Desktop/qemu/optee_os/lib/libutee/tee_api_arith.c:478
    2654:	f9444a63 	ldr	x3, [x19,#2192]
    2658:	aa1603e2 	mov	x2, x22
    265c:	f9401fa0 	ldr	x0, [x29,#56]
    2660:	aa1503e1 	mov	x1, x21
    2664:	94000672 	bl	402c <mpa_gcd>
/home/lagadanu/Desktop/qemu/optee_os/lib/libutee/tee_api_arith.c:479
    2668:	f9401fa0 	ldr	x0, [x29,#56]
    266c:	52800021 	mov	w1, #0x1                   	// #1
    2670:	94000c0b 	bl	569c <mpa_cmp_short>
    2674:	2a0003f5 	mov	w21, w0
/home/lagadanu/Desktop/qemu/optee_os/lib/libutee/tee_api_arith.c:481
    2678:	f9444a61 	ldr	x1, [x19,#2192]
    267c:	aa1403e0 	mov	x0, x20
    2680:	94000745 	bl	4394 <mpa_free_static_temp_var>
/home/lagadanu/Desktop/qemu/optee_os/lib/libutee/tee_api_arith.c:483
    2684:	710002bf 	cmp	w21, #0x0
/home/lagadanu/Desktop/qemu/optee_os/lib/libutee/tee_api_arith.c:484
    2688:	a94153f3 	ldp	x19, x20, [sp,#16]
    268c:	1a9f17e0 	cset	w0, eq
    2690:	a9425bf5 	ldp	x21, x22, [sp,#32]
    2694:	a8c47bfd 	ldp	x29, x30, [sp],#64
    2698:	d65f03c0 	ret

000000000000269c <TEE_BigIntComputeExtendedGcd>:
TEE_BigIntComputeExtendedGcd():
/home/lagadanu/Desktop/qemu/optee_os/lib/libutee/tee_api_arith.c:499
    269c:	b0000085 	adrp	x5, 13000 <mempool_u32+0xea0>
    26a0:	f94578a5 	ldr	x5, [x5,#2800]
    26a4:	140006aa 	b	414c <mpa_extended_gcd>

00000000000026a8 <TEE_BigIntIsProbablePrime>:
TEE_BigIntIsProbablePrime():
/home/lagadanu/Desktop/qemu/optee_os/lib/libutee/tee_api_arith.c:507
    26a8:	7104003f 	cmp	w1, #0x100
    26ac:	52802002 	mov	w2, #0x100                 	// #256
    26b0:	1a829021 	csel	w1, w1, w2, ls
/home/lagadanu/Desktop/qemu/optee_os/lib/libutee/tee_api_arith.c:516
    26b4:	b0000082 	adrp	x2, 13000 <mempool_u32+0xea0>
    26b8:	7101403f 	cmp	w1, #0x50
    26bc:	52800a03 	mov	w3, #0x50                  	// #80
    26c0:	f9457842 	ldr	x2, [x2,#2800]
    26c4:	1a832021 	csel	w1, w1, w3, cs
    26c8:	1400019c 	b	2d38 <mpa_is_prob_prime>

00000000000026cc <TEE_BigIntConvertToFMM>:
TEE_BigIntConvertToFMM():
/home/lagadanu/Desktop/qemu/optee_os/lib/libutee/tee_api_arith.c:530
    26cc:	aa0303e6 	mov	x6, x3
/home/lagadanu/Desktop/qemu/optee_os/lib/libutee/tee_api_arith.c:537
    26d0:	b0000083 	adrp	x3, 13000 <mempool_u32+0xea0>
    26d4:	f9457865 	ldr	x5, [x3,#2800]
    26d8:	aa0203e3 	mov	x3, x2
    26dc:	b94010c4 	ldr	w4, [x6,#16]
    26e0:	f94004c2 	ldr	x2, [x6,#8]
    26e4:	14000173 	b	2cb0 <mpa_montgomery_mul>

00000000000026e8 <TEE_BigIntConvertFromFMM>:
TEE_BigIntConvertFromFMM():
/home/lagadanu/Desktop/qemu/optee_os/lib/libutee/tee_api_arith.c:548
    26e8:	a9ba7bfd 	stp	x29, x30, [sp,#-96]!
    26ec:	910003fd 	mov	x29, sp
    26f0:	a90153f3 	stp	x19, x20, [sp,#16]
/home/lagadanu/Desktop/qemu/optee_os/lib/libutee/tee_api_arith.c:560
    26f4:	b0000093 	adrp	x19, 13000 <mempool_u32+0xea0>
    26f8:	91098273 	add	x19, x19, #0x260
/home/lagadanu/Desktop/qemu/optee_os/lib/libutee/tee_api_arith.c:548
    26fc:	a90363f7 	stp	x23, x24, [sp,#48]
    2700:	aa0103f7 	mov	x23, x1
/home/lagadanu/Desktop/qemu/optee_os/lib/libutee/tee_api_arith.c:560
    2704:	910163b4 	add	x20, x29, #0x58
/home/lagadanu/Desktop/qemu/optee_os/lib/libutee/tee_api_arith.c:548
    2708:	f90023f9 	str	x25, [sp,#64]
    270c:	aa0303f9 	mov	x25, x3
/home/lagadanu/Desktop/qemu/optee_os/lib/libutee/tee_api_arith.c:560
    2710:	f9444a61 	ldr	x1, [x19,#2192]
/home/lagadanu/Desktop/qemu/optee_os/lib/libutee/tee_api_arith.c:548
    2714:	aa0203f8 	mov	x24, x2
    2718:	a9025bf5 	stp	x21, x22, [sp,#32]
    271c:	aa0003f5 	mov	x21, x0
/home/lagadanu/Desktop/qemu/optee_os/lib/libutee/tee_api_arith.c:560
    2720:	aa1403e0 	mov	x0, x20
    2724:	94000718 	bl	4384 <mpa_alloc_static_temp_var>
/home/lagadanu/Desktop/qemu/optee_os/lib/libutee/tee_api_arith.c:563
    2728:	f9402fb6 	ldr	x22, [x29,#88]
    272c:	94000084 	bl	293c <mpa_constant_one>
    2730:	aa0003e1 	mov	x1, x0
    2734:	b9401324 	ldr	w4, [x25,#16]
    2738:	aa1803e3 	mov	x3, x24
    273c:	f9444a65 	ldr	x5, [x19,#2192]
    2740:	aa1703e2 	mov	x2, x23
    2744:	aa1603e0 	mov	x0, x22
    2748:	9400015a 	bl	2cb0 <mpa_montgomery_mul>
/home/lagadanu/Desktop/qemu/optee_os/lib/libutee/tee_api_arith.c:566
    274c:	f9402fa1 	ldr	x1, [x29,#88]
    2750:	aa1503e0 	mov	x0, x21
    2754:	9400002d 	bl	2808 <mpa_copy>
/home/lagadanu/Desktop/qemu/optee_os/lib/libutee/tee_api_arith.c:567
    2758:	f9444a61 	ldr	x1, [x19,#2192]
    275c:	aa1403e0 	mov	x0, x20
    2760:	9400070d 	bl	4394 <mpa_free_static_temp_var>
/home/lagadanu/Desktop/qemu/optee_os/lib/libutee/tee_api_arith.c:568
    2764:	f94023f9 	ldr	x25, [sp,#64]
    2768:	a94153f3 	ldp	x19, x20, [sp,#16]
    276c:	a9425bf5 	ldp	x21, x22, [sp,#32]
    2770:	a94363f7 	ldp	x23, x24, [sp,#48]
    2774:	a8c67bfd 	ldp	x29, x30, [sp],#96
    2778:	d65f03c0 	ret

000000000000277c <TEE_BigIntComputeFMM>:
TEE_BigIntComputeFMM():
/home/lagadanu/Desktop/qemu/optee_os/lib/libutee/tee_api_arith.c:585
    277c:	b0000085 	adrp	x5, 13000 <mempool_u32+0xea0>
    2780:	b9401084 	ldr	w4, [x4,#16]
    2784:	f94578a5 	ldr	x5, [x5,#2800]
    2788:	1400014a 	b	2cb0 <mpa_montgomery_mul>

000000000000278c <TEE_BigInt_Panic>:
TEE_BigInt_Panic():
/home/lagadanu/Desktop/qemu/optee_os/lib/libutee/tee_api_arith.c:35
    278c:	a9bf7bfd 	stp	x29, x30, [sp,#-16]!
/home/lagadanu/Desktop/qemu/optee_os/lib/libutee/tee_api_arith.c:36
    2790:	aa0003e1 	mov	x1, x0
    2794:	d0000020 	adrp	x0, 8000 <PRIME_TABLE+0x7d8>
    2798:	91209400 	add	x0, x0, #0x825
/home/lagadanu/Desktop/qemu/optee_os/lib/libutee/tee_api_arith.c:35
    279c:	910003fd 	mov	x29, sp
/home/lagadanu/Desktop/qemu/optee_os/lib/libutee/tee_api_arith.c:36
    27a0:	97fffb33 	bl	146c <printf>
/home/lagadanu/Desktop/qemu/optee_os/lib/libutee/tee_api_arith.c:37
    27a4:	528c24e0 	mov	w0, #0x6127                	// #24871
    27a8:	72a01620 	movk	w0, #0xb1, lsl #16
    27ac:	97fffcbb 	bl	1a98 <TEE_Panic>
    27b0:	14000000 	b	27b0 <TEE_BigInt_Panic+0x24>

00000000000027b4 <__mpa_set_unused_digits_to_zero>:
__mpa_set_unused_digits_to_zero():
    27b4:	b9400401 	ldr	w1, [x0,#4]
/home/lagadanu/Desktop/qemu/optee_os/lib/libmpa/mpa_misc.c:38
    27b8:	b8408402 	ldr	w2, [x0],#8
/home/lagadanu/Desktop/qemu/optee_os/lib/libmpa/mpa_misc.c:37
    27bc:	7100003f 	cmp	w1, #0x0
    27c0:	5a81a423 	cneg	w3, w1, lt
/home/lagadanu/Desktop/qemu/optee_os/lib/libmpa/mpa_misc.c:38
    27c4:	52800001 	mov	w1, #0x0                   	// #0
    27c8:	4b030042 	sub	w2, w2, w3
    27cc:	8b23c800 	add	x0, x0, w3, sxtw #2
    27d0:	d37e7442 	ubfiz	x2, x2, #2, #30
    27d4:	14001360 	b	7554 <memset>

00000000000027d8 <mpa_wipe>:
mpa_wipe():
/home/lagadanu/Desktop/qemu/optee_os/lib/libmpa/mpa_misc.c:55
    27d8:	a9be7bfd 	stp	x29, x30, [sp,#-32]!
/home/lagadanu/Desktop/qemu/optee_os/lib/libmpa/mpa_misc.c:56
    27dc:	52800001 	mov	w1, #0x0                   	// #0
/home/lagadanu/Desktop/qemu/optee_os/lib/libmpa/mpa_misc.c:55
    27e0:	910003fd 	mov	x29, sp
    27e4:	f9000bf3 	str	x19, [sp,#16]
    27e8:	aa0003f3 	mov	x19, x0
/home/lagadanu/Desktop/qemu/optee_os/lib/libmpa/mpa_misc.c:56
    27ec:	b8408402 	ldr	w2, [x0],#8
    27f0:	d37e7442 	ubfiz	x2, x2, #2, #30
    27f4:	94001358 	bl	7554 <memset>
/home/lagadanu/Desktop/qemu/optee_os/lib/libmpa/mpa_misc.c:57
    27f8:	b900067f 	str	wzr, [x19,#4]
/home/lagadanu/Desktop/qemu/optee_os/lib/libmpa/mpa_misc.c:58
    27fc:	f9400bf3 	ldr	x19, [sp,#16]
    2800:	a8c27bfd 	ldp	x29, x30, [sp],#32
    2804:	d65f03c0 	ret

0000000000002808 <mpa_copy>:
mpa_copy():
/home/lagadanu/Desktop/qemu/optee_os/lib/libmpa/mpa_misc.c:71
    2808:	eb01001f 	cmp	x0, x1
    280c:	54000260 	b.eq	2858 <mpa_copy+0x50>
/home/lagadanu/Desktop/qemu/optee_os/lib/libmpa/mpa_misc.c:70
    2810:	a9be7bfd 	stp	x29, x30, [sp,#-32]!
    2814:	910003fd 	mov	x29, sp
    2818:	a90153f3 	stp	x19, x20, [sp,#16]
    281c:	aa0103f3 	mov	x19, x1
    2820:	aa0003f4 	mov	x20, x0
/home/lagadanu/Desktop/qemu/optee_os/lib/libmpa/mpa_misc.c:74
    2824:	91002021 	add	x1, x1, #0x8
    2828:	91002000 	add	x0, x0, #0x8
    282c:	b9400662 	ldr	w2, [x19,#4]
    2830:	7100005f 	cmp	w2, #0x0
    2834:	5a82a442 	cneg	w2, w2, lt
    2838:	531e7442 	lsl	w2, w2, #2
    283c:	93407c42 	sxtw	x2, w2
    2840:	97fff72b 	bl	4ec <memcpy>
/home/lagadanu/Desktop/qemu/optee_os/lib/libmpa/mpa_misc.c:75
    2844:	b9400660 	ldr	w0, [x19,#4]
    2848:	b9000680 	str	w0, [x20,#4]
/home/lagadanu/Desktop/qemu/optee_os/lib/libmpa/mpa_misc.c:76
    284c:	a94153f3 	ldp	x19, x20, [sp,#16]
    2850:	a8c27bfd 	ldp	x29, x30, [sp],#32
    2854:	d65f03c0 	ret
    2858:	d65f03c0 	ret

000000000000285c <mpa_abs>:
mpa_abs():
/home/lagadanu/Desktop/qemu/optee_os/lib/libmpa/mpa_misc.c:84
    285c:	a9be7bfd 	stp	x29, x30, [sp,#-32]!
    2860:	910003fd 	mov	x29, sp
    2864:	f9000bf3 	str	x19, [sp,#16]
    2868:	aa0003f3 	mov	x19, x0
/home/lagadanu/Desktop/qemu/optee_os/lib/libmpa/mpa_misc.c:85
    286c:	97ffffe7 	bl	2808 <mpa_copy>
/home/lagadanu/Desktop/qemu/optee_os/lib/libmpa/mpa_misc.c:86
    2870:	b9400660 	ldr	w0, [x19,#4]
    2874:	36f80060 	tbz	w0, #31, 2880 <mpa_abs+0x24>
/home/lagadanu/Desktop/qemu/optee_os/lib/libmpa/mpa_misc.c:86 (discriminator 1)
    2878:	4b0003e0 	neg	w0, w0
    287c:	b9000660 	str	w0, [x19,#4]
/home/lagadanu/Desktop/qemu/optee_os/lib/libmpa/mpa_misc.c:87
    2880:	f9400bf3 	ldr	x19, [sp,#16]
    2884:	a8c27bfd 	ldp	x29, x30, [sp],#32
    2888:	d65f03c0 	ret

000000000000288c <mpa_highest_bit_index>:
mpa_highest_bit_index():
/home/lagadanu/Desktop/qemu/optee_os/lib/libmpa/mpa_misc.c:101
    288c:	b9400401 	ldr	w1, [x0,#4]
    2890:	7100003f 	cmp	w1, #0x0
    2894:	540001a0 	b.eq	28c8 <mpa_highest_bit_index+0x3c>
/home/lagadanu/Desktop/qemu/optee_os/lib/libmpa/mpa_misc.c:104
    2898:	5a81a421 	cneg	w1, w1, lt
    289c:	51000421 	sub	w1, w1, #0x1
    28a0:	8b21c800 	add	x0, x0, w1, sxtw #2
    28a4:	b9400802 	ldr	w2, [x0,#8]
/home/lagadanu/Desktop/qemu/optee_os/lib/libmpa/mpa_misc.c:106
    28a8:	52800000 	mov	w0, #0x0                   	// #0
/home/lagadanu/Desktop/qemu/optee_os/lib/libmpa/mpa_misc.c:107
    28ac:	53017c42 	lsr	w2, w2, #1
/home/lagadanu/Desktop/qemu/optee_os/lib/libmpa/mpa_misc.c:108
    28b0:	34000082 	cbz	w2, 28c0 <mpa_highest_bit_index+0x34>
/home/lagadanu/Desktop/qemu/optee_os/lib/libmpa/mpa_misc.c:106 (discriminator 2)
    28b4:	11000400 	add	w0, w0, #0x1
    28b8:	7100801f 	cmp	w0, #0x20
    28bc:	54ffff81 	b.ne	28ac <mpa_highest_bit_index+0x20>
/home/lagadanu/Desktop/qemu/optee_os/lib/libmpa/mpa_misc.c:111
    28c0:	0b011400 	add	w0, w0, w1, lsl #5
    28c4:	d65f03c0 	ret
/home/lagadanu/Desktop/qemu/optee_os/lib/libmpa/mpa_misc.c:102
    28c8:	12800000 	mov	w0, #0xffffffff            	// #-1
/home/lagadanu/Desktop/qemu/optee_os/lib/libmpa/mpa_misc.c:112
    28cc:	d65f03c0 	ret

00000000000028d0 <mpa_get_bit>:
mpa_get_bit():
/home/lagadanu/Desktop/qemu/optee_os/lib/libmpa/mpa_misc.c:131
    28d0:	b9400402 	ldr	w2, [x0,#4]
/home/lagadanu/Desktop/qemu/optee_os/lib/libmpa/mpa_misc.c:128
    28d4:	53057c23 	lsr	w3, w1, #5
/home/lagadanu/Desktop/qemu/optee_os/lib/libmpa/mpa_misc.c:131
    28d8:	7100005f 	cmp	w2, #0x0
    28dc:	5a82a442 	cneg	w2, w2, lt
    28e0:	6b02007f 	cmp	w3, w2
    28e4:	54000148 	b.hi	290c <mpa_get_bit+0x3c>
/home/lagadanu/Desktop/qemu/optee_os/lib/libmpa/mpa_misc.c:134
    28e8:	d37e6863 	ubfiz	x3, x3, #2, #27
/home/lagadanu/Desktop/qemu/optee_os/lib/libmpa/mpa_misc.c:133
    28ec:	12001021 	and	w1, w1, #0x1f
/home/lagadanu/Desktop/qemu/optee_os/lib/libmpa/mpa_misc.c:134
    28f0:	8b030000 	add	x0, x0, x3
/home/lagadanu/Desktop/qemu/optee_os/lib/libmpa/mpa_misc.c:133
    28f4:	d2800022 	mov	x2, #0x1                   	// #1
    28f8:	9ac12041 	lsl	x1, x2, x1
/home/lagadanu/Desktop/qemu/optee_os/lib/libmpa/mpa_misc.c:134
    28fc:	b9400800 	ldr	w0, [x0,#8]
    2900:	ea00003f 	tst	x1, x0
    2904:	1a9f07e0 	cset	w0, ne
    2908:	d65f03c0 	ret
    290c:	52800000 	mov	w0, #0x0                   	// #0
/home/lagadanu/Desktop/qemu/optee_os/lib/libmpa/mpa_misc.c:135
    2910:	d65f03c0 	ret

0000000000002914 <mpa_can_hold>:
mpa_can_hold():
/home/lagadanu/Desktop/qemu/optee_os/lib/libmpa/mpa_misc.c:145
    2914:	b9400421 	ldr	w1, [x1,#4]
    2918:	b9400000 	ldr	w0, [x0]
    291c:	7100003f 	cmp	w1, #0x0
    2920:	5a81a421 	cneg	w1, w1, lt
    2924:	6b01001f 	cmp	w0, w1
/home/lagadanu/Desktop/qemu/optee_os/lib/libmpa/mpa_misc.c:146
    2928:	1a9f37e0 	cset	w0, cs
    292c:	d65f03c0 	ret

0000000000002930 <mpa_parity>:
mpa_parity():
/home/lagadanu/Desktop/qemu/optee_os/lib/libmpa/mpa_misc.c:156
    2930:	b9400800 	ldr	w0, [x0,#8]
/home/lagadanu/Desktop/qemu/optee_os/lib/libmpa/mpa_misc.c:157
    2934:	12000000 	and	w0, w0, #0x1
    2938:	d65f03c0 	ret

000000000000293c <mpa_constant_one>:
mpa_constant_one():
/home/lagadanu/Desktop/qemu/optee_os/lib/libmpa/mpa_misc.c:167
    293c:	b0000020 	adrp	x0, 7000 <memalign+0x2bc>
    2940:	911fe000 	add	x0, x0, #0x7f8
    2944:	d65f03c0 	ret

0000000000002948 <__mpa_montgomery_mul_add>:
__mpa_montgomery_mul_add():
/home/lagadanu/Desktop/qemu/optee_os/lib/libmpa/mpa_montgomery.c:34
    2948:	34000222 	cbz	w2, 298c <__mpa_montgomery_mul_add+0x44>
/home/lagadanu/Desktop/qemu/optee_os/lib/libmpa/mpa_montgomery.c:36
    294c:	91002007 	add	x7, x0, #0x8
    2950:	d2800025 	mov	x5, #0x1                   	// #1
/home/lagadanu/Desktop/qemu/optee_os/lib/libmpa/mpa_montgomery.c:37
    2954:	aa0703e3 	mov	x3, x7
/home/lagadanu/Desktop/qemu/optee_os/lib/libmpa/mpa_montgomery.c:38
    2958:	52800004 	mov	w4, #0x0                   	// #0
/home/lagadanu/Desktop/qemu/optee_os/lib/libmpa/mpa_montgomery.c:39
    295c:	b9400428 	ldr	w8, [x1,#4]
    2960:	510004a6 	sub	w6, w5, #0x1
    2964:	910004a5 	add	x5, x5, #0x1
    2968:	6b0800df 	cmp	w6, w8
    296c:	5400012b 	b.lt	2990 <__mpa_montgomery_mul_add+0x48>
/home/lagadanu/Desktop/qemu/optee_os/lib/libmpa/mpa_montgomery.c:46
    2970:	350001e4 	cbnz	w4, 29ac <__mpa_montgomery_mul_add+0x64>
/home/lagadanu/Desktop/qemu/optee_os/lib/libmpa/mpa_montgomery.c:51
    2974:	cb070063 	sub	x3, x3, x7
/home/lagadanu/Desktop/qemu/optee_os/lib/libmpa/mpa_montgomery.c:52
    2978:	b9400401 	ldr	w1, [x0,#4]
/home/lagadanu/Desktop/qemu/optee_os/lib/libmpa/mpa_montgomery.c:51
    297c:	9342fc63 	asr	x3, x3, #2
/home/lagadanu/Desktop/qemu/optee_os/lib/libmpa/mpa_montgomery.c:52
    2980:	6b01007f 	cmp	w3, w1
    2984:	5400004d 	b.le	298c <__mpa_montgomery_mul_add+0x44>
/home/lagadanu/Desktop/qemu/optee_os/lib/libmpa/mpa_montgomery.c:53
    2988:	b9000403 	str	w3, [x0,#4]
    298c:	d65f03c0 	ret
/home/lagadanu/Desktop/qemu/optee_os/lib/libmpa/mpa_montgomery.c:40
    2990:	b9400066 	ldr	w6, [x3]
    2994:	8b2440c4 	add	x4, x6, w4, uxtw
    2998:	b8657826 	ldr	w6, [x1,x5,lsl #2]
    299c:	9ba210c4 	umaddl	x4, w6, w2, x4
/home/lagadanu/Desktop/qemu/optee_os/lib/libmpa/mpa_montgomery.c:43
    29a0:	b8004464 	str	w4, [x3],#4
/home/lagadanu/Desktop/qemu/optee_os/lib/libmpa/mpa_montgomery.c:44
    29a4:	d360fc84 	lsr	x4, x4, #32
    29a8:	17ffffed 	b	295c <__mpa_montgomery_mul_add+0x14>
/home/lagadanu/Desktop/qemu/optee_os/lib/libmpa/mpa_montgomery.c:47
    29ac:	b9400061 	ldr	w1, [x3]
    29b0:	8b244024 	add	x4, x1, w4, uxtw
/home/lagadanu/Desktop/qemu/optee_os/lib/libmpa/mpa_montgomery.c:48
    29b4:	b8004464 	str	w4, [x3],#4
/home/lagadanu/Desktop/qemu/optee_os/lib/libmpa/mpa_montgomery.c:49
    29b8:	d360fc84 	lsr	x4, x4, #32
    29bc:	17ffffed 	b	2970 <__mpa_montgomery_mul_add+0x28>

00000000000029c0 <__mpa_montgomery_sub_ack>:
__mpa_montgomery_sub_ack():
/home/lagadanu/Desktop/qemu/optee_os/lib/libmpa/mpa_montgomery.c:75
    29c0:	91002002 	add	x2, x0, #0x8
/home/lagadanu/Desktop/qemu/optee_os/lib/libmpa/mpa_montgomery.c:78
    29c4:	d2800026 	mov	x6, #0x1                   	// #1
/home/lagadanu/Desktop/qemu/optee_os/lib/libmpa/mpa_montgomery.c:76
    29c8:	52800004 	mov	w4, #0x0                   	// #0
/home/lagadanu/Desktop/qemu/optee_os/lib/libmpa/mpa_montgomery.c:78
    29cc:	b9400423 	ldr	w3, [x1,#4]
    29d0:	510004c5 	sub	w5, w6, #0x1
    29d4:	910004c6 	add	x6, x6, #0x1
    29d8:	6b05007f 	cmp	w3, w5
    29dc:	540000cc 	b.gt	29f4 <__mpa_montgomery_sub_ack+0x34>
/home/lagadanu/Desktop/qemu/optee_os/lib/libmpa/mpa_montgomery.c:87
    29e0:	350001a4 	cbnz	w4, 2a14 <__mpa_montgomery_sub_ack+0x54>
/home/lagadanu/Desktop/qemu/optee_os/lib/libmpa/mpa_montgomery.c:93
    29e4:	b9400401 	ldr	w1, [x0,#4]
    29e8:	6b0100bf 	cmp	w5, w1
    29ec:	5400026a 	b.ge	2a38 <__mpa_montgomery_sub_ack+0x78>
    29f0:	d65f03c0 	ret
/home/lagadanu/Desktop/qemu/optee_os/lib/libmpa/mpa_montgomery.c:79
    29f4:	b8667825 	ldr	w5, [x1,x6,lsl #2]
    29f8:	b9400043 	ldr	w3, [x2]
    29fc:	cb050063 	sub	x3, x3, x5
    2a00:	cb244063 	sub	x3, x3, w4, uxtw
/home/lagadanu/Desktop/qemu/optee_os/lib/libmpa/mpa_montgomery.c:81
    2a04:	b8004443 	str	w3, [x2],#4
/home/lagadanu/Desktop/qemu/optee_os/lib/libmpa/mpa_montgomery.c:82
    2a08:	d360fc63 	lsr	x3, x3, #32
    2a0c:	4b0303e4 	neg	w4, w3
    2a10:	17ffffef 	b	29cc <__mpa_montgomery_sub_ack+0xc>
/home/lagadanu/Desktop/qemu/optee_os/lib/libmpa/mpa_montgomery.c:88
    2a14:	b9400041 	ldr	w1, [x2]
/home/lagadanu/Desktop/qemu/optee_os/lib/libmpa/mpa_montgomery.c:91
    2a18:	110004a5 	add	w5, w5, #0x1
/home/lagadanu/Desktop/qemu/optee_os/lib/libmpa/mpa_montgomery.c:88
    2a1c:	cb244023 	sub	x3, x1, w4, uxtw
/home/lagadanu/Desktop/qemu/optee_os/lib/libmpa/mpa_montgomery.c:89
    2a20:	b8004443 	str	w3, [x2],#4
/home/lagadanu/Desktop/qemu/optee_os/lib/libmpa/mpa_montgomery.c:90
    2a24:	d360fc63 	lsr	x3, x3, #32
    2a28:	4b0303e4 	neg	w4, w3
    2a2c:	17ffffed 	b	29e0 <__mpa_montgomery_sub_ack+0x20>
/home/lagadanu/Desktop/qemu/optee_os/lib/libmpa/mpa_montgomery.c:96
    2a30:	51000421 	sub	w1, w1, #0x1
    2a34:	b9000401 	str	w1, [x0,#4]
/home/lagadanu/Desktop/qemu/optee_os/lib/libmpa/mpa_montgomery.c:95
    2a38:	b9400401 	ldr	w1, [x0,#4]
    2a3c:	7100003f 	cmp	w1, #0x0
    2a40:	5400006d 	b.le	2a4c <__mpa_montgomery_sub_ack+0x8c>
/home/lagadanu/Desktop/qemu/optee_os/lib/libmpa/mpa_montgomery.c:95 (discriminator 1)
    2a44:	b85fcc43 	ldr	w3, [x2,#-4]!
    2a48:	34ffff43 	cbz	w3, 2a30 <__mpa_montgomery_sub_ack+0x70>
    2a4c:	d65f03c0 	ret

0000000000002a50 <__mpa_montgomery_mul>:
__mpa_montgomery_mul():
/home/lagadanu/Desktop/qemu/optee_os/lib/libmpa/mpa_montgomery.c:115
    2a50:	a9bb7bfd 	stp	x29, x30, [sp,#-80]!
    2a54:	910003fd 	mov	x29, sp
    2a58:	a90363f7 	stp	x23, x24, [sp,#48]
    2a5c:	aa0103f7 	mov	x23, x1
    2a60:	a9046bf9 	stp	x25, x26, [sp,#64]
    2a64:	910022f9 	add	x25, x23, #0x8
/home/lagadanu/Desktop/qemu/optee_os/lib/libmpa/mpa_montgomery.c:122
    2a68:	52800018 	mov	w24, #0x0                   	// #0
/home/lagadanu/Desktop/qemu/optee_os/lib/libmpa/mpa_montgomery.c:115
    2a6c:	a90153f3 	stp	x19, x20, [sp,#16]
    2a70:	a9025bf5 	stp	x21, x22, [sp,#32]
    2a74:	aa0003f3 	mov	x19, x0
    2a78:	aa0203f6 	mov	x22, x2
    2a7c:	aa0303f4 	mov	x20, x3
    2a80:	2a0403f5 	mov	w21, w4
/home/lagadanu/Desktop/qemu/optee_os/lib/libmpa/mpa_montgomery.c:120
    2a84:	97ffff55 	bl	27d8 <mpa_wipe>
/home/lagadanu/Desktop/qemu/optee_os/lib/libmpa/mpa_montgomery.c:122 (discriminator 1)
    2a88:	b9400680 	ldr	w0, [x20,#4]
    2a8c:	6b00031f 	cmp	w24, w0
    2a90:	540001ab 	b.lt	2ac4 <__mpa_montgomery_mul+0x74>
/home/lagadanu/Desktop/qemu/optee_os/lib/libmpa/mpa_montgomery.c:139
    2a94:	aa1403e1 	mov	x1, x20
    2a98:	aa1303e0 	mov	x0, x19
    2a9c:	94000aad 	bl	5550 <__mpa_abs_cmp>
    2aa0:	37f805e0 	tbnz	w0, #31, 2b5c <__mpa_montgomery_mul+0x10c>
/home/lagadanu/Desktop/qemu/optee_os/lib/libmpa/mpa_montgomery.c:140
    2aa4:	aa1403e1 	mov	x1, x20
    2aa8:	aa1303e0 	mov	x0, x19
/home/lagadanu/Desktop/qemu/optee_os/lib/libmpa/mpa_montgomery.c:141
    2aac:	a9425bf5 	ldp	x21, x22, [sp,#32]
    2ab0:	a94153f3 	ldp	x19, x20, [sp,#16]
    2ab4:	a94363f7 	ldp	x23, x24, [sp,#48]
    2ab8:	a9446bf9 	ldp	x25, x26, [sp,#64]
    2abc:	a8c57bfd 	ldp	x29, x30, [sp],#80
/home/lagadanu/Desktop/qemu/optee_os/lib/libmpa/mpa_montgomery.c:140
    2ac0:	17ffffc0 	b	29c0 <__mpa_montgomery_sub_ack>
/home/lagadanu/Desktop/qemu/optee_os/lib/libmpa/mpa_montgomery.c:124
    2ac4:	b94006e1 	ldr	w1, [x23,#4]
    2ac8:	52800002 	mov	w2, #0x0                   	// #0
/home/lagadanu/Desktop/qemu/optee_os/lib/libmpa/mpa_montgomery.c:123
    2acc:	b9400a69 	ldr	w9, [x19,#8]
/home/lagadanu/Desktop/qemu/optee_os/lib/libmpa/mpa_montgomery.c:124
    2ad0:	7100003f 	cmp	w1, #0x0
    2ad4:	5a81a421 	cneg	w1, w1, lt
    2ad8:	6b01031f 	cmp	w24, w1
    2adc:	5400004a 	b.ge	2ae4 <__mpa_montgomery_mul+0x94>
/home/lagadanu/Desktop/qemu/optee_os/lib/libmpa/mpa_montgomery.c:124 (discriminator 1)
    2ae0:	b9400322 	ldr	w2, [x25]
/home/lagadanu/Desktop/qemu/optee_os/lib/libmpa/mpa_montgomery.c:125
    2ae4:	b94006c1 	ldr	w1, [x22,#4]
    2ae8:	52800000 	mov	w0, #0x0                   	// #0
    2aec:	34000041 	cbz	w1, 2af4 <__mpa_montgomery_mul+0xa4>
/home/lagadanu/Desktop/qemu/optee_os/lib/libmpa/mpa_montgomery.c:125 (discriminator 1)
    2af0:	b9400ac0 	ldr	w0, [x22,#8]
/home/lagadanu/Desktop/qemu/optee_os/lib/libmpa/mpa_montgomery.c:123
    2af4:	1b002440 	madd	w0, w2, w0, w9
/home/lagadanu/Desktop/qemu/optee_os/lib/libmpa/mpa_montgomery.c:127
    2af8:	aa1603e1 	mov	x1, x22
/home/lagadanu/Desktop/qemu/optee_os/lib/libmpa/mpa_montgomery.c:123
    2afc:	1b157c1a 	mul	w26, w0, w21
/home/lagadanu/Desktop/qemu/optee_os/lib/libmpa/mpa_montgomery.c:127
    2b00:	aa1303e0 	mov	x0, x19
    2b04:	97ffff91 	bl	2948 <__mpa_montgomery_mul_add>
/home/lagadanu/Desktop/qemu/optee_os/lib/libmpa/mpa_montgomery.c:129
    2b08:	2a1a03e2 	mov	w2, w26
    2b0c:	aa1403e1 	mov	x1, x20
    2b10:	aa1303e0 	mov	x0, x19
    2b14:	97ffff8d 	bl	2948 <__mpa_montgomery_mul_add>
/home/lagadanu/Desktop/qemu/optee_os/lib/libmpa/mpa_montgomery.c:132
    2b18:	b9400660 	ldr	w0, [x19,#4]
    2b1c:	91002261 	add	x1, x19, #0x8
/home/lagadanu/Desktop/qemu/optee_os/lib/libmpa/mpa_montgomery.c:133
    2b20:	52800002 	mov	w2, #0x0                   	// #0
/home/lagadanu/Desktop/qemu/optee_os/lib/libmpa/mpa_montgomery.c:132
    2b24:	51000400 	sub	w0, w0, #0x1
    2b28:	b9000660 	str	w0, [x19,#4]
    2b2c:	91001021 	add	x1, x1, #0x4
/home/lagadanu/Desktop/qemu/optee_os/lib/libmpa/mpa_montgomery.c:133 (discriminator 1)
    2b30:	6b00005f 	cmp	w2, w0
    2b34:	540000cb 	b.lt	2b4c <__mpa_montgomery_mul+0xfc>
/home/lagadanu/Desktop/qemu/optee_os/lib/libmpa/mpa_montgomery.c:135 (discriminator 2)
    2b38:	8b20ca60 	add	x0, x19, w0, sxtw #2
/home/lagadanu/Desktop/qemu/optee_os/lib/libmpa/mpa_montgomery.c:122 (discriminator 2)
    2b3c:	11000718 	add	w24, w24, #0x1
    2b40:	91001339 	add	x25, x25, #0x4
/home/lagadanu/Desktop/qemu/optee_os/lib/libmpa/mpa_montgomery.c:135 (discriminator 2)
    2b44:	b900081f 	str	wzr, [x0,#8]
    2b48:	17ffffd0 	b	2a88 <__mpa_montgomery_mul+0x38>
/home/lagadanu/Desktop/qemu/optee_os/lib/libmpa/mpa_montgomery.c:134 (discriminator 3)
    2b4c:	b9400023 	ldr	w3, [x1]
    2b50:	11000442 	add	w2, w2, #0x1
    2b54:	b81fc023 	stur	w3, [x1,#-4]
    2b58:	17fffff5 	b	2b2c <__mpa_montgomery_mul+0xdc>
/home/lagadanu/Desktop/qemu/optee_os/lib/libmpa/mpa_montgomery.c:141
    2b5c:	a94153f3 	ldp	x19, x20, [sp,#16]
    2b60:	a9425bf5 	ldp	x21, x22, [sp,#32]
    2b64:	a94363f7 	ldp	x23, x24, [sp,#48]
    2b68:	a9446bf9 	ldp	x25, x26, [sp,#64]
    2b6c:	a8c57bfd 	ldp	x29, x30, [sp],#80
    2b70:	d65f03c0 	ret

0000000000002b74 <mpa_compute_fmm_context>:
mpa_compute_fmm_context():
/home/lagadanu/Desktop/qemu/optee_os/lib/libmpa/mpa_montgomery.c:157
    2b74:	a9ba7bfd 	stp	x29, x30, [sp,#-96]!
    2b78:	910003fd 	mov	x29, sp
    2b7c:	a90363f7 	stp	x23, x24, [sp,#48]
    2b80:	aa0203f8 	mov	x24, x2
/home/lagadanu/Desktop/qemu/optee_os/lib/libmpa/mpa_montgomery.c:171
    2b84:	b9400402 	ldr	w2, [x0,#4]
/home/lagadanu/Desktop/qemu/optee_os/lib/libmpa/mpa_montgomery.c:157
    2b88:	aa0303f7 	mov	x23, x3
    2b8c:	a90153f3 	stp	x19, x20, [sp,#16]
    2b90:	aa0103f4 	mov	x20, x1
/home/lagadanu/Desktop/qemu/optee_os/lib/libmpa/mpa_montgomery.c:171
    2b94:	7100005f 	cmp	w2, #0x0
/home/lagadanu/Desktop/qemu/optee_os/lib/libmpa/mpa_montgomery.c:157
    2b98:	aa0403f3 	mov	x19, x4
    2b9c:	a9025bf5 	stp	x21, x22, [sp,#32]
/home/lagadanu/Desktop/qemu/optee_os/lib/libmpa/mpa_montgomery.c:172
    2ba0:	52800021 	mov	w1, #0x1                   	// #1
/home/lagadanu/Desktop/qemu/optee_os/lib/libmpa/mpa_montgomery.c:171
    2ba4:	5a82a455 	cneg	w21, w2, lt
/home/lagadanu/Desktop/qemu/optee_os/lib/libmpa/mpa_montgomery.c:157
    2ba8:	aa0003f6 	mov	x22, x0
/home/lagadanu/Desktop/qemu/optee_os/lib/libmpa/mpa_montgomery.c:172
    2bac:	aa1403e0 	mov	x0, x20
    2bb0:	94000175 	bl	3184 <mpa_set_word>
/home/lagadanu/Desktop/qemu/optee_os/lib/libmpa/mpa_montgomery.c:173
    2bb4:	531b6aa2 	lsl	w2, w21, #5
    2bb8:	aa1403e1 	mov	x1, x20
    2bbc:	aa1403e0 	mov	x0, x20
    2bc0:	94000772 	bl	4988 <mpa_shift_left>
/home/lagadanu/Desktop/qemu/optee_os/lib/libmpa/mpa_montgomery.c:174
    2bc4:	aa1603e2 	mov	x2, x22
    2bc8:	aa1403e1 	mov	x1, x20
    2bcc:	aa1403e0 	mov	x0, x20
    2bd0:	aa1303e3 	mov	x3, x19
    2bd4:	94000d32 	bl	609c <mpa_mod>
/home/lagadanu/Desktop/qemu/optee_os/lib/libmpa/mpa_montgomery.c:180
    2bd8:	52800035 	mov	w21, #0x1                   	// #1
/home/lagadanu/Desktop/qemu/optee_os/lib/libmpa/mpa_montgomery.c:177
    2bdc:	aa1603e3 	mov	x3, x22
    2be0:	aa1403e2 	mov	x2, x20
    2be4:	aa1303e4 	mov	x4, x19
    2be8:	aa1403e1 	mov	x1, x20
    2bec:	aa1803e0 	mov	x0, x24
    2bf0:	94000d73 	bl	61bc <mpa_mul_mod>
/home/lagadanu/Desktop/qemu/optee_os/lib/libmpa/mpa_montgomery.c:182
    2bf4:	b9400ac0 	ldr	w0, [x22,#8]
/home/lagadanu/Desktop/qemu/optee_os/lib/libmpa/mpa_montgomery.c:184
    2bf8:	910103b6 	add	x22, x29, #0x40
    2bfc:	aa1303e1 	mov	x1, x19
/home/lagadanu/Desktop/qemu/optee_os/lib/libmpa/mpa_montgomery.c:181
    2c00:	290a57b5 	stp	w21, w21, [x29,#80]
/home/lagadanu/Desktop/qemu/optee_os/lib/libmpa/mpa_montgomery.c:182
    2c04:	b9005ba0 	str	w0, [x29,#88]
/home/lagadanu/Desktop/qemu/optee_os/lib/libmpa/mpa_montgomery.c:185
    2c08:	910123b8 	add	x24, x29, #0x48
/home/lagadanu/Desktop/qemu/optee_os/lib/libmpa/mpa_montgomery.c:184
    2c0c:	aa1603e0 	mov	x0, x22
    2c10:	940005dd 	bl	4384 <mpa_alloc_static_temp_var>
/home/lagadanu/Desktop/qemu/optee_os/lib/libmpa/mpa_montgomery.c:185
    2c14:	aa1303e1 	mov	x1, x19
    2c18:	aa1803e0 	mov	x0, x24
    2c1c:	940005da 	bl	4384 <mpa_alloc_static_temp_var>
/home/lagadanu/Desktop/qemu/optee_os/lib/libmpa/mpa_montgomery.c:187
    2c20:	d0000034 	adrp	x20, 8000 <PRIME_TABLE+0x7d8>
    2c24:	a94403a1 	ldp	x1, x0, [x29,#64]
    2c28:	aa1303e5 	mov	x5, x19
    2c2c:	f947aa94 	ldr	x20, [x20,#3920]
    2c30:	910143a3 	add	x3, x29, #0x50
    2c34:	d2800002 	mov	x2, #0x0                   	// #0
    2c38:	aa1403e4 	mov	x4, x20
    2c3c:	94000544 	bl	414c <mpa_extended_gcd>
/home/lagadanu/Desktop/qemu/optee_os/lib/libmpa/mpa_montgomery.c:189
    2c40:	f94027a0 	ldr	x0, [x29,#72]
    2c44:	2a1503e1 	mov	w1, w21
    2c48:	94000a95 	bl	569c <mpa_cmp_short>
    2c4c:	2a0003f5 	mov	w21, w0
/home/lagadanu/Desktop/qemu/optee_os/lib/libmpa/mpa_montgomery.c:191
    2c50:	35000160 	cbnz	w0, 2c7c <mpa_compute_fmm_context+0x108>
/home/lagadanu/Desktop/qemu/optee_os/lib/libmpa/mpa_montgomery.c:207
    2c54:	f94023a1 	ldr	x1, [x29,#64]
    2c58:	b9400420 	ldr	w0, [x1,#4]
    2c5c:	37f800a0 	tbnz	w0, #31, 2c70 <mpa_compute_fmm_context+0xfc>
/home/lagadanu/Desktop/qemu/optee_os/lib/libmpa/mpa_montgomery.c:208
    2c60:	aa1303e3 	mov	x3, x19
    2c64:	aa1403e2 	mov	x2, x20
    2c68:	aa0103e0 	mov	x0, x1
    2c6c:	9400092a 	bl	5114 <mpa_sub>
/home/lagadanu/Desktop/qemu/optee_os/lib/libmpa/mpa_montgomery.c:212
    2c70:	f94023a0 	ldr	x0, [x29,#64]
    2c74:	b9400800 	ldr	w0, [x0,#8]
    2c78:	b90002e0 	str	w0, [x23]
/home/lagadanu/Desktop/qemu/optee_os/lib/libmpa/mpa_montgomery.c:216
    2c7c:	aa1303e1 	mov	x1, x19
    2c80:	aa1803e0 	mov	x0, x24
    2c84:	940005c4 	bl	4394 <mpa_free_static_temp_var>
/home/lagadanu/Desktop/qemu/optee_os/lib/libmpa/mpa_montgomery.c:217
    2c88:	aa1303e1 	mov	x1, x19
    2c8c:	aa1603e0 	mov	x0, x22
    2c90:	940005c1 	bl	4394 <mpa_free_static_temp_var>
/home/lagadanu/Desktop/qemu/optee_os/lib/libmpa/mpa_montgomery.c:219
    2c94:	710002bf 	cmp	w21, #0x0
/home/lagadanu/Desktop/qemu/optee_os/lib/libmpa/mpa_montgomery.c:222
    2c98:	a94153f3 	ldp	x19, x20, [sp,#16]
    2c9c:	5a9f03e0 	csetm	w0, ne
    2ca0:	a9425bf5 	ldp	x21, x22, [sp,#32]
    2ca4:	a94363f7 	ldp	x23, x24, [sp,#48]
    2ca8:	a8c67bfd 	ldp	x29, x30, [sp],#96
    2cac:	d65f03c0 	ret

0000000000002cb0 <mpa_montgomery_mul>:
mpa_montgomery_mul():
/home/lagadanu/Desktop/qemu/optee_os/lib/libmpa/mpa_montgomery.c:235
    2cb0:	a9ba7bfd 	stp	x29, x30, [sp,#-96]!
    2cb4:	910003fd 	mov	x29, sp
    2cb8:	a90153f3 	stp	x19, x20, [sp,#16]
/home/lagadanu/Desktop/qemu/optee_os/lib/libmpa/mpa_montgomery.c:238
    2cbc:	910163b3 	add	x19, x29, #0x58
/home/lagadanu/Desktop/qemu/optee_os/lib/libmpa/mpa_montgomery.c:235
    2cc0:	aa0503f4 	mov	x20, x5
    2cc4:	a9025bf5 	stp	x21, x22, [sp,#32]
    2cc8:	a90363f7 	stp	x23, x24, [sp,#48]
    2ccc:	aa0003f5 	mov	x21, x0
    2cd0:	f90023f9 	str	x25, [sp,#64]
    2cd4:	aa0103f6 	mov	x22, x1
    2cd8:	aa0203f7 	mov	x23, x2
/home/lagadanu/Desktop/qemu/optee_os/lib/libmpa/mpa_montgomery.c:238
    2cdc:	aa0503e1 	mov	x1, x5
/home/lagadanu/Desktop/qemu/optee_os/lib/libmpa/mpa_montgomery.c:235
    2ce0:	aa0303f8 	mov	x24, x3
    2ce4:	2a0403f9 	mov	w25, w4
/home/lagadanu/Desktop/qemu/optee_os/lib/libmpa/mpa_montgomery.c:238
    2ce8:	aa1303e0 	mov	x0, x19
    2cec:	940005a6 	bl	4384 <mpa_alloc_static_temp_var>
/home/lagadanu/Desktop/qemu/optee_os/lib/libmpa/mpa_montgomery.c:240
    2cf0:	f9402fa0 	ldr	x0, [x29,#88]
    2cf4:	2a1903e4 	mov	w4, w25
    2cf8:	aa1803e3 	mov	x3, x24
    2cfc:	aa1703e2 	mov	x2, x23
    2d00:	aa1603e1 	mov	x1, x22
    2d04:	97ffff53 	bl	2a50 <__mpa_montgomery_mul>
/home/lagadanu/Desktop/qemu/optee_os/lib/libmpa/mpa_montgomery.c:242
    2d08:	f9402fa1 	ldr	x1, [x29,#88]
    2d0c:	aa1503e0 	mov	x0, x21
    2d10:	97fffebe 	bl	2808 <mpa_copy>
/home/lagadanu/Desktop/qemu/optee_os/lib/libmpa/mpa_montgomery.c:243
    2d14:	aa1403e1 	mov	x1, x20
    2d18:	aa1303e0 	mov	x0, x19
    2d1c:	9400059e 	bl	4394 <mpa_free_static_temp_var>
/home/lagadanu/Desktop/qemu/optee_os/lib/libmpa/mpa_montgomery.c:244
    2d20:	f94023f9 	ldr	x25, [sp,#64]
    2d24:	a94153f3 	ldp	x19, x20, [sp,#16]
    2d28:	a9425bf5 	ldp	x21, x22, [sp,#32]
    2d2c:	a94363f7 	ldp	x23, x24, [sp,#48]
    2d30:	a8c67bfd 	ldp	x29, x30, [sp],#96
    2d34:	d65f03c0 	ret

0000000000002d38 <mpa_is_prob_prime>:
mpa_is_prob_prime():
/home/lagadanu/Desktop/qemu/optee_os/lib/libmpa/mpa_primetest.c:67
    2d38:	a9b37bfd 	stp	x29, x30, [sp,#-208]!
    2d3c:	910003fd 	mov	x29, sp
    2d40:	a9025bf5 	stp	x21, x22, [sp,#32]
    2d44:	2a0103f6 	mov	w22, w1
is_small_prime():
/home/lagadanu/Desktop/qemu/optee_os/lib/libmpa/mpa_primetest.c:114
    2d48:	b9400401 	ldr	w1, [x0,#4]
mpa_is_prob_prime():
/home/lagadanu/Desktop/qemu/optee_os/lib/libmpa/mpa_primetest.c:67
    2d4c:	a90153f3 	stp	x19, x20, [sp,#16]
    2d50:	aa0003f4 	mov	x20, x0
is_small_prime():
/home/lagadanu/Desktop/qemu/optee_os/lib/libmpa/mpa_primetest.c:114
    2d54:	7100003f 	cmp	w1, #0x0
mpa_is_prob_prime():
/home/lagadanu/Desktop/qemu/optee_os/lib/libmpa/mpa_primetest.c:67
    2d58:	a90363f7 	stp	x23, x24, [sp,#48]
    2d5c:	a9046bf9 	stp	x25, x26, [sp,#64]
is_small_prime():
/home/lagadanu/Desktop/qemu/optee_os/lib/libmpa/mpa_primetest.c:114
    2d60:	5a81a421 	cneg	w1, w1, lt
mpa_is_prob_prime():
/home/lagadanu/Desktop/qemu/optee_os/lib/libmpa/mpa_primetest.c:67
    2d64:	a90573fb 	stp	x27, x28, [sp,#80]
    2d68:	aa0203f3 	mov	x19, x2
is_small_prime():
/home/lagadanu/Desktop/qemu/optee_os/lib/libmpa/mpa_primetest.c:114
    2d6c:	7100043f 	cmp	w1, #0x1
    2d70:	5400018d 	b.le	2da0 <mpa_is_prob_prime+0x68>
/home/lagadanu/Desktop/qemu/optee_os/lib/libmpa/mpa_primetest.c:115
    2d74:	97fffeef 	bl	2930 <mpa_parity>
    2d78:	35000d80 	cbnz	w0, 2f28 <mpa_is_prob_prime+0x1f0>
    2d7c:	52800019 	mov	w25, #0x0                   	// #0
mpa_is_prob_prime():
/home/lagadanu/Desktop/qemu/optee_os/lib/libmpa/mpa_primetest.c:85
    2d80:	2a1903e0 	mov	w0, w25
    2d84:	a94153f3 	ldp	x19, x20, [sp,#16]
    2d88:	a9425bf5 	ldp	x21, x22, [sp,#32]
    2d8c:	a94363f7 	ldp	x23, x24, [sp,#48]
    2d90:	a9446bf9 	ldp	x25, x26, [sp,#64]
    2d94:	a94573fb 	ldp	x27, x28, [sp,#80]
    2d98:	a8cd7bfd 	ldp	x29, x30, [sp],#208
    2d9c:	d65f03c0 	ret
is_small_prime():
/home/lagadanu/Desktop/qemu/optee_os/lib/libmpa/mpa_primetest.c:117
    2da0:	940000fe 	bl	3198 <mpa_get_word>
    2da4:	2a0003f5 	mov	w21, w0
/home/lagadanu/Desktop/qemu/optee_os/lib/libmpa/mpa_primetest.c:118
    2da8:	32000000 	orr	w0, w0, #0x1
    2dac:	7100041f 	cmp	w0, #0x1
    2db0:	54fffe60 	b.eq	2d7c <mpa_is_prob_prime+0x44>
/home/lagadanu/Desktop/qemu/optee_os/lib/libmpa/mpa_primetest.c:121
    2db4:	52800039 	mov	w25, #0x1                   	// #1
/home/lagadanu/Desktop/qemu/optee_os/lib/libmpa/mpa_primetest.c:120
    2db8:	71000abf 	cmp	w21, #0x2
    2dbc:	54fffe20 	b.eq	2d80 <mpa_is_prob_prime+0x48>
/home/lagadanu/Desktop/qemu/optee_os/lib/libmpa/mpa_primetest.c:122
    2dc0:	3607fdf5 	tbz	w21, #0, 2d7c <mpa_is_prob_prime+0x44>
/home/lagadanu/Desktop/qemu/optee_os/lib/libmpa/mpa_primetest.c:126
    2dc4:	529869e1 	mov	w1, #0xc34f                	// #49999
    2dc8:	aa1403e0 	mov	x0, x20
    2dcc:	94000a34 	bl	569c <mpa_cmp_short>
    2dd0:	7100001f 	cmp	w0, #0x0
    2dd4:	54000aac 	b.gt	2f28 <mpa_is_prob_prime+0x1f0>
/home/lagadanu/Desktop/qemu/optee_os/lib/libmpa/mpa_primetest.c:128
    2dd8:	51000eb5 	sub	w21, w21, #0x3
check_table():
/home/lagadanu/Desktop/qemu/optee_os/lib/libmpa/mpa_primetest.c:95
    2ddc:	b0000020 	adrp	x0, 7000 <memalign+0x2bc>
    2de0:	9120a000 	add	x0, x0, #0x828
    2de4:	d3467ea1 	ubfx	x1, x21, #6, #26
    2de8:	d34116b5 	ubfx	x21, x21, #1, #5
    2dec:	b8617802 	ldr	w2, [x0,x1,lsl #2]
    2df0:	1ad52440 	lsr	w0, w2, w21
    2df4:	0a190019 	and	w25, w0, w25
    2df8:	17ffffe2 	b	2d80 <mpa_is_prob_prime+0x48>
primality_test_miller_rabin():
/home/lagadanu/Desktop/qemu/optee_os/lib/libmpa/mpa_primetest.c:206
    2dfc:	f94057a1 	ldr	x1, [x29,#168]
    2e00:	52800022 	mov	w2, #0x1                   	// #1
/home/lagadanu/Desktop/qemu/optee_os/lib/libmpa/mpa_primetest.c:207
    2e04:	11000718 	add	w24, w24, #0x1
/home/lagadanu/Desktop/qemu/optee_os/lib/libmpa/mpa_primetest.c:206
    2e08:	aa0103e0 	mov	x0, x1
    2e0c:	94000743 	bl	4b18 <mpa_shift_right>
    2e10:	1400008e 	b	3048 <mpa_is_prob_prime+0x310>
/home/lagadanu/Desktop/qemu/optee_os/lib/libmpa/mpa_primetest.c:212
    2e14:	36f803b7 	tbz	w23, #31, 2e88 <mpa_is_prob_prime+0x150>
/home/lagadanu/Desktop/qemu/optee_os/lib/libmpa/mpa_primetest.c:213
    2e18:	f9403ba0 	ldr	x0, [x29,#112]
/home/lagadanu/Desktop/qemu/optee_os/lib/libmpa/mpa_primetest.c:215
    2e1c:	52800039 	mov	w25, #0x1                   	// #1
/home/lagadanu/Desktop/qemu/optee_os/lib/libmpa/mpa_primetest.c:213
    2e20:	91312000 	add	x0, x0, #0xc48
    2e24:	b8767801 	ldr	w1, [x0,x22,lsl #2]
    2e28:	f94053a0 	ldr	x0, [x29,#160]
    2e2c:	940000ae 	bl	30e4 <mpa_set_S32>
/home/lagadanu/Desktop/qemu/optee_os/lib/libmpa/mpa_primetest.c:214
    2e30:	f94053a1 	ldr	x1, [x29,#160]
    2e34:	aa1403e0 	mov	x0, x20
    2e38:	940009ff 	bl	5634 <mpa_cmp>
    2e3c:	34000220 	cbz	w0, 2e80 <mpa_is_prob_prime+0x148>
/home/lagadanu/Desktop/qemu/optee_os/lib/libmpa/mpa_primetest.c:232
    2e40:	b9409fa6 	ldr	w6, [x29,#156]
    2e44:	aa1303e7 	mov	x7, x19
    2e48:	a94a0ba1 	ldp	x1, x2, [x29,#160]
    2e4c:	aa1403e3 	mov	x3, x20
    2e50:	a94b93a0 	ldp	x0, x4, [x29,#184]
/home/lagadanu/Desktop/qemu/optee_os/lib/libmpa/mpa_primetest.c:233
    2e54:	52800019 	mov	w25, #0x0                   	// #0
/home/lagadanu/Desktop/qemu/optee_os/lib/libmpa/mpa_primetest.c:232
    2e58:	f94067a5 	ldr	x5, [x29,#200]
    2e5c:	94000a31 	bl	5720 <mpa_exp_mod>
/home/lagadanu/Desktop/qemu/optee_os/lib/libmpa/mpa_primetest.c:236
    2e60:	f9405fa0 	ldr	x0, [x29,#184]
    2e64:	52800021 	mov	w1, #0x1                   	// #1
    2e68:	94000a0d 	bl	569c <mpa_cmp_short>
/home/lagadanu/Desktop/qemu/optee_os/lib/libmpa/mpa_primetest.c:237
    2e6c:	7100001f 	cmp	w0, #0x0
/home/lagadanu/Desktop/qemu/optee_os/lib/libmpa/mpa_primetest.c:236
    2e70:	2a0003e2 	mov	w2, w0
/home/lagadanu/Desktop/qemu/optee_os/lib/libmpa/mpa_primetest.c:237
    2e74:	7a400b24 	ccmp	w25, #0x0, #0x4, eq
    2e78:	540002ed 	b.le	2ed4 <mpa_is_prob_prime+0x19c>
/home/lagadanu/Desktop/qemu/optee_os/lib/libmpa/mpa_primetest.c:238
    2e7c:	52800019 	mov	w25, #0x0                   	// #0
    2e80:	910006d6 	add	x22, x22, #0x1
    2e84:	1400007b 	b	3070 <mpa_is_prob_prime+0x338>
/home/lagadanu/Desktop/qemu/optee_os/lib/libmpa/mpa_primetest.c:224
    2e88:	f9405ba1 	ldr	x1, [x29,#176]
    2e8c:	aa1303e3 	mov	x3, x19
    2e90:	52800022 	mov	w2, #0x1                   	// #1
    2e94:	aa0103e0 	mov	x0, x1
    2e98:	94000960 	bl	5418 <mpa_sub_word>
/home/lagadanu/Desktop/qemu/optee_os/lib/libmpa/mpa_primetest.c:226
    2e9c:	f94053a0 	ldr	x0, [x29,#160]
    2ea0:	f9405ba1 	ldr	x1, [x29,#176]
    2ea4:	9400061e 	bl	471c <mpa_get_random>
/home/lagadanu/Desktop/qemu/optee_os/lib/libmpa/mpa_primetest.c:227
    2ea8:	f9405ba1 	ldr	x1, [x29,#176]
    2eac:	aa1303e3 	mov	x3, x19
    2eb0:	52800022 	mov	w2, #0x1                   	// #1
    2eb4:	aa0103e0 	mov	x0, x1
    2eb8:	94000909 	bl	52dc <mpa_add_word>
/home/lagadanu/Desktop/qemu/optee_os/lib/libmpa/mpa_primetest.c:229
    2ebc:	f94053a1 	ldr	x1, [x29,#160]
    2ec0:	aa1303e3 	mov	x3, x19
    2ec4:	52800042 	mov	w2, #0x2                   	// #2
    2ec8:	aa0103e0 	mov	x0, x1
    2ecc:	94000904 	bl	52dc <mpa_add_word>
    2ed0:	17ffffdc 	b	2e40 <mpa_is_prob_prime+0x108>
/home/lagadanu/Desktop/qemu/optee_os/lib/libmpa/mpa_primetest.c:242
    2ed4:	a94b03a1 	ldp	x1, x0, [x29,#176]
    2ed8:	b90067a2 	str	w2, [x29,#100]
    2edc:	940009d6 	bl	5634 <mpa_cmp>
    2ee0:	34000200 	cbz	w0, 2f20 <mpa_is_prob_prime+0x1e8>
/home/lagadanu/Desktop/qemu/optee_os/lib/libmpa/mpa_primetest.c:243
    2ee4:	b94067a2 	ldr	w2, [x29,#100]
    2ee8:	2a190042 	orr	w2, w2, w25
/home/lagadanu/Desktop/qemu/optee_os/lib/libmpa/mpa_primetest.c:242
    2eec:	340001a2 	cbz	w2, 2f20 <mpa_is_prob_prime+0x1e8>
/home/lagadanu/Desktop/qemu/optee_os/lib/libmpa/mpa_primetest.c:248
    2ef0:	11000739 	add	w25, w25, #0x1
/home/lagadanu/Desktop/qemu/optee_os/lib/libmpa/mpa_primetest.c:249
    2ef4:	6b19031f 	cmp	w24, w25
    2ef8:	54fffc2d 	b.le	2e7c <mpa_is_prob_prime+0x144>
/home/lagadanu/Desktop/qemu/optee_os/lib/libmpa/mpa_primetest.c:250
    2efc:	a94b93a1 	ldp	x1, x4, [x29,#184]
    2f00:	aa1303e7 	mov	x7, x19
    2f04:	b9409fa6 	ldr	w6, [x29,#156]
    2f08:	aa1403e3 	mov	x3, x20
    2f0c:	f94037a2 	ldr	x2, [x29,#104]
    2f10:	aa0103e0 	mov	x0, x1
    2f14:	f94067a5 	ldr	x5, [x29,#200]
    2f18:	94000a02 	bl	5720 <mpa_exp_mod>
    2f1c:	17ffffd1 	b	2e60 <mpa_is_prob_prime+0x128>
/home/lagadanu/Desktop/qemu/optee_os/lib/libmpa/mpa_primetest.c:242
    2f20:	12800019 	mov	w25, #0xffffffff            	// #-1
    2f24:	17ffffd7 	b	2e80 <mpa_is_prob_prime+0x148>
has_small_factors():
/home/lagadanu/Desktop/qemu/optee_os/lib/libmpa/mpa_primetest.c:148
    2f28:	910323b5 	add	x21, x29, #0xc8
    2f2c:	aa1303e1 	mov	x1, x19
    2f30:	aa1503e0 	mov	x0, x21
    2f34:	94000514 	bl	4384 <mpa_alloc_static_temp_var>
/home/lagadanu/Desktop/qemu/optee_os/lib/libmpa/mpa_primetest.c:149
    2f38:	f94067a0 	ldr	x0, [x29,#200]
    2f3c:	b0000038 	adrp	x24, 7000 <memalign+0x2bc>
    2f40:	9120a317 	add	x23, x24, #0x828
    2f44:	aa1303e3 	mov	x3, x19
    2f48:	9131e2e2 	add	x2, x23, #0xc78
    2f4c:	aa1403e1 	mov	x1, x20
    2f50:	94000437 	bl	402c <mpa_gcd>
/home/lagadanu/Desktop/qemu/optee_os/lib/libmpa/mpa_primetest.c:150
    2f54:	f94067a0 	ldr	x0, [x29,#200]
    2f58:	52800021 	mov	w1, #0x1                   	// #1
    2f5c:	940009d0 	bl	569c <mpa_cmp_short>
    2f60:	2a0003f9 	mov	w25, w0
/home/lagadanu/Desktop/qemu/optee_os/lib/libmpa/mpa_primetest.c:151
    2f64:	aa1303e1 	mov	x1, x19
    2f68:	aa1503e0 	mov	x0, x21
    2f6c:	9400050a 	bl	4394 <mpa_free_static_temp_var>
    2f70:	f9003bb8 	str	x24, [x29,#112]
mpa_is_prob_prime():
/home/lagadanu/Desktop/qemu/optee_os/lib/libmpa/mpa_primetest.c:76
    2f74:	35fff059 	cbnz	w25, 2d7c <mpa_is_prob_prime+0x44>
primality_test_miller_rabin():
/home/lagadanu/Desktop/qemu/optee_os/lib/libmpa/mpa_primetest.c:180
    2f78:	910303a0 	add	x0, x29, #0xc0
    2f7c:	aa1303e1 	mov	x1, x19
    2f80:	f90043a0 	str	x0, [x29,#128]
    2f84:	94000500 	bl	4384 <mpa_alloc_static_temp_var>
/home/lagadanu/Desktop/qemu/optee_os/lib/libmpa/mpa_primetest.c:181
    2f88:	aa1303e1 	mov	x1, x19
    2f8c:	aa1503e0 	mov	x0, x21
    2f90:	940004fd 	bl	4384 <mpa_alloc_static_temp_var>
/home/lagadanu/Desktop/qemu/optee_os/lib/libmpa/mpa_primetest.c:184
    2f94:	52800019 	mov	w25, #0x0                   	// #0
/home/lagadanu/Desktop/qemu/optee_os/lib/libmpa/mpa_primetest.c:183
    2f98:	a94c0ba1 	ldp	x1, x2, [x29,#192]
    2f9c:	aa1303e4 	mov	x4, x19
    2fa0:	910273a3 	add	x3, x29, #0x9c
    2fa4:	aa1403e0 	mov	x0, x20
    2fa8:	97fffef3 	bl	2b74 <mpa_compute_fmm_context>
    2fac:	3100041f 	cmn	w0, #0x1
    2fb0:	540008c0 	b.eq	30c8 <mpa_is_prob_prime+0x390>
/home/lagadanu/Desktop/qemu/optee_os/lib/libmpa/mpa_primetest.c:188
    2fb4:	910283bc 	add	x28, x29, #0xa0
    2fb8:	aa1303e1 	mov	x1, x19
    2fbc:	aa1c03e0 	mov	x0, x28
/home/lagadanu/Desktop/qemu/optee_os/lib/libmpa/mpa_primetest.c:189
    2fc0:	9102a3bb 	add	x27, x29, #0xa8
/home/lagadanu/Desktop/qemu/optee_os/lib/libmpa/mpa_primetest.c:188
    2fc4:	940004f0 	bl	4384 <mpa_alloc_static_temp_var>
/home/lagadanu/Desktop/qemu/optee_os/lib/libmpa/mpa_primetest.c:190
    2fc8:	9102c3ba 	add	x26, x29, #0xb0
/home/lagadanu/Desktop/qemu/optee_os/lib/libmpa/mpa_primetest.c:189
    2fcc:	aa1303e1 	mov	x1, x19
    2fd0:	aa1b03e0 	mov	x0, x27
    2fd4:	940004ec 	bl	4384 <mpa_alloc_static_temp_var>
/home/lagadanu/Desktop/qemu/optee_os/lib/libmpa/mpa_primetest.c:190
    2fd8:	aa1303e1 	mov	x1, x19
    2fdc:	aa1a03e0 	mov	x0, x26
    2fe0:	940004e9 	bl	4384 <mpa_alloc_static_temp_var>
/home/lagadanu/Desktop/qemu/optee_os/lib/libmpa/mpa_primetest.c:191
    2fe4:	9102e3a0 	add	x0, x29, #0xb8
    2fe8:	aa1303e1 	mov	x1, x19
    2fec:	f9003fa0 	str	x0, [x29,#120]
    2ff0:	940004e5 	bl	4384 <mpa_alloc_static_temp_var>
/home/lagadanu/Desktop/qemu/optee_os/lib/libmpa/mpa_primetest.c:194
    2ff4:	9130e2e1 	add	x1, x23, #0xc38
    2ff8:	aa1403e0 	mov	x0, x20
    2ffc:	9400098e 	bl	5634 <mpa_cmp>
    3000:	2a0003f7 	mov	w23, w0
/home/lagadanu/Desktop/qemu/optee_os/lib/libmpa/mpa_primetest.c:193
    3004:	531f7c00 	lsr	w0, w0, #31
    3008:	b9008ba0 	str	w0, [x29,#136]
/home/lagadanu/Desktop/qemu/optee_os/lib/libmpa/mpa_primetest.c:197
    300c:	528000e0 	mov	w0, #0x7                   	// #7
    3010:	b9008fa0 	str	w0, [x29,#140]
/home/lagadanu/Desktop/qemu/optee_os/lib/libmpa/mpa_primetest.c:196
    3014:	37f800b7 	tbnz	w23, #31, 3028 <mpa_is_prob_prime+0x2f0>
/home/lagadanu/Desktop/qemu/optee_os/lib/libmpa/mpa_primetest.c:199
    3018:	110006d6 	add	w22, w22, #0x1
    301c:	52800040 	mov	w0, #0x2                   	// #2
    3020:	1ac00ec0 	sdiv	w0, w22, w0
    3024:	b9008fa0 	str	w0, [x29,#140]
/home/lagadanu/Desktop/qemu/optee_os/lib/libmpa/mpa_primetest.c:201
    3028:	f9405ba0 	ldr	x0, [x29,#176]
    302c:	aa1403e1 	mov	x1, x20
    3030:	aa1303e3 	mov	x3, x19
    3034:	52800022 	mov	w2, #0x1                   	// #1
/home/lagadanu/Desktop/qemu/optee_os/lib/libmpa/mpa_primetest.c:203
    3038:	52800018 	mov	w24, #0x0                   	// #0
/home/lagadanu/Desktop/qemu/optee_os/lib/libmpa/mpa_primetest.c:201
    303c:	940008f7 	bl	5418 <mpa_sub_word>
/home/lagadanu/Desktop/qemu/optee_os/lib/libmpa/mpa_primetest.c:202
    3040:	a94a87a0 	ldp	x0, x1, [x29,#168]
    3044:	97fffdf1 	bl	2808 <mpa_copy>
/home/lagadanu/Desktop/qemu/optee_os/lib/libmpa/mpa_primetest.c:205
    3048:	f94057a0 	ldr	x0, [x29,#168]
    304c:	97fffe39 	bl	2930 <mpa_parity>
    3050:	34ffed60 	cbz	w0, 2dfc <mpa_is_prob_prime+0xc4>
/home/lagadanu/Desktop/qemu/optee_os/lib/libmpa/mpa_primetest.c:250
    3054:	f9403ba0 	ldr	x0, [x29,#112]
/home/lagadanu/Desktop/qemu/optee_os/lib/libmpa/mpa_primetest.c:205
    3058:	d2800016 	mov	x22, #0x0                   	// #0
    305c:	12800019 	mov	w25, #0xffffffff            	// #-1
/home/lagadanu/Desktop/qemu/optee_os/lib/libmpa/mpa_primetest.c:250
    3060:	9120a000 	add	x0, x0, #0x828
    3064:	f9003ba0 	str	x0, [x29,#112]
    3068:	9131a000 	add	x0, x0, #0xc68
    306c:	f90037a0 	str	x0, [x29,#104]
/home/lagadanu/Desktop/qemu/optee_os/lib/libmpa/mpa_primetest.c:211
    3070:	b9408fa1 	ldr	w1, [x29,#140]
    3074:	3100073f 	cmn	w25, #0x1
    3078:	1a9f17e0 	cset	w0, eq
    307c:	6b16003f 	cmp	w1, w22
    3080:	1a9fd7e1 	cset	w1, gt
    3084:	6a01001f 	tst	w0, w1
    3088:	54ffec61 	b.ne	2e14 <mpa_is_prob_prime+0xdc>
/home/lagadanu/Desktop/qemu/optee_os/lib/libmpa/mpa_primetest.c:258
    308c:	b9408ba1 	ldr	w1, [x29,#136]
    3090:	6a00003f 	tst	w1, w0
/home/lagadanu/Desktop/qemu/optee_os/lib/libmpa/mpa_primetest.c:260
    3094:	aa1303e1 	mov	x1, x19
/home/lagadanu/Desktop/qemu/optee_os/lib/libmpa/mpa_primetest.c:258
    3098:	1a9f0739 	csinc	w25, w25, wzr, eq
/home/lagadanu/Desktop/qemu/optee_os/lib/libmpa/mpa_primetest.c:260
    309c:	aa1c03e0 	mov	x0, x28
    30a0:	940004bd 	bl	4394 <mpa_free_static_temp_var>
/home/lagadanu/Desktop/qemu/optee_os/lib/libmpa/mpa_primetest.c:261
    30a4:	aa1303e1 	mov	x1, x19
    30a8:	aa1b03e0 	mov	x0, x27
    30ac:	940004ba 	bl	4394 <mpa_free_static_temp_var>
/home/lagadanu/Desktop/qemu/optee_os/lib/libmpa/mpa_primetest.c:262
    30b0:	aa1303e1 	mov	x1, x19
    30b4:	aa1a03e0 	mov	x0, x26
    30b8:	940004b7 	bl	4394 <mpa_free_static_temp_var>
/home/lagadanu/Desktop/qemu/optee_os/lib/libmpa/mpa_primetest.c:263
    30bc:	f9403fa0 	ldr	x0, [x29,#120]
    30c0:	aa1303e1 	mov	x1, x19
    30c4:	940004b4 	bl	4394 <mpa_free_static_temp_var>
/home/lagadanu/Desktop/qemu/optee_os/lib/libmpa/mpa_primetest.c:265
    30c8:	f94043a0 	ldr	x0, [x29,#128]
    30cc:	aa1303e1 	mov	x1, x19
    30d0:	940004b1 	bl	4394 <mpa_free_static_temp_var>
/home/lagadanu/Desktop/qemu/optee_os/lib/libmpa/mpa_primetest.c:266
    30d4:	aa1303e1 	mov	x1, x19
    30d8:	aa1503e0 	mov	x0, x21
    30dc:	940004ae 	bl	4394 <mpa_free_static_temp_var>
    30e0:	17ffff28 	b	2d80 <mpa_is_prob_prime+0x48>

00000000000030e4 <mpa_set_S32>:
mpa_set_S32():
/home/lagadanu/Desktop/qemu/optee_os/lib/libmpa/mpa_conv.c:15
    30e4:	7100003f 	cmp	w1, #0x0
    30e8:	54000100 	b.eq	3108 <mpa_set_S32+0x24>
/home/lagadanu/Desktop/qemu/optee_os/lib/libmpa/mpa_conv.c:16
    30ec:	52800022 	mov	w2, #0x1                   	// #1
    30f0:	5a82a442 	cneg	w2, w2, lt
    30f4:	b9000402 	str	w2, [x0,#4]
/home/lagadanu/Desktop/qemu/optee_os/lib/libmpa/mpa_conv.c:19
    30f8:	7100003f 	cmp	w1, #0x0
    30fc:	5a81a421 	cneg	w1, w1, lt
    3100:	b9000801 	str	w1, [x0,#8]
    3104:	d65f03c0 	ret
/home/lagadanu/Desktop/qemu/optee_os/lib/libmpa/mpa_conv.c:18
    3108:	b900041f 	str	wzr, [x0,#4]
    310c:	17fffffb 	b	30f8 <mpa_set_S32+0x14>

0000000000003110 <mpa_get_S32>:
mpa_get_S32():
/home/lagadanu/Desktop/qemu/optee_os/lib/libmpa/mpa_conv.c:35
    3110:	b9400422 	ldr	w2, [x1,#4]
/home/lagadanu/Desktop/qemu/optee_os/lib/libmpa/mpa_conv.c:33
    3114:	aa0003e4 	mov	x4, x0
/home/lagadanu/Desktop/qemu/optee_os/lib/libmpa/mpa_conv.c:35
    3118:	7100005f 	cmp	w2, #0x0
    311c:	5a82a440 	cneg	w0, w2, lt
    3120:	7100041f 	cmp	w0, #0x1
    3124:	540002cc 	b.gt	317c <mpa_get_S32+0x6c>
