
out/873bcd08-c2c3-11e6-a937-d0bf9c45c61c.elf:     file format elf64-littleaarch64
out/873bcd08-c2c3-11e6-a937-d0bf9c45c61c.elf
architecture: aarch64, flags 0x00000150:
HAS_SYMS, DYNAMIC, D_PAGED
start address 0x0000000000000020

Program Header:
    LOAD off    0x0000000000010000 vaddr 0x0000000000000000 paddr 0x0000000000000000 align 2**16
         filesz 0x0000000000007c98 memsz 0x0000000000007c98 flags r-x
    LOAD off    0x0000000000017c98 vaddr 0x0000000000007c98 paddr 0x0000000000007c98 align 2**16
         filesz 0x0000000000001d74 memsz 0x0000000000001d74 flags r--
    LOAD off    0x000000000001a000 vaddr 0x000000000000a000 paddr 0x000000000000a000 align 2**16
         filesz 0x000000000000017c memsz 0x000000000000abc0 flags rw-
 DYNAMIC off    0x00000000000196e0 vaddr 0x00000000000096e0 paddr 0x00000000000096e0 align 2**3
         filesz 0x0000000000000100 memsz 0x0000000000000100 flags rw-

Dynamic Section:
  HASH                 0x00000000000099c0
  STRTAB               0x0000000000009930
  SYMTAB               0x00000000000097e0
  STRSZ                0x000000000000008e
  SYMENT               0x0000000000000018
  DEBUG                0x0000000000000000
  RELA                 0x0000000000009248
  RELASZ               0x0000000000000420
  RELAENT              0x0000000000000018
  FLAGS_1              0x0000000008000000
  RELACOUNT            0x0000000000000021
private flags = 0:

Sections:
Idx Name          Size      VMA               LMA               File off  Algn
  0 .ta_head      00000020  0000000000000000  0000000000000000  00010000  2**3
                  CONTENTS, ALLOC, LOAD, DATA
  1 .text         00007c78  0000000000000020  0000000000000020  00010020  2**2
                  CONTENTS, ALLOC, LOAD, READONLY, CODE
  2 .rodata       000015b0  0000000000007c98  0000000000007c98  00017c98  2**3
                  CONTENTS, ALLOC, LOAD, READONLY, DATA
  3 .dynsym       00000150  00000000000097e0  00000000000097e0  000197e0  2**3
                  CONTENTS, ALLOC, LOAD, READONLY, DATA
  4 .rela.dyn     00000318  0000000000009248  0000000000009248  00019248  2**3
                  CONTENTS, ALLOC, LOAD, READONLY, DATA
  5 .got          00000078  0000000000009560  0000000000009560  00019560  2**3
                  CONTENTS, ALLOC, LOAD, DATA
  6 .rela.got     00000108  00000000000095d8  00000000000095d8  000195d8  2**3
                  CONTENTS, ALLOC, LOAD, READONLY, DATA
  7 .dynamic      00000100  00000000000096e0  00000000000096e0  000196e0  2**3
                  CONTENTS, ALLOC, LOAD, DATA
  8 .dynstr       0000008e  0000000000009930  0000000000009930  00019930  2**0
                  CONTENTS, ALLOC, LOAD, READONLY, DATA
  9 .hash         0000004c  00000000000099c0  00000000000099c0  000199c0  2**3
                  CONTENTS, ALLOC, LOAD, READONLY, DATA
 10 .data         0000017c  000000000000a000  000000000000a000  0001a000  2**3
                  CONTENTS, ALLOC, LOAD, DATA
 11 .bss          0000aa40  000000000000a180  000000000000a180  0001a17c  2**3
                  ALLOC
 12 .debug_info   0001039b  0000000000000000  0000000000000000  0001a17c  2**0
                  CONTENTS, READONLY, DEBUGGING
 13 .debug_abbrev 000040e0  0000000000000000  0000000000000000  0002a517  2**0
                  CONTENTS, READONLY, DEBUGGING
 14 .debug_loc    00017831  0000000000000000  0000000000000000  0002e5f7  2**0
                  CONTENTS, READONLY, DEBUGGING
 15 .debug_aranges 00000c30  0000000000000000  0000000000000000  00045e30  2**4
                  CONTENTS, READONLY, DEBUGGING
 16 .debug_ranges 000010b0  0000000000000000  0000000000000000  00046a60  2**4
                  CONTENTS, READONLY, DEBUGGING
 17 .debug_macro  0000533f  0000000000000000  0000000000000000  00047b10  2**0
                  CONTENTS, READONLY, DEBUGGING
 18 .debug_line   000068c8  0000000000000000  0000000000000000  0004ce4f  2**0
                  CONTENTS, READONLY, DEBUGGING
 19 .debug_str    0000f87c  0000000000000000  0000000000000000  00053717  2**0
                  CONTENTS, READONLY, DEBUGGING
 20 .comment      0000002d  0000000000000000  0000000000000000  00062f93  2**0
                  CONTENTS, READONLY
 21 .debug_frame  00002530  0000000000000000  0000000000000000  00062fc0  2**3
                  CONTENTS, READONLY, DEBUGGING
SYMBOL TABLE:
0000000000000000 l    d  .ta_head	0000000000000000 .ta_head
0000000000000020 l    d  .text	0000000000000000 .text
0000000000007c98 l    d  .rodata	0000000000000000 .rodata
0000000000009248 l    d  .rela.dyn	0000000000000000 .rela.dyn
0000000000009560 l    d  .got	0000000000000000 .got
00000000000095d8 l    d  .rela.got	0000000000000000 .rela.got
00000000000096e0 l    d  .dynamic	0000000000000000 .dynamic
00000000000097e0 l    d  .dynsym	0000000000000000 .dynsym
0000000000009930 l    d  .dynstr	0000000000000000 .dynstr
00000000000099c0 l    d  .hash	0000000000000000 .hash
000000000000a000 l    d  .data	0000000000000000 .data
000000000000a180 l    d  .bss	0000000000000000 .bss
0000000000000000 l    d  .debug_info	0000000000000000 .debug_info
0000000000000000 l    d  .debug_abbrev	0000000000000000 .debug_abbrev
0000000000000000 l    d  .debug_loc	0000000000000000 .debug_loc
0000000000000000 l    d  .debug_aranges	0000000000000000 .debug_aranges
0000000000000000 l    d  .debug_ranges	0000000000000000 .debug_ranges
0000000000000000 l    d  .debug_macro	0000000000000000 .debug_macro
0000000000000000 l    d  .debug_line	0000000000000000 .debug_line
0000000000000000 l    d  .debug_str	0000000000000000 .debug_str
0000000000000000 l    d  .comment	0000000000000000 .comment
0000000000000000 l    d  .debug_frame	0000000000000000 .debug_frame
0000000000000000 l    df *ABS*	0000000000000000 user_ta_header.c
0000000000007d30 l     O .rodata	0000000000000004 __compound_literal.4
0000000000007d34 l     O .rodata	0000000000000004 __compound_literal.3
0000000000007d38 l     O .rodata	0000000000000001 __compound_literal.2
0000000000007d39 l     O .rodata	0000000000000001 __compound_literal.1
0000000000007d3a l     O .rodata	0000000000000001 __compound_literal.0
0000000000000000 l    df *ABS*	0000000000000000 ta_entry.c
0000000000007ca8 l     O .rodata	0000000000000012 __func__.3882
0000000000007cc0 l     O .rodata	0000000000000012 __func__.3891
0000000000007cd8 l     O .rodata	000000000000000f __func__.3898
0000000000007ce8 l     O .rodata	000000000000000e __func__.3905
0000000000007cf8 l     O .rodata	000000000000000e __func__.3912
0000000000007d08 l     O .rodata	000000000000000f __func__.3919
0000000000007d18 l     O .rodata	000000000000000f __func__.3926
0000000000000000 l    df *ABS*	0000000000000000 bget_malloc.c
00000000000003c8 l     F .text	0000000000000040 raw_malloc_return_hook.isra.3
0000000000000408 l     F .text	0000000000000110 create_free_block.constprop.11
00000000000006d8 l     F .text	000000000000005c raw_malloc.constprop.15
0000000000007d50 l     O .rodata	0000000000000012 __func__.3464
0000000000007d68 l     O .rodata	0000000000000005 __func__.3319
0000000000007d70 l     O .rodata	0000000000000006 __func__.3334
0000000000007d78 l     O .rodata	0000000000000005 __func__.3351
0000000000007d80 l     O .rodata	0000000000000006 __func__.3343
0000000000007d88 l     O .rodata	0000000000000006 __func__.3360
0000000000007d90 l     O .rodata	0000000000000007 __func__.3370
0000000000007d98 l     O .rodata	000000000000000d __func__.3500
0000000000007da8 l     O .rodata	000000000000000c __func__.3474
0000000000007db8 l     O .rodata	000000000000000b __func__.3485
0000000000007dc8 l     O .rodata	0000000000000010 __func__.3552
0000000000007dd8 l     O .rodata	000000000000000e __func__.3506
0000000000007de8 l     O .rodata	0000000000000013 __func__.3411
0000000000012180 l     O .bss	0000000000000038 mstats
00000000000121b8 l     O .bss	0000000000000008 malloc_pool_len
00000000000121c0 l     O .bss	0000000000000008 malloc_pool
000000000000a0a8 l     O .data	0000000000000038 malloc_poolset
0000000000000000 l    df *ABS*	0000000000000000 strndup.c
0000000000000000 l    df *ABS*	0000000000000000 memcpy.c
0000000000000000 l    df *ABS*	0000000000000000 memset.c
0000000000000000 l    df *ABS*	0000000000000000 strnlen.c
0000000000000000 l    df *ABS*	0000000000000000 trace.c
0000000000007e00 l     O .rodata	0000000000000005 lvl_strs.3178
0000000000000000 l    df *ABS*	0000000000000000 snprintk.c
0000000000007e08 l     O .rodata	0000000000000011 HEXDIGITS
0000000000007e20 l     O .rodata	0000000000000011 hexdigits
0000000000000000 l    df *ABS*	0000000000000000 memchr.c
0000000000000000 l    df *ABS*	0000000000000000 strlen.c
0000000000000000 l    df *ABS*	0000000000000000 trace_ext.c
0000000000000000 l    df *ABS*	0000000000000000 assert.c
0000000000000000 l    df *ABS*	0000000000000000 tee_tcpudp_socket.c
0000000000002630 l     F .text	000000000000002c sock_error
000000000000265c l     F .text	0000000000000068 sock_recv
00000000000026c4 l     F .text	0000000000000060 sock_send
0000000000002724 l     F .text	000000000000003c sock_close
0000000000002760 l     F .text	00000000000000d8 tcp_open
0000000000002838 l     F .text	00000000000000d8 udp_open
0000000000002910 l     F .text	0000000000000094 tcp_ioctl
00000000000029a4 l     F .text	0000000000000094 udp_ioctl
000000000000a0f0 l     O .data	0000000000000038 udp_socket_instance
000000000000a128 l     O .data	0000000000000038 tcp_socket_instance
0000000000000000 l    df *ABS*	0000000000000000 tee_socket_pta.c
0000000000002a38 l     F .text	0000000000000088 invoke_socket_pta
0000000000007e38 l     O .rodata	0000000000000010 socket_uuid.3808
00000000000121c8 l     O .bss	0000000000000008 sess.3807
0000000000000000 l    df *ABS*	0000000000000000 user_ta_entry.c
0000000000002c84 l     F .text	0000000000000028 ta_header_get_session
0000000000002cac l     F .text	0000000000000094 ta_header_remove_session
0000000000014bba l     O .bss	0000000000000001 init_done
000000000000a168 l     O .data	0000000000000010 ta_sessions
0000000000000000 l    df *ABS*	0000000000000000 utee_syscalls_a64.o
0000000000000000 l    df *ABS*	0000000000000000 gprof_a64.o
0000000000000000 l    df *ABS*	0000000000000000 tee_api_arith.c
0000000000003970 l     F .text	0000000000000028 TEE_BigInt_Panic
0000000000012218 l     O .bss	0000000000001980 mempool_u32
0000000000013b98 l     O .bss	0000000000000010 mem.4074
0000000000013ba8 l     O .bss	0000000000000008 mempool
0000000000000000 l    df *ABS*	0000000000000000 tee_api.c
0000000000013bb0 l     O .bss	0000000000000008 tee_api_instance_data
0000000000007e58 l     O .rodata	000000000000000b __func__.4337
0000000000000000 l    df *ABS*	0000000000000000 tee_api_panic.c
0000000000000000 l    df *ABS*	0000000000000000 mpa_misc.c
0000000000000000 l    df *ABS*	0000000000000000 mpa_montgomery.c
0000000000000000 l    df *ABS*	0000000000000000 mpa_primetest.c
0000000000008ad0 l     O .rodata	0000000000000010 const_miller_rabin_proof_limit
0000000000008ae0 l     O .rodata	000000000000001c proof_a.3550
0000000000008b00 l     O .rodata	000000000000000c const_two
0000000000008b10 l     O .rodata	00000000000000b8 const_small_prime_factors
0000000000000000 l    df *ABS*	0000000000000000 mpa_conv.c
0000000000000000 l    df *ABS*	0000000000000000 mpa_div.c
0000000000000000 l    df *ABS*	0000000000000000 mpa_gcd.c
0000000000005190 l     F .text	0000000000000080 __mpa_divby2
0000000000005210 l     F .text	000000000000016c __mpa_gcd.part.0
000000000000537c l     F .text	0000000000000380 __mpa_egcd
0000000000000000 l    df *ABS*	0000000000000000 mpa_mem_static.c
0000000000000000 l    df *ABS*	0000000000000000 mpa_mul.c
0000000000000000 l    df *ABS*	0000000000000000 mpa_random.c
0000000000000000 l    df *ABS*	0000000000000000 mpa_shift.c
0000000000000000 l    df *ABS*	0000000000000000 mpa_addsub.c
0000000000000000 l    df *ABS*	0000000000000000 mpa_cmp.c
0000000000000000 l    df *ABS*	0000000000000000 mpa_expmod.c
0000000000000000 l    df *ABS*	0000000000000000 mpa_init.c
0000000000000000 l    df *ABS*	0000000000000000 mpa_io.c
0000000000007030 l     F .text	0000000000000044 __mpa_word_to_hexstr
0000000000007074 l     F .text	0000000000000114 __mpa_mpanum_to_hexstr
0000000000007188 l     F .text	000000000000003c __mpa_isspace
0000000000008bd0 l     O .rodata	000000000000000c __func__.3624
0000000000008be0 l     O .rodata	000000000000000c __func__.3638
0000000000013bb8 l     O .bss	0000000000001002 buf.3610
0000000000000000 l    df *ABS*	0000000000000000 mpa_modulus.c
0000000000000000 l    df *ABS*	0000000000000000 snprintf.c
0000000000000000 l    df *ABS*	0000000000000000 memcmp.c
0000000000000000 l    df *ABS*	0000000000000000 memmove.c
0000000000000000 l    df *ABS*	0000000000000000 mempool.c
0000000000008bf0 l     O .rodata	0000000000000013 __func__.3181
0000000000000000 l    df *ABS*	0000000000000000 
00000000000096e0 l     O *ABS*	0000000000000000 _DYNAMIC
0000000000009578 l     O *ABS*	0000000000000000 _GLOBAL_OFFSET_TABLE_
0000000000003284 g     F .text	000000000000000c utee_se_channel_transmit
000000000000259c g     F .text	000000000000003c putchar
0000000000006fac g     F .text	000000000000001c mpa_init_static
0000000000003ed8 g     F .text	0000000000000054 mpa_copy
00000000000038b0 g     F .text	000000000000001c TEE_BigIntConvertToFMM
0000000000003790 g     F .text	000000000000000c TEE_BigIntSquareMod
000000000000340c g     F .text	0000000000000004 TEE_BigIntShiftRight
00000000000047e0 g     F .text	0000000000000074 mpa_get_S32
0000000000003f5c g     F .text	0000000000000044 mpa_highest_bit_index
000000000000314c g     F .text	000000000000000c utee_storage_obj_create
0000000000003260 g     F .text	000000000000000c utee_se_session_close
0000000000002f54 g     F .text	000000000000000c utee_return
0000000000003200 g     F .text	000000000000000c utee_se_service_get_readers
0000000000003e58 g     F .text	0000000000000008 TEE_Realloc
00000000000048d0 g     F .text	0000000000000148 __mpa_div_q_r_internal_word
00000000000067e4 g     F .text	000000000000019c mpa_sub
0000000000002490 g     F .text	00000000000000cc printf
0000000000002f60 g     F .text	000000000000000c utee_log
0000000000008bc8 g     O .rodata	0000000000000004 NR_STORED_PRIMES
0000000000003b34 g     F .text	00000000000000b4 TEE_InvokeTACommand
0000000000003fe4 g     F .text	000000000000001c mpa_can_hold
0000000000005ab8 g     F .text	0000000000000098 __mpa_abs_mul_word
0000000000004380 g     F .text	0000000000000088 mpa_montgomery_mul
000000000000147c g     F .text	0000000000000050 strndup
0000000000002350 g     F .text	0000000000000054 vsnprintk
0000000000004000 g     F .text	000000000000000c mpa_parity
0000000000007b24 g     F .text	000000000000004c memmove
000000000000636c g     F .text	0000000000000020 __mpa_full_adder_ackum
0000000000007a24 g     F .text	0000000000000078 snprintf
0000000000003408 g     F .text	0000000000000004 TEE_BigIntCmpS32
0000000000003444 g     F .text	000000000000000c TEE_BigIntAdd
0000000000002f84 g     F .text	000000000000000c utee_get_property_name_to_index
0000000000007d40 g     O .rodata	0000000000000008 ta_heap_size
0000000000008bcc g     O .rodata	0000000000000004 MAX_TABULATED_PRIME
0000000000003008 g     F .text	000000000000000c utee_cryp_state_alloc
0000000000003110 g     F .text	000000000000000c utee_authenc_enc_final
0000000000005a98 g     F .text	0000000000000020 __mpa_mul_add_word_cum
000000000000345c g     F .text	0000000000000004 TEE_BigIntNeg
00000000000050a0 g     F .text	00000000000000f0 mpa_div
0000000000000020 g       .text	0000000000000000 __text_start
0000000000007e68 g     O .rodata	000000000000000c const_one
0000000000001410 g     F .text	000000000000006c malloc_buffer_overlaps_heap
0000000000006cec g     F .text	0000000000000018 __mpa_abs_less_than
000000000000361c g     F .text	00000000000000a8 TEE_BigIntSubMod
0000000000005dec g     F .text	000000000000010c mpa_get_random
0000000000001564 g     F .text	0000000000000240 trace_printf
00000000000031e8 g     F .text	000000000000000c utee_se_service_open
00000000000014cc g     F .text	0000000000000020 memcpy
0000000000003020 g     F .text	000000000000000c utee_cryp_state_free
0000000000003ea8 g     F .text	0000000000000030 mpa_wipe
00000000000038cc g     F .text	0000000000000094 TEE_BigIntConvertFromFMM
0000000000003e7c g     F .text	0000000000000008 TEE_Panic
0000000000003278 g     F .text	000000000000000c utee_se_channel_get_select_resp
000000000000255c g     F .text	0000000000000040 puts
0000000000003960 g     F .text	0000000000000010 TEE_BigIntComputeFMM
0000000000004854 g     F .text	0000000000000014 mpa_set_word
0000000000000ca4 g     F .text	0000000000000030 malloc_get_stats
0000000000006058 g     F .text	0000000000000190 mpa_shift_left
0000000000003068 g     F .text	000000000000000c utee_cipher_final
0000000000005c44 g     F .text	00000000000000e4 mpa_mul
0000000000003dd4 g     F .text	0000000000000028 TEE_GetREETime
000000000000a000 g     O .data	00000000000000a8 ta_props
0000000000000cd4 g     F .text	0000000000000004 malloc
00000000000030a4 g     F .text	000000000000000c utee_cryp_obj_close
0000000000003224 g     F .text	000000000000000c utee_se_reader_open_session
0000000000007a9c g     F .text	0000000000000054 vsnprintf
000000000000a178 g     O .data	0000000000000004 trace_level
0000000000003404 g     F .text	0000000000000004 TEE_BigIntCmp
0000000000007d28 g     O .rodata	0000000000000008 ta_num_props
0000000000000a58 g     F .text	00000000000000c8 bgetr
0000000000003104 g     F .text	000000000000000c utee_authenc_update_payload
0000000000007c58 g     F .text	0000000000000040 mempool_free
00000000000033a0 g     F .text	0000000000000040 TEE_BigIntConvertToOctetString
000000000000329c g     F .text	000000000000000c utee_cache_operation
00000000000030ec g     F .text	000000000000000c utee_authenc_init
0000000000003410 g     F .text	000000000000001c TEE_BigIntGetBit
0000000000007d48 g     O .rodata	0000000000000003 trace_ext_prefix
000000000000638c g     F .text	00000000000000f4 __mpa_abs_add
0000000000000734 g     F .text	0000000000000088 bgetz
0000000000003c8c g     F .text	000000000000000c TEE_GetInstanceData
0000000000003cd8 g     F .text	000000000000003c TEE_Wait
00000000000031b8 g     F .text	000000000000000c utee_storage_obj_write
0000000000005a64 g     F .text	000000000000001c mpa_free_static_temp_var
0000000000004408 g     F .text	00000000000003ac mpa_is_prob_prime
0000000000003290 g     F .text	000000000000000c utee_se_channel_close
0000000000005d28 g     F .text	00000000000000c4 mpa_mul_word
0000000000003e6c g     F .text	0000000000000008 TEE_CacheFlush
0000000000000028 g     F .text	0000000000000004 TA_DestroyEntryPoint
00000000000025d8 g     F .text	0000000000000044 _assert_log
0000000000003364 g     F .text	0000000000000014 TEE_BigIntFMMContextSizeInU32
0000000000004a18 g     F .text	0000000000000688 __mpa_div_q_r
00000000000032ac g     F .text	0000000000000058 _TEE_MathAPI_Init
00000000000031a0 g     F .text	000000000000000c utee_storage_next_enum
000000000000a180 g     O .bss	0000000000008000 ta_heap
000000000000379c g     F .text	000000000000006c TEE_BigIntInvMod
0000000000000034 g     F .text	0000000000000004 TA_CloseSessionEntryPoint
0000000000002f6c g     F .text	000000000000000c __utee_panic
0000000000001508 g     F .text	0000000000000028 strnlen
0000000000003014 g     F .text	000000000000000c utee_cryp_state_copy
0000000000000038 g     F .text	0000000000000388 TA_InvokeCommandEntryPoint
00000000000074e8 g     F .text	0000000000000110 mpa_set_oct_str
0000000000003254 g     F .text	000000000000000c utee_se_session_open_channel
0000000000007bd8 g     F .text	0000000000000080 mempool_alloc
0000000000005f5c g     F .text	0000000000000098 __mpa_shift_words_left
0000000000003098 g     F .text	000000000000000c utee_cryp_obj_alloc
0000000000002ffc g     F .text	000000000000000c utee_set_ta_time
000000000000308c g     F .text	000000000000000c utee_cryp_obj_get_attr
0000000000004090 g     F .text	0000000000000090 __mpa_montgomery_sub_ack
0000000000000cec g     F .text	0000000000000070 calloc
0000000000003dfc g     F .text	000000000000005c TEE_Malloc
0000000000002fd8 g     F .text	000000000000000c utee_mask_cancellation
00000000000030b0 g     F .text	000000000000000c utee_cryp_obj_reset
0000000000003c6c g     F .text	0000000000000014 TEE_CheckMemoryAccessRights
0000000000014bc0 g       .bss	0000000000000000 __gprof_buf_end
0000000000006980 g     F .text	000000000000002c mpa_neg
0000000000007e98 g     O .rodata	0000000000000c38 PRIME_TABLE
000000000000002c g     F .text	0000000000000008 TA_OpenSessionEntryPoint
00000000000056fc g     F .text	0000000000000120 mpa_gcd
0000000000003f2c g     F .text	0000000000000030 mpa_abs
0000000000003194 g     F .text	000000000000000c utee_storage_start_enum
00000000000071cc g     F .text	0000000000000298 mpa_set_str
0000000000003164 g     F .text	000000000000000c utee_storage_obj_rename
00000000000121d0 g     O .bss	0000000000000004 ta_param_types
000000000000388c g     F .text	0000000000000024 TEE_BigIntIsProbablePrime
0000000000005a54 g     F .text	0000000000000010 mpa_alloc_static_temp_var
0000000000002f78 g     F .text	000000000000000c utee_get_property
0000000000002ac0 g     F .text	0000000000000094 __tee_socket_pta_open
0000000000003304 g     F .text	0000000000000004 TEE_BigIntInit
0000000000003c98 g     F .text	0000000000000008 TEE_MemMove
0000000000003378 g     F .text	0000000000000028 TEE_BigIntConvertFromOctetString
000000000000a160 g     O .data	0000000000000008 _ref__utee_mcount
0000000000002418 g     F .text	000000000000002c memchr
0000000000003c14 g     F .text	000000000000002c TEE_UnmaskCancellation
000000000000788c g     F .text	0000000000000084 mpa_mul_mod
0000000000003158 g     F .text	000000000000000c utee_storage_obj_del
000000000000a0e8 g     O .data	0000000000000008 TEE_tcpSocket
000000000000a0e0 g     O .data	0000000000000008 TEE_udpSocket
00000000000031d0 g     F .text	000000000000000c utee_storage_obj_seek
0000000000004244 g     F .text	000000000000013c mpa_compute_fmm_context
0000000000003038 g     F .text	000000000000000c utee_hash_update
00000000000032a8  w    F .text	0000000000000004 __utee_mcount
00000000000034e0 g     F .text	0000000000000094 TEE_BigIntMod
000000000000326c g     F .text	000000000000000c utee_se_channel_select_next
0000000000002f9c g     F .text	000000000000000c utee_close_ta_session
000000000000347c g     F .text	0000000000000064 TEE_BigIntDiv
0000000000000c8c g     F .text	0000000000000018 malloc_reset_stats
000000000000305c g     F .text	000000000000000c utee_cipher_update
0000000000003248 g     F .text	000000000000000c utee_se_session_get_atr
0000000000000d5c g     F .text	000000000000005c realloc
0000000000006480 g     F .text	00000000000000cc __mpa_abs_add_ackum
0000000000007b70 g     F .text	0000000000000068 mempool_alloc_pool
0000000000003134 g     F .text	000000000000000c utee_asymm_verify
0000000000003460 g     F .text	000000000000000c TEE_BigIntMul
0000000000004868 g     F .text	0000000000000018 mpa_get_word
0000000000003ca8 g     F .text	0000000000000008 TEE_MemFill
0000000000007af0 g     F .text	0000000000000034 memcmp
0000000000001160 g     F .text	0000000000000130 malloc_add_pool
0000000000001554 g     F .text	0000000000000010 trace_get_level
00000000000030e0 g     F .text	000000000000000c utee_cryp_random_number_generate
0000000000003354 g     F .text	0000000000000010 TEE_BigIntFMMSizeInU32
0000000000003308 g     F .text	0000000000000014 TEE_BigIntInitFMM
0000000000003128 g     F .text	000000000000000c utee_asymm_operate
0000000000002d40 g     F .text	0000000000000208 __utee_entry
0000000000007c98 g       .text	0000000000000000 __text_end
0000000000003808 g     F .text	0000000000000078 TEE_BigIntRelativePrime
0000000000005ef8 g     F .text	0000000000000064 mpa_get_random_digits
0000000000000b20 g     F .text	00000000000000d4 bpool
00000000000047b4 g     F .text	000000000000002c mpa_set_S32
0000000000006fc8 g     F .text	0000000000000068 mpa_init_static_fmm_context
0000000000003be8 g     F .text	000000000000002c TEE_GetCancellationFlag
00000000000031f4 g     F .text	000000000000000c utee_se_service_close
0000000000003d94 g     F .text	0000000000000040 TEE_SetTAPersistentTime
00000000000069ac g     F .text	000000000000013c mpa_add_word
0000000000002bdc g     F .text	0000000000000054 __tee_socket_pta_recv
000000000000320c g     F .text	000000000000000c utee_se_reader_get_prop
00000000000014ec g     F .text	000000000000001c memset
0000000000003d14 g     F .text	0000000000000080 TEE_GetTAPersistentTime
00000000000017a4 g     F .text	0000000000000004 dhex_dump
0000000000003c40 g     F .text	000000000000002c TEE_MaskCancellation
0000000000006348 g     F .text	0000000000000024 __mpa_full_sub
00000000000031ac g     F .text	000000000000000c utee_storage_obj_read
00000000000030bc g     F .text	000000000000000c utee_cryp_obj_populate
0000000000006d04 g     F .text	0000000000000068 mpa_cmp
0000000000007910 g     F .text	0000000000000114 mpa_inv_mod
0000000000006ae8 g     F .text	0000000000000138 mpa_sub_word
0000000000005a80 g     F .text	0000000000000018 __mpa_mul_add_word
0000000000006650 g     F .text	0000000000000194 mpa_add
0000000000006df0 g     F .text	00000000000001bc mpa_exp_mod
0000000000005ff4 g     F .text	0000000000000064 __mpa_shift_words_right
0000000000001530 g     F .text	0000000000000024 trace_set_level
000000000000323c g     F .text	000000000000000c utee_se_session_is_closed
0000000000003074 g     F .text	000000000000000c utee_cryp_obj_get_info
0000000000003170 g     F .text	000000000000000c utee_storage_alloc_enum
0000000000003188 g     F .text	000000000000000c utee_storage_reset_enum
00000000000031c4 g     F .text	000000000000000c utee_storage_obj_trunc
000000000000776c g     F .text	0000000000000018 mpa_mod
0000000000006cd0 g     F .text	000000000000001c __mpa_abs_greater_than
00000000000033e4 g     F .text	0000000000000020 TEE_BigIntConvertToS32
0000000000003450 g     F .text	000000000000000c TEE_BigIntSub
0000000000002fb4 g     F .text	000000000000000c utee_get_cancellation_flag
000000000000302c g     F .text	000000000000000c utee_hash_init
00000000000003c0 g     F .text	0000000000000008 tahead_get_trace_level
0000000000003998 g     F .text	0000000000000078 __utee_from_param
0000000000007e78 g     O .rodata	0000000000000010 Const_1_LShift_Base
0000000000003a10 g     F .text	000000000000006c __utee_to_param
0000000000000db8 g     F .text	00000000000003a8 memalign
00000000000033e0 g     F .text	0000000000000004 TEE_BigIntConvertFromS32
0000000000007808 g     F .text	0000000000000084 mpa_sub_mod
0000000000003080 g     F .text	000000000000000c utee_cryp_obj_restrict_usage
0000000000001290 g     F .text	0000000000000180 malloc_buffer_is_within_alloced
00000000000030c8 g     F .text	000000000000000c utee_cryp_obj_copy
00000000000061e8 g     F .text	0000000000000144 mpa_shift_right
000000000000331c g     F .text	0000000000000038 TEE_BigIntInitFMMContext
00000000000030d4 g     F .text	000000000000000c utee_cryp_derive_key
0000000000004120 g     F .text	0000000000000124 __mpa_montgomery_mul
00000000000075f8 g     F .text	0000000000000174 mpa_get_oct_str
0000000000006d6c g     F .text	0000000000000084 mpa_cmp_short
000000000000311c g     F .text	000000000000000c utee_authenc_dec_final
0000000000006c20 g     F .text	00000000000000b0 __mpa_abs_cmp
000000000000346c g     F .text	0000000000000010 TEE_BigIntSquare
0000000000000020 g     F .text	0000000000000008 TA_CreateEntryPoint
00000000000023a4 g     F .text	0000000000000074 snprintk
000000000000342c g     F .text	0000000000000018 TEE_BigIntGetBitCount
00000000000036c4 g     F .text	00000000000000cc TEE_BigIntMulMod
00000000000121d8 g     O .bss	0000000000000040 ta_params
0000000000005b50 g     F .text	00000000000000f4 __mpa_abs_mul
0000000000000518 g     F .text	00000000000001c0 bget
0000000000003e60 g     F .text	0000000000000004 TEE_Free
0000000000003218 g     F .text	000000000000000c utee_se_reader_get_name
0000000000003e74 g     F .text	0000000000000008 TEE_CacheInvalidate
0000000000003050 g     F .text	000000000000000c utee_cipher_init
000000000000261c g     F .text	0000000000000014 _assert_break
0000000000003574 g     F .text	00000000000000a8 TEE_BigIntAddMod
000000000000317c g     F .text	000000000000000c utee_storage_free_enum
00000000000030f8 g     F .text	000000000000000c utee_authenc_update_aad
0000000000003fa0 g     F .text	0000000000000044 mpa_get_bit
0000000000002b88 g     F .text	0000000000000054 __tee_socket_pta_send
0000000000003ca0 g     F .text	0000000000000008 TEE_MemCompare
00000000000017a8 g     F .text	0000000000000ba8 __vsnprintf
0000000000003a7c g     F .text	0000000000000090 TEE_OpenTASession
0000000000002f48 g     F .text	000000000000000c utee_panic
0000000000002b54 g     F .text	0000000000000034 __tee_socket_pta_close
0000000000002460 g     F .text	0000000000000028 trace_ext_puts
0000000000002488 g     F .text	0000000000000008 trace_ext_get_thread_id
0000000000002c30 g     F .text	0000000000000054 __tee_socket_pta_ioctl
0000000000003e64 g     F .text	0000000000000008 TEE_CacheClean
0000000000002f90 g     F .text	000000000000000c utee_open_ta_session
0000000000004880 g     F .text	0000000000000050 __mpa_div_dword
0000000000003e84 g     F .text	0000000000000024 __mpa_set_unused_digits_to_zero
0000000000007e88 g     O .rodata	000000000000000c const_largest_deci_base
00000000000071c4 g     F .text	0000000000000008 mpa_get_str_size
0000000000003044 g     F .text	000000000000000c utee_hash_final
0000000000002444 g     F .text	000000000000001c strlen
0000000000003880 g     F .text	000000000000000c TEE_BigIntComputeExtendedGcd
000000000000581c g     F .text	00000000000001ec mpa_extended_gcd
0000000000007784 g     F .text	0000000000000084 mpa_add_mod
0000000000003140 g     F .text	000000000000000c utee_storage_obj_open
0000000000002fa8 g     F .text	000000000000000c utee_invoke_ta_command
0000000000007464 g     F .text	0000000000000084 mpa_get_str
0000000000002fe4 g     F .text	000000000000000c utee_wait
0000000000003cb0 g     F .text	0000000000000028 TEE_GetSystemTime
0000000000000000 g     O .ta_head	0000000000000020 ta_head
00000000000007bc g     F .text	000000000000029c brel
0000000000005a08 g     F .text	000000000000004c mpa_alloc_static_temp_var_size
0000000000002ff0 g     F .text	000000000000000c utee_get_time
0000000000004018 g     F .text	0000000000000078 __mpa_montgomery_mul_add
0000000000003c80 g     F .text	000000000000000c TEE_SetInstanceData
0000000000002fcc g     F .text	000000000000000c utee_unmask_cancellation
0000000000002fc0 g     F .text	000000000000000c utee_check_access_rights
0000000000003230 g     F .text	000000000000000c utee_se_reader_close_sessions
00000000000031dc g     F .text	000000000000000c utee_cryp_obj_generate_key
0000000000003b0c g     F .text	0000000000000028 TEE_CloseTASession
000000000000400c g     F .text	000000000000000c mpa_constant_one
000000000000632c g     F .text	000000000000001c __mpa_full_adder
000000000000654c g     F .text	0000000000000104 __mpa_abs_sub
0000000000014bc0 g       .bss	0000000000000000 __gprof_buf_start
0000000000000cd8 g     F .text	0000000000000014 free
0000000000000bf4 g     F .text	0000000000000098 bstats



Disassembly of section .text:

0000000000000020 <TA_CreateEntryPoint>:
TA_CreateEntryPoint():
/home/lagadanu/Desktop/qemu/out-br/build/optee_test-1.0/ta/socket/ta_entry.c:40
      20:	52800000 	mov	w0, #0x0                   	// #0
      24:	d65f03c0 	ret

0000000000000028 <TA_DestroyEntryPoint>:
TA_DestroyEntryPoint():
/home/lagadanu/Desktop/qemu/out-br/build/optee_test-1.0/ta/socket/ta_entry.c:43
      28:	d65f03c0 	ret

000000000000002c <TA_OpenSessionEntryPoint>:
TA_OpenSessionEntryPoint():
/home/lagadanu/Desktop/qemu/out-br/build/optee_test-1.0/ta/socket/ta_entry.c:54
      2c:	52800000 	mov	w0, #0x0                   	// #0
      30:	d65f03c0 	ret

0000000000000034 <TA_CloseSessionEntryPoint>:
TA_CloseSessionEntryPoint():
/home/lagadanu/Desktop/qemu/out-br/build/optee_test-1.0/ta/socket/ta_entry.c:57
      34:	d65f03c0 	ret

0000000000000038 <TA_InvokeCommandEntryPoint>:
TA_InvokeCommandEntryPoint():
/home/lagadanu/Desktop/qemu/out-br/build/optee_test-1.0/ta/socket/ta_entry.c:264
      38:	a9b97bfd 	stp	x29, x30, [sp,#-112]!
/home/lagadanu/Desktop/qemu/out-br/build/optee_test-1.0/ta/socket/ta_entry.c:267
      3c:	7100183f 	cmp	w1, #0x6
/home/lagadanu/Desktop/qemu/out-br/build/optee_test-1.0/ta/socket/ta_entry.c:264
      40:	910003fd 	mov	x29, sp
      44:	a90153f3 	stp	x19, x20, [sp,#16]
/home/lagadanu/Desktop/qemu/out-br/build/optee_test-1.0/ta/socket/ta_entry.c:283
      48:	129fff34 	mov	w20, #0xffff0006            	// #-65530
/home/lagadanu/Desktop/qemu/out-br/build/optee_test-1.0/ta/socket/ta_entry.c:264
      4c:	a9025bf5 	stp	x21, x22, [sp,#32]
      50:	f9001bf7 	str	x23, [sp,#48]
/home/lagadanu/Desktop/qemu/out-br/build/optee_test-1.0/ta/socket/ta_entry.c:267
      54:	540002a8 	b.hi	a8 <TA_InvokeCommandEntryPoint+0x70>
      58:	f0000020 	adrp	x0, 7000 <mpa_init_static_fmm_context+0x38>
      5c:	aa0303f3 	mov	x19, x3
      60:	2a0203e5 	mov	w5, w2
      64:	91326000 	add	x0, x0, #0xc98
      68:	78615800 	ldrh	w0, [x0,w1,uxtw #1]
      6c:	10000061 	adr	x1, 78 <TA_InvokeCommandEntryPoint+0x40>
      70:	8b20a820 	add	x0, x1, w0, sxth #2
      74:	d61f0000 	br	x0
ta_entry_tcp_open():
/home/lagadanu/Desktop/qemu/out-br/build/optee_test-1.0/ta/socket/ta_entry.c:77
      78:	5284ca26 	mov	w6, #0x2651                	// #9809
      7c:	6b06005f 	cmp	w2, w6
      80:	54000200 	b.eq	c0 <TA_InvokeCommandEntryPoint+0x88>
/home/lagadanu/Desktop/qemu/out-br/build/optee_test-1.0/ta/socket/ta_entry.c:78
      84:	90000044 	adrp	x4, 8000 <PRIME_TABLE+0x168>
      88:	f0000020 	adrp	x0, 7000 <mpa_init_static_fmm_context+0x38>
      8c:	91300c84 	add	x4, x4, #0xc03
      90:	9132a000 	add	x0, x0, #0xca8
      94:	52800023 	mov	w3, #0x1                   	// #1
      98:	52800022 	mov	w2, #0x1                   	// #1
      9c:	528009e1 	mov	w1, #0x4f                  	// #79
ta_entry_udp_open():
/home/lagadanu/Desktop/qemu/out-br/build/optee_test-1.0/ta/socket/ta_entry.c:119
      a0:	129fff34 	mov	w20, #0xffff0006            	// #-65530
/home/lagadanu/Desktop/qemu/out-br/build/optee_test-1.0/ta/socket/ta_entry.c:117
      a4:	94000530 	bl	1564 <trace_printf>
TA_InvokeCommandEntryPoint():
/home/lagadanu/Desktop/qemu/out-br/build/optee_test-1.0/ta/socket/ta_entry.c:285
      a8:	2a1403e0 	mov	w0, w20
      ac:	f9401bf7 	ldr	x23, [sp,#48]
      b0:	a94153f3 	ldp	x19, x20, [sp,#16]
      b4:	a9425bf5 	ldp	x21, x22, [sp,#32]
      b8:	a8c77bfd 	ldp	x29, x30, [sp],#112
      bc:	d65f03c0 	ret
ta_entry_tcp_open():
/home/lagadanu/Desktop/qemu/out-br/build/optee_test-1.0/ta/socket/ta_entry.c:83
      c0:	91008075 	add	x21, x3, #0x20
      c4:	b9400aa0 	ldr	w0, [x21,#8]
      c8:	71003c1f 	cmp	w0, #0xf
      cc:	540000a8 	b.hi	e0 <TA_InvokeCommandEntryPoint+0xa8>
ta_entry_udp_open():
/home/lagadanu/Desktop/qemu/out-br/build/optee_test-1.0/ta/socket/ta_entry.c:123
      d0:	52800200 	mov	w0, #0x10                  	// #16
/home/lagadanu/Desktop/qemu/out-br/build/optee_test-1.0/ta/socket/ta_entry.c:124
      d4:	129ffdf4 	mov	w20, #0xffff0010            	// #-65520
/home/lagadanu/Desktop/qemu/out-br/build/optee_test-1.0/ta/socket/ta_entry.c:123
      d8:	b9000aa0 	str	w0, [x21,#8]
      dc:	17fffff3 	b	a8 <TA_InvokeCommandEntryPoint+0x70>
ta_entry_tcp_open():
/home/lagadanu/Desktop/qemu/out-br/build/optee_test-1.0/ta/socket/ta_entry.c:88
      e0:	b9400060 	ldr	w0, [x3]
/home/lagadanu/Desktop/qemu/out-br/build/optee_test-1.0/ta/socket/ta_entry.c:93
      e4:	129ffe74 	mov	w20, #0xffff000c            	// #-65524
/home/lagadanu/Desktop/qemu/out-br/build/optee_test-1.0/ta/socket/ta_entry.c:88
      e8:	b9005ba0 	str	w0, [x29,#88]
/home/lagadanu/Desktop/qemu/out-br/build/optee_test-1.0/ta/socket/ta_entry.c:89
      ec:	b9400460 	ldr	w0, [x3,#4]
      f0:	7900d3a0 	strh	w0, [x29,#104]
/home/lagadanu/Desktop/qemu/out-br/build/optee_test-1.0/ta/socket/ta_entry.c:90
      f4:	b9401861 	ldr	w1, [x3,#24]
      f8:	f9400860 	ldr	x0, [x3,#16]
      fc:	940004e0 	bl	147c <strndup>
     100:	f90033a0 	str	x0, [x29,#96]
/home/lagadanu/Desktop/qemu/out-br/build/optee_test-1.0/ta/socket/ta_entry.c:92
     104:	b4fffd20 	cbz	x0, a8 <TA_InvokeCommandEntryPoint+0x70>
/home/lagadanu/Desktop/qemu/out-br/build/optee_test-1.0/ta/socket/ta_entry.c:95
     108:	b0000040 	adrp	x0, 9000 <__func__.3181+0x410>
     10c:	f942d800 	ldr	x0, [x0,#1456]
ta_entry_udp_open():
/home/lagadanu/Desktop/qemu/out-br/build/optee_test-1.0/ta/socket/ta_entry.c:134
     110:	f9400000 	ldr	x0, [x0]
/home/lagadanu/Desktop/qemu/out-br/build/optee_test-1.0/ta/socket/ta_entry.c:135
     114:	910123b7 	add	x23, x29, #0x48
     118:	9100c262 	add	x2, x19, #0x30
     11c:	910163a1 	add	x1, x29, #0x58
     120:	f9400403 	ldr	x3, [x0,#8]
/home/lagadanu/Desktop/qemu/out-br/build/optee_test-1.0/ta/socket/ta_entry.c:134
     124:	f9002ba0 	str	x0, [x29,#80]
/home/lagadanu/Desktop/qemu/out-br/build/optee_test-1.0/ta/socket/ta_entry.c:135
     128:	aa1703e0 	mov	x0, x23
     12c:	d63f0060 	blr	x3
     130:	2a0003f4 	mov	w20, w0
/home/lagadanu/Desktop/qemu/out-br/build/optee_test-1.0/ta/socket/ta_entry.c:136
     134:	f94033a0 	ldr	x0, [x29,#96]
     138:	940002e8 	bl	cd8 <free>
/home/lagadanu/Desktop/qemu/out-br/build/optee_test-1.0/ta/socket/ta_entry.c:137
     13c:	35fffb74 	cbnz	w20, a8 <TA_InvokeCommandEntryPoint+0x70>
/home/lagadanu/Desktop/qemu/out-br/build/optee_test-1.0/ta/socket/ta_entry.c:138
     140:	f9401260 	ldr	x0, [x19,#32]
     144:	d2800216 	mov	x22, #0x10                  	// #16
     148:	aa1703e1 	mov	x1, x23
     14c:	aa1603e2 	mov	x2, x22
     150:	940004df 	bl	14cc <memcpy>
/home/lagadanu/Desktop/qemu/out-br/build/optee_test-1.0/ta/socket/ta_entry.c:139
     154:	b9000ab6 	str	w22, [x21,#8]
     158:	17ffffd4 	b	a8 <TA_InvokeCommandEntryPoint+0x70>
/home/lagadanu/Desktop/qemu/out-br/build/optee_test-1.0/ta/socket/ta_entry.c:116
     15c:	5284ca26 	mov	w6, #0x2651                	// #9809
     160:	6b06005f 	cmp	w2, w6
     164:	54000140 	b.eq	18c <TA_InvokeCommandEntryPoint+0x154>
/home/lagadanu/Desktop/qemu/out-br/build/optee_test-1.0/ta/socket/ta_entry.c:117
     168:	f0000020 	adrp	x0, 7000 <mpa_init_static_fmm_context+0x38>
     16c:	9132a000 	add	x0, x0, #0xca8
     170:	90000044 	adrp	x4, 8000 <PRIME_TABLE+0x168>
     174:	52800023 	mov	w3, #0x1                   	// #1
     178:	91300c84 	add	x4, x4, #0xc03
     17c:	52800022 	mov	w2, #0x1                   	// #1
     180:	52800ec1 	mov	w1, #0x76                  	// #118
     184:	91006000 	add	x0, x0, #0x18
     188:	17ffffc6 	b	a0 <TA_InvokeCommandEntryPoint+0x68>
/home/lagadanu/Desktop/qemu/out-br/build/optee_test-1.0/ta/socket/ta_entry.c:122
     18c:	91008075 	add	x21, x3, #0x20
     190:	b9400aa0 	ldr	w0, [x21,#8]
     194:	71003c1f 	cmp	w0, #0xf
     198:	54fff9c9 	b.ls	d0 <TA_InvokeCommandEntryPoint+0x98>
/home/lagadanu/Desktop/qemu/out-br/build/optee_test-1.0/ta/socket/ta_entry.c:127
     19c:	b9400060 	ldr	w0, [x3]
/home/lagadanu/Desktop/qemu/out-br/build/optee_test-1.0/ta/socket/ta_entry.c:132
     1a0:	129ffe74 	mov	w20, #0xffff000c            	// #-65524
/home/lagadanu/Desktop/qemu/out-br/build/optee_test-1.0/ta/socket/ta_entry.c:127
     1a4:	b9005ba0 	str	w0, [x29,#88]
/home/lagadanu/Desktop/qemu/out-br/build/optee_test-1.0/ta/socket/ta_entry.c:128
     1a8:	b9400460 	ldr	w0, [x3,#4]
     1ac:	7900d3a0 	strh	w0, [x29,#104]
/home/lagadanu/Desktop/qemu/out-br/build/optee_test-1.0/ta/socket/ta_entry.c:129
     1b0:	b9401861 	ldr	w1, [x3,#24]
     1b4:	f9400860 	ldr	x0, [x3,#16]
     1b8:	940004b1 	bl	147c <strndup>
     1bc:	f90033a0 	str	x0, [x29,#96]
/home/lagadanu/Desktop/qemu/out-br/build/optee_test-1.0/ta/socket/ta_entry.c:131
     1c0:	b4fff740 	cbz	x0, a8 <TA_InvokeCommandEntryPoint+0x70>
/home/lagadanu/Desktop/qemu/out-br/build/optee_test-1.0/ta/socket/ta_entry.c:134
     1c4:	b0000040 	adrp	x0, 9000 <__func__.3181+0x410>
     1c8:	f942dc00 	ldr	x0, [x0,#1464]
     1cc:	17ffffd1 	b	110 <TA_InvokeCommandEntryPoint+0xd8>
ta_entry_close():
/home/lagadanu/Desktop/qemu/out-br/build/optee_test-1.0/ta/socket/ta_entry.c:152
     1d0:	7100145f 	cmp	w2, #0x5
     1d4:	54000160 	b.eq	200 <TA_InvokeCommandEntryPoint+0x1c8>
/home/lagadanu/Desktop/qemu/out-br/build/optee_test-1.0/ta/socket/ta_entry.c:153
     1d8:	f0000020 	adrp	x0, 7000 <mpa_init_static_fmm_context+0x38>
     1dc:	9132a000 	add	x0, x0, #0xca8
     1e0:	90000044 	adrp	x4, 8000 <PRIME_TABLE+0x168>
     1e4:	528000a6 	mov	w6, #0x5                   	// #5
     1e8:	91300c84 	add	x4, x4, #0xc03
     1ec:	52800023 	mov	w3, #0x1                   	// #1
     1f0:	52800022 	mov	w2, #0x1                   	// #1
     1f4:	52801341 	mov	w1, #0x9a                  	// #154
     1f8:	9100c000 	add	x0, x0, #0x30
     1fc:	17ffffa9 	b	a0 <TA_InvokeCommandEntryPoint+0x68>
/home/lagadanu/Desktop/qemu/out-br/build/optee_test-1.0/ta/socket/ta_entry.c:158
     200:	b9400860 	ldr	w0, [x3,#8]
/home/lagadanu/Desktop/qemu/out-br/build/optee_test-1.0/ta/socket/ta_entry.c:159
     204:	129fff34 	mov	w20, #0xffff0006            	// #-65530
/home/lagadanu/Desktop/qemu/out-br/build/optee_test-1.0/ta/socket/ta_entry.c:158
     208:	7100401f 	cmp	w0, #0x10
     20c:	54fff4e1 	b.ne	a8 <TA_InvokeCommandEntryPoint+0x70>
/home/lagadanu/Desktop/qemu/out-br/build/optee_test-1.0/ta/socket/ta_entry.c:161
     210:	f9400060 	ldr	x0, [x3]
/home/lagadanu/Desktop/qemu/out-br/build/optee_test-1.0/ta/socket/ta_entry.c:162
     214:	f9400401 	ldr	x1, [x0,#8]
     218:	f9400000 	ldr	x0, [x0]
     21c:	f9400821 	ldr	x1, [x1,#16]
     220:	d63f0020 	blr	x1
ta_entry_ioctl():
/home/lagadanu/Desktop/qemu/out-br/build/optee_test-1.0/ta/socket/ta_entry.c:254
     224:	2a0003f4 	mov	w20, w0
     228:	17ffffa0 	b	a8 <TA_InvokeCommandEntryPoint+0x70>
ta_entry_send():
/home/lagadanu/Desktop/qemu/out-br/build/optee_test-1.0/ta/socket/ta_entry.c:174
     22c:	710d545f 	cmp	w2, #0x355
     230:	54000160 	b.eq	25c <TA_InvokeCommandEntryPoint+0x224>
/home/lagadanu/Desktop/qemu/out-br/build/optee_test-1.0/ta/socket/ta_entry.c:175
     234:	f0000020 	adrp	x0, 7000 <mpa_init_static_fmm_context+0x38>
     238:	9132a000 	add	x0, x0, #0xca8
     23c:	90000044 	adrp	x4, 8000 <PRIME_TABLE+0x168>
     240:	52806aa6 	mov	w6, #0x355                 	// #853
     244:	91300c84 	add	x4, x4, #0xc03
     248:	52800023 	mov	w3, #0x1                   	// #1
     24c:	52800022 	mov	w2, #0x1                   	// #1
     250:	52801601 	mov	w1, #0xb0                  	// #176
     254:	91010000 	add	x0, x0, #0x40
     258:	17ffff92 	b	a0 <TA_InvokeCommandEntryPoint+0x68>
/home/lagadanu/Desktop/qemu/out-br/build/optee_test-1.0/ta/socket/ta_entry.c:180
     25c:	b9400860 	ldr	w0, [x3,#8]
ta_entry_close():
/home/lagadanu/Desktop/qemu/out-br/build/optee_test-1.0/ta/socket/ta_entry.c:159
     260:	129fff34 	mov	w20, #0xffff0006            	// #-65530
ta_entry_send():
/home/lagadanu/Desktop/qemu/out-br/build/optee_test-1.0/ta/socket/ta_entry.c:180
     264:	7100401f 	cmp	w0, #0x10
     268:	54fff201 	b.ne	a8 <TA_InvokeCommandEntryPoint+0x70>
/home/lagadanu/Desktop/qemu/out-br/build/optee_test-1.0/ta/socket/ta_entry.c:183
     26c:	aa0303e0 	mov	x0, x3
/home/lagadanu/Desktop/qemu/out-br/build/optee_test-1.0/ta/socket/ta_entry.c:184
     270:	b9401861 	ldr	w1, [x3,#24]
/home/lagadanu/Desktop/qemu/out-br/build/optee_test-1.0/ta/socket/ta_entry.c:185
     274:	91009062 	add	x2, x3, #0x24
/home/lagadanu/Desktop/qemu/out-br/build/optee_test-1.0/ta/socket/ta_entry.c:183
     278:	f8420404 	ldr	x4, [x0],#32
/home/lagadanu/Desktop/qemu/out-br/build/optee_test-1.0/ta/socket/ta_entry.c:184
     27c:	b9000401 	str	w1, [x0,#4]
/home/lagadanu/Desktop/qemu/out-br/build/optee_test-1.0/ta/socket/ta_entry.c:185
     280:	b9402063 	ldr	w3, [x3,#32]
     284:	f9400480 	ldr	x0, [x4,#8]
     288:	f9400a61 	ldr	x1, [x19,#16]
     28c:	f9400c05 	ldr	x5, [x0,#24]
     290:	f9400080 	ldr	x0, [x4]
     294:	d63f00a0 	blr	x5
     298:	17ffffe3 	b	224 <TA_InvokeCommandEntryPoint+0x1ec>
ta_entry_recv():
/home/lagadanu/Desktop/qemu/out-br/build/optee_test-1.0/ta/socket/ta_entry.c:198
     29c:	7105945f 	cmp	w2, #0x165
     2a0:	54000160 	b.eq	2cc <TA_InvokeCommandEntryPoint+0x294>
/home/lagadanu/Desktop/qemu/out-br/build/optee_test-1.0/ta/socket/ta_entry.c:199
     2a4:	f0000020 	adrp	x0, 7000 <mpa_init_static_fmm_context+0x38>
     2a8:	9132a000 	add	x0, x0, #0xca8
     2ac:	90000044 	adrp	x4, 8000 <PRIME_TABLE+0x168>
     2b0:	52802ca6 	mov	w6, #0x165                 	// #357
     2b4:	91300c84 	add	x4, x4, #0xc03
     2b8:	52800023 	mov	w3, #0x1                   	// #1
     2bc:	52800022 	mov	w2, #0x1                   	// #1
     2c0:	52801901 	mov	w1, #0xc8                  	// #200
     2c4:	91014000 	add	x0, x0, #0x50
     2c8:	17ffff76 	b	a0 <TA_InvokeCommandEntryPoint+0x68>
/home/lagadanu/Desktop/qemu/out-br/build/optee_test-1.0/ta/socket/ta_entry.c:204
     2cc:	b9400860 	ldr	w0, [x3,#8]
ta_entry_close():
/home/lagadanu/Desktop/qemu/out-br/build/optee_test-1.0/ta/socket/ta_entry.c:159
     2d0:	129fff34 	mov	w20, #0xffff0006            	// #-65530
ta_entry_recv():
/home/lagadanu/Desktop/qemu/out-br/build/optee_test-1.0/ta/socket/ta_entry.c:204
     2d4:	7100401f 	cmp	w0, #0x10
     2d8:	54ffee81 	b.ne	a8 <TA_InvokeCommandEntryPoint+0x70>
/home/lagadanu/Desktop/qemu/out-br/build/optee_test-1.0/ta/socket/ta_entry.c:207
     2dc:	aa0303e2 	mov	x2, x3
/home/lagadanu/Desktop/qemu/out-br/build/optee_test-1.0/ta/socket/ta_entry.c:208
     2e0:	b9402063 	ldr	w3, [x3,#32]
/home/lagadanu/Desktop/qemu/out-br/build/optee_test-1.0/ta/socket/ta_entry.c:207
     2e4:	f8418440 	ldr	x0, [x2],#24
/home/lagadanu/Desktop/qemu/out-br/build/optee_test-1.0/ta/socket/ta_entry.c:208
     2e8:	f9400401 	ldr	x1, [x0,#8]
     2ec:	f9400000 	ldr	x0, [x0]
     2f0:	f9401024 	ldr	x4, [x1,#32]
     2f4:	f9400a61 	ldr	x1, [x19,#16]
     2f8:	d63f0080 	blr	x4
     2fc:	17ffffca 	b	224 <TA_InvokeCommandEntryPoint+0x1ec>
ta_entry_error():
/home/lagadanu/Desktop/qemu/out-br/build/optee_test-1.0/ta/socket/ta_entry.c:221
     300:	7100945f 	cmp	w2, #0x25
     304:	54000160 	b.eq	330 <TA_InvokeCommandEntryPoint+0x2f8>
/home/lagadanu/Desktop/qemu/out-br/build/optee_test-1.0/ta/socket/ta_entry.c:222
     308:	f0000020 	adrp	x0, 7000 <mpa_init_static_fmm_context+0x38>
     30c:	9132a000 	add	x0, x0, #0xca8
     310:	90000044 	adrp	x4, 8000 <PRIME_TABLE+0x168>
     314:	528004a6 	mov	w6, #0x25                  	// #37
     318:	91300c84 	add	x4, x4, #0xc03
     31c:	52800023 	mov	w3, #0x1                   	// #1
     320:	52800022 	mov	w2, #0x1                   	// #1
     324:	52801be1 	mov	w1, #0xdf                  	// #223
     328:	91018000 	add	x0, x0, #0x60
     32c:	17ffff5d 	b	a0 <TA_InvokeCommandEntryPoint+0x68>
/home/lagadanu/Desktop/qemu/out-br/build/optee_test-1.0/ta/socket/ta_entry.c:227
     330:	b9400860 	ldr	w0, [x3,#8]
ta_entry_close():
/home/lagadanu/Desktop/qemu/out-br/build/optee_test-1.0/ta/socket/ta_entry.c:159
     334:	129fff34 	mov	w20, #0xffff0006            	// #-65530
ta_entry_error():
/home/lagadanu/Desktop/qemu/out-br/build/optee_test-1.0/ta/socket/ta_entry.c:227
     338:	7100401f 	cmp	w0, #0x10
     33c:	54ffeb61 	b.ne	a8 <TA_InvokeCommandEntryPoint+0x70>
/home/lagadanu/Desktop/qemu/out-br/build/optee_test-1.0/ta/socket/ta_entry.c:230
     340:	f9400060 	ldr	x0, [x3]
/home/lagadanu/Desktop/qemu/out-br/build/optee_test-1.0/ta/socket/ta_entry.c:232
     344:	52800014 	mov	w20, #0x0                   	// #0
/home/lagadanu/Desktop/qemu/out-br/build/optee_test-1.0/ta/socket/ta_entry.c:231
     348:	f9400401 	ldr	x1, [x0,#8]
     34c:	f9400000 	ldr	x0, [x0]
     350:	f9401421 	ldr	x1, [x1,#40]
     354:	d63f0020 	blr	x1
     358:	b9001260 	str	w0, [x19,#16]
     35c:	17ffff53 	b	a8 <TA_InvokeCommandEntryPoint+0x70>
ta_entry_ioctl():
/home/lagadanu/Desktop/qemu/out-br/build/optee_test-1.0/ta/socket/ta_entry.c:244
     360:	7105d45f 	cmp	w2, #0x175
     364:	54000160 	b.eq	390 <TA_InvokeCommandEntryPoint+0x358>
/home/lagadanu/Desktop/qemu/out-br/build/optee_test-1.0/ta/socket/ta_entry.c:245
     368:	f0000020 	adrp	x0, 7000 <mpa_init_static_fmm_context+0x38>
     36c:	9132a000 	add	x0, x0, #0xca8
     370:	90000044 	adrp	x4, 8000 <PRIME_TABLE+0x168>
     374:	52802ea6 	mov	w6, #0x175                 	// #373
     378:	91300c84 	add	x4, x4, #0xc03
     37c:	52800023 	mov	w3, #0x1                   	// #1
     380:	52800022 	mov	w2, #0x1                   	// #1
     384:	52801ec1 	mov	w1, #0xf6                  	// #246
     388:	9101c000 	add	x0, x0, #0x70
     38c:	17ffff45 	b	a0 <TA_InvokeCommandEntryPoint+0x68>
/home/lagadanu/Desktop/qemu/out-br/build/optee_test-1.0/ta/socket/ta_entry.c:250
     390:	b9400860 	ldr	w0, [x3,#8]
ta_entry_close():
/home/lagadanu/Desktop/qemu/out-br/build/optee_test-1.0/ta/socket/ta_entry.c:159
     394:	129fff34 	mov	w20, #0xffff0006            	// #-65530
ta_entry_ioctl():
/home/lagadanu/Desktop/qemu/out-br/build/optee_test-1.0/ta/socket/ta_entry.c:250
     398:	7100401f 	cmp	w0, #0x10
     39c:	54ffe861 	b.ne	a8 <TA_InvokeCommandEntryPoint+0x70>
/home/lagadanu/Desktop/qemu/out-br/build/optee_test-1.0/ta/socket/ta_entry.c:253
     3a0:	f8418460 	ldr	x0, [x3],#24
/home/lagadanu/Desktop/qemu/out-br/build/optee_test-1.0/ta/socket/ta_entry.c:254
     3a4:	f9400a62 	ldr	x2, [x19,#16]
     3a8:	f9400401 	ldr	x1, [x0,#8]
     3ac:	f9400000 	ldr	x0, [x0]
     3b0:	f9401824 	ldr	x4, [x1,#48]
     3b4:	b9402261 	ldr	w1, [x19,#32]
     3b8:	d63f0080 	blr	x4
     3bc:	17ffff9a 	b	224 <TA_InvokeCommandEntryPoint+0x1ec>

00000000000003c0 <tahead_get_trace_level>:
tahead_get_trace_level():
/home/lagadanu/Desktop/qemu/optee_os/out/arm/export-ta_arm64/src/user_ta_header.c:107
     3c0:	52800040 	mov	w0, #0x2                   	// #2
     3c4:	d65f03c0 	ret

00000000000003c8 <raw_malloc_return_hook.isra.3>:
raw_malloc_return_hook():
/home/lagadanu/Desktop/qemu/optee_os/lib/libutils/isoc/bget_malloc.c:167
     3c8:	d0000083 	adrp	x3, 12000 <ta_heap+0x7e80>
     3cc:	91060064 	add	x4, x3, #0x180
     3d0:	b9402485 	ldr	w5, [x4,#36]
     3d4:	eb0200bf 	cmp	x5, x2
     3d8:	5400004a 	b.ge	3e0 <raw_malloc_return_hook.isra.3+0x18>
/home/lagadanu/Desktop/qemu/optee_os/lib/libutils/isoc/bget_malloc.c:168
     3dc:	b9002482 	str	w2, [x4,#36]
/home/lagadanu/Desktop/qemu/optee_os/lib/libutils/isoc/bget_malloc.c:170
     3e0:	b5000120 	cbnz	x0, 404 <raw_malloc_return_hook.isra.3+0x3c>
/home/lagadanu/Desktop/qemu/optee_os/lib/libutils/isoc/bget_malloc.c:171
     3e4:	91060060 	add	x0, x3, #0x180
     3e8:	b9402c03 	ldr	w3, [x0,#44]
     3ec:	11000463 	add	w3, w3, #0x1
     3f0:	b9002c03 	str	w3, [x0,#44]
/home/lagadanu/Desktop/qemu/optee_os/lib/libutils/isoc/bget_malloc.c:172
     3f4:	b9403003 	ldr	w3, [x0,#48]
     3f8:	eb01007f 	cmp	x3, x1
     3fc:	54000042 	b.cs	404 <raw_malloc_return_hook.isra.3+0x3c>
/home/lagadanu/Desktop/qemu/optee_os/lib/libutils/isoc/bget_malloc.c:174
     400:	29060801 	stp	w1, w2, [x0,#48]
     404:	d65f03c0 	ret

0000000000000408 <create_free_block.constprop.11>:
create_free_block():
/home/lagadanu/Desktop/qemu/optee_os/lib/libutils/isoc/bget_malloc.c:380
     408:	a9bf7bfd 	stp	x29, x30, [sp,#-16]!
/home/lagadanu/Desktop/qemu/optee_os/lib/libutils/isoc/bget_malloc.c:383
     40c:	8b010003 	add	x3, x0, x1
     410:	eb02007f 	cmp	x3, x2
/home/lagadanu/Desktop/qemu/optee_os/lib/libutils/isoc/bget_malloc.c:380
     414:	910003fd 	mov	x29, sp
/home/lagadanu/Desktop/qemu/optee_os/lib/libutils/isoc/bget_malloc.c:383
     418:	54000140 	b.eq	440 <create_free_block.constprop.11+0x38>
     41c:	f0000023 	adrp	x3, 7000 <mpa_init_static_fmm_context+0x38>
     420:	90000041 	adrp	x1, 8000 <PRIME_TABLE+0x168>
     424:	90000040 	adrp	x0, 8000 <PRIME_TABLE+0x168>
     428:	91354063 	add	x3, x3, #0xd50
     42c:	91335421 	add	x1, x1, #0xcd5
     430:	9133d400 	add	x0, x0, #0xcf5
     434:	52802fe2 	mov	w2, #0x17f                 	// #383
/home/lagadanu/Desktop/qemu/optee_os/lib/libutils/isoc/bget_malloc.c:384
     438:	94000868 	bl	25d8 <_assert_log>
     43c:	94000878 	bl	261c <_assert_break>
     440:	f9400462 	ldr	x2, [x3,#8]
     444:	b7f80122 	tbnz	x2, #63, 468 <create_free_block.constprop.11+0x60>
     448:	f0000023 	adrp	x3, 7000 <mpa_init_static_fmm_context+0x38>
     44c:	90000041 	adrp	x1, 8000 <PRIME_TABLE+0x168>
     450:	90000040 	adrp	x0, 8000 <PRIME_TABLE+0x168>
     454:	91354063 	add	x3, x3, #0xd50
     458:	52803002 	mov	w2, #0x180                 	// #384
     45c:	91335421 	add	x1, x1, #0xcd5
     460:	91344400 	add	x0, x0, #0xd11
     464:	17fffff5 	b	438 <create_free_block.constprop.11+0x30>
/home/lagadanu/Desktop/qemu/optee_os/lib/libutils/isoc/bget_malloc.c:386
     468:	f8616802 	ldr	x2, [x0,x1]
     46c:	b4000122 	cbz	x2, 490 <create_free_block.constprop.11+0x88>
     470:	f0000023 	adrp	x3, 7000 <mpa_init_static_fmm_context+0x38>
     474:	90000041 	adrp	x1, 8000 <PRIME_TABLE+0x168>
     478:	90000040 	adrp	x0, 8000 <PRIME_TABLE+0x168>
     47c:	91354063 	add	x3, x3, #0xd50
     480:	52803042 	mov	w2, #0x182                 	// #386
     484:	91335421 	add	x1, x1, #0xcd5
     488:	91347c00 	add	x0, x0, #0xd1f
     48c:	17ffffeb 	b	438 <create_free_block.constprop.11+0x30>
/home/lagadanu/Desktop/qemu/optee_os/lib/libutils/isoc/bget_malloc.c:389
     490:	a900041f 	stp	xzr, x1, [x0]
/home/lagadanu/Desktop/qemu/optee_os/lib/libutils/isoc/bget_malloc.c:393
     494:	f8216801 	str	x1, [x0,x1]
/home/lagadanu/Desktop/qemu/optee_os/lib/libutils/isoc/bget_malloc.c:396
     498:	d0000041 	adrp	x1, a000 <ta_props>
     49c:	9102a021 	add	x1, x1, #0xa8
     4a0:	f9400c23 	ldr	x3, [x1,#24]
     4a4:	f9400862 	ldr	x2, [x3,#16]
     4a8:	eb01005f 	cmp	x2, x1
     4ac:	54000120 	b.eq	4d0 <create_free_block.constprop.11+0xc8>
     4b0:	f0000023 	adrp	x3, 7000 <mpa_init_static_fmm_context+0x38>
     4b4:	90000041 	adrp	x1, 8000 <PRIME_TABLE+0x168>
     4b8:	90000040 	adrp	x0, 8000 <PRIME_TABLE+0x168>
     4bc:	91354063 	add	x3, x3, #0xd50
     4c0:	52803182 	mov	w2, #0x18c                 	// #396
     4c4:	91335421 	add	x1, x1, #0xcd5
     4c8:	9134c400 	add	x0, x0, #0xd31
     4cc:	17ffffdb 	b	438 <create_free_block.constprop.11+0x30>
/home/lagadanu/Desktop/qemu/optee_os/lib/libutils/isoc/bget_malloc.c:397
     4d0:	f9400841 	ldr	x1, [x2,#16]
     4d4:	f9400c21 	ldr	x1, [x1,#24]
     4d8:	eb02003f 	cmp	x1, x2
     4dc:	54000120 	b.eq	500 <create_free_block.constprop.11+0xf8>
     4e0:	f0000023 	adrp	x3, 7000 <mpa_init_static_fmm_context+0x38>
     4e4:	90000041 	adrp	x1, 8000 <PRIME_TABLE+0x168>
     4e8:	90000040 	adrp	x0, 8000 <PRIME_TABLE+0x168>
     4ec:	91354063 	add	x3, x3, #0xd50
     4f0:	528031a2 	mov	w2, #0x18d                 	// #397
     4f4:	91335421 	add	x1, x1, #0xcd5
     4f8:	9135b000 	add	x0, x0, #0xd6c
     4fc:	17ffffcf 	b	438 <create_free_block.constprop.11+0x30>
/home/lagadanu/Desktop/qemu/optee_os/lib/libutils/isoc/bget_malloc.c:399
     500:	a9010c01 	stp	x1, x3, [x0,#16]
/home/lagadanu/Desktop/qemu/optee_os/lib/libutils/isoc/bget_malloc.c:400
     504:	f9000c20 	str	x0, [x1,#24]
/home/lagadanu/Desktop/qemu/optee_os/lib/libutils/isoc/bget_malloc.c:401
     508:	f9400c01 	ldr	x1, [x0,#24]
     50c:	f9000820 	str	x0, [x1,#16]
/home/lagadanu/Desktop/qemu/optee_os/lib/libutils/isoc/bget_malloc.c:402
     510:	a8c17bfd 	ldp	x29, x30, [sp],#16
     514:	d65f03c0 	ret

0000000000000518 <bget>:
bget():
/home/lagadanu/Desktop/qemu/optee_os/lib/libutils/isoc/bget.c:576
     518:	a9bf7bfd 	stp	x29, x30, [sp,#-16]!
/home/lagadanu/Desktop/qemu/optee_os/lib/libutils/isoc/bget.c:587
     51c:	f100001f 	cmp	x0, #0x0
/home/lagadanu/Desktop/qemu/optee_os/lib/libutils/isoc/bget.c:576
     520:	910003fd 	mov	x29, sp
/home/lagadanu/Desktop/qemu/optee_os/lib/libutils/isoc/bget.c:587
     524:	5400016c 	b.gt	550 <bget+0x38>
/home/lagadanu/Desktop/qemu/optee_os/lib/libutils/isoc/bget.c:587 (discriminator 1)
     528:	f0000023 	adrp	x3, 7000 <mpa_init_static_fmm_context+0x38>
     52c:	91354063 	add	x3, x3, #0xd50
     530:	90000041 	adrp	x1, 8000 <PRIME_TABLE+0x168>
     534:	90000040 	adrp	x0, 8000 <PRIME_TABLE+0x168>
     538:	91006063 	add	x3, x3, #0x18
     53c:	91369c21 	add	x1, x1, #0xda7
     540:	913e7800 	add	x0, x0, #0xf9e
     544:	52804962 	mov	w2, #0x24b                 	// #587
/home/lagadanu/Desktop/qemu/optee_os/lib/libutils/isoc/bget.c:647 (discriminator 1)
     548:	94000824 	bl	25d8 <_assert_log>
     54c:	94000834 	bl	261c <_assert_break>
/home/lagadanu/Desktop/qemu/optee_os/lib/libutils/isoc/bget.c:594
     550:	f100401f 	cmp	x0, #0x10
     554:	d2800202 	mov	x2, #0x10                  	// #16
     558:	9a82a002 	csel	x2, x0, x2, ge
/home/lagadanu/Desktop/qemu/optee_os/lib/libutils/isoc/bget.c:608
     55c:	f9400820 	ldr	x0, [x1,#16]
/home/lagadanu/Desktop/qemu/optee_os/lib/libutils/isoc/bget.c:594
     560:	91003c42 	add	x2, x2, #0xf
     564:	927cec42 	and	x2, x2, #0xfffffffffffffff0
/home/lagadanu/Desktop/qemu/optee_os/lib/libutils/isoc/bget.c:598
     568:	91004042 	add	x2, x2, #0x10
/home/lagadanu/Desktop/qemu/optee_os/lib/libutils/isoc/bget.c:630
     56c:	eb01001f 	cmp	x0, x1
     570:	54000061 	b.ne	57c <bget+0x64>
/home/lagadanu/Desktop/qemu/optee_os/lib/libutils/isoc/bget.c:758
     574:	d2800000 	mov	x0, #0x0                   	// #0
     578:	1400001f 	b	5f4 <bget+0xdc>
/home/lagadanu/Desktop/qemu/optee_os/lib/libutils/isoc/bget.c:631
     57c:	f9400403 	ldr	x3, [x0,#8]
     580:	eb03005f 	cmp	x2, x3
     584:	54000a6c 	b.gt	6d0 <bget+0x1b8>
/home/lagadanu/Desktop/qemu/optee_os/lib/libutils/isoc/bget.c:642
     588:	cb020064 	sub	x4, x3, x2
     58c:	f100809f 	cmp	x4, #0x20
     590:	5400036d 	b.le	5fc <bget+0xe4>
/home/lagadanu/Desktop/qemu/optee_os/lib/libutils/isoc/bget.c:645
     594:	8b040005 	add	x5, x0, x4
/home/lagadanu/Desktop/qemu/optee_os/lib/libutils/isoc/bget.c:647
     598:	f86268a6 	ldr	x6, [x5,x2]
     59c:	eb06007f 	cmp	x3, x6
     5a0:	54000140 	b.eq	5c8 <bget+0xb0>
/home/lagadanu/Desktop/qemu/optee_os/lib/libutils/isoc/bget.c:647 (discriminator 1)
     5a4:	f0000023 	adrp	x3, 7000 <mpa_init_static_fmm_context+0x38>
     5a8:	91354063 	add	x3, x3, #0xd50
     5ac:	90000041 	adrp	x1, 8000 <PRIME_TABLE+0x168>
     5b0:	90000040 	adrp	x0, 8000 <PRIME_TABLE+0x168>
     5b4:	91006063 	add	x3, x3, #0x18
     5b8:	528050e2 	mov	w2, #0x287                 	// #647
     5bc:	91369c21 	add	x1, x1, #0xda7
     5c0:	91370000 	add	x0, x0, #0xdc0
     5c4:	17ffffe1 	b	548 <bget+0x30>
/home/lagadanu/Desktop/qemu/optee_os/lib/libutils/isoc/bget.c:649
     5c8:	f9000404 	str	x4, [x0,#8]
/home/lagadanu/Desktop/qemu/optee_os/lib/libutils/isoc/bget.c:651
     5cc:	f8246804 	str	x4, [x0,x4]
/home/lagadanu/Desktop/qemu/optee_os/lib/libutils/isoc/bget.c:653
     5d0:	cb0203e0 	neg	x0, x2
     5d4:	f90004a0 	str	x0, [x5,#8]
/home/lagadanu/Desktop/qemu/optee_os/lib/libutils/isoc/bget.c:658
     5d8:	f9401020 	ldr	x0, [x1,#32]
/home/lagadanu/Desktop/qemu/optee_os/lib/libutils/isoc/bget.c:655
     5dc:	f82268bf 	str	xzr, [x5,x2]
/home/lagadanu/Desktop/qemu/optee_os/lib/libutils/isoc/bget.c:658
     5e0:	8b020002 	add	x2, x0, x2
/home/lagadanu/Desktop/qemu/optee_os/lib/libutils/isoc/bget.c:659
     5e4:	f9401420 	ldr	x0, [x1,#40]
     5e8:	91000400 	add	x0, x0, #0x1
     5ec:	a9020022 	stp	x2, x0, [x1,#32]
/home/lagadanu/Desktop/qemu/optee_os/lib/libutils/isoc/bget.c:661
     5f0:	910040a0 	add	x0, x5, #0x10
/home/lagadanu/Desktop/qemu/optee_os/lib/libutils/isoc/bget.c:759
     5f4:	a8c17bfd 	ldp	x29, x30, [sp],#16
     5f8:	d65f03c0 	ret
/home/lagadanu/Desktop/qemu/optee_os/lib/libutils/isoc/bget.c:668
     5fc:	f8636802 	ldr	x2, [x0,x3]
/home/lagadanu/Desktop/qemu/optee_os/lib/libutils/isoc/bget.c:667
     600:	8b030005 	add	x5, x0, x3
/home/lagadanu/Desktop/qemu/optee_os/lib/libutils/isoc/bget.c:668
     604:	eb02007f 	cmp	x3, x2
     608:	54000140 	b.eq	630 <bget+0x118>
/home/lagadanu/Desktop/qemu/optee_os/lib/libutils/isoc/bget.c:668 (discriminator 1)
     60c:	f0000023 	adrp	x3, 7000 <mpa_init_static_fmm_context+0x38>
     610:	91354063 	add	x3, x3, #0xd50
     614:	90000041 	adrp	x1, 8000 <PRIME_TABLE+0x168>
     618:	90000040 	adrp	x0, 8000 <PRIME_TABLE+0x168>
     61c:	91006063 	add	x3, x3, #0x18
     620:	52805382 	mov	w2, #0x29c                 	// #668
     624:	91369c21 	add	x1, x1, #0xda7
     628:	91377000 	add	x0, x0, #0xddc
     62c:	17ffffc7 	b	548 <bget+0x30>
/home/lagadanu/Desktop/qemu/optee_os/lib/libutils/isoc/bget.c:673
     630:	f9400c02 	ldr	x2, [x0,#24]
     634:	f9400844 	ldr	x4, [x2,#16]
     638:	eb04001f 	cmp	x0, x4
     63c:	54000140 	b.eq	664 <bget+0x14c>
/home/lagadanu/Desktop/qemu/optee_os/lib/libutils/isoc/bget.c:673 (discriminator 1)
     640:	f0000023 	adrp	x3, 7000 <mpa_init_static_fmm_context+0x38>
     644:	91354063 	add	x3, x3, #0xd50
     648:	90000041 	adrp	x1, 8000 <PRIME_TABLE+0x168>
     64c:	90000040 	adrp	x0, 8000 <PRIME_TABLE+0x168>
     650:	91006063 	add	x3, x3, #0x18
     654:	52805422 	mov	w2, #0x2a1                 	// #673
     658:	91369c21 	add	x1, x1, #0xda7
     65c:	9137e000 	add	x0, x0, #0xdf8
     660:	17ffffba 	b	548 <bget+0x30>
/home/lagadanu/Desktop/qemu/optee_os/lib/libutils/isoc/bget.c:674
     664:	f9400804 	ldr	x4, [x0,#16]
     668:	f9400c86 	ldr	x6, [x4,#24]
     66c:	eb06001f 	cmp	x0, x6
     670:	54000140 	b.eq	698 <bget+0x180>
/home/lagadanu/Desktop/qemu/optee_os/lib/libutils/isoc/bget.c:674 (discriminator 1)
     674:	f0000023 	adrp	x3, 7000 <mpa_init_static_fmm_context+0x38>
     678:	91354063 	add	x3, x3, #0xd50
     67c:	90000041 	adrp	x1, 8000 <PRIME_TABLE+0x168>
     680:	90000040 	adrp	x0, 8000 <PRIME_TABLE+0x168>
     684:	91006063 	add	x3, x3, #0x18
     688:	52805442 	mov	w2, #0x2a2                 	// #674
     68c:	91369c21 	add	x1, x1, #0xda7
     690:	91384c00 	add	x0, x0, #0xe13
     694:	17ffffad 	b	548 <bget+0x30>
/home/lagadanu/Desktop/qemu/optee_os/lib/libutils/isoc/bget.c:675
     698:	f9000844 	str	x4, [x2,#16]
/home/lagadanu/Desktop/qemu/optee_os/lib/libutils/isoc/bget.c:690
     69c:	91004000 	add	x0, x0, #0x10
/home/lagadanu/Desktop/qemu/optee_os/lib/libutils/isoc/bget.c:676
     6a0:	f9400004 	ldr	x4, [x0]
     6a4:	f9000c82 	str	x2, [x4,#24]
/home/lagadanu/Desktop/qemu/optee_os/lib/libutils/isoc/bget.c:679
     6a8:	f9401022 	ldr	x2, [x1,#32]
     6ac:	8b030042 	add	x2, x2, x3
     6b0:	f9001022 	str	x2, [x1,#32]
/home/lagadanu/Desktop/qemu/optee_os/lib/libutils/isoc/bget.c:680
     6b4:	f9401422 	ldr	x2, [x1,#40]
/home/lagadanu/Desktop/qemu/optee_os/lib/libutils/isoc/bget.c:683
     6b8:	cb0303e3 	neg	x3, x3
/home/lagadanu/Desktop/qemu/optee_os/lib/libutils/isoc/bget.c:680
     6bc:	91000442 	add	x2, x2, #0x1
     6c0:	f9001422 	str	x2, [x1,#40]
/home/lagadanu/Desktop/qemu/optee_os/lib/libutils/isoc/bget.c:683
     6c4:	f81f8003 	stur	x3, [x0,#-8]
/home/lagadanu/Desktop/qemu/optee_os/lib/libutils/isoc/bget.c:687
     6c8:	f90000bf 	str	xzr, [x5]
/home/lagadanu/Desktop/qemu/optee_os/lib/libutils/isoc/bget.c:692
     6cc:	17ffffca 	b	5f4 <bget+0xdc>
/home/lagadanu/Desktop/qemu/optee_os/lib/libutils/isoc/bget.c:695
     6d0:	f9400800 	ldr	x0, [x0,#16]
     6d4:	17ffffa6 	b	56c <bget+0x54>

00000000000006d8 <raw_malloc.constprop.15>:
raw_malloc():
/home/lagadanu/Desktop/qemu/optee_os/lib/libutils/isoc/bget_malloc.c:288
     6d8:	a9bd7bfd 	stp	x29, x30, [sp,#-48]!
     6dc:	910003fd 	mov	x29, sp
     6e0:	a90153f3 	stp	x19, x20, [sp,#16]
     6e4:	aa0003f3 	mov	x19, x0
     6e8:	f90013f5 	str	x21, [sp,#32]
     6ec:	d0000054 	adrp	x20, a000 <ta_props>
/home/lagadanu/Desktop/qemu/optee_os/lib/libutils/isoc/bget_malloc.c:291
     6f0:	d2800015 	mov	x21, #0x0                   	// #0
/home/lagadanu/Desktop/qemu/optee_os/lib/libutils/isoc/bget_malloc.c:304
     6f4:	b7f800c0 	tbnz	x0, #63, 70c <raw_malloc.constprop.15+0x34>
/home/lagadanu/Desktop/qemu/optee_os/lib/libutils/isoc/bget_malloc.c:311
     6f8:	f100001f 	cmp	x0, #0x0
/home/lagadanu/Desktop/qemu/optee_os/lib/libutils/isoc/bget_malloc.c:313
     6fc:	9102a281 	add	x1, x20, #0xa8
     700:	9a9f1400 	csinc	x0, x0, xzr, ne
     704:	97ffff85 	bl	518 <bget>
     708:	aa0003f5 	mov	x21, x0
/home/lagadanu/Desktop/qemu/optee_os/lib/libutils/isoc/bget_malloc.c:315
     70c:	9102a294 	add	x20, x20, #0xa8
     710:	aa1303e1 	mov	x1, x19
     714:	aa1503e0 	mov	x0, x21
     718:	f9401282 	ldr	x2, [x20,#32]
     71c:	97ffff2b 	bl	3c8 <raw_malloc_return_hook.isra.3>
/home/lagadanu/Desktop/qemu/optee_os/lib/libutils/isoc/bget_malloc.c:318
     720:	aa1503e0 	mov	x0, x21
     724:	f94013f5 	ldr	x21, [sp,#32]
     728:	a94153f3 	ldp	x19, x20, [sp,#16]
     72c:	a8c37bfd 	ldp	x29, x30, [sp],#48
     730:	d65f03c0 	ret

0000000000000734 <bgetz>:
bgetz():
/home/lagadanu/Desktop/qemu/optee_os/lib/libutils/isoc/bget.c:768
     734:	a9be7bfd 	stp	x29, x30, [sp,#-32]!
     738:	910003fd 	mov	x29, sp
     73c:	a90153f3 	stp	x19, x20, [sp,#16]
     740:	aa0003f4 	mov	x20, x0
/home/lagadanu/Desktop/qemu/optee_os/lib/libutils/isoc/bget.c:769
     744:	97ffff75 	bl	518 <bget>
     748:	aa0003f3 	mov	x19, x0
/home/lagadanu/Desktop/qemu/optee_os/lib/libutils/isoc/bget.c:771
     74c:	b4000300 	cbz	x0, 7ac <bgetz+0x78>
/home/lagadanu/Desktop/qemu/optee_os/lib/libutils/isoc/bget.c:776
     750:	f85f8000 	ldur	x0, [x0,#-8]
/home/lagadanu/Desktop/qemu/optee_os/lib/libutils/isoc/bget.c:777
     754:	b50001e0 	cbnz	x0, 790 <bgetz+0x5c>
/home/lagadanu/Desktop/qemu/optee_os/lib/libutils/isoc/bget.c:781
     758:	f85e8262 	ldur	x2, [x19,#-24]
     75c:	d1006042 	sub	x2, x2, #0x18
/home/lagadanu/Desktop/qemu/optee_os/lib/libutils/isoc/bget.c:785
     760:	eb14005f 	cmp	x2, x20
     764:	540001ca 	b.ge	79c <bgetz+0x68>
     768:	f0000023 	adrp	x3, 7000 <mpa_init_static_fmm_context+0x38>
     76c:	91354063 	add	x3, x3, #0xd50
     770:	91008063 	add	x3, x3, #0x20
     774:	90000041 	adrp	x1, 8000 <PRIME_TABLE+0x168>
     778:	90000040 	adrp	x0, 8000 <PRIME_TABLE+0x168>
     77c:	91369c21 	add	x1, x1, #0xda7
     780:	9138b800 	add	x0, x0, #0xe2e
     784:	52806222 	mov	w2, #0x311                 	// #785
     788:	94000794 	bl	25d8 <_assert_log>
     78c:	940007a4 	bl	261c <_assert_break>
/home/lagadanu/Desktop/qemu/optee_os/lib/libutils/isoc/bget.c:783
     790:	928001e2 	mov	x2, #0xfffffffffffffff0    	// #-16
     794:	cb000042 	sub	x2, x2, x0
     798:	17fffff2 	b	760 <bgetz+0x2c>
memset_unchecked():
/home/lagadanu/Desktop/qemu/optee_os/lib/libutils/isoc/bget_malloc.c:141
     79c:	93407c42 	sxtw	x2, w2
     7a0:	52800001 	mov	w1, #0x0                   	// #0
     7a4:	aa1303e0 	mov	x0, x19
     7a8:	94000351 	bl	14ec <memset>
bgetz():
/home/lagadanu/Desktop/qemu/optee_os/lib/libutils/isoc/bget.c:789
     7ac:	aa1303e0 	mov	x0, x19
     7b0:	a94153f3 	ldp	x19, x20, [sp,#16]
     7b4:	a8c27bfd 	ldp	x29, x30, [sp],#32
     7b8:	d65f03c0 	ret

00000000000007bc <brel>:
brel():
/home/lagadanu/Desktop/qemu/optee_os/lib/libutils/isoc/bget.c:840
     7bc:	a9bf7bfd 	stp	x29, x30, [sp,#-16]!
     7c0:	910003fd 	mov	x29, sp
/home/lagadanu/Desktop/qemu/optee_os/lib/libutils/isoc/bget.c:846
     7c4:	f9401823 	ldr	x3, [x1,#48]
     7c8:	91000463 	add	x3, x3, #0x1
     7cc:	f9001823 	str	x3, [x1,#48]
/home/lagadanu/Desktop/qemu/optee_os/lib/libutils/isoc/bget.c:848
     7d0:	b5000160 	cbnz	x0, 7fc <brel+0x40>
/home/lagadanu/Desktop/qemu/optee_os/lib/libutils/isoc/bget.c:848 (discriminator 1)
     7d4:	f0000023 	adrp	x3, 7000 <mpa_init_static_fmm_context+0x38>
     7d8:	91354063 	add	x3, x3, #0xd50
     7dc:	90000041 	adrp	x1, 8000 <PRIME_TABLE+0x168>
     7e0:	90000040 	adrp	x0, 8000 <PRIME_TABLE+0x168>
     7e4:	9100a063 	add	x3, x3, #0x28
     7e8:	91369c21 	add	x1, x1, #0xda7
     7ec:	9138f000 	add	x0, x0, #0xe3c
     7f0:	52806a02 	mov	w2, #0x350                 	// #848
/home/lagadanu/Desktop/qemu/optee_os/lib/libutils/isoc/bget.c:879 (discriminator 1)
     7f4:	94000779 	bl	25d8 <_assert_log>
     7f8:	94000789 	bl	261c <_assert_break>
/home/lagadanu/Desktop/qemu/optee_os/lib/libutils/isoc/bget.c:876
     7fc:	f85f8003 	ldur	x3, [x0,#-8]
/home/lagadanu/Desktop/qemu/optee_os/lib/libutils/isoc/bget.c:879
     800:	b7f80143 	tbnz	x3, #63, 828 <brel+0x6c>
/home/lagadanu/Desktop/qemu/optee_os/lib/libutils/isoc/bget.c:879 (discriminator 1)
     804:	f0000023 	adrp	x3, 7000 <mpa_init_static_fmm_context+0x38>
     808:	91354063 	add	x3, x3, #0xd50
     80c:	90000041 	adrp	x1, 8000 <PRIME_TABLE+0x168>
     810:	90000040 	adrp	x0, 8000 <PRIME_TABLE+0x168>
     814:	9100a063 	add	x3, x3, #0x28
     818:	52806de2 	mov	w2, #0x36f                 	// #879
     81c:	91369c21 	add	x1, x1, #0xda7
     820:	91392000 	add	x0, x0, #0xe48
     824:	17fffff4 	b	7f4 <brel+0x38>
     828:	d1004002 	sub	x2, x0, #0x10
/home/lagadanu/Desktop/qemu/optee_os/lib/libutils/isoc/bget.c:885
     82c:	cb030044 	sub	x4, x2, x3
     830:	f9400084 	ldr	x4, [x4]
     834:	b4000144 	cbz	x4, 85c <brel+0xa0>
/home/lagadanu/Desktop/qemu/optee_os/lib/libutils/isoc/bget.c:885 (discriminator 1)
     838:	f0000023 	adrp	x3, 7000 <mpa_init_static_fmm_context+0x38>
     83c:	91354063 	add	x3, x3, #0xd50
     840:	90000041 	adrp	x1, 8000 <PRIME_TABLE+0x168>
     844:	90000040 	adrp	x0, 8000 <PRIME_TABLE+0x168>
     848:	9100a063 	add	x3, x3, #0x28
     84c:	52806ea2 	mov	w2, #0x375                 	// #885
     850:	91369c21 	add	x1, x1, #0xda7
     854:	91396000 	add	x0, x0, #0xe58
     858:	17ffffe7 	b	7f4 <brel+0x38>
/home/lagadanu/Desktop/qemu/optee_os/lib/libutils/isoc/bget.c:888
     85c:	f9401024 	ldr	x4, [x1,#32]
     860:	8b040064 	add	x4, x3, x4
     864:	f9001024 	str	x4, [x1,#32]
/home/lagadanu/Desktop/qemu/optee_os/lib/libutils/isoc/bget.c:889
     868:	b6f80144 	tbz	x4, #63, 890 <brel+0xd4>
/home/lagadanu/Desktop/qemu/optee_os/lib/libutils/isoc/bget.c:889 (discriminator 1)
     86c:	f0000023 	adrp	x3, 7000 <mpa_init_static_fmm_context+0x38>
     870:	91354063 	add	x3, x3, #0xd50
     874:	90000041 	adrp	x1, 8000 <PRIME_TABLE+0x168>
     878:	90000040 	adrp	x0, 8000 <PRIME_TABLE+0x168>
     87c:	9100a063 	add	x3, x3, #0x28
     880:	52806f22 	mov	w2, #0x379                 	// #889
     884:	91369c21 	add	x1, x1, #0xda7
     888:	913a1000 	add	x0, x0, #0xe84
     88c:	17ffffda 	b	7f4 <brel+0x38>
/home/lagadanu/Desktop/qemu/optee_os/lib/libutils/isoc/bget.c:894
     890:	f85f0004 	ldur	x4, [x0,#-16]
     894:	b4000424 	cbz	x4, 918 <brel+0x15c>
/home/lagadanu/Desktop/qemu/optee_os/lib/libutils/isoc/bget.c:905
     898:	cb040042 	sub	x2, x2, x4
     89c:	f9400440 	ldr	x0, [x2,#8]
     8a0:	eb00009f 	cmp	x4, x0
     8a4:	54000140 	b.eq	8cc <brel+0x110>
/home/lagadanu/Desktop/qemu/optee_os/lib/libutils/isoc/bget.c:905 (discriminator 1)
     8a8:	f0000023 	adrp	x3, 7000 <mpa_init_static_fmm_context+0x38>
     8ac:	91354063 	add	x3, x3, #0xd50
     8b0:	90000041 	adrp	x1, 8000 <PRIME_TABLE+0x168>
     8b4:	90000040 	adrp	x0, 8000 <PRIME_TABLE+0x168>
     8b8:	9100a063 	add	x3, x3, #0x28
     8bc:	52807122 	mov	w2, #0x389                 	// #905
     8c0:	91369c21 	add	x1, x1, #0xda7
     8c4:	913a6c00 	add	x0, x0, #0xe9b
     8c8:	17ffffcb 	b	7f4 <brel+0x38>
/home/lagadanu/Desktop/qemu/optee_os/lib/libutils/isoc/bget.c:907
     8cc:	cb030083 	sub	x3, x4, x3
     8d0:	f9000443 	str	x3, [x2,#8]
/home/lagadanu/Desktop/qemu/optee_os/lib/libutils/isoc/bget.c:927
     8d4:	f9400441 	ldr	x1, [x2,#8]
     8d8:	8b010040 	add	x0, x2, x1
/home/lagadanu/Desktop/qemu/optee_os/lib/libutils/isoc/bget.c:928
     8dc:	f9400403 	ldr	x3, [x0,#8]
     8e0:	f100007f 	cmp	x3, #0x0
     8e4:	540009cd 	b.le	a1c <brel+0x260>
/home/lagadanu/Desktop/qemu/optee_os/lib/libutils/isoc/bget.c:933
     8e8:	f8636804 	ldr	x4, [x0,x3]
     8ec:	eb04007f 	cmp	x3, x4
     8f0:	54000560 	b.eq	99c <brel+0x1e0>
/home/lagadanu/Desktop/qemu/optee_os/lib/libutils/isoc/bget.c:933 (discriminator 1)
     8f4:	f0000023 	adrp	x3, 7000 <mpa_init_static_fmm_context+0x38>
     8f8:	91354063 	add	x3, x3, #0xd50
     8fc:	90000041 	adrp	x1, 8000 <PRIME_TABLE+0x168>
     900:	90000040 	adrp	x0, 8000 <PRIME_TABLE+0x168>
     904:	9100a063 	add	x3, x3, #0x28
     908:	528074a2 	mov	w2, #0x3a5                 	// #933
     90c:	91369c21 	add	x1, x1, #0xda7
     910:	913b5000 	add	x0, x0, #0xed4
     914:	17ffffb8 	b	7f4 <brel+0x38>
/home/lagadanu/Desktop/qemu/optee_os/lib/libutils/isoc/bget.c:913
     918:	f9400c25 	ldr	x5, [x1,#24]
     91c:	f94008a4 	ldr	x4, [x5,#16]
     920:	eb01009f 	cmp	x4, x1
     924:	54000140 	b.eq	94c <brel+0x190>
/home/lagadanu/Desktop/qemu/optee_os/lib/libutils/isoc/bget.c:913 (discriminator 1)
     928:	f0000023 	adrp	x3, 7000 <mpa_init_static_fmm_context+0x38>
     92c:	91354063 	add	x3, x3, #0xd50
     930:	90000041 	adrp	x1, 8000 <PRIME_TABLE+0x168>
     934:	90000040 	adrp	x0, 8000 <PRIME_TABLE+0x168>
     938:	9100a063 	add	x3, x3, #0x28
     93c:	52807222 	mov	w2, #0x391                 	// #913
     940:	91369c21 	add	x1, x1, #0xda7
     944:	9134c400 	add	x0, x0, #0xd31
     948:	17ffffab 	b	7f4 <brel+0x38>
/home/lagadanu/Desktop/qemu/optee_os/lib/libutils/isoc/bget.c:914
     94c:	f9400881 	ldr	x1, [x4,#16]
     950:	f9400c21 	ldr	x1, [x1,#24]
     954:	eb01009f 	cmp	x4, x1
     958:	54000140 	b.eq	980 <brel+0x1c4>
/home/lagadanu/Desktop/qemu/optee_os/lib/libutils/isoc/bget.c:914 (discriminator 1)
     95c:	f0000023 	adrp	x3, 7000 <mpa_init_static_fmm_context+0x38>
     960:	91354063 	add	x3, x3, #0xd50
     964:	90000041 	adrp	x1, 8000 <PRIME_TABLE+0x168>
     968:	90000040 	adrp	x0, 8000 <PRIME_TABLE+0x168>
     96c:	9100a063 	add	x3, x3, #0x28
     970:	52807242 	mov	w2, #0x392                 	// #914
     974:	91369c21 	add	x1, x1, #0xda7
     978:	9135b000 	add	x0, x0, #0xd6c
     97c:	17ffff9e 	b	7f4 <brel+0x38>
/home/lagadanu/Desktop/qemu/optee_os/lib/libutils/isoc/bget.c:916
     980:	a9011444 	stp	x4, x5, [x2,#16]
/home/lagadanu/Desktop/qemu/optee_os/lib/libutils/isoc/bget.c:880
     984:	cb0303e3 	neg	x3, x3
/home/lagadanu/Desktop/qemu/optee_os/lib/libutils/isoc/bget.c:917
     988:	f9000c82 	str	x2, [x4,#24]
/home/lagadanu/Desktop/qemu/optee_os/lib/libutils/isoc/bget.c:918
     98c:	f9400c41 	ldr	x1, [x2,#24]
     990:	f9000822 	str	x2, [x1,#16]
/home/lagadanu/Desktop/qemu/optee_os/lib/libutils/isoc/bget.c:919
     994:	f81f8003 	stur	x3, [x0,#-8]
     998:	17ffffcf 	b	8d4 <brel+0x118>
/home/lagadanu/Desktop/qemu/optee_os/lib/libutils/isoc/bget.c:934
     99c:	f9400c04 	ldr	x4, [x0,#24]
     9a0:	f9400885 	ldr	x5, [x4,#16]
     9a4:	eb05001f 	cmp	x0, x5
     9a8:	54000140 	b.eq	9d0 <brel+0x214>
/home/lagadanu/Desktop/qemu/optee_os/lib/libutils/isoc/bget.c:934 (discriminator 1)
     9ac:	f0000023 	adrp	x3, 7000 <mpa_init_static_fmm_context+0x38>
     9b0:	91354063 	add	x3, x3, #0xd50
     9b4:	90000041 	adrp	x1, 8000 <PRIME_TABLE+0x168>
     9b8:	90000040 	adrp	x0, 8000 <PRIME_TABLE+0x168>
     9bc:	9100a063 	add	x3, x3, #0x28
     9c0:	528074c2 	mov	w2, #0x3a6                 	// #934
     9c4:	91369c21 	add	x1, x1, #0xda7
     9c8:	913c3400 	add	x0, x0, #0xf0d
     9cc:	17ffff8a 	b	7f4 <brel+0x38>
/home/lagadanu/Desktop/qemu/optee_os/lib/libutils/isoc/bget.c:935
     9d0:	f9400805 	ldr	x5, [x0,#16]
     9d4:	f9400ca6 	ldr	x6, [x5,#24]
     9d8:	eb06001f 	cmp	x0, x6
     9dc:	54000140 	b.eq	a04 <brel+0x248>
/home/lagadanu/Desktop/qemu/optee_os/lib/libutils/isoc/bget.c:935 (discriminator 1)
     9e0:	f0000023 	adrp	x3, 7000 <mpa_init_static_fmm_context+0x38>
     9e4:	91354063 	add	x3, x3, #0xd50
     9e8:	90000041 	adrp	x1, 8000 <PRIME_TABLE+0x168>
     9ec:	90000040 	adrp	x0, 8000 <PRIME_TABLE+0x168>
     9f0:	9100a063 	add	x3, x3, #0x28
     9f4:	528074e2 	mov	w2, #0x3a7                 	// #935
     9f8:	91369c21 	add	x1, x1, #0xda7
     9fc:	913ca800 	add	x0, x0, #0xf2a
     a00:	17ffff7d 	b	7f4 <brel+0x38>
/home/lagadanu/Desktop/qemu/optee_os/lib/libutils/isoc/bget.c:936
     a04:	f9000885 	str	x5, [x4,#16]
/home/lagadanu/Desktop/qemu/optee_os/lib/libutils/isoc/bget.c:937
     a08:	f9400800 	ldr	x0, [x0,#16]
     a0c:	f9000c04 	str	x4, [x0,#24]
/home/lagadanu/Desktop/qemu/optee_os/lib/libutils/isoc/bget.c:938
     a10:	8b030020 	add	x0, x1, x3
     a14:	f9000440 	str	x0, [x2,#8]
/home/lagadanu/Desktop/qemu/optee_os/lib/libutils/isoc/bget.c:947
     a18:	8b000040 	add	x0, x2, x0
/home/lagadanu/Desktop/qemu/optee_os/lib/libutils/isoc/bget.c:953
     a1c:	f9400401 	ldr	x1, [x0,#8]
     a20:	b7f80141 	tbnz	x1, #63, a48 <brel+0x28c>
/home/lagadanu/Desktop/qemu/optee_os/lib/libutils/isoc/bget.c:953 (discriminator 1)
     a24:	f0000023 	adrp	x3, 7000 <mpa_init_static_fmm_context+0x38>
     a28:	91354063 	add	x3, x3, #0xd50
     a2c:	90000041 	adrp	x1, 8000 <PRIME_TABLE+0x168>
     a30:	90000040 	adrp	x0, 8000 <PRIME_TABLE+0x168>
     a34:	9100a063 	add	x3, x3, #0x28
     a38:	52807722 	mov	w2, #0x3b9                 	// #953
     a3c:	91369c21 	add	x1, x1, #0xda7
     a40:	913d1c00 	add	x0, x0, #0xf47
     a44:	17ffff6c 	b	7f4 <brel+0x38>
/home/lagadanu/Desktop/qemu/optee_os/lib/libutils/isoc/bget.c:958
     a48:	f9400441 	ldr	x1, [x2,#8]
     a4c:	f9000001 	str	x1, [x0]
/home/lagadanu/Desktop/qemu/optee_os/lib/libutils/isoc/bget.c:986
     a50:	a8c17bfd 	ldp	x29, x30, [sp],#16
     a54:	d65f03c0 	ret

0000000000000a58 <bgetr>:
bgetr():
/home/lagadanu/Desktop/qemu/optee_os/lib/libutils/isoc/bget.c:800
     a58:	a9bc7bfd 	stp	x29, x30, [sp,#-64]!
     a5c:	910003fd 	mov	x29, sp
     a60:	a90153f3 	stp	x19, x20, [sp,#16]
     a64:	aa0103f4 	mov	x20, x1
     a68:	a9025bf5 	stp	x21, x22, [sp,#32]
/home/lagadanu/Desktop/qemu/optee_os/lib/libutils/isoc/bget.c:805
     a6c:	aa0203e1 	mov	x1, x2
/home/lagadanu/Desktop/qemu/optee_os/lib/libutils/isoc/bget.c:800
     a70:	f9001bf7 	str	x23, [sp,#48]
     a74:	aa0003f5 	mov	x21, x0
     a78:	aa0203f7 	mov	x23, x2
/home/lagadanu/Desktop/qemu/optee_os/lib/libutils/isoc/bget.c:805
     a7c:	aa1403e0 	mov	x0, x20
     a80:	97fffea6 	bl	518 <bget>
     a84:	aa0003f6 	mov	x22, x0
     a88:	b4000400 	cbz	x0, b08 <bgetr+0xb0>
/home/lagadanu/Desktop/qemu/optee_os/lib/libutils/isoc/bget.c:808
     a8c:	b40003f5 	cbz	x21, b08 <bgetr+0xb0>
/home/lagadanu/Desktop/qemu/optee_os/lib/libutils/isoc/bget.c:822
     a90:	f85f82a1 	ldur	x1, [x21,#-8]
     a94:	928001f3 	mov	x19, #0xfffffffffffffff0    	// #-16
     a98:	cb010273 	sub	x19, x19, x1
/home/lagadanu/Desktop/qemu/optee_os/lib/libutils/isoc/bget.c:823
     a9c:	f100027f 	cmp	x19, #0x0
     aa0:	5400016c 	b.gt	acc <bgetr+0x74>
     aa4:	f0000023 	adrp	x3, 7000 <mpa_init_static_fmm_context+0x38>
     aa8:	91354063 	add	x3, x3, #0xd50
     aac:	9100c063 	add	x3, x3, #0x30
     ab0:	90000041 	adrp	x1, 8000 <PRIME_TABLE+0x168>
     ab4:	90000040 	adrp	x0, 8000 <PRIME_TABLE+0x168>
     ab8:	91369c21 	add	x1, x1, #0xda7
     abc:	913d6000 	add	x0, x0, #0xf58
     ac0:	528066e2 	mov	w2, #0x337                 	// #823
     ac4:	940006c5 	bl	25d8 <_assert_log>
     ac8:	940006d5 	bl	261c <_assert_break>
/home/lagadanu/Desktop/qemu/optee_os/lib/libutils/isoc/bget.c:824
     acc:	eb13029f 	cmp	x20, x19
     ad0:	93407e81 	sxtw	x1, w20
     ad4:	93407e62 	sxtw	x2, w19
     ad8:	9a81a042 	csel	x2, x2, x1, ge
     adc:	aa1503e1 	mov	x1, x21
     ae0:	9400027b 	bl	14cc <memcpy>
/home/lagadanu/Desktop/qemu/optee_os/lib/libutils/isoc/bget.c:828
     ae4:	eb13029f 	cmp	x20, x19
     ae8:	540000ad 	b.le	afc <bgetr+0xa4>
/home/lagadanu/Desktop/qemu/optee_os/lib/libutils/isoc/bget.c:829
     aec:	cb130282 	sub	x2, x20, x19
     af0:	52800001 	mov	w1, #0x0                   	// #0
     af4:	8b1302c0 	add	x0, x22, x19
     af8:	9400027d 	bl	14ec <memset>
/home/lagadanu/Desktop/qemu/optee_os/lib/libutils/isoc/bget.c:831
     afc:	aa1703e1 	mov	x1, x23
     b00:	aa1503e0 	mov	x0, x21
     b04:	97ffff2e 	bl	7bc <brel>
/home/lagadanu/Desktop/qemu/optee_os/lib/libutils/isoc/bget.c:833
     b08:	aa1603e0 	mov	x0, x22
     b0c:	f9401bf7 	ldr	x23, [sp,#48]
     b10:	a94153f3 	ldp	x19, x20, [sp,#16]
     b14:	a9425bf5 	ldp	x21, x22, [sp,#32]
     b18:	a8c47bfd 	ldp	x29, x30, [sp],#64
     b1c:	d65f03c0 	ret

0000000000000b20 <bpool>:
bpool():
/home/lagadanu/Desktop/qemu/optee_os/lib/libutils/isoc/bget.c:1012
     b20:	a9bf7bfd 	stp	x29, x30, [sp,#-16]!
/home/lagadanu/Desktop/qemu/optee_os/lib/libutils/isoc/bget.c:1017
     b24:	927cec21 	and	x1, x1, #0xfffffffffffffff0
/home/lagadanu/Desktop/qemu/optee_os/lib/libutils/isoc/bget.c:1036
     b28:	f1004021 	subs	x1, x1, #0x10
/home/lagadanu/Desktop/qemu/optee_os/lib/libutils/isoc/bget.c:1012
     b2c:	910003fd 	mov	x29, sp
/home/lagadanu/Desktop/qemu/optee_os/lib/libutils/isoc/bget.c:1036
     b30:	54000165 	b.pl	b5c <bpool+0x3c>
     b34:	f0000023 	adrp	x3, 7000 <mpa_init_static_fmm_context+0x38>
     b38:	91354063 	add	x3, x3, #0xd50
     b3c:	90000041 	adrp	x1, 8000 <PRIME_TABLE+0x168>
     b40:	90000040 	adrp	x0, 8000 <PRIME_TABLE+0x168>
     b44:	9100e063 	add	x3, x3, #0x38
     b48:	91369c21 	add	x1, x1, #0xda7
     b4c:	913d8800 	add	x0, x0, #0xf62
     b50:	52808182 	mov	w2, #0x40c                 	// #1036
/home/lagadanu/Desktop/qemu/optee_os/lib/libutils/isoc/bget.c:1046 (discriminator 1)
     b54:	940006a1 	bl	25d8 <_assert_log>
     b58:	940006b1 	bl	261c <_assert_break>
/home/lagadanu/Desktop/qemu/optee_os/lib/libutils/isoc/bget.c:1046
     b5c:	f9400c44 	ldr	x4, [x2,#24]
     b60:	f9400883 	ldr	x3, [x4,#16]
/home/lagadanu/Desktop/qemu/optee_os/lib/libutils/isoc/bget.c:1042
     b64:	f900001f 	str	xzr, [x0]
/home/lagadanu/Desktop/qemu/optee_os/lib/libutils/isoc/bget.c:1046
     b68:	eb02007f 	cmp	x3, x2
     b6c:	54000140 	b.eq	b94 <bpool+0x74>
/home/lagadanu/Desktop/qemu/optee_os/lib/libutils/isoc/bget.c:1046 (discriminator 1)
     b70:	f0000023 	adrp	x3, 7000 <mpa_init_static_fmm_context+0x38>
     b74:	91354063 	add	x3, x3, #0xd50
     b78:	90000041 	adrp	x1, 8000 <PRIME_TABLE+0x168>
     b7c:	90000040 	adrp	x0, 8000 <PRIME_TABLE+0x168>
     b80:	9100e063 	add	x3, x3, #0x38
     b84:	528082c2 	mov	w2, #0x416                 	// #1046
     b88:	91369c21 	add	x1, x1, #0xda7
     b8c:	9134c400 	add	x0, x0, #0xd31
     b90:	17fffff1 	b	b54 <bpool+0x34>
/home/lagadanu/Desktop/qemu/optee_os/lib/libutils/isoc/bget.c:1047
     b94:	f9400862 	ldr	x2, [x3,#16]
     b98:	f9400c42 	ldr	x2, [x2,#24]
     b9c:	eb02007f 	cmp	x3, x2
     ba0:	54000140 	b.eq	bc8 <bpool+0xa8>
/home/lagadanu/Desktop/qemu/optee_os/lib/libutils/isoc/bget.c:1047 (discriminator 1)
     ba4:	f0000023 	adrp	x3, 7000 <mpa_init_static_fmm_context+0x38>
     ba8:	91354063 	add	x3, x3, #0xd50
     bac:	90000041 	adrp	x1, 8000 <PRIME_TABLE+0x168>
     bb0:	90000040 	adrp	x0, 8000 <PRIME_TABLE+0x168>
     bb4:	9100e063 	add	x3, x3, #0x38
     bb8:	528082e2 	mov	w2, #0x417                 	// #1047
     bbc:	91369c21 	add	x1, x1, #0xda7
     bc0:	9135b000 	add	x0, x0, #0xd6c
     bc4:	17ffffe4 	b	b54 <bpool+0x34>
/home/lagadanu/Desktop/qemu/optee_os/lib/libutils/isoc/bget.c:1049
     bc8:	a9011003 	stp	x3, x4, [x0,#16]
/home/lagadanu/Desktop/qemu/optee_os/lib/libutils/isoc/bget.c:1050
     bcc:	f9000c60 	str	x0, [x3,#24]
/home/lagadanu/Desktop/qemu/optee_os/lib/libutils/isoc/bget.c:1051
     bd0:	f9400c02 	ldr	x2, [x0,#24]
     bd4:	f9000840 	str	x0, [x2,#16]
/home/lagadanu/Desktop/qemu/optee_os/lib/libutils/isoc/bget.c:1067
     bd8:	8b010002 	add	x2, x0, x1
/home/lagadanu/Desktop/qemu/optee_os/lib/libutils/isoc/bget.c:1062
     bdc:	f9000401 	str	x1, [x0,#8]
/home/lagadanu/Desktop/qemu/optee_os/lib/libutils/isoc/bget.c:1068
     be0:	f8216801 	str	x1, [x0,x1]
/home/lagadanu/Desktop/qemu/optee_os/lib/libutils/isoc/bget.c:1071
     be4:	d2f00000 	mov	x0, #0x8000000000000000    	// #-9223372036854775808
     be8:	f9000440 	str	x0, [x2,#8]
/home/lagadanu/Desktop/qemu/optee_os/lib/libutils/isoc/bget.c:1072
     bec:	a8c17bfd 	ldp	x29, x30, [sp],#16
     bf0:	d65f03c0 	ret

0000000000000bf4 <bstats>:
bstats():
/home/lagadanu/Desktop/qemu/optee_os/lib/libutils/isoc/bget.c:1085
     bf4:	f94014a7 	ldr	x7, [x5,#40]
/home/lagadanu/Desktop/qemu/optee_os/lib/libutils/isoc/bget.c:1083
     bf8:	f94008a6 	ldr	x6, [x5,#16]
/home/lagadanu/Desktop/qemu/optee_os/lib/libutils/isoc/bget.c:1085
     bfc:	f9000067 	str	x7, [x3]
/home/lagadanu/Desktop/qemu/optee_os/lib/libutils/isoc/bget.c:1086
     c00:	f94018a3 	ldr	x3, [x5,#48]
     c04:	f9000083 	str	x3, [x4]
/home/lagadanu/Desktop/qemu/optee_os/lib/libutils/isoc/bget.c:1087
     c08:	f94010a3 	ldr	x3, [x5,#32]
     c0c:	f9000003 	str	x3, [x0]
/home/lagadanu/Desktop/qemu/optee_os/lib/libutils/isoc/bget.c:1089
     c10:	92800000 	mov	x0, #0xffffffffffffffff    	// #-1
/home/lagadanu/Desktop/qemu/optee_os/lib/libutils/isoc/bget.c:1088
     c14:	f900003f 	str	xzr, [x1]
/home/lagadanu/Desktop/qemu/optee_os/lib/libutils/isoc/bget.c:1089
     c18:	f9000040 	str	x0, [x2]
/home/lagadanu/Desktop/qemu/optee_os/lib/libutils/isoc/bget.c:1090
     c1c:	eb0500df 	cmp	x6, x5
     c20:	54000041 	b.ne	c28 <bstats+0x34>
     c24:	d65f03c0 	ret
/home/lagadanu/Desktop/qemu/optee_os/lib/libutils/isoc/bget.c:1091
     c28:	f94004c3 	ldr	x3, [x6,#8]
     c2c:	f100007f 	cmp	x3, #0x0
     c30:	540001ac 	b.gt	c64 <bstats+0x70>
/home/lagadanu/Desktop/qemu/optee_os/lib/libutils/isoc/bget.c:1091 (discriminator 1)
     c34:	f0000023 	adrp	x3, 7000 <mpa_init_static_fmm_context+0x38>
     c38:	91354063 	add	x3, x3, #0xd50
     c3c:	91010063 	add	x3, x3, #0x40
     c40:	90000041 	adrp	x1, 8000 <PRIME_TABLE+0x168>
     c44:	90000040 	adrp	x0, 8000 <PRIME_TABLE+0x168>
     c48:	91369c21 	add	x1, x1, #0xda7
     c4c:	913e5c00 	add	x0, x0, #0xf97
/home/lagadanu/Desktop/qemu/optee_os/lib/libutils/isoc/bget.c:1082 (discriminator 1)
     c50:	a9bf7bfd 	stp	x29, x30, [sp,#-16]!
/home/lagadanu/Desktop/qemu/optee_os/lib/libutils/isoc/bget.c:1091 (discriminator 1)
     c54:	52808862 	mov	w2, #0x443                 	// #1091
/home/lagadanu/Desktop/qemu/optee_os/lib/libutils/isoc/bget.c:1082 (discriminator 1)
     c58:	910003fd 	mov	x29, sp
/home/lagadanu/Desktop/qemu/optee_os/lib/libutils/isoc/bget.c:1091 (discriminator 1)
     c5c:	9400065f 	bl	25d8 <_assert_log>
     c60:	9400066f 	bl	261c <_assert_break>
/home/lagadanu/Desktop/qemu/optee_os/lib/libutils/isoc/bget.c:1092
     c64:	f9400020 	ldr	x0, [x1]
     c68:	8b030000 	add	x0, x0, x3
     c6c:	f9000020 	str	x0, [x1]
/home/lagadanu/Desktop/qemu/optee_os/lib/libutils/isoc/bget.c:1093
     c70:	f9400043 	ldr	x3, [x2]
     c74:	f94004c0 	ldr	x0, [x6,#8]
     c78:	eb03001f 	cmp	x0, x3
     c7c:	5400004d 	b.le	c84 <bstats+0x90>
/home/lagadanu/Desktop/qemu/optee_os/lib/libutils/isoc/bget.c:1094
     c80:	f9000040 	str	x0, [x2]
/home/lagadanu/Desktop/qemu/optee_os/lib/libutils/isoc/bget.c:1096
     c84:	f94008c6 	ldr	x6, [x6,#16]
     c88:	17ffffe5 	b	c1c <bstats+0x28>

0000000000000c8c <malloc_reset_stats>:
malloc_reset_stats():
/home/lagadanu/Desktop/qemu/optee_os/lib/libutils/isoc/bget_malloc.c:183
     c8c:	d0000080 	adrp	x0, 12000 <ta_heap+0x7e80>
     c90:	91060000 	add	x0, x0, #0x180
     c94:	b900241f 	str	wzr, [x0,#36]
/home/lagadanu/Desktop/qemu/optee_os/lib/libutils/isoc/bget_malloc.c:185
     c98:	2905fc1f 	stp	wzr, wzr, [x0,#44]
/home/lagadanu/Desktop/qemu/optee_os/lib/libutils/isoc/bget_malloc.c:186
     c9c:	b900341f 	str	wzr, [x0,#52]
     ca0:	d65f03c0 	ret

0000000000000ca4 <malloc_get_stats>:
malloc_get_stats():
/home/lagadanu/Desktop/qemu/optee_os/lib/libutils/isoc/bget_malloc.c:191
     ca4:	a9bf7bfd 	stp	x29, x30, [sp,#-16]!
/home/lagadanu/Desktop/qemu/optee_os/lib/libutils/isoc/bget_malloc.c:194
     ca8:	d2800702 	mov	x2, #0x38                  	// #56
     cac:	d0000081 	adrp	x1, 12000 <ta_heap+0x7e80>
     cb0:	91060021 	add	x1, x1, #0x180
/home/lagadanu/Desktop/qemu/optee_os/lib/libutils/isoc/bget_malloc.c:191
     cb4:	910003fd 	mov	x29, sp
/home/lagadanu/Desktop/qemu/optee_os/lib/libutils/isoc/bget_malloc.c:194
     cb8:	94000205 	bl	14cc <memcpy>
     cbc:	aa0003e3 	mov	x3, x0
/home/lagadanu/Desktop/qemu/optee_os/lib/libutils/isoc/bget_malloc.c:195
     cc0:	d0000040 	adrp	x0, a000 <ta_props>
     cc4:	f9406400 	ldr	x0, [x0,#200]
     cc8:	b9002060 	str	w0, [x3,#32]
/home/lagadanu/Desktop/qemu/optee_os/lib/libutils/isoc/bget_malloc.c:197
     ccc:	a8c17bfd 	ldp	x29, x30, [sp],#16
     cd0:	d65f03c0 	ret

0000000000000cd4 <malloc>:
malloc():
/home/lagadanu/Desktop/qemu/optee_os/lib/libutils/isoc/bget_malloc.c:821
     cd4:	17fffe81 	b	6d8 <raw_malloc.constprop.15>

0000000000000cd8 <free>:
raw_free():
/home/lagadanu/Desktop/qemu/optee_os/lib/libutils/isoc/bget_malloc.c:324
     cd8:	b4000080 	cbz	x0, ce8 <free+0x10>
/home/lagadanu/Desktop/qemu/optee_os/lib/libutils/isoc/bget_malloc.c:325
     cdc:	d0000041 	adrp	x1, a000 <ta_props>
     ce0:	9102a021 	add	x1, x1, #0xa8
     ce4:	17fffeb6 	b	7bc <brel>
     ce8:	d65f03c0 	ret

0000000000000cec <calloc>:
calloc():
/home/lagadanu/Desktop/qemu/optee_os/lib/libutils/isoc/bget_malloc.c:835
     cec:	a9bd7bfd 	stp	x29, x30, [sp,#-48]!
     cf0:	910003fd 	mov	x29, sp
     cf4:	a90153f3 	stp	x19, x20, [sp,#16]
raw_calloc():
/home/lagadanu/Desktop/qemu/optee_os/lib/libutils/isoc/bget_malloc.c:337
     cf8:	9b017c13 	mul	x19, x0, x1
     cfc:	9bc17c01 	umulh	x1, x0, x1
calloc():
/home/lagadanu/Desktop/qemu/optee_os/lib/libutils/isoc/bget_malloc.c:835
     d00:	f90013f5 	str	x21, [sp,#32]
raw_calloc():
/home/lagadanu/Desktop/qemu/optee_os/lib/libutils/isoc/bget_malloc.c:337
     d04:	d2800020 	mov	x0, #0x1                   	// #1
     d08:	d0000054 	adrp	x20, a000 <ta_props>
     d0c:	f100003f 	cmp	x1, #0x0
/home/lagadanu/Desktop/qemu/optee_os/lib/libutils/isoc/bget_malloc.c:331
     d10:	d2800015 	mov	x21, #0x0                   	// #0
/home/lagadanu/Desktop/qemu/optee_os/lib/libutils/isoc/bget_malloc.c:337
     d14:	9a9f07e1 	cset	x1, ne
     d18:	f100027f 	cmp	x19, #0x0
     d1c:	9a80a021 	csel	x1, x1, x0, ge
     d20:	b50000a1 	cbnz	x1, d34 <calloc+0x48>
/home/lagadanu/Desktop/qemu/optee_os/lib/libutils/isoc/bget_malloc.c:348
     d24:	9102a281 	add	x1, x20, #0xa8
     d28:	9a801260 	csel	x0, x19, x0, ne
     d2c:	97fffe82 	bl	734 <bgetz>
     d30:	aa0003f5 	mov	x21, x0
/home/lagadanu/Desktop/qemu/optee_os/lib/libutils/isoc/bget_malloc.c:350
     d34:	9102a294 	add	x20, x20, #0xa8
     d38:	aa1303e1 	mov	x1, x19
     d3c:	aa1503e0 	mov	x0, x21
     d40:	f9401282 	ldr	x2, [x20,#32]
     d44:	97fffda1 	bl	3c8 <raw_malloc_return_hook.isra.3>
calloc():
/home/lagadanu/Desktop/qemu/optee_os/lib/libutils/isoc/bget_malloc.c:842
     d48:	aa1503e0 	mov	x0, x21
     d4c:	f94013f5 	ldr	x21, [sp,#32]
     d50:	a94153f3 	ldp	x19, x20, [sp,#16]
     d54:	a8c37bfd 	ldp	x29, x30, [sp],#48
     d58:	d65f03c0 	ret

0000000000000d5c <realloc>:
realloc():
/home/lagadanu/Desktop/qemu/optee_os/lib/libutils/isoc/bget_malloc.c:850
     d5c:	a9bd7bfd 	stp	x29, x30, [sp,#-48]!
     d60:	910003fd 	mov	x29, sp
     d64:	a90153f3 	stp	x19, x20, [sp,#16]
     d68:	aa0103f3 	mov	x19, x1
     d6c:	f90013f5 	str	x21, [sp,#32]
     d70:	d0000054 	adrp	x20, a000 <ta_props>
raw_realloc():
/home/lagadanu/Desktop/qemu/optee_os/lib/libutils/isoc/bget_malloc.c:358
     d74:	d2800015 	mov	x21, #0x0                   	// #0
/home/lagadanu/Desktop/qemu/optee_os/lib/libutils/isoc/bget_malloc.c:362
     d78:	b7f800c1 	tbnz	x1, #63, d90 <realloc+0x34>
/home/lagadanu/Desktop/qemu/optee_os/lib/libutils/isoc/bget_malloc.c:371
     d7c:	f100003f 	cmp	x1, #0x0
/home/lagadanu/Desktop/qemu/optee_os/lib/libutils/isoc/bget_malloc.c:373
     d80:	9102a282 	add	x2, x20, #0xa8
     d84:	9a9f1421 	csinc	x1, x1, xzr, ne
     d88:	97ffff34 	bl	a58 <bgetr>
     d8c:	aa0003f5 	mov	x21, x0
/home/lagadanu/Desktop/qemu/optee_os/lib/libutils/isoc/bget_malloc.c:375
     d90:	9102a294 	add	x20, x20, #0xa8
     d94:	aa1303e1 	mov	x1, x19
     d98:	aa1503e0 	mov	x0, x21
     d9c:	f9401282 	ldr	x2, [x20,#32]
     da0:	97fffd8a 	bl	3c8 <raw_malloc_return_hook.isra.3>
realloc():
/home/lagadanu/Desktop/qemu/optee_os/lib/libutils/isoc/bget_malloc.c:857
     da4:	aa1503e0 	mov	x0, x21
     da8:	f94013f5 	ldr	x21, [sp,#32]
     dac:	a94153f3 	ldp	x19, x20, [sp,#16]
     db0:	a8c37bfd 	ldp	x29, x30, [sp],#48
     db4:	d65f03c0 	ret

0000000000000db8 <memalign>:
memalign():
/home/lagadanu/Desktop/qemu/optee_os/lib/libutils/isoc/bget_malloc.c:860
     db8:	a9bc7bfd 	stp	x29, x30, [sp,#-64]!
     dbc:	910003fd 	mov	x29, sp
     dc0:	a90153f3 	stp	x19, x20, [sp,#16]
     dc4:	aa0003f4 	mov	x20, x0
     dc8:	a9025bf5 	stp	x21, x22, [sp,#32]
     dcc:	f9001bf7 	str	x23, [sp,#48]
raw_memalign():
/home/lagadanu/Desktop/qemu/optee_os/lib/libutils/isoc/bget_malloc.c:535
     dd0:	b4001c40 	cbz	x0, 1158 <memalign+0x3a0>
     dd4:	cb0003f3 	neg	x19, x0
     dd8:	ea33001f 	bics	xzr, x0, x19
     ddc:	54001be1 	b.ne	1158 <memalign+0x3a0>
     de0:	aa0103e0 	mov	x0, x1
/home/lagadanu/Desktop/qemu/optee_os/lib/libutils/isoc/bget_malloc.c:542
     de4:	f100429f 	cmp	x20, #0x10
     de8:	540000c8 	b.hi	e00 <memalign+0x48>
memalign():
/home/lagadanu/Desktop/qemu/optee_os/lib/libutils/isoc/bget_malloc.c:867
     dec:	a94153f3 	ldp	x19, x20, [sp,#16]
     df0:	a9425bf5 	ldp	x21, x22, [sp,#32]
     df4:	f9401bf7 	ldr	x23, [sp,#48]
     df8:	a8c47bfd 	ldp	x29, x30, [sp],#64
raw_memalign():
/home/lagadanu/Desktop/qemu/optee_os/lib/libutils/isoc/bget_malloc.c:543
     dfc:	17fffe37 	b	6d8 <raw_malloc.constprop.15>
/home/lagadanu/Desktop/qemu/optee_os/lib/libutils/isoc/bget_malloc.c:545
     e00:	91008037 	add	x23, x1, #0x20
     e04:	8b1402f7 	add	x23, x23, x20
/home/lagadanu/Desktop/qemu/optee_os/lib/libutils/isoc/bget_malloc.c:549
     e08:	eb17029f 	cmp	x20, x23
     e0c:	fa579022 	ccmp	x1, x23, #0x2, ls
     e10:	54001a48 	b.hi	1158 <memalign+0x3a0>
     e14:	aa0103f5 	mov	x21, x1
/home/lagadanu/Desktop/qemu/optee_os/lib/libutils/isoc/bget_malloc.c:552
     e18:	d0000056 	adrp	x22, a000 <ta_props>
     e1c:	9102a2c1 	add	x1, x22, #0xa8
     e20:	aa1703e0 	mov	x0, x23
     e24:	97fffdbd 	bl	518 <bget>
     e28:	aa0003e1 	mov	x1, x0
/home/lagadanu/Desktop/qemu/optee_os/lib/libutils/isoc/bget_malloc.c:553
     e2c:	b40017e0 	cbz	x0, 1128 <memalign+0x370>
/home/lagadanu/Desktop/qemu/optee_os/lib/libutils/isoc/bget_malloc.c:556
     e30:	d1000680 	sub	x0, x20, #0x1
     e34:	ea00003f 	tst	x1, x0
     e38:	54000a80 	b.eq	f88 <memalign+0x1d0>
/home/lagadanu/Desktop/qemu/optee_os/lib/libutils/isoc/bget_malloc.c:569
     e3c:	8b010280 	add	x0, x20, x1
/home/lagadanu/Desktop/qemu/optee_os/lib/libutils/isoc/bget_malloc.c:574
     e40:	8b170037 	add	x23, x1, x23
/home/lagadanu/Desktop/qemu/optee_os/lib/libutils/isoc/bget_malloc.c:570
     e44:	8a000273 	and	x19, x19, x0
/home/lagadanu/Desktop/qemu/optee_os/lib/libutils/isoc/bget_malloc.c:572
     e48:	cb010260 	sub	x0, x19, x1
/home/lagadanu/Desktop/qemu/optee_os/lib/libutils/isoc/bget_malloc.c:573
     e4c:	8b140262 	add	x2, x19, x20
     e50:	f1007c1f 	cmp	x0, #0x1f
     e54:	9a939053 	csel	x19, x2, x19, ls
/home/lagadanu/Desktop/qemu/optee_os/lib/libutils/isoc/bget_malloc.c:574
     e58:	8b1302a0 	add	x0, x21, x19
     e5c:	eb17001f 	cmp	x0, x23
     e60:	54000169 	b.ls	e8c <memalign+0xd4>
     e64:	f0000023 	adrp	x3, 7000 <mpa_init_static_fmm_context+0x38>
     e68:	91354063 	add	x3, x3, #0xd50
     e6c:	90000041 	adrp	x1, 8000 <PRIME_TABLE+0x168>
     e70:	90000040 	adrp	x0, 8000 <PRIME_TABLE+0x168>
     e74:	91012063 	add	x3, x3, #0x48
     e78:	91335421 	add	x1, x1, #0xcd5
     e7c:	913e9c00 	add	x0, x0, #0xfa7
     e80:	528047c2 	mov	w2, #0x23e                 	// #574
brel_before():
/home/lagadanu/Desktop/qemu/optee_os/lib/libutils/isoc/bget_malloc.c:411
     e84:	940005d5 	bl	25d8 <_assert_log>
     e88:	940005e5 	bl	261c <_assert_break>
     e8c:	eb13003f 	cmp	x1, x19
     e90:	54000143 	b.cc	eb8 <memalign+0x100>
     e94:	f0000023 	adrp	x3, 7000 <mpa_init_static_fmm_context+0x38>
     e98:	91354063 	add	x3, x3, #0xd50
     e9c:	90000041 	adrp	x1, 8000 <PRIME_TABLE+0x168>
     ea0:	90000040 	adrp	x0, 8000 <PRIME_TABLE+0x168>
     ea4:	91016063 	add	x3, x3, #0x58
     ea8:	52803362 	mov	w2, #0x19b                 	// #411
     eac:	91335421 	add	x1, x1, #0xcd5
     eb0:	913f4c00 	add	x0, x0, #0xfd3
     eb4:	17fffff4 	b	e84 <memalign+0xcc>
/home/lagadanu/Desktop/qemu/optee_os/lib/libutils/isoc/bget_malloc.c:413
     eb8:	cb010274 	sub	x20, x19, x1
/home/lagadanu/Desktop/qemu/optee_os/lib/libutils/isoc/bget_malloc.c:414
     ebc:	f1007e9f 	cmp	x20, #0x1f
     ec0:	54000148 	b.hi	ee8 <memalign+0x130>
     ec4:	f0000023 	adrp	x3, 7000 <mpa_init_static_fmm_context+0x38>
     ec8:	91354063 	add	x3, x3, #0xd50
     ecc:	90000041 	adrp	x1, 8000 <PRIME_TABLE+0x168>
     ed0:	90000040 	adrp	x0, 8000 <PRIME_TABLE+0x168>
     ed4:	91016063 	add	x3, x3, #0x58
     ed8:	528033c2 	mov	w2, #0x19e                 	// #414
     edc:	91335421 	add	x1, x1, #0xcd5
     ee0:	913f9800 	add	x0, x0, #0xfe6
     ee4:	17ffffe8 	b	e84 <memalign+0xcc>
/home/lagadanu/Desktop/qemu/optee_os/lib/libutils/isoc/bget_malloc.c:418
     ee8:	f85f8022 	ldur	x2, [x1,#-8]
/home/lagadanu/Desktop/qemu/optee_os/lib/libutils/isoc/bget_malloc.c:417
     eec:	d1004020 	sub	x0, x1, #0x10
/home/lagadanu/Desktop/qemu/optee_os/lib/libutils/isoc/bget_malloc.c:423
     ef0:	f85f0021 	ldur	x1, [x1,#-16]
     ef4:	8b020282 	add	x2, x20, x2
     ef8:	b40003e1 	cbz	x1, f74 <memalign+0x1bc>
/home/lagadanu/Desktop/qemu/optee_os/lib/libutils/isoc/bget_malloc.c:428
     efc:	cb010000 	sub	x0, x0, x1
/home/lagadanu/Desktop/qemu/optee_os/lib/libutils/isoc/bget_malloc.c:429
     f00:	f9400403 	ldr	x3, [x0,#8]
     f04:	eb03003f 	cmp	x1, x3
     f08:	54000140 	b.eq	f30 <memalign+0x178>
     f0c:	f0000023 	adrp	x3, 7000 <mpa_init_static_fmm_context+0x38>
     f10:	91354063 	add	x3, x3, #0xd50
     f14:	90000041 	adrp	x1, 8000 <PRIME_TABLE+0x168>
     f18:	b0000040 	adrp	x0, 9000 <__func__.3181+0x410>
     f1c:	91016063 	add	x3, x3, #0x58
     f20:	528035a2 	mov	w2, #0x1ad                 	// #429
     f24:	91335421 	add	x1, x1, #0xcd5
     f28:	91003400 	add	x0, x0, #0xd
     f2c:	17ffffd6 	b	e84 <memalign+0xcc>
/home/lagadanu/Desktop/qemu/optee_os/lib/libutils/isoc/bget_malloc.c:430
     f30:	8b010281 	add	x1, x20, x1
     f34:	f9000401 	str	x1, [x0,#8]
/home/lagadanu/Desktop/qemu/optee_os/lib/libutils/isoc/bget_malloc.c:435
     f38:	a93f0a61 	stp	x1, x2, [x19,#-16]
/home/lagadanu/Desktop/qemu/optee_os/lib/libutils/isoc/bget_malloc.c:449
     f3c:	9102a2c1 	add	x1, x22, #0xa8
     f40:	f9401020 	ldr	x0, [x1,#32]
     f44:	cb140014 	sub	x20, x0, x20
     f48:	f9001034 	str	x20, [x1,#32]
/home/lagadanu/Desktop/qemu/optee_os/lib/libutils/isoc/bget_malloc.c:450
     f4c:	b6f80214 	tbz	x20, #63, f8c <memalign+0x1d4>
     f50:	f0000023 	adrp	x3, 7000 <mpa_init_static_fmm_context+0x38>
     f54:	91354063 	add	x3, x3, #0xd50
     f58:	91016063 	add	x3, x3, #0x58
     f5c:	52803842 	mov	w2, #0x1c2                 	// #450
brel_after():
/home/lagadanu/Desktop/qemu/optee_os/lib/libutils/isoc/bget_malloc.c:522
     f60:	90000041 	adrp	x1, 8000 <PRIME_TABLE+0x168>
     f64:	90000040 	adrp	x0, 8000 <PRIME_TABLE+0x168>
     f68:	91335421 	add	x1, x1, #0xcd5
     f6c:	913a1000 	add	x0, x0, #0xe84
     f70:	17ffffc5 	b	e84 <memalign+0xcc>
brel_before():
/home/lagadanu/Desktop/qemu/optee_os/lib/libutils/isoc/bget_malloc.c:443
     f74:	f81f8262 	stur	x2, [x19,#-8]
/home/lagadanu/Desktop/qemu/optee_os/lib/libutils/isoc/bget_malloc.c:445
     f78:	aa1403e1 	mov	x1, x20
     f7c:	d1004262 	sub	x2, x19, #0x10
     f80:	97fffd22 	bl	408 <create_free_block.constprop.11>
     f84:	17ffffee 	b	f3c <memalign+0x184>
raw_memalign():
/home/lagadanu/Desktop/qemu/optee_os/lib/libutils/isoc/bget_malloc.c:556
     f88:	aa0103f3 	mov	x19, x1
brel_after():
/home/lagadanu/Desktop/qemu/optee_os/lib/libutils/isoc/bget_malloc.c:466
     f8c:	f10042bf 	cmp	x21, #0x10
     f90:	d2800200 	mov	x0, #0x10                  	// #16
     f94:	9a8022a0 	csel	x0, x21, x0, cs
/home/lagadanu/Desktop/qemu/optee_os/lib/libutils/isoc/bget_malloc.c:470
     f98:	f85f8262 	ldur	x2, [x19,#-8]
/home/lagadanu/Desktop/qemu/optee_os/lib/libutils/isoc/bget_malloc.c:466
     f9c:	91003c00 	add	x0, x0, #0xf
/home/lagadanu/Desktop/qemu/optee_os/lib/libutils/isoc/bget_malloc.c:470
     fa0:	d1004264 	sub	x4, x19, #0x10
/home/lagadanu/Desktop/qemu/optee_os/lib/libutils/isoc/bget_malloc.c:466
     fa4:	927cec00 	and	x0, x0, #0xfffffffffffffff0
/home/lagadanu/Desktop/qemu/optee_os/lib/libutils/isoc/bget_malloc.c:470
     fa8:	cb0203f4 	neg	x20, x2
/home/lagadanu/Desktop/qemu/optee_os/lib/libutils/isoc/bget_malloc.c:469
     fac:	91004001 	add	x1, x0, #0x10
/home/lagadanu/Desktop/qemu/optee_os/lib/libutils/isoc/bget_malloc.c:470
     fb0:	eb14003f 	cmp	x1, x20
     fb4:	5400014d 	b.le	fdc <memalign+0x224>
     fb8:	f0000023 	adrp	x3, 7000 <mpa_init_static_fmm_context+0x38>
     fbc:	91354063 	add	x3, x3, #0xd50
     fc0:	90000041 	adrp	x1, 8000 <PRIME_TABLE+0x168>
     fc4:	b0000040 	adrp	x0, 9000 <__func__.3181+0x410>
     fc8:	9101a063 	add	x3, x3, #0x68
     fcc:	52803ac2 	mov	w2, #0x1d6                 	// #470
     fd0:	91335421 	add	x1, x1, #0xcd5
     fd4:	9100b800 	add	x0, x0, #0x2e
     fd8:	17ffffab 	b	e84 <memalign+0xcc>
/home/lagadanu/Desktop/qemu/optee_os/lib/libutils/isoc/bget_malloc.c:476
     fdc:	cb010294 	sub	x20, x20, x1
/home/lagadanu/Desktop/qemu/optee_os/lib/libutils/isoc/bget_malloc.c:477
     fe0:	f1007e9f 	cmp	x20, #0x1f
     fe4:	54000a4d 	b.le	112c <memalign+0x374>
/home/lagadanu/Desktop/qemu/optee_os/lib/libutils/isoc/bget_malloc.c:480
     fe8:	928001e3 	mov	x3, #0xfffffffffffffff0    	// #-16
     fec:	cb020063 	sub	x3, x3, x2
     ff0:	8b030262 	add	x2, x19, x3
/home/lagadanu/Desktop/qemu/optee_os/lib/libutils/isoc/bget_malloc.c:484
     ff4:	cb0103e1 	neg	x1, x1
     ff8:	f9000481 	str	x1, [x4,#8]
     ffc:	8b000260 	add	x0, x19, x0
/home/lagadanu/Desktop/qemu/optee_os/lib/libutils/isoc/bget_malloc.c:485
    1000:	f9400441 	ldr	x1, [x2,#8]
    1004:	f100003f 	cmp	x1, #0x0
    1008:	540008ad 	b.le	111c <memalign+0x364>
/home/lagadanu/Desktop/qemu/optee_os/lib/libutils/isoc/bget_malloc.c:491
    100c:	f8636a63 	ldr	x3, [x19,x3]
    1010:	b4000143 	cbz	x3, 1038 <memalign+0x280>
    1014:	d0000023 	adrp	x3, 7000 <mpa_init_static_fmm_context+0x38>
    1018:	91354063 	add	x3, x3, #0xd50
    101c:	f0000021 	adrp	x1, 8000 <PRIME_TABLE+0x168>
    1020:	90000040 	adrp	x0, 9000 <__func__.3181+0x410>
    1024:	9101a063 	add	x3, x3, #0x68
    1028:	52803d62 	mov	w2, #0x1eb                 	// #491
    102c:	91335421 	add	x1, x1, #0xcd5
    1030:	91011000 	add	x0, x0, #0x44
    1034:	17ffff94 	b	e84 <memalign+0xcc>
/home/lagadanu/Desktop/qemu/optee_os/lib/libutils/isoc/bget_malloc.c:492
    1038:	f8616843 	ldr	x3, [x2,x1]
    103c:	eb03003f 	cmp	x1, x3
    1040:	54000140 	b.eq	1068 <memalign+0x2b0>
    1044:	d0000023 	adrp	x3, 7000 <mpa_init_static_fmm_context+0x38>
    1048:	91354063 	add	x3, x3, #0xd50
    104c:	f0000021 	adrp	x1, 8000 <PRIME_TABLE+0x168>
    1050:	90000040 	adrp	x0, 9000 <__func__.3181+0x410>
    1054:	9101a063 	add	x3, x3, #0x68
    1058:	52803d82 	mov	w2, #0x1ec                 	// #492
    105c:	91335421 	add	x1, x1, #0xcd5
    1060:	91016800 	add	x0, x0, #0x5a
    1064:	17ffff88 	b	e84 <memalign+0xcc>
/home/lagadanu/Desktop/qemu/optee_os/lib/libutils/isoc/bget_malloc.c:496
    1068:	8b010283 	add	x3, x20, x1
    106c:	a9000c1f 	stp	xzr, x3, [x0]
/home/lagadanu/Desktop/qemu/optee_os/lib/libutils/isoc/bget_malloc.c:499
    1070:	f8616843 	ldr	x3, [x2,x1]
    1074:	8b140063 	add	x3, x3, x20
    1078:	f8216843 	str	x3, [x2,x1]
/home/lagadanu/Desktop/qemu/optee_os/lib/libutils/isoc/bget_malloc.c:505
    107c:	f9400c41 	ldr	x1, [x2,#24]
    1080:	f9400823 	ldr	x3, [x1,#16]
    1084:	eb03005f 	cmp	x2, x3
    1088:	54000140 	b.eq	10b0 <memalign+0x2f8>
    108c:	d0000023 	adrp	x3, 7000 <mpa_init_static_fmm_context+0x38>
    1090:	91354063 	add	x3, x3, #0xd50
    1094:	f0000021 	adrp	x1, 8000 <PRIME_TABLE+0x168>
    1098:	90000040 	adrp	x0, 9000 <__func__.3181+0x410>
    109c:	9101a063 	add	x3, x3, #0x68
    10a0:	52803f22 	mov	w2, #0x1f9                 	// #505
    10a4:	91335421 	add	x1, x1, #0xcd5
    10a8:	9101e400 	add	x0, x0, #0x79
    10ac:	17ffff76 	b	e84 <memalign+0xcc>
/home/lagadanu/Desktop/qemu/optee_os/lib/libutils/isoc/bget_malloc.c:506
    10b0:	f9400843 	ldr	x3, [x2,#16]
    10b4:	f9400c64 	ldr	x4, [x3,#24]
    10b8:	eb04005f 	cmp	x2, x4
    10bc:	54000140 	b.eq	10e4 <memalign+0x32c>
    10c0:	d0000023 	adrp	x3, 7000 <mpa_init_static_fmm_context+0x38>
    10c4:	91354063 	add	x3, x3, #0xd50
    10c8:	f0000021 	adrp	x1, 8000 <PRIME_TABLE+0x168>
    10cc:	90000040 	adrp	x0, 9000 <__func__.3181+0x410>
    10d0:	9101a063 	add	x3, x3, #0x68
    10d4:	52803f42 	mov	w2, #0x1fa                 	// #506
    10d8:	91335421 	add	x1, x1, #0xcd5
    10dc:	91026000 	add	x0, x0, #0x98
    10e0:	17ffff69 	b	e84 <memalign+0xcc>
/home/lagadanu/Desktop/qemu/optee_os/lib/libutils/isoc/bget_malloc.c:509
    10e4:	a9010403 	stp	x3, x1, [x0,#16]
/home/lagadanu/Desktop/qemu/optee_os/lib/libutils/isoc/bget_malloc.c:513
    10e8:	f9000820 	str	x0, [x1,#16]
/home/lagadanu/Desktop/qemu/optee_os/lib/libutils/isoc/bget_malloc.c:514
    10ec:	f9400801 	ldr	x1, [x0,#16]
    10f0:	f9000c20 	str	x0, [x1,#24]
/home/lagadanu/Desktop/qemu/optee_os/lib/libutils/isoc/bget_malloc.c:521
    10f4:	9102a2c1 	add	x1, x22, #0xa8
    10f8:	f9401020 	ldr	x0, [x1,#32]
    10fc:	cb140014 	sub	x20, x0, x20
    1100:	f9001034 	str	x20, [x1,#32]
/home/lagadanu/Desktop/qemu/optee_os/lib/libutils/isoc/bget_malloc.c:522
    1104:	b6f80154 	tbz	x20, #63, 112c <memalign+0x374>
    1108:	d0000023 	adrp	x3, 7000 <mpa_init_static_fmm_context+0x38>
    110c:	91354063 	add	x3, x3, #0xd50
    1110:	9101a063 	add	x3, x3, #0x68
    1114:	52804142 	mov	w2, #0x20a                 	// #522
    1118:	17ffff92 	b	f60 <memalign+0x1a8>
/home/lagadanu/Desktop/qemu/optee_os/lib/libutils/isoc/bget_malloc.c:517
    111c:	aa1403e1 	mov	x1, x20
    1120:	97fffcba 	bl	408 <create_free_block.constprop.11>
    1124:	17fffff4 	b	10f4 <memalign+0x33c>
raw_memalign():
/home/lagadanu/Desktop/qemu/optee_os/lib/libutils/isoc/bget_malloc.c:553
    1128:	d2800013 	mov	x19, #0x0                   	// #0
/home/lagadanu/Desktop/qemu/optee_os/lib/libutils/isoc/bget_malloc.c:589
    112c:	9102a2d6 	add	x22, x22, #0xa8
    1130:	aa1503e1 	mov	x1, x21
    1134:	aa1303e0 	mov	x0, x19
    1138:	f94012c2 	ldr	x2, [x22,#32]
    113c:	97fffca3 	bl	3c8 <raw_malloc_return_hook.isra.3>
memalign():
/home/lagadanu/Desktop/qemu/optee_os/lib/libutils/isoc/bget_malloc.c:867
    1140:	aa1303e0 	mov	x0, x19
    1144:	f9401bf7 	ldr	x23, [sp,#48]
    1148:	a94153f3 	ldp	x19, x20, [sp,#16]
    114c:	a9425bf5 	ldp	x21, x22, [sp,#32]
    1150:	a8c47bfd 	ldp	x29, x30, [sp],#64
    1154:	d65f03c0 	ret
raw_memalign():
/home/lagadanu/Desktop/qemu/optee_os/lib/libutils/isoc/bget_malloc.c:536
    1158:	d2800013 	mov	x19, #0x0                   	// #0
memalign():
/home/lagadanu/Desktop/qemu/optee_os/lib/libutils/isoc/bget_malloc.c:866
    115c:	17fffff9 	b	1140 <memalign+0x388>

0000000000001160 <malloc_add_pool>:
malloc_add_pool():
/home/lagadanu/Desktop/qemu/optee_os/lib/libutils/isoc/bget_malloc.c:878
    1160:	a9bb7bfd 	stp	x29, x30, [sp,#-80]!
    1164:	910003fd 	mov	x29, sp
    1168:	a90153f3 	stp	x19, x20, [sp,#16]
/home/lagadanu/Desktop/qemu/optee_os/lib/libutils/isoc/bget_malloc.c:883
    116c:	8b010014 	add	x20, x0, x1
/home/lagadanu/Desktop/qemu/optee_os/lib/libutils/isoc/bget_malloc.c:878
    1170:	a9025bf5 	stp	x21, x22, [sp,#32]
/home/lagadanu/Desktop/qemu/optee_os/lib/libutils/isoc/bget_malloc.c:889
    1174:	91003c00 	add	x0, x0, #0xf
/home/lagadanu/Desktop/qemu/optee_os/lib/libutils/isoc/bget_malloc.c:878
    1178:	a90363f7 	stp	x23, x24, [sp,#48]
/home/lagadanu/Desktop/qemu/optee_os/lib/libutils/isoc/bget_malloc.c:889
    117c:	927cec15 	and	x21, x0, #0xfffffffffffffff0
/home/lagadanu/Desktop/qemu/optee_os/lib/libutils/isoc/bget_malloc.c:878
    1180:	a9046bf9 	stp	x25, x26, [sp,#64]
/home/lagadanu/Desktop/qemu/optee_os/lib/libutils/isoc/bget_malloc.c:890
    1184:	927cee94 	and	x20, x20, #0xfffffffffffffff0
/home/lagadanu/Desktop/qemu/optee_os/lib/libutils/isoc/bget_malloc.c:891
    1188:	eb1402bf 	cmp	x21, x20
    118c:	54000163 	b.cc	11b8 <malloc_add_pool+0x58>
/home/lagadanu/Desktop/qemu/optee_os/lib/libutils/isoc/bget_malloc.c:891 (discriminator 1)
    1190:	d0000023 	adrp	x3, 7000 <mpa_init_static_fmm_context+0x38>
    1194:	91354063 	add	x3, x3, #0xd50
    1198:	f0000021 	adrp	x1, 8000 <PRIME_TABLE+0x168>
    119c:	90000040 	adrp	x0, 9000 <__func__.3181+0x410>
    11a0:	9101e063 	add	x3, x3, #0x78
    11a4:	91335421 	add	x1, x1, #0xcd5
    11a8:	9102dc00 	add	x0, x0, #0xb7
    11ac:	52806f62 	mov	w2, #0x37b                 	// #891
/home/lagadanu/Desktop/qemu/optee_os/lib/libutils/isoc/bget_malloc.c:904 (discriminator 1)
    11b0:	9400050a 	bl	25d8 <_assert_log>
    11b4:	9400051a 	bl	261c <_assert_break>
/home/lagadanu/Desktop/qemu/optee_os/lib/libutils/isoc/bget_malloc.c:893
    11b8:	cb150294 	sub	x20, x20, x21
    11bc:	f100be9f 	cmp	x20, #0x2f
    11c0:	540005c9 	b.ls	1278 <malloc_add_pool+0x118>
/home/lagadanu/Desktop/qemu/optee_os/lib/libutils/isoc/bget_malloc.c:901
    11c4:	b0000056 	adrp	x22, a000 <ta_props>
    11c8:	9102a2d9 	add	x25, x22, #0xa8
    11cc:	aa1503e0 	mov	x0, x21
    11d0:	aa1903e2 	mov	x2, x25
    11d4:	aa1403e1 	mov	x1, x20
    11d8:	97fffe52 	bl	b20 <bpool>
/home/lagadanu/Desktop/qemu/optee_os/lib/libutils/isoc/bget_malloc.c:902
    11dc:	b0000080 	adrp	x0, 12000 <ta_heap+0x7e80>
    11e0:	91060003 	add	x3, x0, #0x180
    11e4:	aa0003f3 	mov	x19, x0
raw_realloc():
/home/lagadanu/Desktop/qemu/optee_os/lib/libutils/isoc/bget_malloc.c:358
    11e8:	d280001a 	mov	x26, #0x0                   	// #0
malloc_add_pool():
/home/lagadanu/Desktop/qemu/optee_os/lib/libutils/isoc/bget_malloc.c:902
    11ec:	f9401c77 	ldr	x23, [x3,#56]
    11f0:	910006f7 	add	x23, x23, #0x1
/home/lagadanu/Desktop/qemu/optee_os/lib/libutils/isoc/bget_malloc.c:903
    11f4:	d37ceef8 	lsl	x24, x23, #4
raw_realloc():
/home/lagadanu/Desktop/qemu/optee_os/lib/libutils/isoc/bget_malloc.c:362
    11f8:	b7f800f8 	tbnz	x24, #63, 1214 <malloc_add_pool+0xb4>
/home/lagadanu/Desktop/qemu/optee_os/lib/libutils/isoc/bget_malloc.c:373
    11fc:	f9402060 	ldr	x0, [x3,#64]
/home/lagadanu/Desktop/qemu/optee_os/lib/libutils/isoc/bget_malloc.c:371
    1200:	f100031f 	cmp	x24, #0x0
/home/lagadanu/Desktop/qemu/optee_os/lib/libutils/isoc/bget_malloc.c:373
    1204:	aa1903e2 	mov	x2, x25
    1208:	9a9f1701 	csinc	x1, x24, xzr, ne
    120c:	97fffe13 	bl	a58 <bgetr>
    1210:	aa0003fa 	mov	x26, x0
/home/lagadanu/Desktop/qemu/optee_os/lib/libutils/isoc/bget_malloc.c:375
    1214:	9102a2d6 	add	x22, x22, #0xa8
    1218:	aa1803e1 	mov	x1, x24
    121c:	aa1a03e0 	mov	x0, x26
    1220:	f94012c2 	ldr	x2, [x22,#32]
    1224:	97fffc69 	bl	3c8 <raw_malloc_return_hook.isra.3>
malloc_add_pool():
/home/lagadanu/Desktop/qemu/optee_os/lib/libutils/isoc/bget_malloc.c:904
    1228:	b500015a 	cbnz	x26, 1250 <malloc_add_pool+0xf0>
/home/lagadanu/Desktop/qemu/optee_os/lib/libutils/isoc/bget_malloc.c:904 (discriminator 1)
    122c:	d0000023 	adrp	x3, 7000 <mpa_init_static_fmm_context+0x38>
    1230:	91354063 	add	x3, x3, #0xd50
    1234:	f0000021 	adrp	x1, 8000 <PRIME_TABLE+0x168>
    1238:	90000040 	adrp	x0, 9000 <__func__.3181+0x410>
    123c:	9101e063 	add	x3, x3, #0x78
    1240:	52807102 	mov	w2, #0x388                 	// #904
    1244:	91335421 	add	x1, x1, #0xcd5
    1248:	91030c00 	add	x0, x0, #0xc3
    124c:	17ffffd9 	b	11b0 <malloc_add_pool+0x50>
/home/lagadanu/Desktop/qemu/optee_os/lib/libutils/isoc/bget_malloc.c:905
    1250:	91060260 	add	x0, x19, #0x180
/home/lagadanu/Desktop/qemu/optee_os/lib/libutils/isoc/bget_malloc.c:906
    1254:	f9401c01 	ldr	x1, [x0,#56]
/home/lagadanu/Desktop/qemu/optee_os/lib/libutils/isoc/bget_malloc.c:905
    1258:	a903e817 	stp	x23, x26, [x0,#56]
/home/lagadanu/Desktop/qemu/optee_os/lib/libutils/isoc/bget_malloc.c:906
    125c:	d37cec21 	lsl	x1, x1, #4
    1260:	8b010342 	add	x2, x26, x1
    1264:	f8216b55 	str	x21, [x26,x1]
/home/lagadanu/Desktop/qemu/optee_os/lib/libutils/isoc/bget_malloc.c:909
    1268:	b9402801 	ldr	w1, [x0,#40]
/home/lagadanu/Desktop/qemu/optee_os/lib/libutils/isoc/bget_malloc.c:907
    126c:	f9000454 	str	x20, [x2,#8]
/home/lagadanu/Desktop/qemu/optee_os/lib/libutils/isoc/bget_malloc.c:909
    1270:	0b140034 	add	w20, w1, w20
    1274:	b9002814 	str	w20, [x0,#40]
/home/lagadanu/Desktop/qemu/optee_os/lib/libutils/isoc/bget_malloc.c:913
    1278:	a94153f3 	ldp	x19, x20, [sp,#16]
    127c:	a9425bf5 	ldp	x21, x22, [sp,#32]
    1280:	a94363f7 	ldp	x23, x24, [sp,#48]
    1284:	a9446bf9 	ldp	x25, x26, [sp,#64]
    1288:	a8c57bfd 	ldp	x29, x30, [sp],#80
    128c:	d65f03c0 	ret

0000000000001290 <malloc_buffer_is_within_alloced>:
malloc_buffer_is_within_alloced():
/home/lagadanu/Desktop/qemu/optee_os/lib/libutils/isoc/bget_malloc.c:920
    1290:	8b010001 	add	x1, x0, x1
/home/lagadanu/Desktop/qemu/optee_os/lib/libutils/isoc/bget_malloc.c:927
    1294:	eb01001f 	cmp	x0, x1
    1298:	54000b88 	b.hi	1408 <malloc_buffer_is_within_alloced+0x178>
    129c:	aa0003e5 	mov	x5, x0
bpool_foreach_iterator_init():
/home/lagadanu/Desktop/qemu/optee_os/lib/libutils/isoc/bget_malloc.c:230
    12a0:	b0000080 	adrp	x0, 12000 <ta_heap+0x7e80>
    12a4:	91060000 	add	x0, x0, #0x180
/home/lagadanu/Desktop/qemu/optee_os/lib/libutils/isoc/bget_malloc.c:229
    12a8:	d2800006 	mov	x6, #0x0                   	// #0
bpool_foreach_pool():
/home/lagadanu/Desktop/qemu/optee_os/lib/libutils/isoc/bget_malloc.c:239
    12ac:	d2f0000b 	mov	x11, #0x8000000000000000    	// #-9223372036854775808
bget_buf_size():
/home/lagadanu/Desktop/qemu/optee_os/lib/libutils/isoc/bget_malloc.c:611
    12b0:	928001e9 	mov	x9, #0xfffffffffffffff0    	// #-16
bpool_foreach_iterator_init():
/home/lagadanu/Desktop/qemu/optee_os/lib/libutils/isoc/bget_malloc.c:230
    12b4:	a9439c0a 	ldp	x10, x7, [x0,#56]
    12b8:	f94000e3 	ldr	x3, [x7]
bpool_foreach_pool():
/home/lagadanu/Desktop/qemu/optee_os/lib/libutils/isoc/bget_malloc.c:237
    12bc:	f9400462 	ldr	x2, [x3,#8]
bpool_foreach():
/home/lagadanu/Desktop/qemu/optee_os/lib/libutils/isoc/bget_malloc.c:279
    12c0:	aa0303e4 	mov	x4, x3
bpool_foreach_pool():
/home/lagadanu/Desktop/qemu/optee_os/lib/libutils/isoc/bget_malloc.c:239
    12c4:	eb0b005f 	cmp	x2, x11
    12c8:	540009a0 	b.eq	13fc <malloc_buffer_is_within_alloced+0x16c>
malloc_buffer_is_within_alloced():
/home/lagadanu/Desktop/qemu/optee_os/lib/libutils/isoc/bget_malloc.c:916
    12cc:	a9bf7bfd 	stp	x29, x30, [sp,#-16]!
    12d0:	910003fd 	mov	x29, sp
    12d4:	1400000d 	b	1308 <malloc_buffer_is_within_alloced+0x78>
bpool_foreach_pool():
/home/lagadanu/Desktop/qemu/optee_os/lib/libutils/isoc/bget_malloc.c:256
    12d8:	91004084 	add	x4, x4, #0x10
malloc_buffer_is_within_alloced():
/home/lagadanu/Desktop/qemu/optee_os/lib/libutils/isoc/bget_malloc.c:936
    12dc:	8b020082 	add	x2, x4, x2
/home/lagadanu/Desktop/qemu/optee_os/lib/libutils/isoc/bget_malloc.c:938
    12e0:	eb02003f 	cmp	x1, x2
    12e4:	1a9f87e2 	cset	w2, ls
    12e8:	eb0400bf 	cmp	x5, x4
    12ec:	1a9f37e0 	cset	w0, cs
    12f0:	6a000040 	ands	w0, w2, w0
    12f4:	540007a1 	b.ne	13e8 <malloc_buffer_is_within_alloced+0x158>
bpool_foreach_pool():
/home/lagadanu/Desktop/qemu/optee_os/lib/libutils/isoc/bget_malloc.c:237
    12f8:	f9400462 	ldr	x2, [x3,#8]
bpool_foreach():
/home/lagadanu/Desktop/qemu/optee_os/lib/libutils/isoc/bget_malloc.c:279
    12fc:	aa0303e4 	mov	x4, x3
bpool_foreach_pool():
/home/lagadanu/Desktop/qemu/optee_os/lib/libutils/isoc/bget_malloc.c:239
    1300:	eb0b005f 	cmp	x2, x11
    1304:	540006a0 	b.eq	13d8 <malloc_buffer_is_within_alloced+0x148>
/home/lagadanu/Desktop/qemu/optee_os/lib/libutils/isoc/bget_malloc.c:242
    1308:	b6f80242 	tbz	x2, #63, 1350 <malloc_buffer_is_within_alloced+0xc0>
/home/lagadanu/Desktop/qemu/optee_os/lib/libutils/isoc/bget_malloc.c:244
    130c:	cb0203e8 	neg	x8, x2
/home/lagadanu/Desktop/qemu/optee_os/lib/libutils/isoc/bget_malloc.c:246
    1310:	52800000 	mov	w0, #0x0                   	// #0
/home/lagadanu/Desktop/qemu/optee_os/lib/libutils/isoc/bget_malloc.c:259
    1314:	8b080063 	add	x3, x3, x8
bpool_foreach():
/home/lagadanu/Desktop/qemu/optee_os/lib/libutils/isoc/bget_malloc.c:270
    1318:	35ffff00 	cbnz	w0, 12f8 <malloc_buffer_is_within_alloced+0x68>
bget_buf_size():
/home/lagadanu/Desktop/qemu/optee_os/lib/libutils/isoc/bget_malloc.c:611
    131c:	cb020122 	sub	x2, x9, x2
/home/lagadanu/Desktop/qemu/optee_os/lib/libutils/isoc/bget_malloc.c:612
    1320:	f100005f 	cmp	x2, #0x0
    1324:	54fffdac 	b.gt	12d8 <malloc_buffer_is_within_alloced+0x48>
    1328:	d0000023 	adrp	x3, 7000 <mpa_init_static_fmm_context+0x38>
    132c:	91354063 	add	x3, x3, #0xd50
    1330:	91022063 	add	x3, x3, #0x88
    1334:	f0000021 	adrp	x1, 8000 <PRIME_TABLE+0x168>
    1338:	f0000020 	adrp	x0, 8000 <PRIME_TABLE+0x168>
    133c:	91335421 	add	x1, x1, #0xcd5
    1340:	913d6000 	add	x0, x0, #0xf58
    1344:	52804c82 	mov	w2, #0x264                 	// #612
    1348:	940004a4 	bl	25d8 <_assert_log>
    134c:	940004b4 	bl	261c <_assert_break>
bpool_foreach_pool():
/home/lagadanu/Desktop/qemu/optee_os/lib/libutils/isoc/bget_malloc.c:252
    1350:	f9400c60 	ldr	x0, [x3,#24]
    1354:	f9400800 	ldr	x0, [x0,#16]
    1358:	eb00007f 	cmp	x3, x0
    135c:	54000160 	b.eq	1388 <malloc_buffer_is_within_alloced+0xf8>
    1360:	d0000023 	adrp	x3, 7000 <mpa_init_static_fmm_context+0x38>
    1364:	91354063 	add	x3, x3, #0xd50
    1368:	91026063 	add	x3, x3, #0x98
    136c:	f0000021 	adrp	x1, 8000 <PRIME_TABLE+0x168>
    1370:	f0000020 	adrp	x0, 8000 <PRIME_TABLE+0x168>
    1374:	91335421 	add	x1, x1, #0xcd5
    1378:	9137e000 	add	x0, x0, #0xdf8
    137c:	52801f82 	mov	w2, #0xfc                  	// #252
    1380:	94000496 	bl	25d8 <_assert_log>
    1384:	940004a6 	bl	261c <_assert_break>
/home/lagadanu/Desktop/qemu/optee_os/lib/libutils/isoc/bget_malloc.c:253
    1388:	f9400860 	ldr	x0, [x3,#16]
    138c:	f9400c00 	ldr	x0, [x0,#24]
    1390:	eb00007f 	cmp	x3, x0
    1394:	54000160 	b.eq	13c0 <malloc_buffer_is_within_alloced+0x130>
    1398:	d0000023 	adrp	x3, 7000 <mpa_init_static_fmm_context+0x38>
    139c:	91354063 	add	x3, x3, #0xd50
    13a0:	91026063 	add	x3, x3, #0x98
    13a4:	f0000021 	adrp	x1, 8000 <PRIME_TABLE+0x168>
    13a8:	f0000020 	adrp	x0, 8000 <PRIME_TABLE+0x168>
    13ac:	91335421 	add	x1, x1, #0xcd5
    13b0:	91384c00 	add	x0, x0, #0xe13
    13b4:	52801fa2 	mov	w2, #0xfd                  	// #253
    13b8:	94000488 	bl	25d8 <_assert_log>
    13bc:	94000498 	bl	261c <_assert_break>
    13c0:	aa0203e8 	mov	x8, x2
/home/lagadanu/Desktop/qemu/optee_os/lib/libutils/isoc/bget_malloc.c:249
    13c4:	52800020 	mov	w0, #0x1                   	// #1
    13c8:	17ffffd3 	b	1314 <malloc_buffer_is_within_alloced+0x84>
bpool_foreach():
/home/lagadanu/Desktop/qemu/optee_os/lib/libutils/isoc/bget_malloc.c:279
    13cc:	d37cecc0 	lsl	x0, x6, #4
    13d0:	f86068e3 	ldr	x3, [x7,x0]
    13d4:	17ffffc9 	b	12f8 <malloc_buffer_is_within_alloced+0x68>
/home/lagadanu/Desktop/qemu/optee_os/lib/libutils/isoc/bget_malloc.c:275
    13d8:	910004c6 	add	x6, x6, #0x1
    13dc:	eb0a00df 	cmp	x6, x10
    13e0:	54ffff63 	b.cc	13cc <malloc_buffer_is_within_alloced+0x13c>
malloc_buffer_is_within_alloced():
/home/lagadanu/Desktop/qemu/optee_os/lib/libutils/isoc/bget_malloc.c:921
    13e4:	52800000 	mov	w0, #0x0                   	// #0
/home/lagadanu/Desktop/qemu/optee_os/lib/libutils/isoc/bget_malloc.c:948
    13e8:	a8c17bfd 	ldp	x29, x30, [sp],#16
    13ec:	d65f03c0 	ret
bpool_foreach():
/home/lagadanu/Desktop/qemu/optee_os/lib/libutils/isoc/bget_malloc.c:279
    13f0:	d37cecc0 	lsl	x0, x6, #4
    13f4:	f86068e3 	ldr	x3, [x7,x0]
    13f8:	17ffffb1 	b	12bc <malloc_buffer_is_within_alloced+0x2c>
/home/lagadanu/Desktop/qemu/optee_os/lib/libutils/isoc/bget_malloc.c:275
    13fc:	910004c6 	add	x6, x6, #0x1
    1400:	eb0a00df 	cmp	x6, x10
    1404:	54ffff63 	b.cc	13f0 <malloc_buffer_is_within_alloced+0x160>
malloc_buffer_is_within_alloced():
/home/lagadanu/Desktop/qemu/optee_os/lib/libutils/isoc/bget_malloc.c:921
    1408:	52800000 	mov	w0, #0x0                   	// #0
/home/lagadanu/Desktop/qemu/optee_os/lib/libutils/isoc/bget_malloc.c:947
    140c:	d65f03c0 	ret

0000000000001410 <malloc_buffer_overlaps_heap>:
malloc_buffer_overlaps_heap():
/home/lagadanu/Desktop/qemu/optee_os/lib/libutils/isoc/bget_malloc.c:960
    1410:	b0000082 	adrp	x2, 12000 <ta_heap+0x7e80>
    1414:	91060042 	add	x2, x2, #0x180
/home/lagadanu/Desktop/qemu/optee_os/lib/libutils/isoc/bget_malloc.c:953
    1418:	8b010001 	add	x1, x0, x1
/home/lagadanu/Desktop/qemu/optee_os/lib/libutils/isoc/bget_malloc.c:960
    141c:	d2800005 	mov	x5, #0x0                   	// #0
    1420:	a9438c47 	ldp	x7, x3, [x2,#56]
/home/lagadanu/Desktop/qemu/optee_os/lib/libutils/isoc/bget_malloc.c:960 (discriminator 1)
    1424:	eb0700bf 	cmp	x5, x7
    1428:	54000081 	b.ne	1438 <malloc_buffer_overlaps_heap+0x28>
/home/lagadanu/Desktop/qemu/optee_os/lib/libutils/isoc/bget_malloc.c:955
    142c:	52800002 	mov	w2, #0x0                   	// #0
/home/lagadanu/Desktop/qemu/optee_os/lib/libutils/isoc/bget_malloc.c:978
    1430:	2a0203e0 	mov	w0, w2
    1434:	d65f03c0 	ret
/home/lagadanu/Desktop/qemu/optee_os/lib/libutils/isoc/bget_malloc.c:962
    1438:	a9401066 	ldp	x6, x4, [x3]
/home/lagadanu/Desktop/qemu/optee_os/lib/libutils/isoc/bget_malloc.c:964
    143c:	eb01001f 	cmp	x0, x1
    1440:	1a9f97e2 	cset	w2, hi
/home/lagadanu/Desktop/qemu/optee_os/lib/libutils/isoc/bget_malloc.c:962
    1444:	8b0400c4 	add	x4, x6, x4
/home/lagadanu/Desktop/qemu/optee_os/lib/libutils/isoc/bget_malloc.c:964
    1448:	eb0400df 	cmp	x6, x4
    144c:	1a9f97e8 	cset	w8, hi
    1450:	2a080042 	orr	w2, w2, w8
    1454:	35fffee2 	cbnz	w2, 1430 <malloc_buffer_overlaps_heap+0x20>
/home/lagadanu/Desktop/qemu/optee_os/lib/libutils/isoc/bget_malloc.c:969
    1458:	eb06003f 	cmp	x1, x6
    145c:	91004063 	add	x3, x3, #0x10
    1460:	1a9f97e2 	cset	w2, hi
    1464:	eb04001f 	cmp	x0, x4
    1468:	1a9f27e4 	cset	w4, cc
    146c:	2a040042 	orr	w2, w2, w4
    1470:	35fffe02 	cbnz	w2, 1430 <malloc_buffer_overlaps_heap+0x20>
/home/lagadanu/Desktop/qemu/optee_os/lib/libutils/isoc/bget_malloc.c:960 (discriminator 2)
    1474:	910004a5 	add	x5, x5, #0x1
    1478:	17ffffeb 	b	1424 <malloc_buffer_overlaps_heap+0x14>

000000000000147c <strndup>:
strndup():
/home/lagadanu/Desktop/qemu/optee_os/lib/libutils/isoc/strndup.c:9
    147c:	a9bd7bfd 	stp	x29, x30, [sp,#-48]!
    1480:	910003fd 	mov	x29, sp
    1484:	a90153f3 	stp	x19, x20, [sp,#16]
    1488:	f90013f5 	str	x21, [sp,#32]
    148c:	aa0003f5 	mov	x21, x0
/home/lagadanu/Desktop/qemu/optee_os/lib/libutils/isoc/strndup.c:10
    1490:	9400001e 	bl	1508 <strnlen>
    1494:	aa0003f4 	mov	x20, x0
/home/lagadanu/Desktop/qemu/optee_os/lib/libutils/isoc/strndup.c:11
    1498:	91000400 	add	x0, x0, #0x1
    149c:	97fffe0e 	bl	cd4 <malloc>
    14a0:	aa0003f3 	mov	x19, x0
/home/lagadanu/Desktop/qemu/optee_os/lib/libutils/isoc/strndup.c:13
    14a4:	b40000a0 	cbz	x0, 14b8 <strndup+0x3c>
/home/lagadanu/Desktop/qemu/optee_os/lib/libutils/isoc/strndup.c:14
    14a8:	aa1403e2 	mov	x2, x20
    14ac:	aa1503e1 	mov	x1, x21
    14b0:	94000007 	bl	14cc <memcpy>
/home/lagadanu/Desktop/qemu/optee_os/lib/libutils/isoc/strndup.c:15
    14b4:	38346a7f 	strb	wzr, [x19,x20]
/home/lagadanu/Desktop/qemu/optee_os/lib/libutils/isoc/strndup.c:18
    14b8:	aa1303e0 	mov	x0, x19
    14bc:	f94013f5 	ldr	x21, [sp,#32]
    14c0:	a94153f3 	ldp	x19, x20, [sp,#16]
    14c4:	a8c37bfd 	ldp	x29, x30, [sp],#48
    14c8:	d65f03c0 	ret

00000000000014cc <memcpy>:
memcpy():
/home/lagadanu/Desktop/qemu/optee_os/lib/libutils/isoc/newlib/memcpy.c:94
    14cc:	d2800003 	mov	x3, #0x0                   	// #0
    14d0:	eb03005f 	cmp	x2, x3
    14d4:	54000041 	b.ne	14dc <memcpy+0x10>
/home/lagadanu/Desktop/qemu/optee_os/lib/libutils/isoc/newlib/memcpy.c:135
    14d8:	d65f03c0 	ret
/home/lagadanu/Desktop/qemu/optee_os/lib/libutils/isoc/newlib/memcpy.c:95
    14dc:	38636824 	ldrb	w4, [x1,x3]
    14e0:	38236804 	strb	w4, [x0,x3]
    14e4:	91000463 	add	x3, x3, #0x1
    14e8:	17fffffa 	b	14d0 <memcpy+0x4>

00000000000014ec <memset>:
memset():
/home/lagadanu/Desktop/qemu/optee_os/lib/libutils/isoc/newlib/memset.c:125
    14ec:	d2800003 	mov	x3, #0x0                   	// #0
    14f0:	eb03005f 	cmp	x2, x3
    14f4:	54000041 	b.ne	14fc <memset+0x10>
/home/lagadanu/Desktop/qemu/optee_os/lib/libutils/isoc/newlib/memset.c:129
    14f8:	d65f03c0 	ret
/home/lagadanu/Desktop/qemu/optee_os/lib/libutils/isoc/newlib/memset.c:126
    14fc:	38236801 	strb	w1, [x0,x3]
    1500:	91000463 	add	x3, x3, #0x1
    1504:	17fffffb 	b	14f0 <memset+0x4>

0000000000001508 <strnlen>:
strnlen():
/home/lagadanu/Desktop/qemu/optee_os/lib/libutils/isoc/newlib/strnlen.c:74
    1508:	8b010001 	add	x1, x0, x1
/home/lagadanu/Desktop/qemu/optee_os/lib/libutils/isoc/newlib/strnlen.c:77
    150c:	aa0003e2 	mov	x2, x0
    1510:	eb01005f 	cmp	x2, x1
    1514:	54000060 	b.eq	1520 <strnlen+0x18>
/home/lagadanu/Desktop/qemu/optee_os/lib/libutils/isoc/newlib/strnlen.c:77 (discriminator 1)
    1518:	39400043 	ldrb	w3, [x2]
    151c:	35000063 	cbnz	w3, 1528 <strnlen+0x20>
/home/lagadanu/Desktop/qemu/optee_os/lib/libutils/isoc/newlib/strnlen.c:80
    1520:	cb000040 	sub	x0, x2, x0
/home/lagadanu/Desktop/qemu/optee_os/lib/libutils/isoc/newlib/strnlen.c:81
    1524:	d65f03c0 	ret
/home/lagadanu/Desktop/qemu/optee_os/lib/libutils/isoc/newlib/strnlen.c:78
    1528:	91000442 	add	x2, x2, #0x1
    152c:	17fffff9 	b	1510 <strnlen+0x8>

0000000000001530 <trace_set_level>:
trace_set_level():
/home/lagadanu/Desktop/qemu/optee_os/lib/libutils/ext/trace.c:26
    1530:	51000401 	sub	w1, w0, #0x1
    1534:	71000c3f 	cmp	w1, #0x3
    1538:	90000041 	adrp	x1, 9000 <__func__.3181+0x410>
    153c:	54000088 	b.hi	154c <trace_set_level+0x1c>
/home/lagadanu/Desktop/qemu/optee_os/lib/libutils/ext/trace.c:29
    1540:	f942c821 	ldr	x1, [x1,#1424]
    1544:	b9000020 	str	w0, [x1]
    1548:	d65f03c0 	ret
    154c:	52800080 	mov	w0, #0x4                   	// #4
    1550:	17fffffc 	b	1540 <trace_set_level+0x10>

0000000000001554 <trace_get_level>:
trace_get_level():
/home/lagadanu/Desktop/qemu/optee_os/lib/libutils/ext/trace.c:35
    1554:	90000040 	adrp	x0, 9000 <__func__.3181+0x410>
    1558:	f942c800 	ldr	x0, [x0,#1424]
    155c:	b9400000 	ldr	w0, [x0]
    1560:	d65f03c0 	ret

0000000000001564 <trace_printf>:
trace_printf():
/home/lagadanu/Desktop/qemu/optee_os/lib/libutils/ext/trace.c:97
    1564:	d108c3ff 	sub	sp, sp, #0x230
    1568:	a9007bfd 	stp	x29, x30, [sp]
    156c:	910003fd 	mov	x29, sp
    1570:	f9010fa5 	str	x5, [x29,#536]
    1574:	910403a5 	add	x5, x29, #0x100
    1578:	a9046bf9 	stp	x25, x26, [sp,#64]
/home/lagadanu/Desktop/qemu/optee_os/lib/libutils/ext/trace.c:103
    157c:	72001c79 	ands	w25, w3, #0xff
/home/lagadanu/Desktop/qemu/optee_os/lib/libutils/ext/trace.c:97
    1580:	a90153f3 	stp	x19, x20, [sp,#16]
    1584:	a9025bf5 	stp	x21, x22, [sp,#32]
    1588:	a90363f7 	stp	x23, x24, [sp,#48]
    158c:	f90113a6 	str	x6, [x29,#544]
    1590:	f90117a7 	str	x7, [x29,#552]
    1594:	3d8024a0 	str	q0, [x5,#144]
    1598:	3d8028a1 	str	q1, [x5,#160]
    159c:	3d802ca2 	str	q2, [x5,#176]
    15a0:	3d8030a3 	str	q3, [x5,#192]
    15a4:	3d8034a4 	str	q4, [x5,#208]
    15a8:	3d8038a5 	str	q5, [x5,#224]
    15ac:	3d803ca6 	str	q6, [x5,#240]
    15b0:	910803a5 	add	x5, x29, #0x200
    15b4:	3d8000a7 	str	q7, [x5]
/home/lagadanu/Desktop/qemu/optee_os/lib/libutils/ext/trace.c:103
    15b8:	540008a0 	b.eq	16cc <trace_printf+0x168>
/home/lagadanu/Desktop/qemu/optee_os/lib/libutils/ext/trace.c:103 (discriminator 1)
    15bc:	90000043 	adrp	x3, 9000 <__func__.3181+0x410>
    15c0:	f942c863 	ldr	x3, [x3,#1424]
    15c4:	b9400063 	ldr	w3, [x3]
    15c8:	6b02007f 	cmp	w3, w2
    15cc:	5400072b 	b.lt	16b0 <trace_printf+0x14c>
trace_level_to_string():
/home/lagadanu/Desktop/qemu/optee_os/lib/libutils/ext/trace.c:52
    15d0:	51000443 	sub	w3, w2, #0x1
    15d4:	71000c7f 	cmp	w3, #0x3
/home/lagadanu/Desktop/qemu/optee_os/lib/libutils/ext/trace.c:55
    15d8:	d0000023 	adrp	x3, 7000 <mpa_init_static_fmm_context+0x38>
/home/lagadanu/Desktop/qemu/optee_os/lib/libutils/ext/trace.c:52
    15dc:	1a9f9045 	csel	w5, w2, wzr, ls
/home/lagadanu/Desktop/qemu/optee_os/lib/libutils/ext/trace.c:55
    15e0:	91380063 	add	x3, x3, #0xe00
    15e4:	3865c863 	ldrb	w3, [x3,w5,sxtw]
trace_printf():
/home/lagadanu/Desktop/qemu/optee_os/lib/libutils/ext/trace.c:107
    15e8:	910243b4 	add	x20, x29, #0x90
    15ec:	2a0203f3 	mov	w19, w2
    15f0:	2a0103f8 	mov	w24, w1
    15f4:	aa0003f6 	mov	x22, x0
    15f8:	90000042 	adrp	x2, 9000 <__func__.3181+0x410>
    15fc:	aa0403f7 	mov	x23, x4
    1600:	91031442 	add	x2, x2, #0xc5
    1604:	d2802001 	mov	x1, #0x100                 	// #256
    1608:	aa1403e0 	mov	x0, x20
    160c:	94000366 	bl	23a4 <snprintk>
/home/lagadanu/Desktop/qemu/optee_os/lib/libutils/ext/trace.c:109
    1610:	37f80500 	tbnz	w0, #31, 16b0 <trace_printf+0x14c>
/home/lagadanu/Desktop/qemu/optee_os/lib/libutils/ext/trace.c:114
    1614:	90000043 	adrp	x3, 9000 <__func__.3181+0x410>
/home/lagadanu/Desktop/qemu/optee_os/lib/libutils/ext/trace.c:111
    1618:	93407c15 	sxtw	x21, w0
/home/lagadanu/Desktop/qemu/optee_os/lib/libutils/ext/trace.c:114
    161c:	d280201a 	mov	x26, #0x100                 	// #256
    1620:	90000042 	adrp	x2, 9000 <__func__.3181+0x410>
    1624:	f942cc63 	ldr	x3, [x3,#1432]
    1628:	91032442 	add	x2, x2, #0xc9
    162c:	cb150341 	sub	x1, x26, x21
    1630:	8b150280 	add	x0, x20, x21
    1634:	9400035c 	bl	23a4 <snprintk>
/home/lagadanu/Desktop/qemu/optee_os/lib/libutils/ext/trace.c:116
    1638:	37f803c0 	tbnz	w0, #31, 16b0 <trace_printf+0x14c>
/home/lagadanu/Desktop/qemu/optee_os/lib/libutils/ext/trace.c:118
    163c:	8b20c2b5 	add	x21, x21, w0, sxtw
/home/lagadanu/Desktop/qemu/optee_os/lib/libutils/ext/trace.c:120
    1640:	340005d9 	cbz	w25, 16f8 <trace_printf+0x194>
/home/lagadanu/Desktop/qemu/optee_os/lib/libutils/ext/trace.c:120 (discriminator 1)
    1644:	52800342 	mov	w2, #0x1a                  	// #26
    1648:	1ad32440 	lsr	w0, w2, w19
    164c:	36000560 	tbz	w0, #0, 16f8 <trace_printf+0x194>
/home/lagadanu/Desktop/qemu/optee_os/lib/libutils/ext/trace.c:122
    1650:	8b150299 	add	x25, x20, x21
    1654:	cb15035a 	sub	x26, x26, x21
print_thread_id():
/home/lagadanu/Desktop/qemu/optee_os/lib/libutils/ext/trace.c:65
    1658:	9400038c 	bl	2488 <trace_ext_get_thread_id>
/home/lagadanu/Desktop/qemu/optee_os/lib/libutils/ext/trace.c:67
    165c:	37f803c0 	tbnz	w0, #31, 16d4 <trace_printf+0x170>
/home/lagadanu/Desktop/qemu/optee_os/lib/libutils/ext/trace.c:68
    1660:	2a0003e4 	mov	w4, w0
    1664:	90000042 	adrp	x2, 9000 <__func__.3181+0x410>
    1668:	52800023 	mov	w3, #0x1                   	// #1
    166c:	91033442 	add	x2, x2, #0xcd
    1670:	aa1a03e1 	mov	x1, x26
    1674:	aa1903e0 	mov	x0, x25
    1678:	9400034b 	bl	23a4 <snprintk>
trace_printf():
/home/lagadanu/Desktop/qemu/optee_os/lib/libutils/ext/trace.c:129
    167c:	37f801a0 	tbnz	w0, #31, 16b0 <trace_printf+0x14c>
/home/lagadanu/Desktop/qemu/optee_os/lib/libutils/ext/trace.c:131
    1680:	8b20c2b3 	add	x19, x21, w0, sxtw
/home/lagadanu/Desktop/qemu/optee_os/lib/libutils/ext/trace.c:133
    1684:	b4000476 	cbz	x22, 1710 <trace_printf+0x1ac>
/home/lagadanu/Desktop/qemu/optee_os/lib/libutils/ext/trace.c:134
    1688:	8b130280 	add	x0, x20, x19
    168c:	2a1803e4 	mov	w4, w24
    1690:	aa1603e3 	mov	x3, x22
    1694:	90000042 	adrp	x2, 9000 <__func__.3181+0x410>
    1698:	d2802001 	mov	x1, #0x100                 	// #256
    169c:	91036042 	add	x2, x2, #0xd8
    16a0:	cb130021 	sub	x1, x1, x19
    16a4:	94000340 	bl	23a4 <snprintk>
/home/lagadanu/Desktop/qemu/optee_os/lib/libutils/ext/trace.c:138
    16a8:	8b20c273 	add	x19, x19, w0, sxtw
/home/lagadanu/Desktop/qemu/optee_os/lib/libutils/ext/trace.c:136
    16ac:	36f80320 	tbz	w0, #31, 1710 <trace_printf+0x1ac>
/home/lagadanu/Desktop/qemu/optee_os/lib/libutils/ext/trace.c:164
    16b0:	a94153f3 	ldp	x19, x20, [sp,#16]
    16b4:	a9425bf5 	ldp	x21, x22, [sp,#32]
    16b8:	a94363f7 	ldp	x23, x24, [sp,#48]
    16bc:	a9446bf9 	ldp	x25, x26, [sp,#64]
    16c0:	a9407bfd 	ldp	x29, x30, [sp]
    16c4:	9108c3ff 	add	sp, sp, #0x230
    16c8:	d65f03c0 	ret
trace_level_to_string():
/home/lagadanu/Desktop/qemu/optee_os/lib/libutils/ext/trace.c:50
    16cc:	528009a3 	mov	w3, #0x4d                  	// #77
    16d0:	17ffffc6 	b	15e8 <trace_printf+0x84>
print_thread_id():
/home/lagadanu/Desktop/qemu/optee_os/lib/libutils/ext/trace.c:70
    16d4:	90000044 	adrp	x4, 9000 <__func__.3181+0x410>
    16d8:	52800023 	mov	w3, #0x1                   	// #1
    16dc:	91052084 	add	x4, x4, #0x148
    16e0:	90000042 	adrp	x2, 9000 <__func__.3181+0x410>
    16e4:	aa1a03e1 	mov	x1, x26
    16e8:	91034c42 	add	x2, x2, #0xd3
    16ec:	aa1903e0 	mov	x0, x25
    16f0:	9400032d 	bl	23a4 <snprintk>
    16f4:	17ffffe2 	b	167c <trace_printf+0x118>
trace_printf():
/home/lagadanu/Desktop/qemu/optee_os/lib/libutils/ext/trace.c:142
    16f8:	f103fabf 	cmp	x21, #0xfe
    16fc:	54fffda8 	b.hi	16b0 <trace_printf+0x14c>
/home/lagadanu/Desktop/qemu/optee_os/lib/libutils/ext/trace.c:144
    1700:	910006b3 	add	x19, x21, #0x1
    1704:	52800400 	mov	w0, #0x20                  	// #32
    1708:	38356a80 	strb	w0, [x20,x21]
/home/lagadanu/Desktop/qemu/optee_os/lib/libutils/ext/trace.c:145
    170c:	38336a9f 	strb	wzr, [x20,x19]
/home/lagadanu/Desktop/qemu/optee_os/lib/libutils/ext/trace.c:148
    1710:	9108c3a0 	add	x0, x29, #0x230
    1714:	a90703a0 	stp	x0, x0, [x29,#112]
    1718:	910843a0 	add	x0, x29, #0x210
    171c:	f90043a0 	str	x0, [x29,#128]
    1720:	128002e0 	mov	w0, #0xffffffe8            	// #-24
    1724:	b9008ba0 	str	w0, [x29,#136]
    1728:	12800fe0 	mov	w0, #0xffffff80            	// #-128
    172c:	b9008fa0 	str	w0, [x29,#140]
/home/lagadanu/Desktop/qemu/optee_os/lib/libutils/ext/trace.c:149
    1730:	a94707a0 	ldp	x0, x1, [x29,#112]
    1734:	a90507a0 	stp	x0, x1, [x29,#80]
    1738:	a94807a0 	ldp	x0, x1, [x29,#128]
    173c:	a90607a0 	stp	x0, x1, [x29,#96]
    1740:	d2802001 	mov	x1, #0x100                 	// #256
    1744:	cb130021 	sub	x1, x1, x19
    1748:	8b130280 	add	x0, x20, x19
    174c:	910143a3 	add	x3, x29, #0x50
    1750:	aa1703e2 	mov	x2, x23
    1754:	940002ff 	bl	2350 <vsnprintk>
/home/lagadanu/Desktop/qemu/optee_os/lib/libutils/ext/trace.c:152
    1758:	7100001f 	cmp	w0, #0x0
    175c:	8b20c261 	add	x1, x19, w0, sxtw
    1760:	9a93c033 	csel	x19, x1, x19, gt
    1764:	d2801fc0 	mov	x0, #0xfe                  	// #254
    1768:	f103fa7f 	cmp	x19, #0xfe
    176c:	9a809273 	csel	x19, x19, x0, ls
/home/lagadanu/Desktop/qemu/optee_os/lib/libutils/ext/trace.c:157
    1770:	52800140 	mov	w0, #0xa                   	// #10
    1774:	38336a80 	strb	w0, [x20,x19]
/home/lagadanu/Desktop/qemu/optee_os/lib/libutils/ext/trace.c:158
    1778:	b4000093 	cbz	x19, 1788 <trace_printf+0x224>
/home/lagadanu/Desktop/qemu/optee_os/lib/libutils/ext/trace.c:158 (discriminator 1)
    177c:	38736a80 	ldrb	w0, [x20,x19]
    1780:	7100281f 	cmp	w0, #0xa
    1784:	540000c0 	b.eq	179c <trace_printf+0x238>
/home/lagadanu/Desktop/qemu/optee_os/lib/libutils/ext/trace.c:161
    1788:	91024ba0 	add	x0, x29, #0x92
    178c:	3833681f 	strb	wzr, [x0,x19]
/home/lagadanu/Desktop/qemu/optee_os/lib/libutils/ext/trace.c:163
    1790:	aa1403e0 	mov	x0, x20
    1794:	94000333 	bl	2460 <trace_ext_puts>
    1798:	17ffffc6 	b	16b0 <trace_printf+0x14c>
/home/lagadanu/Desktop/qemu/optee_os/lib/libutils/ext/trace.c:159
    179c:	d1000673 	sub	x19, x19, #0x1
    17a0:	17fffff6 	b	1778 <trace_printf+0x214>

00000000000017a4 <dhex_dump>:
dhex_dump():
/home/lagadanu/Desktop/qemu/optee_os/lib/libutils/ext/trace.c:275
    17a4:	d65f03c0 	ret

00000000000017a8 <__vsnprintf>:
__vsnprintf():
/home/lagadanu/Desktop/qemu/optee_os/lib/libutils/ext/snprintk.c:137
    17a8:	d103c3ff 	sub	sp, sp, #0xf0
    17ac:	a9037bfd 	stp	x29, x30, [sp,#48]
    17b0:	9100c3fd 	add	x29, sp, #0x30
    17b4:	a90803a1 	stp	x1, x0, [x29,#128]
    17b8:	12001c80 	and	w0, w4, #0xff
    17bc:	b9007fa0 	str	w0, [x29,#124]
/home/lagadanu/Desktop/qemu/optee_os/lib/libutils/ext/snprintk.c:141
    17c0:	f94047a0 	ldr	x0, [x29,#136]
/home/lagadanu/Desktop/qemu/optee_os/lib/libutils/ext/snprintk.c:137
    17c4:	a90453f3 	stp	x19, x20, [sp,#64]
    17c8:	a90873fb 	stp	x27, x28, [sp,#128]
kprintf():
/home/lagadanu/Desktop/qemu/optee_os/lib/libutils/ext/snprintk.c:267
    17cc:	5280001b 	mov	w27, #0x0                   	// #0
    17d0:	b9401874 	ldr	w20, [x3,#24]
    17d4:	a9407073 	ldp	x19, x28, [x3]
__vsnprintf():
/home/lagadanu/Desktop/qemu/optee_os/lib/libutils/ext/snprintk.c:137
    17d8:	a90663f7 	stp	x23, x24, [sp,#96]
    17dc:	a9076bf9 	stp	x25, x26, [sp,#112]
    17e0:	910263b8 	add	x24, x29, #0x98
    17e4:	a9055bf5 	stp	x21, x22, [sp,#80]
    17e8:	aa0203f9 	mov	x25, x2
/home/lagadanu/Desktop/qemu/optee_os/lib/libutils/ext/snprintk.c:141
    17ec:	8b01001a 	add	x26, x0, x1
    17f0:	aa0003f6 	mov	x22, x0
kprintf():
/home/lagadanu/Desktop/qemu/optee_os/lib/libutils/ext/snprintk.c:269
    17f4:	d2800017 	mov	x23, #0x0                   	// #0
/home/lagadanu/Desktop/qemu/optee_os/lib/libutils/ext/snprintk.c:275
    17f8:	39400320 	ldrb	w0, [x25]
    17fc:	7100941f 	cmp	w0, #0x25
    1800:	7a401804 	ccmp	w0, #0x0, #0x4, ne
    1804:	540003c1 	b.ne	187c <__vsnprintf+0xd4>
/home/lagadanu/Desktop/qemu/optee_os/lib/libutils/ext/snprintk.c:279
    1808:	34005780 	cbz	w0, 22f8 <__vsnprintf+0xb50>
/home/lagadanu/Desktop/qemu/optee_os/lib/libutils/ext/snprintk.c:287
    180c:	12800004 	mov	w4, #0xffffffff            	// #-1
/home/lagadanu/Desktop/qemu/optee_os/lib/libutils/ext/snprintk.c:282
    1810:	91000722 	add	x2, x25, #0x1
    1814:	2a1403e0 	mov	w0, w20
/home/lagadanu/Desktop/qemu/optee_os/lib/libutils/ext/snprintk.c:324
    1818:	2a0403e5 	mov	w5, w4
/home/lagadanu/Desktop/qemu/optee_os/lib/libutils/ext/snprintk.c:288
    181c:	52800001 	mov	w1, #0x0                   	// #0
/home/lagadanu/Desktop/qemu/optee_os/lib/libutils/ext/snprintk.c:286
    1820:	5280000a 	mov	w10, #0x0                   	// #0
/home/lagadanu/Desktop/qemu/optee_os/lib/libutils/ext/snprintk.c:284
    1824:	52800015 	mov	w21, #0x0                   	// #0
/home/lagadanu/Desktop/qemu/optee_os/lib/libutils/ext/snprintk.c:299
    1828:	52800406 	mov	w6, #0x20                  	// #32
/home/lagadanu/Desktop/qemu/optee_os/lib/libutils/ext/snprintk.c:290
    182c:	39400048 	ldrb	w8, [x2]
    1830:	91000459 	add	x25, x2, #0x1
/home/lagadanu/Desktop/qemu/optee_os/lib/libutils/ext/snprintk.c:291
    1834:	71018d1f 	cmp	w8, #0x63
    1838:	54001b80 	b.eq	1ba8 <__vsnprintf+0x400>
    183c:	5400080c 	b.gt	193c <__vsnprintf+0x194>
    1840:	7100c11f 	cmp	w8, #0x30
    1844:	54001960 	b.eq	1b70 <__vsnprintf+0x3c8>
    1848:	540003cc 	b.gt	18c0 <__vsnprintf+0x118>
    184c:	7100a91f 	cmp	w8, #0x2a
    1850:	540012c0 	b.eq	1aa8 <__vsnprintf+0x300>
    1854:	5400024c 	b.gt	189c <__vsnprintf+0xf4>
    1858:	7100811f 	cmp	w8, #0x20
    185c:	540011c0 	b.eq	1a94 <__vsnprintf+0x2ec>
    1860:	71008d1f 	cmp	w8, #0x23
    1864:	540011e0 	b.eq	1aa0 <__vsnprintf+0x2f8>
/home/lagadanu/Desktop/qemu/optee_os/lib/libutils/ext/snprintk.c:541
    1868:	34005488 	cbz	w8, 22f8 <__vsnprintf+0xb50>
/home/lagadanu/Desktop/qemu/optee_os/lib/libutils/ext/snprintk.c:545
    186c:	910303a3 	add	x3, x29, #0xc0
    1870:	2a0003f4 	mov	w20, w0
    1874:	381d8c68 	strb	w8, [x3,#-40]!
    1878:	140000d4 	b	1bc8 <__vsnprintf+0x420>
/home/lagadanu/Desktop/qemu/optee_os/lib/libutils/ext/snprintk.c:276
    187c:	1100077b 	add	w27, w27, #0x1
/home/lagadanu/Desktop/qemu/optee_os/lib/libutils/ext/snprintk.c:277
    1880:	b40000b6 	cbz	x22, 1894 <__vsnprintf+0xec>
    1884:	eb16035f 	cmp	x26, x22
    1888:	54000069 	b.ls	1894 <__vsnprintf+0xec>
    188c:	390002c0 	strb	w0, [x22]
    1890:	910006d6 	add	x22, x22, #0x1
/home/lagadanu/Desktop/qemu/optee_os/lib/libutils/ext/snprintk.c:275
    1894:	91000739 	add	x25, x25, #0x1
    1898:	17ffffd8 	b	17f8 <__vsnprintf+0x50>
/home/lagadanu/Desktop/qemu/optee_os/lib/libutils/ext/snprintk.c:291
    189c:	7100b51f 	cmp	w8, #0x2d
    18a0:	54001120 	b.eq	1ac4 <__vsnprintf+0x31c>
    18a4:	7100b91f 	cmp	w8, #0x2e
    18a8:	54001280 	b.eq	1af8 <__vsnprintf+0x350>
    18ac:	7100ad1f 	cmp	w8, #0x2b
    18b0:	54fffdc1 	b.ne	1868 <__vsnprintf+0xc0>
/home/lagadanu/Desktop/qemu/optee_os/lib/libutils/ext/snprintk.c:319
    18b4:	2a0803e1 	mov	w1, w8
/home/lagadanu/Desktop/qemu/optee_os/lib/libutils/ext/snprintk.c:322
    18b8:	aa1903e2 	mov	x2, x25
    18bc:	17ffffdc 	b	182c <__vsnprintf+0x84>
/home/lagadanu/Desktop/qemu/optee_os/lib/libutils/ext/snprintk.c:291
    18c0:	7101111f 	cmp	w8, #0x44
    18c4:	54001920 	b.eq	1be8 <__vsnprintf+0x440>
    18c8:	5400018c 	b.gt	18f8 <__vsnprintf+0x150>
    18cc:	7100e51f 	cmp	w8, #0x39
    18d0:	54fffccc 	b.gt	1868 <__vsnprintf+0xc0>
    18d4:	5280000a 	mov	w10, #0x0                   	// #0
/home/lagadanu/Desktop/qemu/optee_os/lib/libutils/ext/snprintk.c:346
    18d8:	5100c108 	sub	w8, w8, #0x30
    18dc:	52800142 	mov	w2, #0xa                   	// #10
    18e0:	1b02214a 	madd	w10, w10, w2, w8
/home/lagadanu/Desktop/qemu/optee_os/lib/libutils/ext/snprintk.c:347
    18e4:	38401728 	ldrb	w8, [x25],#1
/home/lagadanu/Desktop/qemu/optee_os/lib/libutils/ext/snprintk.c:348
    18e8:	5100c102 	sub	w2, w8, #0x30
    18ec:	7100245f 	cmp	w2, #0x9
    18f0:	54ffff49 	b.ls	18d8 <__vsnprintf+0x130>
    18f4:	17ffffd0 	b	1834 <__vsnprintf+0x8c>
/home/lagadanu/Desktop/qemu/optee_os/lib/libutils/ext/snprintk.c:291
    18f8:	7101551f 	cmp	w8, #0x55
    18fc:	54003c40 	b.eq	2084 <__vsnprintf+0x8dc>
    1900:	7101611f 	cmp	w8, #0x58
    1904:	54000ac0 	b.eq	1a5c <__vsnprintf+0x2b4>
    1908:	71013d1f 	cmp	w8, #0x4f
    190c:	54fffae1 	b.ne	1868 <__vsnprintf+0xc0>
/home/lagadanu/Desktop/qemu/optee_os/lib/libutils/ext/snprintk.c:408
    1910:	321c02b5 	orr	w21, w21, #0x10
/home/lagadanu/Desktop/qemu/optee_os/lib/libutils/ext/snprintk.c:411
    1914:	36382695 	tbz	w21, #7, 1de4 <__vsnprintf+0x63c>
    1918:	37f827e0 	tbnz	w0, #31, 1e14 <__vsnprintf+0x66c>
    191c:	91003e61 	add	x1, x19, #0xf
    1920:	2a0003f4 	mov	w20, w0
    1924:	aa1303e0 	mov	x0, x19
    1928:	927df033 	and	x19, x1, #0xfffffffffffffff8
    192c:	f9400005 	ldr	x5, [x0]
/home/lagadanu/Desktop/qemu/optee_os/lib/libutils/ext/snprintk.c:412
    1930:	52800000 	mov	w0, #0x0                   	// #0
/home/lagadanu/Desktop/qemu/optee_os/lib/libutils/ext/snprintk.c:482
    1934:	52800001 	mov	w1, #0x0                   	// #0
    1938:	140000b8 	b	1c18 <__vsnprintf+0x470>
/home/lagadanu/Desktop/qemu/optee_os/lib/libutils/ext/snprintk.c:291
    193c:	7101bd1f 	cmp	w8, #0x6f
    1940:	54fffea0 	b.eq	1914 <__vsnprintf+0x16c>
    1944:	5400024c 	b.gt	198c <__vsnprintf+0x1e4>
    1948:	7101a51f 	cmp	w8, #0x69
    194c:	54001500 	b.eq	1bec <__vsnprintf+0x444>
    1950:	540000ec 	b.gt	196c <__vsnprintf+0x1c4>
    1954:	7101911f 	cmp	w8, #0x64
    1958:	540014a0 	b.eq	1bec <__vsnprintf+0x444>
    195c:	7101a11f 	cmp	w8, #0x68
    1960:	54fff841 	b.ne	1868 <__vsnprintf+0xc0>
/home/lagadanu/Desktop/qemu/optee_os/lib/libutils/ext/snprintk.c:352
    1964:	321a02b5 	orr	w21, w21, #0x40
    1968:	17ffffd4 	b	18b8 <__vsnprintf+0x110>
/home/lagadanu/Desktop/qemu/optee_os/lib/libutils/ext/snprintk.c:291
    196c:	7101b11f 	cmp	w8, #0x6c
    1970:	54001040 	b.eq	1b78 <__vsnprintf+0x3d0>
    1974:	7101b91f 	cmp	w8, #0x6e
    1978:	54001d40 	b.eq	1d20 <__vsnprintf+0x578>
    197c:	7101a91f 	cmp	w8, #0x6a
    1980:	54fff741 	b.ne	1868 <__vsnprintf+0xc0>
/home/lagadanu/Desktop/qemu/optee_os/lib/libutils/ext/snprintk.c:355
    1984:	321902b5 	orr	w21, w21, #0x80
    1988:	17ffffcc 	b	18b8 <__vsnprintf+0x110>
/home/lagadanu/Desktop/qemu/optee_os/lib/libutils/ext/snprintk.c:291
    198c:	7101d11f 	cmp	w8, #0x74
    1990:	54001040 	b.eq	1b98 <__vsnprintf+0x3f0>
    1994:	5400046c 	b.gt	1a20 <__vsnprintf+0x278>
    1998:	7101c51f 	cmp	w8, #0x71
    199c:	54000f60 	b.eq	1b88 <__vsnprintf+0x3e0>
    19a0:	540026cb 	b.lt	1e78 <__vsnprintf+0x6d0>
    19a4:	7101cd1f 	cmp	w8, #0x73
    19a8:	54fff601 	b.ne	1868 <__vsnprintf+0xc0>
/home/lagadanu/Desktop/qemu/optee_os/lib/libutils/ext/snprintk.c:442
    19ac:	37f83480 	tbnz	w0, #31, 203c <__vsnprintf+0x894>
    19b0:	91003e61 	add	x1, x19, #0xf
    19b4:	2a0003f4 	mov	w20, w0
    19b8:	aa1303e0 	mov	x0, x19
    19bc:	927df033 	and	x19, x1, #0xfffffffffffffff8
    19c0:	f9400003 	ldr	x3, [x0]
/home/lagadanu/Desktop/qemu/optee_os/lib/libutils/ext/snprintk.c:444
    19c4:	90000040 	adrp	x0, 9000 <__func__.3181+0x410>
    19c8:	91037c00 	add	x0, x0, #0xdf
    19cc:	f100007f 	cmp	x3, #0x0
    19d0:	9a830003 	csel	x3, x0, x3, eq
/home/lagadanu/Desktop/qemu/optee_os/lib/libutils/ext/snprintk.c:445
    19d4:	3100049f 	cmn	w4, #0x1
    19d8:	540033e0 	b.eq	2054 <__vsnprintf+0x8ac>
/home/lagadanu/Desktop/qemu/optee_os/lib/libutils/ext/snprintk.c:451
    19dc:	93407c82 	sxtw	x2, w4
    19e0:	aa0303e0 	mov	x0, x3
    19e4:	290d2ba8 	stp	w8, w10, [x29,#104]
    19e8:	52800001 	mov	w1, #0x0                   	// #0
    19ec:	f9003ba3 	str	x3, [x29,#112]
    19f0:	b9007ba4 	str	w4, [x29,#120]
    19f4:	94000289 	bl	2418 <memchr>
/home/lagadanu/Desktop/qemu/optee_os/lib/libutils/ext/snprintk.c:453
    19f8:	294d2ba8 	ldp	w8, w10, [x29,#104]
    19fc:	b9407ba4 	ldr	w4, [x29,#120]
    1a00:	f9403ba3 	ldr	x3, [x29,#112]
    1a04:	b4000080 	cbz	x0, 1a14 <__vsnprintf+0x26c>
/home/lagadanu/Desktop/qemu/optee_os/lib/libutils/ext/snprintk.c:454
    1a08:	cb030000 	sub	x0, x0, x3
    1a0c:	6b00009f 	cmp	w4, w0
    1a10:	1a80d084 	csel	w4, w4, w0, le
/home/lagadanu/Desktop/qemu/optee_os/lib/libutils/ext/snprintk.c:285
    1a14:	52800000 	mov	w0, #0x0                   	// #0
/home/lagadanu/Desktop/qemu/optee_os/lib/libutils/ext/snprintk.c:461
    1a18:	52800001 	mov	w1, #0x0                   	// #0
    1a1c:	14000144 	b	1f2c <__vsnprintf+0x784>
/home/lagadanu/Desktop/qemu/optee_os/lib/libutils/ext/snprintk.c:291
    1a20:	7101e11f 	cmp	w8, #0x78
    1a24:	540037e0 	b.eq	2120 <__vsnprintf+0x978>
    1a28:	7101e91f 	cmp	w8, #0x7a
    1a2c:	54000ba0 	b.eq	1ba0 <__vsnprintf+0x3f8>
    1a30:	7101d51f 	cmp	w8, #0x75
    1a34:	54fff1a1 	b.ne	1868 <__vsnprintf+0xc0>
/home/lagadanu/Desktop/qemu/optee_os/lib/libutils/ext/snprintk.c:467
    1a38:	363832b5 	tbz	w21, #7, 208c <__vsnprintf+0x8e4>
    1a3c:	37f83400 	tbnz	w0, #31, 20bc <__vsnprintf+0x914>
    1a40:	91003e61 	add	x1, x19, #0xf
    1a44:	2a0003f4 	mov	w20, w0
    1a48:	aa1303e0 	mov	x0, x19
    1a4c:	927df033 	and	x19, x1, #0xfffffffffffffff8
    1a50:	f9400005 	ldr	x5, [x0]
/home/lagadanu/Desktop/qemu/optee_os/lib/libutils/ext/snprintk.c:468
    1a54:	52800020 	mov	w0, #0x1                   	// #1
    1a58:	17ffffb7 	b	1934 <__vsnprintf+0x18c>
/home/lagadanu/Desktop/qemu/optee_os/lib/libutils/ext/snprintk.c:471
    1a5c:	d0000037 	adrp	x23, 7000 <mpa_init_static_fmm_context+0x38>
    1a60:	913822f7 	add	x23, x23, #0xe08
/home/lagadanu/Desktop/qemu/optee_os/lib/libutils/ext/snprintk.c:475
    1a64:	36383675 	tbz	w21, #7, 2130 <__vsnprintf+0x988>
    1a68:	37f837c0 	tbnz	w0, #31, 2160 <__vsnprintf+0x9b8>
    1a6c:	91003e61 	add	x1, x19, #0xf
    1a70:	2a0003f4 	mov	w20, w0
    1a74:	aa1303e0 	mov	x0, x19
    1a78:	927df033 	and	x19, x1, #0xfffffffffffffff8
    1a7c:	f9400005 	ldr	x5, [x0]
/home/lagadanu/Desktop/qemu/optee_os/lib/libutils/ext/snprintk.c:478
    1a80:	36000075 	tbz	w21, #0, 1a8c <__vsnprintf+0x2e4>
    1a84:	b4000045 	cbz	x5, 1a8c <__vsnprintf+0x2e4>
/home/lagadanu/Desktop/qemu/optee_os/lib/libutils/ext/snprintk.c:479
    1a88:	321f02b5 	orr	w21, w21, #0x2
/home/lagadanu/Desktop/qemu/optee_os/lib/libutils/ext/snprintk.c:476
    1a8c:	52800040 	mov	w0, #0x2                   	// #2
    1a90:	17ffffa9 	b	1934 <__vsnprintf+0x18c>
/home/lagadanu/Desktop/qemu/optee_os/lib/libutils/ext/snprintk.c:299
    1a94:	7100003f 	cmp	w1, #0x0
    1a98:	1a861021 	csel	w1, w1, w6, ne
    1a9c:	17ffff87 	b	18b8 <__vsnprintf+0x110>
/home/lagadanu/Desktop/qemu/optee_os/lib/libutils/ext/snprintk.c:302
    1aa0:	320002b5 	orr	w21, w21, #0x1
    1aa4:	17ffff85 	b	18b8 <__vsnprintf+0x110>
/home/lagadanu/Desktop/qemu/optee_os/lib/libutils/ext/snprintk.c:311
    1aa8:	37f80120 	tbnz	w0, #31, 1acc <__vsnprintf+0x324>
    1aac:	91002e63 	add	x3, x19, #0xb
    1ab0:	aa1303e2 	mov	x2, x19
    1ab4:	927df073 	and	x19, x3, #0xfffffffffffffff8
    1ab8:	b940004a 	ldr	w10, [x2]
    1abc:	36ffefea 	tbz	w10, #31, 18b8 <__vsnprintf+0x110>
/home/lagadanu/Desktop/qemu/optee_os/lib/libutils/ext/snprintk.c:313
    1ac0:	4b0a03ea 	neg	w10, w10
/home/lagadanu/Desktop/qemu/optee_os/lib/libutils/ext/snprintk.c:316
    1ac4:	321e02b5 	orr	w21, w21, #0x4
    1ac8:	17ffff7c 	b	18b8 <__vsnprintf+0x110>
/home/lagadanu/Desktop/qemu/optee_os/lib/libutils/ext/snprintk.c:311
    1acc:	11002003 	add	w3, w0, #0x8
    1ad0:	7100007f 	cmp	w3, #0x0
    1ad4:	540000cd 	b.le	1aec <__vsnprintf+0x344>
    1ad8:	91002e67 	add	x7, x19, #0xb
    1adc:	aa1303e2 	mov	x2, x19
    1ae0:	2a0303e0 	mov	w0, w3
    1ae4:	927df0f3 	and	x19, x7, #0xfffffffffffffff8
    1ae8:	17fffff4 	b	1ab8 <__vsnprintf+0x310>
    1aec:	8b20c382 	add	x2, x28, w0, sxtw
    1af0:	2a0303e0 	mov	w0, w3
    1af4:	17fffff1 	b	1ab8 <__vsnprintf+0x310>
/home/lagadanu/Desktop/qemu/optee_os/lib/libutils/ext/snprintk.c:322
    1af8:	39400328 	ldrb	w8, [x25]
    1afc:	91000723 	add	x3, x25, #0x1
    1b00:	7100a91f 	cmp	w8, #0x2a
    1b04:	54000140 	b.eq	1b2c <__vsnprintf+0x384>
    1b08:	aa0303f9 	mov	x25, x3
    1b0c:	52800004 	mov	w4, #0x0                   	// #0
/home/lagadanu/Desktop/qemu/optee_os/lib/libutils/ext/snprintk.c:328
    1b10:	5100c102 	sub	w2, w8, #0x30
    1b14:	7100245f 	cmp	w2, #0x9
    1b18:	54ffe8e8 	b.hi	1834 <__vsnprintf+0x8c>
/home/lagadanu/Desktop/qemu/optee_os/lib/libutils/ext/snprintk.c:329
    1b1c:	52800143 	mov	w3, #0xa                   	// #10
/home/lagadanu/Desktop/qemu/optee_os/lib/libutils/ext/snprintk.c:330
    1b20:	38401728 	ldrb	w8, [x25],#1
/home/lagadanu/Desktop/qemu/optee_os/lib/libutils/ext/snprintk.c:329
    1b24:	1b030884 	madd	w4, w4, w3, w2
    1b28:	17fffffa 	b	1b10 <__vsnprintf+0x368>
/home/lagadanu/Desktop/qemu/optee_os/lib/libutils/ext/snprintk.c:323
    1b2c:	37f80160 	tbnz	w0, #31, 1b58 <__vsnprintf+0x3b0>
    1b30:	91002e64 	add	x4, x19, #0xb
    1b34:	2a0003e2 	mov	w2, w0
    1b38:	aa1303e0 	mov	x0, x19
    1b3c:	927df093 	and	x19, x4, #0xfffffffffffffff8
/home/lagadanu/Desktop/qemu/optee_os/lib/libutils/ext/snprintk.c:324
    1b40:	b9400004 	ldr	w4, [x0]
/home/lagadanu/Desktop/qemu/optee_os/lib/libutils/ext/snprintk.c:322
    1b44:	aa0303f9 	mov	x25, x3
/home/lagadanu/Desktop/qemu/optee_os/lib/libutils/ext/snprintk.c:324
    1b48:	2a0203e0 	mov	w0, w2
    1b4c:	7100009f 	cmp	w4, #0x0
    1b50:	1a85a084 	csel	w4, w4, w5, ge
    1b54:	17ffff59 	b	18b8 <__vsnprintf+0x110>
/home/lagadanu/Desktop/qemu/optee_os/lib/libutils/ext/snprintk.c:323
    1b58:	11002002 	add	w2, w0, #0x8
    1b5c:	8b20c380 	add	x0, x28, w0, sxtw
    1b60:	7100005f 	cmp	w2, #0x0
    1b64:	54fffeed 	b.le	1b40 <__vsnprintf+0x398>
    1b68:	91002e64 	add	x4, x19, #0xb
    1b6c:	17fffff3 	b	1b38 <__vsnprintf+0x390>
/home/lagadanu/Desktop/qemu/optee_os/lib/libutils/ext/snprintk.c:340
    1b70:	321602b5 	orr	w21, w21, #0x400
    1b74:	17ffff51 	b	18b8 <__vsnprintf+0x110>
/home/lagadanu/Desktop/qemu/optee_os/lib/libutils/ext/snprintk.c:358
    1b78:	39400322 	ldrb	w2, [x25]
    1b7c:	7101b05f 	cmp	w2, #0x6c
    1b80:	54000081 	b.ne	1b90 <__vsnprintf+0x3e8>
/home/lagadanu/Desktop/qemu/optee_os/lib/libutils/ext/snprintk.c:359
    1b84:	91000739 	add	x25, x25, #0x1
/home/lagadanu/Desktop/qemu/optee_os/lib/libutils/ext/snprintk.c:366
    1b88:	321b02b5 	orr	w21, w21, #0x20
    1b8c:	17ffff4b 	b	18b8 <__vsnprintf+0x110>
/home/lagadanu/Desktop/qemu/optee_os/lib/libutils/ext/snprintk.c:362
    1b90:	321c02b5 	orr	w21, w21, #0x10
    1b94:	17ffff49 	b	18b8 <__vsnprintf+0x110>
/home/lagadanu/Desktop/qemu/optee_os/lib/libutils/ext/snprintk.c:369
    1b98:	321802b5 	orr	w21, w21, #0x100
    1b9c:	17ffff47 	b	18b8 <__vsnprintf+0x110>
/home/lagadanu/Desktop/qemu/optee_os/lib/libutils/ext/snprintk.c:372
    1ba0:	321702b5 	orr	w21, w21, #0x200
    1ba4:	17ffff45 	b	18b8 <__vsnprintf+0x110>
/home/lagadanu/Desktop/qemu/optee_os/lib/libutils/ext/snprintk.c:375
    1ba8:	37f80140 	tbnz	w0, #31, 1bd0 <__vsnprintf+0x428>
    1bac:	91002e61 	add	x1, x19, #0xb
    1bb0:	2a0003f4 	mov	w20, w0
    1bb4:	aa1303e0 	mov	x0, x19
    1bb8:	927df033 	and	x19, x1, #0xfffffffffffffff8
    1bbc:	910303a3 	add	x3, x29, #0xc0
    1bc0:	b9400000 	ldr	w0, [x0]
    1bc4:	381d8c60 	strb	w0, [x3,#-40]!
/home/lagadanu/Desktop/qemu/optee_os/lib/libutils/ext/snprintk.c:546
    1bc8:	52800024 	mov	w4, #0x1                   	// #1
    1bcc:	17ffff92 	b	1a14 <__vsnprintf+0x26c>
/home/lagadanu/Desktop/qemu/optee_os/lib/libutils/ext/snprintk.c:375
    1bd0:	11002014 	add	w20, w0, #0x8
    1bd4:	8b20c380 	add	x0, x28, w0, sxtw
    1bd8:	7100029f 	cmp	w20, #0x0
    1bdc:	54ffff0d 	b.le	1bbc <__vsnprintf+0x414>
    1be0:	91002e61 	add	x1, x19, #0xb
    1be4:	17fffff4 	b	1bb4 <__vsnprintf+0x40c>
/home/lagadanu/Desktop/qemu/optee_os/lib/libutils/ext/snprintk.c:380
    1be8:	321c02b5 	orr	w21, w21, #0x10
/home/lagadanu/Desktop/qemu/optee_os/lib/libutils/ext/snprintk.c:384
    1bec:	36380515 	tbz	w21, #7, 1c8c <__vsnprintf+0x4e4>
    1bf0:	37f80660 	tbnz	w0, #31, 1cbc <__vsnprintf+0x514>
    1bf4:	91003e62 	add	x2, x19, #0xf
    1bf8:	2a0003f4 	mov	w20, w0
    1bfc:	aa1303e0 	mov	x0, x19
    1c00:	927df053 	and	x19, x2, #0xfffffffffffffff8
    1c04:	f9400005 	ldr	x5, [x0]
/home/lagadanu/Desktop/qemu/optee_os/lib/libutils/ext/snprintk.c:389
    1c08:	52800020 	mov	w0, #0x1                   	// #1
/home/lagadanu/Desktop/qemu/optee_os/lib/libutils/ext/snprintk.c:385
    1c0c:	b6f80065 	tbz	x5, #63, 1c18 <__vsnprintf+0x470>
/home/lagadanu/Desktop/qemu/optee_os/lib/libutils/ext/snprintk.c:386
    1c10:	cb0503e5 	neg	x5, x5
/home/lagadanu/Desktop/qemu/optee_os/lib/libutils/ext/snprintk.c:387
    1c14:	528005a1 	mov	w1, #0x2d                  	// #45
/home/lagadanu/Desktop/qemu/optee_os/lib/libutils/ext/snprintk.c:489
    1c18:	3100049f 	cmn	w4, #0x1
    1c1c:	12157aa2 	and	w2, w21, #0xfffffbff
    1c20:	1a951055 	csel	w21, w2, w21, ne
/home/lagadanu/Desktop/qemu/optee_os/lib/libutils/ext/snprintk.c:497
    1c24:	f10000bf 	cmp	x5, #0x0
    1c28:	7a400880 	ccmp	w4, #0x0, #0x0, eq
/home/lagadanu/Desktop/qemu/optee_os/lib/libutils/ext/snprintk.c:496
    1c2c:	91009703 	add	x3, x24, #0x25
/home/lagadanu/Desktop/qemu/optee_os/lib/libutils/ext/snprintk.c:497
    1c30:	54000260 	b.eq	1c7c <__vsnprintf+0x4d4>
/home/lagadanu/Desktop/qemu/optee_os/lib/libutils/ext/snprintk.c:503
    1c34:	7100041f 	cmp	w0, #0x1
    1c38:	54002c60 	b.eq	21c4 <__vsnprintf+0xa1c>
    1c3c:	7100081f 	cmp	w0, #0x2
    1c40:	54002e40 	b.eq	2208 <__vsnprintf+0xa60>
    1c44:	91009700 	add	x0, x24, #0x25
/home/lagadanu/Desktop/qemu/optee_os/lib/libutils/ext/snprintk.c:506
    1c48:	120008a2 	and	w2, w5, #0x7
    1c4c:	d1000403 	sub	x3, x0, #0x1
    1c50:	1100c042 	add	w2, w2, #0x30
    1c54:	381ff002 	sturb	w2, [x0,#-1]
/home/lagadanu/Desktop/qemu/optee_os/lib/libutils/ext/snprintk.c:507
    1c58:	d343fca5 	lsr	x5, x5, #3
/home/lagadanu/Desktop/qemu/optee_os/lib/libutils/ext/snprintk.c:508
    1c5c:	b5002c45 	cbnz	x5, 21e4 <__vsnprintf+0xa3c>
/home/lagadanu/Desktop/qemu/optee_os/lib/libutils/ext/snprintk.c:510
    1c60:	7100c05f 	cmp	w2, #0x30
    1c64:	1a9f07e2 	cset	w2, ne
    1c68:	6a0202bf 	tst	w21, w2
    1c6c:	54000080 	b.eq	1c7c <__vsnprintf+0x4d4>
/home/lagadanu/Desktop/qemu/optee_os/lib/libutils/ext/snprintk.c:511
    1c70:	52800602 	mov	w2, #0x30                  	// #48
    1c74:	381ff062 	sturb	w2, [x3,#-1]
    1c78:	d1000803 	sub	x3, x0, #0x2
/home/lagadanu/Desktop/qemu/optee_os/lib/libutils/ext/snprintk.c:537
    1c7c:	91009702 	add	x2, x24, #0x25
    1c80:	2a0403e0 	mov	w0, w4
    1c84:	4b030044 	sub	w4, w2, w3
    1c88:	140000a9 	b	1f2c <__vsnprintf+0x784>
/home/lagadanu/Desktop/qemu/optee_os/lib/libutils/ext/snprintk.c:384
    1c8c:	3747fb35 	tbnz	w21, #8, 1bf0 <__vsnprintf+0x448>
    1c90:	374ffb15 	tbnz	w21, #9, 1bf0 <__vsnprintf+0x448>
    1c94:	372ffaf5 	tbnz	w21, #5, 1bf0 <__vsnprintf+0x448>
    1c98:	3727fad5 	tbnz	w21, #4, 1bf0 <__vsnprintf+0x448>
    1c9c:	36300295 	tbz	w21, #6, 1cec <__vsnprintf+0x544>
    1ca0:	37f801a0 	tbnz	w0, #31, 1cd4 <__vsnprintf+0x52c>
    1ca4:	91002e62 	add	x2, x19, #0xb
    1ca8:	2a0003f4 	mov	w20, w0
    1cac:	aa1303e0 	mov	x0, x19
    1cb0:	927df053 	and	x19, x2, #0xfffffffffffffff8
    1cb4:	79800005 	ldrsh	x5, [x0]
    1cb8:	17ffffd4 	b	1c08 <__vsnprintf+0x460>
    1cbc:	11002014 	add	w20, w0, #0x8
    1cc0:	8b20c380 	add	x0, x28, w0, sxtw
    1cc4:	7100029f 	cmp	w20, #0x0
    1cc8:	54fff9ed 	b.le	1c04 <__vsnprintf+0x45c>
    1ccc:	91003e62 	add	x2, x19, #0xf
    1cd0:	17ffffcb 	b	1bfc <__vsnprintf+0x454>
    1cd4:	11002014 	add	w20, w0, #0x8
    1cd8:	8b20c380 	add	x0, x28, w0, sxtw
    1cdc:	7100029f 	cmp	w20, #0x0
    1ce0:	54fffead 	b.le	1cb4 <__vsnprintf+0x50c>
    1ce4:	91002e62 	add	x2, x19, #0xb
    1ce8:	17fffff1 	b	1cac <__vsnprintf+0x504>
    1cec:	37f800e0 	tbnz	w0, #31, 1d08 <__vsnprintf+0x560>
    1cf0:	91002e62 	add	x2, x19, #0xb
    1cf4:	2a0003f4 	mov	w20, w0
    1cf8:	aa1303e0 	mov	x0, x19
    1cfc:	927df053 	and	x19, x2, #0xfffffffffffffff8
    1d00:	b9800005 	ldrsw	x5, [x0]
    1d04:	17ffffc1 	b	1c08 <__vsnprintf+0x460>
    1d08:	11002014 	add	w20, w0, #0x8
    1d0c:	8b20c380 	add	x0, x28, w0, sxtw
    1d10:	7100029f 	cmp	w20, #0x0
    1d14:	54ffff6d 	b.le	1d00 <__vsnprintf+0x558>
    1d18:	91002e62 	add	x2, x19, #0xb
    1d1c:	17fffff7 	b	1cf8 <__vsnprintf+0x550>
/home/lagadanu/Desktop/qemu/optee_os/lib/libutils/ext/snprintk.c:392
    1d20:	36380155 	tbz	w21, #7, 1d48 <__vsnprintf+0x5a0>
/home/lagadanu/Desktop/qemu/optee_os/lib/libutils/ext/snprintk.c:401
    1d24:	37f802c0 	tbnz	w0, #31, 1d7c <__vsnprintf+0x5d4>
    1d28:	91003e61 	add	x1, x19, #0xf
    1d2c:	2a0003f4 	mov	w20, w0
    1d30:	aa1303e0 	mov	x0, x19
    1d34:	927df033 	and	x19, x1, #0xfffffffffffffff8
    1d38:	f9400000 	ldr	x0, [x0]
    1d3c:	93407f61 	sxtw	x1, w27
    1d40:	f9000001 	str	x1, [x0]
    1d44:	17fffead 	b	17f8 <__vsnprintf+0x50>
/home/lagadanu/Desktop/qemu/optee_os/lib/libutils/ext/snprintk.c:394
    1d48:	3747fef5 	tbnz	w21, #8, 1d24 <__vsnprintf+0x57c>
/home/lagadanu/Desktop/qemu/optee_os/lib/libutils/ext/snprintk.c:396
    1d4c:	374ffed5 	tbnz	w21, #9, 1d24 <__vsnprintf+0x57c>
/home/lagadanu/Desktop/qemu/optee_os/lib/libutils/ext/snprintk.c:398
    1d50:	372ffeb5 	tbnz	w21, #5, 1d24 <__vsnprintf+0x57c>
/home/lagadanu/Desktop/qemu/optee_os/lib/libutils/ext/snprintk.c:400
    1d54:	3727fe95 	tbnz	w21, #4, 1d24 <__vsnprintf+0x57c>
/home/lagadanu/Desktop/qemu/optee_os/lib/libutils/ext/snprintk.c:402
    1d58:	363002b5 	tbz	w21, #6, 1dac <__vsnprintf+0x604>
/home/lagadanu/Desktop/qemu/optee_os/lib/libutils/ext/snprintk.c:403
    1d5c:	37f801c0 	tbnz	w0, #31, 1d94 <__vsnprintf+0x5ec>
    1d60:	91003e61 	add	x1, x19, #0xf
    1d64:	2a0003f4 	mov	w20, w0
    1d68:	aa1303e0 	mov	x0, x19
    1d6c:	927df033 	and	x19, x1, #0xfffffffffffffff8
    1d70:	f9400000 	ldr	x0, [x0]
    1d74:	7900001b 	strh	w27, [x0]
    1d78:	17fffea0 	b	17f8 <__vsnprintf+0x50>
/home/lagadanu/Desktop/qemu/optee_os/lib/libutils/ext/snprintk.c:401
    1d7c:	11002014 	add	w20, w0, #0x8
    1d80:	8b20c380 	add	x0, x28, w0, sxtw
    1d84:	7100029f 	cmp	w20, #0x0
    1d88:	54fffd8d 	b.le	1d38 <__vsnprintf+0x590>
    1d8c:	91003e61 	add	x1, x19, #0xf
    1d90:	17ffffe8 	b	1d30 <__vsnprintf+0x588>
/home/lagadanu/Desktop/qemu/optee_os/lib/libutils/ext/snprintk.c:403
    1d94:	11002014 	add	w20, w0, #0x8
    1d98:	8b20c380 	add	x0, x28, w0, sxtw
    1d9c:	7100029f 	cmp	w20, #0x0
    1da0:	54fffe8d 	b.le	1d70 <__vsnprintf+0x5c8>
    1da4:	91003e61 	add	x1, x19, #0xf
    1da8:	17fffff0 	b	1d68 <__vsnprintf+0x5c0>
/home/lagadanu/Desktop/qemu/optee_os/lib/libutils/ext/snprintk.c:405
    1dac:	37f80100 	tbnz	w0, #31, 1dcc <__vsnprintf+0x624>
    1db0:	91003e61 	add	x1, x19, #0xf
    1db4:	2a0003f4 	mov	w20, w0
    1db8:	aa1303e0 	mov	x0, x19
    1dbc:	927df033 	and	x19, x1, #0xfffffffffffffff8
    1dc0:	f9400000 	ldr	x0, [x0]
    1dc4:	b900001b 	str	w27, [x0]
    1dc8:	17fffe8c 	b	17f8 <__vsnprintf+0x50>
    1dcc:	11002014 	add	w20, w0, #0x8
    1dd0:	8b20c380 	add	x0, x28, w0, sxtw
    1dd4:	7100029f 	cmp	w20, #0x0
    1dd8:	54ffff4d 	b.le	1dc0 <__vsnprintf+0x618>
    1ddc:	91003e61 	add	x1, x19, #0xf
    1de0:	17fffff6 	b	1db8 <__vsnprintf+0x610>
/home/lagadanu/Desktop/qemu/optee_os/lib/libutils/ext/snprintk.c:411
    1de4:	3747d9b5 	tbnz	w21, #8, 1918 <__vsnprintf+0x170>
    1de8:	374fd995 	tbnz	w21, #9, 1918 <__vsnprintf+0x170>
    1dec:	372fd975 	tbnz	w21, #5, 1918 <__vsnprintf+0x170>
    1df0:	3727d955 	tbnz	w21, #4, 1918 <__vsnprintf+0x170>
    1df4:	36300295 	tbz	w21, #6, 1e44 <__vsnprintf+0x69c>
    1df8:	37f801a0 	tbnz	w0, #31, 1e2c <__vsnprintf+0x684>
    1dfc:	91002e61 	add	x1, x19, #0xb
    1e00:	2a0003f4 	mov	w20, w0
    1e04:	aa1303e0 	mov	x0, x19
    1e08:	927df033 	and	x19, x1, #0xfffffffffffffff8
    1e0c:	79400005 	ldrh	w5, [x0]
    1e10:	17fffec8 	b	1930 <__vsnprintf+0x188>
    1e14:	11002014 	add	w20, w0, #0x8
    1e18:	8b20c380 	add	x0, x28, w0, sxtw
    1e1c:	7100029f 	cmp	w20, #0x0
    1e20:	54ffd86d 	b.le	192c <__vsnprintf+0x184>
    1e24:	91003e61 	add	x1, x19, #0xf
    1e28:	17fffebf 	b	1924 <__vsnprintf+0x17c>
    1e2c:	11002014 	add	w20, w0, #0x8
    1e30:	8b20c380 	add	x0, x28, w0, sxtw
    1e34:	7100029f 	cmp	w20, #0x0
    1e38:	54fffead 	b.le	1e0c <__vsnprintf+0x664>
    1e3c:	91002e61 	add	x1, x19, #0xb
    1e40:	17fffff1 	b	1e04 <__vsnprintf+0x65c>
    1e44:	37f800e0 	tbnz	w0, #31, 1e60 <__vsnprintf+0x6b8>
    1e48:	91002e61 	add	x1, x19, #0xb
    1e4c:	2a0003f4 	mov	w20, w0
    1e50:	aa1303e0 	mov	x0, x19
    1e54:	927df033 	and	x19, x1, #0xfffffffffffffff8
    1e58:	b9400005 	ldr	w5, [x0]
    1e5c:	17fffeb5 	b	1930 <__vsnprintf+0x188>
    1e60:	11002014 	add	w20, w0, #0x8
    1e64:	8b20c380 	add	x0, x28, w0, sxtw
    1e68:	7100029f 	cmp	w20, #0x0
    1e6c:	54ffff6d 	b.le	1e58 <__vsnprintf+0x6b0>
    1e70:	91002e61 	add	x1, x19, #0xb
    1e74:	17fffff7 	b	1e50 <__vsnprintf+0x6a8>
/home/lagadanu/Desktop/qemu/optee_os/lib/libutils/ext/snprintk.c:415
    1e78:	b9407fa1 	ldr	w1, [x29,#124]
    1e7c:	34000b81 	cbz	w1, 1fec <__vsnprintf+0x844>
    1e80:	39400321 	ldrb	w1, [x25]
    1e84:	7101543f 	cmp	w1, #0x55
    1e88:	54000b21 	b.ne	1fec <__vsnprintf+0x844>
    1e8c:	39400721 	ldrb	w1, [x25,#1]
    1e90:	7101b03f 	cmp	w1, #0x6c
    1e94:	54000ac1 	b.ne	1fec <__vsnprintf+0x844>
/home/lagadanu/Desktop/qemu/optee_os/lib/libutils/ext/snprintk.c:420
    1e98:	91000b39 	add	x25, x25, #0x2
/home/lagadanu/Desktop/qemu/optee_os/lib/libutils/ext/snprintk.c:421
    1e9c:	37f809c0 	tbnz	w0, #31, 1fd4 <__vsnprintf+0x82c>
    1ea0:	91003e61 	add	x1, x19, #0xf
    1ea4:	2a0003f4 	mov	w20, w0
    1ea8:	aa1303e0 	mov	x0, x19
    1eac:	927df033 	and	x19, x1, #0xfffffffffffffff8
    1eb0:	f9400000 	ldr	x0, [x0]
uuid2str():
/home/lagadanu/Desktop/qemu/optee_os/lib/libutils/ext/snprintk.c:223
    1eb4:	90000042 	adrp	x2, 9000 <__func__.3181+0x410>
    1eb8:	b90073aa 	str	w10, [x29,#112]
    1ebc:	91039842 	add	x2, x2, #0xe6
    1ec0:	b9007ba8 	str	w8, [x29,#120]
    1ec4:	39403c01 	ldrb	w1, [x0,#15]
    1ec8:	79400804 	ldrh	w4, [x0,#4]
    1ecc:	39402407 	ldrb	w7, [x0,#9]
    1ed0:	39402006 	ldrb	w6, [x0,#8]
    1ed4:	79400c05 	ldrh	w5, [x0,#6]
    1ed8:	b9002be1 	str	w1, [sp,#40]
    1edc:	39403801 	ldrb	w1, [x0,#14]
    1ee0:	b90023e1 	str	w1, [sp,#32]
    1ee4:	39403401 	ldrb	w1, [x0,#13]
    1ee8:	b9001be1 	str	w1, [sp,#24]
    1eec:	39403001 	ldrb	w1, [x0,#12]
    1ef0:	b90013e1 	str	w1, [sp,#16]
    1ef4:	39402c01 	ldrb	w1, [x0,#11]
    1ef8:	b9000be1 	str	w1, [sp,#8]
    1efc:	39402801 	ldrb	w1, [x0,#10]
    1f00:	b90003e1 	str	w1, [sp]
    1f04:	d28004a1 	mov	x1, #0x25                  	// #37
    1f08:	b9400003 	ldr	w3, [x0]
    1f0c:	aa1803e0 	mov	x0, x24
    1f10:	94000125 	bl	23a4 <snprintk>
    1f14:	2a0003e4 	mov	w4, w0
    1f18:	b94073aa 	ldr	w10, [x29,#112]
kprintf():
/home/lagadanu/Desktop/qemu/optee_os/lib/libutils/ext/snprintk.c:423
    1f1c:	aa1803e3 	mov	x3, x24
    1f20:	b9407ba8 	ldr	w8, [x29,#120]
/home/lagadanu/Desktop/qemu/optee_os/lib/libutils/ext/snprintk.c:285
    1f24:	52800000 	mov	w0, #0x0                   	// #0
/home/lagadanu/Desktop/qemu/optee_os/lib/libutils/ext/snprintk.c:424
    1f28:	52800001 	mov	w1, #0x0                   	// #0
/home/lagadanu/Desktop/qemu/optee_os/lib/libutils/ext/snprintk.c:565
    1f2c:	6b04001f 	cmp	w0, w4
    1f30:	1a84a006 	csel	w6, w0, w4, ge
/home/lagadanu/Desktop/qemu/optee_os/lib/libutils/ext/snprintk.c:566
    1f34:	34001781 	cbz	w1, 2224 <__vsnprintf+0xa7c>
/home/lagadanu/Desktop/qemu/optee_os/lib/libutils/ext/snprintk.c:567
    1f38:	110004c6 	add	w6, w6, #0x1
/home/lagadanu/Desktop/qemu/optee_os/lib/libutils/ext/snprintk.c:572
    1f3c:	6b06015f 	cmp	w10, w6
    1f40:	1a86a142 	csel	w2, w10, w6, ge
    1f44:	0b02037b 	add	w27, w27, w2
/home/lagadanu/Desktop/qemu/optee_os/lib/libutils/ext/snprintk.c:575
    1f48:	52808082 	mov	w2, #0x404                 	// #1028
    1f4c:	6a0202a2 	ands	w2, w21, w2
    1f50:	540000a1 	b.ne	1f64 <__vsnprintf+0x7bc>
/home/lagadanu/Desktop/qemu/optee_os/lib/libutils/ext/snprintk.c:576
    1f54:	4b060145 	sub	w5, w10, w6
/home/lagadanu/Desktop/qemu/optee_os/lib/libutils/ext/snprintk.c:578
    1f58:	52800407 	mov	w7, #0x20                  	// #32
/home/lagadanu/Desktop/qemu/optee_os/lib/libutils/ext/snprintk.c:577
    1f5c:	710000bf 	cmp	w5, #0x0
    1f60:	540016ac 	b.gt	2234 <__vsnprintf+0xa8c>
/home/lagadanu/Desktop/qemu/optee_os/lib/libutils/ext/snprintk.c:582
    1f64:	34001801 	cbz	w1, 2264 <__vsnprintf+0xabc>
/home/lagadanu/Desktop/qemu/optee_os/lib/libutils/ext/snprintk.c:583
    1f68:	b5001756 	cbnz	x22, 2250 <__vsnprintf+0xaa8>
/home/lagadanu/Desktop/qemu/optee_os/lib/libutils/ext/snprintk.c:586
    1f6c:	d2800016 	mov	x22, #0x0                   	// #0
/home/lagadanu/Desktop/qemu/optee_os/lib/libutils/ext/snprintk.c:590
    1f70:	7110005f 	cmp	w2, #0x400
    1f74:	540000a1 	b.ne	1f88 <__vsnprintf+0x7e0>
/home/lagadanu/Desktop/qemu/optee_os/lib/libutils/ext/snprintk.c:591
    1f78:	4b060141 	sub	w1, w10, w6
/home/lagadanu/Desktop/qemu/optee_os/lib/libutils/ext/snprintk.c:593
    1f7c:	52800602 	mov	w2, #0x30                  	// #48
/home/lagadanu/Desktop/qemu/optee_os/lib/libutils/ext/snprintk.c:592
    1f80:	7100003f 	cmp	w1, #0x0
    1f84:	540018ec 	b.gt	22a0 <__vsnprintf+0xaf8>
/home/lagadanu/Desktop/qemu/optee_os/lib/libutils/ext/snprintk.c:597
    1f88:	4b040000 	sub	w0, w0, w4
/home/lagadanu/Desktop/qemu/optee_os/lib/libutils/ext/snprintk.c:599
    1f8c:	52800601 	mov	w1, #0x30                  	// #48
/home/lagadanu/Desktop/qemu/optee_os/lib/libutils/ext/snprintk.c:598
    1f90:	7100001f 	cmp	w0, #0x0
    1f94:	5400194c 	b.gt	22bc <__vsnprintf+0xb14>
    1f98:	8b244064 	add	x4, x3, w4, uxtw
/home/lagadanu/Desktop/qemu/optee_os/lib/libutils/ext/snprintk.c:602
    1f9c:	eb04007f 	cmp	x3, x4
    1fa0:	540019c1 	b.ne	22d8 <__vsnprintf+0xb30>
/home/lagadanu/Desktop/qemu/optee_os/lib/libutils/ext/snprintk.c:605
    1fa4:	3617c2b5 	tbz	w21, #2, 17f8 <__vsnprintf+0x50>
/home/lagadanu/Desktop/qemu/optee_os/lib/libutils/ext/snprintk.c:606
    1fa8:	4b06014a 	sub	w10, w10, w6
/home/lagadanu/Desktop/qemu/optee_os/lib/libutils/ext/snprintk.c:608
    1fac:	52800400 	mov	w0, #0x20                  	// #32
/home/lagadanu/Desktop/qemu/optee_os/lib/libutils/ext/snprintk.c:607
    1fb0:	7100015f 	cmp	w10, #0x0
    1fb4:	54ffc22d 	b.le	17f8 <__vsnprintf+0x50>
/home/lagadanu/Desktop/qemu/optee_os/lib/libutils/ext/snprintk.c:608
    1fb8:	b40000b6 	cbz	x22, 1fcc <__vsnprintf+0x824>
    1fbc:	eb16035f 	cmp	x26, x22
    1fc0:	54000069 	b.ls	1fcc <__vsnprintf+0x824>
    1fc4:	390002c0 	strb	w0, [x22]
    1fc8:	910006d6 	add	x22, x22, #0x1
    1fcc:	5100054a 	sub	w10, w10, #0x1
    1fd0:	17fffff8 	b	1fb0 <__vsnprintf+0x808>
/home/lagadanu/Desktop/qemu/optee_os/lib/libutils/ext/snprintk.c:421
    1fd4:	11002014 	add	w20, w0, #0x8
    1fd8:	8b20c380 	add	x0, x28, w0, sxtw
    1fdc:	7100029f 	cmp	w20, #0x0
    1fe0:	54fff68d 	b.le	1eb0 <__vsnprintf+0x708>
    1fe4:	91003e61 	add	x1, x19, #0xf
    1fe8:	17ffffb0 	b	1ea8 <__vsnprintf+0x700>
/home/lagadanu/Desktop/qemu/optee_os/lib/libutils/ext/snprintk.c:435
    1fec:	37f801c0 	tbnz	w0, #31, 2024 <__vsnprintf+0x87c>
    1ff0:	91003e61 	add	x1, x19, #0xf
    1ff4:	2a0003f4 	mov	w20, w0
    1ff8:	aa1303e0 	mov	x0, x19
    1ffc:	927df033 	and	x19, x1, #0xfffffffffffffff8
/home/lagadanu/Desktop/qemu/optee_os/lib/libutils/ext/snprintk.c:437
    2000:	b0000037 	adrp	x23, 7000 <mpa_init_static_fmm_context+0x38>
    2004:	913822f7 	add	x23, x23, #0xe08
/home/lagadanu/Desktop/qemu/optee_os/lib/libutils/ext/snprintk.c:435
    2008:	f9400005 	ldr	x5, [x0]
/home/lagadanu/Desktop/qemu/optee_os/lib/libutils/ext/snprintk.c:438
    200c:	321f02b5 	orr	w21, w21, #0x2
/home/lagadanu/Desktop/qemu/optee_os/lib/libutils/ext/snprintk.c:437
    2010:	910062f7 	add	x23, x23, #0x18
/home/lagadanu/Desktop/qemu/optee_os/lib/libutils/ext/snprintk.c:482
    2014:	52800001 	mov	w1, #0x0                   	// #0
/home/lagadanu/Desktop/qemu/optee_os/lib/libutils/ext/snprintk.c:439
    2018:	52800f08 	mov	w8, #0x78                  	// #120
/home/lagadanu/Desktop/qemu/optee_os/lib/libutils/ext/snprintk.c:436
    201c:	52800040 	mov	w0, #0x2                   	// #2
    2020:	17fffefe 	b	1c18 <__vsnprintf+0x470>
/home/lagadanu/Desktop/qemu/optee_os/lib/libutils/ext/snprintk.c:435
    2024:	11002014 	add	w20, w0, #0x8
    2028:	8b20c380 	add	x0, x28, w0, sxtw
    202c:	7100029f 	cmp	w20, #0x0
    2030:	54fffe8d 	b.le	2000 <__vsnprintf+0x858>
    2034:	91003e61 	add	x1, x19, #0xf
    2038:	17fffff0 	b	1ff8 <__vsnprintf+0x850>
/home/lagadanu/Desktop/qemu/optee_os/lib/libutils/ext/snprintk.c:442
    203c:	11002014 	add	w20, w0, #0x8
    2040:	8b20c380 	add	x0, x28, w0, sxtw
    2044:	7100029f 	cmp	w20, #0x0
    2048:	54ffcbcd 	b.le	19c0 <__vsnprintf+0x218>
    204c:	91003e61 	add	x1, x19, #0xf
    2050:	17fffe5a 	b	19b8 <__vsnprintf+0x210>
/home/lagadanu/Desktop/qemu/optee_os/lib/libutils/ext/snprintk.c:460
    2054:	aa0303e0 	mov	x0, x3
    2058:	b9006fa8 	str	w8, [x29,#108]
    205c:	f9003ba3 	str	x3, [x29,#112]
    2060:	b9007baa 	str	w10, [x29,#120]
    2064:	940000f8 	bl	2444 <strlen>
/home/lagadanu/Desktop/qemu/optee_os/lib/libutils/ext/snprintk.c:461
    2068:	52800001 	mov	w1, #0x0                   	// #0
/home/lagadanu/Desktop/qemu/optee_os/lib/libutils/ext/snprintk.c:460
    206c:	2a0003e4 	mov	w4, w0
    2070:	b9406fa8 	ldr	w8, [x29,#108]
/home/lagadanu/Desktop/qemu/optee_os/lib/libutils/ext/snprintk.c:285
    2074:	52800000 	mov	w0, #0x0                   	// #0
    2078:	b9407baa 	ldr	w10, [x29,#120]
    207c:	f9403ba3 	ldr	x3, [x29,#112]
    2080:	17ffffab 	b	1f2c <__vsnprintf+0x784>
/home/lagadanu/Desktop/qemu/optee_os/lib/libutils/ext/snprintk.c:464
    2084:	321c02b5 	orr	w21, w21, #0x10
    2088:	17fffe6c 	b	1a38 <__vsnprintf+0x290>
/home/lagadanu/Desktop/qemu/optee_os/lib/libutils/ext/snprintk.c:467
    208c:	3747cd95 	tbnz	w21, #8, 1a3c <__vsnprintf+0x294>
    2090:	374fcd75 	tbnz	w21, #9, 1a3c <__vsnprintf+0x294>
    2094:	372fcd55 	tbnz	w21, #5, 1a3c <__vsnprintf+0x294>
    2098:	3727cd35 	tbnz	w21, #4, 1a3c <__vsnprintf+0x294>
    209c:	36300295 	tbz	w21, #6, 20ec <__vsnprintf+0x944>
    20a0:	37f801a0 	tbnz	w0, #31, 20d4 <__vsnprintf+0x92c>
    20a4:	91002e61 	add	x1, x19, #0xb
    20a8:	2a0003f4 	mov	w20, w0
    20ac:	aa1303e0 	mov	x0, x19
    20b0:	927df033 	and	x19, x1, #0xfffffffffffffff8
    20b4:	79400005 	ldrh	w5, [x0]
    20b8:	17fffe67 	b	1a54 <__vsnprintf+0x2ac>
    20bc:	11002014 	add	w20, w0, #0x8
    20c0:	8b20c380 	add	x0, x28, w0, sxtw
    20c4:	7100029f 	cmp	w20, #0x0
    20c8:	54ffcc4d 	b.le	1a50 <__vsnprintf+0x2a8>
    20cc:	91003e61 	add	x1, x19, #0xf
    20d0:	17fffe5e 	b	1a48 <__vsnprintf+0x2a0>
    20d4:	11002014 	add	w20, w0, #0x8
    20d8:	8b20c380 	add	x0, x28, w0, sxtw
    20dc:	7100029f 	cmp	w20, #0x0
    20e0:	54fffead 	b.le	20b4 <__vsnprintf+0x90c>
    20e4:	91002e61 	add	x1, x19, #0xb
    20e8:	17fffff1 	b	20ac <__vsnprintf+0x904>
    20ec:	37f800e0 	tbnz	w0, #31, 2108 <__vsnprintf+0x960>
    20f0:	91002e61 	add	x1, x19, #0xb
    20f4:	2a0003f4 	mov	w20, w0
    20f8:	aa1303e0 	mov	x0, x19
    20fc:	927df033 	and	x19, x1, #0xfffffffffffffff8
    2100:	b9400005 	ldr	w5, [x0]
    2104:	17fffe54 	b	1a54 <__vsnprintf+0x2ac>
    2108:	11002014 	add	w20, w0, #0x8
    210c:	8b20c380 	add	x0, x28, w0, sxtw
    2110:	7100029f 	cmp	w20, #0x0
    2114:	54ffff6d 	b.le	2100 <__vsnprintf+0x958>
    2118:	91002e61 	add	x1, x19, #0xb
    211c:	17fffff7 	b	20f8 <__vsnprintf+0x950>
/home/lagadanu/Desktop/qemu/optee_os/lib/libutils/ext/snprintk.c:474
    2120:	b0000037 	adrp	x23, 7000 <mpa_init_static_fmm_context+0x38>
    2124:	913822f7 	add	x23, x23, #0xe08
    2128:	910062f7 	add	x23, x23, #0x18
    212c:	17fffe4e 	b	1a64 <__vsnprintf+0x2bc>
/home/lagadanu/Desktop/qemu/optee_os/lib/libutils/ext/snprintk.c:475
    2130:	3747c9d5 	tbnz	w21, #8, 1a68 <__vsnprintf+0x2c0>
    2134:	374fc9b5 	tbnz	w21, #9, 1a68 <__vsnprintf+0x2c0>
    2138:	372fc995 	tbnz	w21, #5, 1a68 <__vsnprintf+0x2c0>
    213c:	3727c975 	tbnz	w21, #4, 1a68 <__vsnprintf+0x2c0>
    2140:	36300295 	tbz	w21, #6, 2190 <__vsnprintf+0x9e8>
    2144:	37f801a0 	tbnz	w0, #31, 2178 <__vsnprintf+0x9d0>
    2148:	91002e61 	add	x1, x19, #0xb
    214c:	2a0003f4 	mov	w20, w0
    2150:	aa1303e0 	mov	x0, x19
    2154:	927df033 	and	x19, x1, #0xfffffffffffffff8
    2158:	79400005 	ldrh	w5, [x0]
    215c:	17fffe49 	b	1a80 <__vsnprintf+0x2d8>
    2160:	11002014 	add	w20, w0, #0x8
    2164:	8b20c380 	add	x0, x28, w0, sxtw
    2168:	7100029f 	cmp	w20, #0x0
    216c:	54ffc88d 	b.le	1a7c <__vsnprintf+0x2d4>
    2170:	91003e61 	add	x1, x19, #0xf
    2174:	17fffe40 	b	1a74 <__vsnprintf+0x2cc>
    2178:	11002014 	add	w20, w0, #0x8
    217c:	8b20c380 	add	x0, x28, w0, sxtw
    2180:	7100029f 	cmp	w20, #0x0
    2184:	54fffead 	b.le	2158 <__vsnprintf+0x9b0>
    2188:	91002e61 	add	x1, x19, #0xb
    218c:	17fffff1 	b	2150 <__vsnprintf+0x9a8>
    2190:	37f800e0 	tbnz	w0, #31, 21ac <__vsnprintf+0xa04>
    2194:	91002e61 	add	x1, x19, #0xb
    2198:	2a0003f4 	mov	w20, w0
    219c:	aa1303e0 	mov	x0, x19
    21a0:	927df033 	and	x19, x1, #0xfffffffffffffff8
    21a4:	b9400005 	ldr	w5, [x0]
    21a8:	17fffe36 	b	1a80 <__vsnprintf+0x2d8>
    21ac:	11002014 	add	w20, w0, #0x8
    21b0:	8b20c380 	add	x0, x28, w0, sxtw
    21b4:	7100029f 	cmp	w20, #0x0
    21b8:	54ffff6d 	b.le	21a4 <__vsnprintf+0x9fc>
    21bc:	91002e61 	add	x1, x19, #0xb
    21c0:	17fffff7 	b	219c <__vsnprintf+0x9f4>
/home/lagadanu/Desktop/qemu/optee_os/lib/libutils/ext/snprintk.c:503
    21c4:	91009700 	add	x0, x24, #0x25
/home/lagadanu/Desktop/qemu/optee_os/lib/libutils/ext/snprintk.c:517
    21c8:	d2800146 	mov	x6, #0xa                   	// #10
/home/lagadanu/Desktop/qemu/optee_os/lib/libutils/ext/snprintk.c:516
    21cc:	f10024bf 	cmp	x5, #0x9
    21d0:	d1000403 	sub	x3, x0, #0x1
    21d4:	540000c8 	b.hi	21ec <__vsnprintf+0xa44>
/home/lagadanu/Desktop/qemu/optee_os/lib/libutils/ext/snprintk.c:520
    21d8:	1100c0a2 	add	w2, w5, #0x30
    21dc:	381ff002 	sturb	w2, [x0,#-1]
    21e0:	17fffea7 	b	1c7c <__vsnprintf+0x4d4>
/home/lagadanu/Desktop/qemu/optee_os/lib/libutils/ext/snprintk.c:508
    21e4:	aa0303e0 	mov	x0, x3
    21e8:	17fffe98 	b	1c48 <__vsnprintf+0x4a0>
/home/lagadanu/Desktop/qemu/optee_os/lib/libutils/ext/snprintk.c:517
    21ec:	aa0303e0 	mov	x0, x3
    21f0:	9ac608a3 	udiv	x3, x5, x6
    21f4:	9b069462 	msub	x2, x3, x6, x5
/home/lagadanu/Desktop/qemu/optee_os/lib/libutils/ext/snprintk.c:518
    21f8:	aa0303e5 	mov	x5, x3
/home/lagadanu/Desktop/qemu/optee_os/lib/libutils/ext/snprintk.c:517
    21fc:	1100c042 	add	w2, w2, #0x30
    2200:	39000002 	strb	w2, [x0]
    2204:	17fffff2 	b	21cc <__vsnprintf+0xa24>
/home/lagadanu/Desktop/qemu/optee_os/lib/libutils/ext/snprintk.c:503
    2208:	91009703 	add	x3, x24, #0x25
/home/lagadanu/Desktop/qemu/optee_os/lib/libutils/ext/snprintk.c:525
    220c:	92400ca0 	and	x0, x5, #0xf
/home/lagadanu/Desktop/qemu/optee_os/lib/libutils/ext/snprintk.c:526
    2210:	d344fca5 	lsr	x5, x5, #4
/home/lagadanu/Desktop/qemu/optee_os/lib/libutils/ext/snprintk.c:525
    2214:	38606ae0 	ldrb	w0, [x23,x0]
    2218:	381ffc60 	strb	w0, [x3,#-1]!
/home/lagadanu/Desktop/qemu/optee_os/lib/libutils/ext/snprintk.c:527
    221c:	b5ffff85 	cbnz	x5, 220c <__vsnprintf+0xa64>
    2220:	17fffe97 	b	1c7c <__vsnprintf+0x4d4>
/home/lagadanu/Desktop/qemu/optee_os/lib/libutils/ext/snprintk.c:569
    2224:	110008c2 	add	w2, w6, #0x2
    2228:	f27f02bf 	tst	x21, #0x2
    222c:	1a861046 	csel	w6, w2, w6, ne
    2230:	17ffff43 	b	1f3c <__vsnprintf+0x794>
/home/lagadanu/Desktop/qemu/optee_os/lib/libutils/ext/snprintk.c:578
    2234:	b40000b6 	cbz	x22, 2248 <__vsnprintf+0xaa0>
    2238:	eb16035f 	cmp	x26, x22
    223c:	54000069 	b.ls	2248 <__vsnprintf+0xaa0>
    2240:	390002c7 	strb	w7, [x22]
    2244:	910006d6 	add	x22, x22, #0x1
    2248:	510004a5 	sub	w5, w5, #0x1
    224c:	17ffff44 	b	1f5c <__vsnprintf+0x7b4>
/home/lagadanu/Desktop/qemu/optee_os/lib/libutils/ext/snprintk.c:583
    2250:	eb16035f 	cmp	x26, x22
    2254:	54ffe8e9 	b.ls	1f70 <__vsnprintf+0x7c8>
    2258:	390002c1 	strb	w1, [x22]
    225c:	910006d6 	add	x22, x22, #0x1
    2260:	17ffff44 	b	1f70 <__vsnprintf+0x7c8>
/home/lagadanu/Desktop/qemu/optee_os/lib/libutils/ext/snprintk.c:584
    2264:	360fe875 	tbz	w21, #1, 1f70 <__vsnprintf+0x7c8>
/home/lagadanu/Desktop/qemu/optee_os/lib/libutils/ext/snprintk.c:585
    2268:	b4ffe836 	cbz	x22, 1f6c <__vsnprintf+0x7c4>
    226c:	eb16035f 	cmp	x26, x22
    2270:	54ffe809 	b.ls	1f70 <__vsnprintf+0x7c8>
    2274:	52800601 	mov	w1, #0x30                  	// #48
    2278:	390002c1 	strb	w1, [x22]
/home/lagadanu/Desktop/qemu/optee_os/lib/libutils/ext/snprintk.c:586
    227c:	b10006c1 	adds	x1, x22, #0x1
    2280:	54ffe760 	b.eq	1f6c <__vsnprintf+0x7c4>
    2284:	eb01035f 	cmp	x26, x1
    2288:	54000089 	b.ls	2298 <__vsnprintf+0xaf0>
    228c:	390006c8 	strb	w8, [x22,#1]
    2290:	91000ad6 	add	x22, x22, #0x2
    2294:	17ffff37 	b	1f70 <__vsnprintf+0x7c8>
    2298:	aa0103f6 	mov	x22, x1
    229c:	17ffff35 	b	1f70 <__vsnprintf+0x7c8>
/home/lagadanu/Desktop/qemu/optee_os/lib/libutils/ext/snprintk.c:593
    22a0:	b40000b6 	cbz	x22, 22b4 <__vsnprintf+0xb0c>
    22a4:	eb16035f 	cmp	x26, x22
    22a8:	54000069 	b.ls	22b4 <__vsnprintf+0xb0c>
    22ac:	390002c2 	strb	w2, [x22]
    22b0:	910006d6 	add	x22, x22, #0x1
    22b4:	51000421 	sub	w1, w1, #0x1
    22b8:	17ffff32 	b	1f80 <__vsnprintf+0x7d8>
/home/lagadanu/Desktop/qemu/optee_os/lib/libutils/ext/snprintk.c:599
    22bc:	b40000b6 	cbz	x22, 22d0 <__vsnprintf+0xb28>
    22c0:	eb16035f 	cmp	x26, x22
    22c4:	54000069 	b.ls	22d0 <__vsnprintf+0xb28>
    22c8:	390002c1 	strb	w1, [x22]
    22cc:	910006d6 	add	x22, x22, #0x1
    22d0:	51000400 	sub	w0, w0, #0x1
    22d4:	17ffff2f 	b	1f90 <__vsnprintf+0x7e8>
/home/lagadanu/Desktop/qemu/optee_os/lib/libutils/ext/snprintk.c:603
    22d8:	b40000d6 	cbz	x22, 22f0 <__vsnprintf+0xb48>
    22dc:	eb16035f 	cmp	x26, x22
    22e0:	54000089 	b.ls	22f0 <__vsnprintf+0xb48>
    22e4:	39400060 	ldrb	w0, [x3]
    22e8:	910006d6 	add	x22, x22, #0x1
    22ec:	381ff2c0 	sturb	w0, [x22,#-1]
/home/lagadanu/Desktop/qemu/optee_os/lib/libutils/ext/snprintk.c:602
    22f0:	91000463 	add	x3, x3, #0x1
    22f4:	17ffff2a 	b	1f9c <__vsnprintf+0x7f4>
__vsnprintf():
/home/lagadanu/Desktop/qemu/optee_os/lib/libutils/ext/snprintk.c:143
    22f8:	f94047a0 	ldr	x0, [x29,#136]
    22fc:	f100001f 	cmp	x0, #0x0
    2300:	f94043a0 	ldr	x0, [x29,#128]
    2304:	fa401804 	ccmp	x0, #0x0, #0x4, ne
    2308:	540000c0 	b.eq	2320 <__vsnprintf+0xb78>
/home/lagadanu/Desktop/qemu/optee_os/lib/libutils/ext/snprintk.c:145
    230c:	f94043a1 	ldr	x1, [x29,#128]
    2310:	93407f60 	sxtw	x0, w27
    2314:	eb00003f 	cmp	x1, x0
    2318:	54000168 	b.hi	2344 <__vsnprintf+0xb9c>
/home/lagadanu/Desktop/qemu/optee_os/lib/libutils/ext/snprintk.c:146
    231c:	381ff35f 	sturb	wzr, [x26,#-1]
/home/lagadanu/Desktop/qemu/optee_os/lib/libutils/ext/snprintk.c:151
    2320:	2a1b03e0 	mov	w0, w27
    2324:	a94453f3 	ldp	x19, x20, [sp,#64]
    2328:	a9455bf5 	ldp	x21, x22, [sp,#80]
    232c:	a94663f7 	ldp	x23, x24, [sp,#96]
    2330:	a9476bf9 	ldp	x25, x26, [sp,#112]
    2334:	a94873fb 	ldp	x27, x28, [sp,#128]
    2338:	a9437bfd 	ldp	x29, x30, [sp,#48]
    233c:	9103c3ff 	add	sp, sp, #0xf0
    2340:	d65f03c0 	ret
/home/lagadanu/Desktop/qemu/optee_os/lib/libutils/ext/snprintk.c:148
    2344:	f94047a1 	ldr	x1, [x29,#136]
    2348:	3820683f 	strb	wzr, [x1,x0]
/home/lagadanu/Desktop/qemu/optee_os/lib/libutils/ext/snprintk.c:150
    234c:	17fffff5 	b	2320 <__vsnprintf+0xb78>

0000000000002350 <vsnprintk>:
vsnprintk():
/home/lagadanu/Desktop/qemu/optee_os/lib/libutils/ext/snprintk.c:129
    2350:	a9bb7bfd 	stp	x29, x30, [sp,#-80]!
    2354:	910003fd 	mov	x29, sp
    2358:	a90153f3 	stp	x19, x20, [sp,#16]
    235c:	aa0003f3 	mov	x19, x0
    2360:	f90013f5 	str	x21, [sp,#32]
    2364:	aa0103f4 	mov	x20, x1
    2368:	aa0203f5 	mov	x21, x2
/home/lagadanu/Desktop/qemu/optee_os/lib/libutils/ext/snprintk.c:130
    236c:	aa0303e1 	mov	x1, x3
    2370:	9100c3a0 	add	x0, x29, #0x30
    2374:	d2800402 	mov	x2, #0x20                  	// #32
    2378:	97fffc55 	bl	14cc <memcpy>
    237c:	aa0003e3 	mov	x3, x0
    2380:	aa1503e2 	mov	x2, x21
    2384:	aa1403e1 	mov	x1, x20
    2388:	52800024 	mov	w4, #0x1                   	// #1
    238c:	aa1303e0 	mov	x0, x19
    2390:	97fffd06 	bl	17a8 <__vsnprintf>
/home/lagadanu/Desktop/qemu/optee_os/lib/libutils/ext/snprintk.c:131
    2394:	f94013f5 	ldr	x21, [sp,#32]
    2398:	a94153f3 	ldp	x19, x20, [sp,#16]
    239c:	a8c57bfd 	ldp	x29, x30, [sp],#80
    23a0:	d65f03c0 	ret

00000000000023a4 <snprintk>:
snprintk():
/home/lagadanu/Desktop/qemu/optee_os/lib/libutils/ext/snprintk.c:112
    23a4:	a9b07bfd 	stp	x29, x30, [sp,#-256]!
    23a8:	910003fd 	mov	x29, sp
    23ac:	a90d93a3 	stp	x3, x4, [x29,#216]
/home/lagadanu/Desktop/qemu/optee_os/lib/libutils/ext/snprintk.c:116
    23b0:	910403a3 	add	x3, x29, #0x100
    23b4:	a9030fa3 	stp	x3, x3, [x29,#48]
    23b8:	910343a3 	add	x3, x29, #0xd0
    23bc:	f90023a3 	str	x3, [x29,#64]
    23c0:	128004e3 	mov	w3, #0xffffffd8            	// #-40
    23c4:	b9004ba3 	str	w3, [x29,#72]
    23c8:	12800fe3 	mov	w3, #0xffffff80            	// #-128
    23cc:	b9004fa3 	str	w3, [x29,#76]
/home/lagadanu/Desktop/qemu/optee_os/lib/libutils/ext/snprintk.c:117
    23d0:	910043a3 	add	x3, x29, #0x10
/home/lagadanu/Desktop/qemu/optee_os/lib/libutils/ext/snprintk.c:112
    23d4:	a90e9ba5 	stp	x5, x6, [x29,#232]
/home/lagadanu/Desktop/qemu/optee_os/lib/libutils/ext/snprintk.c:117
    23d8:	a94317a4 	ldp	x4, x5, [x29,#48]
    23dc:	a90117a4 	stp	x4, x5, [x29,#16]
    23e0:	a94417a4 	ldp	x4, x5, [x29,#64]
/home/lagadanu/Desktop/qemu/optee_os/lib/libutils/ext/snprintk.c:112
    23e4:	3d8017a0 	str	q0, [x29,#80]
    23e8:	3d801ba1 	str	q1, [x29,#96]
    23ec:	3d801fa2 	str	q2, [x29,#112]
    23f0:	3d8023a3 	str	q3, [x29,#128]
    23f4:	3d8027a4 	str	q4, [x29,#144]
    23f8:	3d802ba5 	str	q5, [x29,#160]
    23fc:	3d802fa6 	str	q6, [x29,#176]
    2400:	3d8033a7 	str	q7, [x29,#192]
    2404:	f9007fa7 	str	x7, [x29,#248]
/home/lagadanu/Desktop/qemu/optee_os/lib/libutils/ext/snprintk.c:117
    2408:	a90217a4 	stp	x4, x5, [x29,#32]
    240c:	97ffffd1 	bl	2350 <vsnprintk>
/home/lagadanu/Desktop/qemu/optee_os/lib/libutils/ext/snprintk.c:121
    2410:	a8d07bfd 	ldp	x29, x30, [sp],#256
    2414:	d65f03c0 	ret

0000000000002418 <memchr>:
memchr():
/home/lagadanu/Desktop/qemu/optee_os/lib/libutils/isoc/newlib/memchr.c:109
    2418:	12001c21 	and	w1, w1, #0xff
    241c:	8b020002 	add	x2, x0, x2
/home/lagadanu/Desktop/qemu/optee_os/lib/libutils/isoc/newlib/memchr.c:153
    2420:	eb02001f 	cmp	x0, x2
    2424:	54000061 	b.ne	2430 <memchr+0x18>
/home/lagadanu/Desktop/qemu/optee_os/lib/libutils/isoc/newlib/memchr.c:159
    2428:	d2800000 	mov	x0, #0x0                   	// #0
/home/lagadanu/Desktop/qemu/optee_os/lib/libutils/isoc/newlib/memchr.c:160
    242c:	d65f03c0 	ret
/home/lagadanu/Desktop/qemu/optee_os/lib/libutils/isoc/newlib/memchr.c:154
    2430:	39400003 	ldrb	w3, [x0]
    2434:	6b01007f 	cmp	w3, w1
    2438:	54ffffa0 	b.eq	242c <memchr+0x14>
/home/lagadanu/Desktop/qemu/optee_os/lib/libutils/isoc/newlib/memchr.c:156
    243c:	91000400 	add	x0, x0, #0x1
    2440:	17fffff8 	b	2420 <memchr+0x8>

0000000000002444 <strlen>:
strlen():
/home/lagadanu/Desktop/qemu/optee_os/lib/libutils/isoc/newlib/strlen.c:117
    2444:	aa0003e1 	mov	x1, x0
    2448:	39400022 	ldrb	w2, [x1]
    244c:	35000062 	cbnz	w2, 2458 <strlen+0x14>
/home/lagadanu/Desktop/qemu/optee_os/lib/libutils/isoc/newlib/strlen.c:120
    2450:	cb000020 	sub	x0, x1, x0
    2454:	d65f03c0 	ret
/home/lagadanu/Desktop/qemu/optee_os/lib/libutils/isoc/newlib/strlen.c:118
    2458:	91000421 	add	x1, x1, #0x1
    245c:	17fffffb 	b	2448 <strlen+0x4>

0000000000002460 <trace_ext_puts>:
trace_ext_puts():
/home/lagadanu/Desktop/qemu/optee_os/lib/libutee/trace_ext.c:17
    2460:	a9be7bfd 	stp	x29, x30, [sp,#-32]!
    2464:	910003fd 	mov	x29, sp
    2468:	f9000bf3 	str	x19, [sp,#16]
    246c:	aa0003f3 	mov	x19, x0
/home/lagadanu/Desktop/qemu/optee_os/lib/libutee/trace_ext.c:18
    2470:	97fffff5 	bl	2444 <strlen>
    2474:	aa0003e1 	mov	x1, x0
    2478:	aa1303e0 	mov	x0, x19
/home/lagadanu/Desktop/qemu/optee_os/lib/libutee/trace_ext.c:19
    247c:	f9400bf3 	ldr	x19, [sp,#16]
    2480:	a8c27bfd 	ldp	x29, x30, [sp],#32
/home/lagadanu/Desktop/qemu/optee_os/lib/libutee/trace_ext.c:18
    2484:	140002b7 	b	2f60 <utee_log>

0000000000002488 <trace_ext_get_thread_id>:
trace_ext_get_thread_id():
/home/lagadanu/Desktop/qemu/optee_os/lib/libutee/trace_ext.c:24
    2488:	12800000 	mov	w0, #0xffffffff            	// #-1
    248c:	d65f03c0 	ret

0000000000002490 <printf>:
printf():
/home/lagadanu/Desktop/qemu/optee_os/lib/libutee/trace_ext.c:32
    2490:	d10883ff 	sub	sp, sp, #0x220
    2494:	a9007bfd 	stp	x29, x30, [sp]
    2498:	910003fd 	mov	x29, sp
    249c:	a90153f3 	stp	x19, x20, [sp,#16]
    24a0:	aa0003f3 	mov	x19, x0
    24a4:	910403a0 	add	x0, x29, #0x100
    24a8:	a91e8ba1 	stp	x1, x2, [x29,#488]
    24ac:	a91f93a3 	stp	x3, x4, [x29,#504]
    24b0:	f90107a5 	str	x5, [x29,#520]
    24b4:	f9010ba6 	str	x6, [x29,#528]
    24b8:	f9010fa7 	str	x7, [x29,#536]
    24bc:	3d801800 	str	q0, [x0,#96]
    24c0:	3d801c01 	str	q1, [x0,#112]
    24c4:	3d802002 	str	q2, [x0,#128]
    24c8:	3d802403 	str	q3, [x0,#144]
    24cc:	3d802804 	str	q4, [x0,#160]
    24d0:	3d802c05 	str	q5, [x0,#176]
    24d4:	3d803006 	str	q6, [x0,#192]
    24d8:	3d803407 	str	q7, [x0,#208]
/home/lagadanu/Desktop/qemu/optee_os/lib/libutee/trace_ext.c:37
    24dc:	97fffc1e 	bl	1554 <trace_get_level>
    24e0:	7100001f 	cmp	w0, #0x0
    24e4:	5400038d 	b.le	2554 <printf+0xc4>
/home/lagadanu/Desktop/qemu/optee_os/lib/libutee/trace_ext.c:40
    24e8:	910883a0 	add	x0, x29, #0x220
    24ec:	a90403a0 	stp	x0, x0, [x29,#64]
    24f0:	910783a0 	add	x0, x29, #0x1e0
    24f4:	f9002ba0 	str	x0, [x29,#80]
    24f8:	128006e0 	mov	w0, #0xffffffc8            	// #-56
    24fc:	b9005ba0 	str	w0, [x29,#88]
    2500:	12800fe0 	mov	w0, #0xffffff80            	// #-128
    2504:	b9005fa0 	str	w0, [x29,#92]
/home/lagadanu/Desktop/qemu/optee_os/lib/libutee/trace_ext.c:41
    2508:	a94407a0 	ldp	x0, x1, [x29,#64]
    250c:	a90207a0 	stp	x0, x1, [x29,#32]
    2510:	a94507a0 	ldp	x0, x1, [x29,#80]
    2514:	910183b4 	add	x20, x29, #0x60
    2518:	a90307a0 	stp	x0, x1, [x29,#48]
    251c:	aa1303e2 	mov	x2, x19
    2520:	910083a3 	add	x3, x29, #0x20
    2524:	d2802001 	mov	x1, #0x100                 	// #256
    2528:	aa1403e0 	mov	x0, x20
    252c:	9400155c 	bl	7a9c <vsnprintf>
    2530:	2a0003f3 	mov	w19, w0
/home/lagadanu/Desktop/qemu/optee_os/lib/libutee/trace_ext.c:44
    2534:	37f80060 	tbnz	w0, #31, 2540 <printf+0xb0>
/home/lagadanu/Desktop/qemu/optee_os/lib/libutee/trace_ext.c:47
    2538:	aa1403e0 	mov	x0, x20
    253c:	97ffffc9 	bl	2460 <trace_ext_puts>
/home/lagadanu/Desktop/qemu/optee_os/lib/libutee/trace_ext.c:50
    2540:	2a1303e0 	mov	w0, w19
    2544:	a94153f3 	ldp	x19, x20, [sp,#16]
    2548:	a9407bfd 	ldp	x29, x30, [sp]
    254c:	910883ff 	add	sp, sp, #0x220
    2550:	d65f03c0 	ret
/home/lagadanu/Desktop/qemu/optee_os/lib/libutee/trace_ext.c:38
    2554:	52800013 	mov	w19, #0x0                   	// #0
    2558:	17fffffa 	b	2540 <printf+0xb0>

000000000000255c <puts>:
puts():
/home/lagadanu/Desktop/qemu/optee_os/lib/libutee/trace_ext.c:53
    255c:	a9be7bfd 	stp	x29, x30, [sp,#-32]!
    2560:	910003fd 	mov	x29, sp
    2564:	f9000bf3 	str	x19, [sp,#16]
    2568:	aa0003f3 	mov	x19, x0
/home/lagadanu/Desktop/qemu/optee_os/lib/libutee/trace_ext.c:54
    256c:	97fffbfa 	bl	1554 <trace_get_level>
    2570:	7100001f 	cmp	w0, #0x0
    2574:	540000cd 	b.le	258c <puts+0x30>
/home/lagadanu/Desktop/qemu/optee_os/lib/libutee/trace_ext.c:55
    2578:	aa1303e0 	mov	x0, x19
    257c:	97ffffb9 	bl	2460 <trace_ext_puts>
/home/lagadanu/Desktop/qemu/optee_os/lib/libutee/trace_ext.c:56
    2580:	f0000020 	adrp	x0, 9000 <__func__.3181+0x410>
    2584:	91051c00 	add	x0, x0, #0x147
    2588:	97ffffb6 	bl	2460 <trace_ext_puts>
/home/lagadanu/Desktop/qemu/optee_os/lib/libutee/trace_ext.c:59
    258c:	52800020 	mov	w0, #0x1                   	// #1
    2590:	f9400bf3 	ldr	x19, [sp,#16]
    2594:	a8c27bfd 	ldp	x29, x30, [sp],#32
    2598:	d65f03c0 	ret

000000000000259c <putchar>:
putchar():
/home/lagadanu/Desktop/qemu/optee_os/lib/libutee/trace_ext.c:62
    259c:	a9bd7bfd 	stp	x29, x30, [sp,#-48]!
    25a0:	910003fd 	mov	x29, sp
    25a4:	f9000bf3 	str	x19, [sp,#16]
    25a8:	2a0003f3 	mov	w19, w0
/home/lagadanu/Desktop/qemu/optee_os/lib/libutee/trace_ext.c:63
    25ac:	3900a3a0 	strb	w0, [x29,#40]
    25b0:	3900a7bf 	strb	wzr, [x29,#41]
/home/lagadanu/Desktop/qemu/optee_os/lib/libutee/trace_ext.c:65
    25b4:	97fffbe8 	bl	1554 <trace_get_level>
    25b8:	7100001f 	cmp	w0, #0x0
    25bc:	5400006d 	b.le	25c8 <putchar+0x2c>
/home/lagadanu/Desktop/qemu/optee_os/lib/libutee/trace_ext.c:66
    25c0:	9100a3a0 	add	x0, x29, #0x28
    25c4:	97ffffa7 	bl	2460 <trace_ext_puts>
/home/lagadanu/Desktop/qemu/optee_os/lib/libutee/trace_ext.c:73
    25c8:	12001e60 	and	w0, w19, #0xff
    25cc:	f9400bf3 	ldr	x19, [sp,#16]
    25d0:	a8c37bfd 	ldp	x29, x30, [sp],#48
    25d4:	d65f03c0 	ret

00000000000025d8 <_assert_log>:
_assert_log():
/home/lagadanu/Desktop/qemu/optee_os/lib/libutee/assert.c:17
    25d8:	d10083ff 	sub	sp, sp, #0x20
/home/lagadanu/Desktop/qemu/optee_os/lib/libutee/assert.c:18
    25dc:	2a0203e7 	mov	w7, w2
    25e0:	aa0103e6 	mov	x6, x1
    25e4:	aa0003e5 	mov	x5, x0
    25e8:	52800022 	mov	w2, #0x1                   	// #1
    25ec:	52800001 	mov	w1, #0x0                   	// #0
/home/lagadanu/Desktop/qemu/optee_os/lib/libutee/assert.c:17
    25f0:	a9017bfd 	stp	x29, x30, [sp,#16]
    25f4:	910043fd 	add	x29, sp, #0x10
/home/lagadanu/Desktop/qemu/optee_os/lib/libutee/assert.c:18
    25f8:	d2800000 	mov	x0, #0x0                   	// #0
    25fc:	f0000024 	adrp	x4, 9000 <__func__.3181+0x410>
    2600:	91045c84 	add	x4, x4, #0x117
    2604:	f90003e3 	str	x3, [sp]
    2608:	52800023 	mov	w3, #0x1                   	// #1
    260c:	97fffbd6 	bl	1564 <trace_printf>
/home/lagadanu/Desktop/qemu/optee_os/lib/libutee/assert.c:20
    2610:	a9417bfd 	ldp	x29, x30, [sp,#16]
    2614:	910083ff 	add	sp, sp, #0x20
    2618:	d65f03c0 	ret

000000000000261c <_assert_break>:
_assert_break():
/home/lagadanu/Desktop/qemu/optee_os/lib/libutee/assert.c:23
    261c:	a9bf7bfd 	stp	x29, x30, [sp,#-16]!
/home/lagadanu/Desktop/qemu/optee_os/lib/libutee/assert.c:24
    2620:	d2bfffe0 	mov	x0, #0xffff0000            	// #4294901760
/home/lagadanu/Desktop/qemu/optee_os/lib/libutee/assert.c:23
    2624:	910003fd 	mov	x29, sp
/home/lagadanu/Desktop/qemu/optee_os/lib/libutee/assert.c:24
    2628:	94000248 	bl	2f48 <utee_panic>
    262c:	14000000 	b	262c <_assert_break+0x10>

0000000000002630 <sock_error>:
sock_error():
/home/lagadanu/Desktop/qemu/optee_os/lib/libutee/tee_tcpudp_socket.c:143
    2630:	a9be7bfd 	stp	x29, x30, [sp,#-32]!
    2634:	910003fd 	mov	x29, sp
    2638:	f9000bf3 	str	x19, [sp,#16]
    263c:	aa0003f3 	mov	x19, x0
/home/lagadanu/Desktop/qemu/optee_os/lib/libutee/tee_tcpudp_socket.c:146
    2640:	b5000060 	cbnz	x0, 264c <sock_error+0x1c>
/home/lagadanu/Desktop/qemu/optee_os/lib/libutee/tee_tcpudp_socket.c:147
    2644:	52800000 	mov	w0, #0x0                   	// #0
    2648:	9400060d 	bl	3e7c <TEE_Panic>
/home/lagadanu/Desktop/qemu/optee_os/lib/libutee/tee_tcpudp_socket.c:150
    264c:	b9400660 	ldr	w0, [x19,#4]
    2650:	f9400bf3 	ldr	x19, [sp,#16]
    2654:	a8c27bfd 	ldp	x29, x30, [sp],#32
    2658:	d65f03c0 	ret

000000000000265c <sock_recv>:
sock_recv():
/home/lagadanu/Desktop/qemu/optee_os/lib/libutee/tee_tcpudp_socket.c:129
    265c:	a9bd7bfd 	stp	x29, x30, [sp,#-48]!
/home/lagadanu/Desktop/qemu/optee_os/lib/libutee/tee_tcpudp_socket.c:133
    2660:	f100001f 	cmp	x0, #0x0
    2664:	fa401844 	ccmp	x2, #0x0, #0x4, ne
/home/lagadanu/Desktop/qemu/optee_os/lib/libutee/tee_tcpudp_socket.c:129
    2668:	910003fd 	mov	x29, sp
    266c:	a90153f3 	stp	x19, x20, [sp,#16]
    2670:	aa0003f3 	mov	x19, x0
    2674:	a9025bf5 	stp	x21, x22, [sp,#32]
    2678:	aa0203f4 	mov	x20, x2
    267c:	aa0103f5 	mov	x21, x1
    2680:	2a0303f6 	mov	w22, w3
/home/lagadanu/Desktop/qemu/optee_os/lib/libutee/tee_tcpudp_socket.c:133
    2684:	54000080 	b.eq	2694 <sock_recv+0x38>
/home/lagadanu/Desktop/qemu/optee_os/lib/libutee/tee_tcpudp_socket.c:133 (discriminator 1)
    2688:	b50000a1 	cbnz	x1, 269c <sock_recv+0x40>
/home/lagadanu/Desktop/qemu/optee_os/lib/libutee/tee_tcpudp_socket.c:133 (discriminator 2)
    268c:	b9400040 	ldr	w0, [x2]
    2690:	34000060 	cbz	w0, 269c <sock_recv+0x40>
/home/lagadanu/Desktop/qemu/optee_os/lib/libutee/tee_tcpudp_socket.c:134
    2694:	52800000 	mov	w0, #0x0                   	// #0
    2698:	940005f9 	bl	3e7c <TEE_Panic>
/home/lagadanu/Desktop/qemu/optee_os/lib/libutee/tee_tcpudp_socket.c:136
    269c:	b9400260 	ldr	w0, [x19]
    26a0:	2a1603e3 	mov	w3, w22
    26a4:	aa1403e2 	mov	x2, x20
    26a8:	aa1503e1 	mov	x1, x21
    26ac:	9400014c 	bl	2bdc <__tee_socket_pta_recv>
/home/lagadanu/Desktop/qemu/optee_os/lib/libutee/tee_tcpudp_socket.c:140
    26b0:	a9425bf5 	ldp	x21, x22, [sp,#32]
/home/lagadanu/Desktop/qemu/optee_os/lib/libutee/tee_tcpudp_socket.c:137
    26b4:	b9000660 	str	w0, [x19,#4]
/home/lagadanu/Desktop/qemu/optee_os/lib/libutee/tee_tcpudp_socket.c:140
    26b8:	a94153f3 	ldp	x19, x20, [sp,#16]
    26bc:	a8c37bfd 	ldp	x29, x30, [sp],#48
    26c0:	d65f03c0 	ret

00000000000026c4 <sock_send>:
sock_send():
/home/lagadanu/Desktop/qemu/optee_os/lib/libutee/tee_tcpudp_socket.c:114
    26c4:	a9bd7bfd 	stp	x29, x30, [sp,#-48]!
/home/lagadanu/Desktop/qemu/optee_os/lib/libutee/tee_tcpudp_socket.c:118
    26c8:	f100003f 	cmp	x1, #0x0
    26cc:	fa401844 	ccmp	x2, #0x0, #0x4, ne
/home/lagadanu/Desktop/qemu/optee_os/lib/libutee/tee_tcpudp_socket.c:114
    26d0:	910003fd 	mov	x29, sp
    26d4:	a90153f3 	stp	x19, x20, [sp,#16]
/home/lagadanu/Desktop/qemu/optee_os/lib/libutee/tee_tcpudp_socket.c:118
    26d8:	fa401804 	ccmp	x0, #0x0, #0x4, ne
/home/lagadanu/Desktop/qemu/optee_os/lib/libutee/tee_tcpudp_socket.c:114
    26dc:	a9025bf5 	stp	x21, x22, [sp,#32]
    26e0:	aa0003f3 	mov	x19, x0
    26e4:	aa0103f4 	mov	x20, x1
    26e8:	aa0203f5 	mov	x21, x2
    26ec:	2a0303f6 	mov	w22, w3
/home/lagadanu/Desktop/qemu/optee_os/lib/libutee/tee_tcpudp_socket.c:118
    26f0:	54000061 	b.ne	26fc <sock_send+0x38>
/home/lagadanu/Desktop/qemu/optee_os/lib/libutee/tee_tcpudp_socket.c:119
    26f4:	52800000 	mov	w0, #0x0                   	// #0
    26f8:	940005e1 	bl	3e7c <TEE_Panic>
/home/lagadanu/Desktop/qemu/optee_os/lib/libutee/tee_tcpudp_socket.c:121
    26fc:	b9400260 	ldr	w0, [x19]
    2700:	2a1603e3 	mov	w3, w22
    2704:	aa1503e2 	mov	x2, x21
    2708:	aa1403e1 	mov	x1, x20
    270c:	9400011f 	bl	2b88 <__tee_socket_pta_send>
/home/lagadanu/Desktop/qemu/optee_os/lib/libutee/tee_tcpudp_socket.c:125
    2710:	a9425bf5 	ldp	x21, x22, [sp,#32]
/home/lagadanu/Desktop/qemu/optee_os/lib/libutee/tee_tcpudp_socket.c:122
    2714:	b9000660 	str	w0, [x19,#4]
/home/lagadanu/Desktop/qemu/optee_os/lib/libutee/tee_tcpudp_socket.c:125
    2718:	a94153f3 	ldp	x19, x20, [sp,#16]
    271c:	a8c37bfd 	ldp	x29, x30, [sp],#48
    2720:	d65f03c0 	ret

0000000000002724 <sock_close>:
sock_close():
/home/lagadanu/Desktop/qemu/optee_os/lib/libutee/tee_tcpudp_socket.c:99
    2724:	a9be7bfd 	stp	x29, x30, [sp,#-32]!
    2728:	910003fd 	mov	x29, sp
    272c:	a90153f3 	stp	x19, x20, [sp,#16]
/home/lagadanu/Desktop/qemu/optee_os/lib/libutee/tee_tcpudp_socket.c:104
    2730:	52800014 	mov	w20, #0x0                   	// #0
/home/lagadanu/Desktop/qemu/optee_os/lib/libutee/tee_tcpudp_socket.c:103
    2734:	b40000e0 	cbz	x0, 2750 <sock_close+0x2c>
    2738:	aa0003f3 	mov	x19, x0
/home/lagadanu/Desktop/qemu/optee_os/lib/libutee/tee_tcpudp_socket.c:106
    273c:	b9400000 	ldr	w0, [x0]
    2740:	94000105 	bl	2b54 <__tee_socket_pta_close>
    2744:	2a0003f4 	mov	w20, w0
/home/lagadanu/Desktop/qemu/optee_os/lib/libutee/tee_tcpudp_socket.c:107
    2748:	aa1303e0 	mov	x0, x19
    274c:	940005c5 	bl	3e60 <TEE_Free>
/home/lagadanu/Desktop/qemu/optee_os/lib/libutee/tee_tcpudp_socket.c:110
    2750:	2a1403e0 	mov	w0, w20
    2754:	a94153f3 	ldp	x19, x20, [sp,#16]
    2758:	a8c27bfd 	ldp	x29, x30, [sp],#32
    275c:	d65f03c0 	ret

0000000000002760 <tcp_open>:
tcp_open():
/home/lagadanu/Desktop/qemu/optee_os/lib/libutee/tee_tcpudp_socket.c:22
    2760:	a9bc7bfd 	stp	x29, x30, [sp,#-64]!
/home/lagadanu/Desktop/qemu/optee_os/lib/libutee/tee_tcpudp_socket.c:27
    2764:	f100001f 	cmp	x0, #0x0
    2768:	fa401844 	ccmp	x2, #0x0, #0x4, ne
/home/lagadanu/Desktop/qemu/optee_os/lib/libutee/tee_tcpudp_socket.c:22
    276c:	910003fd 	mov	x29, sp
    2770:	a9025bf5 	stp	x21, x22, [sp,#32]
/home/lagadanu/Desktop/qemu/optee_os/lib/libutee/tee_tcpudp_socket.c:27
    2774:	fa401824 	ccmp	x1, #0x0, #0x4, ne
/home/lagadanu/Desktop/qemu/optee_os/lib/libutee/tee_tcpudp_socket.c:22
    2778:	f9001bf7 	str	x23, [sp,#48]
    277c:	aa0103f6 	mov	x22, x1
    2780:	a90153f3 	stp	x19, x20, [sp,#16]
    2784:	aa0203f5 	mov	x21, x2
    2788:	aa0003f7 	mov	x23, x0
/home/lagadanu/Desktop/qemu/optee_os/lib/libutee/tee_tcpudp_socket.c:27
    278c:	54000061 	b.ne	2798 <tcp_open+0x38>
/home/lagadanu/Desktop/qemu/optee_os/lib/libutee/tee_tcpudp_socket.c:28
    2790:	52800000 	mov	w0, #0x0                   	// #0
    2794:	940005ba 	bl	3e7c <TEE_Panic>
/home/lagadanu/Desktop/qemu/optee_os/lib/libutee/tee_tcpudp_socket.c:30
    2798:	b90002bf 	str	wzr, [x21]
/home/lagadanu/Desktop/qemu/optee_os/lib/libutee/tee_tcpudp_socket.c:32
    279c:	52800001 	mov	w1, #0x0                   	// #0
    27a0:	52800100 	mov	w0, #0x8                   	// #8
/home/lagadanu/Desktop/qemu/optee_os/lib/libutee/tee_tcpudp_socket.c:34
    27a4:	129ffe73 	mov	w19, #0xffff000c            	// #-65524
/home/lagadanu/Desktop/qemu/optee_os/lib/libutee/tee_tcpudp_socket.c:32
    27a8:	94000595 	bl	3dfc <TEE_Malloc>
    27ac:	aa0003f4 	mov	x20, x0
/home/lagadanu/Desktop/qemu/optee_os/lib/libutee/tee_tcpudp_socket.c:33
    27b0:	b40002a0 	cbz	x0, 2804 <tcp_open+0xa4>
/home/lagadanu/Desktop/qemu/optee_os/lib/libutee/tee_tcpudp_socket.c:36
    27b4:	aa0003e4 	mov	x4, x0
    27b8:	794022c2 	ldrh	w2, [x22,#16]
    27bc:	b94002c0 	ldr	w0, [x22]
    27c0:	52800ca3 	mov	w3, #0x65                  	// #101
    27c4:	f94006c1 	ldr	x1, [x22,#8]
    27c8:	940000be 	bl	2ac0 <__tee_socket_pta_open>
    27cc:	2a0003f3 	mov	w19, w0
/home/lagadanu/Desktop/qemu/optee_os/lib/libutee/tee_tcpudp_socket.c:41
    27d0:	34000080 	cbz	w0, 27e0 <tcp_open+0x80>
/home/lagadanu/Desktop/qemu/optee_os/lib/libutee/tee_tcpudp_socket.c:42
    27d4:	aa1403e0 	mov	x0, x20
/home/lagadanu/Desktop/qemu/optee_os/lib/libutee/tee_tcpudp_socket.c:43
    27d8:	d2800014 	mov	x20, #0x0                   	// #0
/home/lagadanu/Desktop/qemu/optee_os/lib/libutee/tee_tcpudp_socket.c:42
    27dc:	940005a1 	bl	3e60 <TEE_Free>
/home/lagadanu/Desktop/qemu/optee_os/lib/libutee/tee_tcpudp_socket.c:45
    27e0:	f90002f4 	str	x20, [x23]
/home/lagadanu/Desktop/qemu/optee_os/lib/libutee/tee_tcpudp_socket.c:47
    27e4:	528e00e0 	mov	w0, #0x7007                	// #28679
    27e8:	72be2000 	movk	w0, #0xf100, lsl #16
    27ec:	6b00027f 	cmp	w19, w0
    27f0:	54000160 	b.eq	281c <tcp_open+0xbc>
    27f4:	52800040 	mov	w0, #0x2                   	// #2
    27f8:	72be2020 	movk	w0, #0xf101, lsl #16
    27fc:	6b00027f 	cmp	w19, w0
    2800:	54000160 	b.eq	282c <tcp_open+0xcc>
/home/lagadanu/Desktop/qemu/optee_os/lib/libutee/tee_tcpudp_socket.c:57
    2804:	2a1303e0 	mov	w0, w19
    2808:	f9401bf7 	ldr	x23, [sp,#48]
    280c:	a94153f3 	ldp	x19, x20, [sp,#16]
    2810:	a9425bf5 	ldp	x21, x22, [sp,#32]
    2814:	a8c47bfd 	ldp	x29, x30, [sp],#64
    2818:	d65f03c0 	ret
/home/lagadanu/Desktop/qemu/optee_os/lib/libutee/tee_tcpudp_socket.c:49
    281c:	b90002b3 	str	w19, [x21]
/home/lagadanu/Desktop/qemu/optee_os/lib/libutee/tee_tcpudp_socket.c:50
    2820:	528e0033 	mov	w19, #0x7001                	// #28673
/home/lagadanu/Desktop/qemu/optee_os/lib/libutee/tee_tcpudp_socket.c:53
    2824:	72be2013 	movk	w19, #0xf100, lsl #16
    2828:	17fffff7 	b	2804 <tcp_open+0xa4>
/home/lagadanu/Desktop/qemu/optee_os/lib/libutee/tee_tcpudp_socket.c:52
    282c:	b90002b3 	str	w19, [x21]
/home/lagadanu/Desktop/qemu/optee_os/lib/libutee/tee_tcpudp_socket.c:53
    2830:	528e00d3 	mov	w19, #0x7006                	// #28678
    2834:	17fffffc 	b	2824 <tcp_open+0xc4>

0000000000002838 <udp_open>:
udp_open():
/home/lagadanu/Desktop/qemu/optee_os/lib/libutee/tee_tcpudp_socket.c:61
    2838:	a9bc7bfd 	stp	x29, x30, [sp,#-64]!
/home/lagadanu/Desktop/qemu/optee_os/lib/libutee/tee_tcpudp_socket.c:66
    283c:	f100001f 	cmp	x0, #0x0
    2840:	fa401844 	ccmp	x2, #0x0, #0x4, ne
/home/lagadanu/Desktop/qemu/optee_os/lib/libutee/tee_tcpudp_socket.c:61
    2844:	910003fd 	mov	x29, sp
    2848:	a9025bf5 	stp	x21, x22, [sp,#32]
/home/lagadanu/Desktop/qemu/optee_os/lib/libutee/tee_tcpudp_socket.c:66
    284c:	fa401824 	ccmp	x1, #0x0, #0x4, ne
/home/lagadanu/Desktop/qemu/optee_os/lib/libutee/tee_tcpudp_socket.c:61
    2850:	f9001bf7 	str	x23, [sp,#48]
    2854:	aa0103f6 	mov	x22, x1
    2858:	a90153f3 	stp	x19, x20, [sp,#16]
    285c:	aa0203f5 	mov	x21, x2
    2860:	aa0003f7 	mov	x23, x0
/home/lagadanu/Desktop/qemu/optee_os/lib/libutee/tee_tcpudp_socket.c:66
    2864:	54000061 	b.ne	2870 <udp_open+0x38>
/home/lagadanu/Desktop/qemu/optee_os/lib/libutee/tee_tcpudp_socket.c:67
    2868:	52800000 	mov	w0, #0x0                   	// #0
    286c:	94000584 	bl	3e7c <TEE_Panic>
/home/lagadanu/Desktop/qemu/optee_os/lib/libutee/tee_tcpudp_socket.c:69
    2870:	b90002bf 	str	wzr, [x21]
/home/lagadanu/Desktop/qemu/optee_os/lib/libutee/tee_tcpudp_socket.c:71
    2874:	52800001 	mov	w1, #0x0                   	// #0
    2878:	52800100 	mov	w0, #0x8                   	// #8
/home/lagadanu/Desktop/qemu/optee_os/lib/libutee/tee_tcpudp_socket.c:73
    287c:	129ffe73 	mov	w19, #0xffff000c            	// #-65524
/home/lagadanu/Desktop/qemu/optee_os/lib/libutee/tee_tcpudp_socket.c:71
    2880:	9400055f 	bl	3dfc <TEE_Malloc>
    2884:	aa0003f4 	mov	x20, x0
/home/lagadanu/Desktop/qemu/optee_os/lib/libutee/tee_tcpudp_socket.c:72
    2888:	b40002a0 	cbz	x0, 28dc <udp_open+0xa4>
/home/lagadanu/Desktop/qemu/optee_os/lib/libutee/tee_tcpudp_socket.c:75
    288c:	aa0003e4 	mov	x4, x0
    2890:	794022c2 	ldrh	w2, [x22,#16]
    2894:	b94002c0 	ldr	w0, [x22]
    2898:	52800cc3 	mov	w3, #0x66                  	// #102
    289c:	f94006c1 	ldr	x1, [x22,#8]
    28a0:	94000088 	bl	2ac0 <__tee_socket_pta_open>
    28a4:	2a0003f3 	mov	w19, w0
/home/lagadanu/Desktop/qemu/optee_os/lib/libutee/tee_tcpudp_socket.c:80
    28a8:	34000080 	cbz	w0, 28b8 <udp_open+0x80>
/home/lagadanu/Desktop/qemu/optee_os/lib/libutee/tee_tcpudp_socket.c:81
    28ac:	aa1403e0 	mov	x0, x20
/home/lagadanu/Desktop/qemu/optee_os/lib/libutee/tee_tcpudp_socket.c:82
    28b0:	d2800014 	mov	x20, #0x0                   	// #0
/home/lagadanu/Desktop/qemu/optee_os/lib/libutee/tee_tcpudp_socket.c:81
    28b4:	9400056b 	bl	3e60 <TEE_Free>
/home/lagadanu/Desktop/qemu/optee_os/lib/libutee/tee_tcpudp_socket.c:84
    28b8:	f90002f4 	str	x20, [x23]
/home/lagadanu/Desktop/qemu/optee_os/lib/libutee/tee_tcpudp_socket.c:86
    28bc:	528e00e0 	mov	w0, #0x7007                	// #28679
    28c0:	72be2000 	movk	w0, #0xf100, lsl #16
    28c4:	6b00027f 	cmp	w19, w0
    28c8:	54000160 	b.eq	28f4 <udp_open+0xbc>
    28cc:	52800040 	mov	w0, #0x2                   	// #2
    28d0:	72be2040 	movk	w0, #0xf102, lsl #16
    28d4:	6b00027f 	cmp	w19, w0
    28d8:	54000160 	b.eq	2904 <udp_open+0xcc>
/home/lagadanu/Desktop/qemu/optee_os/lib/libutee/tee_tcpudp_socket.c:96
    28dc:	2a1303e0 	mov	w0, w19
    28e0:	f9401bf7 	ldr	x23, [sp,#48]
    28e4:	a94153f3 	ldp	x19, x20, [sp,#16]
    28e8:	a9425bf5 	ldp	x21, x22, [sp,#32]
    28ec:	a8c47bfd 	ldp	x29, x30, [sp],#64
    28f0:	d65f03c0 	ret
/home/lagadanu/Desktop/qemu/optee_os/lib/libutee/tee_tcpudp_socket.c:88
    28f4:	b90002b3 	str	w19, [x21]
/home/lagadanu/Desktop/qemu/optee_os/lib/libutee/tee_tcpudp_socket.c:89
    28f8:	528e0033 	mov	w19, #0x7001                	// #28673
/home/lagadanu/Desktop/qemu/optee_os/lib/libutee/tee_tcpudp_socket.c:92
    28fc:	72be2013 	movk	w19, #0xf100, lsl #16
    2900:	17fffff7 	b	28dc <udp_open+0xa4>
/home/lagadanu/Desktop/qemu/optee_os/lib/libutee/tee_tcpudp_socket.c:91
    2904:	b90002b3 	str	w19, [x21]
/home/lagadanu/Desktop/qemu/optee_os/lib/libutee/tee_tcpudp_socket.c:92
    2908:	528e00d3 	mov	w19, #0x7006                	// #28678
    290c:	17fffffc 	b	28fc <udp_open+0xc4>

0000000000002910 <tcp_ioctl>:
tcp_ioctl():
/home/lagadanu/Desktop/qemu/optee_os/lib/libutee/tee_tcpudp_socket.c:154
    2910:	a9bd7bfd 	stp	x29, x30, [sp,#-48]!
/home/lagadanu/Desktop/qemu/optee_os/lib/libutee/tee_tcpudp_socket.c:158
    2914:	f100001f 	cmp	x0, #0x0
    2918:	fa401864 	ccmp	x3, #0x0, #0x4, ne
/home/lagadanu/Desktop/qemu/optee_os/lib/libutee/tee_tcpudp_socket.c:154
    291c:	910003fd 	mov	x29, sp
    2920:	a90153f3 	stp	x19, x20, [sp,#16]
    2924:	aa0003f3 	mov	x19, x0
    2928:	a9025bf5 	stp	x21, x22, [sp,#32]
    292c:	2a0103f4 	mov	w20, w1
    2930:	aa0203f6 	mov	x22, x2
    2934:	aa0303f5 	mov	x21, x3
/home/lagadanu/Desktop/qemu/optee_os/lib/libutee/tee_tcpudp_socket.c:158
    2938:	54000080 	b.eq	2948 <tcp_ioctl+0x38>
/home/lagadanu/Desktop/qemu/optee_os/lib/libutee/tee_tcpudp_socket.c:158 (discriminator 1)
    293c:	b50000a2 	cbnz	x2, 2950 <tcp_ioctl+0x40>
/home/lagadanu/Desktop/qemu/optee_os/lib/libutee/tee_tcpudp_socket.c:158 (discriminator 2)
    2940:	b9400060 	ldr	w0, [x3]
    2944:	34000060 	cbz	w0, 2950 <tcp_ioctl+0x40>
/home/lagadanu/Desktop/qemu/optee_os/lib/libutee/tee_tcpudp_socket.c:159
    2948:	52800000 	mov	w0, #0x0                   	// #0
    294c:	9400054c 	bl	3e7c <TEE_Panic>
__tee_socket_ioctl_cmd_to_proto():
/home/lagadanu/Desktop/qemu/optee_os/lib/libutee/tee_socket_private.h:14
    2950:	53187e81 	lsr	w1, w20, #24
tcp_ioctl():
/home/lagadanu/Desktop/qemu/optee_os/lib/libutee/tee_tcpudp_socket.c:162
    2954:	52800000 	mov	w0, #0x0                   	// #0
/home/lagadanu/Desktop/qemu/optee_os/lib/libutee/tee_tcpudp_socket.c:161
    2958:	34000161 	cbz	w1, 2984 <tcp_ioctl+0x74>
/home/lagadanu/Desktop/qemu/optee_os/lib/libutee/tee_tcpudp_socket.c:164
    295c:	52b34200 	mov	w0, #0x9a100000            	// #-1710227456
    2960:	0b000280 	add	w0, w20, w0
    2964:	7100041f 	cmp	w0, #0x1
    2968:	54000168 	b.hi	2994 <tcp_ioctl+0x84>
/home/lagadanu/Desktop/qemu/optee_os/lib/libutee/tee_tcpudp_socket.c:167
    296c:	b9400260 	ldr	w0, [x19]
    2970:	aa1503e3 	mov	x3, x21
    2974:	aa1603e2 	mov	x2, x22
    2978:	2a1403e1 	mov	w1, w20
    297c:	940000ad 	bl	2c30 <__tee_socket_pta_ioctl>
/home/lagadanu/Desktop/qemu/optee_os/lib/libutee/tee_tcpudp_socket.c:174
    2980:	b9000660 	str	w0, [x19,#4]
/home/lagadanu/Desktop/qemu/optee_os/lib/libutee/tee_tcpudp_socket.c:177
    2984:	a94153f3 	ldp	x19, x20, [sp,#16]
    2988:	a9425bf5 	ldp	x21, x22, [sp,#32]
    298c:	a8c37bfd 	ldp	x29, x30, [sp],#48
    2990:	d65f03c0 	ret
/home/lagadanu/Desktop/qemu/optee_os/lib/libutee/tee_tcpudp_socket.c:171
    2994:	52800000 	mov	w0, #0x0                   	// #0
    2998:	94000539 	bl	3e7c <TEE_Panic>
/home/lagadanu/Desktop/qemu/optee_os/lib/libutee/tee_tcpudp_socket.c:155
    299c:	52bfffe0 	mov	w0, #0xffff0000            	// #-65536
    29a0:	17fffff8 	b	2980 <tcp_ioctl+0x70>

00000000000029a4 <udp_ioctl>:
udp_ioctl():
/home/lagadanu/Desktop/qemu/optee_os/lib/libutee/tee_tcpudp_socket.c:181
    29a4:	a9bd7bfd 	stp	x29, x30, [sp,#-48]!
/home/lagadanu/Desktop/qemu/optee_os/lib/libutee/tee_tcpudp_socket.c:185
    29a8:	f100001f 	cmp	x0, #0x0
    29ac:	fa401864 	ccmp	x3, #0x0, #0x4, ne
/home/lagadanu/Desktop/qemu/optee_os/lib/libutee/tee_tcpudp_socket.c:181
    29b0:	910003fd 	mov	x29, sp
    29b4:	a90153f3 	stp	x19, x20, [sp,#16]
    29b8:	aa0003f3 	mov	x19, x0
    29bc:	a9025bf5 	stp	x21, x22, [sp,#32]
    29c0:	2a0103f4 	mov	w20, w1
    29c4:	aa0203f6 	mov	x22, x2
    29c8:	aa0303f5 	mov	x21, x3
/home/lagadanu/Desktop/qemu/optee_os/lib/libutee/tee_tcpudp_socket.c:185
    29cc:	54000080 	b.eq	29dc <udp_ioctl+0x38>
/home/lagadanu/Desktop/qemu/optee_os/lib/libutee/tee_tcpudp_socket.c:185 (discriminator 1)
    29d0:	b50000a2 	cbnz	x2, 29e4 <udp_ioctl+0x40>
/home/lagadanu/Desktop/qemu/optee_os/lib/libutee/tee_tcpudp_socket.c:185 (discriminator 2)
    29d4:	b9400060 	ldr	w0, [x3]
    29d8:	34000060 	cbz	w0, 29e4 <udp_ioctl+0x40>
/home/lagadanu/Desktop/qemu/optee_os/lib/libutee/tee_tcpudp_socket.c:186
    29dc:	52800000 	mov	w0, #0x0                   	// #0
    29e0:	94000527 	bl	3e7c <TEE_Panic>
__tee_socket_ioctl_cmd_to_proto():
/home/lagadanu/Desktop/qemu/optee_os/lib/libutee/tee_socket_private.h:14
    29e4:	53187e81 	lsr	w1, w20, #24
udp_ioctl():
/home/lagadanu/Desktop/qemu/optee_os/lib/libutee/tee_tcpudp_socket.c:189
    29e8:	52800000 	mov	w0, #0x0                   	// #0
/home/lagadanu/Desktop/qemu/optee_os/lib/libutee/tee_tcpudp_socket.c:188
    29ec:	34000161 	cbz	w1, 2a18 <udp_ioctl+0x74>
/home/lagadanu/Desktop/qemu/optee_os/lib/libutee/tee_tcpudp_socket.c:191
    29f0:	12acc000 	mov	w0, #0x99ffffff            	// #-1711276033
    29f4:	0b000280 	add	w0, w20, w0
    29f8:	7100041f 	cmp	w0, #0x1
    29fc:	54000168 	b.hi	2a28 <udp_ioctl+0x84>
/home/lagadanu/Desktop/qemu/optee_os/lib/libutee/tee_tcpudp_socket.c:194
    2a00:	b9400260 	ldr	w0, [x19]
    2a04:	aa1503e3 	mov	x3, x21
    2a08:	aa1603e2 	mov	x2, x22
    2a0c:	2a1403e1 	mov	w1, w20
    2a10:	94000088 	bl	2c30 <__tee_socket_pta_ioctl>
/home/lagadanu/Desktop/qemu/optee_os/lib/libutee/tee_tcpudp_socket.c:201
    2a14:	b9000660 	str	w0, [x19,#4]
/home/lagadanu/Desktop/qemu/optee_os/lib/libutee/tee_tcpudp_socket.c:204
    2a18:	a94153f3 	ldp	x19, x20, [sp,#16]
    2a1c:	a9425bf5 	ldp	x21, x22, [sp,#32]
    2a20:	a8c37bfd 	ldp	x29, x30, [sp],#48
    2a24:	d65f03c0 	ret
/home/lagadanu/Desktop/qemu/optee_os/lib/libutee/tee_tcpudp_socket.c:198
    2a28:	52800000 	mov	w0, #0x0                   	// #0
    2a2c:	94000514 	bl	3e7c <TEE_Panic>
/home/lagadanu/Desktop/qemu/optee_os/lib/libutee/tee_tcpudp_socket.c:182
    2a30:	52bfffe0 	mov	w0, #0xffff0000            	// #-65536
    2a34:	17fffff8 	b	2a14 <udp_ioctl+0x70>

0000000000002a38 <invoke_socket_pta>:
invoke_socket_pta():
/home/lagadanu/Desktop/qemu/optee_os/lib/libutee/tee_socket_pta.c:16
    2a38:	a9bd7bfd 	stp	x29, x30, [sp,#-48]!
    2a3c:	910003fd 	mov	x29, sp
    2a40:	a90153f3 	stp	x19, x20, [sp,#16]
    2a44:	2a0003f4 	mov	w20, w0
/home/lagadanu/Desktop/qemu/optee_os/lib/libutee/tee_socket_pta.c:20
    2a48:	90000080 	adrp	x0, 12000 <ta_heap+0x7e80>
/home/lagadanu/Desktop/qemu/optee_os/lib/libutee/tee_socket_pta.c:16
    2a4c:	a9025bf5 	stp	x21, x22, [sp,#32]
    2a50:	2a0103f5 	mov	w21, w1
    2a54:	aa0203f6 	mov	x22, x2
/home/lagadanu/Desktop/qemu/optee_os/lib/libutee/tee_socket_pta.c:20
    2a58:	f940e401 	ldr	x1, [x0,#456]
    2a5c:	aa0003f3 	mov	x19, x0
    2a60:	b4000161 	cbz	x1, 2a8c <invoke_socket_pta+0x54>
/home/lagadanu/Desktop/qemu/optee_os/lib/libutee/tee_socket_pta.c:28
    2a64:	aa1603e4 	mov	x4, x22
    2a68:	2a1503e3 	mov	w3, w21
    2a6c:	2a1403e2 	mov	w2, w20
    2a70:	f940e660 	ldr	x0, [x19,#456]
/home/lagadanu/Desktop/qemu/optee_os/lib/libutee/tee_socket_pta.c:29
    2a74:	a9425bf5 	ldp	x21, x22, [sp,#32]
/home/lagadanu/Desktop/qemu/optee_os/lib/libutee/tee_socket_pta.c:28
    2a78:	d2800005 	mov	x5, #0x0                   	// #0
/home/lagadanu/Desktop/qemu/optee_os/lib/libutee/tee_socket_pta.c:29
    2a7c:	a94153f3 	ldp	x19, x20, [sp,#16]
/home/lagadanu/Desktop/qemu/optee_os/lib/libutee/tee_socket_pta.c:28
    2a80:	52800001 	mov	w1, #0x0                   	// #0
/home/lagadanu/Desktop/qemu/optee_os/lib/libutee/tee_socket_pta.c:29
    2a84:	a8c37bfd 	ldp	x29, x30, [sp],#48
/home/lagadanu/Desktop/qemu/optee_os/lib/libutee/tee_socket_pta.c:28
    2a88:	1400042b 	b	3b34 <TEE_InvokeTACommand>
    2a8c:	91072004 	add	x4, x0, #0x1c8
/home/lagadanu/Desktop/qemu/optee_os/lib/libutee/tee_socket_pta.c:21
    2a90:	d2800005 	mov	x5, #0x0                   	// #0
    2a94:	b0000020 	adrp	x0, 7000 <mpa_init_static_fmm_context+0x38>
    2a98:	d2800003 	mov	x3, #0x0                   	// #0
    2a9c:	52800002 	mov	w2, #0x0                   	// #0
    2aa0:	52800001 	mov	w1, #0x0                   	// #0
    2aa4:	9138e000 	add	x0, x0, #0xe38
    2aa8:	940003f5 	bl	3a7c <TEE_OpenTASession>
/home/lagadanu/Desktop/qemu/optee_os/lib/libutee/tee_socket_pta.c:24
    2aac:	34fffdc0 	cbz	w0, 2a64 <invoke_socket_pta+0x2c>
/home/lagadanu/Desktop/qemu/optee_os/lib/libutee/tee_socket_pta.c:29
    2ab0:	a94153f3 	ldp	x19, x20, [sp,#16]
    2ab4:	a9425bf5 	ldp	x21, x22, [sp,#32]
    2ab8:	a8c37bfd 	ldp	x29, x30, [sp],#48
    2abc:	d65f03c0 	ret

0000000000002ac0 <__tee_socket_pta_open>:
__tee_socket_pta_open():
/home/lagadanu/Desktop/qemu/optee_os/lib/libutee/tee_socket_pta.c:34
    2ac0:	a9ba7bfd 	stp	x29, x30, [sp,#-96]!
/home/lagadanu/Desktop/qemu/optee_os/lib/libutee/tee_socket_pta.c:45
    2ac4:	7100081f 	cmp	w0, #0x2
/home/lagadanu/Desktop/qemu/optee_os/lib/libutee/tee_socket_pta.c:34
    2ac8:	910003fd 	mov	x29, sp
    2acc:	a90153f3 	stp	x19, x20, [sp,#16]
/home/lagadanu/Desktop/qemu/optee_os/lib/libutee/tee_socket_pta.c:43
    2ad0:	a9027fbf 	stp	xzr, xzr, [x29,#32]
    2ad4:	a9037fbf 	stp	xzr, xzr, [x29,#48]
    2ad8:	a9047fbf 	stp	xzr, xzr, [x29,#64]
    2adc:	a9057fbf 	stp	xzr, xzr, [x29,#80]
/home/lagadanu/Desktop/qemu/optee_os/lib/libutee/tee_socket_pta.c:45
    2ae0:	54000368 	b.hi	2b4c <__tee_socket_pta_open+0x8c>
    2ae4:	12003c42 	and	w2, w2, #0xffff
/home/lagadanu/Desktop/qemu/optee_os/lib/libutee/tee_socket_pta.c:55
    2ae8:	29040ba0 	stp	w0, w2, [x29,#32]
/home/lagadanu/Desktop/qemu/optee_os/lib/libutee/tee_socket_pta.c:58
    2aec:	129fff20 	mov	w0, #0xffff0006            	// #-65530
/home/lagadanu/Desktop/qemu/optee_os/lib/libutee/tee_socket_pta.c:57
    2af0:	b4000281 	cbz	x1, 2b40 <__tee_socket_pta_open+0x80>
    2af4:	2a0303f3 	mov	w19, w3
    2af8:	aa0103e0 	mov	x0, x1
/home/lagadanu/Desktop/qemu/optee_os/lib/libutee/tee_socket_pta.c:59
    2afc:	f9001ba1 	str	x1, [x29,#48]
    2b00:	aa0403f4 	mov	x20, x4
/home/lagadanu/Desktop/qemu/optee_os/lib/libutee/tee_socket_pta.c:60
    2b04:	97fffe50 	bl	2444 <strlen>
    2b08:	11000400 	add	w0, w0, #0x1
    2b0c:	b9003ba0 	str	w0, [x29,#56]
/home/lagadanu/Desktop/qemu/optee_os/lib/libutee/tee_socket_pta.c:62
    2b10:	51019661 	sub	w1, w19, #0x65
    2b14:	7100043f 	cmp	w1, #0x1
/home/lagadanu/Desktop/qemu/optee_os/lib/libutee/tee_socket_pta.c:68
    2b18:	129fff20 	mov	w0, #0xffff0006            	// #-65530
/home/lagadanu/Desktop/qemu/optee_os/lib/libutee/tee_socket_pta.c:62
    2b1c:	54000128 	b.hi	2b40 <__tee_socket_pta_open+0x80>
/home/lagadanu/Desktop/qemu/optee_os/lib/libutee/tee_socket_pta.c:71
    2b20:	910083a2 	add	x2, x29, #0x20
    2b24:	52842a21 	mov	w1, #0x2151                	// #8529
    2b28:	52800020 	mov	w0, #0x1                   	// #1
/home/lagadanu/Desktop/qemu/optee_os/lib/libutee/tee_socket_pta.c:65
    2b2c:	b90043b3 	str	w19, [x29,#64]
/home/lagadanu/Desktop/qemu/optee_os/lib/libutee/tee_socket_pta.c:71
    2b30:	97ffffc2 	bl	2a38 <invoke_socket_pta>
/home/lagadanu/Desktop/qemu/optee_os/lib/libutee/tee_socket_pta.c:72
    2b34:	35000060 	cbnz	w0, 2b40 <__tee_socket_pta_open+0x80>
/home/lagadanu/Desktop/qemu/optee_os/lib/libutee/tee_socket_pta.c:73
    2b38:	b94053a1 	ldr	w1, [x29,#80]
    2b3c:	b9000281 	str	w1, [x20]
/home/lagadanu/Desktop/qemu/optee_os/lib/libutee/tee_socket_pta.c:75
    2b40:	a94153f3 	ldp	x19, x20, [sp,#16]
    2b44:	a8c67bfd 	ldp	x29, x30, [sp],#96
    2b48:	d65f03c0 	ret
/home/lagadanu/Desktop/qemu/optee_os/lib/libutee/tee_socket_pta.c:52
    2b4c:	129fff20 	mov	w0, #0xffff0006            	// #-65530
    2b50:	17fffffc 	b	2b40 <__tee_socket_pta_open+0x80>

0000000000002b54 <__tee_socket_pta_close>:
__tee_socket_pta_close():
/home/lagadanu/Desktop/qemu/optee_os/lib/libutee/tee_socket_pta.c:78
    2b54:	a9bb7bfd 	stp	x29, x30, [sp,#-80]!
/home/lagadanu/Desktop/qemu/optee_os/lib/libutee/tee_socket_pta.c:88
    2b58:	52800021 	mov	w1, #0x1                   	// #1
/home/lagadanu/Desktop/qemu/optee_os/lib/libutee/tee_socket_pta.c:78
    2b5c:	910003fd 	mov	x29, sp
/home/lagadanu/Desktop/qemu/optee_os/lib/libutee/tee_socket_pta.c:88
    2b60:	910043a2 	add	x2, x29, #0x10
/home/lagadanu/Desktop/qemu/optee_os/lib/libutee/tee_socket_pta.c:85
    2b64:	a9017fbf 	stp	xzr, xzr, [x29,#16]
/home/lagadanu/Desktop/qemu/optee_os/lib/libutee/tee_socket_pta.c:87
    2b68:	b90013a0 	str	w0, [x29,#16]
/home/lagadanu/Desktop/qemu/optee_os/lib/libutee/tee_socket_pta.c:88
    2b6c:	52800040 	mov	w0, #0x2                   	// #2
/home/lagadanu/Desktop/qemu/optee_os/lib/libutee/tee_socket_pta.c:85
    2b70:	a9027fbf 	stp	xzr, xzr, [x29,#32]
    2b74:	a9037fbf 	stp	xzr, xzr, [x29,#48]
    2b78:	a9047fbf 	stp	xzr, xzr, [x29,#64]
/home/lagadanu/Desktop/qemu/optee_os/lib/libutee/tee_socket_pta.c:88
    2b7c:	97ffffaf 	bl	2a38 <invoke_socket_pta>
/home/lagadanu/Desktop/qemu/optee_os/lib/libutee/tee_socket_pta.c:89
    2b80:	a8c57bfd 	ldp	x29, x30, [sp],#80
    2b84:	d65f03c0 	ret

0000000000002b88 <__tee_socket_pta_send>:
__tee_socket_pta_send():
/home/lagadanu/Desktop/qemu/optee_os/lib/libutee/tee_socket_pta.c:93
    2b88:	a9ba7bfd 	stp	x29, x30, [sp,#-96]!
    2b8c:	910003fd 	mov	x29, sp
    2b90:	f9000bf3 	str	x19, [sp,#16]
    2b94:	aa0203f3 	mov	x19, x2
/home/lagadanu/Desktop/qemu/optee_os/lib/libutee/tee_socket_pta.c:110
    2b98:	910083a2 	add	x2, x29, #0x20
/home/lagadanu/Desktop/qemu/optee_os/lib/libutee/tee_socket_pta.c:102
    2b9c:	a9027fbf 	stp	xzr, xzr, [x29,#32]
/home/lagadanu/Desktop/qemu/optee_os/lib/libutee/tee_socket_pta.c:105
    2ba0:	29040fa0 	stp	w0, w3, [x29,#32]
/home/lagadanu/Desktop/qemu/optee_os/lib/libutee/tee_socket_pta.c:108
    2ba4:	b9400260 	ldr	w0, [x19]
/home/lagadanu/Desktop/qemu/optee_os/lib/libutee/tee_socket_pta.c:102
    2ba8:	a9037fbf 	stp	xzr, xzr, [x29,#48]
/home/lagadanu/Desktop/qemu/optee_os/lib/libutee/tee_socket_pta.c:107
    2bac:	f9001ba1 	str	x1, [x29,#48]
/home/lagadanu/Desktop/qemu/optee_os/lib/libutee/tee_socket_pta.c:110
    2bb0:	52804a21 	mov	w1, #0x251                 	// #593
/home/lagadanu/Desktop/qemu/optee_os/lib/libutee/tee_socket_pta.c:108
    2bb4:	b9003ba0 	str	w0, [x29,#56]
/home/lagadanu/Desktop/qemu/optee_os/lib/libutee/tee_socket_pta.c:110
    2bb8:	52800060 	mov	w0, #0x3                   	// #3
/home/lagadanu/Desktop/qemu/optee_os/lib/libutee/tee_socket_pta.c:102
    2bbc:	a9047fbf 	stp	xzr, xzr, [x29,#64]
    2bc0:	a9057fbf 	stp	xzr, xzr, [x29,#80]
/home/lagadanu/Desktop/qemu/optee_os/lib/libutee/tee_socket_pta.c:110
    2bc4:	97ffff9d 	bl	2a38 <invoke_socket_pta>
/home/lagadanu/Desktop/qemu/optee_os/lib/libutee/tee_socket_pta.c:111
    2bc8:	b94043a1 	ldr	w1, [x29,#64]
    2bcc:	b9000261 	str	w1, [x19]
/home/lagadanu/Desktop/qemu/optee_os/lib/libutee/tee_socket_pta.c:113
    2bd0:	f9400bf3 	ldr	x19, [sp,#16]
    2bd4:	a8c67bfd 	ldp	x29, x30, [sp],#96
    2bd8:	d65f03c0 	ret

0000000000002bdc <__tee_socket_pta_recv>:
__tee_socket_pta_recv():
/home/lagadanu/Desktop/qemu/optee_os/lib/libutee/tee_socket_pta.c:118
    2bdc:	a9ba7bfd 	stp	x29, x30, [sp,#-96]!
    2be0:	910003fd 	mov	x29, sp
    2be4:	f9000bf3 	str	x19, [sp,#16]
    2be8:	aa0203f3 	mov	x19, x2
/home/lagadanu/Desktop/qemu/optee_os/lib/libutee/tee_socket_pta.c:134
    2bec:	910083a2 	add	x2, x29, #0x20
/home/lagadanu/Desktop/qemu/optee_os/lib/libutee/tee_socket_pta.c:126
    2bf0:	a9027fbf 	stp	xzr, xzr, [x29,#32]
/home/lagadanu/Desktop/qemu/optee_os/lib/libutee/tee_socket_pta.c:129
    2bf4:	29040fa0 	stp	w0, w3, [x29,#32]
/home/lagadanu/Desktop/qemu/optee_os/lib/libutee/tee_socket_pta.c:132
    2bf8:	b9400260 	ldr	w0, [x19]
/home/lagadanu/Desktop/qemu/optee_os/lib/libutee/tee_socket_pta.c:126
    2bfc:	a9037fbf 	stp	xzr, xzr, [x29,#48]
/home/lagadanu/Desktop/qemu/optee_os/lib/libutee/tee_socket_pta.c:131
    2c00:	f9001ba1 	str	x1, [x29,#48]
/home/lagadanu/Desktop/qemu/optee_os/lib/libutee/tee_socket_pta.c:134
    2c04:	52800c21 	mov	w1, #0x61                  	// #97
/home/lagadanu/Desktop/qemu/optee_os/lib/libutee/tee_socket_pta.c:132
    2c08:	b9003ba0 	str	w0, [x29,#56]
/home/lagadanu/Desktop/qemu/optee_os/lib/libutee/tee_socket_pta.c:134
    2c0c:	52800080 	mov	w0, #0x4                   	// #4
/home/lagadanu/Desktop/qemu/optee_os/lib/libutee/tee_socket_pta.c:126
    2c10:	a9047fbf 	stp	xzr, xzr, [x29,#64]
    2c14:	a9057fbf 	stp	xzr, xzr, [x29,#80]
/home/lagadanu/Desktop/qemu/optee_os/lib/libutee/tee_socket_pta.c:134
    2c18:	97ffff88 	bl	2a38 <invoke_socket_pta>
/home/lagadanu/Desktop/qemu/optee_os/lib/libutee/tee_socket_pta.c:135
    2c1c:	b9403ba1 	ldr	w1, [x29,#56]
    2c20:	b9000261 	str	w1, [x19]
/home/lagadanu/Desktop/qemu/optee_os/lib/libutee/tee_socket_pta.c:137
    2c24:	f9400bf3 	ldr	x19, [sp,#16]
    2c28:	a8c67bfd 	ldp	x29, x30, [sp],#96
    2c2c:	d65f03c0 	ret

0000000000002c30 <__tee_socket_pta_ioctl>:
__tee_socket_pta_ioctl():
/home/lagadanu/Desktop/qemu/optee_os/lib/libutee/tee_socket_pta.c:141
    2c30:	a9ba7bfd 	stp	x29, x30, [sp,#-96]!
    2c34:	910003fd 	mov	x29, sp
    2c38:	f9000bf3 	str	x19, [sp,#16]
    2c3c:	aa0303f3 	mov	x19, x3
/home/lagadanu/Desktop/qemu/optee_os/lib/libutee/tee_socket_pta.c:149
    2c40:	a9027fbf 	stp	xzr, xzr, [x29,#32]
/home/lagadanu/Desktop/qemu/optee_os/lib/libutee/tee_socket_pta.c:152
    2c44:	290407a0 	stp	w0, w1, [x29,#32]
/home/lagadanu/Desktop/qemu/optee_os/lib/libutee/tee_socket_pta.c:157
    2c48:	52800e21 	mov	w1, #0x71                  	// #113
/home/lagadanu/Desktop/qemu/optee_os/lib/libutee/tee_socket_pta.c:155
    2c4c:	b9400060 	ldr	w0, [x3]
/home/lagadanu/Desktop/qemu/optee_os/lib/libutee/tee_socket_pta.c:149
    2c50:	a9037fbf 	stp	xzr, xzr, [x29,#48]
/home/lagadanu/Desktop/qemu/optee_os/lib/libutee/tee_socket_pta.c:154
    2c54:	f9001ba2 	str	x2, [x29,#48]
/home/lagadanu/Desktop/qemu/optee_os/lib/libutee/tee_socket_pta.c:157
    2c58:	910083a2 	add	x2, x29, #0x20
/home/lagadanu/Desktop/qemu/optee_os/lib/libutee/tee_socket_pta.c:155
    2c5c:	b9003ba0 	str	w0, [x29,#56]
/home/lagadanu/Desktop/qemu/optee_os/lib/libutee/tee_socket_pta.c:157
    2c60:	528000a0 	mov	w0, #0x5                   	// #5
/home/lagadanu/Desktop/qemu/optee_os/lib/libutee/tee_socket_pta.c:149
    2c64:	a9047fbf 	stp	xzr, xzr, [x29,#64]
    2c68:	a9057fbf 	stp	xzr, xzr, [x29,#80]
/home/lagadanu/Desktop/qemu/optee_os/lib/libutee/tee_socket_pta.c:157
    2c6c:	97ffff73 	bl	2a38 <invoke_socket_pta>
/home/lagadanu/Desktop/qemu/optee_os/lib/libutee/tee_socket_pta.c:158
    2c70:	b9403ba1 	ldr	w1, [x29,#56]
    2c74:	b9000261 	str	w1, [x19]
/home/lagadanu/Desktop/qemu/optee_os/lib/libutee/tee_socket_pta.c:160
    2c78:	f9400bf3 	ldr	x19, [sp,#16]
    2c7c:	a8c67bfd 	ldp	x29, x30, [sp],#96
    2c80:	d65f03c0 	ret

0000000000002c84 <ta_header_get_session>:
ta_header_get_session():
/home/lagadanu/Desktop/qemu/optee_os/lib/libutee/arch/arm/user_ta_entry.c:78
    2c84:	2a0003e1 	mov	w1, w0
/home/lagadanu/Desktop/qemu/optee_os/lib/libutee/arch/arm/user_ta_entry.c:81
    2c88:	90000040 	adrp	x0, a000 <ta_props>
    2c8c:	f940b400 	ldr	x0, [x0,#360]
/home/lagadanu/Desktop/qemu/optee_os/lib/libutee/arch/arm/user_ta_entry.c:81 (discriminator 1)
    2c90:	b5000040 	cbnz	x0, 2c98 <ta_header_get_session+0x14>
/home/lagadanu/Desktop/qemu/optee_os/lib/libutee/arch/arm/user_ta_entry.c:86
    2c94:	d65f03c0 	ret
/home/lagadanu/Desktop/qemu/optee_os/lib/libutee/arch/arm/user_ta_entry.c:82
    2c98:	b9400002 	ldr	w2, [x0]
    2c9c:	6b01005f 	cmp	w2, w1
    2ca0:	54ffffa0 	b.eq	2c94 <ta_header_get_session+0x10>
/home/lagadanu/Desktop/qemu/optee_os/lib/libutee/arch/arm/user_ta_entry.c:81 (discriminator 2)
    2ca4:	f9400800 	ldr	x0, [x0,#16]
    2ca8:	17fffffa 	b	2c90 <ta_header_get_session+0xc>

0000000000002cac <ta_header_remove_session>:
ta_header_remove_session():
/home/lagadanu/Desktop/qemu/optee_os/lib/libutee/arch/arm/user_ta_entry.c:115
    2cac:	a9be7bfd 	stp	x29, x30, [sp,#-32]!
    2cb0:	2a0003e2 	mov	w2, w0
    2cb4:	910003fd 	mov	x29, sp
    2cb8:	f9000bf3 	str	x19, [sp,#16]
/home/lagadanu/Desktop/qemu/optee_os/lib/libutee/arch/arm/user_ta_entry.c:119
    2cbc:	90000053 	adrp	x19, a000 <ta_props>
    2cc0:	f940b660 	ldr	x0, [x19,#360]
/home/lagadanu/Desktop/qemu/optee_os/lib/libutee/arch/arm/user_ta_entry.c:119 (discriminator 1)
    2cc4:	b5000080 	cbnz	x0, 2cd4 <ta_header_remove_session+0x28>
/home/lagadanu/Desktop/qemu/optee_os/lib/libutee/arch/arm/user_ta_entry.c:133
    2cc8:	f9400bf3 	ldr	x19, [sp,#16]
    2ccc:	a8c27bfd 	ldp	x29, x30, [sp],#32
    2cd0:	d65f03c0 	ret
/home/lagadanu/Desktop/qemu/optee_os/lib/libutee/arch/arm/user_ta_entry.c:120
    2cd4:	b9400001 	ldr	w1, [x0]
    2cd8:	6b02003f 	cmp	w1, w2
    2cdc:	f9400801 	ldr	x1, [x0,#16]
    2ce0:	540002c1 	b.ne	2d38 <ta_header_remove_session+0x8c>
    2ce4:	f9400c02 	ldr	x2, [x0,#24]
/home/lagadanu/Desktop/qemu/optee_os/lib/libutee/arch/arm/user_ta_entry.c:121
    2ce8:	b4000221 	cbz	x1, 2d2c <ta_header_remove_session+0x80>
/home/lagadanu/Desktop/qemu/optee_os/lib/libutee/arch/arm/user_ta_entry.c:121 (discriminator 1)
    2cec:	f9000c22 	str	x2, [x1,#24]
/home/lagadanu/Desktop/qemu/optee_os/lib/libutee/arch/arm/user_ta_entry.c:121 (discriminator 4)
    2cf0:	f9400c02 	ldr	x2, [x0,#24]
    2cf4:	f9000041 	str	x1, [x2]
/home/lagadanu/Desktop/qemu/optee_os/lib/libutee/arch/arm/user_ta_entry.c:122 (discriminator 4)
    2cf8:	9400045a 	bl	3e60 <TEE_Free>
/home/lagadanu/Desktop/qemu/optee_os/lib/libutee/arch/arm/user_ta_entry.c:125 (discriminator 4)
    2cfc:	f0000020 	adrp	x0, 9000 <__func__.3181+0x410>
/home/lagadanu/Desktop/qemu/optee_os/lib/libutee/arch/arm/user_ta_entry.c:127 (discriminator 4)
    2d00:	f940b661 	ldr	x1, [x19,#360]
/home/lagadanu/Desktop/qemu/optee_os/lib/libutee/arch/arm/user_ta_entry.c:125 (discriminator 4)
    2d04:	52800282 	mov	w2, #0x14                  	// #20
    2d08:	f942e800 	ldr	x0, [x0,#1488]
/home/lagadanu/Desktop/qemu/optee_os/lib/libutee/arch/arm/user_ta_entry.c:127 (discriminator 4)
    2d0c:	f100003f 	cmp	x1, #0x0
/home/lagadanu/Desktop/qemu/optee_os/lib/libutee/arch/arm/user_ta_entry.c:125 (discriminator 4)
    2d10:	b9401400 	ldr	w0, [x0,#20]
    2d14:	0a020000 	and	w0, w0, w2
/home/lagadanu/Desktop/qemu/optee_os/lib/libutee/arch/arm/user_ta_entry.c:127 (discriminator 4)
    2d18:	7a420004 	ccmp	w0, w2, #0x4, eq
    2d1c:	54fffd60 	b.eq	2cc8 <ta_header_remove_session+0x1c>
/home/lagadanu/Desktop/qemu/optee_os/lib/libutee/arch/arm/user_ta_entry.c:133
    2d20:	f9400bf3 	ldr	x19, [sp,#16]
    2d24:	a8c27bfd 	ldp	x29, x30, [sp],#32
uninit_instance():
/home/lagadanu/Desktop/qemu/optee_os/lib/libutee/arch/arm/user_ta_entry.c:63
    2d28:	17fff4c0 	b	28 <TA_DestroyEntryPoint>
ta_header_remove_session():
/home/lagadanu/Desktop/qemu/optee_os/lib/libutee/arch/arm/user_ta_entry.c:121 (discriminator 2)
    2d2c:	9105a263 	add	x3, x19, #0x168
    2d30:	f9000462 	str	x2, [x3,#8]
    2d34:	17ffffef 	b	2cf0 <ta_header_remove_session+0x44>
/home/lagadanu/Desktop/qemu/optee_os/lib/libutee/arch/arm/user_ta_entry.c:119 (discriminator 2)
    2d38:	aa0103e0 	mov	x0, x1
    2d3c:	17ffffe2 	b	2cc4 <ta_header_remove_session+0x18>

0000000000002d40 <__utee_entry>:
__utee_entry():
/home/lagadanu/Desktop/qemu/optee_os/lib/libutee/arch/arm/user_ta_entry.c:200
    2d40:	a9b77bfd 	stp	x29, x30, [sp,#-144]!
/home/lagadanu/Desktop/qemu/optee_os/lib/libutee/arch/arm/user_ta_entry.c:211
    2d44:	f100041f 	cmp	x0, #0x1
/home/lagadanu/Desktop/qemu/optee_os/lib/libutee/arch/arm/user_ta_entry.c:200
    2d48:	910003fd 	mov	x29, sp
    2d4c:	a90153f3 	stp	x19, x20, [sp,#16]
    2d50:	aa0103f4 	mov	x20, x1
    2d54:	a9025bf5 	stp	x21, x22, [sp,#32]
    2d58:	f9001bf7 	str	x23, [sp,#48]
/home/lagadanu/Desktop/qemu/optee_os/lib/libutee/arch/arm/user_ta_entry.c:211
    2d5c:	54000a60 	b.eq	2ea8 <__utee_entry+0x168>
    2d60:	aa0203f6 	mov	x22, x2
    2d64:	b40000e0 	cbz	x0, 2d80 <__utee_entry+0x40>
    2d68:	f100081f 	cmp	x0, #0x2
    2d6c:	54000b20 	b.eq	2ed0 <__utee_entry+0x190>
/home/lagadanu/Desktop/qemu/optee_os/lib/libutee/arch/arm/user_ta_entry.c:223
    2d70:	52800000 	mov	w0, #0x0                   	// #0
/home/lagadanu/Desktop/qemu/optee_os/lib/libutee/arch/arm/user_ta_entry.c:222
    2d74:	12800013 	mov	w19, #0xffffffff            	// #-1
/home/lagadanu/Desktop/qemu/optee_os/lib/libutee/arch/arm/user_ta_entry.c:223
    2d78:	94000441 	bl	3e7c <TEE_Panic>
/home/lagadanu/Desktop/qemu/optee_os/lib/libutee/arch/arm/user_ta_entry.c:224
    2d7c:	1400000c 	b	2dac <__utee_entry+0x6c>
ta_header_add_session():
/home/lagadanu/Desktop/qemu/optee_os/lib/libutee/arch/arm/user_ta_entry.c:90
    2d80:	2a0103e0 	mov	w0, w1
    2d84:	97ffffc0 	bl	2c84 <ta_header_get_session>
/home/lagadanu/Desktop/qemu/optee_os/lib/libutee/arch/arm/user_ta_entry.c:93
    2d88:	b5000520 	cbnz	x0, 2e2c <__utee_entry+0xec>
/home/lagadanu/Desktop/qemu/optee_os/lib/libutee/arch/arm/user_ta_entry.c:96
    2d8c:	d0000080 	adrp	x0, 14000 <buf.3610+0x448>
    2d90:	396ee801 	ldrb	w1, [x0,#3002]
    2d94:	340001e1 	cbz	w1, 2dd0 <__utee_entry+0x90>
/home/lagadanu/Desktop/qemu/optee_os/lib/libutee/arch/arm/user_ta_entry.c:103
    2d98:	52b00001 	mov	w1, #0x80000000            	// #-2147483648
    2d9c:	52800400 	mov	w0, #0x20                  	// #32
/home/lagadanu/Desktop/qemu/optee_os/lib/libutee/arch/arm/user_ta_entry.c:106
    2da0:	129ffe73 	mov	w19, #0xffff000c            	// #-65524
/home/lagadanu/Desktop/qemu/optee_os/lib/libutee/arch/arm/user_ta_entry.c:103
    2da4:	94000416 	bl	3dfc <TEE_Malloc>
/home/lagadanu/Desktop/qemu/optee_os/lib/libutee/arch/arm/user_ta_entry.c:105
    2da8:	b5000300 	cbnz	x0, 2e08 <__utee_entry+0xc8>
ta_header_save_params():
/home/lagadanu/Desktop/qemu/optee_os/lib/libutee/arch/arm/user_ta_entry.c:69
    2dac:	f0000020 	adrp	x0, 9000 <__func__.3181+0x410>
/home/lagadanu/Desktop/qemu/optee_os/lib/libutee/arch/arm/user_ta_entry.c:74
    2db0:	d2800802 	mov	x2, #0x40                  	// #64
/home/lagadanu/Desktop/qemu/optee_os/lib/libutee/arch/arm/user_ta_entry.c:69
    2db4:	f942d401 	ldr	x1, [x0,#1448]
/home/lagadanu/Desktop/qemu/optee_os/lib/libutee/arch/arm/user_ta_entry.c:74
    2db8:	f942e400 	ldr	x0, [x0,#1480]
/home/lagadanu/Desktop/qemu/optee_os/lib/libutee/arch/arm/user_ta_entry.c:69
    2dbc:	b900003f 	str	wzr, [x1]
/home/lagadanu/Desktop/qemu/optee_os/lib/libutee/arch/arm/user_ta_entry.c:74
    2dc0:	52800001 	mov	w1, #0x0                   	// #0
    2dc4:	97fff9ca 	bl	14ec <memset>
__utee_entry():
/home/lagadanu/Desktop/qemu/optee_os/lib/libutee/arch/arm/user_ta_entry.c:227
    2dc8:	2a1303e0 	mov	w0, w19
    2dcc:	94000062 	bl	2f54 <utee_return>
ta_header_add_session():
/home/lagadanu/Desktop/qemu/optee_os/lib/libutee/arch/arm/user_ta_entry.c:97
    2dd0:	52800021 	mov	w1, #0x1                   	// #1
    2dd4:	392ee801 	strb	w1, [x0,#3002]
init_instance():
/home/lagadanu/Desktop/qemu/optee_os/lib/libutee/arch/arm/user_ta_entry.c:53
    2dd8:	97fff57a 	bl	3c0 <tahead_get_trace_level>
    2ddc:	97fff9d5 	bl	1530 <trace_set_level>
/home/lagadanu/Desktop/qemu/optee_os/lib/libutee/arch/arm/user_ta_entry.c:55
    2de0:	f0000020 	adrp	x0, 9000 <__func__.3181+0x410>
    2de4:	f942c001 	ldr	x1, [x0,#1408]
    2de8:	f942d000 	ldr	x0, [x0,#1440]
    2dec:	f9400021 	ldr	x1, [x1]
    2df0:	97fff8dc 	bl	1160 <malloc_add_pool>
/home/lagadanu/Desktop/qemu/optee_os/lib/libutee/arch/arm/user_ta_entry.c:56
    2df4:	9400012e 	bl	32ac <_TEE_MathAPI_Init>
/home/lagadanu/Desktop/qemu/optee_os/lib/libutee/arch/arm/user_ta_entry.c:57
    2df8:	97fff48a 	bl	20 <TA_CreateEntryPoint>
    2dfc:	2a0003f3 	mov	w19, w0
ta_header_add_session():
/home/lagadanu/Desktop/qemu/optee_os/lib/libutee/arch/arm/user_ta_entry.c:99
    2e00:	34fffcc0 	cbz	w0, 2d98 <__utee_entry+0x58>
    2e04:	17ffffea 	b	2dac <__utee_entry+0x6c>
/home/lagadanu/Desktop/qemu/optee_os/lib/libutee/arch/arm/user_ta_entry.c:109
    2e08:	90000041 	adrp	x1, a000 <ta_props>
    2e0c:	9105a021 	add	x1, x1, #0x168
    2e10:	f9400422 	ldr	x2, [x1,#8]
    2e14:	f9000c02 	str	x2, [x0,#24]
/home/lagadanu/Desktop/qemu/optee_os/lib/libutee/arch/arm/user_ta_entry.c:107
    2e18:	b9000014 	str	w20, [x0]
/home/lagadanu/Desktop/qemu/optee_os/lib/libutee/arch/arm/user_ta_entry.c:109
    2e1c:	a900fc1f 	stp	xzr, xzr, [x0,#8]
    2e20:	f9000040 	str	x0, [x2]
    2e24:	91004000 	add	x0, x0, #0x10
    2e28:	f9000420 	str	x0, [x1,#8]
entry_open_session():
/home/lagadanu/Desktop/qemu/optee_os/lib/libutee/arch/arm/user_ta_entry.c:147
    2e2c:	2a1403e0 	mov	w0, w20
/home/lagadanu/Desktop/qemu/optee_os/lib/libutee/arch/arm/user_ta_entry.c:149
    2e30:	129fff13 	mov	w19, #0xffff0007            	// #-65529
/home/lagadanu/Desktop/qemu/optee_os/lib/libutee/arch/arm/user_ta_entry.c:147
    2e34:	97ffff94 	bl	2c84 <ta_header_get_session>
    2e38:	aa0003f7 	mov	x23, x0
/home/lagadanu/Desktop/qemu/optee_os/lib/libutee/arch/arm/user_ta_entry.c:148
    2e3c:	b4fffb80 	cbz	x0, 2dac <__utee_entry+0x6c>
/home/lagadanu/Desktop/qemu/optee_os/lib/libutee/arch/arm/user_ta_entry.c:151
    2e40:	910143b5 	add	x21, x29, #0x50
    2e44:	aa1603e2 	mov	x2, x22
    2e48:	910133a1 	add	x1, x29, #0x4c
    2e4c:	aa1503e0 	mov	x0, x21
    2e50:	940002f0 	bl	3a10 <__utee_to_param>
/home/lagadanu/Desktop/qemu/optee_os/lib/libutee/arch/arm/user_ta_entry.c:152
    2e54:	b9404fb3 	ldr	w19, [x29,#76]
ta_header_save_params():
/home/lagadanu/Desktop/qemu/optee_os/lib/libutee/arch/arm/user_ta_entry.c:69
    2e58:	f0000020 	adrp	x0, 9000 <__func__.3181+0x410>
/home/lagadanu/Desktop/qemu/optee_os/lib/libutee/arch/arm/user_ta_entry.c:72
    2e5c:	d2800802 	mov	x2, #0x40                  	// #64
/home/lagadanu/Desktop/qemu/optee_os/lib/libutee/arch/arm/user_ta_entry.c:69
    2e60:	f942d401 	ldr	x1, [x0,#1448]
/home/lagadanu/Desktop/qemu/optee_os/lib/libutee/arch/arm/user_ta_entry.c:72
    2e64:	f942e400 	ldr	x0, [x0,#1480]
/home/lagadanu/Desktop/qemu/optee_os/lib/libutee/arch/arm/user_ta_entry.c:69
    2e68:	b9000033 	str	w19, [x1]
/home/lagadanu/Desktop/qemu/optee_os/lib/libutee/arch/arm/user_ta_entry.c:72
    2e6c:	aa1503e1 	mov	x1, x21
    2e70:	97fff997 	bl	14cc <memcpy>
entry_open_session():
/home/lagadanu/Desktop/qemu/optee_os/lib/libutee/arch/arm/user_ta_entry.c:154
    2e74:	910022e2 	add	x2, x23, #0x8
    2e78:	aa1503e1 	mov	x1, x21
    2e7c:	2a1303e0 	mov	w0, w19
    2e80:	97fff46b 	bl	2c <TA_OpenSessionEntryPoint>
/home/lagadanu/Desktop/qemu/optee_os/lib/libutee/arch/arm/user_ta_entry.c:157
    2e84:	b9404fa1 	ldr	w1, [x29,#76]
/home/lagadanu/Desktop/qemu/optee_os/lib/libutee/arch/arm/user_ta_entry.c:154
    2e88:	2a0003f3 	mov	w19, w0
/home/lagadanu/Desktop/qemu/optee_os/lib/libutee/arch/arm/user_ta_entry.c:157
    2e8c:	aa1503e2 	mov	x2, x21
    2e90:	aa1603e0 	mov	x0, x22
    2e94:	940002c1 	bl	3998 <__utee_from_param>
/home/lagadanu/Desktop/qemu/optee_os/lib/libutee/arch/arm/user_ta_entry.c:159
    2e98:	34fff8b3 	cbz	w19, 2dac <__utee_entry+0x6c>
/home/lagadanu/Desktop/qemu/optee_os/lib/libutee/arch/arm/user_ta_entry.c:160
    2e9c:	2a1403e0 	mov	w0, w20
    2ea0:	97ffff83 	bl	2cac <ta_header_remove_session>
    2ea4:	17ffffc2 	b	2dac <__utee_entry+0x6c>
entry_close_session():
/home/lagadanu/Desktop/qemu/optee_os/lib/libutee/arch/arm/user_ta_entry.c:166
    2ea8:	2a0103e0 	mov	w0, w1
/home/lagadanu/Desktop/qemu/optee_os/lib/libutee/arch/arm/user_ta_entry.c:169
    2eac:	129fff13 	mov	w19, #0xffff0007            	// #-65529
/home/lagadanu/Desktop/qemu/optee_os/lib/libutee/arch/arm/user_ta_entry.c:166
    2eb0:	97ffff75 	bl	2c84 <ta_header_get_session>
/home/lagadanu/Desktop/qemu/optee_os/lib/libutee/arch/arm/user_ta_entry.c:168
    2eb4:	b4fff7c0 	cbz	x0, 2dac <__utee_entry+0x6c>
/home/lagadanu/Desktop/qemu/optee_os/lib/libutee/arch/arm/user_ta_entry.c:171
    2eb8:	f9400400 	ldr	x0, [x0,#8]
/home/lagadanu/Desktop/qemu/optee_os/lib/libutee/arch/arm/user_ta_entry.c:174
    2ebc:	52800013 	mov	w19, #0x0                   	// #0
/home/lagadanu/Desktop/qemu/optee_os/lib/libutee/arch/arm/user_ta_entry.c:171
    2ec0:	97fff45d 	bl	34 <TA_CloseSessionEntryPoint>
/home/lagadanu/Desktop/qemu/optee_os/lib/libutee/arch/arm/user_ta_entry.c:173
    2ec4:	2a1403e0 	mov	w0, w20
    2ec8:	97ffff79 	bl	2cac <ta_header_remove_session>
    2ecc:	17ffffb8 	b	2dac <__utee_entry+0x6c>
entry_invoke_command():
/home/lagadanu/Desktop/qemu/optee_os/lib/libutee/arch/arm/user_ta_entry.c:183
    2ed0:	2a0103e0 	mov	w0, w1
/home/lagadanu/Desktop/qemu/optee_os/lib/libutee/arch/arm/user_ta_entry.c:186
    2ed4:	129fff13 	mov	w19, #0xffff0007            	// #-65529
/home/lagadanu/Desktop/qemu/optee_os/lib/libutee/arch/arm/user_ta_entry.c:183
    2ed8:	97ffff6b 	bl	2c84 <ta_header_get_session>
    2edc:	aa0003f5 	mov	x21, x0
/home/lagadanu/Desktop/qemu/optee_os/lib/libutee/arch/arm/user_ta_entry.c:185
    2ee0:	b4fff660 	cbz	x0, 2dac <__utee_entry+0x6c>
/home/lagadanu/Desktop/qemu/optee_os/lib/libutee/arch/arm/user_ta_entry.c:188
    2ee4:	910143b4 	add	x20, x29, #0x50
    2ee8:	aa0303f7 	mov	x23, x3
    2eec:	aa1603e2 	mov	x2, x22
    2ef0:	910133a1 	add	x1, x29, #0x4c
    2ef4:	aa1403e0 	mov	x0, x20
    2ef8:	940002c6 	bl	3a10 <__utee_to_param>
ta_header_save_params():
/home/lagadanu/Desktop/qemu/optee_os/lib/libutee/arch/arm/user_ta_entry.c:69
    2efc:	f0000020 	adrp	x0, 9000 <__func__.3181+0x410>
entry_invoke_command():
/home/lagadanu/Desktop/qemu/optee_os/lib/libutee/arch/arm/user_ta_entry.c:189
    2f00:	b9404fb3 	ldr	w19, [x29,#76]
ta_header_save_params():
/home/lagadanu/Desktop/qemu/optee_os/lib/libutee/arch/arm/user_ta_entry.c:72
    2f04:	d2800802 	mov	x2, #0x40                  	// #64
/home/lagadanu/Desktop/qemu/optee_os/lib/libutee/arch/arm/user_ta_entry.c:69
    2f08:	f942d401 	ldr	x1, [x0,#1448]
/home/lagadanu/Desktop/qemu/optee_os/lib/libutee/arch/arm/user_ta_entry.c:72
    2f0c:	f942e400 	ldr	x0, [x0,#1480]
/home/lagadanu/Desktop/qemu/optee_os/lib/libutee/arch/arm/user_ta_entry.c:69
    2f10:	b9000033 	str	w19, [x1]
/home/lagadanu/Desktop/qemu/optee_os/lib/libutee/arch/arm/user_ta_entry.c:72
    2f14:	aa1403e1 	mov	x1, x20
    2f18:	97fff96d 	bl	14cc <memcpy>
entry_invoke_command():
/home/lagadanu/Desktop/qemu/optee_os/lib/libutee/arch/arm/user_ta_entry.c:191
    2f1c:	f94006a0 	ldr	x0, [x21,#8]
    2f20:	2a1303e2 	mov	w2, w19
    2f24:	2a1703e1 	mov	w1, w23
    2f28:	aa1403e3 	mov	x3, x20
    2f2c:	97fff443 	bl	38 <TA_InvokeCommandEntryPoint>
    2f30:	2a0003f3 	mov	w19, w0
/home/lagadanu/Desktop/qemu/optee_os/lib/libutee/arch/arm/user_ta_entry.c:194
    2f34:	b9404fa1 	ldr	w1, [x29,#76]
    2f38:	aa1403e2 	mov	x2, x20
    2f3c:	aa1603e0 	mov	x0, x22
    2f40:	94000296 	bl	3998 <__utee_from_param>
    2f44:	17ffff9a 	b	2dac <__utee_entry+0x6c>

0000000000002f48 <utee_panic>:
utee_panic():
/home/lagadanu/Desktop/qemu/optee_os/lib/libutee/arch/arm/utee_syscalls_a64.S:24
    2f48:	a9bf7bfd 	stp	x29, x30, [sp,#-16]!
/home/lagadanu/Desktop/qemu/optee_os/lib/libutee/arch/arm/utee_syscalls_a64.S:25
    2f4c:	910003e1 	mov	x1, sp
/home/lagadanu/Desktop/qemu/optee_os/lib/libutee/arch/arm/utee_syscalls_a64.S:26
    2f50:	94000007 	bl	2f6c <__utee_panic>

0000000000002f54 <utee_return>:
utee_return():
/home/lagadanu/Desktop/qemu/optee_os/lib/libutee/arch/arm/utee_syscalls_asm.S:8
    2f54:	d2800008 	mov	x8, #0x0                   	// #0
    2f58:	d4000001 	svc	#0x0
    2f5c:	d65f03c0 	ret

0000000000002f60 <utee_log>:
utee_log():
/home/lagadanu/Desktop/qemu/optee_os/lib/libutee/arch/arm/utee_syscalls_asm.S:10
    2f60:	d2800028 	mov	x8, #0x1                   	// #1
    2f64:	d4000001 	svc	#0x0
    2f68:	d65f03c0 	ret

0000000000002f6c <__utee_panic>:
__utee_panic():
/home/lagadanu/Desktop/qemu/optee_os/lib/libutee/arch/arm/utee_syscalls_asm.S:12
    2f6c:	d2800048 	mov	x8, #0x2                   	// #2
    2f70:	d4000001 	svc	#0x0
    2f74:	d65f03c0 	ret

0000000000002f78 <utee_get_property>:
utee_get_property():
/home/lagadanu/Desktop/qemu/optee_os/lib/libutee/arch/arm/utee_syscalls_asm.S:14
    2f78:	d2800068 	mov	x8, #0x3                   	// #3
    2f7c:	d4000001 	svc	#0x0
    2f80:	d65f03c0 	ret

0000000000002f84 <utee_get_property_name_to_index>:
utee_get_property_name_to_index():
/home/lagadanu/Desktop/qemu/optee_os/lib/libutee/arch/arm/utee_syscalls_asm.S:16
    2f84:	d2800088 	mov	x8, #0x4                   	// #4
    2f88:	d4000001 	svc	#0x0
    2f8c:	d65f03c0 	ret

0000000000002f90 <utee_open_ta_session>:
utee_open_ta_session():
/home/lagadanu/Desktop/qemu/optee_os/lib/libutee/arch/arm/utee_syscalls_asm.S:19
    2f90:	d28000a8 	mov	x8, #0x5                   	// #5
    2f94:	d4000001 	svc	#0x0
    2f98:	d65f03c0 	ret

0000000000002f9c <utee_close_ta_session>:
utee_close_ta_session():
/home/lagadanu/Desktop/qemu/optee_os/lib/libutee/arch/arm/utee_syscalls_asm.S:21
    2f9c:	d28000c8 	mov	x8, #0x6                   	// #6
    2fa0:	d4000001 	svc	#0x0
    2fa4:	d65f03c0 	ret

0000000000002fa8 <utee_invoke_ta_command>:
utee_invoke_ta_command():
/home/lagadanu/Desktop/qemu/optee_os/lib/libutee/arch/arm/utee_syscalls_asm.S:23
    2fa8:	d28000e8 	mov	x8, #0x7                   	// #7
    2fac:	d4000001 	svc	#0x0
    2fb0:	d65f03c0 	ret

0000000000002fb4 <utee_get_cancellation_flag>:
utee_get_cancellation_flag():
/home/lagadanu/Desktop/qemu/optee_os/lib/libutee/arch/arm/utee_syscalls_asm.S:25
    2fb4:	d2800128 	mov	x8, #0x9                   	// #9
    2fb8:	d4000001 	svc	#0x0
    2fbc:	d65f03c0 	ret

0000000000002fc0 <utee_check_access_rights>:
utee_check_access_rights():
/home/lagadanu/Desktop/qemu/optee_os/lib/libutee/arch/arm/utee_syscalls_asm.S:28
    2fc0:	d2800108 	mov	x8, #0x8                   	// #8
    2fc4:	d4000001 	svc	#0x0
    2fc8:	d65f03c0 	ret

0000000000002fcc <utee_unmask_cancellation>:
utee_unmask_cancellation():
/home/lagadanu/Desktop/qemu/optee_os/lib/libutee/arch/arm/utee_syscalls_asm.S:30
    2fcc:	d2800148 	mov	x8, #0xa                   	// #10
    2fd0:	d4000001 	svc	#0x0
    2fd4:	d65f03c0 	ret

0000000000002fd8 <utee_mask_cancellation>:
utee_mask_cancellation():
/home/lagadanu/Desktop/qemu/optee_os/lib/libutee/arch/arm/utee_syscalls_asm.S:32
    2fd8:	d2800168 	mov	x8, #0xb                   	// #11
    2fdc:	d4000001 	svc	#0x0
    2fe0:	d65f03c0 	ret

0000000000002fe4 <utee_wait>:
utee_wait():
/home/lagadanu/Desktop/qemu/optee_os/lib/libutee/arch/arm/utee_syscalls_asm.S:34
    2fe4:	d2800188 	mov	x8, #0xc                   	// #12
    2fe8:	d4000001 	svc	#0x0
    2fec:	d65f03c0 	ret

0000000000002ff0 <utee_get_time>:
utee_get_time():
/home/lagadanu/Desktop/qemu/optee_os/lib/libutee/arch/arm/utee_syscalls_asm.S:36
    2ff0:	d28001a8 	mov	x8, #0xd                   	// #13
    2ff4:	d4000001 	svc	#0x0
    2ff8:	d65f03c0 	ret

0000000000002ffc <utee_set_ta_time>:
utee_set_ta_time():
/home/lagadanu/Desktop/qemu/optee_os/lib/libutee/arch/arm/utee_syscalls_asm.S:38
    2ffc:	d28001c8 	mov	x8, #0xe                   	// #14
    3000:	d4000001 	svc	#0x0
    3004:	d65f03c0 	ret

0000000000003008 <utee_cryp_state_alloc>:
utee_cryp_state_alloc():
/home/lagadanu/Desktop/qemu/optee_os/lib/libutee/arch/arm/utee_syscalls_asm.S:40
    3008:	d28001e8 	mov	x8, #0xf                   	// #15
    300c:	d4000001 	svc	#0x0
    3010:	d65f03c0 	ret

0000000000003014 <utee_cryp_state_copy>:
utee_cryp_state_copy():
/home/lagadanu/Desktop/qemu/optee_os/lib/libutee/arch/arm/utee_syscalls_asm.S:42
    3014:	d2800208 	mov	x8, #0x10                  	// #16
    3018:	d4000001 	svc	#0x0
    301c:	d65f03c0 	ret

0000000000003020 <utee_cryp_state_free>:
utee_cryp_state_free():
/home/lagadanu/Desktop/qemu/optee_os/lib/libutee/arch/arm/utee_syscalls_asm.S:44
    3020:	d2800228 	mov	x8, #0x11                  	// #17
    3024:	d4000001 	svc	#0x0
    3028:	d65f03c0 	ret

000000000000302c <utee_hash_init>:
utee_hash_init():
/home/lagadanu/Desktop/qemu/optee_os/lib/libutee/arch/arm/utee_syscalls_asm.S:46
    302c:	d2800248 	mov	x8, #0x12                  	// #18
    3030:	d4000001 	svc	#0x0
    3034:	d65f03c0 	ret

0000000000003038 <utee_hash_update>:
utee_hash_update():
/home/lagadanu/Desktop/qemu/optee_os/lib/libutee/arch/arm/utee_syscalls_asm.S:48
    3038:	d2800268 	mov	x8, #0x13                  	// #19
    303c:	d4000001 	svc	#0x0
    3040:	d65f03c0 	ret

0000000000003044 <utee_hash_final>:
utee_hash_final():
/home/lagadanu/Desktop/qemu/optee_os/lib/libutee/arch/arm/utee_syscalls_asm.S:50
    3044:	d2800288 	mov	x8, #0x14                  	// #20
    3048:	d4000001 	svc	#0x0
    304c:	d65f03c0 	ret

0000000000003050 <utee_cipher_init>:
utee_cipher_init():
/home/lagadanu/Desktop/qemu/optee_os/lib/libutee/arch/arm/utee_syscalls_asm.S:52
    3050:	d28002a8 	mov	x8, #0x15                  	// #21
    3054:	d4000001 	svc	#0x0
    3058:	d65f03c0 	ret

000000000000305c <utee_cipher_update>:
utee_cipher_update():
/home/lagadanu/Desktop/qemu/optee_os/lib/libutee/arch/arm/utee_syscalls_asm.S:54
    305c:	d28002c8 	mov	x8, #0x16                  	// #22
    3060:	d4000001 	svc	#0x0
    3064:	d65f03c0 	ret

0000000000003068 <utee_cipher_final>:
utee_cipher_final():
/home/lagadanu/Desktop/qemu/optee_os/lib/libutee/arch/arm/utee_syscalls_asm.S:56
    3068:	d28002e8 	mov	x8, #0x17                  	// #23
    306c:	d4000001 	svc	#0x0
    3070:	d65f03c0 	ret

0000000000003074 <utee_cryp_obj_get_info>:
utee_cryp_obj_get_info():
/home/lagadanu/Desktop/qemu/optee_os/lib/libutee/arch/arm/utee_syscalls_asm.S:58
    3074:	d2800308 	mov	x8, #0x18                  	// #24
    3078:	d4000001 	svc	#0x0
    307c:	d65f03c0 	ret

0000000000003080 <utee_cryp_obj_restrict_usage>:
utee_cryp_obj_restrict_usage():
/home/lagadanu/Desktop/qemu/optee_os/lib/libutee/arch/arm/utee_syscalls_asm.S:60
    3080:	d2800328 	mov	x8, #0x19                  	// #25
    3084:	d4000001 	svc	#0x0
    3088:	d65f03c0 	ret

000000000000308c <utee_cryp_obj_get_attr>:
utee_cryp_obj_get_attr():
/home/lagadanu/Desktop/qemu/optee_os/lib/libutee/arch/arm/utee_syscalls_asm.S:63
    308c:	d2800348 	mov	x8, #0x1a                  	// #26
    3090:	d4000001 	svc	#0x0
    3094:	d65f03c0 	ret

0000000000003098 <utee_cryp_obj_alloc>:
utee_cryp_obj_alloc():
/home/lagadanu/Desktop/qemu/optee_os/lib/libutee/arch/arm/utee_syscalls_asm.S:65
    3098:	d2800368 	mov	x8, #0x1b                  	// #27
    309c:	d4000001 	svc	#0x0
    30a0:	d65f03c0 	ret

00000000000030a4 <utee_cryp_obj_close>:
utee_cryp_obj_close():
/home/lagadanu/Desktop/qemu/optee_os/lib/libutee/arch/arm/utee_syscalls_asm.S:67
    30a4:	d2800388 	mov	x8, #0x1c                  	// #28
    30a8:	d4000001 	svc	#0x0
    30ac:	d65f03c0 	ret

00000000000030b0 <utee_cryp_obj_reset>:
utee_cryp_obj_reset():
/home/lagadanu/Desktop/qemu/optee_os/lib/libutee/arch/arm/utee_syscalls_asm.S:69
    30b0:	d28003a8 	mov	x8, #0x1d                  	// #29
    30b4:	d4000001 	svc	#0x0
    30b8:	d65f03c0 	ret

00000000000030bc <utee_cryp_obj_populate>:
utee_cryp_obj_populate():
/home/lagadanu/Desktop/qemu/optee_os/lib/libutee/arch/arm/utee_syscalls_asm.S:71
    30bc:	d28003c8 	mov	x8, #0x1e                  	// #30
    30c0:	d4000001 	svc	#0x0
    30c4:	d65f03c0 	ret

00000000000030c8 <utee_cryp_obj_copy>:
utee_cryp_obj_copy():
/home/lagadanu/Desktop/qemu/optee_os/lib/libutee/arch/arm/utee_syscalls_asm.S:73
    30c8:	d28003e8 	mov	x8, #0x1f                  	// #31
    30cc:	d4000001 	svc	#0x0
    30d0:	d65f03c0 	ret

00000000000030d4 <utee_cryp_derive_key>:
utee_cryp_derive_key():
/home/lagadanu/Desktop/qemu/optee_os/lib/libutee/arch/arm/utee_syscalls_asm.S:75
    30d4:	d2800408 	mov	x8, #0x20                  	// #32
    30d8:	d4000001 	svc	#0x0
    30dc:	d65f03c0 	ret

00000000000030e0 <utee_cryp_random_number_generate>:
utee_cryp_random_number_generate():
/home/lagadanu/Desktop/qemu/optee_os/lib/libutee/arch/arm/utee_syscalls_asm.S:77
    30e0:	d2800428 	mov	x8, #0x21                  	// #33
    30e4:	d4000001 	svc	#0x0
    30e8:	d65f03c0 	ret

00000000000030ec <utee_authenc_init>:
utee_authenc_init():
/home/lagadanu/Desktop/qemu/optee_os/lib/libutee/arch/arm/utee_syscalls_asm.S:80
    30ec:	d2800448 	mov	x8, #0x22                  	// #34
    30f0:	d4000001 	svc	#0x0
    30f4:	d65f03c0 	ret

00000000000030f8 <utee_authenc_update_aad>:
utee_authenc_update_aad():
/home/lagadanu/Desktop/qemu/optee_os/lib/libutee/arch/arm/utee_syscalls_asm.S:82
    30f8:	d2800468 	mov	x8, #0x23                  	// #35
    30fc:	d4000001 	svc	#0x0
    3100:	d65f03c0 	ret

0000000000003104 <utee_authenc_update_payload>:
utee_authenc_update_payload():
/home/lagadanu/Desktop/qemu/optee_os/lib/libutee/arch/arm/utee_syscalls_asm.S:84
    3104:	d2800488 	mov	x8, #0x24                  	// #36
    3108:	d4000001 	svc	#0x0
    310c:	d65f03c0 	ret

0000000000003110 <utee_authenc_enc_final>:
utee_authenc_enc_final():
/home/lagadanu/Desktop/qemu/optee_os/lib/libutee/arch/arm/utee_syscalls_asm.S:87
    3110:	d28004a8 	mov	x8, #0x25                  	// #37
    3114:	d4000001 	svc	#0x0
    3118:	d65f03c0 	ret

000000000000311c <utee_authenc_dec_final>:
utee_authenc_dec_final():
/home/lagadanu/Desktop/qemu/optee_os/lib/libutee/arch/arm/utee_syscalls_asm.S:89
    311c:	d28004c8 	mov	x8, #0x26                  	// #38
    3120:	d4000001 	svc	#0x0
    3124:	d65f03c0 	ret

0000000000003128 <utee_asymm_operate>:
utee_asymm_operate():
/home/lagadanu/Desktop/qemu/optee_os/lib/libutee/arch/arm/utee_syscalls_asm.S:91
    3128:	d28004e8 	mov	x8, #0x27                  	// #39
    312c:	d4000001 	svc	#0x0
    3130:	d65f03c0 	ret

0000000000003134 <utee_asymm_verify>:
utee_asymm_verify():
/home/lagadanu/Desktop/qemu/optee_os/lib/libutee/arch/arm/utee_syscalls_asm.S:93
    3134:	d2800508 	mov	x8, #0x28                  	// #40
    3138:	d4000001 	svc	#0x0
    313c:	d65f03c0 	ret

0000000000003140 <utee_storage_obj_open>:
utee_storage_obj_open():
/home/lagadanu/Desktop/qemu/optee_os/lib/libutee/arch/arm/utee_syscalls_asm.S:95
    3140:	d2800528 	mov	x8, #0x29                  	// #41
    3144:	d4000001 	svc	#0x0
    3148:	d65f03c0 	ret

000000000000314c <utee_storage_obj_create>:
utee_storage_obj_create():
/home/lagadanu/Desktop/qemu/optee_os/lib/libutee/arch/arm/utee_syscalls_asm.S:97
    314c:	d2800548 	mov	x8, #0x2a                  	// #42
    3150:	d4000001 	svc	#0x0
    3154:	d65f03c0 	ret

0000000000003158 <utee_storage_obj_del>:
utee_storage_obj_del():
/home/lagadanu/Desktop/qemu/optee_os/lib/libutee/arch/arm/utee_syscalls_asm.S:99
    3158:	d2800568 	mov	x8, #0x2b                  	// #43
    315c:	d4000001 	svc	#0x0
    3160:	d65f03c0 	ret

0000000000003164 <utee_storage_obj_rename>:
utee_storage_obj_rename():
/home/lagadanu/Desktop/qemu/optee_os/lib/libutee/arch/arm/utee_syscalls_asm.S:101
    3164:	d2800588 	mov	x8, #0x2c                  	// #44
    3168:	d4000001 	svc	#0x0
    316c:	d65f03c0 	ret

0000000000003170 <utee_storage_alloc_enum>:
utee_storage_alloc_enum():
/home/lagadanu/Desktop/qemu/optee_os/lib/libutee/arch/arm/utee_syscalls_asm.S:103
    3170:	d28005a8 	mov	x8, #0x2d                  	// #45
    3174:	d4000001 	svc	#0x0
    3178:	d65f03c0 	ret

000000000000317c <utee_storage_free_enum>:
utee_storage_free_enum():
/home/lagadanu/Desktop/qemu/optee_os/lib/libutee/arch/arm/utee_syscalls_asm.S:105
    317c:	d28005c8 	mov	x8, #0x2e                  	// #46
    3180:	d4000001 	svc	#0x0
    3184:	d65f03c0 	ret

0000000000003188 <utee_storage_reset_enum>:
utee_storage_reset_enum():
/home/lagadanu/Desktop/qemu/optee_os/lib/libutee/arch/arm/utee_syscalls_asm.S:107
    3188:	d28005e8 	mov	x8, #0x2f                  	// #47
    318c:	d4000001 	svc	#0x0
    3190:	d65f03c0 	ret

0000000000003194 <utee_storage_start_enum>:
utee_storage_start_enum():
/home/lagadanu/Desktop/qemu/optee_os/lib/libutee/arch/arm/utee_syscalls_asm.S:109
    3194:	d2800608 	mov	x8, #0x30                  	// #48
    3198:	d4000001 	svc	#0x0
    319c:	d65f03c0 	ret

00000000000031a0 <utee_storage_next_enum>:
utee_storage_next_enum():
/home/lagadanu/Desktop/qemu/optee_os/lib/libutee/arch/arm/utee_syscalls_asm.S:111
    31a0:	d2800628 	mov	x8, #0x31                  	// #49
    31a4:	d4000001 	svc	#0x0
    31a8:	d65f03c0 	ret

00000000000031ac <utee_storage_obj_read>:
utee_storage_obj_read():
/home/lagadanu/Desktop/qemu/optee_os/lib/libutee/arch/arm/utee_syscalls_asm.S:113
    31ac:	d2800648 	mov	x8, #0x32                  	// #50
    31b0:	d4000001 	svc	#0x0
    31b4:	d65f03c0 	ret

00000000000031b8 <utee_storage_obj_write>:
utee_storage_obj_write():
/home/lagadanu/Desktop/qemu/optee_os/lib/libutee/arch/arm/utee_syscalls_asm.S:115
    31b8:	d2800668 	mov	x8, #0x33                  	// #51
    31bc:	d4000001 	svc	#0x0
    31c0:	d65f03c0 	ret

00000000000031c4 <utee_storage_obj_trunc>:
utee_storage_obj_trunc():
/home/lagadanu/Desktop/qemu/optee_os/lib/libutee/arch/arm/utee_syscalls_asm.S:117
    31c4:	d2800688 	mov	x8, #0x34                  	// #52
    31c8:	d4000001 	svc	#0x0
    31cc:	d65f03c0 	ret

00000000000031d0 <utee_storage_obj_seek>:
utee_storage_obj_seek():
/home/lagadanu/Desktop/qemu/optee_os/lib/libutee/arch/arm/utee_syscalls_asm.S:119
    31d0:	d28006a8 	mov	x8, #0x35                  	// #53
    31d4:	d4000001 	svc	#0x0
    31d8:	d65f03c0 	ret

00000000000031dc <utee_cryp_obj_generate_key>:
utee_cryp_obj_generate_key():
/home/lagadanu/Desktop/qemu/optee_os/lib/libutee/arch/arm/utee_syscalls_asm.S:121
    31dc:	d28006c8 	mov	x8, #0x36                  	// #54
    31e0:	d4000001 	svc	#0x0
    31e4:	d65f03c0 	ret

00000000000031e8 <utee_se_service_open>:
utee_se_service_open():
/home/lagadanu/Desktop/qemu/optee_os/lib/libutee/arch/arm/utee_syscalls_asm.S:124
    31e8:	d28006e8 	mov	x8, #0x37                  	// #55
    31ec:	d4000001 	svc	#0x0
    31f0:	d65f03c0 	ret

00000000000031f4 <utee_se_service_close>:
utee_se_service_close():
/home/lagadanu/Desktop/qemu/optee_os/lib/libutee/arch/arm/utee_syscalls_asm.S:126
    31f4:	d2800708 	mov	x8, #0x38                  	// #56
    31f8:	d4000001 	svc	#0x0
    31fc:	d65f03c0 	ret

0000000000003200 <utee_se_service_get_readers>:
utee_se_service_get_readers():
/home/lagadanu/Desktop/qemu/optee_os/lib/libutee/arch/arm/utee_syscalls_asm.S:128
    3200:	d2800728 	mov	x8, #0x39                  	// #57
    3204:	d4000001 	svc	#0x0
    3208:	d65f03c0 	ret

000000000000320c <utee_se_reader_get_prop>:
utee_se_reader_get_prop():
/home/lagadanu/Desktop/qemu/optee_os/lib/libutee/arch/arm/utee_syscalls_asm.S:131
    320c:	d2800748 	mov	x8, #0x3a                  	// #58
    3210:	d4000001 	svc	#0x0
    3214:	d65f03c0 	ret

0000000000003218 <utee_se_reader_get_name>:
utee_se_reader_get_name():
/home/lagadanu/Desktop/qemu/optee_os/lib/libutee/arch/arm/utee_syscalls_asm.S:134
    3218:	d2800768 	mov	x8, #0x3b                  	// #59
    321c:	d4000001 	svc	#0x0
    3220:	d65f03c0 	ret

0000000000003224 <utee_se_reader_open_session>:
utee_se_reader_open_session():
/home/lagadanu/Desktop/qemu/optee_os/lib/libutee/arch/arm/utee_syscalls_asm.S:137
    3224:	d2800788 	mov	x8, #0x3c                  	// #60
    3228:	d4000001 	svc	#0x0
    322c:	d65f03c0 	ret

0000000000003230 <utee_se_reader_close_sessions>:
utee_se_reader_close_sessions():
/home/lagadanu/Desktop/qemu/optee_os/lib/libutee/arch/arm/utee_syscalls_asm.S:140
    3230:	d28007a8 	mov	x8, #0x3d                  	// #61
    3234:	d4000001 	svc	#0x0
    3238:	d65f03c0 	ret

000000000000323c <utee_se_session_is_closed>:
utee_se_session_is_closed():
/home/lagadanu/Desktop/qemu/optee_os/lib/libutee/arch/arm/utee_syscalls_asm.S:143
    323c:	d28007c8 	mov	x8, #0x3e                  	// #62
    3240:	d4000001 	svc	#0x0
    3244:	d65f03c0 	ret

0000000000003248 <utee_se_session_get_atr>:
utee_se_session_get_atr():
/home/lagadanu/Desktop/qemu/optee_os/lib/libutee/arch/arm/utee_syscalls_asm.S:146
    3248:	d28007e8 	mov	x8, #0x3f                  	// #63
    324c:	d4000001 	svc	#0x0
    3250:	d65f03c0 	ret

0000000000003254 <utee_se_session_open_channel>:
utee_se_session_open_channel():
/home/lagadanu/Desktop/qemu/optee_os/lib/libutee/arch/arm/utee_syscalls_asm.S:149
    3254:	d2800808 	mov	x8, #0x40                  	// #64
    3258:	d4000001 	svc	#0x0
    325c:	d65f03c0 	ret

0000000000003260 <utee_se_session_close>:
utee_se_session_close():
/home/lagadanu/Desktop/qemu/optee_os/lib/libutee/arch/arm/utee_syscalls_asm.S:152
    3260:	d2800828 	mov	x8, #0x41                  	// #65
    3264:	d4000001 	svc	#0x0
    3268:	d65f03c0 	ret

000000000000326c <utee_se_channel_select_next>:
utee_se_channel_select_next():
/home/lagadanu/Desktop/qemu/optee_os/lib/libutee/arch/arm/utee_syscalls_asm.S:155
    326c:	d2800848 	mov	x8, #0x42                  	// #66
    3270:	d4000001 	svc	#0x0
    3274:	d65f03c0 	ret

0000000000003278 <utee_se_channel_get_select_resp>:
utee_se_channel_get_select_resp():
/home/lagadanu/Desktop/qemu/optee_os/lib/libutee/arch/arm/utee_syscalls_asm.S:158
    3278:	d2800868 	mov	x8, #0x43                  	// #67
    327c:	d4000001 	svc	#0x0
    3280:	d65f03c0 	ret

0000000000003284 <utee_se_channel_transmit>:
utee_se_channel_transmit():
/home/lagadanu/Desktop/qemu/optee_os/lib/libutee/arch/arm/utee_syscalls_asm.S:161
    3284:	d2800888 	mov	x8, #0x44                  	// #68
    3288:	d4000001 	svc	#0x0
    328c:	d65f03c0 	ret

0000000000003290 <utee_se_channel_close>:
utee_se_channel_close():
/home/lagadanu/Desktop/qemu/optee_os/lib/libutee/arch/arm/utee_syscalls_asm.S:164
    3290:	d28008a8 	mov	x8, #0x45                  	// #69
    3294:	d4000001 	svc	#0x0
    3298:	d65f03c0 	ret

000000000000329c <utee_cache_operation>:
utee_cache_operation():
/home/lagadanu/Desktop/qemu/optee_os/lib/libutee/arch/arm/utee_syscalls_asm.S:167
    329c:	d28008c8 	mov	x8, #0x46                  	// #70
    32a0:	d4000001 	svc	#0x0
    32a4:	d65f03c0 	ret

00000000000032a8 <__utee_mcount>:
__utee_mcount():
/home/lagadanu/Desktop/qemu/optee_os/lib/libutee/arch/arm/gprof/gprof_a64.S:52
    32a8:	d65f03c0 	ret

00000000000032ac <_TEE_MathAPI_Init>:
_TEE_MathAPI_Init():
/home/lagadanu/Desktop/qemu/optee_os/lib/libutee/tee_api_arith.c:50
    32ac:	a9be7bfd 	stp	x29, x30, [sp,#-32]!
/home/lagadanu/Desktop/qemu/optee_os/lib/libutee/tee_api_arith.c:53
    32b0:	d2800002 	mov	x2, #0x0                   	// #0
    32b4:	d2833001 	mov	x1, #0x1980                	// #6528
    32b8:	f0000060 	adrp	x0, 12000 <ta_heap+0x7e80>
/home/lagadanu/Desktop/qemu/optee_os/lib/libutee/tee_api_arith.c:50
    32bc:	910003fd 	mov	x29, sp
    32c0:	f9000bf3 	str	x19, [sp,#16]
/home/lagadanu/Desktop/qemu/optee_os/lib/libutee/tee_api_arith.c:53
    32c4:	91086000 	add	x0, x0, #0x218
    32c8:	9400122a 	bl	7b70 <mempool_alloc_pool>
    32cc:	90000081 	adrp	x1, 13000 <mempool_u32+0xde8>
    32d0:	910c6022 	add	x2, x1, #0x318
    32d4:	aa0103f3 	mov	x19, x1
    32d8:	f9044040 	str	x0, [x2,#2176]
/home/lagadanu/Desktop/qemu/optee_os/lib/libutee/tee_api_arith.c:54
    32dc:	b5000040 	cbnz	x0, 32e4 <_TEE_MathAPI_Init+0x38>
/home/lagadanu/Desktop/qemu/optee_os/lib/libutee/tee_api_arith.c:55
    32e0:	940002e7 	bl	3e7c <TEE_Panic>
/home/lagadanu/Desktop/qemu/optee_os/lib/libutee/tee_api_arith.c:61
    32e4:	910c6260 	add	x0, x19, #0x318
    32e8:	52820002 	mov	w2, #0x1000                	// #4096
/home/lagadanu/Desktop/qemu/optee_os/lib/libutee/tee_api_arith.c:63
    32ec:	f9400bf3 	ldr	x19, [sp,#16]
/home/lagadanu/Desktop/qemu/optee_os/lib/libutee/tee_api_arith.c:61
    32f0:	91220001 	add	x1, x0, #0x880
    32f4:	b9088802 	str	w2, [x0,#2184]
/home/lagadanu/Desktop/qemu/optee_os/lib/libutee/tee_api_arith.c:62
    32f8:	f9044801 	str	x1, [x0,#2192]
/home/lagadanu/Desktop/qemu/optee_os/lib/libutee/tee_api_arith.c:63
    32fc:	a8c27bfd 	ldp	x29, x30, [sp],#32
    3300:	d65f03c0 	ret

0000000000003304 <TEE_BigIntInit>:
TEE_BigIntInit():
/home/lagadanu/Desktop/qemu/optee_os/lib/libutee/tee_api_arith.c:70
    3304:	14000f2a 	b	6fac <mpa_init_static>

0000000000003308 <TEE_BigIntInitFMM>:
TEE_BigIntInitFMM():
/home/lagadanu/Desktop/qemu/optee_os/lib/libutee/tee_api_arith.c:80
    3308:	531e7421 	lsl	w1, w1, #2
    330c:	51002021 	sub	w1, w1, #0x8
    3310:	d3427c21 	ubfx	x1, x1, #2, #30
/home/lagadanu/Desktop/qemu/optee_os/lib/libutee/tee_api_arith.c:81
    3314:	29007c01 	stp	w1, wzr, [x0]
    3318:	d65f03c0 	ret

000000000000331c <TEE_BigIntInitFMMContext>:
TEE_BigIntInitFMMContext():
/home/lagadanu/Desktop/qemu/optee_os/lib/libutee/tee_api_arith.c:89
    331c:	a9be7bfd 	stp	x29, x30, [sp,#-32]!
    3320:	910003fd 	mov	x29, sp
    3324:	a90153f3 	stp	x19, x20, [sp,#16]
    3328:	aa0003f3 	mov	x19, x0
    332c:	aa0203f4 	mov	x20, x2
/home/lagadanu/Desktop/qemu/optee_os/lib/libutee/tee_api_arith.c:93
    3330:	94000f26 	bl	6fc8 <mpa_init_static_fmm_context>
/home/lagadanu/Desktop/qemu/optee_os/lib/libutee/tee_api_arith.c:94
    3334:	90000080 	adrp	x0, 13000 <mempool_u32+0xde8>
    3338:	91004263 	add	x3, x19, #0x10
    333c:	a9400a61 	ldp	x1, x2, [x19]
    3340:	f945d404 	ldr	x4, [x0,#2984]
    3344:	aa1403e0 	mov	x0, x20
/home/lagadanu/Desktop/qemu/optee_os/lib/libutee/tee_api_arith.c:97
    3348:	a94153f3 	ldp	x19, x20, [sp,#16]
    334c:	a8c27bfd 	ldp	x29, x30, [sp],#32
/home/lagadanu/Desktop/qemu/optee_os/lib/libutee/tee_api_arith.c:94
    3350:	140003bd 	b	4244 <mpa_compute_fmm_context>

0000000000003354 <TEE_BigIntFMMSizeInU32>:
TEE_BigIntFMMSizeInU32():
/home/lagadanu/Desktop/qemu/optee_os/lib/libutee/tee_api_arith.c:108
    3354:	11007c00 	add	w0, w0, #0x1f
    3358:	53057c00 	lsr	w0, w0, #5
/home/lagadanu/Desktop/qemu/optee_os/lib/libutee/tee_api_arith.c:109
    335c:	11000c00 	add	w0, w0, #0x3
    3360:	d65f03c0 	ret

0000000000003364 <TEE_BigIntFMMContextSizeInU32>:
TEE_BigIntFMMContextSizeInU32():
/home/lagadanu/Desktop/qemu/optee_os/lib/libutee/tee_api_arith.c:116
    3364:	11007c00 	add	w0, w0, #0x1f
    3368:	53057c00 	lsr	w0, w0, #5
    336c:	11001c00 	add	w0, w0, #0x7
/home/lagadanu/Desktop/qemu/optee_os/lib/libutee/tee_api_arith.c:117
    3370:	531f7800 	lsl	w0, w0, #1
    3374:	d65f03c0 	ret

0000000000003378 <TEE_BigIntConvertFromOctetString>:
TEE_BigIntConvertFromOctetString():
/home/lagadanu/Desktop/qemu/optee_os/lib/libutee/tee_api_arith.c:130
    3378:	a9bf7bfd 	stp	x29, x30, [sp,#-16]!
/home/lagadanu/Desktop/qemu/optee_os/lib/libutee/tee_api_arith.c:135
    337c:	531f7c63 	lsr	w3, w3, #31
    3380:	2a0203e2 	mov	w2, w2
/home/lagadanu/Desktop/qemu/optee_os/lib/libutee/tee_api_arith.c:130
    3384:	910003fd 	mov	x29, sp
/home/lagadanu/Desktop/qemu/optee_os/lib/libutee/tee_api_arith.c:135
    3388:	94001058 	bl	74e8 <mpa_set_oct_str>
/home/lagadanu/Desktop/qemu/optee_os/lib/libutee/tee_api_arith.c:136
    338c:	7100001f 	cmp	w0, #0x0
/home/lagadanu/Desktop/qemu/optee_os/lib/libutee/tee_api_arith.c:145
    3390:	a8c17bfd 	ldp	x29, x30, [sp],#16
    3394:	1299fe00 	mov	w0, #0xffff300f            	// #-53233
    3398:	1a9f1000 	csel	w0, w0, wzr, ne
    339c:	d65f03c0 	ret

00000000000033a0 <TEE_BigIntConvertToOctetString>:
TEE_BigIntConvertToOctetString():
/home/lagadanu/Desktop/qemu/optee_os/lib/libutee/tee_api_arith.c:153
    33a0:	a9bd7bfd 	stp	x29, x30, [sp,#-48]!
    33a4:	910003fd 	mov	x29, sp
    33a8:	f9000bf3 	str	x19, [sp,#16]
    33ac:	aa0103f3 	mov	x19, x1
/home/lagadanu/Desktop/qemu/optee_os/lib/libutee/tee_api_arith.c:155
    33b0:	9100c3a1 	add	x1, x29, #0x30
    33b4:	b9400263 	ldr	w3, [x19]
    33b8:	f81f8c23 	str	x3, [x1,#-8]!
/home/lagadanu/Desktop/qemu/optee_os/lib/libutee/tee_api_arith.c:158
    33bc:	9400108f 	bl	75f8 <mpa_get_oct_str>
/home/lagadanu/Desktop/qemu/optee_os/lib/libutee/tee_api_arith.c:159
    33c0:	7100001f 	cmp	w0, #0x0
/home/lagadanu/Desktop/qemu/optee_os/lib/libutee/tee_api_arith.c:163
    33c4:	f94017a0 	ldr	x0, [x29,#40]
    33c8:	b9000260 	str	w0, [x19]
/home/lagadanu/Desktop/qemu/optee_os/lib/libutee/tee_api_arith.c:170
    33cc:	f9400bf3 	ldr	x19, [sp,#16]
    33d0:	129ffde0 	mov	w0, #0xffff0010            	// #-65520
    33d4:	1a9f1000 	csel	w0, w0, wzr, ne
    33d8:	a8c37bfd 	ldp	x29, x30, [sp],#48
    33dc:	d65f03c0 	ret

00000000000033e0 <TEE_BigIntConvertFromS32>:
TEE_BigIntConvertFromS32():
/home/lagadanu/Desktop/qemu/optee_os/lib/libutee/tee_api_arith.c:180
    33e0:	140004f5 	b	47b4 <mpa_set_S32>

00000000000033e4 <TEE_BigIntConvertToS32>:
TEE_BigIntConvertToS32():
/home/lagadanu/Desktop/qemu/optee_os/lib/libutee/tee_api_arith.c:190
    33e4:	a9bf7bfd 	stp	x29, x30, [sp,#-16]!
    33e8:	910003fd 	mov	x29, sp
/home/lagadanu/Desktop/qemu/optee_os/lib/libutee/tee_api_arith.c:194
    33ec:	940004fd 	bl	47e0 <mpa_get_S32>
/home/lagadanu/Desktop/qemu/optee_os/lib/libutee/tee_api_arith.c:195
    33f0:	7100001f 	cmp	w0, #0x0
/home/lagadanu/Desktop/qemu/optee_os/lib/libutee/tee_api_arith.c:204
    33f4:	a8c17bfd 	ldp	x29, x30, [sp],#16
    33f8:	1299fe00 	mov	w0, #0xffff300f            	// #-53233
    33fc:	1a9f1000 	csel	w0, w0, wzr, ne
    3400:	d65f03c0 	ret

0000000000003404 <TEE_BigIntCmp>:
TEE_BigIntCmp():
/home/lagadanu/Desktop/qemu/optee_os/lib/libutee/tee_api_arith.c:218
    3404:	14000e40 	b	6d04 <mpa_cmp>

0000000000003408 <TEE_BigIntCmpS32>:
TEE_BigIntCmpS32():
/home/lagadanu/Desktop/qemu/optee_os/lib/libutee/tee_api_arith.c:228
    3408:	14000e59 	b	6d6c <mpa_cmp_short>

000000000000340c <TEE_BigIntShiftRight>:
TEE_BigIntShiftRight():
/home/lagadanu/Desktop/qemu/optee_os/lib/libutee/tee_api_arith.c:240
    340c:	14000b77 	b	61e8 <mpa_shift_right>

0000000000003410 <TEE_BigIntGetBit>:
TEE_BigIntGetBit():
/home/lagadanu/Desktop/qemu/optee_os/lib/libutee/tee_api_arith.c:247
    3410:	a9bf7bfd 	stp	x29, x30, [sp,#-16]!
    3414:	910003fd 	mov	x29, sp
/home/lagadanu/Desktop/qemu/optee_os/lib/libutee/tee_api_arith.c:250
    3418:	940002e2 	bl	3fa0 <mpa_get_bit>
    341c:	7100001f 	cmp	w0, #0x0
/home/lagadanu/Desktop/qemu/optee_os/lib/libutee/tee_api_arith.c:251
    3420:	1a9f07e0 	cset	w0, ne
    3424:	a8c17bfd 	ldp	x29, x30, [sp],#16
    3428:	d65f03c0 	ret

000000000000342c <TEE_BigIntGetBitCount>:
TEE_BigIntGetBitCount():
/home/lagadanu/Desktop/qemu/optee_os/lib/libutee/tee_api_arith.c:257
    342c:	a9bf7bfd 	stp	x29, x30, [sp,#-16]!
    3430:	910003fd 	mov	x29, sp
/home/lagadanu/Desktop/qemu/optee_os/lib/libutee/tee_api_arith.c:260
    3434:	940002ca 	bl	3f5c <mpa_highest_bit_index>
/home/lagadanu/Desktop/qemu/optee_os/lib/libutee/tee_api_arith.c:261
    3438:	11000400 	add	w0, w0, #0x1
    343c:	a8c17bfd 	ldp	x29, x30, [sp],#16
    3440:	d65f03c0 	ret

0000000000003444 <TEE_BigIntAdd>:
TEE_BigIntAdd():
/home/lagadanu/Desktop/qemu/optee_os/lib/libutee/tee_api_arith.c:277
    3444:	90000083 	adrp	x3, 13000 <mempool_u32+0xde8>
    3448:	f945d463 	ldr	x3, [x3,#2984]
    344c:	14000c81 	b	6650 <mpa_add>

0000000000003450 <TEE_BigIntSub>:
TEE_BigIntSub():
/home/lagadanu/Desktop/qemu/optee_os/lib/libutee/tee_api_arith.c:290
    3450:	90000083 	adrp	x3, 13000 <mempool_u32+0xde8>
    3454:	f945d463 	ldr	x3, [x3,#2984]
    3458:	14000ce3 	b	67e4 <mpa_sub>

000000000000345c <TEE_BigIntNeg>:
TEE_BigIntNeg():
/home/lagadanu/Desktop/qemu/optee_os/lib/libutee/tee_api_arith.c:301
    345c:	14000d49 	b	6980 <mpa_neg>

0000000000003460 <TEE_BigIntMul>:
TEE_BigIntMul():
/home/lagadanu/Desktop/qemu/optee_os/lib/libutee/tee_api_arith.c:314
    3460:	90000083 	adrp	x3, 13000 <mempool_u32+0xde8>
    3464:	f945d463 	ldr	x3, [x3,#2984]
    3468:	140009f7 	b	5c44 <mpa_mul>

000000000000346c <TEE_BigIntSquare>:
TEE_BigIntSquare():
/home/lagadanu/Desktop/qemu/optee_os/lib/libutee/tee_api_arith.c:325
    346c:	90000082 	adrp	x2, 13000 <mempool_u32+0xde8>
    3470:	f945d443 	ldr	x3, [x2,#2984]
    3474:	aa0103e2 	mov	x2, x1
    3478:	140009f3 	b	5c44 <mpa_mul>

000000000000347c <TEE_BigIntDiv>:
TEE_BigIntDiv():
/home/lagadanu/Desktop/qemu/optee_os/lib/libutee/tee_api_arith.c:333
    347c:	a9bd7bfd 	stp	x29, x30, [sp,#-48]!
    3480:	910003fd 	mov	x29, sp
    3484:	a90153f3 	stp	x19, x20, [sp,#16]
    3488:	aa0003f4 	mov	x20, x0
    348c:	a9025bf5 	stp	x21, x22, [sp,#32]
    3490:	aa0303f3 	mov	x19, x3
    3494:	aa0103f5 	mov	x21, x1
    3498:	aa0203f6 	mov	x22, x2
TEE_BigIntCmpS32():
/home/lagadanu/Desktop/qemu/optee_os/lib/libutee/tee_api_arith.c:228
    349c:	52800001 	mov	w1, #0x0                   	// #0
    34a0:	aa0303e0 	mov	x0, x3
    34a4:	94000e32 	bl	6d6c <mpa_cmp_short>
TEE_BigIntDiv():
/home/lagadanu/Desktop/qemu/optee_os/lib/libutee/tee_api_arith.c:339
    34a8:	35000080 	cbnz	w0, 34b8 <TEE_BigIntDiv+0x3c>
/home/lagadanu/Desktop/qemu/optee_os/lib/libutee/tee_api_arith.c:340
    34ac:	d0000020 	adrp	x0, 9000 <__func__.3181+0x410>
    34b0:	91052400 	add	x0, x0, #0x149
    34b4:	9400012f 	bl	3970 <TEE_BigInt_Panic>
/home/lagadanu/Desktop/qemu/optee_os/lib/libutee/tee_api_arith.c:342
    34b8:	90000080 	adrp	x0, 13000 <mempool_u32+0xde8>
    34bc:	aa1303e3 	mov	x3, x19
    34c0:	aa1603e2 	mov	x2, x22
    34c4:	aa1503e1 	mov	x1, x21
    34c8:	f945d404 	ldr	x4, [x0,#2984]
    34cc:	aa1403e0 	mov	x0, x20
/home/lagadanu/Desktop/qemu/optee_os/lib/libutee/tee_api_arith.c:343
    34d0:	a9425bf5 	ldp	x21, x22, [sp,#32]
    34d4:	a94153f3 	ldp	x19, x20, [sp,#16]
    34d8:	a8c37bfd 	ldp	x29, x30, [sp],#48
/home/lagadanu/Desktop/qemu/optee_os/lib/libutee/tee_api_arith.c:342
    34dc:	140006f1 	b	50a0 <mpa_div>

00000000000034e0 <TEE_BigIntMod>:
TEE_BigIntMod():
/home/lagadanu/Desktop/qemu/optee_os/lib/libutee/tee_api_arith.c:354
    34e0:	a9bd7bfd 	stp	x29, x30, [sp,#-48]!
    34e4:	910003fd 	mov	x29, sp
    34e8:	a9025bf5 	stp	x21, x22, [sp,#32]
    34ec:	aa0103f6 	mov	x22, x1
    34f0:	a90153f3 	stp	x19, x20, [sp,#16]
    34f4:	aa0203f5 	mov	x21, x2
    34f8:	aa0003f4 	mov	x20, x0
TEE_BigIntCmpS32():
/home/lagadanu/Desktop/qemu/optee_os/lib/libutee/tee_api_arith.c:228
    34fc:	52800041 	mov	w1, #0x2                   	// #2
    3500:	aa0203e0 	mov	x0, x2
    3504:	94000e1a 	bl	6d6c <mpa_cmp_short>
TEE_BigIntMod():
/home/lagadanu/Desktop/qemu/optee_os/lib/libutee/tee_api_arith.c:359
    3508:	36f80080 	tbz	w0, #31, 3518 <TEE_BigIntMod+0x38>
/home/lagadanu/Desktop/qemu/optee_os/lib/libutee/tee_api_arith.c:360
    350c:	d0000020 	adrp	x0, 9000 <__func__.3181+0x410>
    3510:	91056400 	add	x0, x0, #0x159
    3514:	94000117 	bl	3970 <TEE_BigInt_Panic>
/home/lagadanu/Desktop/qemu/optee_os/lib/libutee/tee_api_arith.c:362
    3518:	90000093 	adrp	x19, 13000 <mempool_u32+0xde8>
    351c:	910c6273 	add	x19, x19, #0x318
    3520:	aa1503e2 	mov	x2, x21
    3524:	aa1603e1 	mov	x1, x22
    3528:	aa1403e0 	mov	x0, x20
    352c:	f9444a63 	ldr	x3, [x19,#2192]
    3530:	9400108f 	bl	776c <mpa_mod>
/home/lagadanu/Desktop/qemu/optee_os/lib/libutee/tee_api_arith.c:364
    3534:	52800001 	mov	w1, #0x0                   	// #0
    3538:	aa1403e0 	mov	x0, x20
    353c:	94000e0c 	bl	6d6c <mpa_cmp_short>
    3540:	36f80120 	tbz	w0, #31, 3564 <TEE_BigIntMod+0x84>
/home/lagadanu/Desktop/qemu/optee_os/lib/libutee/tee_api_arith.c:365
    3544:	aa1503e2 	mov	x2, x21
    3548:	aa1403e1 	mov	x1, x20
    354c:	aa1403e0 	mov	x0, x20
    3550:	f9444a63 	ldr	x3, [x19,#2192]
/home/lagadanu/Desktop/qemu/optee_os/lib/libutee/tee_api_arith.c:366
    3554:	a9425bf5 	ldp	x21, x22, [sp,#32]
    3558:	a94153f3 	ldp	x19, x20, [sp,#16]
    355c:	a8c37bfd 	ldp	x29, x30, [sp],#48
/home/lagadanu/Desktop/qemu/optee_os/lib/libutee/tee_api_arith.c:365
    3560:	14000c3c 	b	6650 <mpa_add>
/home/lagadanu/Desktop/qemu/optee_os/lib/libutee/tee_api_arith.c:366
    3564:	a94153f3 	ldp	x19, x20, [sp,#16]
    3568:	a9425bf5 	ldp	x21, x22, [sp,#32]
    356c:	a8c37bfd 	ldp	x29, x30, [sp],#48
    3570:	d65f03c0 	ret

0000000000003574 <TEE_BigIntAddMod>:
TEE_BigIntAddMod():
/home/lagadanu/Desktop/qemu/optee_os/lib/libutee/tee_api_arith.c:373
    3574:	a9bc7bfd 	stp	x29, x30, [sp,#-64]!
    3578:	910003fd 	mov	x29, sp
    357c:	a9025bf5 	stp	x21, x22, [sp,#32]
    3580:	aa0103f6 	mov	x22, x1
    3584:	a90153f3 	stp	x19, x20, [sp,#16]
    3588:	aa0303f5 	mov	x21, x3
    358c:	f9001bf7 	str	x23, [sp,#48]
    3590:	aa0003f4 	mov	x20, x0
TEE_BigIntCmpS32():
/home/lagadanu/Desktop/qemu/optee_os/lib/libutee/tee_api_arith.c:228
    3594:	52800041 	mov	w1, #0x2                   	// #2
    3598:	aa0303e0 	mov	x0, x3
TEE_BigIntAddMod():
/home/lagadanu/Desktop/qemu/optee_os/lib/libutee/tee_api_arith.c:373
    359c:	aa0203f7 	mov	x23, x2
TEE_BigIntCmpS32():
/home/lagadanu/Desktop/qemu/optee_os/lib/libutee/tee_api_arith.c:228
    35a0:	94000df3 	bl	6d6c <mpa_cmp_short>
TEE_BigIntAddMod():
/home/lagadanu/Desktop/qemu/optee_os/lib/libutee/tee_api_arith.c:379
    35a4:	36f80080 	tbz	w0, #31, 35b4 <TEE_BigIntAddMod+0x40>
/home/lagadanu/Desktop/qemu/optee_os/lib/libutee/tee_api_arith.c:380
    35a8:	d0000020 	adrp	x0, 9000 <__func__.3181+0x410>
    35ac:	91056400 	add	x0, x0, #0x159
    35b0:	940000f0 	bl	3970 <TEE_BigInt_Panic>
/home/lagadanu/Desktop/qemu/optee_os/lib/libutee/tee_api_arith.c:382
    35b4:	90000093 	adrp	x19, 13000 <mempool_u32+0xde8>
    35b8:	910c6273 	add	x19, x19, #0x318
    35bc:	aa1503e3 	mov	x3, x21
    35c0:	aa1703e2 	mov	x2, x23
    35c4:	aa1603e1 	mov	x1, x22
    35c8:	aa1403e0 	mov	x0, x20
    35cc:	f9444a64 	ldr	x4, [x19,#2192]
    35d0:	9400106d 	bl	7784 <mpa_add_mod>
/home/lagadanu/Desktop/qemu/optee_os/lib/libutee/tee_api_arith.c:383
    35d4:	52800001 	mov	w1, #0x0                   	// #0
    35d8:	aa1403e0 	mov	x0, x20
    35dc:	94000de4 	bl	6d6c <mpa_cmp_short>
    35e0:	36f80140 	tbz	w0, #31, 3608 <TEE_BigIntAddMod+0x94>
/home/lagadanu/Desktop/qemu/optee_os/lib/libutee/tee_api_arith.c:384
    35e4:	aa1503e2 	mov	x2, x21
    35e8:	aa1403e1 	mov	x1, x20
    35ec:	aa1403e0 	mov	x0, x20
    35f0:	f9444a63 	ldr	x3, [x19,#2192]
/home/lagadanu/Desktop/qemu/optee_os/lib/libutee/tee_api_arith.c:385
    35f4:	a9425bf5 	ldp	x21, x22, [sp,#32]
    35f8:	a94153f3 	ldp	x19, x20, [sp,#16]
    35fc:	f9401bf7 	ldr	x23, [sp,#48]
    3600:	a8c47bfd 	ldp	x29, x30, [sp],#64
/home/lagadanu/Desktop/qemu/optee_os/lib/libutee/tee_api_arith.c:384
    3604:	14000c13 	b	6650 <mpa_add>
/home/lagadanu/Desktop/qemu/optee_os/lib/libutee/tee_api_arith.c:385
    3608:	a94153f3 	ldp	x19, x20, [sp,#16]
    360c:	a9425bf5 	ldp	x21, x22, [sp,#32]
    3610:	f9401bf7 	ldr	x23, [sp,#48]
    3614:	a8c47bfd 	ldp	x29, x30, [sp],#64
    3618:	d65f03c0 	ret

000000000000361c <TEE_BigIntSubMod>:
TEE_BigIntSubMod():
/home/lagadanu/Desktop/qemu/optee_os/lib/libutee/tee_api_arith.c:392
    361c:	a9bc7bfd 	stp	x29, x30, [sp,#-64]!
    3620:	910003fd 	mov	x29, sp
    3624:	a9025bf5 	stp	x21, x22, [sp,#32]
    3628:	aa0103f6 	mov	x22, x1
    362c:	a90153f3 	stp	x19, x20, [sp,#16]
    3630:	aa0303f5 	mov	x21, x3
    3634:	f9001bf7 	str	x23, [sp,#48]
    3638:	aa0003f4 	mov	x20, x0
TEE_BigIntCmpS32():
/home/lagadanu/Desktop/qemu/optee_os/lib/libutee/tee_api_arith.c:228
    363c:	52800041 	mov	w1, #0x2                   	// #2
    3640:	aa0303e0 	mov	x0, x3
TEE_BigIntSubMod():
/home/lagadanu/Desktop/qemu/optee_os/lib/libutee/tee_api_arith.c:392
    3644:	aa0203f7 	mov	x23, x2
TEE_BigIntCmpS32():
/home/lagadanu/Desktop/qemu/optee_os/lib/libutee/tee_api_arith.c:228
    3648:	94000dc9 	bl	6d6c <mpa_cmp_short>
TEE_BigIntSubMod():
/home/lagadanu/Desktop/qemu/optee_os/lib/libutee/tee_api_arith.c:398
    364c:	36f80080 	tbz	w0, #31, 365c <TEE_BigIntSubMod+0x40>
/home/lagadanu/Desktop/qemu/optee_os/lib/libutee/tee_api_arith.c:399
    3650:	d0000020 	adrp	x0, 9000 <__func__.3181+0x410>
    3654:	91056400 	add	x0, x0, #0x159
    3658:	940000c6 	bl	3970 <TEE_BigInt_Panic>
/home/lagadanu/Desktop/qemu/optee_os/lib/libutee/tee_api_arith.c:401
    365c:	90000093 	adrp	x19, 13000 <mempool_u32+0xde8>
    3660:	910c6273 	add	x19, x19, #0x318
    3664:	aa1503e3 	mov	x3, x21
    3668:	aa1703e2 	mov	x2, x23
    366c:	aa1603e1 	mov	x1, x22
    3670:	aa1403e0 	mov	x0, x20
    3674:	f9444a64 	ldr	x4, [x19,#2192]
    3678:	94001064 	bl	7808 <mpa_sub_mod>
/home/lagadanu/Desktop/qemu/optee_os/lib/libutee/tee_api_arith.c:402
    367c:	52800001 	mov	w1, #0x0                   	// #0
    3680:	aa1403e0 	mov	x0, x20
    3684:	94000dba 	bl	6d6c <mpa_cmp_short>
    3688:	36f80140 	tbz	w0, #31, 36b0 <TEE_BigIntSubMod+0x94>
/home/lagadanu/Desktop/qemu/optee_os/lib/libutee/tee_api_arith.c:403
    368c:	aa1503e2 	mov	x2, x21
    3690:	aa1403e1 	mov	x1, x20
    3694:	aa1403e0 	mov	x0, x20
    3698:	f9444a63 	ldr	x3, [x19,#2192]
/home/lagadanu/Desktop/qemu/optee_os/lib/libutee/tee_api_arith.c:404
    369c:	a9425bf5 	ldp	x21, x22, [sp,#32]
    36a0:	a94153f3 	ldp	x19, x20, [sp,#16]
    36a4:	f9401bf7 	ldr	x23, [sp,#48]
    36a8:	a8c47bfd 	ldp	x29, x30, [sp],#64
/home/lagadanu/Desktop/qemu/optee_os/lib/libutee/tee_api_arith.c:403
    36ac:	14000be9 	b	6650 <mpa_add>
/home/lagadanu/Desktop/qemu/optee_os/lib/libutee/tee_api_arith.c:404
    36b0:	a94153f3 	ldp	x19, x20, [sp,#16]
    36b4:	a9425bf5 	ldp	x21, x22, [sp,#32]
    36b8:	f9401bf7 	ldr	x23, [sp,#48]
    36bc:	a8c47bfd 	ldp	x29, x30, [sp],#64
    36c0:	d65f03c0 	ret

00000000000036c4 <TEE_BigIntMulMod>:
TEE_BigIntMulMod():
/home/lagadanu/Desktop/qemu/optee_os/lib/libutee/tee_api_arith.c:411
    36c4:	a9ba7bfd 	stp	x29, x30, [sp,#-96]!
    36c8:	910003fd 	mov	x29, sp
    36cc:	a90363f7 	stp	x23, x24, [sp,#48]
    36d0:	aa0003f7 	mov	x23, x0
    36d4:	a90153f3 	stp	x19, x20, [sp,#16]
    36d8:	aa0103f8 	mov	x24, x1
    36dc:	f90023f9 	str	x25, [sp,#64]
    36e0:	aa0303f4 	mov	x20, x3
    36e4:	a9025bf5 	stp	x21, x22, [sp,#32]
TEE_BigIntCmpS32():
/home/lagadanu/Desktop/qemu/optee_os/lib/libutee/tee_api_arith.c:228
    36e8:	52800041 	mov	w1, #0x2                   	// #2
    36ec:	aa0303e0 	mov	x0, x3
TEE_BigIntMulMod():
/home/lagadanu/Desktop/qemu/optee_os/lib/libutee/tee_api_arith.c:411
    36f0:	aa0203f9 	mov	x25, x2
TEE_BigIntCmpS32():
/home/lagadanu/Desktop/qemu/optee_os/lib/libutee/tee_api_arith.c:228
    36f4:	94000d9e 	bl	6d6c <mpa_cmp_short>
TEE_BigIntMulMod():
/home/lagadanu/Desktop/qemu/optee_os/lib/libutee/tee_api_arith.c:418
    36f8:	36f80080 	tbz	w0, #31, 3708 <TEE_BigIntMulMod+0x44>
/home/lagadanu/Desktop/qemu/optee_os/lib/libutee/tee_api_arith.c:419
    36fc:	d0000020 	adrp	x0, 9000 <__func__.3181+0x410>
    3700:	91056400 	add	x0, x0, #0x159
    3704:	9400009b 	bl	3970 <TEE_BigInt_Panic>
/home/lagadanu/Desktop/qemu/optee_os/lib/libutee/tee_api_arith.c:429
    3708:	90000093 	adrp	x19, 13000 <mempool_u32+0xde8>
    370c:	910c6275 	add	x21, x19, #0x318
    3710:	910163b6 	add	x22, x29, #0x58
    3714:	aa1603e0 	mov	x0, x22
    3718:	f9444aa1 	ldr	x1, [x21,#2192]
    371c:	940008ce 	bl	5a54 <mpa_alloc_static_temp_var>
/home/lagadanu/Desktop/qemu/optee_os/lib/libutee/tee_api_arith.c:430
    3720:	f9402fa0 	ldr	x0, [x29,#88]
    3724:	aa1803e1 	mov	x1, x24
    3728:	f9444aa4 	ldr	x4, [x21,#2192]
    372c:	aa1403e3 	mov	x3, x20
    3730:	aa1903e2 	mov	x2, x25
    3734:	94001056 	bl	788c <mpa_mul_mod>
/home/lagadanu/Desktop/qemu/optee_os/lib/libutee/tee_api_arith.c:431
    3738:	f9402fa0 	ldr	x0, [x29,#88]
    373c:	52800001 	mov	w1, #0x0                   	// #0
    3740:	94000d8b 	bl	6d6c <mpa_cmp_short>
    3744:	36f800c0 	tbz	w0, #31, 375c <TEE_BigIntMulMod+0x98>
/home/lagadanu/Desktop/qemu/optee_os/lib/libutee/tee_api_arith.c:432
    3748:	f9402fa1 	ldr	x1, [x29,#88]
    374c:	aa1403e2 	mov	x2, x20
    3750:	f9444aa3 	ldr	x3, [x21,#2192]
    3754:	aa0103e0 	mov	x0, x1
    3758:	94000bbe 	bl	6650 <mpa_add>
/home/lagadanu/Desktop/qemu/optee_os/lib/libutee/tee_api_arith.c:433
    375c:	f9402fa1 	ldr	x1, [x29,#88]
/home/lagadanu/Desktop/qemu/optee_os/lib/libutee/tee_api_arith.c:434
    3760:	910c6273 	add	x19, x19, #0x318
/home/lagadanu/Desktop/qemu/optee_os/lib/libutee/tee_api_arith.c:433
    3764:	aa1703e0 	mov	x0, x23
    3768:	940001dc 	bl	3ed8 <mpa_copy>
/home/lagadanu/Desktop/qemu/optee_os/lib/libutee/tee_api_arith.c:434
    376c:	f9444a61 	ldr	x1, [x19,#2192]
    3770:	aa1603e0 	mov	x0, x22
    3774:	940008bc 	bl	5a64 <mpa_free_static_temp_var>
/home/lagadanu/Desktop/qemu/optee_os/lib/libutee/tee_api_arith.c:435
    3778:	f94023f9 	ldr	x25, [sp,#64]
    377c:	a94153f3 	ldp	x19, x20, [sp,#16]
    3780:	a9425bf5 	ldp	x21, x22, [sp,#32]
    3784:	a94363f7 	ldp	x23, x24, [sp,#48]
    3788:	a8c67bfd 	ldp	x29, x30, [sp],#96
    378c:	d65f03c0 	ret

0000000000003790 <TEE_BigIntSquareMod>:
TEE_BigIntSquareMod():
/home/lagadanu/Desktop/qemu/optee_os/lib/libutee/tee_api_arith.c:443
    3790:	aa0203e3 	mov	x3, x2
    3794:	aa0103e2 	mov	x2, x1
    3798:	17ffffcb 	b	36c4 <TEE_BigIntMulMod>

000000000000379c <TEE_BigIntInvMod>:
TEE_BigIntInvMod():
/home/lagadanu/Desktop/qemu/optee_os/lib/libutee/tee_api_arith.c:451
    379c:	a9bd7bfd 	stp	x29, x30, [sp,#-48]!
    37a0:	910003fd 	mov	x29, sp
    37a4:	a90153f3 	stp	x19, x20, [sp,#16]
    37a8:	aa0103f3 	mov	x19, x1
    37ac:	f90013f5 	str	x21, [sp,#32]
    37b0:	aa0203f4 	mov	x20, x2
    37b4:	aa0003f5 	mov	x21, x0
TEE_BigIntCmpS32():
/home/lagadanu/Desktop/qemu/optee_os/lib/libutee/tee_api_arith.c:228
    37b8:	52800041 	mov	w1, #0x2                   	// #2
    37bc:	aa0203e0 	mov	x0, x2
    37c0:	94000d6b 	bl	6d6c <mpa_cmp_short>
TEE_BigIntInvMod():
/home/lagadanu/Desktop/qemu/optee_os/lib/libutee/tee_api_arith.c:456
    37c4:	36f80080 	tbz	w0, #31, 37d4 <TEE_BigIntInvMod+0x38>
/home/lagadanu/Desktop/qemu/optee_os/lib/libutee/tee_api_arith.c:457
    37c8:	d0000020 	adrp	x0, 9000 <__func__.3181+0x410>
    37cc:	9105b800 	add	x0, x0, #0x16e
    37d0:	94000068 	bl	3970 <TEE_BigInt_Panic>
TEE_BigIntCmpS32():
/home/lagadanu/Desktop/qemu/optee_os/lib/libutee/tee_api_arith.c:228
    37d4:	52800001 	mov	w1, #0x0                   	// #0
    37d8:	aa1303e0 	mov	x0, x19
    37dc:	94000d64 	bl	6d6c <mpa_cmp_short>
TEE_BigIntInvMod():
/home/lagadanu/Desktop/qemu/optee_os/lib/libutee/tee_api_arith.c:456
    37e0:	34ffff40 	cbz	w0, 37c8 <TEE_BigIntInvMod+0x2c>
/home/lagadanu/Desktop/qemu/optee_os/lib/libutee/tee_api_arith.c:459
    37e4:	90000080 	adrp	x0, 13000 <mempool_u32+0xde8>
    37e8:	aa1403e2 	mov	x2, x20
    37ec:	aa1303e1 	mov	x1, x19
    37f0:	f945d403 	ldr	x3, [x0,#2984]
    37f4:	aa1503e0 	mov	x0, x21
/home/lagadanu/Desktop/qemu/optee_os/lib/libutee/tee_api_arith.c:460
    37f8:	a94153f3 	ldp	x19, x20, [sp,#16]
    37fc:	f94013f5 	ldr	x21, [sp,#32]
    3800:	a8c37bfd 	ldp	x29, x30, [sp],#48
/home/lagadanu/Desktop/qemu/optee_os/lib/libutee/tee_api_arith.c:459
    3804:	14001043 	b	7910 <mpa_inv_mod>

0000000000003808 <TEE_BigIntRelativePrime>:
TEE_BigIntRelativePrime():
/home/lagadanu/Desktop/qemu/optee_os/lib/libutee/tee_api_arith.c:470
    3808:	a9bc7bfd 	stp	x29, x30, [sp,#-64]!
    380c:	910003fd 	mov	x29, sp
    3810:	a90153f3 	stp	x19, x20, [sp,#16]
/home/lagadanu/Desktop/qemu/optee_os/lib/libutee/tee_api_arith.c:476
    3814:	90000093 	adrp	x19, 13000 <mempool_u32+0xde8>
    3818:	910c6273 	add	x19, x19, #0x318
/home/lagadanu/Desktop/qemu/optee_os/lib/libutee/tee_api_arith.c:470
    381c:	a9025bf5 	stp	x21, x22, [sp,#32]
    3820:	aa0103f6 	mov	x22, x1
/home/lagadanu/Desktop/qemu/optee_os/lib/libutee/tee_api_arith.c:476
    3824:	9100e3b4 	add	x20, x29, #0x38
/home/lagadanu/Desktop/qemu/optee_os/lib/libutee/tee_api_arith.c:470
    3828:	aa0003f5 	mov	x21, x0
/home/lagadanu/Desktop/qemu/optee_os/lib/libutee/tee_api_arith.c:476
    382c:	aa1403e0 	mov	x0, x20
    3830:	f9444a61 	ldr	x1, [x19,#2192]
    3834:	94000888 	bl	5a54 <mpa_alloc_static_temp_var>
/home/lagadanu/Desktop/qemu/optee_os/lib/libutee/tee_api_arith.c:478
    3838:	f9444a63 	ldr	x3, [x19,#2192]
    383c:	aa1603e2 	mov	x2, x22
    3840:	f9401fa0 	ldr	x0, [x29,#56]
    3844:	aa1503e1 	mov	x1, x21
    3848:	940007ad 	bl	56fc <mpa_gcd>
/home/lagadanu/Desktop/qemu/optee_os/lib/libutee/tee_api_arith.c:479
    384c:	f9401fa0 	ldr	x0, [x29,#56]
    3850:	52800021 	mov	w1, #0x1                   	// #1
    3854:	94000d46 	bl	6d6c <mpa_cmp_short>
    3858:	2a0003f5 	mov	w21, w0
/home/lagadanu/Desktop/qemu/optee_os/lib/libutee/tee_api_arith.c:481
    385c:	f9444a61 	ldr	x1, [x19,#2192]
    3860:	aa1403e0 	mov	x0, x20
    3864:	94000880 	bl	5a64 <mpa_free_static_temp_var>
/home/lagadanu/Desktop/qemu/optee_os/lib/libutee/tee_api_arith.c:483
    3868:	710002bf 	cmp	w21, #0x0
/home/lagadanu/Desktop/qemu/optee_os/lib/libutee/tee_api_arith.c:484
    386c:	a94153f3 	ldp	x19, x20, [sp,#16]
    3870:	1a9f17e0 	cset	w0, eq
    3874:	a9425bf5 	ldp	x21, x22, [sp,#32]
    3878:	a8c47bfd 	ldp	x29, x30, [sp],#64
    387c:	d65f03c0 	ret

0000000000003880 <TEE_BigIntComputeExtendedGcd>:
TEE_BigIntComputeExtendedGcd():
/home/lagadanu/Desktop/qemu/optee_os/lib/libutee/tee_api_arith.c:499
    3880:	90000085 	adrp	x5, 13000 <mempool_u32+0xde8>
    3884:	f945d4a5 	ldr	x5, [x5,#2984]
    3888:	140007e5 	b	581c <mpa_extended_gcd>

000000000000388c <TEE_BigIntIsProbablePrime>:
TEE_BigIntIsProbablePrime():
/home/lagadanu/Desktop/qemu/optee_os/lib/libutee/tee_api_arith.c:507
    388c:	7104003f 	cmp	w1, #0x100
    3890:	52802002 	mov	w2, #0x100                 	// #256
    3894:	1a829021 	csel	w1, w1, w2, ls
/home/lagadanu/Desktop/qemu/optee_os/lib/libutee/tee_api_arith.c:516
    3898:	90000082 	adrp	x2, 13000 <mempool_u32+0xde8>
    389c:	7101403f 	cmp	w1, #0x50
    38a0:	52800a03 	mov	w3, #0x50                  	// #80
    38a4:	f945d442 	ldr	x2, [x2,#2984]
    38a8:	1a832021 	csel	w1, w1, w3, cs
    38ac:	140002d7 	b	4408 <mpa_is_prob_prime>

00000000000038b0 <TEE_BigIntConvertToFMM>:
TEE_BigIntConvertToFMM():
/home/lagadanu/Desktop/qemu/optee_os/lib/libutee/tee_api_arith.c:530
    38b0:	aa0303e6 	mov	x6, x3
/home/lagadanu/Desktop/qemu/optee_os/lib/libutee/tee_api_arith.c:537
    38b4:	90000083 	adrp	x3, 13000 <mempool_u32+0xde8>
    38b8:	f945d465 	ldr	x5, [x3,#2984]
    38bc:	aa0203e3 	mov	x3, x2
    38c0:	b94010c4 	ldr	w4, [x6,#16]
    38c4:	f94004c2 	ldr	x2, [x6,#8]
    38c8:	140002ae 	b	4380 <mpa_montgomery_mul>

00000000000038cc <TEE_BigIntConvertFromFMM>:
TEE_BigIntConvertFromFMM():
/home/lagadanu/Desktop/qemu/optee_os/lib/libutee/tee_api_arith.c:548
    38cc:	a9ba7bfd 	stp	x29, x30, [sp,#-96]!
    38d0:	910003fd 	mov	x29, sp
    38d4:	a90153f3 	stp	x19, x20, [sp,#16]
/home/lagadanu/Desktop/qemu/optee_os/lib/libutee/tee_api_arith.c:560
    38d8:	90000093 	adrp	x19, 13000 <mempool_u32+0xde8>
    38dc:	910c6273 	add	x19, x19, #0x318
/home/lagadanu/Desktop/qemu/optee_os/lib/libutee/tee_api_arith.c:548
    38e0:	a90363f7 	stp	x23, x24, [sp,#48]
    38e4:	aa0103f7 	mov	x23, x1
/home/lagadanu/Desktop/qemu/optee_os/lib/libutee/tee_api_arith.c:560
    38e8:	910163b4 	add	x20, x29, #0x58
/home/lagadanu/Desktop/qemu/optee_os/lib/libutee/tee_api_arith.c:548
    38ec:	f90023f9 	str	x25, [sp,#64]
    38f0:	aa0303f9 	mov	x25, x3
/home/lagadanu/Desktop/qemu/optee_os/lib/libutee/tee_api_arith.c:560
    38f4:	f9444a61 	ldr	x1, [x19,#2192]
/home/lagadanu/Desktop/qemu/optee_os/lib/libutee/tee_api_arith.c:548
    38f8:	aa0203f8 	mov	x24, x2
    38fc:	a9025bf5 	stp	x21, x22, [sp,#32]
    3900:	aa0003f5 	mov	x21, x0
/home/lagadanu/Desktop/qemu/optee_os/lib/libutee/tee_api_arith.c:560
    3904:	aa1403e0 	mov	x0, x20
    3908:	94000853 	bl	5a54 <mpa_alloc_static_temp_var>
/home/lagadanu/Desktop/qemu/optee_os/lib/libutee/tee_api_arith.c:563
    390c:	f9402fb6 	ldr	x22, [x29,#88]
    3910:	940001bf 	bl	400c <mpa_constant_one>
    3914:	aa0003e1 	mov	x1, x0
    3918:	b9401324 	ldr	w4, [x25,#16]
    391c:	aa1803e3 	mov	x3, x24
    3920:	f9444a65 	ldr	x5, [x19,#2192]
    3924:	aa1703e2 	mov	x2, x23
    3928:	aa1603e0 	mov	x0, x22
    392c:	94000295 	bl	4380 <mpa_montgomery_mul>
/home/lagadanu/Desktop/qemu/optee_os/lib/libutee/tee_api_arith.c:566
    3930:	f9402fa1 	ldr	x1, [x29,#88]
    3934:	aa1503e0 	mov	x0, x21
    3938:	94000168 	bl	3ed8 <mpa_copy>
/home/lagadanu/Desktop/qemu/optee_os/lib/libutee/tee_api_arith.c:567
    393c:	f9444a61 	ldr	x1, [x19,#2192]
    3940:	aa1403e0 	mov	x0, x20
    3944:	94000848 	bl	5a64 <mpa_free_static_temp_var>
/home/lagadanu/Desktop/qemu/optee_os/lib/libutee/tee_api_arith.c:568
    3948:	f94023f9 	ldr	x25, [sp,#64]
    394c:	a94153f3 	ldp	x19, x20, [sp,#16]
    3950:	a9425bf5 	ldp	x21, x22, [sp,#32]
    3954:	a94363f7 	ldp	x23, x24, [sp,#48]
    3958:	a8c67bfd 	ldp	x29, x30, [sp],#96
    395c:	d65f03c0 	ret

0000000000003960 <TEE_BigIntComputeFMM>:
TEE_BigIntComputeFMM():
/home/lagadanu/Desktop/qemu/optee_os/lib/libutee/tee_api_arith.c:585
    3960:	90000085 	adrp	x5, 13000 <mempool_u32+0xde8>
    3964:	b9401084 	ldr	w4, [x4,#16]
    3968:	f945d4a5 	ldr	x5, [x5,#2984]
    396c:	14000285 	b	4380 <mpa_montgomery_mul>

0000000000003970 <TEE_BigInt_Panic>:
TEE_BigInt_Panic():
/home/lagadanu/Desktop/qemu/optee_os/lib/libutee/tee_api_arith.c:35
    3970:	a9bf7bfd 	stp	x29, x30, [sp,#-16]!
/home/lagadanu/Desktop/qemu/optee_os/lib/libutee/tee_api_arith.c:36
    3974:	aa0003e1 	mov	x1, x0
    3978:	d0000020 	adrp	x0, 9000 <__func__.3181+0x410>
    397c:	9104f800 	add	x0, x0, #0x13e
/home/lagadanu/Desktop/qemu/optee_os/lib/libutee/tee_api_arith.c:35
    3980:	910003fd 	mov	x29, sp
/home/lagadanu/Desktop/qemu/optee_os/lib/libutee/tee_api_arith.c:36
    3984:	97fffac3 	bl	2490 <printf>
/home/lagadanu/Desktop/qemu/optee_os/lib/libutee/tee_api_arith.c:37
    3988:	528c24e0 	mov	w0, #0x6127                	// #24871
    398c:	72a01620 	movk	w0, #0xb1, lsl #16
    3990:	9400013b 	bl	3e7c <TEE_Panic>
    3994:	14000000 	b	3994 <TEE_BigInt_Panic+0x24>

0000000000003998 <__utee_from_param>:
__utee_from_param():
/home/lagadanu/Desktop/qemu/optee_os/lib/libutee/tee_api.c:25
    3998:	90000025 	adrp	x5, 7000 <mpa_init_static_fmm_context+0x38>
    399c:	913920a5 	add	x5, x5, #0xe48
/home/lagadanu/Desktop/qemu/optee_os/lib/libutee/tee_api.c:23
    39a0:	2a0103e3 	mov	w3, w1
    39a4:	52800004 	mov	w4, #0x0                   	// #0
    39a8:	f8008403 	str	x3, [x0],#8
/home/lagadanu/Desktop/qemu/optee_os/lib/libutee/tee_api.c:25
    39ac:	1ac42423 	lsr	w3, w1, w4
    39b0:	12000c63 	and	w3, w3, #0xf
    39b4:	51000463 	sub	w3, w3, #0x1
    39b8:	7100187f 	cmp	w3, #0x6
    39bc:	54000268 	b.hi	3a08 <__utee_from_param+0x70>
    39c0:	386348a3 	ldrb	w3, [x5,w3,uxtw]
    39c4:	10000066 	adr	x6, 39d0 <__utee_from_param+0x38>
    39c8:	8b2388c3 	add	x3, x6, w3, sxtb #2
    39cc:	d61f0060 	br	x3
/home/lagadanu/Desktop/qemu/optee_os/lib/libutee/tee_api.c:29
    39d0:	b9400043 	ldr	w3, [x2]
    39d4:	f9000003 	str	x3, [x0]
/home/lagadanu/Desktop/qemu/optee_os/lib/libutee/tee_api.c:30
    39d8:	b9400443 	ldr	w3, [x2,#4]
/home/lagadanu/Desktop/qemu/optee_os/lib/libutee/tee_api.c:36
    39dc:	f9000403 	str	x3, [x0,#8]
    39e0:	11001084 	add	w4, w4, #0x4
    39e4:	91004042 	add	x2, x2, #0x10
    39e8:	91004000 	add	x0, x0, #0x10
/home/lagadanu/Desktop/qemu/optee_os/lib/libutee/tee_api.c:24 (discriminator 2)
    39ec:	7100409f 	cmp	w4, #0x10
    39f0:	54fffde1 	b.ne	39ac <__utee_from_param+0x14>
/home/lagadanu/Desktop/qemu/optee_os/lib/libutee/tee_api.c:44
    39f4:	d65f03c0 	ret
/home/lagadanu/Desktop/qemu/optee_os/lib/libutee/tee_api.c:35
    39f8:	f9400043 	ldr	x3, [x2]
    39fc:	f9000003 	str	x3, [x0]
/home/lagadanu/Desktop/qemu/optee_os/lib/libutee/tee_api.c:36
    3a00:	b9400843 	ldr	w3, [x2,#8]
    3a04:	17fffff6 	b	39dc <__utee_from_param+0x44>
/home/lagadanu/Desktop/qemu/optee_os/lib/libutee/tee_api.c:40
    3a08:	a9007c1f 	stp	xzr, xzr, [x0]
/home/lagadanu/Desktop/qemu/optee_os/lib/libutee/tee_api.c:41
    3a0c:	17fffff5 	b	39e0 <__utee_from_param+0x48>

0000000000003a10 <__utee_to_param>:
__utee_to_param():
/home/lagadanu/Desktop/qemu/optee_os/lib/libutee/tee_api.c:50
    3a10:	f8408446 	ldr	x6, [x2],#8
/home/lagadanu/Desktop/qemu/optee_os/lib/libutee/tee_api.c:56
    3a14:	90000025 	adrp	x5, 7000 <mpa_init_static_fmm_context+0x38>
    3a18:	913940a5 	add	x5, x5, #0xe50
/home/lagadanu/Desktop/qemu/optee_os/lib/libutee/tee_api.c:50
    3a1c:	52800004 	mov	w4, #0x0                   	// #0
    3a20:	2a0603e9 	mov	w9, w6
/home/lagadanu/Desktop/qemu/optee_os/lib/libutee/tee_api.c:56
    3a24:	1ac42523 	lsr	w3, w9, w4
    3a28:	12000c63 	and	w3, w3, #0xf
    3a2c:	51000463 	sub	w3, w3, #0x1
    3a30:	7100187f 	cmp	w3, #0x6
/home/lagadanu/Desktop/qemu/optee_os/lib/libutee/tee_api.c:54
    3a34:	a9401c48 	ldp	x8, x7, [x2]
/home/lagadanu/Desktop/qemu/optee_os/lib/libutee/tee_api.c:56
    3a38:	540000c8 	b.hi	3a50 <__utee_to_param+0x40>
    3a3c:	386348a3 	ldrb	w3, [x5,w3,uxtw]
    3a40:	1000006a 	adr	x10, 3a4c <__utee_to_param+0x3c>
    3a44:	8b238943 	add	x3, x10, w3, sxtb #2
    3a48:	d61f0060 	br	x3
/home/lagadanu/Desktop/qemu/optee_os/lib/libutee/tee_api.c:61
    3a4c:	29001c08 	stp	w8, w7, [x0]
    3a50:	11001084 	add	w4, w4, #0x4
    3a54:	91004042 	add	x2, x2, #0x10
    3a58:	91004000 	add	x0, x0, #0x10
/home/lagadanu/Desktop/qemu/optee_os/lib/libutee/tee_api.c:52 (discriminator 2)
    3a5c:	7100409f 	cmp	w4, #0x10
    3a60:	54fffe21 	b.ne	3a24 <__utee_to_param+0x14>
/home/lagadanu/Desktop/qemu/optee_os/lib/libutee/tee_api.c:74
    3a64:	b4000041 	cbz	x1, 3a6c <__utee_to_param+0x5c>
/home/lagadanu/Desktop/qemu/optee_os/lib/libutee/tee_api.c:75
    3a68:	b9000026 	str	w6, [x1]
    3a6c:	d65f03c0 	ret
/home/lagadanu/Desktop/qemu/optee_os/lib/libutee/tee_api.c:66
    3a70:	f9000008 	str	x8, [x0]
/home/lagadanu/Desktop/qemu/optee_os/lib/libutee/tee_api.c:67
    3a74:	b9000807 	str	w7, [x0,#8]
/home/lagadanu/Desktop/qemu/optee_os/lib/libutee/tee_api.c:68
    3a78:	17fffff6 	b	3a50 <__utee_to_param+0x40>

0000000000003a7c <TEE_OpenTASession>:
TEE_OpenTASession():
/home/lagadanu/Desktop/qemu/optee_os/lib/libutee/tee_api.c:84
    3a7c:	a9b77bfd 	stp	x29, x30, [sp,#-144]!
    3a80:	910003fd 	mov	x29, sp
    3a84:	a90153f3 	stp	x19, x20, [sp,#16]
/home/lagadanu/Desktop/qemu/optee_os/lib/libutee/tee_api.c:89
    3a88:	910123b3 	add	x19, x29, #0x48
/home/lagadanu/Desktop/qemu/optee_os/lib/libutee/tee_api.c:84
    3a8c:	a9025bf5 	stp	x21, x22, [sp,#32]
    3a90:	aa0303f4 	mov	x20, x3
    3a94:	a90363f7 	stp	x23, x24, [sp,#48]
    3a98:	aa0003f6 	mov	x22, x0
    3a9c:	aa0503f8 	mov	x24, x5
    3aa0:	2a0103f7 	mov	w23, w1
    3aa4:	aa0403f5 	mov	x21, x4
    3aa8:	2a0203e1 	mov	w1, w2
/home/lagadanu/Desktop/qemu/optee_os/lib/libutee/tee_api.c:89
    3aac:	aa1303e0 	mov	x0, x19
    3ab0:	aa0303e2 	mov	x2, x3
    3ab4:	97ffffb9 	bl	3998 <__utee_from_param>
/home/lagadanu/Desktop/qemu/optee_os/lib/libutee/tee_api.c:90
    3ab8:	aa1803e4 	mov	x4, x24
    3abc:	910113a3 	add	x3, x29, #0x44
    3ac0:	aa1303e2 	mov	x2, x19
    3ac4:	2a1703e1 	mov	w1, w23
    3ac8:	aa1603e0 	mov	x0, x22
    3acc:	97fffd31 	bl	2f90 <utee_open_ta_session>
/home/lagadanu/Desktop/qemu/optee_os/lib/libutee/tee_api.c:92
    3ad0:	aa1303e2 	mov	x2, x19
/home/lagadanu/Desktop/qemu/optee_os/lib/libutee/tee_api.c:90
    3ad4:	2a0003f6 	mov	w22, w0
/home/lagadanu/Desktop/qemu/optee_os/lib/libutee/tee_api.c:92
    3ad8:	d2800001 	mov	x1, #0x0                   	// #0
    3adc:	aa1403e0 	mov	x0, x20
    3ae0:	97ffffcc 	bl	3a10 <__utee_to_param>
/home/lagadanu/Desktop/qemu/optee_os/lib/libutee/tee_api.c:98
    3ae4:	34000056 	cbz	w22, 3aec <TEE_OpenTASession+0x70>
/home/lagadanu/Desktop/qemu/optee_os/lib/libutee/tee_api.c:99
    3ae8:	b90047bf 	str	wzr, [x29,#68]
/home/lagadanu/Desktop/qemu/optee_os/lib/libutee/tee_api.c:101
    3aec:	b94047a0 	ldr	w0, [x29,#68]
/home/lagadanu/Desktop/qemu/optee_os/lib/libutee/tee_api.c:103
    3af0:	a94153f3 	ldp	x19, x20, [sp,#16]
    3af4:	a94363f7 	ldp	x23, x24, [sp,#48]
/home/lagadanu/Desktop/qemu/optee_os/lib/libutee/tee_api.c:101
    3af8:	f90002a0 	str	x0, [x21]
/home/lagadanu/Desktop/qemu/optee_os/lib/libutee/tee_api.c:103
    3afc:	2a1603e0 	mov	w0, w22
    3b00:	a9425bf5 	ldp	x21, x22, [sp,#32]
    3b04:	a8c97bfd 	ldp	x29, x30, [sp],#144
    3b08:	d65f03c0 	ret

0000000000003b0c <TEE_CloseTASession>:
TEE_CloseTASession():
/home/lagadanu/Desktop/qemu/optee_os/lib/libutee/tee_api.c:107
    3b0c:	b4000120 	cbz	x0, 3b30 <TEE_CloseTASession+0x24>
/home/lagadanu/Desktop/qemu/optee_os/lib/libutee/tee_api.c:106
    3b10:	a9bf7bfd 	stp	x29, x30, [sp,#-16]!
    3b14:	910003fd 	mov	x29, sp
/home/lagadanu/Desktop/qemu/optee_os/lib/libutee/tee_api.c:108
    3b18:	97fffd21 	bl	2f9c <utee_close_ta_session>
/home/lagadanu/Desktop/qemu/optee_os/lib/libutee/tee_api.c:110
    3b1c:	34000060 	cbz	w0, 3b28 <TEE_CloseTASession+0x1c>
/home/lagadanu/Desktop/qemu/optee_os/lib/libutee/tee_api.c:113
    3b20:	a8c17bfd 	ldp	x29, x30, [sp],#16
/home/lagadanu/Desktop/qemu/optee_os/lib/libutee/tee_api.c:111
    3b24:	140000d6 	b	3e7c <TEE_Panic>
/home/lagadanu/Desktop/qemu/optee_os/lib/libutee/tee_api.c:113
    3b28:	a8c17bfd 	ldp	x29, x30, [sp],#16
    3b2c:	d65f03c0 	ret
    3b30:	d65f03c0 	ret

0000000000003b34 <TEE_InvokeTACommand>:
TEE_InvokeTACommand():
/home/lagadanu/Desktop/qemu/optee_os/lib/libutee/tee_api.c:120
    3b34:	a9b77bfd 	stp	x29, x30, [sp,#-144]!
    3b38:	910003fd 	mov	x29, sp
    3b3c:	a90153f3 	stp	x19, x20, [sp,#16]
/home/lagadanu/Desktop/qemu/optee_os/lib/libutee/tee_api.c:125
    3b40:	910123b4 	add	x20, x29, #0x48
/home/lagadanu/Desktop/qemu/optee_os/lib/libutee/tee_api.c:120
    3b44:	a9025bf5 	stp	x21, x22, [sp,#32]
    3b48:	aa0003f3 	mov	x19, x0
    3b4c:	a90363f7 	stp	x23, x24, [sp,#48]
    3b50:	aa0403f6 	mov	x22, x4
    3b54:	aa0503f5 	mov	x21, x5
    3b58:	2a0103f7 	mov	w23, w1
    3b5c:	2a0203f8 	mov	w24, w2
/home/lagadanu/Desktop/qemu/optee_os/lib/libutee/tee_api.c:125
    3b60:	2a0303e1 	mov	w1, w3
    3b64:	aa0403e2 	mov	x2, x4
    3b68:	aa1403e0 	mov	x0, x20
    3b6c:	97ffff8b 	bl	3998 <__utee_from_param>
/home/lagadanu/Desktop/qemu/optee_os/lib/libutee/tee_api.c:126
    3b70:	910113a4 	add	x4, x29, #0x44
    3b74:	aa1403e3 	mov	x3, x20
    3b78:	2a1803e2 	mov	w2, w24
    3b7c:	2a1703e1 	mov	w1, w23
    3b80:	aa1303e0 	mov	x0, x19
    3b84:	97fffd09 	bl	2fa8 <utee_invoke_ta_command>
/home/lagadanu/Desktop/qemu/optee_os/lib/libutee/tee_api.c:129
    3b88:	aa1403e2 	mov	x2, x20
/home/lagadanu/Desktop/qemu/optee_os/lib/libutee/tee_api.c:126
    3b8c:	2a0003f3 	mov	w19, w0
/home/lagadanu/Desktop/qemu/optee_os/lib/libutee/tee_api.c:129
    3b90:	d2800001 	mov	x1, #0x0                   	// #0
    3b94:	aa1603e0 	mov	x0, x22
    3b98:	97ffff9e 	bl	3a10 <__utee_to_param>
    3b9c:	b94047a0 	ldr	w0, [x29,#68]
/home/lagadanu/Desktop/qemu/optee_os/lib/libutee/tee_api.c:131
    3ba0:	b4000055 	cbz	x21, 3ba8 <TEE_InvokeTACommand+0x74>
/home/lagadanu/Desktop/qemu/optee_os/lib/libutee/tee_api.c:132
    3ba4:	b90002a0 	str	w0, [x21]
/home/lagadanu/Desktop/qemu/optee_os/lib/libutee/tee_api.c:134
    3ba8:	7100101f 	cmp	w0, #0x4
    3bac:	54000120 	b.eq	3bd0 <TEE_InvokeTACommand+0x9c>
/home/lagadanu/Desktop/qemu/optee_os/lib/libutee/tee_api.c:138
    3bb0:	7100027f 	cmp	w19, #0x0
    3bb4:	129ffe60 	mov	w0, #0xffff000c            	// #-65524
    3bb8:	7a401264 	ccmp	w19, w0, #0x4, ne
    3bbc:	1299fb60 	mov	w0, #0xffff3024            	// #-53212
    3bc0:	7a401264 	ccmp	w19, w0, #0x4, ne
    3bc4:	54000060 	b.eq	3bd0 <TEE_InvokeTACommand+0x9c>
/home/lagadanu/Desktop/qemu/optee_os/lib/libutee/tee_api.c:140
    3bc8:	2a1303e0 	mov	w0, w19
    3bcc:	940000ac 	bl	3e7c <TEE_Panic>
/home/lagadanu/Desktop/qemu/optee_os/lib/libutee/tee_api.c:143
    3bd0:	2a1303e0 	mov	w0, w19
    3bd4:	a94153f3 	ldp	x19, x20, [sp,#16]
    3bd8:	a9425bf5 	ldp	x21, x22, [sp,#32]
    3bdc:	a94363f7 	ldp	x23, x24, [sp,#48]
    3be0:	a8c97bfd 	ldp	x29, x30, [sp],#144
    3be4:	d65f03c0 	ret

0000000000003be8 <TEE_GetCancellationFlag>:
TEE_GetCancellationFlag():
/home/lagadanu/Desktop/qemu/optee_os/lib/libutee/tee_api.c:148
    3be8:	a9be7bfd 	stp	x29, x30, [sp,#-32]!
    3bec:	910003fd 	mov	x29, sp
/home/lagadanu/Desktop/qemu/optee_os/lib/libutee/tee_api.c:150
    3bf0:	910073a0 	add	x0, x29, #0x1c
    3bf4:	97fffcf0 	bl	2fb4 <utee_get_cancellation_flag>
/home/lagadanu/Desktop/qemu/optee_os/lib/libutee/tee_api.c:152
    3bf8:	34000040 	cbz	w0, 3c00 <TEE_GetCancellationFlag+0x18>
/home/lagadanu/Desktop/qemu/optee_os/lib/libutee/tee_api.c:153
    3bfc:	b9001fbf 	str	wzr, [x29,#28]
/home/lagadanu/Desktop/qemu/optee_os/lib/libutee/tee_api.c:154
    3c00:	b9401fa0 	ldr	w0, [x29,#28]
/home/lagadanu/Desktop/qemu/optee_os/lib/libutee/tee_api.c:155
    3c04:	a8c27bfd 	ldp	x29, x30, [sp],#32
/home/lagadanu/Desktop/qemu/optee_os/lib/libutee/tee_api.c:154
    3c08:	7100001f 	cmp	w0, #0x0
/home/lagadanu/Desktop/qemu/optee_os/lib/libutee/tee_api.c:155
    3c0c:	1a9f07e0 	cset	w0, ne
    3c10:	d65f03c0 	ret

0000000000003c14 <TEE_UnmaskCancellation>:
TEE_UnmaskCancellation():
/home/lagadanu/Desktop/qemu/optee_os/lib/libutee/tee_api.c:158
    3c14:	a9be7bfd 	stp	x29, x30, [sp,#-32]!
    3c18:	910003fd 	mov	x29, sp
/home/lagadanu/Desktop/qemu/optee_os/lib/libutee/tee_api.c:160
    3c1c:	910073a0 	add	x0, x29, #0x1c
    3c20:	97fffceb 	bl	2fcc <utee_unmask_cancellation>
/home/lagadanu/Desktop/qemu/optee_os/lib/libutee/tee_api.c:162
    3c24:	34000040 	cbz	w0, 3c2c <TEE_UnmaskCancellation+0x18>
/home/lagadanu/Desktop/qemu/optee_os/lib/libutee/tee_api.c:163
    3c28:	94000095 	bl	3e7c <TEE_Panic>
/home/lagadanu/Desktop/qemu/optee_os/lib/libutee/tee_api.c:164
    3c2c:	b9401fa0 	ldr	w0, [x29,#28]
/home/lagadanu/Desktop/qemu/optee_os/lib/libutee/tee_api.c:165
    3c30:	a8c27bfd 	ldp	x29, x30, [sp],#32
/home/lagadanu/Desktop/qemu/optee_os/lib/libutee/tee_api.c:164
    3c34:	7100001f 	cmp	w0, #0x0
/home/lagadanu/Desktop/qemu/optee_os/lib/libutee/tee_api.c:165
    3c38:	1a9f07e0 	cset	w0, ne
    3c3c:	d65f03c0 	ret

0000000000003c40 <TEE_MaskCancellation>:
TEE_MaskCancellation():
/home/lagadanu/Desktop/qemu/optee_os/lib/libutee/tee_api.c:168
    3c40:	a9be7bfd 	stp	x29, x30, [sp,#-32]!
    3c44:	910003fd 	mov	x29, sp
/home/lagadanu/Desktop/qemu/optee_os/lib/libutee/tee_api.c:170
    3c48:	910073a0 	add	x0, x29, #0x1c
    3c4c:	97fffce3 	bl	2fd8 <utee_mask_cancellation>
/home/lagadanu/Desktop/qemu/optee_os/lib/libutee/tee_api.c:172
    3c50:	34000040 	cbz	w0, 3c58 <TEE_MaskCancellation+0x18>
/home/lagadanu/Desktop/qemu/optee_os/lib/libutee/tee_api.c:173
    3c54:	9400008a 	bl	3e7c <TEE_Panic>
/home/lagadanu/Desktop/qemu/optee_os/lib/libutee/tee_api.c:174
    3c58:	b9401fa0 	ldr	w0, [x29,#28]
/home/lagadanu/Desktop/qemu/optee_os/lib/libutee/tee_api.c:175
    3c5c:	a8c27bfd 	ldp	x29, x30, [sp],#32
/home/lagadanu/Desktop/qemu/optee_os/lib/libutee/tee_api.c:174
    3c60:	7100001f 	cmp	w0, #0x0
/home/lagadanu/Desktop/qemu/optee_os/lib/libutee/tee_api.c:175
    3c64:	1a9f07e0 	cset	w0, ne
    3c68:	d65f03c0 	ret

0000000000003c6c <TEE_CheckMemoryAccessRights>:
TEE_CheckMemoryAccessRights():
/home/lagadanu/Desktop/qemu/optee_os/lib/libutee/tee_api.c:184
    3c6c:	34000062 	cbz	w2, 3c78 <TEE_CheckMemoryAccessRights+0xc>
/home/lagadanu/Desktop/qemu/optee_os/lib/libutee/tee_api.c:188
    3c70:	2a0203e2 	mov	w2, w2
    3c74:	17fffcd3 	b	2fc0 <utee_check_access_rights>
/home/lagadanu/Desktop/qemu/optee_os/lib/libutee/tee_api.c:200
    3c78:	52800000 	mov	w0, #0x0                   	// #0
    3c7c:	d65f03c0 	ret

0000000000003c80 <TEE_SetInstanceData>:
TEE_SetInstanceData():
/home/lagadanu/Desktop/qemu/optee_os/lib/libutee/tee_api.c:204
    3c80:	90000081 	adrp	x1, 13000 <mempool_u32+0xde8>
    3c84:	f905d820 	str	x0, [x1,#2992]
    3c88:	d65f03c0 	ret

0000000000003c8c <TEE_GetInstanceData>:
TEE_GetInstanceData():
/home/lagadanu/Desktop/qemu/optee_os/lib/libutee/tee_api.c:210
    3c8c:	90000080 	adrp	x0, 13000 <mempool_u32+0xde8>
    3c90:	f945d800 	ldr	x0, [x0,#2992]
    3c94:	d65f03c0 	ret

0000000000003c98 <TEE_MemMove>:
TEE_MemMove():
/home/lagadanu/Desktop/qemu/optee_os/lib/libutee/tee_api.c:214
    3c98:	2a0203e2 	mov	w2, w2
    3c9c:	14000fa2 	b	7b24 <memmove>

0000000000003ca0 <TEE_MemCompare>:
TEE_MemCompare():
/home/lagadanu/Desktop/qemu/optee_os/lib/libutee/tee_api.c:219
    3ca0:	2a0203e2 	mov	w2, w2
    3ca4:	14000f93 	b	7af0 <memcmp>

0000000000003ca8 <TEE_MemFill>:
TEE_MemFill():
/home/lagadanu/Desktop/qemu/optee_os/lib/libutee/tee_api.c:224
    3ca8:	2a0203e2 	mov	w2, w2
    3cac:	17fff610 	b	14ec <memset>

0000000000003cb0 <TEE_GetSystemTime>:
TEE_GetSystemTime():
/home/lagadanu/Desktop/qemu/optee_os/lib/libutee/tee_api.c:230
    3cb0:	a9bf7bfd 	stp	x29, x30, [sp,#-16]!
/home/lagadanu/Desktop/qemu/optee_os/lib/libutee/tee_api.c:231
    3cb4:	aa0003e1 	mov	x1, x0
    3cb8:	d2800000 	mov	x0, #0x0                   	// #0
/home/lagadanu/Desktop/qemu/optee_os/lib/libutee/tee_api.c:230
    3cbc:	910003fd 	mov	x29, sp
/home/lagadanu/Desktop/qemu/optee_os/lib/libutee/tee_api.c:231
    3cc0:	97fffccc 	bl	2ff0 <utee_get_time>
/home/lagadanu/Desktop/qemu/optee_os/lib/libutee/tee_api.c:233
    3cc4:	34000060 	cbz	w0, 3cd0 <TEE_GetSystemTime+0x20>
/home/lagadanu/Desktop/qemu/optee_os/lib/libutee/tee_api.c:235
    3cc8:	a8c17bfd 	ldp	x29, x30, [sp],#16
/home/lagadanu/Desktop/qemu/optee_os/lib/libutee/tee_api.c:234
    3ccc:	1400006c 	b	3e7c <TEE_Panic>
/home/lagadanu/Desktop/qemu/optee_os/lib/libutee/tee_api.c:235
    3cd0:	a8c17bfd 	ldp	x29, x30, [sp],#16
    3cd4:	d65f03c0 	ret

0000000000003cd8 <TEE_Wait>:
TEE_Wait():
/home/lagadanu/Desktop/qemu/optee_os/lib/libutee/tee_api.c:238
    3cd8:	a9be7bfd 	stp	x29, x30, [sp,#-32]!
/home/lagadanu/Desktop/qemu/optee_os/lib/libutee/tee_api.c:239
    3cdc:	2a0003e0 	mov	w0, w0
/home/lagadanu/Desktop/qemu/optee_os/lib/libutee/tee_api.c:238
    3ce0:	910003fd 	mov	x29, sp
    3ce4:	f9000bf3 	str	x19, [sp,#16]
/home/lagadanu/Desktop/qemu/optee_os/lib/libutee/tee_api.c:239
    3ce8:	97fffcbf 	bl	2fe4 <utee_wait>
/home/lagadanu/Desktop/qemu/optee_os/lib/libutee/tee_api.c:241
    3cec:	7100001f 	cmp	w0, #0x0
    3cf0:	129fffa1 	mov	w1, #0xffff0002            	// #-65534
/home/lagadanu/Desktop/qemu/optee_os/lib/libutee/tee_api.c:239
    3cf4:	2a0003f3 	mov	w19, w0
/home/lagadanu/Desktop/qemu/optee_os/lib/libutee/tee_api.c:241
    3cf8:	7a411004 	ccmp	w0, w1, #0x4, ne
    3cfc:	54000040 	b.eq	3d04 <TEE_Wait+0x2c>
/home/lagadanu/Desktop/qemu/optee_os/lib/libutee/tee_api.c:242
    3d00:	9400005f 	bl	3e7c <TEE_Panic>
/home/lagadanu/Desktop/qemu/optee_os/lib/libutee/tee_api.c:245
    3d04:	2a1303e0 	mov	w0, w19
    3d08:	f9400bf3 	ldr	x19, [sp,#16]
    3d0c:	a8c27bfd 	ldp	x29, x30, [sp],#32
    3d10:	d65f03c0 	ret

0000000000003d14 <TEE_GetTAPersistentTime>:
TEE_GetTAPersistentTime():
/home/lagadanu/Desktop/qemu/optee_os/lib/libutee/tee_api.c:248
    3d14:	a9be7bfd 	stp	x29, x30, [sp,#-32]!
/home/lagadanu/Desktop/qemu/optee_os/lib/libutee/tee_api.c:251
    3d18:	aa0003e1 	mov	x1, x0
/home/lagadanu/Desktop/qemu/optee_os/lib/libutee/tee_api.c:248
    3d1c:	910003fd 	mov	x29, sp
    3d20:	a90153f3 	stp	x19, x20, [sp,#16]
    3d24:	aa0003f4 	mov	x20, x0
/home/lagadanu/Desktop/qemu/optee_os/lib/libutee/tee_api.c:251
    3d28:	d2800020 	mov	x0, #0x1                   	// #1
    3d2c:	97fffcb1 	bl	2ff0 <utee_get_time>
/home/lagadanu/Desktop/qemu/optee_os/lib/libutee/tee_api.c:253
    3d30:	7100001f 	cmp	w0, #0x0
/home/lagadanu/Desktop/qemu/optee_os/lib/libutee/tee_api.c:251
    3d34:	2a0003f3 	mov	w19, w0
/home/lagadanu/Desktop/qemu/optee_os/lib/libutee/tee_api.c:253
    3d38:	1a9f07e1 	cset	w1, ne
    3d3c:	1299fe00 	mov	w0, #0xffff300f            	// #-53233
    3d40:	6b00027f 	cmp	w19, w0
    3d44:	1a9f07e0 	cset	w0, ne
    3d48:	6a00003f 	tst	w1, w0
    3d4c:	54000040 	b.eq	3d54 <TEE_GetTAPersistentTime+0x40>
/home/lagadanu/Desktop/qemu/optee_os/lib/libutee/tee_api.c:255
    3d50:	29007e9f 	stp	wzr, wzr, [x20]
/home/lagadanu/Desktop/qemu/optee_os/lib/libutee/tee_api.c:259
    3d54:	11402e62 	add	w2, w19, #0xb, lsl #12
    3d58:	7100045f 	cmp	w2, #0x1
    3d5c:	1a9f97e2 	cset	w2, hi
/home/lagadanu/Desktop/qemu/optee_os/lib/libutee/tee_api.c:258
    3d60:	6a02003f 	tst	w1, w2
    3d64:	54000100 	b.eq	3d84 <TEE_GetTAPersistentTime+0x70>
/home/lagadanu/Desktop/qemu/optee_os/lib/libutee/tee_api.c:261
    3d68:	129ffe61 	mov	w1, #0xffff000c            	// #-65524
    3d6c:	6b01027f 	cmp	w19, w1
    3d70:	1a9f07e1 	cset	w1, ne
    3d74:	6a01001f 	tst	w0, w1
    3d78:	54000060 	b.eq	3d84 <TEE_GetTAPersistentTime+0x70>
/home/lagadanu/Desktop/qemu/optee_os/lib/libutee/tee_api.c:263
    3d7c:	2a1303e0 	mov	w0, w19
    3d80:	9400003f 	bl	3e7c <TEE_Panic>
/home/lagadanu/Desktop/qemu/optee_os/lib/libutee/tee_api.c:266
    3d84:	2a1303e0 	mov	w0, w19
    3d88:	a94153f3 	ldp	x19, x20, [sp,#16]
    3d8c:	a8c27bfd 	ldp	x29, x30, [sp],#32
    3d90:	d65f03c0 	ret

0000000000003d94 <TEE_SetTAPersistentTime>:
TEE_SetTAPersistentTime():
/home/lagadanu/Desktop/qemu/optee_os/lib/libutee/tee_api.c:269
    3d94:	a9be7bfd 	stp	x29, x30, [sp,#-32]!
    3d98:	910003fd 	mov	x29, sp
    3d9c:	f9000bf3 	str	x19, [sp,#16]
/home/lagadanu/Desktop/qemu/optee_os/lib/libutee/tee_api.c:272
    3da0:	97fffc97 	bl	2ffc <utee_set_ta_time>
/home/lagadanu/Desktop/qemu/optee_os/lib/libutee/tee_api.c:275
    3da4:	7100001f 	cmp	w0, #0x0
    3da8:	129ffe61 	mov	w1, #0xffff000c            	// #-65524
    3dac:	7a411004 	ccmp	w0, w1, #0x4, ne
/home/lagadanu/Desktop/qemu/optee_os/lib/libutee/tee_api.c:272
    3db0:	2a0003f3 	mov	w19, w0
/home/lagadanu/Desktop/qemu/optee_os/lib/libutee/tee_api.c:275
    3db4:	1299f7c1 	mov	w1, #0xffff3041            	// #-53183
    3db8:	7a411004 	ccmp	w0, w1, #0x4, ne
    3dbc:	54000040 	b.eq	3dc4 <TEE_SetTAPersistentTime+0x30>
/home/lagadanu/Desktop/qemu/optee_os/lib/libutee/tee_api.c:277
    3dc0:	9400002f 	bl	3e7c <TEE_Panic>
/home/lagadanu/Desktop/qemu/optee_os/lib/libutee/tee_api.c:280
    3dc4:	2a1303e0 	mov	w0, w19
    3dc8:	f9400bf3 	ldr	x19, [sp,#16]
    3dcc:	a8c27bfd 	ldp	x29, x30, [sp],#32
    3dd0:	d65f03c0 	ret

0000000000003dd4 <TEE_GetREETime>:
TEE_GetREETime():
/home/lagadanu/Desktop/qemu/optee_os/lib/libutee/tee_api.c:283
    3dd4:	a9bf7bfd 	stp	x29, x30, [sp,#-16]!
/home/lagadanu/Desktop/qemu/optee_os/lib/libutee/tee_api.c:284
    3dd8:	aa0003e1 	mov	x1, x0
    3ddc:	d2800040 	mov	x0, #0x2                   	// #2
/home/lagadanu/Desktop/qemu/optee_os/lib/libutee/tee_api.c:283
    3de0:	910003fd 	mov	x29, sp
/home/lagadanu/Desktop/qemu/optee_os/lib/libutee/tee_api.c:284
    3de4:	97fffc83 	bl	2ff0 <utee_get_time>
/home/lagadanu/Desktop/qemu/optee_os/lib/libutee/tee_api.c:286
    3de8:	34000060 	cbz	w0, 3df4 <TEE_GetREETime+0x20>
/home/lagadanu/Desktop/qemu/optee_os/lib/libutee/tee_api.c:288
    3dec:	a8c17bfd 	ldp	x29, x30, [sp],#16
/home/lagadanu/Desktop/qemu/optee_os/lib/libutee/tee_api.c:287
    3df0:	14000023 	b	3e7c <TEE_Panic>
/home/lagadanu/Desktop/qemu/optee_os/lib/libutee/tee_api.c:288
    3df4:	a8c17bfd 	ldp	x29, x30, [sp],#16
    3df8:	d65f03c0 	ret

0000000000003dfc <TEE_Malloc>:
TEE_Malloc():
/home/lagadanu/Desktop/qemu/optee_os/lib/libutee/tee_api.c:292
    3dfc:	35000081 	cbnz	w1, 3e0c <TEE_Malloc+0x10>
/home/lagadanu/Desktop/qemu/optee_os/lib/libutee/tee_api.c:293
    3e00:	2a0003e1 	mov	w1, w0
    3e04:	d2800020 	mov	x0, #0x1                   	// #1
    3e08:	17fff3b9 	b	cec <calloc>
/home/lagadanu/Desktop/qemu/optee_os/lib/libutee/tee_api.c:294
    3e0c:	52b00002 	mov	w2, #0x80000000            	// #-2147483648
    3e10:	6b02003f 	cmp	w1, w2
    3e14:	54000061 	b.ne	3e20 <TEE_Malloc+0x24>
/home/lagadanu/Desktop/qemu/optee_os/lib/libutee/tee_api.c:295
    3e18:	2a0003e0 	mov	w0, w0
    3e1c:	17fff3ae 	b	cd4 <malloc>
/home/lagadanu/Desktop/qemu/optee_os/lib/libutee/tee_api.c:291
    3e20:	a9bf7bfd 	stp	x29, x30, [sp,#-16]!
    3e24:	2a0103e5 	mov	w5, w1
/home/lagadanu/Desktop/qemu/optee_os/lib/libutee/tee_api.c:297
    3e28:	52800023 	mov	w3, #0x1                   	// #1
    3e2c:	52800022 	mov	w2, #0x1                   	// #1
/home/lagadanu/Desktop/qemu/optee_os/lib/libutee/tee_api.c:291
    3e30:	910003fd 	mov	x29, sp
/home/lagadanu/Desktop/qemu/optee_os/lib/libutee/tee_api.c:297
    3e34:	52802521 	mov	w1, #0x129                 	// #297
    3e38:	d0000024 	adrp	x4, 9000 <__func__.3181+0x410>
    3e3c:	90000020 	adrp	x0, 7000 <mpa_init_static_fmm_context+0x38>
    3e40:	91066484 	add	x4, x4, #0x199
    3e44:	91396000 	add	x0, x0, #0xe58
    3e48:	97fff5c7 	bl	1564 <trace_printf>
/home/lagadanu/Desktop/qemu/optee_os/lib/libutee/tee_api.c:300
    3e4c:	d2800000 	mov	x0, #0x0                   	// #0
    3e50:	a8c17bfd 	ldp	x29, x30, [sp],#16
    3e54:	d65f03c0 	ret

0000000000003e58 <TEE_Realloc>:
TEE_Realloc():
/home/lagadanu/Desktop/qemu/optee_os/lib/libutee/tee_api.c:304
    3e58:	2a0103e1 	mov	w1, w1
    3e5c:	17fff3c0 	b	d5c <realloc>

0000000000003e60 <TEE_Free>:
TEE_Free():
/home/lagadanu/Desktop/qemu/optee_os/lib/libutee/tee_api.c:309
    3e60:	17fff39e 	b	cd8 <free>

0000000000003e64 <TEE_CacheClean>:
TEE_CacheClean():
/home/lagadanu/Desktop/qemu/optee_os/lib/libutee/tee_api.c:315
    3e64:	d2800002 	mov	x2, #0x0                   	// #0
    3e68:	17fffd0d 	b	329c <utee_cache_operation>

0000000000003e6c <TEE_CacheFlush>:
TEE_CacheFlush():
/home/lagadanu/Desktop/qemu/optee_os/lib/libutee/tee_api.c:319
    3e6c:	d2800022 	mov	x2, #0x1                   	// #1
    3e70:	17fffd0b 	b	329c <utee_cache_operation>

0000000000003e74 <TEE_CacheInvalidate>:
TEE_CacheInvalidate():
/home/lagadanu/Desktop/qemu/optee_os/lib/libutee/tee_api.c:324
    3e74:	d2800042 	mov	x2, #0x2                   	// #2
    3e78:	17fffd09 	b	329c <utee_cache_operation>

0000000000003e7c <TEE_Panic>:
TEE_Panic():
/home/lagadanu/Desktop/qemu/optee_os/lib/libutee/tee_api_panic.c:12
    3e7c:	2a0003e0 	mov	w0, w0
    3e80:	17fffc32 	b	2f48 <utee_panic>

0000000000003e84 <__mpa_set_unused_digits_to_zero>:
__mpa_set_unused_digits_to_zero():
/home/lagadanu/Desktop/qemu/optee_os/lib/libmpa/mpa_misc.c:37
    3e84:	b9400401 	ldr	w1, [x0,#4]
/home/lagadanu/Desktop/qemu/optee_os/lib/libmpa/mpa_misc.c:38
    3e88:	b8408402 	ldr	w2, [x0],#8
/home/lagadanu/Desktop/qemu/optee_os/lib/libmpa/mpa_misc.c:37
    3e8c:	7100003f 	cmp	w1, #0x0
    3e90:	5a81a423 	cneg	w3, w1, lt
/home/lagadanu/Desktop/qemu/optee_os/lib/libmpa/mpa_misc.c:38
    3e94:	52800001 	mov	w1, #0x0                   	// #0
    3e98:	4b030042 	sub	w2, w2, w3
    3e9c:	8b23c800 	add	x0, x0, w3, sxtw #2
    3ea0:	d37e7442 	ubfiz	x2, x2, #2, #30
    3ea4:	17fff592 	b	14ec <memset>

0000000000003ea8 <mpa_wipe>:
mpa_wipe():
/home/lagadanu/Desktop/qemu/optee_os/lib/libmpa/mpa_misc.c:55
    3ea8:	a9be7bfd 	stp	x29, x30, [sp,#-32]!
/home/lagadanu/Desktop/qemu/optee_os/lib/libmpa/mpa_misc.c:56
    3eac:	52800001 	mov	w1, #0x0                   	// #0
/home/lagadanu/Desktop/qemu/optee_os/lib/libmpa/mpa_misc.c:55
    3eb0:	910003fd 	mov	x29, sp
    3eb4:	f9000bf3 	str	x19, [sp,#16]
    3eb8:	aa0003f3 	mov	x19, x0
/home/lagadanu/Desktop/qemu/optee_os/lib/libmpa/mpa_misc.c:56
    3ebc:	b8408402 	ldr	w2, [x0],#8
    3ec0:	d37e7442 	ubfiz	x2, x2, #2, #30
    3ec4:	97fff58a 	bl	14ec <memset>
/home/lagadanu/Desktop/qemu/optee_os/lib/libmpa/mpa_misc.c:57
    3ec8:	b900067f 	str	wzr, [x19,#4]
/home/lagadanu/Desktop/qemu/optee_os/lib/libmpa/mpa_misc.c:58
    3ecc:	f9400bf3 	ldr	x19, [sp,#16]
    3ed0:	a8c27bfd 	ldp	x29, x30, [sp],#32
    3ed4:	d65f03c0 	ret

0000000000003ed8 <mpa_copy>:
mpa_copy():
/home/lagadanu/Desktop/qemu/optee_os/lib/libmpa/mpa_misc.c:71
    3ed8:	eb01001f 	cmp	x0, x1
    3edc:	54000260 	b.eq	3f28 <mpa_copy+0x50>
/home/lagadanu/Desktop/qemu/optee_os/lib/libmpa/mpa_misc.c:70
    3ee0:	a9be7bfd 	stp	x29, x30, [sp,#-32]!
    3ee4:	910003fd 	mov	x29, sp
    3ee8:	a90153f3 	stp	x19, x20, [sp,#16]
    3eec:	aa0103f3 	mov	x19, x1
    3ef0:	aa0003f4 	mov	x20, x0
/home/lagadanu/Desktop/qemu/optee_os/lib/libmpa/mpa_misc.c:74
    3ef4:	91002021 	add	x1, x1, #0x8
    3ef8:	91002000 	add	x0, x0, #0x8
    3efc:	b9400662 	ldr	w2, [x19,#4]
    3f00:	7100005f 	cmp	w2, #0x0
    3f04:	5a82a442 	cneg	w2, w2, lt
    3f08:	531e7442 	lsl	w2, w2, #2
    3f0c:	93407c42 	sxtw	x2, w2
    3f10:	97fff56f 	bl	14cc <memcpy>
/home/lagadanu/Desktop/qemu/optee_os/lib/libmpa/mpa_misc.c:75
    3f14:	b9400660 	ldr	w0, [x19,#4]
    3f18:	b9000680 	str	w0, [x20,#4]
/home/lagadanu/Desktop/qemu/optee_os/lib/libmpa/mpa_misc.c:76
    3f1c:	a94153f3 	ldp	x19, x20, [sp,#16]
    3f20:	a8c27bfd 	ldp	x29, x30, [sp],#32
    3f24:	d65f03c0 	ret
    3f28:	d65f03c0 	ret

0000000000003f2c <mpa_abs>:
mpa_abs():
/home/lagadanu/Desktop/qemu/optee_os/lib/libmpa/mpa_misc.c:84
    3f2c:	a9be7bfd 	stp	x29, x30, [sp,#-32]!
    3f30:	910003fd 	mov	x29, sp
    3f34:	f9000bf3 	str	x19, [sp,#16]
    3f38:	aa0003f3 	mov	x19, x0
/home/lagadanu/Desktop/qemu/optee_os/lib/libmpa/mpa_misc.c:85
    3f3c:	97ffffe7 	bl	3ed8 <mpa_copy>
/home/lagadanu/Desktop/qemu/optee_os/lib/libmpa/mpa_misc.c:86
    3f40:	b9400660 	ldr	w0, [x19,#4]
    3f44:	36f80060 	tbz	w0, #31, 3f50 <mpa_abs+0x24>
/home/lagadanu/Desktop/qemu/optee_os/lib/libmpa/mpa_misc.c:86 (discriminator 1)
    3f48:	4b0003e0 	neg	w0, w0
    3f4c:	b9000660 	str	w0, [x19,#4]
/home/lagadanu/Desktop/qemu/optee_os/lib/libmpa/mpa_misc.c:87
    3f50:	f9400bf3 	ldr	x19, [sp,#16]
    3f54:	a8c27bfd 	ldp	x29, x30, [sp],#32
    3f58:	d65f03c0 	ret

0000000000003f5c <mpa_highest_bit_index>:
mpa_highest_bit_index():
/home/lagadanu/Desktop/qemu/optee_os/lib/libmpa/mpa_misc.c:101
    3f5c:	b9400401 	ldr	w1, [x0,#4]
    3f60:	7100003f 	cmp	w1, #0x0
    3f64:	540001a0 	b.eq	3f98 <mpa_highest_bit_index+0x3c>
/home/lagadanu/Desktop/qemu/optee_os/lib/libmpa/mpa_misc.c:104
    3f68:	5a81a421 	cneg	w1, w1, lt
    3f6c:	51000421 	sub	w1, w1, #0x1
    3f70:	8b21c800 	add	x0, x0, w1, sxtw #2
    3f74:	b9400802 	ldr	w2, [x0,#8]
/home/lagadanu/Desktop/qemu/optee_os/lib/libmpa/mpa_misc.c:106
    3f78:	52800000 	mov	w0, #0x0                   	// #0
/home/lagadanu/Desktop/qemu/optee_os/lib/libmpa/mpa_misc.c:107
    3f7c:	53017c42 	lsr	w2, w2, #1
/home/lagadanu/Desktop/qemu/optee_os/lib/libmpa/mpa_misc.c:108
    3f80:	34000082 	cbz	w2, 3f90 <mpa_highest_bit_index+0x34>
/home/lagadanu/Desktop/qemu/optee_os/lib/libmpa/mpa_misc.c:106 (discriminator 2)
    3f84:	11000400 	add	w0, w0, #0x1
    3f88:	7100801f 	cmp	w0, #0x20
    3f8c:	54ffff81 	b.ne	3f7c <mpa_highest_bit_index+0x20>
/home/lagadanu/Desktop/qemu/optee_os/lib/libmpa/mpa_misc.c:111
    3f90:	0b011400 	add	w0, w0, w1, lsl #5
    3f94:	d65f03c0 	ret
/home/lagadanu/Desktop/qemu/optee_os/lib/libmpa/mpa_misc.c:102
    3f98:	12800000 	mov	w0, #0xffffffff            	// #-1
/home/lagadanu/Desktop/qemu/optee_os/lib/libmpa/mpa_misc.c:112
    3f9c:	d65f03c0 	ret

0000000000003fa0 <mpa_get_bit>:
mpa_get_bit():
/home/lagadanu/Desktop/qemu/optee_os/lib/libmpa/mpa_misc.c:131
    3fa0:	b9400402 	ldr	w2, [x0,#4]
/home/lagadanu/Desktop/qemu/optee_os/lib/libmpa/mpa_misc.c:128
    3fa4:	53057c23 	lsr	w3, w1, #5
/home/lagadanu/Desktop/qemu/optee_os/lib/libmpa/mpa_misc.c:131
    3fa8:	7100005f 	cmp	w2, #0x0
    3fac:	5a82a442 	cneg	w2, w2, lt
    3fb0:	6b02007f 	cmp	w3, w2
    3fb4:	54000148 	b.hi	3fdc <mpa_get_bit+0x3c>
/home/lagadanu/Desktop/qemu/optee_os/lib/libmpa/mpa_misc.c:134
    3fb8:	d37e6863 	ubfiz	x3, x3, #2, #27
/home/lagadanu/Desktop/qemu/optee_os/lib/libmpa/mpa_misc.c:133
    3fbc:	12001021 	and	w1, w1, #0x1f
/home/lagadanu/Desktop/qemu/optee_os/lib/libmpa/mpa_misc.c:134
    3fc0:	8b030000 	add	x0, x0, x3
/home/lagadanu/Desktop/qemu/optee_os/lib/libmpa/mpa_misc.c:133
    3fc4:	d2800022 	mov	x2, #0x1                   	// #1
    3fc8:	9ac12041 	lsl	x1, x2, x1
/home/lagadanu/Desktop/qemu/optee_os/lib/libmpa/mpa_misc.c:134
    3fcc:	b9400800 	ldr	w0, [x0,#8]
    3fd0:	ea00003f 	tst	x1, x0
    3fd4:	1a9f07e0 	cset	w0, ne
    3fd8:	d65f03c0 	ret
    3fdc:	52800000 	mov	w0, #0x0                   	// #0
/home/lagadanu/Desktop/qemu/optee_os/lib/libmpa/mpa_misc.c:135
    3fe0:	d65f03c0 	ret

0000000000003fe4 <mpa_can_hold>:
mpa_can_hold():
/home/lagadanu/Desktop/qemu/optee_os/lib/libmpa/mpa_misc.c:145
    3fe4:	b9400421 	ldr	w1, [x1,#4]
    3fe8:	b9400000 	ldr	w0, [x0]
    3fec:	7100003f 	cmp	w1, #0x0
    3ff0:	5a81a421 	cneg	w1, w1, lt
    3ff4:	6b01001f 	cmp	w0, w1
/home/lagadanu/Desktop/qemu/optee_os/lib/libmpa/mpa_misc.c:146
    3ff8:	1a9f37e0 	cset	w0, cs
    3ffc:	d65f03c0 	ret

0000000000004000 <mpa_parity>:
mpa_parity():
/home/lagadanu/Desktop/qemu/optee_os/lib/libmpa/mpa_misc.c:156
    4000:	b9400800 	ldr	w0, [x0,#8]
/home/lagadanu/Desktop/qemu/optee_os/lib/libmpa/mpa_misc.c:157
    4004:	12000000 	and	w0, w0, #0x1
    4008:	d65f03c0 	ret

000000000000400c <mpa_constant_one>:
mpa_constant_one():
/home/lagadanu/Desktop/qemu/optee_os/lib/libmpa/mpa_misc.c:167
    400c:	f0000000 	adrp	x0, 7000 <mpa_init_static_fmm_context+0x38>
    4010:	9139a000 	add	x0, x0, #0xe68
    4014:	d65f03c0 	ret

0000000000004018 <__mpa_montgomery_mul_add>:
__mpa_montgomery_mul_add():
/home/lagadanu/Desktop/qemu/optee_os/lib/libmpa/mpa_montgomery.c:34
    4018:	34000222 	cbz	w2, 405c <__mpa_montgomery_mul_add+0x44>
/home/lagadanu/Desktop/qemu/optee_os/lib/libmpa/mpa_montgomery.c:36
    401c:	91002007 	add	x7, x0, #0x8
    4020:	d2800025 	mov	x5, #0x1                   	// #1
/home/lagadanu/Desktop/qemu/optee_os/lib/libmpa/mpa_montgomery.c:37
    4024:	aa0703e3 	mov	x3, x7
/home/lagadanu/Desktop/qemu/optee_os/lib/libmpa/mpa_montgomery.c:38
    4028:	52800004 	mov	w4, #0x0                   	// #0
/home/lagadanu/Desktop/qemu/optee_os/lib/libmpa/mpa_montgomery.c:39
    402c:	b9400428 	ldr	w8, [x1,#4]
    4030:	510004a6 	sub	w6, w5, #0x1
    4034:	910004a5 	add	x5, x5, #0x1
    4038:	6b0800df 	cmp	w6, w8
    403c:	5400012b 	b.lt	4060 <__mpa_montgomery_mul_add+0x48>
/home/lagadanu/Desktop/qemu/optee_os/lib/libmpa/mpa_montgomery.c:46
    4040:	350001e4 	cbnz	w4, 407c <__mpa_montgomery_mul_add+0x64>
/home/lagadanu/Desktop/qemu/optee_os/lib/libmpa/mpa_montgomery.c:51
    4044:	cb070063 	sub	x3, x3, x7
/home/lagadanu/Desktop/qemu/optee_os/lib/libmpa/mpa_montgomery.c:52
    4048:	b9400401 	ldr	w1, [x0,#4]
/home/lagadanu/Desktop/qemu/optee_os/lib/libmpa/mpa_montgomery.c:51
    404c:	9342fc63 	asr	x3, x3, #2
/home/lagadanu/Desktop/qemu/optee_os/lib/libmpa/mpa_montgomery.c:52
    4050:	6b01007f 	cmp	w3, w1
    4054:	5400004d 	b.le	405c <__mpa_montgomery_mul_add+0x44>
/home/lagadanu/Desktop/qemu/optee_os/lib/libmpa/mpa_montgomery.c:53
    4058:	b9000403 	str	w3, [x0,#4]
    405c:	d65f03c0 	ret
/home/lagadanu/Desktop/qemu/optee_os/lib/libmpa/mpa_montgomery.c:40
    4060:	b9400066 	ldr	w6, [x3]
    4064:	8b2440c4 	add	x4, x6, w4, uxtw
    4068:	b8657826 	ldr	w6, [x1,x5,lsl #2]
    406c:	9ba210c4 	umaddl	x4, w6, w2, x4
/home/lagadanu/Desktop/qemu/optee_os/lib/libmpa/mpa_montgomery.c:43
    4070:	b8004464 	str	w4, [x3],#4
/home/lagadanu/Desktop/qemu/optee_os/lib/libmpa/mpa_montgomery.c:44
    4074:	d360fc84 	lsr	x4, x4, #32
    4078:	17ffffed 	b	402c <__mpa_montgomery_mul_add+0x14>
/home/lagadanu/Desktop/qemu/optee_os/lib/libmpa/mpa_montgomery.c:47
    407c:	b9400061 	ldr	w1, [x3]
    4080:	8b244024 	add	x4, x1, w4, uxtw
/home/lagadanu/Desktop/qemu/optee_os/lib/libmpa/mpa_montgomery.c:48
    4084:	b8004464 	str	w4, [x3],#4
/home/lagadanu/Desktop/qemu/optee_os/lib/libmpa/mpa_montgomery.c:49
    4088:	d360fc84 	lsr	x4, x4, #32
    408c:	17ffffed 	b	4040 <__mpa_montgomery_mul_add+0x28>

0000000000004090 <__mpa_montgomery_sub_ack>:
__mpa_montgomery_sub_ack():
/home/lagadanu/Desktop/qemu/optee_os/lib/libmpa/mpa_montgomery.c:75
    4090:	91002002 	add	x2, x0, #0x8
/home/lagadanu/Desktop/qemu/optee_os/lib/libmpa/mpa_montgomery.c:78
    4094:	d2800026 	mov	x6, #0x1                   	// #1
/home/lagadanu/Desktop/qemu/optee_os/lib/libmpa/mpa_montgomery.c:76
    4098:	52800004 	mov	w4, #0x0                   	// #0
/home/lagadanu/Desktop/qemu/optee_os/lib/libmpa/mpa_montgomery.c:78
    409c:	b9400423 	ldr	w3, [x1,#4]
    40a0:	510004c5 	sub	w5, w6, #0x1
    40a4:	910004c6 	add	x6, x6, #0x1
    40a8:	6b05007f 	cmp	w3, w5
    40ac:	540000cc 	b.gt	40c4 <__mpa_montgomery_sub_ack+0x34>
/home/lagadanu/Desktop/qemu/optee_os/lib/libmpa/mpa_montgomery.c:87
    40b0:	350001a4 	cbnz	w4, 40e4 <__mpa_montgomery_sub_ack+0x54>
/home/lagadanu/Desktop/qemu/optee_os/lib/libmpa/mpa_montgomery.c:93
    40b4:	b9400401 	ldr	w1, [x0,#4]
    40b8:	6b0100bf 	cmp	w5, w1
    40bc:	5400026a 	b.ge	4108 <__mpa_montgomery_sub_ack+0x78>
    40c0:	d65f03c0 	ret
/home/lagadanu/Desktop/qemu/optee_os/lib/libmpa/mpa_montgomery.c:79
    40c4:	b8667825 	ldr	w5, [x1,x6,lsl #2]
    40c8:	b9400043 	ldr	w3, [x2]
    40cc:	cb050063 	sub	x3, x3, x5
    40d0:	cb244063 	sub	x3, x3, w4, uxtw
/home/lagadanu/Desktop/qemu/optee_os/lib/libmpa/mpa_montgomery.c:81
    40d4:	b8004443 	str	w3, [x2],#4
/home/lagadanu/Desktop/qemu/optee_os/lib/libmpa/mpa_montgomery.c:82
    40d8:	d360fc63 	lsr	x3, x3, #32
    40dc:	4b0303e4 	neg	w4, w3
    40e0:	17ffffef 	b	409c <__mpa_montgomery_sub_ack+0xc>
/home/lagadanu/Desktop/qemu/optee_os/lib/libmpa/mpa_montgomery.c:88
    40e4:	b9400041 	ldr	w1, [x2]
/home/lagadanu/Desktop/qemu/optee_os/lib/libmpa/mpa_montgomery.c:91
    40e8:	110004a5 	add	w5, w5, #0x1
/home/lagadanu/Desktop/qemu/optee_os/lib/libmpa/mpa_montgomery.c:88
    40ec:	cb244023 	sub	x3, x1, w4, uxtw
/home/lagadanu/Desktop/qemu/optee_os/lib/libmpa/mpa_montgomery.c:89
    40f0:	b8004443 	str	w3, [x2],#4
/home/lagadanu/Desktop/qemu/optee_os/lib/libmpa/mpa_montgomery.c:90
    40f4:	d360fc63 	lsr	x3, x3, #32
    40f8:	4b0303e4 	neg	w4, w3
    40fc:	17ffffed 	b	40b0 <__mpa_montgomery_sub_ack+0x20>
/home/lagadanu/Desktop/qemu/optee_os/lib/libmpa/mpa_montgomery.c:96
    4100:	51000421 	sub	w1, w1, #0x1
    4104:	b9000401 	str	w1, [x0,#4]
/home/lagadanu/Desktop/qemu/optee_os/lib/libmpa/mpa_montgomery.c:95
    4108:	b9400401 	ldr	w1, [x0,#4]
    410c:	7100003f 	cmp	w1, #0x0
    4110:	5400006d 	b.le	411c <__mpa_montgomery_sub_ack+0x8c>
/home/lagadanu/Desktop/qemu/optee_os/lib/libmpa/mpa_montgomery.c:95 (discriminator 1)
    4114:	b85fcc43 	ldr	w3, [x2,#-4]!
    4118:	34ffff43 	cbz	w3, 4100 <__mpa_montgomery_sub_ack+0x70>
    411c:	d65f03c0 	ret

0000000000004120 <__mpa_montgomery_mul>:
__mpa_montgomery_mul():
/home/lagadanu/Desktop/qemu/optee_os/lib/libmpa/mpa_montgomery.c:115
    4120:	a9bb7bfd 	stp	x29, x30, [sp,#-80]!
    4124:	910003fd 	mov	x29, sp
    4128:	a90363f7 	stp	x23, x24, [sp,#48]
    412c:	aa0103f7 	mov	x23, x1
    4130:	a9046bf9 	stp	x25, x26, [sp,#64]
    4134:	910022f9 	add	x25, x23, #0x8
/home/lagadanu/Desktop/qemu/optee_os/lib/libmpa/mpa_montgomery.c:122
    4138:	52800018 	mov	w24, #0x0                   	// #0
/home/lagadanu/Desktop/qemu/optee_os/lib/libmpa/mpa_montgomery.c:115
    413c:	a90153f3 	stp	x19, x20, [sp,#16]
    4140:	a9025bf5 	stp	x21, x22, [sp,#32]
    4144:	aa0003f3 	mov	x19, x0
    4148:	aa0203f6 	mov	x22, x2
    414c:	aa0303f4 	mov	x20, x3
    4150:	2a0403f5 	mov	w21, w4
/home/lagadanu/Desktop/qemu/optee_os/lib/libmpa/mpa_montgomery.c:120
    4154:	97ffff55 	bl	3ea8 <mpa_wipe>
/home/lagadanu/Desktop/qemu/optee_os/lib/libmpa/mpa_montgomery.c:122 (discriminator 1)
    4158:	b9400680 	ldr	w0, [x20,#4]
    415c:	6b00031f 	cmp	w24, w0
    4160:	540001ab 	b.lt	4194 <__mpa_montgomery_mul+0x74>
/home/lagadanu/Desktop/qemu/optee_os/lib/libmpa/mpa_montgomery.c:139
    4164:	aa1403e1 	mov	x1, x20
    4168:	aa1303e0 	mov	x0, x19
    416c:	94000aad 	bl	6c20 <__mpa_abs_cmp>
    4170:	37f805e0 	tbnz	w0, #31, 422c <__mpa_montgomery_mul+0x10c>
/home/lagadanu/Desktop/qemu/optee_os/lib/libmpa/mpa_montgomery.c:140
    4174:	aa1403e1 	mov	x1, x20
    4178:	aa1303e0 	mov	x0, x19
/home/lagadanu/Desktop/qemu/optee_os/lib/libmpa/mpa_montgomery.c:141
    417c:	a9425bf5 	ldp	x21, x22, [sp,#32]
    4180:	a94153f3 	ldp	x19, x20, [sp,#16]
    4184:	a94363f7 	ldp	x23, x24, [sp,#48]
    4188:	a9446bf9 	ldp	x25, x26, [sp,#64]
    418c:	a8c57bfd 	ldp	x29, x30, [sp],#80
/home/lagadanu/Desktop/qemu/optee_os/lib/libmpa/mpa_montgomery.c:140
    4190:	17ffffc0 	b	4090 <__mpa_montgomery_sub_ack>
/home/lagadanu/Desktop/qemu/optee_os/lib/libmpa/mpa_montgomery.c:124
    4194:	b94006e1 	ldr	w1, [x23,#4]
    4198:	52800002 	mov	w2, #0x0                   	// #0
/home/lagadanu/Desktop/qemu/optee_os/lib/libmpa/mpa_montgomery.c:123
    419c:	b9400a69 	ldr	w9, [x19,#8]
/home/lagadanu/Desktop/qemu/optee_os/lib/libmpa/mpa_montgomery.c:124
    41a0:	7100003f 	cmp	w1, #0x0
    41a4:	5a81a421 	cneg	w1, w1, lt
    41a8:	6b01031f 	cmp	w24, w1
    41ac:	5400004a 	b.ge	41b4 <__mpa_montgomery_mul+0x94>
/home/lagadanu/Desktop/qemu/optee_os/lib/libmpa/mpa_montgomery.c:124 (discriminator 1)
    41b0:	b9400322 	ldr	w2, [x25]
/home/lagadanu/Desktop/qemu/optee_os/lib/libmpa/mpa_montgomery.c:125
    41b4:	b94006c1 	ldr	w1, [x22,#4]
    41b8:	52800000 	mov	w0, #0x0                   	// #0
    41bc:	34000041 	cbz	w1, 41c4 <__mpa_montgomery_mul+0xa4>
/home/lagadanu/Desktop/qemu/optee_os/lib/libmpa/mpa_montgomery.c:125 (discriminator 1)
    41c0:	b9400ac0 	ldr	w0, [x22,#8]
/home/lagadanu/Desktop/qemu/optee_os/lib/libmpa/mpa_montgomery.c:123
    41c4:	1b002440 	madd	w0, w2, w0, w9
/home/lagadanu/Desktop/qemu/optee_os/lib/libmpa/mpa_montgomery.c:127
    41c8:	aa1603e1 	mov	x1, x22
/home/lagadanu/Desktop/qemu/optee_os/lib/libmpa/mpa_montgomery.c:123
    41cc:	1b157c1a 	mul	w26, w0, w21
/home/lagadanu/Desktop/qemu/optee_os/lib/libmpa/mpa_montgomery.c:127
    41d0:	aa1303e0 	mov	x0, x19
    41d4:	97ffff91 	bl	4018 <__mpa_montgomery_mul_add>
/home/lagadanu/Desktop/qemu/optee_os/lib/libmpa/mpa_montgomery.c:129
    41d8:	2a1a03e2 	mov	w2, w26
    41dc:	aa1403e1 	mov	x1, x20
    41e0:	aa1303e0 	mov	x0, x19
    41e4:	97ffff8d 	bl	4018 <__mpa_montgomery_mul_add>
/home/lagadanu/Desktop/qemu/optee_os/lib/libmpa/mpa_montgomery.c:132
    41e8:	b9400660 	ldr	w0, [x19,#4]
    41ec:	91002261 	add	x1, x19, #0x8
/home/lagadanu/Desktop/qemu/optee_os/lib/libmpa/mpa_montgomery.c:133
    41f0:	52800002 	mov	w2, #0x0                   	// #0
/home/lagadanu/Desktop/qemu/optee_os/lib/libmpa/mpa_montgomery.c:132
    41f4:	51000400 	sub	w0, w0, #0x1
    41f8:	b9000660 	str	w0, [x19,#4]
    41fc:	91001021 	add	x1, x1, #0x4
/home/lagadanu/Desktop/qemu/optee_os/lib/libmpa/mpa_montgomery.c:133 (discriminator 1)
    4200:	6b00005f 	cmp	w2, w0
    4204:	540000cb 	b.lt	421c <__mpa_montgomery_mul+0xfc>
/home/lagadanu/Desktop/qemu/optee_os/lib/libmpa/mpa_montgomery.c:135 (discriminator 2)
    4208:	8b20ca60 	add	x0, x19, w0, sxtw #2
/home/lagadanu/Desktop/qemu/optee_os/lib/libmpa/mpa_montgomery.c:122 (discriminator 2)
    420c:	11000718 	add	w24, w24, #0x1
    4210:	91001339 	add	x25, x25, #0x4
/home/lagadanu/Desktop/qemu/optee_os/lib/libmpa/mpa_montgomery.c:135 (discriminator 2)
    4214:	b900081f 	str	wzr, [x0,#8]
    4218:	17ffffd0 	b	4158 <__mpa_montgomery_mul+0x38>
/home/lagadanu/Desktop/qemu/optee_os/lib/libmpa/mpa_montgomery.c:134 (discriminator 3)
    421c:	b9400023 	ldr	w3, [x1]
    4220:	11000442 	add	w2, w2, #0x1
    4224:	b81fc023 	stur	w3, [x1,#-4]
    4228:	17fffff5 	b	41fc <__mpa_montgomery_mul+0xdc>
/home/lagadanu/Desktop/qemu/optee_os/lib/libmpa/mpa_montgomery.c:141
    422c:	a94153f3 	ldp	x19, x20, [sp,#16]
    4230:	a9425bf5 	ldp	x21, x22, [sp,#32]
    4234:	a94363f7 	ldp	x23, x24, [sp,#48]
    4238:	a9446bf9 	ldp	x25, x26, [sp,#64]
    423c:	a8c57bfd 	ldp	x29, x30, [sp],#80
    4240:	d65f03c0 	ret

0000000000004244 <mpa_compute_fmm_context>:
mpa_compute_fmm_context():
/home/lagadanu/Desktop/qemu/optee_os/lib/libmpa/mpa_montgomery.c:157
    4244:	a9ba7bfd 	stp	x29, x30, [sp,#-96]!
    4248:	910003fd 	mov	x29, sp
    424c:	a90363f7 	stp	x23, x24, [sp,#48]
    4250:	aa0203f8 	mov	x24, x2
/home/lagadanu/Desktop/qemu/optee_os/lib/libmpa/mpa_montgomery.c:171
    4254:	b9400402 	ldr	w2, [x0,#4]
/home/lagadanu/Desktop/qemu/optee_os/lib/libmpa/mpa_montgomery.c:157
    4258:	aa0303f7 	mov	x23, x3
    425c:	a90153f3 	stp	x19, x20, [sp,#16]
    4260:	aa0103f4 	mov	x20, x1
/home/lagadanu/Desktop/qemu/optee_os/lib/libmpa/mpa_montgomery.c:171
    4264:	7100005f 	cmp	w2, #0x0
/home/lagadanu/Desktop/qemu/optee_os/lib/libmpa/mpa_montgomery.c:157
    4268:	aa0403f3 	mov	x19, x4
    426c:	a9025bf5 	stp	x21, x22, [sp,#32]
/home/lagadanu/Desktop/qemu/optee_os/lib/libmpa/mpa_montgomery.c:172
    4270:	52800021 	mov	w1, #0x1                   	// #1
/home/lagadanu/Desktop/qemu/optee_os/lib/libmpa/mpa_montgomery.c:171
    4274:	5a82a455 	cneg	w21, w2, lt
/home/lagadanu/Desktop/qemu/optee_os/lib/libmpa/mpa_montgomery.c:157
    4278:	aa0003f6 	mov	x22, x0
/home/lagadanu/Desktop/qemu/optee_os/lib/libmpa/mpa_montgomery.c:172
    427c:	aa1403e0 	mov	x0, x20
    4280:	94000175 	bl	4854 <mpa_set_word>
/home/lagadanu/Desktop/qemu/optee_os/lib/libmpa/mpa_montgomery.c:173
    4284:	531b6aa2 	lsl	w2, w21, #5
    4288:	aa1403e1 	mov	x1, x20
    428c:	aa1403e0 	mov	x0, x20
    4290:	94000772 	bl	6058 <mpa_shift_left>
/home/lagadanu/Desktop/qemu/optee_os/lib/libmpa/mpa_montgomery.c:174
    4294:	aa1603e2 	mov	x2, x22
    4298:	aa1403e1 	mov	x1, x20
    429c:	aa1403e0 	mov	x0, x20
    42a0:	aa1303e3 	mov	x3, x19
    42a4:	94000d32 	bl	776c <mpa_mod>
/home/lagadanu/Desktop/qemu/optee_os/lib/libmpa/mpa_montgomery.c:180
    42a8:	52800035 	mov	w21, #0x1                   	// #1
/home/lagadanu/Desktop/qemu/optee_os/lib/libmpa/mpa_montgomery.c:177
    42ac:	aa1603e3 	mov	x3, x22
    42b0:	aa1403e2 	mov	x2, x20
    42b4:	aa1303e4 	mov	x4, x19
    42b8:	aa1403e1 	mov	x1, x20
    42bc:	aa1803e0 	mov	x0, x24
    42c0:	94000d73 	bl	788c <mpa_mul_mod>
/home/lagadanu/Desktop/qemu/optee_os/lib/libmpa/mpa_montgomery.c:182
    42c4:	b9400ac0 	ldr	w0, [x22,#8]
/home/lagadanu/Desktop/qemu/optee_os/lib/libmpa/mpa_montgomery.c:184
    42c8:	910103b6 	add	x22, x29, #0x40
    42cc:	aa1303e1 	mov	x1, x19
/home/lagadanu/Desktop/qemu/optee_os/lib/libmpa/mpa_montgomery.c:181
    42d0:	290a57b5 	stp	w21, w21, [x29,#80]
/home/lagadanu/Desktop/qemu/optee_os/lib/libmpa/mpa_montgomery.c:182
    42d4:	b9005ba0 	str	w0, [x29,#88]
/home/lagadanu/Desktop/qemu/optee_os/lib/libmpa/mpa_montgomery.c:185
    42d8:	910123b8 	add	x24, x29, #0x48
/home/lagadanu/Desktop/qemu/optee_os/lib/libmpa/mpa_montgomery.c:184
    42dc:	aa1603e0 	mov	x0, x22
    42e0:	940005dd 	bl	5a54 <mpa_alloc_static_temp_var>
/home/lagadanu/Desktop/qemu/optee_os/lib/libmpa/mpa_montgomery.c:185
    42e4:	aa1303e1 	mov	x1, x19
    42e8:	aa1803e0 	mov	x0, x24
    42ec:	940005da 	bl	5a54 <mpa_alloc_static_temp_var>
/home/lagadanu/Desktop/qemu/optee_os/lib/libmpa/mpa_montgomery.c:187
    42f0:	b0000034 	adrp	x20, 9000 <__func__.3181+0x410>
    42f4:	a94403a1 	ldp	x1, x0, [x29,#64]
    42f8:	aa1303e5 	mov	x5, x19
    42fc:	f942e294 	ldr	x20, [x20,#1472]
    4300:	910143a3 	add	x3, x29, #0x50
    4304:	d2800002 	mov	x2, #0x0                   	// #0
    4308:	aa1403e4 	mov	x4, x20
    430c:	94000544 	bl	581c <mpa_extended_gcd>
/home/lagadanu/Desktop/qemu/optee_os/lib/libmpa/mpa_montgomery.c:189
    4310:	f94027a0 	ldr	x0, [x29,#72]
    4314:	2a1503e1 	mov	w1, w21
    4318:	94000a95 	bl	6d6c <mpa_cmp_short>
    431c:	2a0003f5 	mov	w21, w0
/home/lagadanu/Desktop/qemu/optee_os/lib/libmpa/mpa_montgomery.c:191
    4320:	35000160 	cbnz	w0, 434c <mpa_compute_fmm_context+0x108>
/home/lagadanu/Desktop/qemu/optee_os/lib/libmpa/mpa_montgomery.c:207
    4324:	f94023a1 	ldr	x1, [x29,#64]
    4328:	b9400420 	ldr	w0, [x1,#4]
    432c:	37f800a0 	tbnz	w0, #31, 4340 <mpa_compute_fmm_context+0xfc>
/home/lagadanu/Desktop/qemu/optee_os/lib/libmpa/mpa_montgomery.c:208
    4330:	aa1303e3 	mov	x3, x19
    4334:	aa1403e2 	mov	x2, x20
    4338:	aa0103e0 	mov	x0, x1
    433c:	9400092a 	bl	67e4 <mpa_sub>
/home/lagadanu/Desktop/qemu/optee_os/lib/libmpa/mpa_montgomery.c:212
    4340:	f94023a0 	ldr	x0, [x29,#64]
    4344:	b9400800 	ldr	w0, [x0,#8]
    4348:	b90002e0 	str	w0, [x23]
/home/lagadanu/Desktop/qemu/optee_os/lib/libmpa/mpa_montgomery.c:216
    434c:	aa1303e1 	mov	x1, x19
    4350:	aa1803e0 	mov	x0, x24
    4354:	940005c4 	bl	5a64 <mpa_free_static_temp_var>
/home/lagadanu/Desktop/qemu/optee_os/lib/libmpa/mpa_montgomery.c:217
    4358:	aa1303e1 	mov	x1, x19
    435c:	aa1603e0 	mov	x0, x22
    4360:	940005c1 	bl	5a64 <mpa_free_static_temp_var>
/home/lagadanu/Desktop/qemu/optee_os/lib/libmpa/mpa_montgomery.c:219
    4364:	710002bf 	cmp	w21, #0x0
/home/lagadanu/Desktop/qemu/optee_os/lib/libmpa/mpa_montgomery.c:222
    4368:	a94153f3 	ldp	x19, x20, [sp,#16]
    436c:	5a9f03e0 	csetm	w0, ne
    4370:	a9425bf5 	ldp	x21, x22, [sp,#32]
    4374:	a94363f7 	ldp	x23, x24, [sp,#48]
    4378:	a8c67bfd 	ldp	x29, x30, [sp],#96
    437c:	d65f03c0 	ret

0000000000004380 <mpa_montgomery_mul>:
mpa_montgomery_mul():
/home/lagadanu/Desktop/qemu/optee_os/lib/libmpa/mpa_montgomery.c:235
    4380:	a9ba7bfd 	stp	x29, x30, [sp,#-96]!
    4384:	910003fd 	mov	x29, sp
    4388:	a90153f3 	stp	x19, x20, [sp,#16]
/home/lagadanu/Desktop/qemu/optee_os/lib/libmpa/mpa_montgomery.c:238
    438c:	910163b3 	add	x19, x29, #0x58
/home/lagadanu/Desktop/qemu/optee_os/lib/libmpa/mpa_montgomery.c:235
    4390:	aa0503f4 	mov	x20, x5
    4394:	a9025bf5 	stp	x21, x22, [sp,#32]
    4398:	a90363f7 	stp	x23, x24, [sp,#48]
    439c:	aa0003f5 	mov	x21, x0
    43a0:	f90023f9 	str	x25, [sp,#64]
    43a4:	aa0103f6 	mov	x22, x1
    43a8:	aa0203f7 	mov	x23, x2
/home/lagadanu/Desktop/qemu/optee_os/lib/libmpa/mpa_montgomery.c:238
    43ac:	aa0503e1 	mov	x1, x5
/home/lagadanu/Desktop/qemu/optee_os/lib/libmpa/mpa_montgomery.c:235
    43b0:	aa0303f8 	mov	x24, x3
    43b4:	2a0403f9 	mov	w25, w4
/home/lagadanu/Desktop/qemu/optee_os/lib/libmpa/mpa_montgomery.c:238
    43b8:	aa1303e0 	mov	x0, x19
    43bc:	940005a6 	bl	5a54 <mpa_alloc_static_temp_var>
/home/lagadanu/Desktop/qemu/optee_os/lib/libmpa/mpa_montgomery.c:240
    43c0:	f9402fa0 	ldr	x0, [x29,#88]
    43c4:	2a1903e4 	mov	w4, w25
    43c8:	aa1803e3 	mov	x3, x24
    43cc:	aa1703e2 	mov	x2, x23
    43d0:	aa1603e1 	mov	x1, x22
    43d4:	97ffff53 	bl	4120 <__mpa_montgomery_mul>
/home/lagadanu/Desktop/qemu/optee_os/lib/libmpa/mpa_montgomery.c:242
    43d8:	f9402fa1 	ldr	x1, [x29,#88]
    43dc:	aa1503e0 	mov	x0, x21
    43e0:	97fffebe 	bl	3ed8 <mpa_copy>
/home/lagadanu/Desktop/qemu/optee_os/lib/libmpa/mpa_montgomery.c:243
    43e4:	aa1403e1 	mov	x1, x20
    43e8:	aa1303e0 	mov	x0, x19
    43ec:	9400059e 	bl	5a64 <mpa_free_static_temp_var>
/home/lagadanu/Desktop/qemu/optee_os/lib/libmpa/mpa_montgomery.c:244
    43f0:	f94023f9 	ldr	x25, [sp,#64]
    43f4:	a94153f3 	ldp	x19, x20, [sp,#16]
    43f8:	a9425bf5 	ldp	x21, x22, [sp,#32]
    43fc:	a94363f7 	ldp	x23, x24, [sp,#48]
    4400:	a8c67bfd 	ldp	x29, x30, [sp],#96
    4404:	d65f03c0 	ret

0000000000004408 <mpa_is_prob_prime>:
mpa_is_prob_prime():
/home/lagadanu/Desktop/qemu/optee_os/lib/libmpa/mpa_primetest.c:67
    4408:	a9b37bfd 	stp	x29, x30, [sp,#-208]!
    440c:	910003fd 	mov	x29, sp
    4410:	a9025bf5 	stp	x21, x22, [sp,#32]
    4414:	2a0103f6 	mov	w22, w1
is_small_prime():
/home/lagadanu/Desktop/qemu/optee_os/lib/libmpa/mpa_primetest.c:114
    4418:	b9400401 	ldr	w1, [x0,#4]
mpa_is_prob_prime():
/home/lagadanu/Desktop/qemu/optee_os/lib/libmpa/mpa_primetest.c:67
    441c:	a90153f3 	stp	x19, x20, [sp,#16]
    4420:	aa0003f4 	mov	x20, x0
is_small_prime():
/home/lagadanu/Desktop/qemu/optee_os/lib/libmpa/mpa_primetest.c:114
    4424:	7100003f 	cmp	w1, #0x0
mpa_is_prob_prime():
/home/lagadanu/Desktop/qemu/optee_os/lib/libmpa/mpa_primetest.c:67
    4428:	a90363f7 	stp	x23, x24, [sp,#48]
    442c:	a9046bf9 	stp	x25, x26, [sp,#64]
is_small_prime():
/home/lagadanu/Desktop/qemu/optee_os/lib/libmpa/mpa_primetest.c:114
    4430:	5a81a421 	cneg	w1, w1, lt
mpa_is_prob_prime():
/home/lagadanu/Desktop/qemu/optee_os/lib/libmpa/mpa_primetest.c:67
    4434:	a90573fb 	stp	x27, x28, [sp,#80]
    4438:	aa0203f3 	mov	x19, x2
is_small_prime():
/home/lagadanu/Desktop/qemu/optee_os/lib/libmpa/mpa_primetest.c:114
    443c:	7100043f 	cmp	w1, #0x1
    4440:	5400018d 	b.le	4470 <mpa_is_prob_prime+0x68>
/home/lagadanu/Desktop/qemu/optee_os/lib/libmpa/mpa_primetest.c:115
    4444:	97fffeef 	bl	4000 <mpa_parity>
    4448:	35000d80 	cbnz	w0, 45f8 <mpa_is_prob_prime+0x1f0>
    444c:	52800019 	mov	w25, #0x0                   	// #0
mpa_is_prob_prime():
/home/lagadanu/Desktop/qemu/optee_os/lib/libmpa/mpa_primetest.c:85
    4450:	2a1903e0 	mov	w0, w25
    4454:	a94153f3 	ldp	x19, x20, [sp,#16]
    4458:	a9425bf5 	ldp	x21, x22, [sp,#32]
    445c:	a94363f7 	ldp	x23, x24, [sp,#48]
    4460:	a9446bf9 	ldp	x25, x26, [sp,#64]
    4464:	a94573fb 	ldp	x27, x28, [sp,#80]
    4468:	a8cd7bfd 	ldp	x29, x30, [sp],#208
    446c:	d65f03c0 	ret
is_small_prime():
/home/lagadanu/Desktop/qemu/optee_os/lib/libmpa/mpa_primetest.c:117
    4470:	940000fe 	bl	4868 <mpa_get_word>
    4474:	2a0003f5 	mov	w21, w0
/home/lagadanu/Desktop/qemu/optee_os/lib/libmpa/mpa_primetest.c:118
    4478:	32000000 	orr	w0, w0, #0x1
    447c:	7100041f 	cmp	w0, #0x1
    4480:	54fffe60 	b.eq	444c <mpa_is_prob_prime+0x44>
/home/lagadanu/Desktop/qemu/optee_os/lib/libmpa/mpa_primetest.c:121
    4484:	52800039 	mov	w25, #0x1                   	// #1
/home/lagadanu/Desktop/qemu/optee_os/lib/libmpa/mpa_primetest.c:120
    4488:	71000abf 	cmp	w21, #0x2
    448c:	54fffe20 	b.eq	4450 <mpa_is_prob_prime+0x48>
/home/lagadanu/Desktop/qemu/optee_os/lib/libmpa/mpa_primetest.c:122
    4490:	3607fdf5 	tbz	w21, #0, 444c <mpa_is_prob_prime+0x44>
/home/lagadanu/Desktop/qemu/optee_os/lib/libmpa/mpa_primetest.c:126
    4494:	529869e1 	mov	w1, #0xc34f                	// #49999
    4498:	aa1403e0 	mov	x0, x20
    449c:	94000a34 	bl	6d6c <mpa_cmp_short>
    44a0:	7100001f 	cmp	w0, #0x0
    44a4:	54000aac 	b.gt	45f8 <mpa_is_prob_prime+0x1f0>
/home/lagadanu/Desktop/qemu/optee_os/lib/libmpa/mpa_primetest.c:128
    44a8:	51000eb5 	sub	w21, w21, #0x3
check_table():
/home/lagadanu/Desktop/qemu/optee_os/lib/libmpa/mpa_primetest.c:95
    44ac:	f0000000 	adrp	x0, 7000 <mpa_init_static_fmm_context+0x38>
    44b0:	913a6000 	add	x0, x0, #0xe98
    44b4:	d3467ea1 	ubfx	x1, x21, #6, #26
    44b8:	d34116b5 	ubfx	x21, x21, #1, #5
    44bc:	b8617802 	ldr	w2, [x0,x1,lsl #2]
    44c0:	1ad52440 	lsr	w0, w2, w21
    44c4:	0a190019 	and	w25, w0, w25
    44c8:	17ffffe2 	b	4450 <mpa_is_prob_prime+0x48>
primality_test_miller_rabin():
/home/lagadanu/Desktop/qemu/optee_os/lib/libmpa/mpa_primetest.c:206
    44cc:	f94057a1 	ldr	x1, [x29,#168]
    44d0:	52800022 	mov	w2, #0x1                   	// #1
/home/lagadanu/Desktop/qemu/optee_os/lib/libmpa/mpa_primetest.c:207
    44d4:	11000718 	add	w24, w24, #0x1
/home/lagadanu/Desktop/qemu/optee_os/lib/libmpa/mpa_primetest.c:206
    44d8:	aa0103e0 	mov	x0, x1
    44dc:	94000743 	bl	61e8 <mpa_shift_right>
    44e0:	1400008e 	b	4718 <mpa_is_prob_prime+0x310>
/home/lagadanu/Desktop/qemu/optee_os/lib/libmpa/mpa_primetest.c:212
    44e4:	36f803b7 	tbz	w23, #31, 4558 <mpa_is_prob_prime+0x150>
/home/lagadanu/Desktop/qemu/optee_os/lib/libmpa/mpa_primetest.c:213
    44e8:	f9403ba0 	ldr	x0, [x29,#112]
/home/lagadanu/Desktop/qemu/optee_os/lib/libmpa/mpa_primetest.c:215
    44ec:	52800039 	mov	w25, #0x1                   	// #1
/home/lagadanu/Desktop/qemu/optee_os/lib/libmpa/mpa_primetest.c:213
    44f0:	91312000 	add	x0, x0, #0xc48
    44f4:	b8767801 	ldr	w1, [x0,x22,lsl #2]
    44f8:	f94053a0 	ldr	x0, [x29,#160]
    44fc:	940000ae 	bl	47b4 <mpa_set_S32>
/home/lagadanu/Desktop/qemu/optee_os/lib/libmpa/mpa_primetest.c:214
    4500:	f94053a1 	ldr	x1, [x29,#160]
    4504:	aa1403e0 	mov	x0, x20
    4508:	940009ff 	bl	6d04 <mpa_cmp>
    450c:	34000220 	cbz	w0, 4550 <mpa_is_prob_prime+0x148>
/home/lagadanu/Desktop/qemu/optee_os/lib/libmpa/mpa_primetest.c:232
    4510:	b9409fa6 	ldr	w6, [x29,#156]
    4514:	aa1303e7 	mov	x7, x19
    4518:	a94a0ba1 	ldp	x1, x2, [x29,#160]
    451c:	aa1403e3 	mov	x3, x20
    4520:	a94b93a0 	ldp	x0, x4, [x29,#184]
/home/lagadanu/Desktop/qemu/optee_os/lib/libmpa/mpa_primetest.c:233
    4524:	52800019 	mov	w25, #0x0                   	// #0
/home/lagadanu/Desktop/qemu/optee_os/lib/libmpa/mpa_primetest.c:232
    4528:	f94067a5 	ldr	x5, [x29,#200]
    452c:	94000a31 	bl	6df0 <mpa_exp_mod>
/home/lagadanu/Desktop/qemu/optee_os/lib/libmpa/mpa_primetest.c:236
    4530:	f9405fa0 	ldr	x0, [x29,#184]
    4534:	52800021 	mov	w1, #0x1                   	// #1
    4538:	94000a0d 	bl	6d6c <mpa_cmp_short>
/home/lagadanu/Desktop/qemu/optee_os/lib/libmpa/mpa_primetest.c:237
    453c:	7100001f 	cmp	w0, #0x0
/home/lagadanu/Desktop/qemu/optee_os/lib/libmpa/mpa_primetest.c:236
    4540:	2a0003e2 	mov	w2, w0
/home/lagadanu/Desktop/qemu/optee_os/lib/libmpa/mpa_primetest.c:237
    4544:	7a400b24 	ccmp	w25, #0x0, #0x4, eq
    4548:	540002ed 	b.le	45a4 <mpa_is_prob_prime+0x19c>
/home/lagadanu/Desktop/qemu/optee_os/lib/libmpa/mpa_primetest.c:238
    454c:	52800019 	mov	w25, #0x0                   	// #0
    4550:	910006d6 	add	x22, x22, #0x1
    4554:	1400007b 	b	4740 <mpa_is_prob_prime+0x338>
/home/lagadanu/Desktop/qemu/optee_os/lib/libmpa/mpa_primetest.c:224
    4558:	f9405ba1 	ldr	x1, [x29,#176]
    455c:	aa1303e3 	mov	x3, x19
    4560:	52800022 	mov	w2, #0x1                   	// #1
    4564:	aa0103e0 	mov	x0, x1
    4568:	94000960 	bl	6ae8 <mpa_sub_word>
/home/lagadanu/Desktop/qemu/optee_os/lib/libmpa/mpa_primetest.c:226
    456c:	f94053a0 	ldr	x0, [x29,#160]
    4570:	f9405ba1 	ldr	x1, [x29,#176]
    4574:	9400061e 	bl	5dec <mpa_get_random>
/home/lagadanu/Desktop/qemu/optee_os/lib/libmpa/mpa_primetest.c:227
    4578:	f9405ba1 	ldr	x1, [x29,#176]
    457c:	aa1303e3 	mov	x3, x19
    4580:	52800022 	mov	w2, #0x1                   	// #1
    4584:	aa0103e0 	mov	x0, x1
    4588:	94000909 	bl	69ac <mpa_add_word>
/home/lagadanu/Desktop/qemu/optee_os/lib/libmpa/mpa_primetest.c:229
    458c:	f94053a1 	ldr	x1, [x29,#160]
    4590:	aa1303e3 	mov	x3, x19
    4594:	52800042 	mov	w2, #0x2                   	// #2
    4598:	aa0103e0 	mov	x0, x1
    459c:	94000904 	bl	69ac <mpa_add_word>
    45a0:	17ffffdc 	b	4510 <mpa_is_prob_prime+0x108>
/home/lagadanu/Desktop/qemu/optee_os/lib/libmpa/mpa_primetest.c:242
    45a4:	a94b03a1 	ldp	x1, x0, [x29,#176]
    45a8:	b90067a2 	str	w2, [x29,#100]
    45ac:	940009d6 	bl	6d04 <mpa_cmp>
    45b0:	34000200 	cbz	w0, 45f0 <mpa_is_prob_prime+0x1e8>
/home/lagadanu/Desktop/qemu/optee_os/lib/libmpa/mpa_primetest.c:243
    45b4:	b94067a2 	ldr	w2, [x29,#100]
    45b8:	2a190042 	orr	w2, w2, w25
/home/lagadanu/Desktop/qemu/optee_os/lib/libmpa/mpa_primetest.c:242
    45bc:	340001a2 	cbz	w2, 45f0 <mpa_is_prob_prime+0x1e8>
/home/lagadanu/Desktop/qemu/optee_os/lib/libmpa/mpa_primetest.c:248
    45c0:	11000739 	add	w25, w25, #0x1
/home/lagadanu/Desktop/qemu/optee_os/lib/libmpa/mpa_primetest.c:249
    45c4:	6b19031f 	cmp	w24, w25
    45c8:	54fffc2d 	b.le	454c <mpa_is_prob_prime+0x144>
/home/lagadanu/Desktop/qemu/optee_os/lib/libmpa/mpa_primetest.c:250
    45cc:	a94b93a1 	ldp	x1, x4, [x29,#184]
    45d0:	aa1303e7 	mov	x7, x19
    45d4:	b9409fa6 	ldr	w6, [x29,#156]
    45d8:	aa1403e3 	mov	x3, x20
    45dc:	f94037a2 	ldr	x2, [x29,#104]
    45e0:	aa0103e0 	mov	x0, x1
    45e4:	f94067a5 	ldr	x5, [x29,#200]
    45e8:	94000a02 	bl	6df0 <mpa_exp_mod>
    45ec:	17ffffd1 	b	4530 <mpa_is_prob_prime+0x128>
/home/lagadanu/Desktop/qemu/optee_os/lib/libmpa/mpa_primetest.c:242
    45f0:	12800019 	mov	w25, #0xffffffff            	// #-1
    45f4:	17ffffd7 	b	4550 <mpa_is_prob_prime+0x148>
has_small_factors():
/home/lagadanu/Desktop/qemu/optee_os/lib/libmpa/mpa_primetest.c:148
    45f8:	910323b5 	add	x21, x29, #0xc8
    45fc:	aa1303e1 	mov	x1, x19
    4600:	aa1503e0 	mov	x0, x21
    4604:	94000514 	bl	5a54 <mpa_alloc_static_temp_var>
/home/lagadanu/Desktop/qemu/optee_os/lib/libmpa/mpa_primetest.c:149
    4608:	f94067a0 	ldr	x0, [x29,#200]
    460c:	f0000018 	adrp	x24, 7000 <mpa_init_static_fmm_context+0x38>
    4610:	913a6317 	add	x23, x24, #0xe98
    4614:	aa1303e3 	mov	x3, x19
    4618:	9131e2e2 	add	x2, x23, #0xc78
    461c:	aa1403e1 	mov	x1, x20
    4620:	94000437 	bl	56fc <mpa_gcd>
/home/lagadanu/Desktop/qemu/optee_os/lib/libmpa/mpa_primetest.c:150
    4624:	f94067a0 	ldr	x0, [x29,#200]
    4628:	52800021 	mov	w1, #0x1                   	// #1
    462c:	940009d0 	bl	6d6c <mpa_cmp_short>
    4630:	2a0003f9 	mov	w25, w0
/home/lagadanu/Desktop/qemu/optee_os/lib/libmpa/mpa_primetest.c:151
    4634:	aa1303e1 	mov	x1, x19
    4638:	aa1503e0 	mov	x0, x21
    463c:	9400050a 	bl	5a64 <mpa_free_static_temp_var>
    4640:	f9003bb8 	str	x24, [x29,#112]
mpa_is_prob_prime():
/home/lagadanu/Desktop/qemu/optee_os/lib/libmpa/mpa_primetest.c:76
    4644:	35fff059 	cbnz	w25, 444c <mpa_is_prob_prime+0x44>
primality_test_miller_rabin():
/home/lagadanu/Desktop/qemu/optee_os/lib/libmpa/mpa_primetest.c:180
    4648:	910303a0 	add	x0, x29, #0xc0
    464c:	aa1303e1 	mov	x1, x19
    4650:	f90043a0 	str	x0, [x29,#128]
    4654:	94000500 	bl	5a54 <mpa_alloc_static_temp_var>
/home/lagadanu/Desktop/qemu/optee_os/lib/libmpa/mpa_primetest.c:181
    4658:	aa1303e1 	mov	x1, x19
    465c:	aa1503e0 	mov	x0, x21
    4660:	940004fd 	bl	5a54 <mpa_alloc_static_temp_var>
/home/lagadanu/Desktop/qemu/optee_os/lib/libmpa/mpa_primetest.c:184
    4664:	52800019 	mov	w25, #0x0                   	// #0
/home/lagadanu/Desktop/qemu/optee_os/lib/libmpa/mpa_primetest.c:183
    4668:	a94c0ba1 	ldp	x1, x2, [x29,#192]
    466c:	aa1303e4 	mov	x4, x19
    4670:	910273a3 	add	x3, x29, #0x9c
    4674:	aa1403e0 	mov	x0, x20
    4678:	97fffef3 	bl	4244 <mpa_compute_fmm_context>
    467c:	3100041f 	cmn	w0, #0x1
    4680:	540008c0 	b.eq	4798 <mpa_is_prob_prime+0x390>
/home/lagadanu/Desktop/qemu/optee_os/lib/libmpa/mpa_primetest.c:188
    4684:	910283bc 	add	x28, x29, #0xa0
    4688:	aa1303e1 	mov	x1, x19
    468c:	aa1c03e0 	mov	x0, x28
/home/lagadanu/Desktop/qemu/optee_os/lib/libmpa/mpa_primetest.c:189
    4690:	9102a3bb 	add	x27, x29, #0xa8
/home/lagadanu/Desktop/qemu/optee_os/lib/libmpa/mpa_primetest.c:188
    4694:	940004f0 	bl	5a54 <mpa_alloc_static_temp_var>
/home/lagadanu/Desktop/qemu/optee_os/lib/libmpa/mpa_primetest.c:190
    4698:	9102c3ba 	add	x26, x29, #0xb0
/home/lagadanu/Desktop/qemu/optee_os/lib/libmpa/mpa_primetest.c:189
    469c:	aa1303e1 	mov	x1, x19
    46a0:	aa1b03e0 	mov	x0, x27
    46a4:	940004ec 	bl	5a54 <mpa_alloc_static_temp_var>
/home/lagadanu/Desktop/qemu/optee_os/lib/libmpa/mpa_primetest.c:190
    46a8:	aa1303e1 	mov	x1, x19
    46ac:	aa1a03e0 	mov	x0, x26
    46b0:	940004e9 	bl	5a54 <mpa_alloc_static_temp_var>
/home/lagadanu/Desktop/qemu/optee_os/lib/libmpa/mpa_primetest.c:191
    46b4:	9102e3a0 	add	x0, x29, #0xb8
    46b8:	aa1303e1 	mov	x1, x19
    46bc:	f9003fa0 	str	x0, [x29,#120]
    46c0:	940004e5 	bl	5a54 <mpa_alloc_static_temp_var>
/home/lagadanu/Desktop/qemu/optee_os/lib/libmpa/mpa_primetest.c:194
    46c4:	9130e2e1 	add	x1, x23, #0xc38
    46c8:	aa1403e0 	mov	x0, x20
    46cc:	9400098e 	bl	6d04 <mpa_cmp>
    46d0:	2a0003f7 	mov	w23, w0
/home/lagadanu/Desktop/qemu/optee_os/lib/libmpa/mpa_primetest.c:193
    46d4:	531f7c00 	lsr	w0, w0, #31
    46d8:	b9008ba0 	str	w0, [x29,#136]
/home/lagadanu/Desktop/qemu/optee_os/lib/libmpa/mpa_primetest.c:197
    46dc:	528000e0 	mov	w0, #0x7                   	// #7
    46e0:	b9008fa0 	str	w0, [x29,#140]
/home/lagadanu/Desktop/qemu/optee_os/lib/libmpa/mpa_primetest.c:196
    46e4:	37f800b7 	tbnz	w23, #31, 46f8 <mpa_is_prob_prime+0x2f0>
/home/lagadanu/Desktop/qemu/optee_os/lib/libmpa/mpa_primetest.c:199
    46e8:	110006d6 	add	w22, w22, #0x1
    46ec:	52800040 	mov	w0, #0x2                   	// #2
    46f0:	1ac00ec0 	sdiv	w0, w22, w0
    46f4:	b9008fa0 	str	w0, [x29,#140]
/home/lagadanu/Desktop/qemu/optee_os/lib/libmpa/mpa_primetest.c:201
    46f8:	f9405ba0 	ldr	x0, [x29,#176]
    46fc:	aa1403e1 	mov	x1, x20
    4700:	aa1303e3 	mov	x3, x19
    4704:	52800022 	mov	w2, #0x1                   	// #1
/home/lagadanu/Desktop/qemu/optee_os/lib/libmpa/mpa_primetest.c:203
    4708:	52800018 	mov	w24, #0x0                   	// #0
/home/lagadanu/Desktop/qemu/optee_os/lib/libmpa/mpa_primetest.c:201
    470c:	940008f7 	bl	6ae8 <mpa_sub_word>
/home/lagadanu/Desktop/qemu/optee_os/lib/libmpa/mpa_primetest.c:202
    4710:	a94a87a0 	ldp	x0, x1, [x29,#168]
    4714:	97fffdf1 	bl	3ed8 <mpa_copy>
/home/lagadanu/Desktop/qemu/optee_os/lib/libmpa/mpa_primetest.c:205
    4718:	f94057a0 	ldr	x0, [x29,#168]
    471c:	97fffe39 	bl	4000 <mpa_parity>
    4720:	34ffed60 	cbz	w0, 44cc <mpa_is_prob_prime+0xc4>
/home/lagadanu/Desktop/qemu/optee_os/lib/libmpa/mpa_primetest.c:250
    4724:	f9403ba0 	ldr	x0, [x29,#112]
/home/lagadanu/Desktop/qemu/optee_os/lib/libmpa/mpa_primetest.c:205
    4728:	d2800016 	mov	x22, #0x0                   	// #0
    472c:	12800019 	mov	w25, #0xffffffff            	// #-1
/home/lagadanu/Desktop/qemu/optee_os/lib/libmpa/mpa_primetest.c:250
    4730:	913a6000 	add	x0, x0, #0xe98
    4734:	f9003ba0 	str	x0, [x29,#112]
    4738:	9131a000 	add	x0, x0, #0xc68
    473c:	f90037a0 	str	x0, [x29,#104]
/home/lagadanu/Desktop/qemu/optee_os/lib/libmpa/mpa_primetest.c:211
    4740:	b9408fa1 	ldr	w1, [x29,#140]
    4744:	3100073f 	cmn	w25, #0x1
    4748:	1a9f17e0 	cset	w0, eq
    474c:	6b16003f 	cmp	w1, w22
    4750:	1a9fd7e1 	cset	w1, gt
    4754:	6a01001f 	tst	w0, w1
    4758:	54ffec61 	b.ne	44e4 <mpa_is_prob_prime+0xdc>
/home/lagadanu/Desktop/qemu/optee_os/lib/libmpa/mpa_primetest.c:258
    475c:	b9408ba1 	ldr	w1, [x29,#136]
    4760:	6a00003f 	tst	w1, w0
/home/lagadanu/Desktop/qemu/optee_os/lib/libmpa/mpa_primetest.c:260
    4764:	aa1303e1 	mov	x1, x19
/home/lagadanu/Desktop/qemu/optee_os/lib/libmpa/mpa_primetest.c:258
    4768:	1a9f0739 	csinc	w25, w25, wzr, eq
/home/lagadanu/Desktop/qemu/optee_os/lib/libmpa/mpa_primetest.c:260
    476c:	aa1c03e0 	mov	x0, x28
    4770:	940004bd 	bl	5a64 <mpa_free_static_temp_var>
/home/lagadanu/Desktop/qemu/optee_os/lib/libmpa/mpa_primetest.c:261
    4774:	aa1303e1 	mov	x1, x19
    4778:	aa1b03e0 	mov	x0, x27
    477c:	940004ba 	bl	5a64 <mpa_free_static_temp_var>
/home/lagadanu/Desktop/qemu/optee_os/lib/libmpa/mpa_primetest.c:262
    4780:	aa1303e1 	mov	x1, x19
    4784:	aa1a03e0 	mov	x0, x26
    4788:	940004b7 	bl	5a64 <mpa_free_static_temp_var>
/home/lagadanu/Desktop/qemu/optee_os/lib/libmpa/mpa_primetest.c:263
    478c:	f9403fa0 	ldr	x0, [x29,#120]
    4790:	aa1303e1 	mov	x1, x19
    4794:	940004b4 	bl	5a64 <mpa_free_static_temp_var>
/home/lagadanu/Desktop/qemu/optee_os/lib/libmpa/mpa_primetest.c:265
    4798:	f94043a0 	ldr	x0, [x29,#128]
    479c:	aa1303e1 	mov	x1, x19
    47a0:	940004b1 	bl	5a64 <mpa_free_static_temp_var>
/home/lagadanu/Desktop/qemu/optee_os/lib/libmpa/mpa_primetest.c:266
    47a4:	aa1303e1 	mov	x1, x19
    47a8:	aa1503e0 	mov	x0, x21
    47ac:	940004ae 	bl	5a64 <mpa_free_static_temp_var>
    47b0:	17ffff28 	b	4450 <mpa_is_prob_prime+0x48>

00000000000047b4 <mpa_set_S32>:
mpa_set_S32():
/home/lagadanu/Desktop/qemu/optee_os/lib/libmpa/mpa_conv.c:15
    47b4:	7100003f 	cmp	w1, #0x0
    47b8:	54000100 	b.eq	47d8 <mpa_set_S32+0x24>
/home/lagadanu/Desktop/qemu/optee_os/lib/libmpa/mpa_conv.c:16
    47bc:	52800022 	mov	w2, #0x1                   	// #1
    47c0:	5a82a442 	cneg	w2, w2, lt
    47c4:	b9000402 	str	w2, [x0,#4]
/home/lagadanu/Desktop/qemu/optee_os/lib/libmpa/mpa_conv.c:19
    47c8:	7100003f 	cmp	w1, #0x0
    47cc:	5a81a421 	cneg	w1, w1, lt
    47d0:	b9000801 	str	w1, [x0,#8]
    47d4:	d65f03c0 	ret
/home/lagadanu/Desktop/qemu/optee_os/lib/libmpa/mpa_conv.c:18
    47d8:	b900041f 	str	wzr, [x0,#4]
    47dc:	17fffffb 	b	47c8 <mpa_set_S32+0x14>

00000000000047e0 <mpa_get_S32>:
mpa_get_S32():
/home/lagadanu/Desktop/qemu/optee_os/lib/libmpa/mpa_conv.c:35
    47e0:	b9400422 	ldr	w2, [x1,#4]
/home/lagadanu/Desktop/qemu/optee_os/lib/libmpa/mpa_conv.c:33
    47e4:	aa0003e4 	mov	x4, x0
/home/lagadanu/Desktop/qemu/optee_os/lib/libmpa/mpa_conv.c:35
    47e8:	7100005f 	cmp	w2, #0x0
    47ec:	5a82a440 	cneg	w0, w2, lt
    47f0:	7100041f 	cmp	w0, #0x1
    47f4:	540002cc 	b.gt	484c <mpa_get_S32+0x6c>
/home/lagadanu/Desktop/qemu/optee_os/lib/libmpa/mpa_conv.c:37
    47f8:	b9400823 	ldr	w3, [x1,#8]
    47fc:	52b00000 	mov	w0, #0x80000000            	// #-2147483648
    4800:	7100005f 	cmp	w2, #0x0
    4804:	7a40b060 	ccmp	w3, w0, #0x0, lt
/home/lagadanu/Desktop/qemu/optee_os/lib/libmpa/mpa_conv.c:36
    4808:	12800000 	mov	w0, #0xffffffff            	// #-1
/home/lagadanu/Desktop/qemu/optee_os/lib/libmpa/mpa_conv.c:37
    480c:	54000088 	b.hi	481c <mpa_get_S32+0x3c>
/home/lagadanu/Desktop/qemu/optee_os/lib/libmpa/mpa_conv.c:39
    4810:	36f80083 	tbz	w3, #31, 4820 <mpa_get_S32+0x40>
/home/lagadanu/Desktop/qemu/optee_os/lib/libmpa/mpa_conv.c:42 (discriminator 1)
    4814:	2a0003e1 	mov	w1, w0
/home/lagadanu/Desktop/qemu/optee_os/lib/libmpa/mpa_conv.c:39 (discriminator 1)
    4818:	37f800c2 	tbnz	w2, #31, 4830 <mpa_get_S32+0x50>
/home/lagadanu/Desktop/qemu/optee_os/lib/libmpa/mpa_conv.c:48
    481c:	d65f03c0 	ret
/home/lagadanu/Desktop/qemu/optee_os/lib/libmpa/mpa_conv.c:42
    4820:	34000102 	cbz	w2, 4840 <mpa_get_S32+0x60>
/home/lagadanu/Desktop/qemu/optee_os/lib/libmpa/mpa_conv.c:42 (discriminator 4)
    4824:	12800001 	mov	w1, #0xffffffff            	// #-1
    4828:	6b01005f 	cmp	w2, w1
    482c:	5a81d421 	cneg	w1, w1, gt
/home/lagadanu/Desktop/qemu/optee_os/lib/libmpa/mpa_conv.c:42 (discriminator 8)
    4830:	1b037c21 	mul	w1, w1, w3
/home/lagadanu/Desktop/qemu/optee_os/lib/libmpa/mpa_conv.c:43 (discriminator 8)
    4834:	52800000 	mov	w0, #0x0                   	// #0
/home/lagadanu/Desktop/qemu/optee_os/lib/libmpa/mpa_conv.c:42 (discriminator 8)
    4838:	b9000081 	str	w1, [x4]
/home/lagadanu/Desktop/qemu/optee_os/lib/libmpa/mpa_conv.c:43 (discriminator 8)
    483c:	d65f03c0 	ret
/home/lagadanu/Desktop/qemu/optee_os/lib/libmpa/mpa_conv.c:42
    4840:	52800003 	mov	w3, #0x0                   	// #0
    4844:	52800021 	mov	w1, #0x1                   	// #1
    4848:	17fffffa 	b	4830 <mpa_get_S32+0x50>
/home/lagadanu/Desktop/qemu/optee_os/lib/libmpa/mpa_conv.c:36
    484c:	12800000 	mov	w0, #0xffffffff            	// #-1
    4850:	17fffff3 	b	481c <mpa_get_S32+0x3c>

0000000000004854 <mpa_set_word>:
mpa_set_word():
/home/lagadanu/Desktop/qemu/optee_os/lib/libmpa/mpa_conv.c:58
    4854:	7100003f 	cmp	w1, #0x0
/home/lagadanu/Desktop/qemu/optee_os/lib/libmpa/mpa_conv.c:57
    4858:	b9000801 	str	w1, [x0,#8]
/home/lagadanu/Desktop/qemu/optee_os/lib/libmpa/mpa_conv.c:58
    485c:	1a9f07e1 	cset	w1, ne
    4860:	b9000401 	str	w1, [x0,#4]
    4864:	d65f03c0 	ret

0000000000004868 <mpa_get_word>:
mpa_get_word():
/home/lagadanu/Desktop/qemu/optee_os/lib/libmpa/mpa_conv.c:69
    4868:	b9400401 	ldr	w1, [x0,#4]
    486c:	34000061 	cbz	w1, 4878 <mpa_get_word+0x10>
/home/lagadanu/Desktop/qemu/optee_os/lib/libmpa/mpa_conv.c:69 (discriminator 1)
    4870:	b9400800 	ldr	w0, [x0,#8]
    4874:	d65f03c0 	ret
/home/lagadanu/Desktop/qemu/optee_os/lib/libmpa/mpa_conv.c:69
    4878:	52800000 	mov	w0, #0x0                   	// #0
/home/lagadanu/Desktop/qemu/optee_os/lib/libmpa/mpa_conv.c:70
    487c:	d65f03c0 	ret

0000000000004880 <__mpa_div_dword>:
__mpa_div_dword():
/home/lagadanu/Desktop/qemu/optee_os/lib/libmpa/mpa_div.c:59
    4880:	2a0003e0 	mov	w0, w0
__mpa_soft_div():
/home/lagadanu/Desktop/qemu/optee_os/lib/libmpa/mpa_div.c:24
    4884:	2a0203e2 	mov	w2, w2
__mpa_div_dword():
/home/lagadanu/Desktop/qemu/optee_os/lib/libmpa/mpa_div.c:59
    4888:	8b018001 	add	x1, x0, x1, lsl #32
__mpa_soft_div():
/home/lagadanu/Desktop/qemu/optee_os/lib/libmpa/mpa_div.c:23
    488c:	d2800024 	mov	x4, #0x1                   	// #1
/home/lagadanu/Desktop/qemu/optee_os/lib/libmpa/mpa_div.c:26
    4890:	b6f800c2 	tbz	x2, #63, 48a8 <__mpa_div_dword+0x28>
    4894:	d2800000 	mov	x0, #0x0                   	// #0
/home/lagadanu/Desktop/qemu/optee_os/lib/libmpa/mpa_div.c:31
    4898:	b50000e4 	cbnz	x4, 48b4 <__mpa_div_dword+0x34>
/home/lagadanu/Desktop/qemu/optee_os/lib/libmpa/mpa_div.c:40
    489c:	b4000043 	cbz	x3, 48a4 <__mpa_div_dword+0x24>
/home/lagadanu/Desktop/qemu/optee_os/lib/libmpa/mpa_div.c:41
    48a0:	b9000061 	str	w1, [x3]
__mpa_div_dword():
/home/lagadanu/Desktop/qemu/optee_os/lib/libmpa/mpa_div.c:67
    48a4:	d65f03c0 	ret
__mpa_soft_div():
/home/lagadanu/Desktop/qemu/optee_os/lib/libmpa/mpa_div.c:27
    48a8:	d37ff842 	lsl	x2, x2, #1
/home/lagadanu/Desktop/qemu/optee_os/lib/libmpa/mpa_div.c:28
    48ac:	d37ff884 	lsl	x4, x4, #1
    48b0:	17fffff8 	b	4890 <__mpa_div_dword+0x10>
/home/lagadanu/Desktop/qemu/optee_os/lib/libmpa/mpa_div.c:32
    48b4:	eb02003f 	cmp	x1, x2
    48b8:	54000063 	b.cc	48c4 <__mpa_div_dword+0x44>
/home/lagadanu/Desktop/qemu/optee_os/lib/libmpa/mpa_div.c:33
    48bc:	cb020021 	sub	x1, x1, x2
/home/lagadanu/Desktop/qemu/optee_os/lib/libmpa/mpa_div.c:34
    48c0:	8b040000 	add	x0, x0, x4
/home/lagadanu/Desktop/qemu/optee_os/lib/libmpa/mpa_div.c:36
    48c4:	d341fc42 	lsr	x2, x2, #1
/home/lagadanu/Desktop/qemu/optee_os/lib/libmpa/mpa_div.c:37
    48c8:	d341fc84 	lsr	x4, x4, #1
    48cc:	17fffff3 	b	4898 <__mpa_div_dword+0x18>

00000000000048d0 <__mpa_div_q_r_internal_word>:
__mpa_div_q_r_internal_word():
/home/lagadanu/Desktop/qemu/optee_os/lib/libmpa/mpa_div.c:247
    48d0:	a9ba7bfd 	stp	x29, x30, [sp,#-96]!
    48d4:	910003fd 	mov	x29, sp
    48d8:	a9025bf5 	stp	x21, x22, [sp,#32]
    48dc:	aa0103f5 	mov	x21, x1
/home/lagadanu/Desktop/qemu/optee_os/lib/libmpa/mpa_div.c:255
    48e0:	b9400441 	ldr	w1, [x2,#4]
/home/lagadanu/Desktop/qemu/optee_os/lib/libmpa/mpa_div.c:247
    48e4:	aa0203f6 	mov	x22, x2
    48e8:	a90153f3 	stp	x19, x20, [sp,#16]
    48ec:	2a0303f4 	mov	w20, w3
/home/lagadanu/Desktop/qemu/optee_os/lib/libmpa/mpa_div.c:255
    48f0:	7100003f 	cmp	w1, #0x0
/home/lagadanu/Desktop/qemu/optee_os/lib/libmpa/mpa_div.c:247
    48f4:	a90363f7 	stp	x23, x24, [sp,#48]
    48f8:	a9046bf9 	stp	x25, x26, [sp,#64]
/home/lagadanu/Desktop/qemu/optee_os/lib/libmpa/mpa_div.c:255
    48fc:	5a81a421 	cneg	w1, w1, lt
    4900:	7100043f 	cmp	w1, #0x1
    4904:	540001e1 	b.ne	4940 <__mpa_div_q_r_internal_word+0x70>
/home/lagadanu/Desktop/qemu/optee_os/lib/libmpa/mpa_div.c:256
    4908:	b9400841 	ldr	w1, [x2,#8]
    490c:	1ac30821 	udiv	w1, w1, w3
    4910:	97ffffd1 	bl	4854 <mpa_set_word>
/home/lagadanu/Desktop/qemu/optee_os/lib/libmpa/mpa_div.c:257
    4914:	b9400ac0 	ldr	w0, [x22,#8]
    4918:	1ad40801 	udiv	w1, w0, w20
    491c:	1b148021 	msub	w1, w1, w20, w0
    4920:	aa1503e0 	mov	x0, x21
    4924:	97ffffcc 	bl	4854 <mpa_set_word>
/home/lagadanu/Desktop/qemu/optee_os/lib/libmpa/mpa_div.c:279
    4928:	a94153f3 	ldp	x19, x20, [sp,#16]
    492c:	a9425bf5 	ldp	x21, x22, [sp,#32]
    4930:	a94363f7 	ldp	x23, x24, [sp,#48]
    4934:	a9446bf9 	ldp	x25, x26, [sp,#64]
    4938:	a8c67bfd 	ldp	x29, x30, [sp],#96
    493c:	d65f03c0 	ret
/home/lagadanu/Desktop/qemu/optee_os/lib/libmpa/mpa_div.c:260
    4940:	aa0203e1 	mov	x1, x2
    4944:	aa0003f3 	mov	x19, x0
    4948:	aa1503e0 	mov	x0, x21
    494c:	97fffd63 	bl	3ed8 <mpa_copy>
/home/lagadanu/Desktop/qemu/optee_os/lib/libmpa/mpa_div.c:261
    4950:	52800001 	mov	w1, #0x0                   	// #0
    4954:	aa1303e0 	mov	x0, x19
    4958:	97ffffbf 	bl	4854 <mpa_set_word>
/home/lagadanu/Desktop/qemu/optee_os/lib/libmpa/mpa_div.c:267
    495c:	910173ba 	add	x26, x29, #0x5c
/home/lagadanu/Desktop/qemu/optee_os/lib/libmpa/mpa_div.c:263
    4960:	b94006a1 	ldr	w1, [x21,#4]
    4964:	7100003f 	cmp	w1, #0x0
    4968:	5a81a421 	cneg	w1, w1, lt
    496c:	51000422 	sub	w2, w1, #0x1
/home/lagadanu/Desktop/qemu/optee_os/lib/libmpa/mpa_div.c:265
    4970:	93407c42 	sxtw	x2, w2
    4974:	8b020aa0 	add	x0, x21, x2, lsl #2
    4978:	91000843 	add	x3, x2, #0x2
    497c:	d37ef477 	lsl	x23, x3, #2
    4980:	cb21c063 	sub	x3, x3, w1, sxtw
    4984:	51000821 	sub	w1, w1, #0x2
    4988:	d37ef478 	lsl	x24, x3, #2
    498c:	937e7c21 	sbfiz	x1, x1, #2, #32
    4990:	b9400800 	ldr	w0, [x0,#8]
    4994:	cb020821 	sub	x1, x1, x2, lsl #2
    4998:	8b0102b9 	add	x25, x21, x1
/home/lagadanu/Desktop/qemu/optee_os/lib/libmpa/mpa_div.c:264
    499c:	52800001 	mov	w1, #0x0                   	// #0
/home/lagadanu/Desktop/qemu/optee_os/lib/libmpa/mpa_div.c:266
    49a0:	eb1802ff 	cmp	x23, x24
    49a4:	54000281 	b.ne	49f4 <__mpa_div_q_r_internal_word+0x124>
/home/lagadanu/Desktop/qemu/optee_os/lib/libmpa/mpa_div.c:274
    49a8:	b9400aa0 	ldr	w0, [x21,#8]
    49ac:	7100001f 	cmp	w0, #0x0
    49b0:	1a9f07e0 	cset	w0, ne
    49b4:	b90006a0 	str	w0, [x21,#4]
/home/lagadanu/Desktop/qemu/optee_os/lib/libmpa/mpa_div.c:275
    49b8:	b94006c0 	ldr	w0, [x22,#4]
    49bc:	7100001f 	cmp	w0, #0x0
    49c0:	5a80a400 	cneg	w0, w0, lt
    49c4:	51000400 	sub	w0, w0, #0x1
    49c8:	93407c00 	sxtw	x0, w0
    49cc:	2a0003e1 	mov	w1, w0
/home/lagadanu/Desktop/qemu/optee_os/lib/libmpa/mpa_div.c:276
    49d0:	3100041f 	cmn	w0, #0x1
    49d4:	540000a0 	b.eq	49e8 <__mpa_div_q_r_internal_word+0x118>
    49d8:	d1000400 	sub	x0, x0, #0x1
/home/lagadanu/Desktop/qemu/optee_os/lib/libmpa/mpa_div.c:276 (discriminator 1)
    49dc:	8b000a62 	add	x2, x19, x0, lsl #2
    49e0:	b9400c42 	ldr	w2, [x2,#12]
    49e4:	34ffff42 	cbz	w2, 49cc <__mpa_div_q_r_internal_word+0xfc>
/home/lagadanu/Desktop/qemu/optee_os/lib/libmpa/mpa_div.c:278
    49e8:	11000420 	add	w0, w1, #0x1
    49ec:	b9000660 	str	w0, [x19,#4]
    49f0:	17ffffce 	b	4928 <__mpa_div_q_r_internal_word+0x58>
/home/lagadanu/Desktop/qemu/optee_os/lib/libmpa/mpa_div.c:267
    49f4:	aa1a03e3 	mov	x3, x26
    49f8:	2a1403e2 	mov	w2, w20
    49fc:	97ffffa1 	bl	4880 <__mpa_div_dword>
/home/lagadanu/Desktop/qemu/optee_os/lib/libmpa/mpa_div.c:268
    4a00:	b8376a60 	str	w0, [x19,x23]
/home/lagadanu/Desktop/qemu/optee_os/lib/libmpa/mpa_div.c:269
    4a04:	b9405fa1 	ldr	w1, [x29,#92]
    4a08:	b8376aa1 	str	w1, [x21,x23]
/home/lagadanu/Desktop/qemu/optee_os/lib/libmpa/mpa_div.c:271
    4a0c:	b8776b20 	ldr	w0, [x25,x23]
    4a10:	d10012f7 	sub	x23, x23, #0x4
    4a14:	17ffffe3 	b	49a0 <__mpa_div_q_r_internal_word+0xd0>

0000000000004a18 <__mpa_div_q_r>:
__mpa_div_q_r():
/home/lagadanu/Desktop/qemu/optee_os/lib/libmpa/mpa_div.c:302
    4a18:	a9b07bfd 	stp	x29, x30, [sp,#-256]!
    4a1c:	910003fd 	mov	x29, sp
    4a20:	a90363f7 	stp	x23, x24, [sp,#48]
    4a24:	aa0103f8 	mov	x24, x1
/home/lagadanu/Desktop/qemu/optee_os/lib/libmpa/mpa_div.c:306
    4a28:	b9400441 	ldr	w1, [x2,#4]
/home/lagadanu/Desktop/qemu/optee_os/lib/libmpa/mpa_div.c:302
    4a2c:	a90153f3 	stp	x19, x20, [sp,#16]
    4a30:	a9025bf5 	stp	x21, x22, [sp,#32]
    4a34:	a9046bf9 	stp	x25, x26, [sp,#64]
    4a38:	a90573fb 	stp	x27, x28, [sp,#80]
/home/lagadanu/Desktop/qemu/optee_os/lib/libmpa/mpa_div.c:306
    4a3c:	35000181 	cbnz	w1, 4a6c <__mpa_div_q_r+0x54>
/home/lagadanu/Desktop/qemu/optee_os/lib/libmpa/mpa_div.c:322
    4a40:	97ffff85 	bl	4854 <mpa_set_word>
/home/lagadanu/Desktop/qemu/optee_os/lib/libmpa/mpa_div.c:323
    4a44:	52800001 	mov	w1, #0x0                   	// #0
    4a48:	aa1803e0 	mov	x0, x24
    4a4c:	97ffff82 	bl	4854 <mpa_set_word>
/home/lagadanu/Desktop/qemu/optee_os/lib/libmpa/mpa_div.c:338
    4a50:	a94153f3 	ldp	x19, x20, [sp,#16]
    4a54:	a9425bf5 	ldp	x21, x22, [sp,#32]
    4a58:	a94363f7 	ldp	x23, x24, [sp,#48]
    4a5c:	a9446bf9 	ldp	x25, x26, [sp,#64]
    4a60:	a94573fb 	ldp	x27, x28, [sp,#80]
    4a64:	a8d07bfd 	ldp	x29, x30, [sp],#256
    4a68:	d65f03c0 	ret
    4a6c:	aa0003f3 	mov	x19, x0
/home/lagadanu/Desktop/qemu/optee_os/lib/libmpa/mpa_div.c:311
    4a70:	b9400460 	ldr	w0, [x3,#4]
    4a74:	aa0303f4 	mov	x20, x3
    4a78:	34fffec0 	cbz	w0, 4a50 <__mpa_div_q_r+0x38>
    4a7c:	aa0203fa 	mov	x26, x2
    4a80:	aa0403f7 	mov	x23, x4
/home/lagadanu/Desktop/qemu/optee_os/lib/libmpa/mpa_div.c:318
    4a84:	36f82ee1 	tbz	w1, #31, 5060 <__mpa_div_q_r+0x648>
/home/lagadanu/Desktop/qemu/optee_os/lib/libmpa/mpa_div.c:319
    4a88:	7100001f 	cmp	w0, #0x0
    4a8c:	12800001 	mov	w1, #0xffffffff            	// #-1
    4a90:	5a81a420 	cneg	w0, w1, lt
    4a94:	14000176 	b	506c <__mpa_div_q_r+0x654>
/home/lagadanu/Desktop/qemu/optee_os/lib/libmpa/mpa_div.c:326
    4a98:	54002d6d 	b.le	5044 <__mpa_div_q_r+0x62c>
/home/lagadanu/Desktop/qemu/optee_os/lib/libmpa/mpa_div.c:327
    4a9c:	b9400680 	ldr	w0, [x20,#4]
    4aa0:	7100001f 	cmp	w0, #0x0
    4aa4:	5a80a400 	cneg	w0, w0, lt
    4aa8:	7100041f 	cmp	w0, #0x1
    4aac:	54002c0d 	b.le	502c <__mpa_div_q_r+0x614>
__mpa_div_q_r_internal():
/home/lagadanu/Desktop/qemu/optee_os/lib/libmpa/mpa_div.c:103
    4ab0:	9103a3a0 	add	x0, x29, #0xe8
    4ab4:	aa1703e1 	mov	x1, x23
    4ab8:	f9005fa0 	str	x0, [x29,#184]
    4abc:	940003e6 	bl	5a54 <mpa_alloc_static_temp_var>
/home/lagadanu/Desktop/qemu/optee_os/lib/libmpa/mpa_div.c:104
    4ac0:	9103c3a0 	add	x0, x29, #0xf0
    4ac4:	aa1703e1 	mov	x1, x23
    4ac8:	f9005ba0 	str	x0, [x29,#176]
    4acc:	940003e2 	bl	5a54 <mpa_alloc_static_temp_var>
/home/lagadanu/Desktop/qemu/optee_os/lib/libmpa/mpa_div.c:105
    4ad0:	f9407ba0 	ldr	x0, [x29,#240]
    4ad4:	aa1403e1 	mov	x1, x20
    4ad8:	97fffd00 	bl	3ed8 <mpa_copy>
/home/lagadanu/Desktop/qemu/optee_os/lib/libmpa/mpa_div.c:112
    4adc:	9103e3a0 	add	x0, x29, #0xf8
    4ae0:	aa1703e1 	mov	x1, x23
    4ae4:	f90057a0 	str	x0, [x29,#168]
    4ae8:	940003db 	bl	5a54 <mpa_alloc_static_temp_var>
/home/lagadanu/Desktop/qemu/optee_os/lib/libmpa/mpa_div.c:113
    4aec:	f9407fa0 	ldr	x0, [x29,#248]
    4af0:	aa1a03e1 	mov	x1, x26
    4af4:	97fffcf9 	bl	3ed8 <mpa_copy>
/home/lagadanu/Desktop/qemu/optee_os/lib/libmpa/mpa_div.c:114
    4af8:	f9407fa1 	ldr	x1, [x29,#248]
    4afc:	b9400420 	ldr	w0, [x1,#4]
    4b00:	36f80060 	tbz	w0, #31, 4b0c <__mpa_div_q_r+0xf4>
    4b04:	4b0003e0 	neg	w0, w0
    4b08:	b9000420 	str	w0, [x1,#4]
/home/lagadanu/Desktop/qemu/optee_os/lib/libmpa/mpa_div.c:115
    4b0c:	f9407ba2 	ldr	x2, [x29,#240]
    4b10:	b9400440 	ldr	w0, [x2,#4]
    4b14:	36f80060 	tbz	w0, #31, 4b20 <__mpa_div_q_r+0x108>
    4b18:	4b0003e0 	neg	w0, w0
    4b1c:	b9000440 	str	w0, [x2,#4]
/home/lagadanu/Desktop/qemu/optee_os/lib/libmpa/mpa_div.c:121
    4b20:	b9400440 	ldr	w0, [x2,#4]
/home/lagadanu/Desktop/qemu/optee_os/lib/libmpa/mpa_div.c:120
    4b24:	52800019 	mov	w25, #0x0                   	// #0
/home/lagadanu/Desktop/qemu/optee_os/lib/libmpa/mpa_div.c:121
    4b28:	7100001f 	cmp	w0, #0x0
    4b2c:	5a80a400 	cneg	w0, w0, lt
    4b30:	51000400 	sub	w0, w0, #0x1
    4b34:	8b20c840 	add	x0, x2, w0, sxtw #2
    4b38:	52800002 	mov	w2, #0x0                   	// #0
    4b3c:	b9400800 	ldr	w0, [x0,#8]
    4b40:	b900d7a0 	str	w0, [x29,#212]
/home/lagadanu/Desktop/qemu/optee_os/lib/libmpa/mpa_div.c:122
    4b44:	36f80fc0 	tbz	w0, #31, 4d3c <__mpa_div_q_r+0x324>
    4b48:	34000042 	cbz	w2, 4b50 <__mpa_div_q_r+0x138>
    4b4c:	b900d7a0 	str	w0, [x29,#212]
/home/lagadanu/Desktop/qemu/optee_os/lib/libmpa/mpa_div.c:126
    4b50:	34000119 	cbz	w25, 4b70 <__mpa_div_q_r+0x158>
/home/lagadanu/Desktop/qemu/optee_os/lib/libmpa/mpa_div.c:127
    4b54:	aa0103e0 	mov	x0, x1
    4b58:	2a1903e2 	mov	w2, w25
    4b5c:	9400053f 	bl	6058 <mpa_shift_left>
/home/lagadanu/Desktop/qemu/optee_os/lib/libmpa/mpa_div.c:128
    4b60:	f9407ba1 	ldr	x1, [x29,#240]
    4b64:	2a1903e2 	mov	w2, w25
    4b68:	aa0103e0 	mov	x0, x1
    4b6c:	9400053b 	bl	6058 <mpa_shift_left>
/home/lagadanu/Desktop/qemu/optee_os/lib/libmpa/mpa_div.c:131
    4b70:	f9407fa0 	ldr	x0, [x29,#248]
    4b74:	b9400416 	ldr	w22, [x0,#4]
/home/lagadanu/Desktop/qemu/optee_os/lib/libmpa/mpa_div.c:132
    4b78:	f9407ba0 	ldr	x0, [x29,#240]
    4b7c:	b9400400 	ldr	w0, [x0,#4]
    4b80:	b900cfa0 	str	w0, [x29,#204]
/home/lagadanu/Desktop/qemu/optee_os/lib/libmpa/mpa_div.c:133
    4b84:	2a0003e0 	mov	w0, w0
    4b88:	4b0002c0 	sub	w0, w22, w0
    4b8c:	b900cba0 	str	w0, [x29,#200]
/home/lagadanu/Desktop/qemu/optee_os/lib/libmpa/mpa_div.c:135
    4b90:	aa1303e0 	mov	x0, x19
    4b94:	97fffcc5 	bl	3ea8 <mpa_wipe>
/home/lagadanu/Desktop/qemu/optee_os/lib/libmpa/mpa_div.c:141
    4b98:	b940cba1 	ldr	w1, [x29,#200]
    4b9c:	f9407ba0 	ldr	x0, [x29,#240]
    4ba0:	940004ef 	bl	5f5c <__mpa_shift_words_left>
/home/lagadanu/Desktop/qemu/optee_os/lib/libmpa/mpa_div.c:147
    4ba4:	a94f07a2 	ldp	x2, x1, [x29,#240]
/home/lagadanu/Desktop/qemu/optee_os/lib/libmpa/mpa_div.c:144
    4ba8:	52800025 	mov	w5, #0x1                   	// #1
/home/lagadanu/Desktop/qemu/optee_os/lib/libmpa/mpa_div.c:143
    4bac:	b9400444 	ldr	w4, [x2,#4]
    4bb0:	7100009f 	cmp	w4, #0x0
    4bb4:	5a84a484 	cneg	w4, w4, lt
    4bb8:	51000483 	sub	w3, w4, #0x1
    4bbc:	2a0403e0 	mov	w0, w4
    4bc0:	93407c63 	sxtw	x3, w3
    4bc4:	91000863 	add	x3, x3, #0x2
    4bc8:	d37ef463 	lsl	x3, x3, #2
/home/lagadanu/Desktop/qemu/optee_os/lib/libmpa/mpa_div.c:145
    4bcc:	7100001f 	cmp	w0, #0x0
    4bd0:	1a9fd7e6 	cset	w6, gt
    4bd4:	6a0500df 	tst	w6, w5
    4bd8:	54000ba1 	b.ne	4d4c <__mpa_div_q_r+0x334>
/home/lagadanu/Desktop/qemu/optee_os/lib/libmpa/mpa_div.c:149
    4bdc:	350002a5 	cbnz	w5, 4c30 <__mpa_div_q_r+0x218>
    4be0:	b9400423 	ldr	w3, [x1,#4]
    4be4:	7100007f 	cmp	w3, #0x0
    4be8:	5a83a463 	cneg	w3, w3, lt
    4bec:	6b03001f 	cmp	w0, w3
    4bf0:	5400250a 	b.ge	5090 <__mpa_div_q_r+0x678>
    4bf4:	8b20c823 	add	x3, x1, w0, sxtw #2
    4bf8:	6b00009f 	cmp	w4, w0
    4bfc:	b9400863 	ldr	w3, [x3,#8]
    4c00:	5400006d 	b.le	4c0c <__mpa_div_q_r+0x1f4>
    4c04:	8b20c840 	add	x0, x2, w0, sxtw #2
    4c08:	b9400805 	ldr	w5, [x0,#8]
    4c0c:	6b0300bf 	cmp	w5, w3
    4c10:	54000102 	b.cs	4c30 <__mpa_div_q_r+0x218>
/home/lagadanu/Desktop/qemu/optee_os/lib/libmpa/mpa_div.c:150
    4c14:	b940cba0 	ldr	w0, [x29,#200]
    4c18:	52800023 	mov	w3, #0x1                   	// #1
    4c1c:	8b20ca60 	add	x0, x19, w0, sxtw #2
    4c20:	b9000803 	str	w3, [x0,#8]
/home/lagadanu/Desktop/qemu/optee_os/lib/libmpa/mpa_div.c:151
    4c24:	aa1703e3 	mov	x3, x23
    4c28:	aa0103e0 	mov	x0, x1
    4c2c:	940006ee 	bl	67e4 <mpa_sub>
/home/lagadanu/Desktop/qemu/optee_os/lib/libmpa/mpa_div.c:155
    4c30:	f9407fa0 	ldr	x0, [x29,#248]
    4c34:	510006d6 	sub	w22, w22, #0x1
    4c38:	b9400415 	ldr	w21, [x0,#4]
    4c3c:	b940cfa0 	ldr	w0, [x29,#204]
    4c40:	510006b4 	sub	w20, w21, #0x1
    4c44:	51000ab5 	sub	w21, w21, #0x2
    4c48:	93407e9b 	sxtw	x27, w20
    4c4c:	4b000294 	sub	w20, w20, w0
/home/lagadanu/Desktop/qemu/optee_os/lib/libmpa/mpa_div.c:173
    4c50:	910353a0 	add	x0, x29, #0xd4
    4c54:	f9003ba0 	str	x0, [x29,#112]
    4c58:	910363a0 	add	x0, x29, #0xd8
    4c5c:	8b34ca74 	add	x20, x19, w20, sxtw #2
    4c60:	f90053a0 	str	x0, [x29,#160]
/home/lagadanu/Desktop/qemu/optee_os/lib/libmpa/mpa_div.c:180
    4c64:	910373a0 	add	x0, x29, #0xdc
    4c68:	93407eb5 	sxtw	x21, w21
    4c6c:	f9004fa0 	str	x0, [x29,#152]
    4c70:	91002294 	add	x20, x20, #0x8
    4c74:	910383a0 	add	x0, x29, #0xe0
    4c78:	f90037a0 	str	x0, [x29,#104]
/home/lagadanu/Desktop/qemu/optee_os/lib/libmpa/mpa_div.c:184
    4c7c:	910393a0 	add	x0, x29, #0xe4
    4c80:	f9004ba0 	str	x0, [x29,#144]
/home/lagadanu/Desktop/qemu/optee_os/lib/libmpa/mpa_div.c:156
    4c84:	b940cfa0 	ldr	w0, [x29,#204]
    4c88:	2a1b03fc 	mov	w28, w27
    4c8c:	6b1b001f 	cmp	w0, w27
    4c90:	540007ed 	b.le	4d8c <__mpa_div_q_r+0x374>
    4c94:	b980cba0 	ldrsw	x0, [x29,#200]
    4c98:	2a0003e1 	mov	w1, w0
/home/lagadanu/Desktop/qemu/optee_os/lib/libmpa/mpa_div.c:217
    4c9c:	36f81be0 	tbz	w0, #31, 5018 <__mpa_div_q_r+0x600>
/home/lagadanu/Desktop/qemu/optee_os/lib/libmpa/mpa_div.c:219
    4ca0:	11000421 	add	w1, w1, #0x1
    4ca4:	b9000661 	str	w1, [x19,#4]
/home/lagadanu/Desktop/qemu/optee_os/lib/libmpa/mpa_div.c:223
    4ca8:	f9407fa1 	ldr	x1, [x29,#248]
    4cac:	2a1903e2 	mov	w2, w25
    4cb0:	aa0103e0 	mov	x0, x1
    4cb4:	9400054d 	bl	61e8 <mpa_shift_right>
/home/lagadanu/Desktop/qemu/optee_os/lib/libmpa/mpa_div.c:224
    4cb8:	f9407fa1 	ldr	x1, [x29,#248]
    4cbc:	aa1803e0 	mov	x0, x24
    4cc0:	97fffc86 	bl	3ed8 <mpa_copy>
/home/lagadanu/Desktop/qemu/optee_os/lib/libmpa/mpa_div.c:229
    4cc4:	f9405fa0 	ldr	x0, [x29,#184]
    4cc8:	aa1703e1 	mov	x1, x23
    4ccc:	94000366 	bl	5a64 <mpa_free_static_temp_var>
/home/lagadanu/Desktop/qemu/optee_os/lib/libmpa/mpa_div.c:230
    4cd0:	f9405ba0 	ldr	x0, [x29,#176]
    4cd4:	aa1703e1 	mov	x1, x23
    4cd8:	94000363 	bl	5a64 <mpa_free_static_temp_var>
/home/lagadanu/Desktop/qemu/optee_os/lib/libmpa/mpa_div.c:231
    4cdc:	f94057a0 	ldr	x0, [x29,#168]
    4ce0:	aa1703e1 	mov	x1, x23
    4ce4:	94000360 	bl	5a64 <mpa_free_static_temp_var>
__mpa_div_q_r():
/home/lagadanu/Desktop/qemu/optee_os/lib/libmpa/mpa_div.c:336
    4ce8:	b9400660 	ldr	w0, [x19,#4]
    4cec:	12800001 	mov	w1, #0xffffffff            	// #-1
    4cf0:	b940c3a2 	ldr	w2, [x29,#192]
    4cf4:	6b01001f 	cmp	w0, w1
    4cf8:	5a81d421 	cneg	w1, w1, gt
    4cfc:	6b01005f 	cmp	w2, w1
    4d00:	54000060 	b.eq	4d0c <__mpa_div_q_r+0x2f4>
/home/lagadanu/Desktop/qemu/optee_os/lib/libmpa/mpa_div.c:336 (discriminator 5)
    4d04:	4b0003e0 	neg	w0, w0
    4d08:	b9000660 	str	w0, [x19,#4]
/home/lagadanu/Desktop/qemu/optee_os/lib/libmpa/mpa_div.c:337
    4d0c:	b9400701 	ldr	w1, [x24,#4]
    4d10:	12800000 	mov	w0, #0xffffffff            	// #-1
    4d14:	b9400743 	ldr	w3, [x26,#4]
    4d18:	6b00003f 	cmp	w1, w0
    4d1c:	5a80d402 	cneg	w2, w0, gt
    4d20:	6b00007f 	cmp	w3, w0
    4d24:	5a80d400 	cneg	w0, w0, gt
    4d28:	6b00005f 	cmp	w2, w0
    4d2c:	54ffe920 	b.eq	4a50 <__mpa_div_q_r+0x38>
/home/lagadanu/Desktop/qemu/optee_os/lib/libmpa/mpa_div.c:337 (discriminator 9)
    4d30:	4b0103e1 	neg	w1, w1
    4d34:	b9000701 	str	w1, [x24,#4]
    4d38:	17ffff46 	b	4a50 <__mpa_div_q_r+0x38>
__mpa_div_q_r_internal():
/home/lagadanu/Desktop/qemu/optee_os/lib/libmpa/mpa_div.c:123
    4d3c:	11000739 	add	w25, w25, #0x1
/home/lagadanu/Desktop/qemu/optee_os/lib/libmpa/mpa_div.c:124
    4d40:	531f7800 	lsl	w0, w0, #1
    4d44:	52800022 	mov	w2, #0x1                   	// #1
    4d48:	17ffff7f 	b	4b44 <__mpa_div_q_r+0x12c>
/home/lagadanu/Desktop/qemu/optee_os/lib/libmpa/mpa_div.c:147
    4d4c:	b9400425 	ldr	w5, [x1,#4]
/home/lagadanu/Desktop/qemu/optee_os/lib/libmpa/mpa_div.c:146
    4d50:	51000400 	sub	w0, w0, #0x1
/home/lagadanu/Desktop/qemu/optee_os/lib/libmpa/mpa_div.c:147
    4d54:	52800006 	mov	w6, #0x0                   	// #0
    4d58:	710000bf 	cmp	w5, #0x0
    4d5c:	5a85a4a5 	cneg	w5, w5, lt
    4d60:	6b05001f 	cmp	w0, w5
    4d64:	5400004a 	b.ge	4d6c <__mpa_div_q_r+0x354>
    4d68:	b8636826 	ldr	w6, [x1,x3]
    4d6c:	52800005 	mov	w5, #0x0                   	// #0
    4d70:	6b00009f 	cmp	w4, w0
    4d74:	5400004d 	b.le	4d7c <__mpa_div_q_r+0x364>
    4d78:	b8636845 	ldr	w5, [x2,x3]
    4d7c:	6b0500df 	cmp	w6, w5
    4d80:	d1001063 	sub	x3, x3, #0x4
    4d84:	1a9f17e5 	cset	w5, eq
    4d88:	17ffff91 	b	4bcc <__mpa_div_q_r+0x1b4>
/home/lagadanu/Desktop/qemu/optee_os/lib/libmpa/mpa_div.c:157
    4d8c:	f9407fa5 	ldr	x5, [x29,#248]
    4d90:	52800001 	mov	w1, #0x0                   	// #0
    4d94:	b94004a0 	ldr	w0, [x5,#4]
    4d98:	7100001f 	cmp	w0, #0x0
    4d9c:	5a80a403 	cneg	w3, w0, lt
    4da0:	6b1b007f 	cmp	w3, w27
    4da4:	5400006d 	b.le	4db0 <__mpa_div_q_r+0x398>
    4da8:	8b3cc8a0 	add	x0, x5, w28, sxtw #2
    4dac:	b9400801 	ldr	w1, [x0,#8]
/home/lagadanu/Desktop/qemu/optee_os/lib/libmpa/mpa_div.c:158
    4db0:	f9407ba6 	ldr	x6, [x29,#240]
    4db4:	110006c0 	add	w0, w22, #0x1
    4db8:	b9008fa0 	str	w0, [x29,#140]
    4dbc:	110006c4 	add	w4, w22, #0x1
    4dc0:	52800002 	mov	w2, #0x0                   	// #0
    4dc4:	b94004c0 	ldr	w0, [x6,#4]
    4dc8:	7100001f 	cmp	w0, #0x0
    4dcc:	5a80a400 	cneg	w0, w0, lt
    4dd0:	6b04001f 	cmp	w0, w4
    4dd4:	5400006b 	b.lt	4de0 <__mpa_div_q_r+0x3c8>
    4dd8:	8b36c8c6 	add	x6, x6, w22, sxtw #2
    4ddc:	b94008c2 	ldr	w2, [x6,#8]
    4de0:	b940cfa0 	ldr	w0, [x29,#204]
/home/lagadanu/Desktop/qemu/optee_os/lib/libmpa/mpa_div.c:157
    4de4:	6b02003f 	cmp	w1, w2
    4de8:	4b000360 	sub	w0, w27, w0
    4dec:	b900c7a0 	str	w0, [x29,#196]
    4df0:	54000561 	b.ne	4e9c <__mpa_div_q_r+0x484>
/home/lagadanu/Desktop/qemu/optee_os/lib/libmpa/mpa_div.c:159
    4df4:	8b20ca60 	add	x0, x19, w0, sxtw #2
    4df8:	12800001 	mov	w1, #0xffffffff            	// #-1
    4dfc:	b9000801 	str	w1, [x0,#8]
/home/lagadanu/Desktop/qemu/optee_os/lib/libmpa/mpa_div.c:195
    4e00:	510006a0 	sub	w0, w21, #0x1
    4e04:	937e7c00 	sbfiz	x0, x0, #2, #32
    4e08:	f90043a0 	str	x0, [x29,#128]
/home/lagadanu/Desktop/qemu/optee_os/lib/libmpa/mpa_div.c:180
    4e0c:	510006c0 	sub	w0, w22, #0x1
    4e10:	93407c00 	sxtw	x0, w0
    4e14:	f9003fa0 	str	x0, [x29,#120]
/home/lagadanu/Desktop/qemu/optee_os/lib/libmpa/mpa_div.c:174
    4e18:	f9407ba3 	ldr	x3, [x29,#240]
/home/lagadanu/Desktop/qemu/optee_os/lib/libmpa/mpa_div.c:173
    4e1c:	b9408fa4 	ldr	w4, [x29,#140]
/home/lagadanu/Desktop/qemu/optee_os/lib/libmpa/mpa_div.c:170
    4e20:	b900d7bf 	str	wzr, [x29,#212]
/home/lagadanu/Desktop/qemu/optee_os/lib/libmpa/mpa_div.c:171
    4e24:	b900dfbf 	str	wzr, [x29,#220]
/home/lagadanu/Desktop/qemu/optee_os/lib/libmpa/mpa_div.c:174
    4e28:	b9400461 	ldr	w1, [x3,#4]
/home/lagadanu/Desktop/qemu/optee_os/lib/libmpa/mpa_div.c:172
    4e2c:	b900e7bf 	str	wzr, [x29,#228]
/home/lagadanu/Desktop/qemu/optee_os/lib/libmpa/mpa_div.c:174
    4e30:	7100003f 	cmp	w1, #0x0
/home/lagadanu/Desktop/qemu/optee_os/lib/libmpa/mpa_div.c:173
    4e34:	b9400280 	ldr	w0, [x20]
/home/lagadanu/Desktop/qemu/optee_os/lib/libmpa/mpa_div.c:174
    4e38:	5a81a422 	cneg	w2, w1, lt
/home/lagadanu/Desktop/qemu/optee_os/lib/libmpa/mpa_div.c:173
    4e3c:	52800001 	mov	w1, #0x0                   	// #0
    4e40:	6b04005f 	cmp	w2, w4
    4e44:	5400006b 	b.lt	4e50 <__mpa_div_q_r+0x438>
    4e48:	8b36c863 	add	x3, x3, w22, sxtw #2
    4e4c:	b9400861 	ldr	w1, [x3,#8]
    4e50:	f94053a2 	ldr	x2, [x29,#160]
    4e54:	f9403ba3 	ldr	x3, [x29,#112]
    4e58:	9400030a 	bl	5a80 <__mpa_mul_add_word>
/home/lagadanu/Desktop/qemu/optee_os/lib/libmpa/mpa_div.c:177
    4e5c:	f9407fa1 	ldr	x1, [x29,#248]
    4e60:	52800002 	mov	w2, #0x0                   	// #0
    4e64:	b9400420 	ldr	w0, [x1,#4]
    4e68:	7100001f 	cmp	w0, #0x0
    4e6c:	5a80a400 	cneg	w0, w0, lt
    4e70:	6b00039f 	cmp	w28, w0
    4e74:	5400006a 	b.ge	4e80 <__mpa_div_q_r+0x468>
    4e78:	8b3cc821 	add	x1, x1, w28, sxtw #2
    4e7c:	b9400822 	ldr	w2, [x1,#8]
    4e80:	b940d7a0 	ldr	w0, [x29,#212]
    4e84:	6b02001f 	cmp	w0, w2
    4e88:	54000209 	b.ls	4ec8 <__mpa_div_q_r+0x4b0>
/home/lagadanu/Desktop/qemu/optee_os/lib/libmpa/mpa_div.c:199
    4e8c:	b9400280 	ldr	w0, [x20]
    4e90:	51000400 	sub	w0, w0, #0x1
    4e94:	b9000280 	str	w0, [x20]
    4e98:	17ffffe0 	b	4e18 <__mpa_div_q_r+0x400>
/home/lagadanu/Desktop/qemu/optee_os/lib/libmpa/mpa_div.c:162
    4e9c:	52800000 	mov	w0, #0x0                   	// #0
    4ea0:	6b1c007f 	cmp	w3, w28
    4ea4:	5400006b 	b.lt	4eb0 <__mpa_div_q_r+0x498>
    4ea8:	8b35c8a5 	add	x5, x5, w21, sxtw #2
    4eac:	b94008a0 	ldr	w0, [x5,#8]
    4eb0:	d2800003 	mov	x3, #0x0                   	// #0
    4eb4:	97fffe73 	bl	4880 <__mpa_div_dword>
/home/lagadanu/Desktop/qemu/optee_os/lib/libmpa/mpa_div.c:161
    4eb8:	b940c7a1 	ldr	w1, [x29,#196]
    4ebc:	8b21ca61 	add	x1, x19, w1, sxtw #2
    4ec0:	b9000820 	str	w0, [x1,#8]
    4ec4:	17ffffcf 	b	4e00 <__mpa_div_q_r+0x3e8>
/home/lagadanu/Desktop/qemu/optee_os/lib/libmpa/mpa_div.c:181
    4ec8:	f9407ba3 	ldr	x3, [x29,#240]
/home/lagadanu/Desktop/qemu/optee_os/lib/libmpa/mpa_div.c:180
    4ecc:	b9400280 	ldr	w0, [x20]
/home/lagadanu/Desktop/qemu/optee_os/lib/libmpa/mpa_div.c:181
    4ed0:	b9400461 	ldr	w1, [x3,#4]
    4ed4:	7100003f 	cmp	w1, #0x0
    4ed8:	5a81a422 	cneg	w2, w1, lt
/home/lagadanu/Desktop/qemu/optee_os/lib/libmpa/mpa_div.c:180
    4edc:	52800001 	mov	w1, #0x0                   	// #0
    4ee0:	6b0202df 	cmp	w22, w2
    4ee4:	5400008c 	b.gt	4ef4 <__mpa_div_q_r+0x4dc>
    4ee8:	f9403fa1 	ldr	x1, [x29,#120]
    4eec:	8b010863 	add	x3, x3, x1, lsl #2
    4ef0:	b9400861 	ldr	w1, [x3,#8]
    4ef4:	f94037a2 	ldr	x2, [x29,#104]
    4ef8:	f9404fa3 	ldr	x3, [x29,#152]
    4efc:	940002e1 	bl	5a80 <__mpa_mul_add_word>
/home/lagadanu/Desktop/qemu/optee_os/lib/libmpa/mpa_div.c:184
    4f00:	295b07a0 	ldp	w0, w1, [x29,#216]
    4f04:	a9490ba3 	ldp	x3, x2, [x29,#144]
    4f08:	94000509 	bl	632c <__mpa_full_adder>
/home/lagadanu/Desktop/qemu/optee_os/lib/libmpa/mpa_div.c:185
    4f0c:	b900dbbf 	str	wzr, [x29,#216]
/home/lagadanu/Desktop/qemu/optee_os/lib/libmpa/mpa_div.c:186
    4f10:	f9404ba2 	ldr	x2, [x29,#144]
    4f14:	b940d7a0 	ldr	w0, [x29,#212]
    4f18:	b940e7a1 	ldr	w1, [x29,#228]
    4f1c:	f94053a3 	ldr	x3, [x29,#160]
    4f20:	94000503 	bl	632c <__mpa_full_adder>
/home/lagadanu/Desktop/qemu/optee_os/lib/libmpa/mpa_div.c:187
    4f24:	b940dba2 	ldr	w2, [x29,#216]
    4f28:	35fffb22 	cbnz	w2, 4e8c <__mpa_div_q_r+0x474>
    4f2c:	f9407fa1 	ldr	x1, [x29,#248]
    4f30:	52800003 	mov	w3, #0x0                   	// #0
    4f34:	b9400420 	ldr	w0, [x1,#4]
    4f38:	7100001f 	cmp	w0, #0x0
    4f3c:	5a80a400 	cneg	w0, w0, lt
    4f40:	6b00039f 	cmp	w28, w0
    4f44:	5400006a 	b.ge	4f50 <__mpa_div_q_r+0x538>
    4f48:	8b3cc823 	add	x3, x1, w28, sxtw #2
    4f4c:	b9400863 	ldr	w3, [x3,#8]
    4f50:	b940e7a5 	ldr	w5, [x29,#228]
    4f54:	6b0300bf 	cmp	w5, w3
    4f58:	54fff9a8 	b.hi	4e8c <__mpa_div_q_r+0x474>
/home/lagadanu/Desktop/qemu/optee_os/lib/libmpa/mpa_div.c:189
    4f5c:	54000243 	b.cc	4fa4 <__mpa_div_q_r+0x58c>
/home/lagadanu/Desktop/qemu/optee_os/lib/libmpa/mpa_div.c:191
    4f60:	52800003 	mov	w3, #0x0                   	// #0
    4f64:	6b00039f 	cmp	w28, w0
    4f68:	5400006c 	b.gt	4f74 <__mpa_div_q_r+0x55c>
    4f6c:	8b35c823 	add	x3, x1, w21, sxtw #2
    4f70:	b9400863 	ldr	w3, [x3,#8]
    4f74:	b940dfa5 	ldr	w5, [x29,#220]
    4f78:	6b0300bf 	cmp	w5, w3
    4f7c:	54fff888 	b.hi	4e8c <__mpa_div_q_r+0x474>
/home/lagadanu/Desktop/qemu/optee_os/lib/libmpa/mpa_div.c:193
    4f80:	54000123 	b.cc	4fa4 <__mpa_div_q_r+0x58c>
/home/lagadanu/Desktop/qemu/optee_os/lib/libmpa/mpa_div.c:195
    4f84:	6b15001f 	cmp	w0, w21
    4f88:	5400008b 	b.lt	4f98 <__mpa_div_q_r+0x580>
    4f8c:	f94043a0 	ldr	x0, [x29,#128]
    4f90:	8b000021 	add	x1, x1, x0
    4f94:	b9400822 	ldr	w2, [x1,#8]
    4f98:	b940e3a0 	ldr	w0, [x29,#224]
    4f9c:	6b02001f 	cmp	w0, w2
    4fa0:	54fff768 	b.hi	4e8c <__mpa_div_q_r+0x474>
/home/lagadanu/Desktop/qemu/optee_os/lib/libmpa/mpa_div.c:203
    4fa4:	f9407ba0 	ldr	x0, [x29,#240]
    4fa8:	52800021 	mov	w1, #0x1                   	// #1
    4fac:	94000412 	bl	5ff4 <__mpa_shift_words_right>
    4fb0:	b940c7a0 	ldr	w0, [x29,#196]
/home/lagadanu/Desktop/qemu/optee_os/lib/libmpa/mpa_div.c:205
    4fb4:	aa1703e3 	mov	x3, x23
    4fb8:	8b20ca7c 	add	x28, x19, w0, sxtw #2
    4fbc:	a94e87a0 	ldp	x0, x1, [x29,#232]
    4fc0:	b9400b82 	ldr	w2, [x28,#8]
    4fc4:	94000359 	bl	5d28 <mpa_mul_word>
/home/lagadanu/Desktop/qemu/optee_os/lib/libmpa/mpa_div.c:206
    4fc8:	f9407fa1 	ldr	x1, [x29,#248]
    4fcc:	aa1703e3 	mov	x3, x23
    4fd0:	f94077a2 	ldr	x2, [x29,#232]
    4fd4:	aa0103e0 	mov	x0, x1
    4fd8:	94000603 	bl	67e4 <mpa_sub>
/home/lagadanu/Desktop/qemu/optee_os/lib/libmpa/mpa_div.c:207
    4fdc:	f9407fa1 	ldr	x1, [x29,#248]
    4fe0:	b9400420 	ldr	w0, [x1,#4]
    4fe4:	36f80100 	tbz	w0, #31, 5004 <__mpa_div_q_r+0x5ec>
/home/lagadanu/Desktop/qemu/optee_os/lib/libmpa/mpa_div.c:208
    4fe8:	f9407ba2 	ldr	x2, [x29,#240]
    4fec:	aa0103e0 	mov	x0, x1
    4ff0:	aa1703e3 	mov	x3, x23
    4ff4:	94000597 	bl	6650 <mpa_add>
/home/lagadanu/Desktop/qemu/optee_os/lib/libmpa/mpa_div.c:209
    4ff8:	b9400b80 	ldr	w0, [x28,#8]
    4ffc:	51000400 	sub	w0, w0, #0x1
    5000:	b9000b80 	str	w0, [x28,#8]
    5004:	d100077b 	sub	x27, x27, #0x1
    5008:	d10006b5 	sub	x21, x21, #0x1
    500c:	d1001294 	sub	x20, x20, #0x4
    5010:	510006d6 	sub	w22, w22, #0x1
    5014:	17ffff1c 	b	4c84 <__mpa_div_q_r+0x26c>
    5018:	d1000400 	sub	x0, x0, #0x1
/home/lagadanu/Desktop/qemu/optee_os/lib/libmpa/mpa_div.c:217
    501c:	8b000a62 	add	x2, x19, x0, lsl #2
    5020:	b9400c42 	ldr	w2, [x2,#12]
    5024:	34ffe3a2 	cbz	w2, 4c98 <__mpa_div_q_r+0x280>
    5028:	17ffff1e 	b	4ca0 <__mpa_div_q_r+0x288>
__mpa_div_q_r():
/home/lagadanu/Desktop/qemu/optee_os/lib/libmpa/mpa_div.c:330
    502c:	b9400a83 	ldr	w3, [x20,#8]
    5030:	aa1a03e2 	mov	x2, x26
    5034:	aa1803e1 	mov	x1, x24
    5038:	aa1303e0 	mov	x0, x19
    503c:	97fffe25 	bl	48d0 <__mpa_div_q_r_internal_word>
    5040:	17ffff2a 	b	4ce8 <__mpa_div_q_r+0x2d0>
/home/lagadanu/Desktop/qemu/optee_os/lib/libmpa/mpa_div.c:332
    5044:	aa1303e0 	mov	x0, x19
    5048:	52800001 	mov	w1, #0x0                   	// #0
    504c:	97fffe02 	bl	4854 <mpa_set_word>
/home/lagadanu/Desktop/qemu/optee_os/lib/libmpa/mpa_div.c:333
    5050:	aa1a03e1 	mov	x1, x26
    5054:	aa1803e0 	mov	x0, x24
    5058:	97fffba0 	bl	3ed8 <mpa_copy>
/home/lagadanu/Desktop/qemu/optee_os/lib/libmpa/mpa_div.c:334
    505c:	17fffe7d 	b	4a50 <__mpa_div_q_r+0x38>
/home/lagadanu/Desktop/qemu/optee_os/lib/libmpa/mpa_div.c:319
    5060:	12800001 	mov	w1, #0xffffffff            	// #-1
    5064:	6b01001f 	cmp	w0, w1
    5068:	5a81d420 	cneg	w0, w1, gt
    506c:	b900c3a0 	str	w0, [x29,#192]
/home/lagadanu/Desktop/qemu/optee_os/lib/libmpa/mpa_div.c:320
    5070:	aa1403e1 	mov	x1, x20
    5074:	aa1a03e0 	mov	x0, x26
    5078:	940006ea 	bl	6c20 <__mpa_abs_cmp>
/home/lagadanu/Desktop/qemu/optee_os/lib/libmpa/mpa_div.c:321
    507c:	7100001f 	cmp	w0, #0x0
    5080:	54ffd0c1 	b.ne	4a98 <__mpa_div_q_r+0x80>
/home/lagadanu/Desktop/qemu/optee_os/lib/libmpa/mpa_div.c:322
    5084:	52800021 	mov	w1, #0x1                   	// #1
    5088:	aa1303e0 	mov	x0, x19
    508c:	17fffe6d 	b	4a40 <__mpa_div_q_r+0x28>
__mpa_div_q_r_internal():
/home/lagadanu/Desktop/qemu/optee_os/lib/libmpa/mpa_div.c:149
    5090:	6b00009f 	cmp	w4, w0
    5094:	54ffdced 	b.le	4c30 <__mpa_div_q_r+0x218>
    5098:	52800003 	mov	w3, #0x0                   	// #0
    509c:	17fffeda 	b	4c04 <__mpa_div_q_r+0x1ec>

00000000000050a0 <mpa_div>:
mpa_div():
/home/lagadanu/Desktop/qemu/optee_os/lib/libmpa/mpa_div.c:357
    50a0:	a9ba7bfd 	stp	x29, x30, [sp,#-96]!
/home/lagadanu/Desktop/qemu/optee_os/lib/libmpa/mpa_div.c:364
    50a4:	eb02001f 	cmp	x0, x2
    50a8:	fa431004 	ccmp	x0, x3, #0x4, ne
/home/lagadanu/Desktop/qemu/optee_os/lib/libmpa/mpa_div.c:357
    50ac:	910003fd 	mov	x29, sp
    50b0:	a90153f3 	stp	x19, x20, [sp,#16]
/home/lagadanu/Desktop/qemu/optee_os/lib/libmpa/mpa_div.c:364
    50b4:	fa401804 	ccmp	x0, #0x0, #0x4, ne
/home/lagadanu/Desktop/qemu/optee_os/lib/libmpa/mpa_div.c:357
    50b8:	a9025bf5 	stp	x21, x22, [sp,#32]
    50bc:	aa0003f4 	mov	x20, x0
    50c0:	a90363f7 	stp	x23, x24, [sp,#48]
    50c4:	aa0103f3 	mov	x19, x1
    50c8:	f90023f9 	str	x25, [sp,#64]
    50cc:	aa0203f6 	mov	x22, x2
    50d0:	aa0303f7 	mov	x23, x3
    50d4:	aa0403f5 	mov	x21, x4
/home/lagadanu/Desktop/qemu/optee_os/lib/libmpa/mpa_div.c:364
    50d8:	54000501 	b.ne	5178 <mpa_div+0xd8>
/home/lagadanu/Desktop/qemu/optee_os/lib/libmpa/mpa_div.c:366
    50dc:	52800039 	mov	w25, #0x1                   	// #1
/home/lagadanu/Desktop/qemu/optee_os/lib/libmpa/mpa_div.c:365
    50e0:	aa0403e1 	mov	x1, x4
    50e4:	910143a0 	add	x0, x29, #0x50
    50e8:	9400025b 	bl	5a54 <mpa_alloc_static_temp_var>
/home/lagadanu/Desktop/qemu/optee_os/lib/libmpa/mpa_div.c:373
    50ec:	f100027f 	cmp	x19, #0x0
    50f0:	fa5312e4 	ccmp	x23, x19, #0x4, ne
    50f4:	fa5312c4 	ccmp	x22, x19, #0x4, ne
    50f8:	54000461 	b.ne	5184 <mpa_div+0xe4>
/home/lagadanu/Desktop/qemu/optee_os/lib/libmpa/mpa_div.c:375
    50fc:	52800038 	mov	w24, #0x1                   	// #1
/home/lagadanu/Desktop/qemu/optee_os/lib/libmpa/mpa_div.c:374
    5100:	aa1503e1 	mov	x1, x21
    5104:	910163a0 	add	x0, x29, #0x58
    5108:	94000253 	bl	5a54 <mpa_alloc_static_temp_var>
/home/lagadanu/Desktop/qemu/optee_os/lib/libmpa/mpa_div.c:381
    510c:	a94507a0 	ldp	x0, x1, [x29,#80]
    5110:	aa1503e4 	mov	x4, x21
    5114:	aa1703e3 	mov	x3, x23
    5118:	aa1603e2 	mov	x2, x22
    511c:	97fffe3f 	bl	4a18 <__mpa_div_q_r>
/home/lagadanu/Desktop/qemu/optee_os/lib/libmpa/mpa_div.c:383
    5120:	b4000094 	cbz	x20, 5130 <mpa_div+0x90>
/home/lagadanu/Desktop/qemu/optee_os/lib/libmpa/mpa_div.c:384
    5124:	f9402ba1 	ldr	x1, [x29,#80]
    5128:	aa1403e0 	mov	x0, x20
    512c:	97fffb6b 	bl	3ed8 <mpa_copy>
/home/lagadanu/Desktop/qemu/optee_os/lib/libmpa/mpa_div.c:385
    5130:	34000099 	cbz	w25, 5140 <mpa_div+0xa0>
/home/lagadanu/Desktop/qemu/optee_os/lib/libmpa/mpa_div.c:386
    5134:	aa1503e1 	mov	x1, x21
    5138:	910143a0 	add	x0, x29, #0x50
    513c:	9400024a 	bl	5a64 <mpa_free_static_temp_var>
/home/lagadanu/Desktop/qemu/optee_os/lib/libmpa/mpa_div.c:387
    5140:	b4000093 	cbz	x19, 5150 <mpa_div+0xb0>
/home/lagadanu/Desktop/qemu/optee_os/lib/libmpa/mpa_div.c:388
    5144:	f9402fa1 	ldr	x1, [x29,#88]
    5148:	aa1303e0 	mov	x0, x19
    514c:	97fffb63 	bl	3ed8 <mpa_copy>
/home/lagadanu/Desktop/qemu/optee_os/lib/libmpa/mpa_div.c:389
    5150:	34000098 	cbz	w24, 5160 <mpa_div+0xc0>
/home/lagadanu/Desktop/qemu/optee_os/lib/libmpa/mpa_div.c:390
    5154:	aa1503e1 	mov	x1, x21
    5158:	910163a0 	add	x0, x29, #0x58
    515c:	94000242 	bl	5a64 <mpa_free_static_temp_var>
/home/lagadanu/Desktop/qemu/optee_os/lib/libmpa/mpa_div.c:391
    5160:	a94153f3 	ldp	x19, x20, [sp,#16]
    5164:	a9425bf5 	ldp	x21, x22, [sp,#32]
    5168:	a94363f7 	ldp	x23, x24, [sp,#48]
    516c:	f94023f9 	ldr	x25, [sp,#64]
    5170:	a8c67bfd 	ldp	x29, x30, [sp],#96
    5174:	d65f03c0 	ret
/home/lagadanu/Desktop/qemu/optee_os/lib/libmpa/mpa_div.c:369
    5178:	52800019 	mov	w25, #0x0                   	// #0
/home/lagadanu/Desktop/qemu/optee_os/lib/libmpa/mpa_div.c:368
    517c:	f9002ba0 	str	x0, [x29,#80]
    5180:	17ffffdb 	b	50ec <mpa_div+0x4c>
/home/lagadanu/Desktop/qemu/optee_os/lib/libmpa/mpa_div.c:378
    5184:	52800018 	mov	w24, #0x0                   	// #0
/home/lagadanu/Desktop/qemu/optee_os/lib/libmpa/mpa_div.c:377
    5188:	f9002fb3 	str	x19, [x29,#88]
    518c:	17ffffe0 	b	510c <mpa_div+0x6c>

0000000000005190 <__mpa_divby2>:
__mpa_divby2():
/home/lagadanu/Desktop/qemu/optee_os/lib/libmpa/mpa_gcd.c:25
    5190:	b9400403 	ldr	w3, [x0,#4]
    5194:	7100007f 	cmp	w3, #0x0
    5198:	540002a0 	b.eq	51ec <__mpa_divby2+0x5c>
/home/lagadanu/Desktop/qemu/optee_os/lib/libmpa/mpa_gcd.c:28
    519c:	5a83a466 	cneg	w6, w3, lt
/home/lagadanu/Desktop/qemu/optee_os/lib/libmpa/mpa_gcd.c:30
    51a0:	b9400804 	ldr	w4, [x0,#8]
/home/lagadanu/Desktop/qemu/optee_os/lib/libmpa/mpa_gcd.c:28
    51a4:	510004c1 	sub	w1, w6, #0x1
/home/lagadanu/Desktop/qemu/optee_os/lib/libmpa/mpa_gcd.c:31
    51a8:	52800025 	mov	w5, #0x1                   	// #1
/home/lagadanu/Desktop/qemu/optee_os/lib/libmpa/mpa_gcd.c:28
    51ac:	8b21c801 	add	x1, x0, w1, sxtw #2
/home/lagadanu/Desktop/qemu/optee_os/lib/libmpa/mpa_gcd.c:30
    51b0:	53017c84 	lsr	w4, w4, #1
/home/lagadanu/Desktop/qemu/optee_os/lib/libmpa/mpa_gcd.c:28
    51b4:	b9400821 	ldr	w1, [x1,#8]
    51b8:	53017c21 	lsr	w1, w1, #1
    51bc:	7100003f 	cmp	w1, #0x0
/home/lagadanu/Desktop/qemu/optee_os/lib/libmpa/mpa_gcd.c:30
    51c0:	aa0003e1 	mov	x1, x0
/home/lagadanu/Desktop/qemu/optee_os/lib/libmpa/mpa_gcd.c:28
    51c4:	1a9f17e2 	cset	w2, eq
/home/lagadanu/Desktop/qemu/optee_os/lib/libmpa/mpa_gcd.c:30
    51c8:	b8008c24 	str	w4, [x1,#8]!
    51cc:	91001021 	add	x1, x1, #0x4
/home/lagadanu/Desktop/qemu/optee_os/lib/libmpa/mpa_gcd.c:31 (discriminator 1)
    51d0:	6b0600bf 	cmp	w5, w6
    51d4:	540000e3 	b.cc	51f0 <__mpa_divby2+0x60>
/home/lagadanu/Desktop/qemu/optee_os/lib/libmpa/mpa_gcd.c:38
    51d8:	4b020061 	sub	w1, w3, w2
    51dc:	7100007f 	cmp	w3, #0x0
    51e0:	0b020062 	add	w2, w3, w2
    51e4:	1a81b042 	csel	w2, w2, w1, lt
    51e8:	b9000402 	str	w2, [x0,#4]
    51ec:	d65f03c0 	ret
/home/lagadanu/Desktop/qemu/optee_os/lib/libmpa/mpa_gcd.c:32 (discriminator 3)
    51f0:	b9400024 	ldr	w4, [x1]
/home/lagadanu/Desktop/qemu/optee_os/lib/libmpa/mpa_gcd.c:31 (discriminator 3)
    51f4:	110004a5 	add	w5, w5, #0x1
/home/lagadanu/Desktop/qemu/optee_os/lib/libmpa/mpa_gcd.c:33 (discriminator 3)
    51f8:	53017c87 	lsr	w7, w4, #1
    51fc:	b9000027 	str	w7, [x1]
/home/lagadanu/Desktop/qemu/optee_os/lib/libmpa/mpa_gcd.c:34 (discriminator 3)
    5200:	b85fc027 	ldur	w7, [x1,#-4]
    5204:	4a047ce4 	eor	w4, w7, w4, lsl #31
    5208:	b81fc024 	stur	w4, [x1,#-4]
    520c:	17fffff0 	b	51cc <__mpa_divby2+0x3c>

0000000000005210 <__mpa_gcd.part.0>:
__mpa_gcd():
/home/lagadanu/Desktop/qemu/optee_os/lib/libmpa/mpa_gcd.c:190
    5210:	a9ba7bfd 	stp	x29, x30, [sp,#-96]!
    5214:	910003fd 	mov	x29, sp
    5218:	a9025bf5 	stp	x21, x22, [sp,#32]
/home/lagadanu/Desktop/qemu/optee_os/lib/libmpa/mpa_gcd.c:204
    521c:	910123b6 	add	x22, x29, #0x48
/home/lagadanu/Desktop/qemu/optee_os/lib/libmpa/mpa_gcd.c:190
    5220:	a90153f3 	stp	x19, x20, [sp,#16]
    5224:	aa0103f5 	mov	x21, x1
    5228:	aa0203f4 	mov	x20, x2
    522c:	aa0303f3 	mov	x19, x3
/home/lagadanu/Desktop/qemu/optee_os/lib/libmpa/mpa_gcd.c:204
    5230:	aa0303e1 	mov	x1, x3
/home/lagadanu/Desktop/qemu/optee_os/lib/libmpa/mpa_gcd.c:190
    5234:	a90363f7 	stp	x23, x24, [sp,#48]
    5238:	aa0003f8 	mov	x24, x0
/home/lagadanu/Desktop/qemu/optee_os/lib/libmpa/mpa_gcd.c:204
    523c:	aa1603e0 	mov	x0, x22
    5240:	94000205 	bl	5a54 <mpa_alloc_static_temp_var>
/home/lagadanu/Desktop/qemu/optee_os/lib/libmpa/mpa_gcd.c:205
    5244:	f94027a0 	ldr	x0, [x29,#72]
    5248:	aa1503e1 	mov	x1, x21
/home/lagadanu/Desktop/qemu/optee_os/lib/libmpa/mpa_gcd.c:206
    524c:	910143b5 	add	x21, x29, #0x50
/home/lagadanu/Desktop/qemu/optee_os/lib/libmpa/mpa_gcd.c:205
    5250:	97fffb22 	bl	3ed8 <mpa_copy>
/home/lagadanu/Desktop/qemu/optee_os/lib/libmpa/mpa_gcd.c:206
    5254:	aa1303e1 	mov	x1, x19
    5258:	aa1503e0 	mov	x0, x21
    525c:	940001fe 	bl	5a54 <mpa_alloc_static_temp_var>
/home/lagadanu/Desktop/qemu/optee_os/lib/libmpa/mpa_gcd.c:207
    5260:	f9402ba0 	ldr	x0, [x29,#80]
    5264:	aa1403e1 	mov	x1, x20
/home/lagadanu/Desktop/qemu/optee_os/lib/libmpa/mpa_gcd.c:209
    5268:	52800014 	mov	w20, #0x0                   	// #0
/home/lagadanu/Desktop/qemu/optee_os/lib/libmpa/mpa_gcd.c:207
    526c:	97fffb1b 	bl	3ed8 <mpa_copy>
/home/lagadanu/Desktop/qemu/optee_os/lib/libmpa/mpa_gcd.c:210
    5270:	f94027a0 	ldr	x0, [x29,#72]
    5274:	97fffb63 	bl	4000 <mpa_parity>
    5278:	34000340 	cbz	w0, 52e0 <__mpa_gcd.part.0+0xd0>
/home/lagadanu/Desktop/qemu/optee_os/lib/libmpa/mpa_gcd.c:216
    527c:	910163b7 	add	x23, x29, #0x58
    5280:	aa1303e1 	mov	x1, x19
    5284:	aa1703e0 	mov	x0, x23
    5288:	940001f3 	bl	5a54 <mpa_alloc_static_temp_var>
/home/lagadanu/Desktop/qemu/optee_os/lib/libmpa/mpa_gcd.c:217
    528c:	f94027a0 	ldr	x0, [x29,#72]
    5290:	b9400400 	ldr	w0, [x0,#4]
    5294:	350003c0 	cbnz	w0, 530c <__mpa_gcd.part.0+0xfc>
/home/lagadanu/Desktop/qemu/optee_os/lib/libmpa/mpa_gcd.c:234
    5298:	f9402ba1 	ldr	x1, [x29,#80]
    529c:	2a1403e2 	mov	w2, w20
    52a0:	aa1803e0 	mov	x0, x24
    52a4:	9400036d 	bl	6058 <mpa_shift_left>
/home/lagadanu/Desktop/qemu/optee_os/lib/libmpa/mpa_gcd.c:235
    52a8:	aa1303e1 	mov	x1, x19
    52ac:	aa1703e0 	mov	x0, x23
    52b0:	940001ed 	bl	5a64 <mpa_free_static_temp_var>
/home/lagadanu/Desktop/qemu/optee_os/lib/libmpa/mpa_gcd.c:236
    52b4:	aa1303e1 	mov	x1, x19
    52b8:	aa1603e0 	mov	x0, x22
    52bc:	940001ea 	bl	5a64 <mpa_free_static_temp_var>
/home/lagadanu/Desktop/qemu/optee_os/lib/libmpa/mpa_gcd.c:237
    52c0:	aa1303e1 	mov	x1, x19
    52c4:	aa1503e0 	mov	x0, x21
    52c8:	940001e7 	bl	5a64 <mpa_free_static_temp_var>
/home/lagadanu/Desktop/qemu/optee_os/lib/libmpa/mpa_gcd.c:238
    52cc:	a94153f3 	ldp	x19, x20, [sp,#16]
    52d0:	a9425bf5 	ldp	x21, x22, [sp,#32]
    52d4:	a94363f7 	ldp	x23, x24, [sp,#48]
    52d8:	a8c67bfd 	ldp	x29, x30, [sp],#96
    52dc:	d65f03c0 	ret
/home/lagadanu/Desktop/qemu/optee_os/lib/libmpa/mpa_gcd.c:210
    52e0:	f9402ba0 	ldr	x0, [x29,#80]
    52e4:	97fffb47 	bl	4000 <mpa_parity>
    52e8:	35fffca0 	cbnz	w0, 527c <__mpa_gcd.part.0+0x6c>
/home/lagadanu/Desktop/qemu/optee_os/lib/libmpa/mpa_gcd.c:212
    52ec:	f94027a0 	ldr	x0, [x29,#72]
/home/lagadanu/Desktop/qemu/optee_os/lib/libmpa/mpa_gcd.c:211
    52f0:	11000694 	add	w20, w20, #0x1
/home/lagadanu/Desktop/qemu/optee_os/lib/libmpa/mpa_gcd.c:212
    52f4:	97ffffa7 	bl	5190 <__mpa_divby2>
/home/lagadanu/Desktop/qemu/optee_os/lib/libmpa/mpa_gcd.c:213
    52f8:	f9402ba0 	ldr	x0, [x29,#80]
    52fc:	97ffffa5 	bl	5190 <__mpa_divby2>
    5300:	17ffffdc 	b	5270 <__mpa_gcd.part.0+0x60>
/home/lagadanu/Desktop/qemu/optee_os/lib/libmpa/mpa_gcd.c:219
    5304:	f94027a0 	ldr	x0, [x29,#72]
    5308:	97ffffa2 	bl	5190 <__mpa_divby2>
/home/lagadanu/Desktop/qemu/optee_os/lib/libmpa/mpa_gcd.c:218
    530c:	f94027a0 	ldr	x0, [x29,#72]
    5310:	97fffb3c 	bl	4000 <mpa_parity>
    5314:	34ffff80 	cbz	w0, 5304 <__mpa_gcd.part.0+0xf4>
/home/lagadanu/Desktop/qemu/optee_os/lib/libmpa/mpa_gcd.c:221
    5318:	f9402ba0 	ldr	x0, [x29,#80]
    531c:	97fffb39 	bl	4000 <mpa_parity>
    5320:	34000240 	cbz	w0, 5368 <__mpa_gcd.part.0+0x158>
/home/lagadanu/Desktop/qemu/optee_os/lib/libmpa/mpa_gcd.c:224
    5324:	a9448ba1 	ldp	x1, x2, [x29,#72]
    5328:	aa1303e3 	mov	x3, x19
    532c:	f9402fa0 	ldr	x0, [x29,#88]
    5330:	9400052d 	bl	67e4 <mpa_sub>
/home/lagadanu/Desktop/qemu/optee_os/lib/libmpa/mpa_gcd.c:226
    5334:	f9402fa0 	ldr	x0, [x29,#88]
    5338:	b9400401 	ldr	w1, [x0,#4]
    533c:	36f80061 	tbz	w1, #31, 5348 <__mpa_gcd.part.0+0x138>
    5340:	4b0103e1 	neg	w1, w1
    5344:	b9000401 	str	w1, [x0,#4]
/home/lagadanu/Desktop/qemu/optee_os/lib/libmpa/mpa_gcd.c:227
    5348:	97ffff92 	bl	5190 <__mpa_divby2>
/home/lagadanu/Desktop/qemu/optee_os/lib/libmpa/mpa_gcd.c:228
    534c:	a94487a0 	ldp	x0, x1, [x29,#72]
    5350:	9400066d 	bl	6d04 <mpa_cmp>
/home/lagadanu/Desktop/qemu/optee_os/lib/libmpa/mpa_gcd.c:229
    5354:	f9402fa1 	ldr	x1, [x29,#88]
/home/lagadanu/Desktop/qemu/optee_os/lib/libmpa/mpa_gcd.c:228
    5358:	37f800e0 	tbnz	w0, #31, 5374 <__mpa_gcd.part.0+0x164>
/home/lagadanu/Desktop/qemu/optee_os/lib/libmpa/mpa_gcd.c:229
    535c:	f94027a0 	ldr	x0, [x29,#72]
/home/lagadanu/Desktop/qemu/optee_os/lib/libmpa/mpa_gcd.c:231
    5360:	97fffade 	bl	3ed8 <mpa_copy>
    5364:	17ffffca 	b	528c <__mpa_gcd.part.0+0x7c>
/home/lagadanu/Desktop/qemu/optee_os/lib/libmpa/mpa_gcd.c:222
    5368:	f9402ba0 	ldr	x0, [x29,#80]
    536c:	97ffff89 	bl	5190 <__mpa_divby2>
    5370:	17ffffea 	b	5318 <__mpa_gcd.part.0+0x108>
/home/lagadanu/Desktop/qemu/optee_os/lib/libmpa/mpa_gcd.c:231
    5374:	f9402ba0 	ldr	x0, [x29,#80]
    5378:	17fffffa 	b	5360 <__mpa_gcd.part.0+0x150>

000000000000537c <__mpa_egcd>:
__mpa_egcd():
/home/lagadanu/Desktop/qemu/optee_os/lib/libmpa/mpa_gcd.c:94
    537c:	a9b57bfd 	stp	x29, x30, [sp,#-176]!
    5380:	910003fd 	mov	x29, sp
    5384:	a90153f3 	stp	x19, x20, [sp,#16]
    5388:	aa0003f4 	mov	x20, x0
/home/lagadanu/Desktop/qemu/optee_os/lib/libmpa/mpa_gcd.c:105
    538c:	b9400480 	ldr	w0, [x4,#4]
/home/lagadanu/Desktop/qemu/optee_os/lib/libmpa/mpa_gcd.c:94
    5390:	a9025bf5 	stp	x21, x22, [sp,#32]
    5394:	aa0103f6 	mov	x22, x1
    5398:	a9046bf9 	stp	x25, x26, [sp,#64]
    539c:	aa0203f5 	mov	x21, x2
    53a0:	a90363f7 	stp	x23, x24, [sp,#48]
    53a4:	aa0303f9 	mov	x25, x3
    53a8:	a90573fb 	stp	x27, x28, [sp,#80]
/home/lagadanu/Desktop/qemu/optee_os/lib/libmpa/mpa_gcd.c:105
    53ac:	35000260 	cbnz	w0, 53f8 <__mpa_egcd+0x7c>
/home/lagadanu/Desktop/qemu/optee_os/lib/libmpa/mpa_gcd.c:106
    53b0:	b4000081 	cbz	x1, 53c0 <__mpa_egcd+0x44>
/home/lagadanu/Desktop/qemu/optee_os/lib/libmpa/mpa_gcd.c:107
    53b4:	52800021 	mov	w1, #0x1                   	// #1
    53b8:	aa1603e0 	mov	x0, x22
    53bc:	97fffd26 	bl	4854 <mpa_set_word>
/home/lagadanu/Desktop/qemu/optee_os/lib/libmpa/mpa_gcd.c:108
    53c0:	b4000095 	cbz	x21, 53d0 <__mpa_egcd+0x54>
/home/lagadanu/Desktop/qemu/optee_os/lib/libmpa/mpa_gcd.c:109
    53c4:	52800001 	mov	w1, #0x0                   	// #0
    53c8:	aa1503e0 	mov	x0, x21
    53cc:	97fffd22 	bl	4854 <mpa_set_word>
/home/lagadanu/Desktop/qemu/optee_os/lib/libmpa/mpa_gcd.c:110
    53d0:	aa1903e1 	mov	x1, x25
    53d4:	aa1403e0 	mov	x0, x20
    53d8:	97fffac0 	bl	3ed8 <mpa_copy>
/home/lagadanu/Desktop/qemu/optee_os/lib/libmpa/mpa_gcd.c:183
    53dc:	a94153f3 	ldp	x19, x20, [sp,#16]
    53e0:	a9425bf5 	ldp	x21, x22, [sp,#32]
    53e4:	a94363f7 	ldp	x23, x24, [sp,#48]
    53e8:	a9446bf9 	ldp	x25, x26, [sp,#64]
    53ec:	a94573fb 	ldp	x27, x28, [sp,#80]
    53f0:	a8cb7bfd 	ldp	x29, x30, [sp],#176
    53f4:	d65f03c0 	ret
/home/lagadanu/Desktop/qemu/optee_os/lib/libmpa/mpa_gcd.c:113
    53f8:	910263b8 	add	x24, x29, #0x98
    53fc:	aa0403f7 	mov	x23, x4
    5400:	aa0503f3 	mov	x19, x5
    5404:	aa0503e1 	mov	x1, x5
    5408:	aa1803e0 	mov	x0, x24
    540c:	94000192 	bl	5a54 <mpa_alloc_static_temp_var>
/home/lagadanu/Desktop/qemu/optee_os/lib/libmpa/mpa_gcd.c:114
    5410:	f9404fa0 	ldr	x0, [x29,#152]
    5414:	aa1903e1 	mov	x1, x25
    5418:	97fffab0 	bl	3ed8 <mpa_copy>
/home/lagadanu/Desktop/qemu/optee_os/lib/libmpa/mpa_gcd.c:115
    541c:	910283a0 	add	x0, x29, #0xa0
    5420:	aa1303e1 	mov	x1, x19
    5424:	f90037a0 	str	x0, [x29,#104]
    5428:	9400018b 	bl	5a54 <mpa_alloc_static_temp_var>
/home/lagadanu/Desktop/qemu/optee_os/lib/libmpa/mpa_gcd.c:116
    542c:	f94053a0 	ldr	x0, [x29,#160]
    5430:	aa1703e1 	mov	x1, x23
/home/lagadanu/Desktop/qemu/optee_os/lib/libmpa/mpa_gcd.c:118
    5434:	52800017 	mov	w23, #0x0                   	// #0
/home/lagadanu/Desktop/qemu/optee_os/lib/libmpa/mpa_gcd.c:116
    5438:	97fffaa8 	bl	3ed8 <mpa_copy>
/home/lagadanu/Desktop/qemu/optee_os/lib/libmpa/mpa_gcd.c:119
    543c:	f9404fa0 	ldr	x0, [x29,#152]
    5440:	97fffaf0 	bl	4000 <mpa_parity>
    5444:	34000980 	cbz	w0, 5574 <__mpa_egcd+0x1f8>
/home/lagadanu/Desktop/qemu/optee_os/lib/libmpa/mpa_gcd.c:125
    5448:	9102a3a0 	add	x0, x29, #0xa8
    544c:	aa1303e1 	mov	x1, x19
    5450:	f90033a0 	str	x0, [x29,#96]
    5454:	94000180 	bl	5a54 <mpa_alloc_static_temp_var>
/home/lagadanu/Desktop/qemu/optee_os/lib/libmpa/mpa_gcd.c:126
    5458:	f9404fa1 	ldr	x1, [x29,#152]
/home/lagadanu/Desktop/qemu/optee_os/lib/libmpa/mpa_gcd.c:128
    545c:	9101e3bc 	add	x28, x29, #0x78
/home/lagadanu/Desktop/qemu/optee_os/lib/libmpa/mpa_gcd.c:126
    5460:	f94057a0 	ldr	x0, [x29,#168]
/home/lagadanu/Desktop/qemu/optee_os/lib/libmpa/mpa_gcd.c:130
    5464:	910203bb 	add	x27, x29, #0x80
/home/lagadanu/Desktop/qemu/optee_os/lib/libmpa/mpa_gcd.c:132
    5468:	910223ba 	add	x26, x29, #0x88
/home/lagadanu/Desktop/qemu/optee_os/lib/libmpa/mpa_gcd.c:134
    546c:	910243b9 	add	x25, x29, #0x90
/home/lagadanu/Desktop/qemu/optee_os/lib/libmpa/mpa_gcd.c:126
    5470:	97fffa9a 	bl	3ed8 <mpa_copy>
/home/lagadanu/Desktop/qemu/optee_os/lib/libmpa/mpa_gcd.c:127
    5474:	f94053a1 	ldr	x1, [x29,#160]
    5478:	aa1403e0 	mov	x0, x20
    547c:	97fffa97 	bl	3ed8 <mpa_copy>
/home/lagadanu/Desktop/qemu/optee_os/lib/libmpa/mpa_gcd.c:128
    5480:	aa1303e1 	mov	x1, x19
    5484:	aa1c03e0 	mov	x0, x28
    5488:	94000173 	bl	5a54 <mpa_alloc_static_temp_var>
/home/lagadanu/Desktop/qemu/optee_os/lib/libmpa/mpa_gcd.c:129
    548c:	f9403fa0 	ldr	x0, [x29,#120]
    5490:	52800021 	mov	w1, #0x1                   	// #1
    5494:	97fffcf0 	bl	4854 <mpa_set_word>
/home/lagadanu/Desktop/qemu/optee_os/lib/libmpa/mpa_gcd.c:130
    5498:	aa1303e1 	mov	x1, x19
    549c:	aa1b03e0 	mov	x0, x27
    54a0:	9400016d 	bl	5a54 <mpa_alloc_static_temp_var>
/home/lagadanu/Desktop/qemu/optee_os/lib/libmpa/mpa_gcd.c:131
    54a4:	f94043a0 	ldr	x0, [x29,#128]
    54a8:	52800001 	mov	w1, #0x0                   	// #0
    54ac:	97fffcea 	bl	4854 <mpa_set_word>
/home/lagadanu/Desktop/qemu/optee_os/lib/libmpa/mpa_gcd.c:132
    54b0:	aa1303e1 	mov	x1, x19
    54b4:	aa1a03e0 	mov	x0, x26
    54b8:	94000167 	bl	5a54 <mpa_alloc_static_temp_var>
/home/lagadanu/Desktop/qemu/optee_os/lib/libmpa/mpa_gcd.c:133
    54bc:	f94047a0 	ldr	x0, [x29,#136]
    54c0:	52800001 	mov	w1, #0x0                   	// #0
    54c4:	97fffce4 	bl	4854 <mpa_set_word>
/home/lagadanu/Desktop/qemu/optee_os/lib/libmpa/mpa_gcd.c:134
    54c8:	aa1303e1 	mov	x1, x19
    54cc:	aa1903e0 	mov	x0, x25
    54d0:	94000161 	bl	5a54 <mpa_alloc_static_temp_var>
/home/lagadanu/Desktop/qemu/optee_os/lib/libmpa/mpa_gcd.c:135
    54d4:	f9404ba0 	ldr	x0, [x29,#144]
    54d8:	52800021 	mov	w1, #0x1                   	// #1
    54dc:	97fffcde 	bl	4854 <mpa_set_word>
/home/lagadanu/Desktop/qemu/optee_os/lib/libmpa/mpa_gcd.c:137
    54e0:	f94057a0 	ldr	x0, [x29,#168]
    54e4:	b9400400 	ldr	w0, [x0,#4]
    54e8:	35000800 	cbnz	w0, 55e8 <__mpa_egcd+0x26c>
/home/lagadanu/Desktop/qemu/optee_os/lib/libmpa/mpa_gcd.c:170
    54ec:	b4000096 	cbz	x22, 54fc <__mpa_egcd+0x180>
/home/lagadanu/Desktop/qemu/optee_os/lib/libmpa/mpa_gcd.c:171
    54f0:	f94047a1 	ldr	x1, [x29,#136]
    54f4:	aa1603e0 	mov	x0, x22
    54f8:	97fffa78 	bl	3ed8 <mpa_copy>
/home/lagadanu/Desktop/qemu/optee_os/lib/libmpa/mpa_gcd.c:172
    54fc:	b4000095 	cbz	x21, 550c <__mpa_egcd+0x190>
/home/lagadanu/Desktop/qemu/optee_os/lib/libmpa/mpa_gcd.c:173
    5500:	f9404ba1 	ldr	x1, [x29,#144]
    5504:	aa1503e0 	mov	x0, x21
    5508:	97fffa74 	bl	3ed8 <mpa_copy>
/home/lagadanu/Desktop/qemu/optee_os/lib/libmpa/mpa_gcd.c:174
    550c:	2a1703e2 	mov	w2, w23
    5510:	aa1403e1 	mov	x1, x20
    5514:	aa1403e0 	mov	x0, x20
    5518:	940002d0 	bl	6058 <mpa_shift_left>
/home/lagadanu/Desktop/qemu/optee_os/lib/libmpa/mpa_gcd.c:176
    551c:	aa1303e1 	mov	x1, x19
    5520:	aa1c03e0 	mov	x0, x28
    5524:	94000150 	bl	5a64 <mpa_free_static_temp_var>
/home/lagadanu/Desktop/qemu/optee_os/lib/libmpa/mpa_gcd.c:177
    5528:	aa1303e1 	mov	x1, x19
    552c:	aa1b03e0 	mov	x0, x27
    5530:	9400014d 	bl	5a64 <mpa_free_static_temp_var>
/home/lagadanu/Desktop/qemu/optee_os/lib/libmpa/mpa_gcd.c:178
    5534:	aa1303e1 	mov	x1, x19
    5538:	aa1a03e0 	mov	x0, x26
    553c:	9400014a 	bl	5a64 <mpa_free_static_temp_var>
/home/lagadanu/Desktop/qemu/optee_os/lib/libmpa/mpa_gcd.c:179
    5540:	aa1303e1 	mov	x1, x19
    5544:	aa1903e0 	mov	x0, x25
    5548:	94000147 	bl	5a64 <mpa_free_static_temp_var>
/home/lagadanu/Desktop/qemu/optee_os/lib/libmpa/mpa_gcd.c:180
    554c:	aa1303e1 	mov	x1, x19
    5550:	aa1803e0 	mov	x0, x24
    5554:	94000144 	bl	5a64 <mpa_free_static_temp_var>
/home/lagadanu/Desktop/qemu/optee_os/lib/libmpa/mpa_gcd.c:181
    5558:	f94037a0 	ldr	x0, [x29,#104]
    555c:	aa1303e1 	mov	x1, x19
    5560:	94000141 	bl	5a64 <mpa_free_static_temp_var>
/home/lagadanu/Desktop/qemu/optee_os/lib/libmpa/mpa_gcd.c:182
    5564:	f94033a0 	ldr	x0, [x29,#96]
    5568:	aa1303e1 	mov	x1, x19
    556c:	9400013e 	bl	5a64 <mpa_free_static_temp_var>
    5570:	17ffff9b 	b	53dc <__mpa_egcd+0x60>
/home/lagadanu/Desktop/qemu/optee_os/lib/libmpa/mpa_gcd.c:119
    5574:	f94053a0 	ldr	x0, [x29,#160]
    5578:	97fffaa2 	bl	4000 <mpa_parity>
    557c:	35fff660 	cbnz	w0, 5448 <__mpa_egcd+0xcc>
/home/lagadanu/Desktop/qemu/optee_os/lib/libmpa/mpa_gcd.c:121
    5580:	f9404fa0 	ldr	x0, [x29,#152]
/home/lagadanu/Desktop/qemu/optee_os/lib/libmpa/mpa_gcd.c:120
    5584:	110006f7 	add	w23, w23, #0x1
/home/lagadanu/Desktop/qemu/optee_os/lib/libmpa/mpa_gcd.c:121
    5588:	97ffff02 	bl	5190 <__mpa_divby2>
/home/lagadanu/Desktop/qemu/optee_os/lib/libmpa/mpa_gcd.c:122
    558c:	f94053a0 	ldr	x0, [x29,#160]
    5590:	97ffff00 	bl	5190 <__mpa_divby2>
    5594:	17ffffaa 	b	543c <__mpa_egcd+0xc0>
/home/lagadanu/Desktop/qemu/optee_os/lib/libmpa/mpa_gcd.c:139
    5598:	f94057a0 	ldr	x0, [x29,#168]
    559c:	97fffefd 	bl	5190 <__mpa_divby2>
/home/lagadanu/Desktop/qemu/optee_os/lib/libmpa/mpa_gcd.c:140
    55a0:	f9403fa0 	ldr	x0, [x29,#120]
    55a4:	97fffa97 	bl	4000 <mpa_parity>
    55a8:	7100041f 	cmp	w0, #0x1
    55ac:	54000521 	b.ne	5650 <__mpa_egcd+0x2d4>
/home/lagadanu/Desktop/qemu/optee_os/lib/libmpa/mpa_gcd.c:141
    55b0:	f9403fa1 	ldr	x1, [x29,#120]
    55b4:	aa1303e3 	mov	x3, x19
    55b8:	f94053a2 	ldr	x2, [x29,#160]
    55bc:	aa0103e0 	mov	x0, x1
    55c0:	94000424 	bl	6650 <mpa_add>
/home/lagadanu/Desktop/qemu/optee_os/lib/libmpa/mpa_gcd.c:142
    55c4:	f94043a1 	ldr	x1, [x29,#128]
    55c8:	aa1303e3 	mov	x3, x19
    55cc:	f9404fa2 	ldr	x2, [x29,#152]
    55d0:	aa0103e0 	mov	x0, x1
    55d4:	94000484 	bl	67e4 <mpa_sub>
/home/lagadanu/Desktop/qemu/optee_os/lib/libmpa/mpa_gcd.c:144
    55d8:	f9403fa0 	ldr	x0, [x29,#120]
    55dc:	97fffeed 	bl	5190 <__mpa_divby2>
/home/lagadanu/Desktop/qemu/optee_os/lib/libmpa/mpa_gcd.c:145
    55e0:	f94043a0 	ldr	x0, [x29,#128]
    55e4:	97fffeeb 	bl	5190 <__mpa_divby2>
/home/lagadanu/Desktop/qemu/optee_os/lib/libmpa/mpa_gcd.c:138
    55e8:	f94057a0 	ldr	x0, [x29,#168]
    55ec:	97fffa85 	bl	4000 <mpa_parity>
    55f0:	34fffd40 	cbz	w0, 5598 <__mpa_egcd+0x21c>
/home/lagadanu/Desktop/qemu/optee_os/lib/libmpa/mpa_gcd.c:148
    55f4:	aa1403e0 	mov	x0, x20
    55f8:	97fffa82 	bl	4000 <mpa_parity>
    55fc:	34000340 	cbz	w0, 5664 <__mpa_egcd+0x2e8>
/home/lagadanu/Desktop/qemu/optee_os/lib/libmpa/mpa_gcd.c:158
    5600:	f94057a0 	ldr	x0, [x29,#168]
    5604:	aa1403e1 	mov	x1, x20
    5608:	940005bf 	bl	6d04 <mpa_cmp>
/home/lagadanu/Desktop/qemu/optee_os/lib/libmpa/mpa_gcd.c:159
    560c:	aa1303e3 	mov	x3, x19
/home/lagadanu/Desktop/qemu/optee_os/lib/libmpa/mpa_gcd.c:158
    5610:	37f805c0 	tbnz	w0, #31, 56c8 <__mpa_egcd+0x34c>
/home/lagadanu/Desktop/qemu/optee_os/lib/libmpa/mpa_gcd.c:159
    5614:	f94057a1 	ldr	x1, [x29,#168]
    5618:	aa1403e2 	mov	x2, x20
    561c:	aa0103e0 	mov	x0, x1
    5620:	94000471 	bl	67e4 <mpa_sub>
/home/lagadanu/Desktop/qemu/optee_os/lib/libmpa/mpa_gcd.c:160
    5624:	f9403fa1 	ldr	x1, [x29,#120]
    5628:	aa1303e3 	mov	x3, x19
    562c:	f94047a2 	ldr	x2, [x29,#136]
    5630:	aa0103e0 	mov	x0, x1
    5634:	9400046c 	bl	67e4 <mpa_sub>
/home/lagadanu/Desktop/qemu/optee_os/lib/libmpa/mpa_gcd.c:161
    5638:	f94043a1 	ldr	x1, [x29,#128]
    563c:	aa1303e3 	mov	x3, x19
    5640:	f9404ba2 	ldr	x2, [x29,#144]
/home/lagadanu/Desktop/qemu/optee_os/lib/libmpa/mpa_gcd.c:165
    5644:	aa0103e0 	mov	x0, x1
    5648:	94000467 	bl	67e4 <mpa_sub>
    564c:	17ffffa5 	b	54e0 <__mpa_egcd+0x164>
/home/lagadanu/Desktop/qemu/optee_os/lib/libmpa/mpa_gcd.c:140
    5650:	f94043a0 	ldr	x0, [x29,#128]
    5654:	97fffa6b 	bl	4000 <mpa_parity>
    5658:	7100041f 	cmp	w0, #0x1
    565c:	54fffbe1 	b.ne	55d8 <__mpa_egcd+0x25c>
    5660:	17ffffd4 	b	55b0 <__mpa_egcd+0x234>
/home/lagadanu/Desktop/qemu/optee_os/lib/libmpa/mpa_gcd.c:149
    5664:	aa1403e0 	mov	x0, x20
    5668:	97fffeca 	bl	5190 <__mpa_divby2>
/home/lagadanu/Desktop/qemu/optee_os/lib/libmpa/mpa_gcd.c:150
    566c:	f94047a0 	ldr	x0, [x29,#136]
    5670:	97fffa64 	bl	4000 <mpa_parity>
    5674:	7100041f 	cmp	w0, #0x1
    5678:	540001e1 	b.ne	56b4 <__mpa_egcd+0x338>
/home/lagadanu/Desktop/qemu/optee_os/lib/libmpa/mpa_gcd.c:151
    567c:	f94047a1 	ldr	x1, [x29,#136]
    5680:	aa1303e3 	mov	x3, x19
    5684:	f94053a2 	ldr	x2, [x29,#160]
    5688:	aa0103e0 	mov	x0, x1
    568c:	940003f1 	bl	6650 <mpa_add>
/home/lagadanu/Desktop/qemu/optee_os/lib/libmpa/mpa_gcd.c:152
    5690:	a9490ba1 	ldp	x1, x2, [x29,#144]
    5694:	aa1303e3 	mov	x3, x19
    5698:	aa0103e0 	mov	x0, x1
    569c:	94000452 	bl	67e4 <mpa_sub>
/home/lagadanu/Desktop/qemu/optee_os/lib/libmpa/mpa_gcd.c:154
    56a0:	f94047a0 	ldr	x0, [x29,#136]
    56a4:	97fffebb 	bl	5190 <__mpa_divby2>
/home/lagadanu/Desktop/qemu/optee_os/lib/libmpa/mpa_gcd.c:155
    56a8:	f9404ba0 	ldr	x0, [x29,#144]
    56ac:	97fffeb9 	bl	5190 <__mpa_divby2>
    56b0:	17ffffd1 	b	55f4 <__mpa_egcd+0x278>
/home/lagadanu/Desktop/qemu/optee_os/lib/libmpa/mpa_gcd.c:150
    56b4:	f9404ba0 	ldr	x0, [x29,#144]
    56b8:	97fffa52 	bl	4000 <mpa_parity>
    56bc:	7100041f 	cmp	w0, #0x1
    56c0:	54ffff01 	b.ne	56a0 <__mpa_egcd+0x324>
    56c4:	17ffffee 	b	567c <__mpa_egcd+0x300>
/home/lagadanu/Desktop/qemu/optee_os/lib/libmpa/mpa_gcd.c:163
    56c8:	f94057a2 	ldr	x2, [x29,#168]
    56cc:	aa1403e1 	mov	x1, x20
    56d0:	aa1403e0 	mov	x0, x20
    56d4:	94000444 	bl	67e4 <mpa_sub>
/home/lagadanu/Desktop/qemu/optee_os/lib/libmpa/mpa_gcd.c:164
    56d8:	f94047a1 	ldr	x1, [x29,#136]
    56dc:	aa1303e3 	mov	x3, x19
    56e0:	f9403fa2 	ldr	x2, [x29,#120]
    56e4:	aa0103e0 	mov	x0, x1
    56e8:	9400043f 	bl	67e4 <mpa_sub>
/home/lagadanu/Desktop/qemu/optee_os/lib/libmpa/mpa_gcd.c:165
    56ec:	aa1303e3 	mov	x3, x19
    56f0:	f94043a2 	ldr	x2, [x29,#128]
    56f4:	f9404ba1 	ldr	x1, [x29,#144]
    56f8:	17ffffd3 	b	5644 <__mpa_egcd+0x2c8>

00000000000056fc <mpa_gcd>:
mpa_gcd():
/home/lagadanu/Desktop/qemu/optee_os/lib/libmpa/mpa_gcd.c:253
    56fc:	a9bc7bfd 	stp	x29, x30, [sp,#-64]!
    5700:	910003fd 	mov	x29, sp
    5704:	a90153f3 	stp	x19, x20, [sp,#16]
    5708:	aa0203f3 	mov	x19, x2
    570c:	a9025bf5 	stp	x21, x22, [sp,#32]
    5710:	aa0003f6 	mov	x22, x0
/home/lagadanu/Desktop/qemu/optee_os/lib/libmpa/mpa_gcd.c:259
    5714:	b9400420 	ldr	w0, [x1,#4]
/home/lagadanu/Desktop/qemu/optee_os/lib/libmpa/mpa_gcd.c:253
    5718:	aa0103f4 	mov	x20, x1
/home/lagadanu/Desktop/qemu/optee_os/lib/libmpa/mpa_gcd.c:260
    571c:	b9400661 	ldr	w1, [x19,#4]
/home/lagadanu/Desktop/qemu/optee_os/lib/libmpa/mpa_gcd.c:259
    5720:	52800022 	mov	w2, #0x1                   	// #1
    5724:	7100001f 	cmp	w0, #0x0
/home/lagadanu/Desktop/qemu/optee_os/lib/libmpa/mpa_gcd.c:253
    5728:	a90363f7 	stp	x23, x24, [sp,#48]
    572c:	aa0303f8 	mov	x24, x3
/home/lagadanu/Desktop/qemu/optee_os/lib/libmpa/mpa_gcd.c:259
    5730:	5a82a457 	cneg	w23, w2, lt
/home/lagadanu/Desktop/qemu/optee_os/lib/libmpa/mpa_gcd.c:260
    5734:	36f806e1 	tbz	w1, #31, 5810 <mpa_gcd+0x114>
    5738:	12800015 	mov	w21, #0xffffffff            	// #-1
/home/lagadanu/Desktop/qemu/optee_os/lib/libmpa/mpa_gcd.c:261
    573c:	36f800a0 	tbz	w0, #31, 5750 <mpa_gcd+0x54>
/home/lagadanu/Desktop/qemu/optee_os/lib/libmpa/mpa_gcd.c:261 (discriminator 1)
    5740:	4b0003e0 	neg	w0, w0
    5744:	b9000680 	str	w0, [x20,#4]
/home/lagadanu/Desktop/qemu/optee_os/lib/libmpa/mpa_gcd.c:262 (discriminator 1)
    5748:	b9400661 	ldr	w1, [x19,#4]
    574c:	36f80061 	tbz	w1, #31, 5758 <mpa_gcd+0x5c>
    5750:	4b0103e1 	neg	w1, w1
    5754:	b9000661 	str	w1, [x19,#4]
/home/lagadanu/Desktop/qemu/optee_os/lib/libmpa/mpa_gcd.c:264
    5758:	aa1303e1 	mov	x1, x19
    575c:	aa1403e0 	mov	x0, x20
    5760:	94000569 	bl	6d04 <mpa_cmp>
/home/lagadanu/Desktop/qemu/optee_os/lib/libmpa/mpa_gcd.c:265
    5764:	7100001f 	cmp	w0, #0x0
    5768:	54000321 	b.ne	57cc <mpa_gcd+0xd0>
/home/lagadanu/Desktop/qemu/optee_os/lib/libmpa/mpa_gcd.c:266
    576c:	aa1403e1 	mov	x1, x20
__mpa_gcd():
/home/lagadanu/Desktop/qemu/optee_os/lib/libmpa/mpa_gcd.c:201
    5770:	aa1603e0 	mov	x0, x22
    5774:	97fff9d9 	bl	3ed8 <mpa_copy>
mpa_gcd():
/home/lagadanu/Desktop/qemu/optee_os/lib/libmpa/mpa_gcd.c:277
    5778:	b9400680 	ldr	w0, [x20,#4]
    577c:	52800021 	mov	w1, #0x1                   	// #1
    5780:	7100001f 	cmp	w0, #0x0
    5784:	5a81a421 	cneg	w1, w1, lt
    5788:	6b0102ff 	cmp	w23, w1
    578c:	54000060 	b.eq	5798 <mpa_gcd+0x9c>
/home/lagadanu/Desktop/qemu/optee_os/lib/libmpa/mpa_gcd.c:277 (discriminator 5)
    5790:	4b0003e0 	neg	w0, w0
    5794:	b9000680 	str	w0, [x20,#4]
/home/lagadanu/Desktop/qemu/optee_os/lib/libmpa/mpa_gcd.c:278
    5798:	b9400660 	ldr	w0, [x19,#4]
    579c:	52800021 	mov	w1, #0x1                   	// #1
    57a0:	7100001f 	cmp	w0, #0x0
    57a4:	5a81a421 	cneg	w1, w1, lt
    57a8:	6b15003f 	cmp	w1, w21
    57ac:	54000060 	b.eq	57b8 <mpa_gcd+0xbc>
/home/lagadanu/Desktop/qemu/optee_os/lib/libmpa/mpa_gcd.c:278 (discriminator 5)
    57b0:	4b0003e0 	neg	w0, w0
    57b4:	b9000660 	str	w0, [x19,#4]
/home/lagadanu/Desktop/qemu/optee_os/lib/libmpa/mpa_gcd.c:279
    57b8:	a94153f3 	ldp	x19, x20, [sp,#16]
    57bc:	a9425bf5 	ldp	x21, x22, [sp,#32]
    57c0:	a94363f7 	ldp	x23, x24, [sp,#48]
    57c4:	a8c47bfd 	ldp	x29, x30, [sp],#64
    57c8:	d65f03c0 	ret
/home/lagadanu/Desktop/qemu/optee_os/lib/libmpa/mpa_gcd.c:269
    57cc:	5400016a 	b.ge	57f8 <mpa_gcd+0xfc>
__mpa_gcd():
/home/lagadanu/Desktop/qemu/optee_os/lib/libmpa/mpa_gcd.c:200
    57d0:	b9400680 	ldr	w0, [x20,#4]
    57d4:	35000060 	cbnz	w0, 57e0 <mpa_gcd+0xe4>
/home/lagadanu/Desktop/qemu/optee_os/lib/libmpa/mpa_gcd.c:201
    57d8:	aa1303e1 	mov	x1, x19
    57dc:	17ffffe5 	b	5770 <mpa_gcd+0x74>
    57e0:	aa1803e3 	mov	x3, x24
    57e4:	aa1403e2 	mov	x2, x20
    57e8:	aa1303e1 	mov	x1, x19
    57ec:	aa1603e0 	mov	x0, x22
    57f0:	97fffe88 	bl	5210 <__mpa_gcd.part.0>
    57f4:	17ffffe1 	b	5778 <mpa_gcd+0x7c>
/home/lagadanu/Desktop/qemu/optee_os/lib/libmpa/mpa_gcd.c:200
    57f8:	b9400660 	ldr	w0, [x19,#4]
    57fc:	34fffb80 	cbz	w0, 576c <mpa_gcd+0x70>
    5800:	aa1803e3 	mov	x3, x24
    5804:	aa1303e2 	mov	x2, x19
    5808:	aa1403e1 	mov	x1, x20
    580c:	17fffff8 	b	57ec <mpa_gcd+0xf0>
mpa_gcd():
/home/lagadanu/Desktop/qemu/optee_os/lib/libmpa/mpa_gcd.c:260
    5810:	2a0203f5 	mov	w21, w2
/home/lagadanu/Desktop/qemu/optee_os/lib/libmpa/mpa_gcd.c:261
    5814:	36fffa20 	tbz	w0, #31, 5758 <mpa_gcd+0x5c>
    5818:	17ffffca 	b	5740 <mpa_gcd+0x44>

000000000000581c <mpa_extended_gcd>:
mpa_extended_gcd():
/home/lagadanu/Desktop/qemu/optee_os/lib/libmpa/mpa_gcd.c:295
    581c:	a9b97bfd 	stp	x29, x30, [sp,#-112]!
/home/lagadanu/Desktop/qemu/optee_os/lib/libmpa/mpa_gcd.c:302
    5820:	f100003f 	cmp	x1, #0x0
    5824:	fa400840 	ccmp	x2, #0x0, #0x0, eq
/home/lagadanu/Desktop/qemu/optee_os/lib/libmpa/mpa_gcd.c:295
    5828:	910003fd 	mov	x29, sp
    582c:	a90153f3 	stp	x19, x20, [sp,#16]
    5830:	aa0303f3 	mov	x19, x3
    5834:	a9025bf5 	stp	x21, x22, [sp,#32]
    5838:	aa0403f4 	mov	x20, x4
    583c:	a9046bf9 	stp	x25, x26, [sp,#64]
    5840:	aa0003f6 	mov	x22, x0
    5844:	a90363f7 	stp	x23, x24, [sp,#48]
    5848:	aa0503f9 	mov	x25, x5
    584c:	a90573fb 	stp	x27, x28, [sp,#80]
/home/lagadanu/Desktop/qemu/optee_os/lib/libmpa/mpa_gcd.c:302
    5850:	540001a1 	b.ne	5884 <mpa_extended_gcd+0x68>
/home/lagadanu/Desktop/qemu/optee_os/lib/libmpa/mpa_gcd.c:303
    5854:	b40000a0 	cbz	x0, 5868 <mpa_extended_gcd+0x4c>
/home/lagadanu/Desktop/qemu/optee_os/lib/libmpa/mpa_gcd.c:304
    5858:	aa0503e3 	mov	x3, x5
    585c:	aa0403e2 	mov	x2, x4
    5860:	aa1303e1 	mov	x1, x19
    5864:	97ffffa6 	bl	56fc <mpa_gcd>
/home/lagadanu/Desktop/qemu/optee_os/lib/libmpa/mpa_gcd.c:350
    5868:	a94153f3 	ldp	x19, x20, [sp,#16]
    586c:	a9425bf5 	ldp	x21, x22, [sp,#32]
    5870:	a94363f7 	ldp	x23, x24, [sp,#48]
    5874:	a9446bf9 	ldp	x25, x26, [sp,#64]
    5878:	a94573fb 	ldp	x27, x28, [sp,#80]
    587c:	a8c77bfd 	ldp	x29, x30, [sp],#112
    5880:	d65f03c0 	ret
/home/lagadanu/Desktop/qemu/optee_os/lib/libmpa/mpa_gcd.c:309
    5884:	b9400460 	ldr	w0, [x3,#4]
    5888:	aa0103f7 	mov	x23, x1
/home/lagadanu/Desktop/qemu/optee_os/lib/libmpa/mpa_gcd.c:310
    588c:	b9400481 	ldr	w1, [x4,#4]
/home/lagadanu/Desktop/qemu/optee_os/lib/libmpa/mpa_gcd.c:309
    5890:	52800035 	mov	w21, #0x1                   	// #1
    5894:	7100001f 	cmp	w0, #0x0
    5898:	aa0203f8 	mov	x24, x2
    589c:	5a95a6ba 	cneg	w26, w21, lt
/home/lagadanu/Desktop/qemu/optee_os/lib/libmpa/mpa_gcd.c:310
    58a0:	36f80b01 	tbz	w1, #31, 5a00 <mpa_extended_gcd+0x1e4>
    58a4:	12800015 	mov	w21, #0xffffffff            	// #-1
/home/lagadanu/Desktop/qemu/optee_os/lib/libmpa/mpa_gcd.c:311
    58a8:	36f800a0 	tbz	w0, #31, 58bc <mpa_extended_gcd+0xa0>
/home/lagadanu/Desktop/qemu/optee_os/lib/libmpa/mpa_gcd.c:311 (discriminator 1)
    58ac:	4b0003e0 	neg	w0, w0
    58b0:	b9000660 	str	w0, [x19,#4]
/home/lagadanu/Desktop/qemu/optee_os/lib/libmpa/mpa_gcd.c:312 (discriminator 1)
    58b4:	b9400681 	ldr	w1, [x20,#4]
    58b8:	36f80061 	tbz	w1, #31, 58c4 <mpa_extended_gcd+0xa8>
    58bc:	4b0103e1 	neg	w1, w1
    58c0:	b9000681 	str	w1, [x20,#4]
/home/lagadanu/Desktop/qemu/optee_os/lib/libmpa/mpa_gcd.c:314
    58c4:	aa1403e1 	mov	x1, x20
    58c8:	aa1303e0 	mov	x0, x19
    58cc:	9400050e 	bl	6d04 <mpa_cmp>
    58d0:	2a0003fc 	mov	w28, w0
/home/lagadanu/Desktop/qemu/optee_os/lib/libmpa/mpa_gcd.c:315
    58d4:	35000540 	cbnz	w0, 597c <mpa_extended_gcd+0x160>
/home/lagadanu/Desktop/qemu/optee_os/lib/libmpa/mpa_gcd.c:316
    58d8:	b4000096 	cbz	x22, 58e8 <mpa_extended_gcd+0xcc>
/home/lagadanu/Desktop/qemu/optee_os/lib/libmpa/mpa_gcd.c:317
    58dc:	aa1303e1 	mov	x1, x19
    58e0:	aa1603e0 	mov	x0, x22
    58e4:	97fff97d 	bl	3ed8 <mpa_copy>
/home/lagadanu/Desktop/qemu/optee_os/lib/libmpa/mpa_gcd.c:318
    58e8:	b4000097 	cbz	x23, 58f8 <mpa_extended_gcd+0xdc>
/home/lagadanu/Desktop/qemu/optee_os/lib/libmpa/mpa_gcd.c:319
    58ec:	52800021 	mov	w1, #0x1                   	// #1
    58f0:	aa1703e0 	mov	x0, x23
    58f4:	97fffbd8 	bl	4854 <mpa_set_word>
/home/lagadanu/Desktop/qemu/optee_os/lib/libmpa/mpa_gcd.c:320
    58f8:	b4000098 	cbz	x24, 5908 <mpa_extended_gcd+0xec>
/home/lagadanu/Desktop/qemu/optee_os/lib/libmpa/mpa_gcd.c:321
    58fc:	52800001 	mov	w1, #0x0                   	// #0
    5900:	aa1803e0 	mov	x0, x24
    5904:	97fffbd4 	bl	4854 <mpa_set_word>
/home/lagadanu/Desktop/qemu/optee_os/lib/libmpa/mpa_gcd.c:343
    5908:	b9400660 	ldr	w0, [x19,#4]
    590c:	52800021 	mov	w1, #0x1                   	// #1
    5910:	7100001f 	cmp	w0, #0x0
    5914:	5a81a421 	cneg	w1, w1, lt
    5918:	6b01035f 	cmp	w26, w1
    591c:	54000060 	b.eq	5928 <mpa_extended_gcd+0x10c>
/home/lagadanu/Desktop/qemu/optee_os/lib/libmpa/mpa_gcd.c:343 (discriminator 5)
    5920:	4b0003e0 	neg	w0, w0
    5924:	b9000660 	str	w0, [x19,#4]
/home/lagadanu/Desktop/qemu/optee_os/lib/libmpa/mpa_gcd.c:344
    5928:	b9400680 	ldr	w0, [x20,#4]
    592c:	52800021 	mov	w1, #0x1                   	// #1
    5930:	7100001f 	cmp	w0, #0x0
    5934:	5a81a421 	cneg	w1, w1, lt
    5938:	6b15003f 	cmp	w1, w21
    593c:	54000060 	b.eq	5948 <mpa_extended_gcd+0x12c>
/home/lagadanu/Desktop/qemu/optee_os/lib/libmpa/mpa_gcd.c:344 (discriminator 5)
    5940:	4b0003e0 	neg	w0, w0
    5944:	b9000680 	str	w0, [x20,#4]
/home/lagadanu/Desktop/qemu/optee_os/lib/libmpa/mpa_gcd.c:346
    5948:	f10002ff 	cmp	x23, #0x0
    594c:	3a411b40 	ccmn	w26, #0x1, #0x0, ne
    5950:	54000081 	b.ne	5960 <mpa_extended_gcd+0x144>
/home/lagadanu/Desktop/qemu/optee_os/lib/libmpa/mpa_gcd.c:347
    5954:	b94006e0 	ldr	w0, [x23,#4]
    5958:	4b0003e0 	neg	w0, w0
    595c:	b90006e0 	str	w0, [x23,#4]
/home/lagadanu/Desktop/qemu/optee_os/lib/libmpa/mpa_gcd.c:348
    5960:	f100031f 	cmp	x24, #0x0
    5964:	3a411aa0 	ccmn	w21, #0x1, #0x0, ne
    5968:	54fff801 	b.ne	5868 <mpa_extended_gcd+0x4c>
/home/lagadanu/Desktop/qemu/optee_os/lib/libmpa/mpa_gcd.c:349
    596c:	b9400700 	ldr	w0, [x24,#4]
    5970:	4b0003e0 	neg	w0, w0
    5974:	b9000700 	str	w0, [x24,#4]
    5978:	17ffffbc 	b	5868 <mpa_extended_gcd+0x4c>
/home/lagadanu/Desktop/qemu/optee_os/lib/libmpa/mpa_gcd.c:325
    597c:	f10002df 	cmp	x22, #0x0
    5980:	fa561284 	ccmp	x20, x22, #0x4, ne
    5984:	fa561264 	ccmp	x19, x22, #0x4, ne
    5988:	54000361 	b.ne	59f4 <mpa_extended_gcd+0x1d8>
    598c:	5280003b 	mov	w27, #0x1                   	// #1
/home/lagadanu/Desktop/qemu/optee_os/lib/libmpa/mpa_gcd.c:327
    5990:	aa1903e1 	mov	x1, x25
    5994:	9101a3a0 	add	x0, x29, #0x68
    5998:	9400002f 	bl	5a54 <mpa_alloc_static_temp_var>
/home/lagadanu/Desktop/qemu/optee_os/lib/libmpa/mpa_gcd.c:332
    599c:	aa1903e5 	mov	x5, x25
/home/lagadanu/Desktop/qemu/optee_os/lib/libmpa/mpa_gcd.c:331
    59a0:	36f8021c 	tbz	w28, #31, 59e0 <mpa_extended_gcd+0x1c4>
/home/lagadanu/Desktop/qemu/optee_os/lib/libmpa/mpa_gcd.c:332
    59a4:	aa1303e4 	mov	x4, x19
    59a8:	aa1403e3 	mov	x3, x20
    59ac:	aa1703e2 	mov	x2, x23
    59b0:	aa1803e1 	mov	x1, x24
/home/lagadanu/Desktop/qemu/optee_os/lib/libmpa/mpa_gcd.c:334
    59b4:	f94037a0 	ldr	x0, [x29,#104]
    59b8:	97fffe71 	bl	537c <__mpa_egcd>
/home/lagadanu/Desktop/qemu/optee_os/lib/libmpa/mpa_gcd.c:336
    59bc:	b4000096 	cbz	x22, 59cc <mpa_extended_gcd+0x1b0>
/home/lagadanu/Desktop/qemu/optee_os/lib/libmpa/mpa_gcd.c:337
    59c0:	f94037a1 	ldr	x1, [x29,#104]
    59c4:	aa1603e0 	mov	x0, x22
    59c8:	97fff944 	bl	3ed8 <mpa_copy>
/home/lagadanu/Desktop/qemu/optee_os/lib/libmpa/mpa_gcd.c:338
    59cc:	34fff9fb 	cbz	w27, 5908 <mpa_extended_gcd+0xec>
/home/lagadanu/Desktop/qemu/optee_os/lib/libmpa/mpa_gcd.c:339
    59d0:	aa1903e1 	mov	x1, x25
    59d4:	9101a3a0 	add	x0, x29, #0x68
    59d8:	94000023 	bl	5a64 <mpa_free_static_temp_var>
    59dc:	17ffffcb 	b	5908 <mpa_extended_gcd+0xec>
/home/lagadanu/Desktop/qemu/optee_os/lib/libmpa/mpa_gcd.c:334
    59e0:	aa1403e4 	mov	x4, x20
    59e4:	aa1303e3 	mov	x3, x19
    59e8:	aa1803e2 	mov	x2, x24
    59ec:	aa1703e1 	mov	x1, x23
    59f0:	17fffff1 	b	59b4 <mpa_extended_gcd+0x198>
/home/lagadanu/Desktop/qemu/optee_os/lib/libmpa/mpa_gcd.c:325
    59f4:	5280001b 	mov	w27, #0x0                   	// #0
/home/lagadanu/Desktop/qemu/optee_os/lib/libmpa/mpa_gcd.c:329
    59f8:	f90037b6 	str	x22, [x29,#104]
    59fc:	17ffffe8 	b	599c <mpa_extended_gcd+0x180>
/home/lagadanu/Desktop/qemu/optee_os/lib/libmpa/mpa_gcd.c:311
    5a00:	36fff620 	tbz	w0, #31, 58c4 <mpa_extended_gcd+0xa8>
    5a04:	17ffffaa 	b	58ac <mpa_extended_gcd+0x90>

0000000000005a08 <mpa_alloc_static_temp_var_size>:
mpa_alloc_static_temp_var_size():
/home/lagadanu/Desktop/qemu/optee_os/lib/libmpa/mpa_mem_static.c:11
    5a08:	a9be7bfd 	stp	x29, x30, [sp,#-32]!
    5a0c:	910003fd 	mov	x29, sp
    5a10:	a90153f3 	stp	x19, x20, [sp,#16]
/home/lagadanu/Desktop/qemu/optee_os/lib/libmpa/mpa_mem_static.c:12
    5a14:	11007c13 	add	w19, w0, #0x1f
    5a18:	52800400 	mov	w0, #0x20                  	// #32
/home/lagadanu/Desktop/qemu/optee_os/lib/libmpa/mpa_mem_static.c:11
    5a1c:	aa0103f4 	mov	x20, x1
/home/lagadanu/Desktop/qemu/optee_os/lib/libmpa/mpa_mem_static.c:12
    5a20:	1ac00e73 	sdiv	w19, w19, w0
    5a24:	f9400040 	ldr	x0, [x2]
    5a28:	11000a73 	add	w19, w19, #0x2
    5a2c:	937e7e61 	sbfiz	x1, x19, #2, #32
    5a30:	9400086a 	bl	7bd8 <mempool_alloc>
    5a34:	f9000280 	str	x0, [x20]
/home/lagadanu/Desktop/qemu/optee_os/lib/libmpa/mpa_mem_static.c:14
    5a38:	b4000060 	cbz	x0, 5a44 <mpa_alloc_static_temp_var_size+0x3c>
/home/lagadanu/Desktop/qemu/optee_os/lib/libmpa/mpa_mem_static.c:15
    5a3c:	2a1303e1 	mov	w1, w19
    5a40:	9400055b 	bl	6fac <mpa_init_static>
/home/lagadanu/Desktop/qemu/optee_os/lib/libmpa/mpa_mem_static.c:18
    5a44:	f9400280 	ldr	x0, [x20]
    5a48:	a94153f3 	ldp	x19, x20, [sp,#16]
    5a4c:	a8c27bfd 	ldp	x29, x30, [sp],#32
    5a50:	d65f03c0 	ret

0000000000005a54 <mpa_alloc_static_temp_var>:
mpa_alloc_static_temp_var():
/home/lagadanu/Desktop/qemu/optee_os/lib/libmpa/mpa_mem_static.c:22
    5a54:	aa0103e2 	mov	x2, x1
    5a58:	aa0003e1 	mov	x1, x0
    5a5c:	b9400840 	ldr	w0, [x2,#8]
    5a60:	17ffffea 	b	5a08 <mpa_alloc_static_temp_var_size>

0000000000005a64 <mpa_free_static_temp_var>:
mpa_free_static_temp_var():
/home/lagadanu/Desktop/qemu/optee_os/lib/libmpa/mpa_mem_static.c:31
    5a64:	aa0103e2 	mov	x2, x1
/home/lagadanu/Desktop/qemu/optee_os/lib/libmpa/mpa_mem_static.c:32
    5a68:	b40000a0 	cbz	x0, 5a7c <mpa_free_static_temp_var+0x18>
/home/lagadanu/Desktop/qemu/optee_os/lib/libmpa/mpa_mem_static.c:32 (discriminator 1)
    5a6c:	f9400001 	ldr	x1, [x0]
    5a70:	b4000061 	cbz	x1, 5a7c <mpa_free_static_temp_var+0x18>
/home/lagadanu/Desktop/qemu/optee_os/lib/libmpa/mpa_mem_static.c:35
    5a74:	f9400040 	ldr	x0, [x2]
    5a78:	14000878 	b	7c58 <mempool_free>
    5a7c:	d65f03c0 	ret

0000000000005a80 <__mpa_mul_add_word>:
__mpa_mul_add_word():
/home/lagadanu/Desktop/qemu/optee_os/lib/libmpa/mpa_mul.c:32
    5a80:	b9400064 	ldr	w4, [x3]
    5a84:	9ba11000 	umaddl	x0, w0, w1, x4
/home/lagadanu/Desktop/qemu/optee_os/lib/libmpa/mpa_mul.c:33
    5a88:	b9000040 	str	w0, [x2]
/home/lagadanu/Desktop/qemu/optee_os/lib/libmpa/mpa_mul.c:34
    5a8c:	d360fc00 	lsr	x0, x0, #32
    5a90:	b9000060 	str	w0, [x3]
    5a94:	d65f03c0 	ret

0000000000005a98 <__mpa_mul_add_word_cum>:
__mpa_mul_add_word_cum():
/home/lagadanu/Desktop/qemu/optee_os/lib/libmpa/mpa_mul.c:54
    5a98:	b9400044 	ldr	w4, [x2]
/home/lagadanu/Desktop/qemu/optee_os/lib/libmpa/mpa_mul.c:55
    5a9c:	b9400065 	ldr	w5, [x3]
/home/lagadanu/Desktop/qemu/optee_os/lib/libmpa/mpa_mul.c:53
    5aa0:	8b050084 	add	x4, x4, x5
    5aa4:	9ba11000 	umaddl	x0, w0, w1, x4
/home/lagadanu/Desktop/qemu/optee_os/lib/libmpa/mpa_mul.c:56
    5aa8:	b9000040 	str	w0, [x2]
/home/lagadanu/Desktop/qemu/optee_os/lib/libmpa/mpa_mul.c:57
    5aac:	d360fc00 	lsr	x0, x0, #32
    5ab0:	b9000060 	str	w0, [x3]
    5ab4:	d65f03c0 	ret

0000000000005ab8 <__mpa_abs_mul_word>:
__mpa_abs_mul_word():
/home/lagadanu/Desktop/qemu/optee_os/lib/libmpa/mpa_mul.c:73
    5ab8:	a9bd7bfd 	stp	x29, x30, [sp,#-48]!
    5abc:	910003fd 	mov	x29, sp
    5ac0:	a9025bf5 	stp	x21, x22, [sp,#32]
    5ac4:	2a0203f6 	mov	w22, w2
/home/lagadanu/Desktop/qemu/optee_os/lib/libmpa/mpa_mul.c:80
    5ac8:	b9400002 	ldr	w2, [x0]
/home/lagadanu/Desktop/qemu/optee_os/lib/libmpa/mpa_mul.c:73
    5acc:	aa0103f5 	mov	x21, x1
    5ad0:	a90153f3 	stp	x19, x20, [sp,#16]
/home/lagadanu/Desktop/qemu/optee_os/lib/libmpa/mpa_mul.c:80
    5ad4:	91002014 	add	x20, x0, #0x8
    5ad8:	52800001 	mov	w1, #0x0                   	// #0
/home/lagadanu/Desktop/qemu/optee_os/lib/libmpa/mpa_mul.c:73
    5adc:	aa0003f3 	mov	x19, x0
/home/lagadanu/Desktop/qemu/optee_os/lib/libmpa/mpa_mul.c:80
    5ae0:	d37e7442 	ubfiz	x2, x2, #2, #30
    5ae4:	aa1403e0 	mov	x0, x20
    5ae8:	97ffee81 	bl	14ec <memset>
/home/lagadanu/Desktop/qemu/optee_os/lib/libmpa/mpa_mul.c:82
    5aec:	910022a3 	add	x3, x21, #0x8
/home/lagadanu/Desktop/qemu/optee_os/lib/libmpa/mpa_mul.c:85
    5af0:	d2800000 	mov	x0, #0x0                   	// #0
/home/lagadanu/Desktop/qemu/optee_os/lib/libmpa/mpa_mul.c:84
    5af4:	52800001 	mov	w1, #0x0                   	// #0
/home/lagadanu/Desktop/qemu/optee_os/lib/libmpa/mpa_mul.c:85 (discriminator 1)
    5af8:	b94006a2 	ldr	w2, [x21,#4]
    5afc:	7100005f 	cmp	w2, #0x0
    5b00:	5a82a442 	cneg	w2, w2, lt
    5b04:	6b00005f 	cmp	w2, w0
    5b08:	54000168 	b.hi	5b34 <__mpa_abs_mul_word+0x7c>
/home/lagadanu/Desktop/qemu/optee_os/lib/libmpa/mpa_mul.c:89
    5b0c:	b9000660 	str	w0, [x19,#4]
/home/lagadanu/Desktop/qemu/optee_os/lib/libmpa/mpa_mul.c:90
    5b10:	340000a1 	cbz	w1, 5b24 <__mpa_abs_mul_word+0x6c>
/home/lagadanu/Desktop/qemu/optee_os/lib/libmpa/mpa_mul.c:91
    5b14:	b8205a81 	str	w1, [x20,w0,uxtw #2]
/home/lagadanu/Desktop/qemu/optee_os/lib/libmpa/mpa_mul.c:92
    5b18:	b9400660 	ldr	w0, [x19,#4]
    5b1c:	11000400 	add	w0, w0, #0x1
    5b20:	b9000660 	str	w0, [x19,#4]
/home/lagadanu/Desktop/qemu/optee_os/lib/libmpa/mpa_mul.c:94
    5b24:	a94153f3 	ldp	x19, x20, [sp,#16]
    5b28:	a9425bf5 	ldp	x21, x22, [sp,#32]
    5b2c:	a8c37bfd 	ldp	x29, x30, [sp],#48
    5b30:	d65f03c0 	ret
__mpa_mul_add_word():
/home/lagadanu/Desktop/qemu/optee_os/lib/libmpa/mpa_mul.c:32 (discriminator 3)
    5b34:	b8607862 	ldr	w2, [x3,x0,lsl #2]
    5b38:	2a0103e1 	mov	w1, w1
    5b3c:	9bb60441 	umaddl	x1, w2, w22, x1
/home/lagadanu/Desktop/qemu/optee_os/lib/libmpa/mpa_mul.c:33 (discriminator 3)
    5b40:	b8205a81 	str	w1, [x20,w0,uxtw #2]
    5b44:	91000400 	add	x0, x0, #0x1
/home/lagadanu/Desktop/qemu/optee_os/lib/libmpa/mpa_mul.c:34 (discriminator 3)
    5b48:	d360fc21 	lsr	x1, x1, #32
    5b4c:	17ffffeb 	b	5af8 <__mpa_abs_mul_word+0x40>

0000000000005b50 <__mpa_abs_mul>:
__mpa_abs_mul():
/home/lagadanu/Desktop/qemu/optee_os/lib/libmpa/mpa_mul.c:104
    5b50:	a9b97bfd 	stp	x29, x30, [sp,#-112]!
    5b54:	910003fd 	mov	x29, sp
    5b58:	a90153f3 	stp	x19, x20, [sp,#16]
/home/lagadanu/Desktop/qemu/optee_os/lib/libmpa/mpa_mul.c:107
    5b5c:	9101c3b4 	add	x20, x29, #0x70
/home/lagadanu/Desktop/qemu/optee_os/lib/libmpa/mpa_mul.c:104
    5b60:	a90573fb 	stp	x27, x28, [sp,#80]
/home/lagadanu/Desktop/qemu/optee_os/lib/libmpa/mpa_mul.c:118
    5b64:	9100205c 	add	x28, x2, #0x8
/home/lagadanu/Desktop/qemu/optee_os/lib/libmpa/mpa_mul.c:104
    5b68:	a90363f7 	stp	x23, x24, [sp,#48]
    5b6c:	aa0203f7 	mov	x23, x2
/home/lagadanu/Desktop/qemu/optee_os/lib/libmpa/mpa_mul.c:113
    5b70:	b9400002 	ldr	w2, [x0]
/home/lagadanu/Desktop/qemu/optee_os/lib/libmpa/mpa_mul.c:104
    5b74:	aa0003f3 	mov	x19, x0
    5b78:	a9025bf5 	stp	x21, x22, [sp,#32]
    5b7c:	aa0103f6 	mov	x22, x1
/home/lagadanu/Desktop/qemu/optee_os/lib/libmpa/mpa_mul.c:113
    5b80:	91002015 	add	x21, x0, #0x8
/home/lagadanu/Desktop/qemu/optee_os/lib/libmpa/mpa_mul.c:104
    5b84:	a9046bf9 	stp	x25, x26, [sp,#64]
/home/lagadanu/Desktop/qemu/optee_os/lib/libmpa/mpa_mul.c:113
    5b88:	d37e7442 	ubfiz	x2, x2, #2, #30
/home/lagadanu/Desktop/qemu/optee_os/lib/libmpa/mpa_mul.c:107
    5b8c:	b81fce9f 	str	wzr, [x20,#-4]!
/home/lagadanu/Desktop/qemu/optee_os/lib/libmpa/mpa_mul.c:113
    5b90:	52800001 	mov	w1, #0x0                   	// #0
    5b94:	aa1503e0 	mov	x0, x21
/home/lagadanu/Desktop/qemu/optee_os/lib/libmpa/mpa_mul.c:115
    5b98:	910022db 	add	x27, x22, #0x8
/home/lagadanu/Desktop/qemu/optee_os/lib/libmpa/mpa_mul.c:113
    5b9c:	97ffee54 	bl	14ec <memset>
/home/lagadanu/Desktop/qemu/optee_os/lib/libmpa/mpa_mul.c:117
    5ba0:	d2800019 	mov	x25, #0x0                   	// #0
/home/lagadanu/Desktop/qemu/optee_os/lib/libmpa/mpa_mul.c:106
    5ba4:	52800002 	mov	w2, #0x0                   	// #0
/home/lagadanu/Desktop/qemu/optee_os/lib/libmpa/mpa_mul.c:117 (discriminator 1)
    5ba8:	b94006c0 	ldr	w0, [x22,#4]
    5bac:	8b190aba 	add	x26, x21, x25, lsl #2
    5bb0:	7100001f 	cmp	w0, #0x0
    5bb4:	5a80a400 	cneg	w0, w0, lt
    5bb8:	6b00033f 	cmp	w25, w0
    5bbc:	540001c3 	b.cc	5bf4 <__mpa_abs_mul+0xa4>
/home/lagadanu/Desktop/qemu/optee_os/lib/libmpa/mpa_mul.c:129
    5bc0:	0b020320 	add	w0, w25, w2
    5bc4:	51000401 	sub	w1, w0, #0x1
    5bc8:	b9000661 	str	w1, [x19,#4]
/home/lagadanu/Desktop/qemu/optee_os/lib/libmpa/mpa_mul.c:130
    5bcc:	b9406fa1 	ldr	w1, [x29,#108]
    5bd0:	34000041 	cbz	w1, 5bd8 <__mpa_abs_mul+0x88>
/home/lagadanu/Desktop/qemu/optee_os/lib/libmpa/mpa_mul.c:131
    5bd4:	b9000660 	str	w0, [x19,#4]
/home/lagadanu/Desktop/qemu/optee_os/lib/libmpa/mpa_mul.c:132
    5bd8:	a94153f3 	ldp	x19, x20, [sp,#16]
    5bdc:	a9425bf5 	ldp	x21, x22, [sp,#32]
    5be0:	a94363f7 	ldp	x23, x24, [sp,#48]
    5be4:	a9446bf9 	ldp	x25, x26, [sp,#64]
    5be8:	a94573fb 	ldp	x27, x28, [sp,#80]
    5bec:	a8c77bfd 	ldp	x29, x30, [sp],#112
    5bf0:	d65f03c0 	ret
/home/lagadanu/Desktop/qemu/optee_os/lib/libmpa/mpa_mul.c:120
    5bf4:	d2800018 	mov	x24, #0x0                   	// #0
/home/lagadanu/Desktop/qemu/optee_os/lib/libmpa/mpa_mul.c:119
    5bf8:	b9006fbf 	str	wzr, [x29,#108]
/home/lagadanu/Desktop/qemu/optee_os/lib/libmpa/mpa_mul.c:120 (discriminator 1)
    5bfc:	b94006e0 	ldr	w0, [x23,#4]
    5c00:	2a1803e2 	mov	w2, w24
    5c04:	7100001f 	cmp	w0, #0x0
    5c08:	5a80a400 	cneg	w0, w0, lt
    5c0c:	6b00031f 	cmp	w24, w0
    5c10:	540000c3 	b.cc	5c28 <__mpa_abs_mul+0xd8>
/home/lagadanu/Desktop/qemu/optee_os/lib/libmpa/mpa_mul.c:124
    5c14:	b9406fa0 	ldr	w0, [x29,#108]
    5c18:	34000040 	cbz	w0, 5c20 <__mpa_abs_mul+0xd0>
/home/lagadanu/Desktop/qemu/optee_os/lib/libmpa/mpa_mul.c:125
    5c1c:	b8385b40 	str	w0, [x26,w24,uxtw #2]
    5c20:	91000739 	add	x25, x25, #0x1
    5c24:	17ffffe1 	b	5ba8 <__mpa_abs_mul+0x58>
/home/lagadanu/Desktop/qemu/optee_os/lib/libmpa/mpa_mul.c:121 (discriminator 3)
    5c28:	b8787b81 	ldr	w1, [x28,x24,lsl #2]
    5c2c:	8b384b42 	add	x2, x26, w24, uxtw #2
    5c30:	b8797b60 	ldr	w0, [x27,x25,lsl #2]
    5c34:	aa1403e3 	mov	x3, x20
    5c38:	91000718 	add	x24, x24, #0x1
    5c3c:	97ffff97 	bl	5a98 <__mpa_mul_add_word_cum>
    5c40:	17ffffef 	b	5bfc <__mpa_abs_mul+0xac>

0000000000005c44 <mpa_mul>:
mpa_mul():
/home/lagadanu/Desktop/qemu/optee_os/lib/libmpa/mpa_mul.c:147
    5c44:	a9bb7bfd 	stp	x29, x30, [sp,#-80]!
    5c48:	910003fd 	mov	x29, sp
    5c4c:	a90153f3 	stp	x19, x20, [sp,#16]
    5c50:	aa0003f3 	mov	x19, x0
/home/lagadanu/Desktop/qemu/optee_os/lib/libmpa/mpa_mul.c:151
    5c54:	b9400420 	ldr	w0, [x1,#4]
/home/lagadanu/Desktop/qemu/optee_os/lib/libmpa/mpa_mul.c:147
    5c58:	a9025bf5 	stp	x21, x22, [sp,#32]
    5c5c:	f9001bf7 	str	x23, [sp,#48]
/home/lagadanu/Desktop/qemu/optee_os/lib/libmpa/mpa_mul.c:151
    5c60:	34000080 	cbz	w0, 5c70 <mpa_mul+0x2c>
/home/lagadanu/Desktop/qemu/optee_os/lib/libmpa/mpa_mul.c:151 (discriminator 1)
    5c64:	b9400440 	ldr	w0, [x2,#4]
    5c68:	aa0203f5 	mov	x21, x2
    5c6c:	35000120 	cbnz	w0, 5c90 <mpa_mul+0x4c>
/home/lagadanu/Desktop/qemu/optee_os/lib/libmpa/mpa_mul.c:152
    5c70:	52800001 	mov	w1, #0x0                   	// #0
    5c74:	aa1303e0 	mov	x0, x19
    5c78:	97fffaf7 	bl	4854 <mpa_set_word>
/home/lagadanu/Desktop/qemu/optee_os/lib/libmpa/mpa_mul.c:171
    5c7c:	a94153f3 	ldp	x19, x20, [sp,#16]
    5c80:	a9425bf5 	ldp	x21, x22, [sp,#32]
    5c84:	f9401bf7 	ldr	x23, [sp,#48]
    5c88:	a8c57bfd 	ldp	x29, x30, [sp],#80
    5c8c:	d65f03c0 	ret
/home/lagadanu/Desktop/qemu/optee_os/lib/libmpa/mpa_mul.c:157
    5c90:	eb13003f 	cmp	x1, x19
    5c94:	aa0103f6 	mov	x22, x1
    5c98:	1a9f17f4 	cset	w20, eq
    5c9c:	eb13005f 	cmp	x2, x19
    5ca0:	1a9f17e0 	cset	w0, eq
    5ca4:	aa0303f7 	mov	x23, x3
    5ca8:	2a000294 	orr	w20, w20, w0
/home/lagadanu/Desktop/qemu/optee_os/lib/libmpa/mpa_mul.c:158
    5cac:	340003b4 	cbz	w20, 5d20 <mpa_mul+0xdc>
/home/lagadanu/Desktop/qemu/optee_os/lib/libmpa/mpa_mul.c:159
    5cb0:	aa0303e1 	mov	x1, x3
    5cb4:	910123a0 	add	x0, x29, #0x48
    5cb8:	97ffff67 	bl	5a54 <mpa_alloc_static_temp_var>
/home/lagadanu/Desktop/qemu/optee_os/lib/libmpa/mpa_mul.c:163
    5cbc:	f94027a0 	ldr	x0, [x29,#72]
    5cc0:	aa1503e2 	mov	x2, x21
    5cc4:	aa1603e1 	mov	x1, x22
    5cc8:	97ffffa2 	bl	5b50 <__mpa_abs_mul>
/home/lagadanu/Desktop/qemu/optee_os/lib/libmpa/mpa_mul.c:165
    5ccc:	b94006c1 	ldr	w1, [x22,#4]
    5cd0:	12800000 	mov	w0, #0xffffffff            	// #-1
    5cd4:	b94006a2 	ldr	w2, [x21,#4]
    5cd8:	6b00003f 	cmp	w1, w0
    5cdc:	5a80d401 	cneg	w1, w0, gt
    5ce0:	6b00005f 	cmp	w2, w0
    5ce4:	5a80d400 	cneg	w0, w0, gt
    5ce8:	6b00003f 	cmp	w1, w0
    5cec:	540000a0 	b.eq	5d00 <mpa_mul+0xbc>
/home/lagadanu/Desktop/qemu/optee_os/lib/libmpa/mpa_mul.c:166
    5cf0:	f94027a1 	ldr	x1, [x29,#72]
    5cf4:	b9400420 	ldr	w0, [x1,#4]
    5cf8:	4b0003e0 	neg	w0, w0
    5cfc:	b9000420 	str	w0, [x1,#4]
/home/lagadanu/Desktop/qemu/optee_os/lib/libmpa/mpa_mul.c:168
    5d00:	f94027a1 	ldr	x1, [x29,#72]
    5d04:	aa1303e0 	mov	x0, x19
    5d08:	97fff874 	bl	3ed8 <mpa_copy>
/home/lagadanu/Desktop/qemu/optee_os/lib/libmpa/mpa_mul.c:169
    5d0c:	34fffb94 	cbz	w20, 5c7c <mpa_mul+0x38>
/home/lagadanu/Desktop/qemu/optee_os/lib/libmpa/mpa_mul.c:170
    5d10:	aa1703e1 	mov	x1, x23
    5d14:	910123a0 	add	x0, x29, #0x48
    5d18:	97ffff53 	bl	5a64 <mpa_free_static_temp_var>
    5d1c:	17ffffd8 	b	5c7c <mpa_mul+0x38>
/home/lagadanu/Desktop/qemu/optee_os/lib/libmpa/mpa_mul.c:161
    5d20:	f90027b3 	str	x19, [x29,#72]
    5d24:	17ffffe6 	b	5cbc <mpa_mul+0x78>

0000000000005d28 <mpa_mul_word>:
mpa_mul_word():
/home/lagadanu/Desktop/qemu/optee_os/lib/libmpa/mpa_mul.c:180
    5d28:	a9bb7bfd 	stp	x29, x30, [sp,#-80]!
    5d2c:	910003fd 	mov	x29, sp
    5d30:	a90153f3 	stp	x19, x20, [sp,#16]
    5d34:	aa0103f4 	mov	x20, x1
/home/lagadanu/Desktop/qemu/optee_os/lib/libmpa/mpa_mul.c:185
    5d38:	b9400421 	ldr	w1, [x1,#4]
/home/lagadanu/Desktop/qemu/optee_os/lib/libmpa/mpa_mul.c:180
    5d3c:	a9025bf5 	stp	x21, x22, [sp,#32]
    5d40:	f9001bf7 	str	x23, [sp,#48]
/home/lagadanu/Desktop/qemu/optee_os/lib/libmpa/mpa_mul.c:185
    5d44:	7100003f 	cmp	w1, #0x0
    5d48:	7a401844 	ccmp	w2, #0x0, #0x4, ne
    5d4c:	54000101 	b.ne	5d6c <mpa_mul_word+0x44>
/home/lagadanu/Desktop/qemu/optee_os/lib/libmpa/mpa_mul.c:186
    5d50:	52800001 	mov	w1, #0x0                   	// #0
    5d54:	97fffac0 	bl	4854 <mpa_set_word>
/home/lagadanu/Desktop/qemu/optee_os/lib/libmpa/mpa_mul.c:206
    5d58:	a94153f3 	ldp	x19, x20, [sp,#16]
    5d5c:	a9425bf5 	ldp	x21, x22, [sp,#32]
    5d60:	f9401bf7 	ldr	x23, [sp,#48]
    5d64:	a8c57bfd 	ldp	x29, x30, [sp],#80
    5d68:	d65f03c0 	ret
    5d6c:	aa0003f3 	mov	x19, x0
/home/lagadanu/Desktop/qemu/optee_os/lib/libmpa/mpa_mul.c:190
    5d70:	12800000 	mov	w0, #0xffffffff            	// #-1
    5d74:	6b00003f 	cmp	w1, w0
    5d78:	2a0203f7 	mov	w23, w2
    5d7c:	5a80d415 	cneg	w21, w0, gt
    5d80:	aa0303f6 	mov	x22, x3
/home/lagadanu/Desktop/qemu/optee_os/lib/libmpa/mpa_mul.c:194
    5d84:	eb13029f 	cmp	x20, x19
    5d88:	540002e1 	b.ne	5de4 <mpa_mul_word+0xbc>
/home/lagadanu/Desktop/qemu/optee_os/lib/libmpa/mpa_mul.c:195
    5d8c:	aa0303e1 	mov	x1, x3
    5d90:	910123a0 	add	x0, x29, #0x48
    5d94:	97ffff30 	bl	5a54 <mpa_alloc_static_temp_var>
/home/lagadanu/Desktop/qemu/optee_os/lib/libmpa/mpa_mul.c:199
    5d98:	f94027a0 	ldr	x0, [x29,#72]
    5d9c:	2a1703e2 	mov	w2, w23
    5da0:	aa1403e1 	mov	x1, x20
    5da4:	97ffff45 	bl	5ab8 <__mpa_abs_mul_word>
/home/lagadanu/Desktop/qemu/optee_os/lib/libmpa/mpa_mul.c:201
    5da8:	310006bf 	cmn	w21, #0x1
    5dac:	540000a1 	b.ne	5dc0 <mpa_mul_word+0x98>
/home/lagadanu/Desktop/qemu/optee_os/lib/libmpa/mpa_mul.c:202
    5db0:	f94027a1 	ldr	x1, [x29,#72]
    5db4:	b9400420 	ldr	w0, [x1,#4]
    5db8:	4b0003e0 	neg	w0, w0
    5dbc:	b9000420 	str	w0, [x1,#4]
/home/lagadanu/Desktop/qemu/optee_os/lib/libmpa/mpa_mul.c:203
    5dc0:	f94027a1 	ldr	x1, [x29,#72]
    5dc4:	aa1303e0 	mov	x0, x19
    5dc8:	97fff844 	bl	3ed8 <mpa_copy>
/home/lagadanu/Desktop/qemu/optee_os/lib/libmpa/mpa_mul.c:204
    5dcc:	eb13029f 	cmp	x20, x19
    5dd0:	54fffc41 	b.ne	5d58 <mpa_mul_word+0x30>
/home/lagadanu/Desktop/qemu/optee_os/lib/libmpa/mpa_mul.c:205
    5dd4:	aa1603e1 	mov	x1, x22
    5dd8:	910123a0 	add	x0, x29, #0x48
    5ddc:	97ffff22 	bl	5a64 <mpa_free_static_temp_var>
    5de0:	17ffffde 	b	5d58 <mpa_mul_word+0x30>
/home/lagadanu/Desktop/qemu/optee_os/lib/libmpa/mpa_mul.c:197
    5de4:	f90027b3 	str	x19, [x29,#72]
    5de8:	17ffffec 	b	5d98 <mpa_mul_word+0x70>

0000000000005dec <mpa_get_random>:
mpa_get_random():
/home/lagadanu/Desktop/qemu/optee_os/lib/libmpa/mpa_random.c:43
    5dec:	a9ba7bfd 	stp	x29, x30, [sp,#-96]!
    5df0:	910003fd 	mov	x29, sp
    5df4:	a9025bf5 	stp	x21, x22, [sp,#32]
    5df8:	aa0103f5 	mov	x21, x1
    5dfc:	a90153f3 	stp	x19, x20, [sp,#16]
    5e00:	aa0003f4 	mov	x20, x0
    5e04:	a90363f7 	stp	x23, x24, [sp,#48]
get_rng_array():
/home/lagadanu/Desktop/qemu/optee_os/lib/libmpa/mpa_random.c:24
    5e08:	91017fb7 	add	x23, x29, #0x5f
mpa_get_random():
/home/lagadanu/Desktop/qemu/optee_os/lib/libmpa/mpa_random.c:43
    5e0c:	f90023f9 	str	x25, [sp,#64]
/home/lagadanu/Desktop/qemu/optee_os/lib/libmpa/mpa_random.c:46
    5e10:	97fff826 	bl	3ea8 <mpa_wipe>
/home/lagadanu/Desktop/qemu/optee_os/lib/libmpa/mpa_random.c:47
    5e14:	b94006a0 	ldr	w0, [x21,#4]
    5e18:	52800013 	mov	w19, #0x0                   	// #0
    5e1c:	b9400281 	ldr	w1, [x20]
    5e20:	7100001f 	cmp	w0, #0x0
    5e24:	5a80a400 	cneg	w0, w0, lt
/home/lagadanu/Desktop/qemu/optee_os/lib/libmpa/mpa_random.c:48
    5e28:	6b00003f 	cmp	w1, w0
    5e2c:	1a812000 	csel	w0, w0, w1, cs
    5e30:	b9000680 	str	w0, [x20,#4]
/home/lagadanu/Desktop/qemu/optee_os/lib/libmpa/mpa_random.c:51
    5e34:	35000573 	cbnz	w19, 5ee0 <mpa_get_random+0xf4>
    5e38:	91002299 	add	x25, x20, #0x8
    5e3c:	1400000e 	b	5e74 <mpa_get_random+0x88>
    5e40:	52800098 	mov	w24, #0x4                   	// #4
    5e44:	52800000 	mov	w0, #0x0                   	// #0
/home/lagadanu/Desktop/qemu/optee_os/lib/libmpa/mpa_random.c:55 (discriminator 3)
    5e48:	53185c16 	lsl	w22, w0, #8
get_rng_array():
/home/lagadanu/Desktop/qemu/optee_os/lib/libmpa/mpa_random.c:24
    5e4c:	d2800021 	mov	x1, #0x1                   	// #1
    5e50:	aa1703e0 	mov	x0, x23
    5e54:	97fff4a3 	bl	30e0 <utee_cryp_random_number_generate>
get_random_byte():
/home/lagadanu/Desktop/qemu/optee_os/lib/libmpa/mpa_random.c:31
    5e58:	35ffffa0 	cbnz	w0, 5e4c <mpa_get_random+0x60>
/home/lagadanu/Desktop/qemu/optee_os/lib/libmpa/mpa_random.c:34
    5e5c:	39417fa0 	ldrb	w0, [x29,#95]
mpa_get_random():
/home/lagadanu/Desktop/qemu/optee_os/lib/libmpa/mpa_random.c:54
    5e60:	71000718 	subs	w24, w24, #0x1
/home/lagadanu/Desktop/qemu/optee_os/lib/libmpa/mpa_random.c:55
    5e64:	4a160000 	eor	w0, w0, w22
/home/lagadanu/Desktop/qemu/optee_os/lib/libmpa/mpa_random.c:54
    5e68:	54ffff01 	b.ne	5e48 <mpa_get_random+0x5c>
/home/lagadanu/Desktop/qemu/optee_os/lib/libmpa/mpa_random.c:52 (discriminator 2)
    5e6c:	11000673 	add	w19, w19, #0x1
/home/lagadanu/Desktop/qemu/optee_os/lib/libmpa/mpa_random.c:56 (discriminator 2)
    5e70:	b8004720 	str	w0, [x25],#4
/home/lagadanu/Desktop/qemu/optee_os/lib/libmpa/mpa_random.c:52 (discriminator 1)
    5e74:	b9400681 	ldr	w1, [x20,#4]
    5e78:	6b01027f 	cmp	w19, w1
    5e7c:	54fffe2b 	b.lt	5e40 <mpa_get_random+0x54>
/home/lagadanu/Desktop/qemu/optee_os/lib/libmpa/mpa_random.c:58
    5e80:	b94006a0 	ldr	w0, [x21,#4]
/home/lagadanu/Desktop/qemu/optee_os/lib/libmpa/mpa_random.c:59
    5e84:	52800033 	mov	w19, #0x1                   	// #1
/home/lagadanu/Desktop/qemu/optee_os/lib/libmpa/mpa_random.c:58
    5e88:	7100001f 	cmp	w0, #0x0
    5e8c:	5a80a400 	cneg	w0, w0, lt
    5e90:	6b00003f 	cmp	w1, w0
    5e94:	5400026b 	b.lt	5ee0 <mpa_get_random+0xf4>
/home/lagadanu/Desktop/qemu/optee_os/lib/libmpa/mpa_random.c:62
    5e98:	aa1503e0 	mov	x0, x21
    5e9c:	97fff830 	bl	3f5c <mpa_highest_bit_index>
/home/lagadanu/Desktop/qemu/optee_os/lib/libmpa/mpa_random.c:64
    5ea0:	12001000 	and	w0, w0, #0x1f
    5ea4:	0b130000 	add	w0, w0, w19
/home/lagadanu/Desktop/qemu/optee_os/lib/libmpa/mpa_random.c:65
    5ea8:	7100801f 	cmp	w0, #0x20
    5eac:	54000100 	b.eq	5ecc <mpa_get_random+0xe0>
/home/lagadanu/Desktop/qemu/optee_os/lib/libmpa/mpa_random.c:66
    5eb0:	1ac02273 	lsl	w19, w19, w0
    5eb4:	b9800680 	ldrsw	x0, [x20,#4]
    5eb8:	51000673 	sub	w19, w19, #0x1
    5ebc:	8b000a80 	add	x0, x20, x0, lsl #2
/home/lagadanu/Desktop/qemu/optee_os/lib/libmpa/mpa_random.c:67
    5ec0:	b9400401 	ldr	w1, [x0,#4]
    5ec4:	0a130033 	and	w19, w1, w19
    5ec8:	b9000413 	str	w19, [x0,#4]
/home/lagadanu/Desktop/qemu/optee_os/lib/libmpa/mpa_random.c:69
    5ecc:	aa1503e1 	mov	x1, x21
    5ed0:	aa1403e0 	mov	x0, x20
    5ed4:	9400038c 	bl	6d04 <mpa_cmp>
    5ed8:	531f7c13 	lsr	w19, w0, #31
    5edc:	17ffffd6 	b	5e34 <mpa_get_random+0x48>
/home/lagadanu/Desktop/qemu/optee_os/lib/libmpa/mpa_random.c:72
    5ee0:	a94153f3 	ldp	x19, x20, [sp,#16]
    5ee4:	a9425bf5 	ldp	x21, x22, [sp,#32]
    5ee8:	a94363f7 	ldp	x23, x24, [sp,#48]
    5eec:	f94023f9 	ldr	x25, [sp,#64]
    5ef0:	a8c67bfd 	ldp	x29, x30, [sp],#96
    5ef4:	d65f03c0 	ret

0000000000005ef8 <mpa_get_random_digits>:
mpa_get_random_digits():
/home/lagadanu/Desktop/qemu/optee_os/lib/libmpa/mpa_random.c:75
    5ef8:	a9be7bfd 	stp	x29, x30, [sp,#-32]!
    5efc:	910003fd 	mov	x29, sp
    5f00:	a90153f3 	stp	x19, x20, [sp,#16]
    5f04:	aa0003f4 	mov	x20, x0
    5f08:	2a0103f3 	mov	w19, w1
/home/lagadanu/Desktop/qemu/optee_os/lib/libmpa/mpa_random.c:76
    5f0c:	97fff7e7 	bl	3ea8 <mpa_wipe>
/home/lagadanu/Desktop/qemu/optee_os/lib/libmpa/mpa_random.c:78
    5f10:	b9400280 	ldr	w0, [x20]
    5f14:	6b13001f 	cmp	w0, w19
    5f18:	540000a2 	b.cs	5f2c <mpa_get_random_digits+0x34>
/home/lagadanu/Desktop/qemu/optee_os/lib/libmpa/mpa_random.c:79
    5f1c:	52800000 	mov	w0, #0x0                   	// #0
/home/lagadanu/Desktop/qemu/optee_os/lib/libmpa/mpa_random.c:87
    5f20:	a94153f3 	ldp	x19, x20, [sp,#16]
    5f24:	a8c27bfd 	ldp	x29, x30, [sp],#32
    5f28:	d65f03c0 	ret
/home/lagadanu/Desktop/qemu/optee_os/lib/libmpa/mpa_random.c:83
    5f2c:	7100027f 	cmp	w19, #0x0
/home/lagadanu/Desktop/qemu/optee_os/lib/libmpa/mpa_random.c:81
    5f30:	b9000693 	str	w19, [x20,#4]
/home/lagadanu/Desktop/qemu/optee_os/lib/libmpa/mpa_random.c:83
    5f34:	5a93a673 	cneg	w19, w19, lt
get_rng_array():
/home/lagadanu/Desktop/qemu/optee_os/lib/libmpa/mpa_random.c:24
    5f38:	91002280 	add	x0, x20, #0x8
mpa_get_random_digits():
/home/lagadanu/Desktop/qemu/optee_os/lib/libmpa/mpa_random.c:83
    5f3c:	531e7661 	lsl	w1, w19, #2
get_rng_array():
/home/lagadanu/Desktop/qemu/optee_os/lib/libmpa/mpa_random.c:24
    5f40:	93407c21 	sxtw	x1, w1
    5f44:	97fff467 	bl	30e0 <utee_cryp_random_number_generate>
mpa_get_random_digits():
/home/lagadanu/Desktop/qemu/optee_os/lib/libmpa/mpa_random.c:83
    5f48:	35fffea0 	cbnz	w0, 5f1c <mpa_get_random_digits+0x24>
/home/lagadanu/Desktop/qemu/optee_os/lib/libmpa/mpa_random.c:86
    5f4c:	b9400680 	ldr	w0, [x20,#4]
    5f50:	7100001f 	cmp	w0, #0x0
    5f54:	5a80a400 	cneg	w0, w0, lt
    5f58:	17fffff2 	b	5f20 <mpa_get_random_digits+0x28>

0000000000005f5c <__mpa_shift_words_left>:
__mpa_shift_words_left():
/home/lagadanu/Desktop/qemu/optee_os/lib/libmpa/mpa_shift.c:22
    5f5c:	340004a1 	cbz	w1, 5ff0 <__mpa_shift_words_left+0x94>
/home/lagadanu/Desktop/qemu/optee_os/lib/libmpa/mpa_shift.c:19 (discriminator 1)
    5f60:	a9bd7bfd 	stp	x29, x30, [sp,#-48]!
    5f64:	910003fd 	mov	x29, sp
    5f68:	f90013f5 	str	x21, [sp,#32]
    5f6c:	a90153f3 	stp	x19, x20, [sp,#16]
/home/lagadanu/Desktop/qemu/optee_os/lib/libmpa/mpa_shift.c:22 (discriminator 1)
    5f70:	b9400415 	ldr	w21, [x0,#4]
    5f74:	710002bf 	cmp	w21, #0x0
    5f78:	54000280 	b.eq	5fc8 <__mpa_shift_words_left+0x6c>
    5f7c:	51000425 	sub	w5, w1, #0x1
/home/lagadanu/Desktop/qemu/optee_os/lib/libmpa/mpa_shift.c:24
    5f80:	5a95a6a2 	cneg	w2, w21, lt
    5f84:	0b050042 	add	w2, w2, w5
    5f88:	d37e7c43 	ubfiz	x3, x2, #2, #32
    5f8c:	91002063 	add	x3, x3, #0x8
    5f90:	8b030003 	add	x3, x0, x3
/home/lagadanu/Desktop/qemu/optee_os/lib/libmpa/mpa_shift.c:24 (discriminator 1)
    5f94:	6b05005f 	cmp	w2, w5
    5f98:	54000208 	b.hi	5fd8 <__mpa_shift_words_left+0x7c>
    5f9c:	2a0103f3 	mov	w19, w1
    5fa0:	aa0003f4 	mov	x20, x0
/home/lagadanu/Desktop/qemu/optee_os/lib/libmpa/mpa_shift.c:27
    5fa4:	52800001 	mov	w1, #0x0                   	// #0
    5fa8:	d37e7662 	ubfiz	x2, x19, #2, #30
    5fac:	91002000 	add	x0, x0, #0x8
    5fb0:	97ffed4f 	bl	14ec <memset>
/home/lagadanu/Desktop/qemu/optee_os/lib/libmpa/mpa_shift.c:31
    5fb4:	4b1302a0 	sub	w0, w21, w19
    5fb8:	0b1302a1 	add	w1, w21, w19
    5fbc:	710002bf 	cmp	w21, #0x0
    5fc0:	1a80c021 	csel	w1, w1, w0, gt
    5fc4:	b9000681 	str	w1, [x20,#4]
/home/lagadanu/Desktop/qemu/optee_os/lib/libmpa/mpa_shift.c:34
    5fc8:	a94153f3 	ldp	x19, x20, [sp,#16]
    5fcc:	f94013f5 	ldr	x21, [sp,#32]
    5fd0:	a8c37bfd 	ldp	x29, x30, [sp],#48
    5fd4:	d65f03c0 	ret
/home/lagadanu/Desktop/qemu/optee_os/lib/libmpa/mpa_shift.c:25 (discriminator 3)
    5fd8:	4b010044 	sub	w4, w2, w1
/home/lagadanu/Desktop/qemu/optee_os/lib/libmpa/mpa_shift.c:24 (discriminator 3)
    5fdc:	51000442 	sub	w2, w2, #0x1
/home/lagadanu/Desktop/qemu/optee_os/lib/libmpa/mpa_shift.c:25 (discriminator 3)
    5fe0:	8b040804 	add	x4, x0, x4, lsl #2
    5fe4:	b9400884 	ldr	w4, [x4,#8]
    5fe8:	b81fc464 	str	w4, [x3],#-4
    5fec:	17ffffea 	b	5f94 <__mpa_shift_words_left+0x38>
    5ff0:	d65f03c0 	ret

0000000000005ff4 <__mpa_shift_words_right>:
__mpa_shift_words_right():
/home/lagadanu/Desktop/qemu/optee_os/lib/libmpa/mpa_shift.c:42
    5ff4:	aa0003e3 	mov	x3, x0
/home/lagadanu/Desktop/qemu/optee_os/lib/libmpa/mpa_shift.c:45
    5ff8:	34000201 	cbz	w1, 6038 <__mpa_shift_words_right+0x44>
/home/lagadanu/Desktop/qemu/optee_os/lib/libmpa/mpa_shift.c:45 (discriminator 1)
    5ffc:	b9400402 	ldr	w2, [x0,#4]
    6000:	7100005f 	cmp	w2, #0x0
    6004:	540001a0 	b.eq	6038 <__mpa_shift_words_right+0x44>
/home/lagadanu/Desktop/qemu/optee_os/lib/libmpa/mpa_shift.c:48
    6008:	5a82a444 	cneg	w4, w2, lt
    600c:	6b04003f 	cmp	w1, w4
    6010:	54000162 	b.cs	603c <__mpa_shift_words_right+0x48>
    6014:	91002005 	add	x5, x0, #0x8
    6018:	2a0103e0 	mov	w0, w1
/home/lagadanu/Desktop/qemu/optee_os/lib/libmpa/mpa_shift.c:53 (discriminator 1)
    601c:	6b04001f 	cmp	w0, w4
    6020:	54000121 	b.ne	6044 <__mpa_shift_words_right+0x50>
/home/lagadanu/Desktop/qemu/optee_os/lib/libmpa/mpa_shift.c:58
    6024:	0b010040 	add	w0, w2, w1
    6028:	7100005f 	cmp	w2, #0x0
    602c:	4b010041 	sub	w1, w2, w1
    6030:	1a80c021 	csel	w1, w1, w0, gt
    6034:	b9000461 	str	w1, [x3,#4]
    6038:	d65f03c0 	ret
/home/lagadanu/Desktop/qemu/optee_os/lib/libmpa/mpa_shift.c:49
    603c:	52800001 	mov	w1, #0x0                   	// #0
    6040:	17fffa05 	b	4854 <mpa_set_word>
/home/lagadanu/Desktop/qemu/optee_os/lib/libmpa/mpa_shift.c:54 (discriminator 3)
    6044:	8b204866 	add	x6, x3, w0, uxtw #2
    6048:	11000400 	add	w0, w0, #0x1
    604c:	b94008c6 	ldr	w6, [x6,#8]
    6050:	b80044a6 	str	w6, [x5],#4
    6054:	17fffff2 	b	601c <__mpa_shift_words_right+0x28>

0000000000006058 <mpa_shift_left>:
mpa_shift_left():
/home/lagadanu/Desktop/qemu/optee_os/lib/libmpa/mpa_shift.c:76
    6058:	a9bd7bfd 	stp	x29, x30, [sp,#-48]!
    605c:	910003fd 	mov	x29, sp
    6060:	a90153f3 	stp	x19, x20, [sp,#16]
    6064:	aa0003f3 	mov	x19, x0
    6068:	a9025bf5 	stp	x21, x22, [sp,#32]
    606c:	2a0203f6 	mov	w22, w2
/home/lagadanu/Desktop/qemu/optee_os/lib/libmpa/mpa_shift.c:88
    6070:	97fff79a 	bl	3ed8 <mpa_copy>
/home/lagadanu/Desktop/qemu/optee_os/lib/libmpa/mpa_shift.c:89
    6074:	aa1303e0 	mov	x0, x19
    6078:	97fff783 	bl	3e84 <__mpa_set_unused_digits_to_zero>
/home/lagadanu/Desktop/qemu/optee_os/lib/libmpa/mpa_shift.c:90
    607c:	34000316 	cbz	w22, 60dc <mpa_shift_left+0x84>
/home/lagadanu/Desktop/qemu/optee_os/lib/libmpa/mpa_shift.c:90 (discriminator 1)
    6080:	b9400674 	ldr	w20, [x19,#4]
    6084:	340002d4 	cbz	w20, 60dc <mpa_shift_left+0x84>
/home/lagadanu/Desktop/qemu/optee_os/lib/libmpa/mpa_shift.c:94
    6088:	53057ed5 	lsr	w21, w22, #5
/home/lagadanu/Desktop/qemu/optee_os/lib/libmpa/mpa_shift.c:110
    608c:	720012d6 	ands	w22, w22, #0x1f
    6090:	540003a1 	b.ne	6104 <mpa_shift_left+0xac>
/home/lagadanu/Desktop/qemu/optee_os/lib/libmpa/mpa_shift.c:114
    6094:	7100029f 	cmp	w20, #0x0
    6098:	510006a3 	sub	w3, w21, #0x1
    609c:	5a94a680 	cneg	w0, w20, lt
    60a0:	0b030000 	add	w0, w0, w3
    60a4:	d37e7c01 	ubfiz	x1, x0, #2, #32
    60a8:	91002021 	add	x1, x1, #0x8
    60ac:	8b010261 	add	x1, x19, x1
/home/lagadanu/Desktop/qemu/optee_os/lib/libmpa/mpa_shift.c:114 (discriminator 1)
    60b0:	6b03001f 	cmp	w0, w3
    60b4:	540001c8 	b.hi	60ec <mpa_shift_left+0x94>
/home/lagadanu/Desktop/qemu/optee_os/lib/libmpa/mpa_shift.c:140
    60b8:	d37e6aa2 	ubfiz	x2, x21, #2, #27
    60bc:	52800001 	mov	w1, #0x0                   	// #0
    60c0:	91002260 	add	x0, x19, #0x8
    60c4:	97ffed0a 	bl	14ec <memset>
/home/lagadanu/Desktop/qemu/optee_os/lib/libmpa/mpa_shift.c:142
    60c8:	7100029f 	cmp	w20, #0x0
    60cc:	5400088d 	b.le	61dc <mpa_shift_left+0x184>
/home/lagadanu/Desktop/qemu/optee_os/lib/libmpa/mpa_shift.c:143
    60d0:	0b150294 	add	w20, w20, w21
    60d4:	0b160294 	add	w20, w20, w22
/home/lagadanu/Desktop/qemu/optee_os/lib/libmpa/mpa_shift.c:145
    60d8:	b9000674 	str	w20, [x19,#4]
/home/lagadanu/Desktop/qemu/optee_os/lib/libmpa/mpa_shift.c:146
    60dc:	a94153f3 	ldp	x19, x20, [sp,#16]
    60e0:	a9425bf5 	ldp	x21, x22, [sp,#32]
    60e4:	a8c37bfd 	ldp	x29, x30, [sp],#48
    60e8:	d65f03c0 	ret
/home/lagadanu/Desktop/qemu/optee_os/lib/libmpa/mpa_shift.c:115 (discriminator 3)
    60ec:	4b150002 	sub	w2, w0, w21
/home/lagadanu/Desktop/qemu/optee_os/lib/libmpa/mpa_shift.c:114 (discriminator 3)
    60f0:	51000400 	sub	w0, w0, #0x1
/home/lagadanu/Desktop/qemu/optee_os/lib/libmpa/mpa_shift.c:115 (discriminator 3)
    60f4:	8b020a62 	add	x2, x19, x2, lsl #2
    60f8:	b9400842 	ldr	w2, [x2,#8]
    60fc:	b81fc422 	str	w2, [x1],#-4
    6100:	17ffffec 	b	60b0 <mpa_shift_left+0x58>
/home/lagadanu/Desktop/qemu/optee_os/lib/libmpa/mpa_shift.c:117
    6104:	7100029f 	cmp	w20, #0x0
/home/lagadanu/Desktop/qemu/optee_os/lib/libmpa/mpa_shift.c:118
    6108:	52800021 	mov	w1, #0x1                   	// #1
/home/lagadanu/Desktop/qemu/optee_os/lib/libmpa/mpa_shift.c:117
    610c:	5a94a680 	cneg	w0, w20, lt
/home/lagadanu/Desktop/qemu/optee_os/lib/libmpa/mpa_shift.c:118
    6110:	52800403 	mov	w3, #0x20                  	// #32
/home/lagadanu/Desktop/qemu/optee_os/lib/libmpa/mpa_shift.c:117
    6114:	51000402 	sub	w2, w0, #0x1
/home/lagadanu/Desktop/qemu/optee_os/lib/libmpa/mpa_shift.c:118
    6118:	4b160063 	sub	w3, w3, w22
/home/lagadanu/Desktop/qemu/optee_os/lib/libmpa/mpa_shift.c:117
    611c:	8b22ca62 	add	x2, x19, w2, sxtw #2
/home/lagadanu/Desktop/qemu/optee_os/lib/libmpa/mpa_shift.c:118
    6120:	1ad62021 	lsl	w1, w1, w22
    6124:	51000421 	sub	w1, w1, #0x1
/home/lagadanu/Desktop/qemu/optee_os/lib/libmpa/mpa_shift.c:126
    6128:	0b150000 	add	w0, w0, w21
/home/lagadanu/Desktop/qemu/optee_os/lib/libmpa/mpa_shift.c:117
    612c:	b9400842 	ldr	w2, [x2,#8]
/home/lagadanu/Desktop/qemu/optee_os/lib/libmpa/mpa_shift.c:118
    6130:	1ac32021 	lsl	w1, w1, w3
/home/lagadanu/Desktop/qemu/optee_os/lib/libmpa/mpa_shift.c:117
    6134:	6a020021 	ands	w1, w1, w2
    6138:	1a9f07e6 	cset	w6, ne
/home/lagadanu/Desktop/qemu/optee_os/lib/libmpa/mpa_shift.c:126
    613c:	0b060000 	add	w0, w0, w6
/home/lagadanu/Desktop/qemu/optee_os/lib/libmpa/mpa_shift.c:127
    6140:	34000141 	cbz	w1, 6168 <mpa_shift_left+0x110>
/home/lagadanu/Desktop/qemu/optee_os/lib/libmpa/mpa_shift.c:128
    6144:	2a3503e1 	mvn	w1, w21
    6148:	8b204a64 	add	x4, x19, w0, uxtw #2
    614c:	0b000021 	add	w1, w1, w0
    6150:	8b010a61 	add	x1, x19, x1, lsl #2
    6154:	b9400821 	ldr	w1, [x1,#8]
    6158:	1ac32422 	lsr	w2, w1, w3
/home/lagadanu/Desktop/qemu/optee_os/lib/libmpa/mpa_shift.c:129
    615c:	b9400881 	ldr	w1, [x4,#8]
    6160:	4a020021 	eor	w1, w1, w2
    6164:	b9000881 	str	w1, [x4,#8]
/home/lagadanu/Desktop/qemu/optee_os/lib/libmpa/mpa_shift.c:131
    6168:	51000401 	sub	w1, w0, #0x1
    616c:	4b150000 	sub	w0, w0, w21
/home/lagadanu/Desktop/qemu/optee_os/lib/libmpa/mpa_shift.c:132
    6170:	4b150024 	sub	w4, w1, w21
    6174:	8b010a65 	add	x5, x19, x1, lsl #2
    6178:	8b040a64 	add	x4, x19, x4, lsl #2
/home/lagadanu/Desktop/qemu/optee_os/lib/libmpa/mpa_shift.c:131
    617c:	aa0103e2 	mov	x2, x1
    6180:	91000821 	add	x1, x1, #0x2
    6184:	51000800 	sub	w0, w0, #0x2
    6188:	8b010a61 	add	x1, x19, x1, lsl #2
/home/lagadanu/Desktop/qemu/optee_os/lib/libmpa/mpa_shift.c:132
    618c:	b9400884 	ldr	w4, [x4,#8]
    6190:	1ad62084 	lsl	w4, w4, w22
    6194:	b90008a4 	str	w4, [x5,#8]
/home/lagadanu/Desktop/qemu/optee_os/lib/libmpa/mpa_shift.c:133
    6198:	6b15005f 	cmp	w2, w21
    619c:	54000068 	b.hi	61a8 <mpa_shift_left+0x150>
/home/lagadanu/Desktop/qemu/optee_os/lib/libmpa/mpa_shift.c:108
    61a0:	2a0603f6 	mov	w22, w6
    61a4:	17ffffc5 	b	60b8 <mpa_shift_left+0x60>
/home/lagadanu/Desktop/qemu/optee_os/lib/libmpa/mpa_shift.c:134
    61a8:	8b204a67 	add	x7, x19, w0, uxtw #2
/home/lagadanu/Desktop/qemu/optee_os/lib/libmpa/mpa_shift.c:136
    61ac:	51000442 	sub	w2, w2, #0x1
    61b0:	51000400 	sub	w0, w0, #0x1
/home/lagadanu/Desktop/qemu/optee_os/lib/libmpa/mpa_shift.c:134
    61b4:	b94008e4 	ldr	w4, [x7,#8]
    61b8:	1ac32485 	lsr	w5, w4, w3
/home/lagadanu/Desktop/qemu/optee_os/lib/libmpa/mpa_shift.c:135
    61bc:	b9400024 	ldr	w4, [x1]
    61c0:	4a050084 	eor	w4, w4, w5
    61c4:	b81fc424 	str	w4, [x1],#-4
/home/lagadanu/Desktop/qemu/optee_os/lib/libmpa/mpa_shift.c:137
    61c8:	8b224a65 	add	x5, x19, w2, uxtw #2
    61cc:	b94008e4 	ldr	w4, [x7,#8]
    61d0:	1ad62084 	lsl	w4, w4, w22
    61d4:	b90008a4 	str	w4, [x5,#8]
    61d8:	17fffff0 	b	6198 <mpa_shift_left+0x140>
/home/lagadanu/Desktop/qemu/optee_os/lib/libmpa/mpa_shift.c:145
    61dc:	4b150294 	sub	w20, w20, w21
    61e0:	4b160294 	sub	w20, w20, w22
    61e4:	17ffffbd 	b	60d8 <mpa_shift_left+0x80>

00000000000061e8 <mpa_shift_right>:
mpa_shift_right():
/home/lagadanu/Desktop/qemu/optee_os/lib/libmpa/mpa_shift.c:157
    61e8:	a9be7bfd 	stp	x29, x30, [sp,#-32]!
    61ec:	910003fd 	mov	x29, sp
    61f0:	a90153f3 	stp	x19, x20, [sp,#16]
    61f4:	aa0003f3 	mov	x19, x0
    61f8:	2a0203f4 	mov	w20, w2
/home/lagadanu/Desktop/qemu/optee_os/lib/libmpa/mpa_shift.c:168
    61fc:	97fff737 	bl	3ed8 <mpa_copy>
/home/lagadanu/Desktop/qemu/optee_os/lib/libmpa/mpa_shift.c:169
    6200:	aa1303e0 	mov	x0, x19
    6204:	97fff720 	bl	3e84 <__mpa_set_unused_digits_to_zero>
/home/lagadanu/Desktop/qemu/optee_os/lib/libmpa/mpa_shift.c:170
    6208:	34000674 	cbz	w20, 62d4 <mpa_shift_right+0xec>
/home/lagadanu/Desktop/qemu/optee_os/lib/libmpa/mpa_shift.c:170 (discriminator 1)
    620c:	b9400663 	ldr	w3, [x19,#4]
    6210:	7100007f 	cmp	w3, #0x0
    6214:	54000600 	b.eq	62d4 <mpa_shift_right+0xec>
/home/lagadanu/Desktop/qemu/optee_os/lib/libmpa/mpa_shift.c:174
    6218:	53057e82 	lsr	w2, w20, #5
/home/lagadanu/Desktop/qemu/optee_os/lib/libmpa/mpa_shift.c:176
    621c:	5a83a466 	cneg	w6, w3, lt
/home/lagadanu/Desktop/qemu/optee_os/lib/libmpa/mpa_shift.c:173
    6220:	12001284 	and	w4, w20, #0x1f
/home/lagadanu/Desktop/qemu/optee_os/lib/libmpa/mpa_shift.c:176
    6224:	6b06005f 	cmp	w2, w6
    6228:	540000c3 	b.cc	6240 <mpa_shift_right+0x58>
/home/lagadanu/Desktop/qemu/optee_os/lib/libmpa/mpa_shift.c:177
    622c:	aa1303e0 	mov	x0, x19
    6230:	52800001 	mov	w1, #0x0                   	// #0
/home/lagadanu/Desktop/qemu/optee_os/lib/libmpa/mpa_shift.c:215
    6234:	a94153f3 	ldp	x19, x20, [sp,#16]
    6238:	a8c27bfd 	ldp	x29, x30, [sp],#32
/home/lagadanu/Desktop/qemu/optee_os/lib/libmpa/mpa_shift.c:177
    623c:	17fff986 	b	4854 <mpa_set_word>
    6240:	91002260 	add	x0, x19, #0x8
/home/lagadanu/Desktop/qemu/optee_os/lib/libmpa/mpa_shift.c:186
    6244:	34000264 	cbz	w4, 6290 <mpa_shift_right+0xa8>
/home/lagadanu/Desktop/qemu/optee_os/lib/libmpa/mpa_shift.c:194 (discriminator 1)
    6248:	d2800025 	mov	x5, #0x1                   	// #1
/home/lagadanu/Desktop/qemu/optee_os/lib/libmpa/mpa_shift.c:196 (discriminator 1)
    624c:	52800409 	mov	w9, #0x20                  	// #32
/home/lagadanu/Desktop/qemu/optee_os/lib/libmpa/mpa_shift.c:194 (discriminator 1)
    6250:	9ac420a5 	lsl	x5, x5, x4
    6254:	2a0203e1 	mov	w1, w2
    6258:	510004a5 	sub	w5, w5, #0x1
/home/lagadanu/Desktop/qemu/optee_os/lib/libmpa/mpa_shift.c:196 (discriminator 1)
    625c:	4b040129 	sub	w9, w9, w4
    6260:	11000428 	add	w8, w1, #0x1
/home/lagadanu/Desktop/qemu/optee_os/lib/libmpa/mpa_shift.c:192 (discriminator 1)
    6264:	6b0800df 	cmp	w6, w8
    6268:	54000461 	b.ne	62f4 <mpa_shift_right+0x10c>
    626c:	2a2203e0 	mvn	w0, w2
    6270:	0b060000 	add	w0, w0, w6
/home/lagadanu/Desktop/qemu/optee_os/lib/libmpa/mpa_shift.c:199
    6274:	8b204a61 	add	x1, x19, w0, uxtw #2
    6278:	0b000040 	add	w0, w2, w0
    627c:	8b000a60 	add	x0, x19, x0, lsl #2
    6280:	b9400800 	ldr	w0, [x0,#8]
    6284:	1ac42404 	lsr	w4, w0, w4
    6288:	b9000824 	str	w4, [x1,#8]
    628c:	14000004 	b	629c <mpa_shift_right+0xb4>
/home/lagadanu/Desktop/qemu/optee_os/lib/libmpa/mpa_shift.c:186 (discriminator 1)
    6290:	2a0203e1 	mov	w1, w2
/home/lagadanu/Desktop/qemu/optee_os/lib/libmpa/mpa_shift.c:188 (discriminator 1)
    6294:	6b0100df 	cmp	w6, w1
    6298:	54000241 	b.ne	62e0 <mpa_shift_right+0xf8>
/home/lagadanu/Desktop/qemu/optee_os/lib/libmpa/mpa_shift.c:204
    629c:	0b020060 	add	w0, w3, w2
    62a0:	7100007f 	cmp	w3, #0x0
    62a4:	4b020062 	sub	w2, w3, w2
    62a8:	1a80c042 	csel	w2, w2, w0, gt
    62ac:	b9000662 	str	w2, [x19,#4]
/home/lagadanu/Desktop/qemu/optee_os/lib/libmpa/mpa_shift.c:209
    62b0:	7100005f 	cmp	w2, #0x0
    62b4:	5a82a440 	cneg	w0, w2, lt
    62b8:	51000400 	sub	w0, w0, #0x1
    62bc:	8b20ca60 	add	x0, x19, w0, sxtw #2
    62c0:	b9400800 	ldr	w0, [x0,#8]
    62c4:	35000080 	cbnz	w0, 62d4 <mpa_shift_right+0xec>
/home/lagadanu/Desktop/qemu/optee_os/lib/libmpa/mpa_shift.c:210
    62c8:	540002ed 	b.le	6324 <mpa_shift_right+0x13c>
/home/lagadanu/Desktop/qemu/optee_os/lib/libmpa/mpa_shift.c:211
    62cc:	51000442 	sub	w2, w2, #0x1
/home/lagadanu/Desktop/qemu/optee_os/lib/libmpa/mpa_shift.c:213
    62d0:	b9000662 	str	w2, [x19,#4]
/home/lagadanu/Desktop/qemu/optee_os/lib/libmpa/mpa_shift.c:215
    62d4:	a94153f3 	ldp	x19, x20, [sp,#16]
    62d8:	a8c27bfd 	ldp	x29, x30, [sp],#32
    62dc:	d65f03c0 	ret
/home/lagadanu/Desktop/qemu/optee_os/lib/libmpa/mpa_shift.c:189 (discriminator 3)
    62e0:	8b214a64 	add	x4, x19, w1, uxtw #2
    62e4:	11000421 	add	w1, w1, #0x1
    62e8:	b9400884 	ldr	w4, [x4,#8]
    62ec:	b8004404 	str	w4, [x0],#4
    62f0:	17ffffe9 	b	6294 <mpa_shift_right+0xac>
/home/lagadanu/Desktop/qemu/optee_os/lib/libmpa/mpa_shift.c:193 (discriminator 3)
    62f4:	8b214a61 	add	x1, x19, w1, uxtw #2
    62f8:	b9400827 	ldr	w7, [x1,#8]
/home/lagadanu/Desktop/qemu/optee_os/lib/libmpa/mpa_shift.c:194 (discriminator 3)
    62fc:	8b284a61 	add	x1, x19, w8, uxtw #2
/home/lagadanu/Desktop/qemu/optee_os/lib/libmpa/mpa_shift.c:193 (discriminator 3)
    6300:	b9000007 	str	w7, [x0]
/home/lagadanu/Desktop/qemu/optee_os/lib/libmpa/mpa_shift.c:194 (discriminator 3)
    6304:	b9400821 	ldr	w1, [x1,#8]
/home/lagadanu/Desktop/qemu/optee_os/lib/libmpa/mpa_shift.c:196 (discriminator 3)
    6308:	1ac424e7 	lsr	w7, w7, w4
/home/lagadanu/Desktop/qemu/optee_os/lib/libmpa/mpa_shift.c:194 (discriminator 3)
    630c:	0a0100a1 	and	w1, w5, w1
/home/lagadanu/Desktop/qemu/optee_os/lib/libmpa/mpa_shift.c:196 (discriminator 3)
    6310:	1ac92021 	lsl	w1, w1, w9
    6314:	4a070021 	eor	w1, w1, w7
/home/lagadanu/Desktop/qemu/optee_os/lib/libmpa/mpa_shift.c:195 (discriminator 3)
    6318:	b8004401 	str	w1, [x0],#4
    631c:	2a0803e1 	mov	w1, w8
    6320:	17ffffd0 	b	6260 <mpa_shift_right+0x78>
/home/lagadanu/Desktop/qemu/optee_os/lib/libmpa/mpa_shift.c:213
    6324:	11000442 	add	w2, w2, #0x1
    6328:	17ffffea 	b	62d0 <mpa_shift_right+0xe8>

000000000000632c <__mpa_full_adder>:
__mpa_full_adder():
/home/lagadanu/Desktop/qemu/optee_os/lib/libmpa/mpa_addsub.c:32
    632c:	b9400064 	ldr	w4, [x3]
    6330:	8b214081 	add	x1, x4, w1, uxtw
    6334:	8b204020 	add	x0, x1, w0, uxtw
/home/lagadanu/Desktop/qemu/optee_os/lib/libmpa/mpa_addsub.c:33
    6338:	b9000040 	str	w0, [x2]
/home/lagadanu/Desktop/qemu/optee_os/lib/libmpa/mpa_addsub.c:34
    633c:	d360fc00 	lsr	x0, x0, #32
    6340:	b9000060 	str	w0, [x3]
    6344:	d65f03c0 	ret

0000000000006348 <__mpa_full_sub>:
__mpa_full_sub():
/home/lagadanu/Desktop/qemu/optee_os/lib/libmpa/mpa_addsub.c:55
    6348:	2a0003e0 	mov	w0, w0
    634c:	cb214001 	sub	x1, x0, w1, uxtw
    6350:	b9400060 	ldr	w0, [x3]
    6354:	cb000021 	sub	x1, x1, x0
/home/lagadanu/Desktop/qemu/optee_os/lib/libmpa/mpa_addsub.c:56
    6358:	b9000041 	str	w1, [x2]
/home/lagadanu/Desktop/qemu/optee_os/lib/libmpa/mpa_addsub.c:57
    635c:	d360fc21 	lsr	x1, x1, #32
    6360:	4b0103e1 	neg	w1, w1
    6364:	b9000061 	str	w1, [x3]
    6368:	d65f03c0 	ret

000000000000636c <__mpa_full_adder_ackum>:
__mpa_full_adder_ackum():
/home/lagadanu/Desktop/qemu/optee_os/lib/libmpa/mpa_addsub.c:79
    636c:	b9400043 	ldr	w3, [x2]
    6370:	8b214061 	add	x1, x3, w1, uxtw
    6374:	b9400003 	ldr	w3, [x0]
    6378:	8b030021 	add	x1, x1, x3
/home/lagadanu/Desktop/qemu/optee_os/lib/libmpa/mpa_addsub.c:80
    637c:	b9000001 	str	w1, [x0]
/home/lagadanu/Desktop/qemu/optee_os/lib/libmpa/mpa_addsub.c:81
    6380:	d360fc21 	lsr	x1, x1, #32
    6384:	b9000041 	str	w1, [x2]
    6388:	d65f03c0 	ret

000000000000638c <__mpa_abs_add>:
__mpa_abs_add():
/home/lagadanu/Desktop/qemu/optee_os/lib/libmpa/mpa_addsub.c:105
    638c:	a9bd7bfd 	stp	x29, x30, [sp,#-48]!
/home/lagadanu/Desktop/qemu/optee_os/lib/libmpa/mpa_addsub.c:115
    6390:	6b05007f 	cmp	w3, w5
/home/lagadanu/Desktop/qemu/optee_os/lib/libmpa/mpa_addsub.c:105
    6394:	910003fd 	mov	x29, sp
    6398:	a90153f3 	stp	x19, x20, [sp,#16]
    639c:	aa0003f4 	mov	x20, x0
    63a0:	f90013f5 	str	x21, [sp,#32]
    63a4:	aa0103f5 	mov	x21, x1
/home/lagadanu/Desktop/qemu/optee_os/lib/libmpa/mpa_addsub.c:115
    63a8:	540000ec 	b.gt	63c4 <__mpa_abs_add+0x38>
    63ac:	2a0503e0 	mov	w0, w5
    63b0:	2a0303e5 	mov	w5, w3
    63b4:	2a0003e3 	mov	w3, w0
    63b8:	aa0403e0 	mov	x0, x4
/home/lagadanu/Desktop/qemu/optee_os/lib/libmpa/mpa_addsub.c:122
    63bc:	aa0203e4 	mov	x4, x2
/home/lagadanu/Desktop/qemu/optee_os/lib/libmpa/mpa_addsub.c:121
    63c0:	aa0003e2 	mov	x2, x0
/home/lagadanu/Desktop/qemu/optee_os/lib/libmpa/mpa_addsub.c:130
    63c4:	d2800001 	mov	x1, #0x0                   	// #0
/home/lagadanu/Desktop/qemu/optee_os/lib/libmpa/mpa_addsub.c:128
    63c8:	52800008 	mov	w8, #0x0                   	// #0
/home/lagadanu/Desktop/qemu/optee_os/lib/libmpa/mpa_addsub.c:130
    63cc:	6b0100bf 	cmp	w5, w1
    63d0:	540001ac 	b.gt	6404 <__mpa_abs_add+0x78>
    63d4:	710000bf 	cmp	w5, #0x0
    63d8:	1a9fa0a5 	csel	w5, w5, wzr, ge
    63dc:	937e7ca1 	sbfiz	x1, x5, #2, #32
    63e0:	8b010284 	add	x4, x20, x1
    63e4:	8b010041 	add	x1, x2, x1
/home/lagadanu/Desktop/qemu/optee_os/lib/libmpa/mpa_addsub.c:134
    63e8:	6b05007f 	cmp	w3, w5
    63ec:	340002c8 	cbz	w8, 6444 <__mpa_abs_add+0xb8>
    63f0:	91001080 	add	x0, x4, #0x4
/home/lagadanu/Desktop/qemu/optee_os/lib/libmpa/mpa_addsub.c:134 (discriminator 1)
    63f4:	540001ac 	b.gt	6428 <__mpa_abs_add+0x9c>
/home/lagadanu/Desktop/qemu/optee_os/lib/libmpa/mpa_addsub.c:146
    63f8:	52800021 	mov	w1, #0x1                   	// #1
    63fc:	b9000081 	str	w1, [x4]
    6400:	14000019 	b	6464 <__mpa_abs_add+0xd8>
__mpa_full_adder():
/home/lagadanu/Desktop/qemu/optee_os/lib/libmpa/mpa_addsub.c:32
    6404:	b8617886 	ldr	w6, [x4,x1,lsl #2]
    6408:	2a0803e0 	mov	w0, w8
    640c:	b8617847 	ldr	w7, [x2,x1,lsl #2]
    6410:	8b0700c6 	add	x6, x6, x7
    6414:	8b0000c0 	add	x0, x6, x0
/home/lagadanu/Desktop/qemu/optee_os/lib/libmpa/mpa_addsub.c:33
    6418:	b8217a80 	str	w0, [x20,x1,lsl #2]
/home/lagadanu/Desktop/qemu/optee_os/lib/libmpa/mpa_addsub.c:34
    641c:	d360fc08 	lsr	x8, x0, #32
    6420:	91000421 	add	x1, x1, #0x1
    6424:	17ffffea 	b	63cc <__mpa_abs_add+0x40>
__mpa_abs_add():
/home/lagadanu/Desktop/qemu/optee_os/lib/libmpa/mpa_addsub.c:135
    6428:	aa0003e4 	mov	x4, x0
__mpa_full_adder():
/home/lagadanu/Desktop/qemu/optee_os/lib/libmpa/mpa_addsub.c:32
    642c:	b8404420 	ldr	w0, [x1],#4
__mpa_abs_add():
/home/lagadanu/Desktop/qemu/optee_os/lib/libmpa/mpa_addsub.c:136
    6430:	110004a5 	add	w5, w5, #0x1
__mpa_full_adder():
/home/lagadanu/Desktop/qemu/optee_os/lib/libmpa/mpa_addsub.c:32
    6434:	91000400 	add	x0, x0, #0x1
/home/lagadanu/Desktop/qemu/optee_os/lib/libmpa/mpa_addsub.c:34
    6438:	d360fc08 	lsr	x8, x0, #32
/home/lagadanu/Desktop/qemu/optee_os/lib/libmpa/mpa_addsub.c:33
    643c:	b81fc080 	stur	w0, [x4,#-4]
    6440:	17ffffea 	b	63e8 <__mpa_abs_add+0x5c>
__mpa_abs_add():
/home/lagadanu/Desktop/qemu/optee_os/lib/libmpa/mpa_addsub.c:139
    6444:	540000ed 	b.le	6460 <__mpa_abs_add+0xd4>
/home/lagadanu/Desktop/qemu/optee_os/lib/libmpa/mpa_addsub.c:141
    6448:	4b050073 	sub	w19, w3, w5
    644c:	aa0403e0 	mov	x0, x4
    6450:	531e7662 	lsl	w2, w19, #2
    6454:	93407c42 	sxtw	x2, w2
    6458:	97ffec1d 	bl	14cc <memcpy>
/home/lagadanu/Desktop/qemu/optee_os/lib/libmpa/mpa_addsub.c:142
    645c:	8b33c804 	add	x4, x0, w19, sxtw #2
/home/lagadanu/Desktop/qemu/optee_os/lib/libmpa/mpa_addsub.c:128
    6460:	aa0403e0 	mov	x0, x4
/home/lagadanu/Desktop/qemu/optee_os/lib/libmpa/mpa_addsub.c:147
    6464:	cb140001 	sub	x1, x0, x20
    6468:	9342fc20 	asr	x0, x1, #2
    646c:	b90002a0 	str	w0, [x21]
/home/lagadanu/Desktop/qemu/optee_os/lib/libmpa/mpa_addsub.c:148
    6470:	a94153f3 	ldp	x19, x20, [sp,#16]
    6474:	f94013f5 	ldr	x21, [sp,#32]
    6478:	a8c37bfd 	ldp	x29, x30, [sp],#48
    647c:	d65f03c0 	ret

0000000000006480 <__mpa_abs_add_ackum>:
__mpa_abs_add_ackum():
/home/lagadanu/Desktop/qemu/optee_os/lib/libmpa/mpa_addsub.c:157
    6480:	a9bb7bfd 	stp	x29, x30, [sp,#-80]!
    6484:	910003fd 	mov	x29, sp
    6488:	a90153f3 	stp	x19, x20, [sp,#16]
/home/lagadanu/Desktop/qemu/optee_os/lib/libmpa/mpa_addsub.c:168
    648c:	91002014 	add	x20, x0, #0x8
/home/lagadanu/Desktop/qemu/optee_os/lib/libmpa/mpa_addsub.c:157
    6490:	a9025bf5 	stp	x21, x22, [sp,#32]
    6494:	aa0003f3 	mov	x19, x0
    6498:	a90363f7 	stp	x23, x24, [sp,#48]
    649c:	aa0103f5 	mov	x21, x1
/home/lagadanu/Desktop/qemu/optee_os/lib/libmpa/mpa_addsub.c:165
    64a0:	b9400400 	ldr	w0, [x0,#4]
/home/lagadanu/Desktop/qemu/optee_os/lib/libmpa/mpa_addsub.c:171
    64a4:	91002038 	add	x24, x1, #0x8
/home/lagadanu/Desktop/qemu/optee_os/lib/libmpa/mpa_addsub.c:165
    64a8:	b9400421 	ldr	w1, [x1,#4]
/home/lagadanu/Desktop/qemu/optee_os/lib/libmpa/mpa_addsub.c:174
    64ac:	910143b7 	add	x23, x29, #0x50
/home/lagadanu/Desktop/qemu/optee_os/lib/libmpa/mpa_addsub.c:175
    64b0:	d2800016 	mov	x22, #0x0                   	// #0
/home/lagadanu/Desktop/qemu/optee_os/lib/libmpa/mpa_addsub.c:168
    64b4:	6b000022 	subs	w2, w1, w0
    64b8:	52800001 	mov	w1, #0x0                   	// #0
    64bc:	1a9f5042 	csel	w2, w2, wzr, pl
    64c0:	8b20ca80 	add	x0, x20, w0, sxtw #2
    64c4:	11000442 	add	w2, w2, #0x1
    64c8:	531e7442 	lsl	w2, w2, #2
    64cc:	93407c42 	sxtw	x2, w2
    64d0:	97ffec07 	bl	14ec <memset>
/home/lagadanu/Desktop/qemu/optee_os/lib/libmpa/mpa_addsub.c:174
    64d4:	b81fceff 	str	wzr, [x23,#-4]!
/home/lagadanu/Desktop/qemu/optee_os/lib/libmpa/mpa_addsub.c:175
    64d8:	b94006a1 	ldr	w1, [x21,#4]
    64dc:	8b160a80 	add	x0, x20, x22, lsl #2
    64e0:	6b16003f 	cmp	w1, w22
    64e4:	540001ec 	b.gt	6520 <__mpa_abs_add_ackum+0xa0>
/home/lagadanu/Desktop/qemu/optee_os/lib/libmpa/mpa_addsub.c:186
    64e8:	910133b6 	add	x22, x29, #0x4c
/home/lagadanu/Desktop/qemu/optee_os/lib/libmpa/mpa_addsub.c:185
    64ec:	b9404fa1 	ldr	w1, [x29,#76]
    64f0:	35000221 	cbnz	w1, 6534 <__mpa_abs_add_ackum+0xb4>
/home/lagadanu/Desktop/qemu/optee_os/lib/libmpa/mpa_addsub.c:193
    64f4:	cb140000 	sub	x0, x0, x20
/home/lagadanu/Desktop/qemu/optee_os/lib/libmpa/mpa_addsub.c:194
    64f8:	b9400661 	ldr	w1, [x19,#4]
/home/lagadanu/Desktop/qemu/optee_os/lib/libmpa/mpa_addsub.c:193
    64fc:	9342fc02 	asr	x2, x0, #2
/home/lagadanu/Desktop/qemu/optee_os/lib/libmpa/mpa_addsub.c:194
    6500:	6b01005f 	cmp	w2, w1
    6504:	5400004d 	b.le	650c <__mpa_abs_add_ackum+0x8c>
/home/lagadanu/Desktop/qemu/optee_os/lib/libmpa/mpa_addsub.c:195
    6508:	b9000662 	str	w2, [x19,#4]
/home/lagadanu/Desktop/qemu/optee_os/lib/libmpa/mpa_addsub.c:196
    650c:	a94153f3 	ldp	x19, x20, [sp,#16]
    6510:	a9425bf5 	ldp	x21, x22, [sp,#32]
    6514:	a94363f7 	ldp	x23, x24, [sp,#48]
    6518:	a8c57bfd 	ldp	x29, x30, [sp],#80
    651c:	d65f03c0 	ret
/home/lagadanu/Desktop/qemu/optee_os/lib/libmpa/mpa_addsub.c:176
    6520:	b8767b01 	ldr	w1, [x24,x22,lsl #2]
    6524:	aa1703e2 	mov	x2, x23
    6528:	910006d6 	add	x22, x22, #0x1
    652c:	97ffff90 	bl	636c <__mpa_full_adder_ackum>
    6530:	17ffffea 	b	64d8 <__mpa_abs_add_ackum+0x58>
/home/lagadanu/Desktop/qemu/optee_os/lib/libmpa/mpa_addsub.c:186
    6534:	91001015 	add	x21, x0, #0x4
    6538:	aa1603e2 	mov	x2, x22
    653c:	52800001 	mov	w1, #0x0                   	// #0
    6540:	97ffff8b 	bl	636c <__mpa_full_adder_ackum>
    6544:	aa1503e0 	mov	x0, x21
    6548:	17ffffe9 	b	64ec <__mpa_abs_add_ackum+0x6c>

000000000000654c <__mpa_abs_sub>:
__mpa_abs_sub():
/home/lagadanu/Desktop/qemu/optee_os/lib/libmpa/mpa_addsub.c:211
    654c:	a9ba7bfd 	stp	x29, x30, [sp,#-96]!
    6550:	910003fd 	mov	x29, sp
    6554:	a9046bf9 	stp	x25, x26, [sp,#64]
/home/lagadanu/Desktop/qemu/optee_os/lib/libmpa/mpa_addsub.c:215
    6558:	910183b9 	add	x25, x29, #0x60
/home/lagadanu/Desktop/qemu/optee_os/lib/libmpa/mpa_addsub.c:211
    655c:	a90153f3 	stp	x19, x20, [sp,#16]
    6560:	aa0403fa 	mov	x26, x4
    6564:	a9025bf5 	stp	x21, x22, [sp,#32]
    6568:	2a0303f4 	mov	w20, w3
    656c:	a90363f7 	stp	x23, x24, [sp,#48]
    6570:	aa0103f5 	mov	x21, x1
    6574:	aa0003f7 	mov	x23, x0
    6578:	aa0203f8 	mov	x24, x2
    657c:	2a0503f6 	mov	w22, w5
/home/lagadanu/Desktop/qemu/optee_os/lib/libmpa/mpa_addsub.c:215
    6580:	b81fcf3f 	str	wzr, [x25,#-4]!
/home/lagadanu/Desktop/qemu/optee_os/lib/libmpa/mpa_addsub.c:217
    6584:	d2800013 	mov	x19, #0x0                   	// #0
    6588:	8b130ae2 	add	x2, x23, x19, lsl #2
    658c:	6b1302df 	cmp	w22, w19
    6590:	5400028c 	b.gt	65e0 <__mpa_abs_sub+0x94>
    6594:	710002df 	cmp	w22, #0x0
    6598:	1a9fa2d3 	csel	w19, w22, wzr, ge
    659c:	937e7e60 	sbfiz	x0, x19, #2, #32
    65a0:	8b000316 	add	x22, x24, x0
    65a4:	8b0002e4 	add	x4, x23, x0
/home/lagadanu/Desktop/qemu/optee_os/lib/libmpa/mpa_addsub.c:226
    65a8:	910173b8 	add	x24, x29, #0x5c
/home/lagadanu/Desktop/qemu/optee_os/lib/libmpa/mpa_addsub.c:225
    65ac:	b9405fa0 	ldr	w0, [x29,#92]
    65b0:	6b14027f 	cmp	w19, w20
    65b4:	34000340 	cbz	w0, 661c <__mpa_abs_sub+0xd0>
/home/lagadanu/Desktop/qemu/optee_os/lib/libmpa/mpa_addsub.c:225 (discriminator 1)
    65b8:	5400020b 	b.lt	65f8 <__mpa_abs_sub+0xac>
/home/lagadanu/Desktop/qemu/optee_os/lib/libmpa/mpa_addsub.c:240
    65bc:	7100029f 	cmp	w20, #0x0
    65c0:	5400040c 	b.gt	6640 <__mpa_abs_sub+0xf4>
/home/lagadanu/Desktop/qemu/optee_os/lib/libmpa/mpa_addsub.c:242
    65c4:	b90002b4 	str	w20, [x21]
/home/lagadanu/Desktop/qemu/optee_os/lib/libmpa/mpa_addsub.c:243
    65c8:	a94363f7 	ldp	x23, x24, [sp,#48]
    65cc:	a94153f3 	ldp	x19, x20, [sp,#16]
    65d0:	a9425bf5 	ldp	x21, x22, [sp,#32]
    65d4:	a9446bf9 	ldp	x25, x26, [sp,#64]
    65d8:	a8c67bfd 	ldp	x29, x30, [sp],#96
    65dc:	d65f03c0 	ret
/home/lagadanu/Desktop/qemu/optee_os/lib/libmpa/mpa_addsub.c:218
    65e0:	b8737b41 	ldr	w1, [x26,x19,lsl #2]
    65e4:	aa1903e3 	mov	x3, x25
    65e8:	b8737b00 	ldr	w0, [x24,x19,lsl #2]
    65ec:	91000673 	add	x19, x19, #0x1
    65f0:	97ffff56 	bl	6348 <__mpa_full_sub>
    65f4:	17ffffe5 	b	6588 <__mpa_abs_sub+0x3c>
/home/lagadanu/Desktop/qemu/optee_os/lib/libmpa/mpa_addsub.c:226
    65f8:	b84046c0 	ldr	w0, [x22],#4
    65fc:	91001097 	add	x23, x4, #0x4
    6600:	aa0403e2 	mov	x2, x4
    6604:	aa1803e3 	mov	x3, x24
    6608:	52800001 	mov	w1, #0x0                   	// #0
/home/lagadanu/Desktop/qemu/optee_os/lib/libmpa/mpa_addsub.c:227
    660c:	11000673 	add	w19, w19, #0x1
/home/lagadanu/Desktop/qemu/optee_os/lib/libmpa/mpa_addsub.c:226
    6610:	97ffff4e 	bl	6348 <__mpa_full_sub>
    6614:	aa1703e4 	mov	x4, x23
    6618:	17ffffe5 	b	65ac <__mpa_abs_sub+0x60>
/home/lagadanu/Desktop/qemu/optee_os/lib/libmpa/mpa_addsub.c:230
    661c:	54fffd0a 	b.ge	65bc <__mpa_abs_sub+0x70>
/home/lagadanu/Desktop/qemu/optee_os/lib/libmpa/mpa_addsub.c:235
    6620:	4b130293 	sub	w19, w20, w19
    6624:	aa0403e0 	mov	x0, x4
    6628:	531e7662 	lsl	w2, w19, #2
    662c:	aa1603e1 	mov	x1, x22
    6630:	93407c42 	sxtw	x2, w2
    6634:	97ffeba6 	bl	14cc <memcpy>
/home/lagadanu/Desktop/qemu/optee_os/lib/libmpa/mpa_addsub.c:236
    6638:	8b33c804 	add	x4, x0, w19, sxtw #2
/home/lagadanu/Desktop/qemu/optee_os/lib/libmpa/mpa_addsub.c:240
    663c:	17ffffe0 	b	65bc <__mpa_abs_sub+0x70>
/home/lagadanu/Desktop/qemu/optee_os/lib/libmpa/mpa_addsub.c:240 (discriminator 1)
    6640:	b85fcc80 	ldr	w0, [x4,#-4]!
    6644:	35fffc00 	cbnz	w0, 65c4 <__mpa_abs_sub+0x78>
/home/lagadanu/Desktop/qemu/optee_os/lib/libmpa/mpa_addsub.c:241
    6648:	51000694 	sub	w20, w20, #0x1
    664c:	17ffffdc 	b	65bc <__mpa_abs_sub+0x70>

0000000000006650 <mpa_add>:
mpa_add():
/home/lagadanu/Desktop/qemu/optee_os/lib/libmpa/mpa_addsub.c:259
    6650:	a9b97bfd 	stp	x29, x30, [sp,#-112]!
    6654:	910003fd 	mov	x29, sp
    6658:	a90363f7 	stp	x23, x24, [sp,#48]
    665c:	aa0203f8 	mov	x24, x2
/home/lagadanu/Desktop/qemu/optee_os/lib/libmpa/mpa_addsub.c:267
    6660:	b9400422 	ldr	w2, [x1,#4]
/home/lagadanu/Desktop/qemu/optee_os/lib/libmpa/mpa_addsub.c:259
    6664:	aa0103f7 	mov	x23, x1
    6668:	a9025bf5 	stp	x21, x22, [sp,#32]
/home/lagadanu/Desktop/qemu/optee_os/lib/libmpa/mpa_addsub.c:268
    666c:	b9400701 	ldr	w1, [x24,#4]
/home/lagadanu/Desktop/qemu/optee_os/lib/libmpa/mpa_addsub.c:267
    6670:	7100005f 	cmp	w2, #0x0
    6674:	5a82a456 	cneg	w22, w2, lt
/home/lagadanu/Desktop/qemu/optee_os/lib/libmpa/mpa_addsub.c:259
    6678:	a90153f3 	stp	x19, x20, [sp,#16]
/home/lagadanu/Desktop/qemu/optee_os/lib/libmpa/mpa_addsub.c:268
    667c:	7100003f 	cmp	w1, #0x0
/home/lagadanu/Desktop/qemu/optee_os/lib/libmpa/mpa_addsub.c:259
    6680:	a9046bf9 	stp	x25, x26, [sp,#64]
/home/lagadanu/Desktop/qemu/optee_os/lib/libmpa/mpa_addsub.c:268
    6684:	5a81a434 	cneg	w20, w1, lt
/home/lagadanu/Desktop/qemu/optee_os/lib/libmpa/mpa_addsub.c:259
    6688:	aa0003f9 	mov	x25, x0
/home/lagadanu/Desktop/qemu/optee_os/lib/libmpa/mpa_addsub.c:270
    668c:	12800000 	mov	w0, #0xffffffff            	// #-1
    6690:	6b00005f 	cmp	w2, w0
/home/lagadanu/Desktop/qemu/optee_os/lib/libmpa/mpa_addsub.c:259
    6694:	a90573fb 	stp	x27, x28, [sp,#80]
/home/lagadanu/Desktop/qemu/optee_os/lib/libmpa/mpa_addsub.c:270
    6698:	5a80d41c 	cneg	w28, w0, gt
/home/lagadanu/Desktop/qemu/optee_os/lib/libmpa/mpa_addsub.c:271
    669c:	6b00003f 	cmp	w1, w0
/home/lagadanu/Desktop/qemu/optee_os/lib/libmpa/mpa_addsub.c:259
    66a0:	aa0303fa 	mov	x26, x3
/home/lagadanu/Desktop/qemu/optee_os/lib/libmpa/mpa_addsub.c:271
    66a4:	5a80d413 	cneg	w19, w0, gt
/home/lagadanu/Desktop/qemu/optee_os/lib/libmpa/mpa_addsub.c:274
    66a8:	eb1902ff 	cmp	x23, x25
    66ac:	1a9f17fb 	cset	w27, eq
    66b0:	eb19031f 	cmp	x24, x25
    66b4:	1a9f17e0 	cset	w0, eq
    66b8:	2a00037b 	orr	w27, w27, w0
/home/lagadanu/Desktop/qemu/optee_os/lib/libmpa/mpa_addsub.c:275
    66bc:	3400049b 	cbz	w27, 674c <mpa_add+0xfc>
/home/lagadanu/Desktop/qemu/optee_os/lib/libmpa/mpa_addsub.c:276
    66c0:	aa0303e1 	mov	x1, x3
    66c4:	9101a3a0 	add	x0, x29, #0x68
    66c8:	97fffce3 	bl	5a54 <mpa_alloc_static_temp_var>
/home/lagadanu/Desktop/qemu/optee_os/lib/libmpa/mpa_addsub.c:284
    66cc:	6b13039f 	cmp	w28, w19
    66d0:	910022f5 	add	x21, x23, #0x8
    66d4:	91002313 	add	x19, x24, #0x8
    66d8:	540003e1 	b.ne	6754 <mpa_add+0x104>
/home/lagadanu/Desktop/qemu/optee_os/lib/libmpa/mpa_addsub.c:286
    66dc:	f94037a0 	ldr	x0, [x29,#104]
    66e0:	2a1403e5 	mov	w5, w20
    66e4:	aa1303e4 	mov	x4, x19
    66e8:	2a1603e3 	mov	w3, w22
    66ec:	91001001 	add	x1, x0, #0x4
    66f0:	aa1503e2 	mov	x2, x21
    66f4:	91002000 	add	x0, x0, #0x8
    66f8:	97ffff25 	bl	638c <__mpa_abs_add>
/home/lagadanu/Desktop/qemu/optee_os/lib/libmpa/mpa_addsub.c:289
    66fc:	3100079f 	cmn	w28, #0x1
    6700:	540000a1 	b.ne	6714 <mpa_add+0xc4>
/home/lagadanu/Desktop/qemu/optee_os/lib/libmpa/mpa_addsub.c:305
    6704:	f94037a1 	ldr	x1, [x29,#104]
    6708:	b9400420 	ldr	w0, [x1,#4]
    670c:	4b0003e0 	neg	w0, w0
    6710:	b9000420 	str	w0, [x1,#4]
/home/lagadanu/Desktop/qemu/optee_os/lib/libmpa/mpa_addsub.c:324
    6714:	f94037a1 	ldr	x1, [x29,#104]
    6718:	aa1903e0 	mov	x0, x25
    671c:	97fff5ef 	bl	3ed8 <mpa_copy>
/home/lagadanu/Desktop/qemu/optee_os/lib/libmpa/mpa_addsub.c:325
    6720:	3400009b 	cbz	w27, 6730 <mpa_add+0xe0>
/home/lagadanu/Desktop/qemu/optee_os/lib/libmpa/mpa_addsub.c:326
    6724:	aa1a03e1 	mov	x1, x26
    6728:	9101a3a0 	add	x0, x29, #0x68
    672c:	97fffcce 	bl	5a64 <mpa_free_static_temp_var>
/home/lagadanu/Desktop/qemu/optee_os/lib/libmpa/mpa_addsub.c:327
    6730:	a94153f3 	ldp	x19, x20, [sp,#16]
    6734:	a9425bf5 	ldp	x21, x22, [sp,#32]
    6738:	a94363f7 	ldp	x23, x24, [sp,#48]
    673c:	a9446bf9 	ldp	x25, x26, [sp,#64]
    6740:	a94573fb 	ldp	x27, x28, [sp,#80]
    6744:	a8c77bfd 	ldp	x29, x30, [sp],#112
    6748:	d65f03c0 	ret
/home/lagadanu/Desktop/qemu/optee_os/lib/libmpa/mpa_addsub.c:278
    674c:	f90037b9 	str	x25, [x29,#104]
    6750:	17ffffdf 	b	66cc <mpa_add+0x7c>
/home/lagadanu/Desktop/qemu/optee_os/lib/libmpa/mpa_addsub.c:294
    6754:	aa1803e1 	mov	x1, x24
    6758:	aa1703e0 	mov	x0, x23
/home/lagadanu/Desktop/qemu/optee_os/lib/libmpa/mpa_addsub.c:293
    675c:	7100079f 	cmp	w28, #0x1
    6760:	54000281 	b.ne	67b0 <mpa_add+0x160>
/home/lagadanu/Desktop/qemu/optee_os/lib/libmpa/mpa_addsub.c:294
    6764:	9400015b 	bl	6cd0 <__mpa_abs_greater_than>
    6768:	f94037a6 	ldr	x6, [x29,#104]
    676c:	34000120 	cbz	w0, 6790 <mpa_add+0x140>
/home/lagadanu/Desktop/qemu/optee_os/lib/libmpa/mpa_addsub.c:298
    6770:	2a1403e5 	mov	w5, w20
    6774:	aa1303e4 	mov	x4, x19
    6778:	2a1603e3 	mov	w3, w22
    677c:	aa1503e2 	mov	x2, x21
/home/lagadanu/Desktop/qemu/optee_os/lib/libmpa/mpa_addsub.c:318
    6780:	910010c1 	add	x1, x6, #0x4
    6784:	910020c0 	add	x0, x6, #0x8
    6788:	97ffff71 	bl	654c <__mpa_abs_sub>
    678c:	17ffffe2 	b	6714 <mpa_add+0xc4>
/home/lagadanu/Desktop/qemu/optee_os/lib/libmpa/mpa_addsub.c:303
    6790:	2a1603e5 	mov	w5, w22
    6794:	aa1503e4 	mov	x4, x21
    6798:	2a1403e3 	mov	w3, w20
    679c:	aa1303e2 	mov	x2, x19
    67a0:	910010c1 	add	x1, x6, #0x4
    67a4:	910020c0 	add	x0, x6, #0x8
    67a8:	97ffff69 	bl	654c <__mpa_abs_sub>
    67ac:	17ffffd6 	b	6704 <mpa_add+0xb4>
/home/lagadanu/Desktop/qemu/optee_os/lib/libmpa/mpa_addsub.c:309
    67b0:	94000148 	bl	6cd0 <__mpa_abs_greater_than>
    67b4:	f94037a6 	ldr	x6, [x29,#104]
    67b8:	340000c0 	cbz	w0, 67d0 <mpa_add+0x180>
/home/lagadanu/Desktop/qemu/optee_os/lib/libmpa/mpa_addsub.c:313
    67bc:	2a1403e5 	mov	w5, w20
    67c0:	aa1303e4 	mov	x4, x19
    67c4:	2a1603e3 	mov	w3, w22
    67c8:	aa1503e2 	mov	x2, x21
    67cc:	17fffff5 	b	67a0 <mpa_add+0x150>
/home/lagadanu/Desktop/qemu/optee_os/lib/libmpa/mpa_addsub.c:318
    67d0:	2a1603e5 	mov	w5, w22
    67d4:	aa1503e4 	mov	x4, x21
    67d8:	2a1403e3 	mov	w3, w20
    67dc:	aa1303e2 	mov	x2, x19
    67e0:	17ffffe8 	b	6780 <mpa_add+0x130>

00000000000067e4 <mpa_sub>:
mpa_sub():
/home/lagadanu/Desktop/qemu/optee_os/lib/libmpa/mpa_addsub.c:337
    67e4:	a9b97bfd 	stp	x29, x30, [sp,#-112]!
    67e8:	910003fd 	mov	x29, sp
    67ec:	a90363f7 	stp	x23, x24, [sp,#48]
    67f0:	aa0203f8 	mov	x24, x2
/home/lagadanu/Desktop/qemu/optee_os/lib/libmpa/mpa_addsub.c:345
    67f4:	b9400422 	ldr	w2, [x1,#4]
/home/lagadanu/Desktop/qemu/optee_os/lib/libmpa/mpa_addsub.c:337
    67f8:	aa0103f7 	mov	x23, x1
    67fc:	a90153f3 	stp	x19, x20, [sp,#16]
/home/lagadanu/Desktop/qemu/optee_os/lib/libmpa/mpa_addsub.c:346
    6800:	b9400701 	ldr	w1, [x24,#4]
/home/lagadanu/Desktop/qemu/optee_os/lib/libmpa/mpa_addsub.c:345
    6804:	7100005f 	cmp	w2, #0x0
    6808:	5a82a454 	cneg	w20, w2, lt
/home/lagadanu/Desktop/qemu/optee_os/lib/libmpa/mpa_addsub.c:337
    680c:	a9046bf9 	stp	x25, x26, [sp,#64]
/home/lagadanu/Desktop/qemu/optee_os/lib/libmpa/mpa_addsub.c:346
    6810:	7100003f 	cmp	w1, #0x0
/home/lagadanu/Desktop/qemu/optee_os/lib/libmpa/mpa_addsub.c:337
    6814:	aa0003f9 	mov	x25, x0
    6818:	a9025bf5 	stp	x21, x22, [sp,#32]
/home/lagadanu/Desktop/qemu/optee_os/lib/libmpa/mpa_addsub.c:348
    681c:	12800000 	mov	w0, #0xffffffff            	// #-1
/home/lagadanu/Desktop/qemu/optee_os/lib/libmpa/mpa_addsub.c:346
    6820:	5a81a436 	cneg	w22, w1, lt
/home/lagadanu/Desktop/qemu/optee_os/lib/libmpa/mpa_addsub.c:348
    6824:	6b00005f 	cmp	w2, w0
/home/lagadanu/Desktop/qemu/optee_os/lib/libmpa/mpa_addsub.c:337
    6828:	a90573fb 	stp	x27, x28, [sp,#80]
/home/lagadanu/Desktop/qemu/optee_os/lib/libmpa/mpa_addsub.c:348
    682c:	5a80d41c 	cneg	w28, w0, gt
/home/lagadanu/Desktop/qemu/optee_os/lib/libmpa/mpa_addsub.c:349
    6830:	6b00003f 	cmp	w1, w0
/home/lagadanu/Desktop/qemu/optee_os/lib/libmpa/mpa_addsub.c:337
    6834:	aa0303fa 	mov	x26, x3
/home/lagadanu/Desktop/qemu/optee_os/lib/libmpa/mpa_addsub.c:349
    6838:	5a80d413 	cneg	w19, w0, gt
/home/lagadanu/Desktop/qemu/optee_os/lib/libmpa/mpa_addsub.c:352
    683c:	eb1902ff 	cmp	x23, x25
    6840:	1a9f17fb 	cset	w27, eq
    6844:	eb19031f 	cmp	x24, x25
    6848:	1a9f17e0 	cset	w0, eq
    684c:	2a00037b 	orr	w27, w27, w0
/home/lagadanu/Desktop/qemu/optee_os/lib/libmpa/mpa_addsub.c:353
    6850:	3400049b 	cbz	w27, 68e0 <mpa_sub+0xfc>
/home/lagadanu/Desktop/qemu/optee_os/lib/libmpa/mpa_addsub.c:354
    6854:	aa0303e1 	mov	x1, x3
    6858:	9101a3a0 	add	x0, x29, #0x68
    685c:	97fffc7e 	bl	5a54 <mpa_alloc_static_temp_var>
/home/lagadanu/Desktop/qemu/optee_os/lib/libmpa/mpa_addsub.c:362
    6860:	6b13039f 	cmp	w28, w19
    6864:	91002315 	add	x21, x24, #0x8
    6868:	910022f3 	add	x19, x23, #0x8
    686c:	54000701 	b.ne	694c <mpa_sub+0x168>
/home/lagadanu/Desktop/qemu/optee_os/lib/libmpa/mpa_addsub.c:364
    6870:	aa1803e1 	mov	x1, x24
    6874:	aa1703e0 	mov	x0, x23
/home/lagadanu/Desktop/qemu/optee_os/lib/libmpa/mpa_addsub.c:363
    6878:	7100079f 	cmp	w28, #0x1
    687c:	540004e1 	b.ne	6918 <mpa_sub+0x134>
/home/lagadanu/Desktop/qemu/optee_os/lib/libmpa/mpa_addsub.c:364
    6880:	94000114 	bl	6cd0 <__mpa_abs_greater_than>
    6884:	f94037a6 	ldr	x6, [x29,#104]
    6888:	34000300 	cbz	w0, 68e8 <mpa_sub+0x104>
/home/lagadanu/Desktop/qemu/optee_os/lib/libmpa/mpa_addsub.c:367
    688c:	2a1603e5 	mov	w5, w22
    6890:	aa1503e4 	mov	x4, x21
    6894:	2a1403e3 	mov	w3, w20
    6898:	aa1303e2 	mov	x2, x19
/home/lagadanu/Desktop/qemu/optee_os/lib/libmpa/mpa_addsub.c:387
    689c:	910010c1 	add	x1, x6, #0x4
    68a0:	910020c0 	add	x0, x6, #0x8
    68a4:	97ffff2a 	bl	654c <__mpa_abs_sub>
/home/lagadanu/Desktop/qemu/optee_os/lib/libmpa/mpa_addsub.c:404
    68a8:	f94037a1 	ldr	x1, [x29,#104]
    68ac:	aa1903e0 	mov	x0, x25
    68b0:	97fff58a 	bl	3ed8 <mpa_copy>
/home/lagadanu/Desktop/qemu/optee_os/lib/libmpa/mpa_addsub.c:405
    68b4:	3400009b 	cbz	w27, 68c4 <mpa_sub+0xe0>
/home/lagadanu/Desktop/qemu/optee_os/lib/libmpa/mpa_addsub.c:406
    68b8:	aa1a03e1 	mov	x1, x26
    68bc:	9101a3a0 	add	x0, x29, #0x68
    68c0:	97fffc69 	bl	5a64 <mpa_free_static_temp_var>
/home/lagadanu/Desktop/qemu/optee_os/lib/libmpa/mpa_addsub.c:407
    68c4:	a94153f3 	ldp	x19, x20, [sp,#16]
    68c8:	a9425bf5 	ldp	x21, x22, [sp,#32]
    68cc:	a94363f7 	ldp	x23, x24, [sp,#48]
    68d0:	a9446bf9 	ldp	x25, x26, [sp,#64]
    68d4:	a94573fb 	ldp	x27, x28, [sp,#80]
    68d8:	a8c77bfd 	ldp	x29, x30, [sp],#112
    68dc:	d65f03c0 	ret
/home/lagadanu/Desktop/qemu/optee_os/lib/libmpa/mpa_addsub.c:356
    68e0:	f90037b9 	str	x25, [x29,#104]
    68e4:	17ffffdf 	b	6860 <mpa_sub+0x7c>
/home/lagadanu/Desktop/qemu/optee_os/lib/libmpa/mpa_addsub.c:371
    68e8:	2a1403e5 	mov	w5, w20
    68ec:	aa1303e4 	mov	x4, x19
    68f0:	2a1603e3 	mov	w3, w22
    68f4:	aa1503e2 	mov	x2, x21
/home/lagadanu/Desktop/qemu/optee_os/lib/libmpa/mpa_addsub.c:382
    68f8:	910010c1 	add	x1, x6, #0x4
    68fc:	910020c0 	add	x0, x6, #0x8
    6900:	97ffff13 	bl	654c <__mpa_abs_sub>
/home/lagadanu/Desktop/qemu/optee_os/lib/libmpa/mpa_addsub.c:400
    6904:	f94037a1 	ldr	x1, [x29,#104]
    6908:	b9400420 	ldr	w0, [x1,#4]
    690c:	4b0003e0 	neg	w0, w0
    6910:	b9000420 	str	w0, [x1,#4]
    6914:	17ffffe5 	b	68a8 <mpa_sub+0xc4>
/home/lagadanu/Desktop/qemu/optee_os/lib/libmpa/mpa_addsub.c:378
    6918:	940000ee 	bl	6cd0 <__mpa_abs_greater_than>
    691c:	f94037a6 	ldr	x6, [x29,#104]
    6920:	340000c0 	cbz	w0, 6938 <mpa_sub+0x154>
/home/lagadanu/Desktop/qemu/optee_os/lib/libmpa/mpa_addsub.c:382
    6924:	2a1603e5 	mov	w5, w22
    6928:	aa1503e4 	mov	x4, x21
    692c:	2a1403e3 	mov	w3, w20
    6930:	aa1303e2 	mov	x2, x19
    6934:	17fffff1 	b	68f8 <mpa_sub+0x114>
/home/lagadanu/Desktop/qemu/optee_os/lib/libmpa/mpa_addsub.c:387
    6938:	2a1403e5 	mov	w5, w20
    693c:	aa1303e4 	mov	x4, x19
    6940:	2a1603e3 	mov	w3, w22
    6944:	aa1503e2 	mov	x2, x21
    6948:	17ffffd5 	b	689c <mpa_sub+0xb8>
    694c:	f94037a0 	ldr	x0, [x29,#104]
/home/lagadanu/Desktop/qemu/optee_os/lib/libmpa/mpa_addsub.c:394
    6950:	2a1603e5 	mov	w5, w22
    6954:	aa1503e4 	mov	x4, x21
    6958:	2a1403e3 	mov	w3, w20
    695c:	91001001 	add	x1, x0, #0x4
    6960:	aa1303e2 	mov	x2, x19
/home/lagadanu/Desktop/qemu/optee_os/lib/libmpa/mpa_addsub.c:392
    6964:	7100079f 	cmp	w28, #0x1
/home/lagadanu/Desktop/qemu/optee_os/lib/libmpa/mpa_addsub.c:394
    6968:	91002000 	add	x0, x0, #0x8
/home/lagadanu/Desktop/qemu/optee_os/lib/libmpa/mpa_addsub.c:392
    696c:	54000061 	b.ne	6978 <mpa_sub+0x194>
/home/lagadanu/Desktop/qemu/optee_os/lib/libmpa/mpa_addsub.c:394
    6970:	97fffe87 	bl	638c <__mpa_abs_add>
    6974:	17ffffcd 	b	68a8 <mpa_sub+0xc4>
/home/lagadanu/Desktop/qemu/optee_os/lib/libmpa/mpa_addsub.c:398
    6978:	97fffe85 	bl	638c <__mpa_abs_add>
    697c:	17ffffe2 	b	6904 <mpa_sub+0x120>

0000000000006980 <mpa_neg>:
mpa_neg():
/home/lagadanu/Desktop/qemu/optee_os/lib/libmpa/mpa_addsub.c:416
    6980:	a9be7bfd 	stp	x29, x30, [sp,#-32]!
    6984:	910003fd 	mov	x29, sp
    6988:	f9000bf3 	str	x19, [sp,#16]
    698c:	aa0003f3 	mov	x19, x0
/home/lagadanu/Desktop/qemu/optee_os/lib/libmpa/mpa_addsub.c:417
    6990:	97fff552 	bl	3ed8 <mpa_copy>
/home/lagadanu/Desktop/qemu/optee_os/lib/libmpa/mpa_addsub.c:418
    6994:	b9400660 	ldr	w0, [x19,#4]
    6998:	4b0003e0 	neg	w0, w0
    699c:	b9000660 	str	w0, [x19,#4]
/home/lagadanu/Desktop/qemu/optee_os/lib/libmpa/mpa_addsub.c:419
    69a0:	f9400bf3 	ldr	x19, [sp,#16]
    69a4:	a8c27bfd 	ldp	x29, x30, [sp],#32
    69a8:	d65f03c0 	ret

00000000000069ac <mpa_add_word>:
mpa_add_word():
/home/lagadanu/Desktop/qemu/optee_os/lib/libmpa/mpa_addsub.c:428
    69ac:	a9ba7bfd 	stp	x29, x30, [sp,#-96]!
    69b0:	910003fd 	mov	x29, sp
    69b4:	a90153f3 	stp	x19, x20, [sp,#16]
    69b8:	a9025bf5 	stp	x21, x22, [sp,#32]
    69bc:	b9004fa2 	str	w2, [x29,#76]
    69c0:	f9001bf7 	str	x23, [sp,#48]
/home/lagadanu/Desktop/qemu/optee_os/lib/libmpa/mpa_addsub.c:434
    69c4:	350000e2 	cbnz	w2, 69e0 <mpa_add_word+0x34>
/home/lagadanu/Desktop/qemu/optee_os/lib/libmpa/mpa_addsub.c:435
    69c8:	97fff544 	bl	3ed8 <mpa_copy>
/home/lagadanu/Desktop/qemu/optee_os/lib/libmpa/mpa_addsub.c:478
    69cc:	a94153f3 	ldp	x19, x20, [sp,#16]
    69d0:	a9425bf5 	ldp	x21, x22, [sp,#32]
    69d4:	f9401bf7 	ldr	x23, [sp,#48]
    69d8:	a8c67bfd 	ldp	x29, x30, [sp],#96
    69dc:	d65f03c0 	ret
    69e0:	aa0303f6 	mov	x22, x3
/home/lagadanu/Desktop/qemu/optee_os/lib/libmpa/mpa_addsub.c:439
    69e4:	b9400423 	ldr	w3, [x1,#4]
    69e8:	aa0003f5 	mov	x21, x0
    69ec:	aa0103f4 	mov	x20, x1
    69f0:	35000083 	cbnz	w3, 6a00 <mpa_add_word+0x54>
/home/lagadanu/Desktop/qemu/optee_os/lib/libmpa/mpa_addsub.c:440
    69f4:	52800020 	mov	w0, #0x1                   	// #1
/home/lagadanu/Desktop/qemu/optee_os/lib/libmpa/mpa_addsub.c:441
    69f8:	29008aa0 	stp	w0, w2, [x21,#4]
/home/lagadanu/Desktop/qemu/optee_os/lib/libmpa/mpa_addsub.c:442
    69fc:	17fffff4 	b	69cc <mpa_add_word+0x20>
/home/lagadanu/Desktop/qemu/optee_os/lib/libmpa/mpa_addsub.c:445
    6a00:	12800017 	mov	w23, #0xffffffff            	// #-1
    6a04:	6b17007f 	cmp	w3, w23
    6a08:	5a97d6f7 	cneg	w23, w23, gt
/home/lagadanu/Desktop/qemu/optee_os/lib/libmpa/mpa_addsub.c:446
    6a0c:	7100007f 	cmp	w3, #0x0
    6a10:	5a83a473 	cneg	w19, w3, lt
/home/lagadanu/Desktop/qemu/optee_os/lib/libmpa/mpa_addsub.c:450
    6a14:	eb00003f 	cmp	x1, x0
    6a18:	540002e1 	b.ne	6a74 <mpa_add_word+0xc8>
/home/lagadanu/Desktop/qemu/optee_os/lib/libmpa/mpa_addsub.c:451
    6a1c:	aa1603e1 	mov	x1, x22
    6a20:	910163a0 	add	x0, x29, #0x58
    6a24:	97fffc0c 	bl	5a54 <mpa_alloc_static_temp_var>
/home/lagadanu/Desktop/qemu/optee_os/lib/libmpa/mpa_addsub.c:456
    6a28:	710006ff 	cmp	w23, #0x1
    6a2c:	f9402fa0 	ldr	x0, [x29,#88]
    6a30:	54000261 	b.ne	6a7c <mpa_add_word+0xd0>
/home/lagadanu/Desktop/qemu/optee_os/lib/libmpa/mpa_addsub.c:458
    6a34:	91001001 	add	x1, x0, #0x4
    6a38:	2a1703e5 	mov	w5, w23
    6a3c:	910133a4 	add	x4, x29, #0x4c
    6a40:	2a1303e3 	mov	w3, w19
    6a44:	91002282 	add	x2, x20, #0x8
    6a48:	91002000 	add	x0, x0, #0x8
    6a4c:	97fffe50 	bl	638c <__mpa_abs_add>
/home/lagadanu/Desktop/qemu/optee_os/lib/libmpa/mpa_addsub.c:475
    6a50:	f9402fa1 	ldr	x1, [x29,#88]
    6a54:	aa1503e0 	mov	x0, x21
    6a58:	97fff520 	bl	3ed8 <mpa_copy>
/home/lagadanu/Desktop/qemu/optee_os/lib/libmpa/mpa_addsub.c:476
    6a5c:	eb15029f 	cmp	x20, x21
    6a60:	54fffb61 	b.ne	69cc <mpa_add_word+0x20>
/home/lagadanu/Desktop/qemu/optee_os/lib/libmpa/mpa_addsub.c:477
    6a64:	aa1603e1 	mov	x1, x22
    6a68:	910163a0 	add	x0, x29, #0x58
    6a6c:	97fffbfe 	bl	5a64 <mpa_free_static_temp_var>
    6a70:	17ffffd7 	b	69cc <mpa_add_word+0x20>
/home/lagadanu/Desktop/qemu/optee_os/lib/libmpa/mpa_addsub.c:453
    6a74:	f9002fa0 	str	x0, [x29,#88]
    6a78:	17ffffec 	b	6a28 <mpa_add_word+0x7c>
/home/lagadanu/Desktop/qemu/optee_os/lib/libmpa/mpa_addsub.c:461
    6a7c:	b9400681 	ldr	w1, [x20,#4]
    6a80:	7100003f 	cmp	w1, #0x0
    6a84:	5a81a421 	cneg	w1, w1, lt
    6a88:	7100043f 	cmp	w1, #0x1
    6a8c:	540000ac 	b.gt	6aa0 <mpa_add_word+0xf4>
/home/lagadanu/Desktop/qemu/optee_os/lib/libmpa/mpa_addsub.c:461 (discriminator 1)
    6a90:	b9400a82 	ldr	w2, [x20,#8]
    6a94:	b9404fa1 	ldr	w1, [x29,#76]
    6a98:	6b01005f 	cmp	w2, w1
    6a9c:	540001a9 	b.ls	6ad0 <mpa_add_word+0x124>
/home/lagadanu/Desktop/qemu/optee_os/lib/libmpa/mpa_addsub.c:465
    6aa0:	91001001 	add	x1, x0, #0x4
    6aa4:	52800025 	mov	w5, #0x1                   	// #1
    6aa8:	91002000 	add	x0, x0, #0x8
    6aac:	910133a4 	add	x4, x29, #0x4c
    6ab0:	2a1303e3 	mov	w3, w19
    6ab4:	91002282 	add	x2, x20, #0x8
    6ab8:	97fffea5 	bl	654c <__mpa_abs_sub>
/home/lagadanu/Desktop/qemu/optee_os/lib/libmpa/mpa_addsub.c:467
    6abc:	f9402fa1 	ldr	x1, [x29,#88]
    6ac0:	b9400420 	ldr	w0, [x1,#4]
    6ac4:	4b0003e0 	neg	w0, w0
    6ac8:	b9000420 	str	w0, [x1,#4]
    6acc:	17ffffe1 	b	6a50 <mpa_add_word+0xa4>
/home/lagadanu/Desktop/qemu/optee_os/lib/libmpa/mpa_addsub.c:470
    6ad0:	4b020021 	sub	w1, w1, w2
    6ad4:	b9000801 	str	w1, [x0,#8]
/home/lagadanu/Desktop/qemu/optee_os/lib/libmpa/mpa_addsub.c:471
    6ad8:	7100003f 	cmp	w1, #0x0
    6adc:	1a9f07e1 	cset	w1, ne
    6ae0:	b9000401 	str	w1, [x0,#4]
    6ae4:	17ffffdb 	b	6a50 <mpa_add_word+0xa4>

0000000000006ae8 <mpa_sub_word>:
mpa_sub_word():
/home/lagadanu/Desktop/qemu/optee_os/lib/libmpa/mpa_addsub.c:487
    6ae8:	a9ba7bfd 	stp	x29, x30, [sp,#-96]!
    6aec:	910003fd 	mov	x29, sp
    6af0:	a90153f3 	stp	x19, x20, [sp,#16]
    6af4:	a9025bf5 	stp	x21, x22, [sp,#32]
    6af8:	b9004fa2 	str	w2, [x29,#76]
    6afc:	f9001bf7 	str	x23, [sp,#48]
/home/lagadanu/Desktop/qemu/optee_os/lib/libmpa/mpa_addsub.c:493
    6b00:	350000e2 	cbnz	w2, 6b1c <mpa_sub_word+0x34>
/home/lagadanu/Desktop/qemu/optee_os/lib/libmpa/mpa_addsub.c:494
    6b04:	97fff4f5 	bl	3ed8 <mpa_copy>
/home/lagadanu/Desktop/qemu/optee_os/lib/libmpa/mpa_addsub.c:539
    6b08:	a94153f3 	ldp	x19, x20, [sp,#16]
    6b0c:	a9425bf5 	ldp	x21, x22, [sp,#32]
    6b10:	f9401bf7 	ldr	x23, [sp,#48]
    6b14:	a8c67bfd 	ldp	x29, x30, [sp],#96
    6b18:	d65f03c0 	ret
    6b1c:	aa0303f6 	mov	x22, x3
/home/lagadanu/Desktop/qemu/optee_os/lib/libmpa/mpa_addsub.c:498
    6b20:	b9400423 	ldr	w3, [x1,#4]
    6b24:	aa0003f5 	mov	x21, x0
    6b28:	aa0103f4 	mov	x20, x1
/home/lagadanu/Desktop/qemu/optee_os/lib/libmpa/mpa_addsub.c:499
    6b2c:	12800000 	mov	w0, #0xffffffff            	// #-1
/home/lagadanu/Desktop/qemu/optee_os/lib/libmpa/mpa_addsub.c:498
    6b30:	35000063 	cbnz	w3, 6b3c <mpa_sub_word+0x54>
/home/lagadanu/Desktop/qemu/optee_os/lib/libmpa/mpa_addsub.c:500
    6b34:	29008aa0 	stp	w0, w2, [x21,#4]
/home/lagadanu/Desktop/qemu/optee_os/lib/libmpa/mpa_addsub.c:501
    6b38:	17fffff4 	b	6b08 <mpa_sub_word+0x20>
/home/lagadanu/Desktop/qemu/optee_os/lib/libmpa/mpa_addsub.c:504
    6b3c:	6b00007f 	cmp	w3, w0
    6b40:	5a80d417 	cneg	w23, w0, gt
/home/lagadanu/Desktop/qemu/optee_os/lib/libmpa/mpa_addsub.c:505
    6b44:	7100007f 	cmp	w3, #0x0
    6b48:	5a83a473 	cneg	w19, w3, lt
/home/lagadanu/Desktop/qemu/optee_os/lib/libmpa/mpa_addsub.c:509
    6b4c:	eb15003f 	cmp	x1, x21
    6b50:	54000401 	b.ne	6bd0 <mpa_sub_word+0xe8>
/home/lagadanu/Desktop/qemu/optee_os/lib/libmpa/mpa_addsub.c:510
    6b54:	aa1603e1 	mov	x1, x22
    6b58:	910163a0 	add	x0, x29, #0x58
    6b5c:	97fffbbe 	bl	5a54 <mpa_alloc_static_temp_var>
/home/lagadanu/Desktop/qemu/optee_os/lib/libmpa/mpa_addsub.c:522
    6b60:	710006ff 	cmp	w23, #0x1
    6b64:	f9402fa0 	ldr	x0, [x29,#88]
    6b68:	54000441 	b.ne	6bf0 <mpa_sub_word+0x108>
/home/lagadanu/Desktop/qemu/optee_os/lib/libmpa/mpa_addsub.c:523
    6b6c:	b9400681 	ldr	w1, [x20,#4]
    6b70:	7100003f 	cmp	w1, #0x0
    6b74:	5a81a421 	cneg	w1, w1, lt
    6b78:	7100043f 	cmp	w1, #0x1
    6b7c:	540000ac 	b.gt	6b90 <mpa_sub_word+0xa8>
/home/lagadanu/Desktop/qemu/optee_os/lib/libmpa/mpa_addsub.c:523 (discriminator 1)
    6b80:	b9400a82 	ldr	w2, [x20,#8]
    6b84:	b9404fa1 	ldr	w1, [x29,#76]
    6b88:	6b01005f 	cmp	w2, w1
    6b8c:	54000269 	b.ls	6bd8 <mpa_sub_word+0xf0>
/home/lagadanu/Desktop/qemu/optee_os/lib/libmpa/mpa_addsub.c:524
    6b90:	91001001 	add	x1, x0, #0x4
    6b94:	52800025 	mov	w5, #0x1                   	// #1
    6b98:	910133a4 	add	x4, x29, #0x4c
    6b9c:	2a1303e3 	mov	w3, w19
    6ba0:	91002282 	add	x2, x20, #0x8
    6ba4:	91002000 	add	x0, x0, #0x8
    6ba8:	97fffe69 	bl	654c <__mpa_abs_sub>
/home/lagadanu/Desktop/qemu/optee_os/lib/libmpa/mpa_addsub.c:536
    6bac:	f9402fa1 	ldr	x1, [x29,#88]
    6bb0:	aa1503e0 	mov	x0, x21
    6bb4:	97fff4c9 	bl	3ed8 <mpa_copy>
/home/lagadanu/Desktop/qemu/optee_os/lib/libmpa/mpa_addsub.c:537
    6bb8:	eb15029f 	cmp	x20, x21
    6bbc:	54fffa61 	b.ne	6b08 <mpa_sub_word+0x20>
/home/lagadanu/Desktop/qemu/optee_os/lib/libmpa/mpa_addsub.c:538
    6bc0:	aa1603e1 	mov	x1, x22
    6bc4:	910163a0 	add	x0, x29, #0x58
    6bc8:	97fffba7 	bl	5a64 <mpa_free_static_temp_var>
    6bcc:	17ffffcf 	b	6b08 <mpa_sub_word+0x20>
/home/lagadanu/Desktop/qemu/optee_os/lib/libmpa/mpa_addsub.c:512
    6bd0:	f9002fb5 	str	x21, [x29,#88]
    6bd4:	17ffffe3 	b	6b60 <mpa_sub_word+0x78>
/home/lagadanu/Desktop/qemu/optee_os/lib/libmpa/mpa_addsub.c:527
    6bd8:	4b020021 	sub	w1, w1, w2
    6bdc:	b9000801 	str	w1, [x0,#8]
/home/lagadanu/Desktop/qemu/optee_os/lib/libmpa/mpa_addsub.c:528
    6be0:	7100003f 	cmp	w1, #0x0
    6be4:	5a9f03e1 	csetm	w1, ne
    6be8:	b9000401 	str	w1, [x0,#4]
    6bec:	17fffff0 	b	6bac <mpa_sub_word+0xc4>
/home/lagadanu/Desktop/qemu/optee_os/lib/libmpa/mpa_addsub.c:531
    6bf0:	91001001 	add	x1, x0, #0x4
    6bf4:	52800025 	mov	w5, #0x1                   	// #1
    6bf8:	91002000 	add	x0, x0, #0x8
    6bfc:	910133a4 	add	x4, x29, #0x4c
    6c00:	2a1303e3 	mov	w3, w19
    6c04:	91002282 	add	x2, x20, #0x8
    6c08:	97fffde1 	bl	638c <__mpa_abs_add>
/home/lagadanu/Desktop/qemu/optee_os/lib/libmpa/mpa_addsub.c:533
    6c0c:	f9402fa1 	ldr	x1, [x29,#88]
    6c10:	b9400420 	ldr	w0, [x1,#4]
    6c14:	4b0003e0 	neg	w0, w0
    6c18:	b9000420 	str	w0, [x1,#4]
    6c1c:	17ffffe4 	b	6bac <mpa_sub_word+0xc4>

0000000000006c20 <__mpa_abs_cmp>:
__mpa_abs_cmp():
/home/lagadanu/Desktop/qemu/optee_os/lib/libmpa/mpa_cmp.c:21
    6c20:	aa0003e4 	mov	x4, x0
/home/lagadanu/Desktop/qemu/optee_os/lib/libmpa/mpa_cmp.c:26
    6c24:	eb01001f 	cmp	x0, x1
    6c28:	54000500 	b.eq	6cc8 <__mpa_abs_cmp+0xa8>
/home/lagadanu/Desktop/qemu/optee_os/lib/libmpa/mpa_cmp.c:30
    6c2c:	b9400482 	ldr	w2, [x4,#4]
    6c30:	b9400420 	ldr	w0, [x1,#4]
    6c34:	7100005f 	cmp	w2, #0x0
    6c38:	5a82a443 	cneg	w3, w2, lt
    6c3c:	7100001f 	cmp	w0, #0x0
    6c40:	5a80a405 	cneg	w5, w0, lt
    6c44:	6b05007f 	cmp	w3, w5
    6c48:	54000060 	b.eq	6c54 <__mpa_abs_cmp+0x34>
/home/lagadanu/Desktop/qemu/optee_os/lib/libmpa/mpa_cmp.c:31
    6c4c:	4b050060 	sub	w0, w3, w5
    6c50:	d65f03c0 	ret
/home/lagadanu/Desktop/qemu/optee_os/lib/libmpa/mpa_cmp.c:33 (discriminator 1)
    6c54:	2a000040 	orr	w0, w2, w0
    6c58:	340003a0 	cbz	w0, 6ccc <__mpa_abs_cmp+0xac>
/home/lagadanu/Desktop/qemu/optee_os/lib/libmpa/mpa_cmp.c:37
    6c5c:	51000462 	sub	w2, w3, #0x1
/home/lagadanu/Desktop/qemu/optee_os/lib/libmpa/mpa_cmp.c:38
    6c60:	52800025 	mov	w5, #0x1                   	// #1
    6c64:	93407c43 	sxtw	x3, w2
    6c68:	91000863 	add	x3, x3, #0x2
    6c6c:	d37ef463 	lsl	x3, x3, #2
/home/lagadanu/Desktop/qemu/optee_os/lib/libmpa/mpa_cmp.c:39
    6c70:	2a2203e0 	mvn	w0, w2
    6c74:	6a407cbf 	tst	w5, w0, lsr #31
    6c78:	540001a1 	b.ne	6cac <__mpa_abs_cmp+0x8c>
/home/lagadanu/Desktop/qemu/optee_os/lib/libmpa/mpa_cmp.c:27
    6c7c:	52800000 	mov	w0, #0x0                   	// #0
/home/lagadanu/Desktop/qemu/optee_os/lib/libmpa/mpa_cmp.c:43
    6c80:	35000265 	cbnz	w5, 6ccc <__mpa_abs_cmp+0xac>
/home/lagadanu/Desktop/qemu/optee_os/lib/libmpa/mpa_cmp.c:45
    6c84:	11000442 	add	w2, w2, #0x1
/home/lagadanu/Desktop/qemu/optee_os/lib/libmpa/mpa_cmp.c:46
    6c88:	12800000 	mov	w0, #0xffffffff            	// #-1
    6c8c:	937e7c42 	sbfiz	x2, x2, #2, #32
    6c90:	8b020084 	add	x4, x4, x2
    6c94:	8b020022 	add	x2, x1, x2
    6c98:	b9400883 	ldr	w3, [x4,#8]
    6c9c:	b9400841 	ldr	w1, [x2,#8]
    6ca0:	6b01007f 	cmp	w3, w1
    6ca4:	5a809400 	cneg	w0, w0, hi
    6ca8:	d65f03c0 	ret
/home/lagadanu/Desktop/qemu/optee_os/lib/libmpa/mpa_cmp.c:40
    6cac:	b8636885 	ldr	w5, [x4,x3]
/home/lagadanu/Desktop/qemu/optee_os/lib/libmpa/mpa_cmp.c:41
    6cb0:	51000442 	sub	w2, w2, #0x1
/home/lagadanu/Desktop/qemu/optee_os/lib/libmpa/mpa_cmp.c:40
    6cb4:	b8636820 	ldr	w0, [x1,x3]
    6cb8:	d1001063 	sub	x3, x3, #0x4
    6cbc:	6b0000bf 	cmp	w5, w0
    6cc0:	1a9f17e5 	cset	w5, eq
    6cc4:	17ffffeb 	b	6c70 <__mpa_abs_cmp+0x50>
/home/lagadanu/Desktop/qemu/optee_os/lib/libmpa/mpa_cmp.c:27
    6cc8:	52800000 	mov	w0, #0x0                   	// #0
/home/lagadanu/Desktop/qemu/optee_os/lib/libmpa/mpa_cmp.c:47
    6ccc:	d65f03c0 	ret

0000000000006cd0 <__mpa_abs_greater_than>:
__mpa_abs_greater_than():
/home/lagadanu/Desktop/qemu/optee_os/lib/libmpa/mpa_cmp.c:55
    6cd0:	a9bf7bfd 	stp	x29, x30, [sp,#-16]!
    6cd4:	910003fd 	mov	x29, sp
/home/lagadanu/Desktop/qemu/optee_os/lib/libmpa/mpa_cmp.c:56
    6cd8:	97ffffd2 	bl	6c20 <__mpa_abs_cmp>
    6cdc:	7100001f 	cmp	w0, #0x0
/home/lagadanu/Desktop/qemu/optee_os/lib/libmpa/mpa_cmp.c:57
    6ce0:	1a9fd7e0 	cset	w0, gt
    6ce4:	a8c17bfd 	ldp	x29, x30, [sp],#16
    6ce8:	d65f03c0 	ret

0000000000006cec <__mpa_abs_less_than>:
__mpa_abs_less_than():
/home/lagadanu/Desktop/qemu/optee_os/lib/libmpa/mpa_cmp.c:65
    6cec:	a9bf7bfd 	stp	x29, x30, [sp,#-16]!
    6cf0:	910003fd 	mov	x29, sp
/home/lagadanu/Desktop/qemu/optee_os/lib/libmpa/mpa_cmp.c:66
    6cf4:	97ffffcb 	bl	6c20 <__mpa_abs_cmp>
/home/lagadanu/Desktop/qemu/optee_os/lib/libmpa/mpa_cmp.c:67
    6cf8:	531f7c00 	lsr	w0, w0, #31
    6cfc:	a8c17bfd 	ldp	x29, x30, [sp],#16
    6d00:	d65f03c0 	ret

0000000000006d04 <mpa_cmp>:
mpa_cmp():
/home/lagadanu/Desktop/qemu/optee_os/lib/libmpa/mpa_cmp.c:83
    6d04:	a9be7bfd 	stp	x29, x30, [sp,#-32]!
/home/lagadanu/Desktop/qemu/optee_os/lib/libmpa/mpa_cmp.c:88
    6d08:	12800002 	mov	w2, #0xffffffff            	// #-1
/home/lagadanu/Desktop/qemu/optee_os/lib/libmpa/mpa_cmp.c:83
    6d0c:	910003fd 	mov	x29, sp
/home/lagadanu/Desktop/qemu/optee_os/lib/libmpa/mpa_cmp.c:88
    6d10:	b9400404 	ldr	w4, [x0,#4]
/home/lagadanu/Desktop/qemu/optee_os/lib/libmpa/mpa_cmp.c:89
    6d14:	b9400423 	ldr	w3, [x1,#4]
/home/lagadanu/Desktop/qemu/optee_os/lib/libmpa/mpa_cmp.c:88
    6d18:	6b02009f 	cmp	w4, w2
/home/lagadanu/Desktop/qemu/optee_os/lib/libmpa/mpa_cmp.c:83
    6d1c:	f9000bf3 	str	x19, [sp,#16]
/home/lagadanu/Desktop/qemu/optee_os/lib/libmpa/mpa_cmp.c:88
    6d20:	5a82d453 	cneg	w19, w2, gt
/home/lagadanu/Desktop/qemu/optee_os/lib/libmpa/mpa_cmp.c:89
    6d24:	6b02007f 	cmp	w3, w2
    6d28:	5a82d442 	cneg	w2, w2, gt
    6d2c:	6b02027f 	cmp	w19, w2
    6d30:	540000e1 	b.ne	6d4c <mpa_cmp+0x48>
/home/lagadanu/Desktop/qemu/optee_os/lib/libmpa/mpa_cmp.c:93
    6d34:	35000144 	cbnz	w4, 6d5c <mpa_cmp+0x58>
/home/lagadanu/Desktop/qemu/optee_os/lib/libmpa/mpa_cmp.c:94
    6d38:	52800013 	mov	w19, #0x0                   	// #0
    6d3c:	34000083 	cbz	w3, 6d4c <mpa_cmp+0x48>
/home/lagadanu/Desktop/qemu/optee_os/lib/libmpa/mpa_cmp.c:94 (discriminator 1)
    6d40:	3100047f 	cmn	w3, #0x1
    6d44:	52800026 	mov	w6, #0x1                   	// #1
    6d48:	5a86d4d3 	cneg	w19, w6, gt
/home/lagadanu/Desktop/qemu/optee_os/lib/libmpa/mpa_cmp.c:104
    6d4c:	2a1303e0 	mov	w0, w19
    6d50:	f9400bf3 	ldr	x19, [sp,#16]
    6d54:	a8c27bfd 	ldp	x29, x30, [sp],#32
    6d58:	d65f03c0 	ret
/home/lagadanu/Desktop/qemu/optee_os/lib/libmpa/mpa_cmp.c:100
    6d5c:	97ffffb1 	bl	6c20 <__mpa_abs_cmp>
/home/lagadanu/Desktop/qemu/optee_os/lib/libmpa/mpa_cmp.c:102
    6d60:	7100067f 	cmp	w19, #0x1
    6d64:	5a800413 	cneg	w19, w0, ne
    6d68:	17fffff9 	b	6d4c <mpa_cmp+0x48>

0000000000006d6c <mpa_cmp_short>:
mpa_cmp_short():
/home/lagadanu/Desktop/qemu/optee_os/lib/libmpa/mpa_cmp.c:122
    6d6c:	b9400403 	ldr	w3, [x0,#4]
/home/lagadanu/Desktop/qemu/optee_os/lib/libmpa/mpa_cmp.c:115
    6d70:	aa0003e4 	mov	x4, x0
/home/lagadanu/Desktop/qemu/optee_os/lib/libmpa/mpa_cmp.c:122
    6d74:	37f80343 	tbnz	w3, #31, 6ddc <mpa_cmp_short+0x70>
/home/lagadanu/Desktop/qemu/optee_os/lib/libmpa/mpa_cmp.c:123 (discriminator 4)
    6d78:	37f802a1 	tbnz	w1, #31, 6dcc <mpa_cmp_short+0x60>
/home/lagadanu/Desktop/qemu/optee_os/lib/libmpa/mpa_cmp.c:126 (discriminator 4)
    6d7c:	350000c3 	cbnz	w3, 6d94 <mpa_cmp_short+0x28>
/home/lagadanu/Desktop/qemu/optee_os/lib/libmpa/mpa_cmp.c:127
    6d80:	52800000 	mov	w0, #0x0                   	// #0
    6d84:	34000341 	cbz	w1, 6dec <mpa_cmp_short+0x80>
/home/lagadanu/Desktop/qemu/optee_os/lib/libmpa/mpa_cmp.c:123
    6d88:	52800022 	mov	w2, #0x1                   	// #1
/home/lagadanu/Desktop/qemu/optee_os/lib/libmpa/mpa_cmp.c:127 (discriminator 1)
    6d8c:	4b0203e0 	neg	w0, w2
    6d90:	d65f03c0 	ret
/home/lagadanu/Desktop/qemu/optee_os/lib/libmpa/mpa_cmp.c:122
    6d94:	52800020 	mov	w0, #0x1                   	// #1
/home/lagadanu/Desktop/qemu/optee_os/lib/libmpa/mpa_cmp.c:123
    6d98:	52800022 	mov	w2, #0x1                   	// #1
/home/lagadanu/Desktop/qemu/optee_os/lib/libmpa/mpa_cmp.c:130
    6d9c:	7100007f 	cmp	w3, #0x0
    6da0:	5a83a463 	cneg	w3, w3, lt
/home/lagadanu/Desktop/qemu/optee_os/lib/libmpa/mpa_cmp.c:134
    6da4:	7100047f 	cmp	w3, #0x1
    6da8:	7a420000 	ccmp	w0, w2, #0x0, eq
    6dac:	54000201 	b.ne	6dec <mpa_cmp_short+0x80>
/home/lagadanu/Desktop/qemu/optee_os/lib/libmpa/mpa_cmp.c:139
    6db0:	7100003f 	cmp	w1, #0x0
/home/lagadanu/Desktop/qemu/optee_os/lib/libmpa/mpa_cmp.c:141
    6db4:	b9400882 	ldr	w2, [x4,#8]
/home/lagadanu/Desktop/qemu/optee_os/lib/libmpa/mpa_cmp.c:139
    6db8:	5a81a421 	cneg	w1, w1, lt
/home/lagadanu/Desktop/qemu/optee_os/lib/libmpa/mpa_cmp.c:141
    6dbc:	6b02003f 	cmp	w1, w2
/home/lagadanu/Desktop/qemu/optee_os/lib/libmpa/mpa_cmp.c:144
    6dc0:	5a803400 	cneg	w0, w0, cs
    6dc4:	1a9f1000 	csel	w0, w0, wzr, ne
    6dc8:	d65f03c0 	ret
/home/lagadanu/Desktop/qemu/optee_os/lib/libmpa/mpa_cmp.c:123
    6dcc:	12800002 	mov	w2, #0xffffffff            	// #-1
/home/lagadanu/Desktop/qemu/optee_os/lib/libmpa/mpa_cmp.c:122
    6dd0:	52800020 	mov	w0, #0x1                   	// #1
/home/lagadanu/Desktop/qemu/optee_os/lib/libmpa/mpa_cmp.c:126
    6dd4:	34fffdc3 	cbz	w3, 6d8c <mpa_cmp_short+0x20>
    6dd8:	17fffff1 	b	6d9c <mpa_cmp_short+0x30>
/home/lagadanu/Desktop/qemu/optee_os/lib/libmpa/mpa_cmp.c:122
    6ddc:	12800000 	mov	w0, #0xffffffff            	// #-1
/home/lagadanu/Desktop/qemu/optee_os/lib/libmpa/mpa_cmp.c:123
    6de0:	2a0003e2 	mov	w2, w0
    6de4:	36fffda1 	tbz	w1, #31, 6d98 <mpa_cmp_short+0x2c>
    6de8:	17ffffed 	b	6d9c <mpa_cmp_short+0x30>
/home/lagadanu/Desktop/qemu/optee_os/lib/libmpa/mpa_cmp.c:149
    6dec:	d65f03c0 	ret

0000000000006df0 <mpa_exp_mod>:
mpa_exp_mod():
/home/lagadanu/Desktop/qemu/optee_os/lib/libmpa/mpa_expmod.c:29
    6df0:	a9b67bfd 	stp	x29, x30, [sp,#-160]!
    6df4:	910003fd 	mov	x29, sp
    6df8:	a90573fb 	stp	x27, x28, [sp,#80]
/home/lagadanu/Desktop/qemu/optee_os/lib/libmpa/mpa_expmod.c:40
    6dfc:	910203bc 	add	x28, x29, #0x80
/home/lagadanu/Desktop/qemu/optee_os/lib/libmpa/mpa_expmod.c:29
    6e00:	a90153f3 	stp	x19, x20, [sp,#16]
/home/lagadanu/Desktop/qemu/optee_os/lib/libmpa/mpa_expmod.c:41
    6e04:	910223bb 	add	x27, x29, #0x88
/home/lagadanu/Desktop/qemu/optee_os/lib/libmpa/mpa_expmod.c:29
    6e08:	aa0703f3 	mov	x19, x7
    6e0c:	aa0403f4 	mov	x20, x4
    6e10:	a9060ba0 	stp	x0, x2, [x29,#96]
/home/lagadanu/Desktop/qemu/optee_os/lib/libmpa/mpa_expmod.c:40
    6e14:	aa1c03e0 	mov	x0, x28
/home/lagadanu/Desktop/qemu/optee_os/lib/libmpa/mpa_expmod.c:29
    6e18:	a9025bf5 	stp	x21, x22, [sp,#32]
    6e1c:	2a0603f6 	mov	w22, w6
    6e20:	aa0303f5 	mov	x21, x3
    6e24:	a90363f7 	stp	x23, x24, [sp,#48]
    6e28:	a9046bf9 	stp	x25, x26, [sp,#64]
    6e2c:	aa0503f8 	mov	x24, x5
    6e30:	aa0103f7 	mov	x23, x1
/home/lagadanu/Desktop/qemu/optee_os/lib/libmpa/mpa_expmod.c:40
    6e34:	aa0703e1 	mov	x1, x7
    6e38:	97fffb07 	bl	5a54 <mpa_alloc_static_temp_var>
/home/lagadanu/Desktop/qemu/optee_os/lib/libmpa/mpa_expmod.c:53
    6e3c:	aa1c03fa 	mov	x26, x28
/home/lagadanu/Desktop/qemu/optee_os/lib/libmpa/mpa_expmod.c:41
    6e40:	aa1303e1 	mov	x1, x19
    6e44:	aa1b03e0 	mov	x0, x27
    6e48:	97fffb03 	bl	5a54 <mpa_alloc_static_temp_var>
/home/lagadanu/Desktop/qemu/optee_os/lib/libmpa/mpa_expmod.c:42
    6e4c:	910243a0 	add	x0, x29, #0x90
    6e50:	aa1303e1 	mov	x1, x19
    6e54:	f9003fa0 	str	x0, [x29,#120]
    6e58:	97fffaff 	bl	5a54 <mpa_alloc_static_temp_var>
/home/lagadanu/Desktop/qemu/optee_os/lib/libmpa/mpa_expmod.c:43
    6e5c:	910263a0 	add	x0, x29, #0x98
    6e60:	aa1303e1 	mov	x1, x19
    6e64:	f9003ba0 	str	x0, [x29,#112]
    6e68:	97fffafb 	bl	5a54 <mpa_alloc_static_temp_var>
/home/lagadanu/Desktop/qemu/optee_os/lib/libmpa/mpa_expmod.c:49
    6e6c:	f9404ba0 	ldr	x0, [x29,#144]
    6e70:	aa1803e2 	mov	x2, x24
    6e74:	2a1603e4 	mov	w4, w22
    6e78:	aa1503e3 	mov	x3, x21
    6e7c:	aa1703e1 	mov	x1, x23
    6e80:	97fff4a8 	bl	4120 <__mpa_montgomery_mul>
/home/lagadanu/Desktop/qemu/optee_os/lib/libmpa/mpa_expmod.c:51
    6e84:	f94043a0 	ldr	x0, [x29,#128]
    6e88:	aa1403e1 	mov	x1, x20
/home/lagadanu/Desktop/qemu/optee_os/lib/libmpa/mpa_expmod.c:54
    6e8c:	aa1b03f4 	mov	x20, x27
/home/lagadanu/Desktop/qemu/optee_os/lib/libmpa/mpa_expmod.c:51
    6e90:	97fff412 	bl	3ed8 <mpa_copy>
/home/lagadanu/Desktop/qemu/optee_os/lib/libmpa/mpa_expmod.c:58
    6e94:	f94043a0 	ldr	x0, [x29,#128]
    6e98:	97fff3fb 	bl	3e84 <__mpa_set_unused_digits_to_zero>
/home/lagadanu/Desktop/qemu/optee_os/lib/libmpa/mpa_expmod.c:59
    6e9c:	f9404ba0 	ldr	x0, [x29,#144]
    6ea0:	97fff3f9 	bl	3e84 <__mpa_set_unused_digits_to_zero>
/home/lagadanu/Desktop/qemu/optee_os/lib/libmpa/mpa_expmod.c:61
    6ea4:	f94037a0 	ldr	x0, [x29,#104]
    6ea8:	97fff42d 	bl	3f5c <mpa_highest_bit_index>
    6eac:	2a0003f8 	mov	w24, w0
/home/lagadanu/Desktop/qemu/optee_os/lib/libmpa/mpa_expmod.c:55
    6eb0:	a9475fb9 	ldp	x25, x23, [x29,#112]
/home/lagadanu/Desktop/qemu/optee_os/lib/libmpa/mpa_expmod.c:61 (discriminator 1)
    6eb4:	36f803d8 	tbz	w24, #31, 6f2c <mpa_exp_mod+0x13c>
/home/lagadanu/Desktop/qemu/optee_os/lib/libmpa/mpa_expmod.c:89
    6eb8:	f0000001 	adrp	x1, 9000 <__func__.3181+0x410>
    6ebc:	f9400342 	ldr	x2, [x26]
    6ec0:	f9400280 	ldr	x0, [x20]
    6ec4:	2a1603e4 	mov	w4, w22
    6ec8:	f942c421 	ldr	x1, [x1,#1416]
    6ecc:	aa1503e3 	mov	x3, x21
    6ed0:	97fff494 	bl	4120 <__mpa_montgomery_mul>
/home/lagadanu/Desktop/qemu/optee_os/lib/libmpa/mpa_expmod.c:92
    6ed4:	f9400281 	ldr	x1, [x20]
    6ed8:	f94033a0 	ldr	x0, [x29,#96]
    6edc:	97fff3ff 	bl	3ed8 <mpa_copy>
/home/lagadanu/Desktop/qemu/optee_os/lib/libmpa/mpa_expmod.c:94
    6ee0:	aa1303e1 	mov	x1, x19
    6ee4:	aa1c03e0 	mov	x0, x28
    6ee8:	97fffadf 	bl	5a64 <mpa_free_static_temp_var>
/home/lagadanu/Desktop/qemu/optee_os/lib/libmpa/mpa_expmod.c:95
    6eec:	aa1303e1 	mov	x1, x19
    6ef0:	aa1b03e0 	mov	x0, x27
    6ef4:	97fffadc 	bl	5a64 <mpa_free_static_temp_var>
/home/lagadanu/Desktop/qemu/optee_os/lib/libmpa/mpa_expmod.c:96
    6ef8:	f9403fa0 	ldr	x0, [x29,#120]
    6efc:	aa1303e1 	mov	x1, x19
    6f00:	97fffad9 	bl	5a64 <mpa_free_static_temp_var>
/home/lagadanu/Desktop/qemu/optee_os/lib/libmpa/mpa_expmod.c:97
    6f04:	f9403ba0 	ldr	x0, [x29,#112]
    6f08:	aa1303e1 	mov	x1, x19
    6f0c:	97fffad6 	bl	5a64 <mpa_free_static_temp_var>
/home/lagadanu/Desktop/qemu/optee_os/lib/libmpa/mpa_expmod.c:98
    6f10:	a94153f3 	ldp	x19, x20, [sp,#16]
    6f14:	a9425bf5 	ldp	x21, x22, [sp,#32]
    6f18:	a94363f7 	ldp	x23, x24, [sp,#48]
    6f1c:	a9446bf9 	ldp	x25, x26, [sp,#64]
    6f20:	a94573fb 	ldp	x27, x28, [sp,#80]
    6f24:	a8ca7bfd 	ldp	x29, x30, [sp],#160
    6f28:	d65f03c0 	ret
/home/lagadanu/Desktop/qemu/optee_os/lib/libmpa/mpa_expmod.c:62
    6f2c:	f94037a0 	ldr	x0, [x29,#104]
    6f30:	2a1803e1 	mov	w1, w24
    6f34:	97fff41b 	bl	3fa0 <mpa_get_bit>
/home/lagadanu/Desktop/qemu/optee_os/lib/libmpa/mpa_expmod.c:64
    6f38:	2a1603e4 	mov	w4, w22
    6f3c:	aa1503e3 	mov	x3, x21
    6f40:	f94002e2 	ldr	x2, [x23]
    6f44:	f9400341 	ldr	x1, [x26]
/home/lagadanu/Desktop/qemu/optee_os/lib/libmpa/mpa_expmod.c:62
    6f48:	35000220 	cbnz	w0, 6f8c <mpa_exp_mod+0x19c>
/home/lagadanu/Desktop/qemu/optee_os/lib/libmpa/mpa_expmod.c:64
    6f4c:	f9400320 	ldr	x0, [x25]
    6f50:	97fff474 	bl	4120 <__mpa_montgomery_mul>
/home/lagadanu/Desktop/qemu/optee_os/lib/libmpa/mpa_expmod.c:68
    6f54:	f9400342 	ldr	x2, [x26]
    6f58:	2a1603e4 	mov	w4, w22
    6f5c:	f9400280 	ldr	x0, [x20]
    6f60:	aa1503e3 	mov	x3, x21
    6f64:	aa0203e1 	mov	x1, x2
/home/lagadanu/Desktop/qemu/optee_os/lib/libmpa/mpa_expmod.c:76
    6f68:	97fff46e 	bl	4120 <__mpa_montgomery_mul>
/home/lagadanu/Desktop/qemu/optee_os/lib/libmpa/mpa_expmod.c:61
    6f6c:	51000718 	sub	w24, w24, #0x1
    6f70:	aa1703e0 	mov	x0, x23
    6f74:	aa1903f7 	mov	x23, x25
    6f78:	aa0003f9 	mov	x25, x0
    6f7c:	aa1a03e0 	mov	x0, x26
    6f80:	aa1403fa 	mov	x26, x20
    6f84:	aa0003f4 	mov	x20, x0
    6f88:	17ffffcb 	b	6eb4 <mpa_exp_mod+0xc4>
/home/lagadanu/Desktop/qemu/optee_os/lib/libmpa/mpa_expmod.c:72
    6f8c:	f9400280 	ldr	x0, [x20]
    6f90:	97fff464 	bl	4120 <__mpa_montgomery_mul>
/home/lagadanu/Desktop/qemu/optee_os/lib/libmpa/mpa_expmod.c:76
    6f94:	f94002e2 	ldr	x2, [x23]
    6f98:	2a1603e4 	mov	w4, w22
    6f9c:	aa1503e3 	mov	x3, x21
    6fa0:	f9400320 	ldr	x0, [x25]
    6fa4:	aa0203e1 	mov	x1, x2
    6fa8:	17fffff0 	b	6f68 <mpa_exp_mod+0x178>

0000000000006fac <mpa_init_static>:
mpa_init_static():
/home/lagadanu/Desktop/qemu/optee_os/lib/libmpa/mpa_init.c:13
    6fac:	531e7421 	lsl	w1, w1, #2
    6fb0:	51002021 	sub	w1, w1, #0x8
    6fb4:	d3427c21 	ubfx	x1, x1, #2, #30
/home/lagadanu/Desktop/qemu/optee_os/lib/libmpa/mpa_init.c:14
    6fb8:	29007c01 	stp	w1, wzr, [x0]
/home/lagadanu/Desktop/qemu/optee_os/lib/libmpa/mpa_init.c:15
    6fbc:	b4000041 	cbz	x1, 6fc4 <mpa_init_static+0x18>
/home/lagadanu/Desktop/qemu/optee_os/lib/libmpa/mpa_init.c:16
    6fc0:	b900081f 	str	wzr, [x0,#8]
    6fc4:	d65f03c0 	ret

0000000000006fc8 <mpa_init_static_fmm_context>:
mpa_init_static_fmm_context():
/home/lagadanu/Desktop/qemu/optee_os/lib/libmpa/mpa_init.c:25
    6fc8:	a9bd7bfd 	stp	x29, x30, [sp,#-48]!
    6fcc:	910003fd 	mov	x29, sp
    6fd0:	a90153f3 	stp	x19, x20, [sp,#16]
/home/lagadanu/Desktop/qemu/optee_os/lib/libmpa/mpa_init.c:29
    6fd4:	531e7433 	lsl	w19, w1, #2
    6fd8:	51006273 	sub	w19, w19, #0x18
/home/lagadanu/Desktop/qemu/optee_os/lib/libmpa/mpa_init.c:32
    6fdc:	91005014 	add	x20, x0, #0x14
/home/lagadanu/Desktop/qemu/optee_os/lib/libmpa/mpa_init.c:25
    6fe0:	f90013f5 	str	x21, [sp,#32]
/home/lagadanu/Desktop/qemu/optee_os/lib/libmpa/mpa_init.c:32
    6fe4:	52800001 	mov	w1, #0x0                   	// #0
/home/lagadanu/Desktop/qemu/optee_os/lib/libmpa/mpa_init.c:29
    6fe8:	d3427e73 	ubfx	x19, x19, #2, #30
/home/lagadanu/Desktop/qemu/optee_os/lib/libmpa/mpa_init.c:25
    6fec:	aa0003f5 	mov	x21, x0
/home/lagadanu/Desktop/qemu/optee_os/lib/libmpa/mpa_init.c:32
    6ff0:	d37ef662 	lsl	x2, x19, #2
    6ff4:	aa1403e0 	mov	x0, x20
/home/lagadanu/Desktop/qemu/optee_os/lib/libmpa/mpa_init.c:33
    6ff8:	53017e73 	lsr	w19, w19, #1
/home/lagadanu/Desktop/qemu/optee_os/lib/libmpa/mpa_init.c:32
    6ffc:	97ffe93c 	bl	14ec <memset>
/home/lagadanu/Desktop/qemu/optee_os/lib/libmpa/mpa_init.c:40
    7000:	51000a61 	sub	w1, w19, #0x2
/home/lagadanu/Desktop/qemu/optee_os/lib/libmpa/mpa_init.c:43
    7004:	d37e7273 	ubfiz	x19, x19, #2, #29
    7008:	8b130280 	add	x0, x20, x19
/home/lagadanu/Desktop/qemu/optee_os/lib/libmpa/mpa_init.c:39
    700c:	290206bf 	stp	wzr, w1, [x21,#16]
/home/lagadanu/Desktop/qemu/optee_os/lib/libmpa/mpa_init.c:43
    7010:	a90002b4 	stp	x20, x0, [x21]
/home/lagadanu/Desktop/qemu/optee_os/lib/libmpa/mpa_init.c:41
    7014:	b9001abf 	str	wzr, [x21,#24]
/home/lagadanu/Desktop/qemu/optee_os/lib/libmpa/mpa_init.c:44
    7018:	b8336a81 	str	w1, [x20,x19]
/home/lagadanu/Desktop/qemu/optee_os/lib/libmpa/mpa_init.c:47
    701c:	f94013f5 	ldr	x21, [sp,#32]
    7020:	a94153f3 	ldp	x19, x20, [sp,#16]
/home/lagadanu/Desktop/qemu/optee_os/lib/libmpa/mpa_init.c:46
    7024:	b900041f 	str	wzr, [x0,#4]
/home/lagadanu/Desktop/qemu/optee_os/lib/libmpa/mpa_init.c:47
    7028:	a8c37bfd 	ldp	x29, x30, [sp],#48
    702c:	d65f03c0 	ret

0000000000007030 <__mpa_word_to_hexstr>:
__mpa_word_to_hexstr():
/home/lagadanu/Desktop/qemu/optee_os/lib/libmpa/mpa_io.c:107
    7030:	d28000e4 	mov	x4, #0x7                   	// #7
/home/lagadanu/Desktop/qemu/optee_os/lib/libmpa/mpa_io.c:111 (discriminator 3)
    7034:	531e7483 	lsl	w3, w4, #2
    7038:	1ac32423 	lsr	w3, w1, w3
    703c:	12000c63 	and	w3, w3, #0xf
__mpa_nibble_to_char():
/home/lagadanu/Desktop/qemu/optee_os/lib/libmpa/mpa_io.c:96 (discriminator 3)
    7040:	7100247f 	cmp	w3, #0x9
    7044:	540000e8 	b.hi	7060 <__mpa_word_to_hexstr+0x30>
/home/lagadanu/Desktop/qemu/optee_os/lib/libmpa/mpa_io.c:97
    7048:	1100c063 	add	w3, w3, #0x30
__mpa_word_to_hexstr():
/home/lagadanu/Desktop/qemu/optee_os/lib/libmpa/mpa_io.c:110
    704c:	38246803 	strb	w3, [x0,x4]
    7050:	d1000484 	sub	x4, x4, #0x1
/home/lagadanu/Desktop/qemu/optee_os/lib/libmpa/mpa_io.c:109
    7054:	b100049f 	cmn	x4, #0x1
    7058:	54fffee1 	b.ne	7034 <__mpa_word_to_hexstr+0x4>
/home/lagadanu/Desktop/qemu/optee_os/lib/libmpa/mpa_io.c:113
    705c:	d65f03c0 	ret
__mpa_nibble_to_char():
/home/lagadanu/Desktop/qemu/optee_os/lib/libmpa/mpa_io.c:98
    7060:	1100dc65 	add	w5, w3, #0x37
    7064:	7100005f 	cmp	w2, #0x0
    7068:	11015c63 	add	w3, w3, #0x57
    706c:	1a851063 	csel	w3, w3, w5, ne
    7070:	17fffff7 	b	704c <__mpa_word_to_hexstr+0x1c>

0000000000007074 <__mpa_mpanum_to_hexstr>:
__mpa_mpanum_to_hexstr():
/home/lagadanu/Desktop/qemu/optee_os/lib/libmpa/mpa_io.c:129
    7074:	b9400447 	ldr	w7, [x2,#4]
/home/lagadanu/Desktop/qemu/optee_os/lib/libmpa/mpa_io.c:130
    7078:	710000ff 	cmp	w7, #0x0
    707c:	540000c1 	b.ne	7094 <__mpa_mpanum_to_hexstr+0x20>
/home/lagadanu/Desktop/qemu/optee_os/lib/libmpa/mpa_io.c:131
    7080:	52800601 	mov	w1, #0x30                  	// #48
/home/lagadanu/Desktop/qemu/optee_os/lib/libmpa/mpa_io.c:132
    7084:	3900041f 	strb	wzr, [x0,#1]
/home/lagadanu/Desktop/qemu/optee_os/lib/libmpa/mpa_io.c:131
    7088:	39000001 	strb	w1, [x0]
/home/lagadanu/Desktop/qemu/optee_os/lib/libmpa/mpa_io.c:133
    708c:	52800020 	mov	w0, #0x1                   	// #1
    7090:	d65f03c0 	ret
/home/lagadanu/Desktop/qemu/optee_os/lib/libmpa/mpa_io.c:121
    7094:	a9bb7bfd 	stp	x29, x30, [sp,#-80]!
    7098:	910003fd 	mov	x29, sp
    709c:	a9025bf5 	stp	x21, x22, [sp,#32]
/home/lagadanu/Desktop/qemu/optee_os/lib/libmpa/mpa_io.c:129
    70a0:	5a87a4f6 	cneg	w22, w7, lt
    70a4:	aa0003f5 	mov	x21, x0
/home/lagadanu/Desktop/qemu/optee_os/lib/libmpa/mpa_io.c:135
    70a8:	510006c0 	sub	w0, w22, #0x1
/home/lagadanu/Desktop/qemu/optee_os/lib/libmpa/mpa_io.c:141
    70ac:	8b20c840 	add	x0, x2, w0, sxtw #2
/home/lagadanu/Desktop/qemu/optee_os/lib/libmpa/mpa_io.c:121
    70b0:	a90363f7 	stp	x23, x24, [sp,#48]
    70b4:	aa0203f8 	mov	x24, x2
    70b8:	2a0103f7 	mov	w23, w1
/home/lagadanu/Desktop/qemu/optee_os/lib/libmpa/mpa_io.c:141
    70bc:	2a0103e2 	mov	w2, w1
/home/lagadanu/Desktop/qemu/optee_os/lib/libmpa/mpa_io.c:121
    70c0:	a90153f3 	stp	x19, x20, [sp,#16]
/home/lagadanu/Desktop/qemu/optee_os/lib/libmpa/mpa_io.c:141
    70c4:	b9400801 	ldr	w1, [x0,#8]
    70c8:	910123b4 	add	x20, x29, #0x48
    70cc:	aa1403e0 	mov	x0, x20
    70d0:	97ffffd8 	bl	7030 <__mpa_word_to_hexstr>
/home/lagadanu/Desktop/qemu/optee_os/lib/libmpa/mpa_io.c:145
    70d4:	d28000e6 	mov	x6, #0x7                   	// #7
    70d8:	93407cc0 	sxtw	x0, w6
    70dc:	b10004df 	cmn	x6, #0x1
    70e0:	54000181 	b.ne	7110 <__mpa_mpanum_to_hexstr+0x9c>
    70e4:	aa1503f3 	mov	x19, x21
/home/lagadanu/Desktop/qemu/optee_os/lib/libmpa/mpa_io.c:152
    70e8:	51000ac7 	sub	w7, w22, #0x2
    70ec:	93407cf6 	sxtw	x22, w7
/home/lagadanu/Desktop/qemu/optee_os/lib/libmpa/mpa_io.c:153
    70f0:	36f802f6 	tbz	w22, #31, 714c <__mpa_mpanum_to_hexstr+0xd8>
/home/lagadanu/Desktop/qemu/optee_os/lib/libmpa/mpa_io.c:161
    70f4:	3900027f 	strb	wzr, [x19]
/home/lagadanu/Desktop/qemu/optee_os/lib/libmpa/mpa_io.c:160
    70f8:	4b150260 	sub	w0, w19, w21
/home/lagadanu/Desktop/qemu/optee_os/lib/libmpa/mpa_io.c:163
    70fc:	a94153f3 	ldp	x19, x20, [sp,#16]
    7100:	a9425bf5 	ldp	x21, x22, [sp,#32]
    7104:	a94363f7 	ldp	x23, x24, [sp,#48]
    7108:	a8c57bfd 	ldp	x29, x30, [sp],#80
    710c:	d65f03c0 	ret
/home/lagadanu/Desktop/qemu/optee_os/lib/libmpa/mpa_io.c:146
    7110:	38666a82 	ldrb	w2, [x20,x6]
    7114:	d10004c1 	sub	x1, x6, #0x1
    7118:	7100c05f 	cmp	w2, #0x30
    711c:	540000c0 	b.eq	7134 <__mpa_mpanum_to_hexstr+0xc0>
    7120:	aa1503e1 	mov	x1, x21
/home/lagadanu/Desktop/qemu/optee_os/lib/libmpa/mpa_io.c:148
    7124:	36f800c0 	tbz	w0, #31, 713c <__mpa_mpanum_to_hexstr+0xc8>
    7128:	110004c6 	add	w6, w6, #0x1
    712c:	8b0602b3 	add	x19, x21, x6
    7130:	17ffffee 	b	70e8 <__mpa_mpanum_to_hexstr+0x74>
    7134:	aa0103e6 	mov	x6, x1
    7138:	17ffffe8 	b	70d8 <__mpa_mpanum_to_hexstr+0x64>
/home/lagadanu/Desktop/qemu/optee_os/lib/libmpa/mpa_io.c:149
    713c:	38606a82 	ldrb	w2, [x20,x0]
    7140:	d1000400 	sub	x0, x0, #0x1
    7144:	38001422 	strb	w2, [x1],#1
    7148:	17fffff7 	b	7124 <__mpa_mpanum_to_hexstr+0xb0>
/home/lagadanu/Desktop/qemu/optee_os/lib/libmpa/mpa_io.c:154
    714c:	8b160b00 	add	x0, x24, x22, lsl #2
    7150:	2a1703e2 	mov	w2, w23
    7154:	b9400801 	ldr	w1, [x0,#8]
    7158:	aa1403e0 	mov	x0, x20
    715c:	97ffffb5 	bl	7030 <__mpa_word_to_hexstr>
    7160:	d28000e0 	mov	x0, #0x7                   	// #7
/home/lagadanu/Desktop/qemu/optee_os/lib/libmpa/mpa_io.c:157
    7164:	cb000261 	sub	x1, x19, x0
    7168:	38606a82 	ldrb	w2, [x20,x0]
    716c:	d1000400 	sub	x0, x0, #0x1
/home/lagadanu/Desktop/qemu/optee_os/lib/libmpa/mpa_io.c:156
    7170:	b100041f 	cmn	x0, #0x1
/home/lagadanu/Desktop/qemu/optee_os/lib/libmpa/mpa_io.c:157
    7174:	39001c22 	strb	w2, [x1,#7]
/home/lagadanu/Desktop/qemu/optee_os/lib/libmpa/mpa_io.c:156
    7178:	54ffff61 	b.ne	7164 <__mpa_mpanum_to_hexstr+0xf0>
    717c:	91002273 	add	x19, x19, #0x8
    7180:	d10006d6 	sub	x22, x22, #0x1
    7184:	17ffffdb 	b	70f0 <__mpa_mpanum_to_hexstr+0x7c>

0000000000007188 <__mpa_isspace>:
__mpa_isspace():
/home/lagadanu/Desktop/qemu/optee_os/lib/libmpa/mpa_io.c:27
    7188:	12001c02 	and	w2, w0, #0xff
/home/lagadanu/Desktop/qemu/optee_os/lib/libmpa/mpa_io.c:28
    718c:	71017c5f 	cmp	w2, #0x5f
    7190:	1a9f17e1 	cset	w1, eq
/home/lagadanu/Desktop/qemu/optee_os/lib/libmpa/mpa_io.c:30
    7194:	7100805f 	cmp	w2, #0x20
    7198:	1a9f17e0 	cset	w0, eq
/home/lagadanu/Desktop/qemu/optee_os/lib/libmpa/mpa_io.c:28
    719c:	2a000020 	orr	w0, w1, w0
/home/lagadanu/Desktop/qemu/optee_os/lib/libmpa/mpa_io.c:32
    71a0:	35000100 	cbnz	w0, 71c0 <__mpa_isspace+0x38>
    71a4:	51002440 	sub	w0, w2, #0x9
    71a8:	12001c00 	and	w0, w0, #0xff
    71ac:	7100041f 	cmp	w0, #0x1
    71b0:	1a9f87e1 	cset	w1, ls
    71b4:	7100345f 	cmp	w2, #0xd
    71b8:	1a9f17e0 	cset	w0, eq
    71bc:	2a000020 	orr	w0, w1, w0
/home/lagadanu/Desktop/qemu/optee_os/lib/libmpa/mpa_io.c:34 (discriminator 5)
    71c0:	d65f03c0 	ret

00000000000071c4 <mpa_get_str_size>:
mpa_get_str_size():
/home/lagadanu/Desktop/qemu/optee_os/lib/libmpa/mpa_io.c:215
    71c4:	52820040 	mov	w0, #0x1002                	// #4098
    71c8:	d65f03c0 	ret

00000000000071cc <mpa_set_str>:
mpa_set_str():
/home/lagadanu/Desktop/qemu/optee_os/lib/libmpa/mpa_io.c:239
    71cc:	a9bc7bfd 	stp	x29, x30, [sp,#-64]!
    71d0:	910003fd 	mov	x29, sp
    71d4:	a90153f3 	stp	x19, x20, [sp,#16]
    71d8:	aa0003f4 	mov	x20, x0
    71dc:	a90363f7 	stp	x23, x24, [sp,#48]
    71e0:	aa0103f8 	mov	x24, x1
    71e4:	a9025bf5 	stp	x21, x22, [sp,#32]
/home/lagadanu/Desktop/qemu/optee_os/lib/libmpa/mpa_io.c:258
    71e8:	39400020 	ldrb	w0, [x1]
    71ec:	35000080 	cbnz	w0, 71fc <mpa_set_str+0x30>
/home/lagadanu/Desktop/qemu/optee_os/lib/libmpa/mpa_io.c:259
    71f0:	52800013 	mov	w19, #0x0                   	// #0
    71f4:	14000013 	b	7240 <mpa_set_str+0x74>
    71f8:	aa1703f8 	mov	x24, x23
/home/lagadanu/Desktop/qemu/optee_os/lib/libmpa/mpa_io.c:263 (discriminator 1)
    71fc:	aa1803f7 	mov	x23, x24
    7200:	384016f5 	ldrb	w21, [x23],#1
/home/lagadanu/Desktop/qemu/optee_os/lib/libmpa/mpa_io.c:264 (discriminator 1)
    7204:	2a1503e0 	mov	w0, w21
    7208:	97ffffe0 	bl	7188 <__mpa_isspace>
    720c:	2a0003f3 	mov	w19, w0
    7210:	35ffff40 	cbnz	w0, 71f8 <mpa_set_str+0x2c>
/home/lagadanu/Desktop/qemu/optee_os/lib/libmpa/mpa_io.c:263
    7214:	2a1503f6 	mov	w22, w21
/home/lagadanu/Desktop/qemu/optee_os/lib/libmpa/mpa_io.c:267
    7218:	52800015 	mov	w21, #0x0                   	// #0
/home/lagadanu/Desktop/qemu/optee_os/lib/libmpa/mpa_io.c:268
    721c:	7100b6df 	cmp	w22, #0x2d
    7220:	54000081 	b.ne	7230 <mpa_set_str+0x64>
/home/lagadanu/Desktop/qemu/optee_os/lib/libmpa/mpa_io.c:270
    7224:	394002f6 	ldrb	w22, [x23]
    7228:	91000b17 	add	x23, x24, #0x2
/home/lagadanu/Desktop/qemu/optee_os/lib/libmpa/mpa_io.c:269
    722c:	52800035 	mov	w21, #0x1                   	// #1
/home/lagadanu/Desktop/qemu/optee_os/lib/libmpa/mpa_io.c:272
    7230:	35000156 	cbnz	w22, 7258 <mpa_set_str+0x8c>
/home/lagadanu/Desktop/qemu/optee_os/lib/libmpa/mpa_io.c:273
    7234:	52800001 	mov	w1, #0x0                   	// #0
    7238:	aa1403e0 	mov	x0, x20
    723c:	97fff586 	bl	4854 <mpa_set_word>
/home/lagadanu/Desktop/qemu/optee_os/lib/libmpa/mpa_io.c:360
    7240:	2a1303e0 	mov	w0, w19
    7244:	a94153f3 	ldp	x19, x20, [sp,#16]
    7248:	a9425bf5 	ldp	x21, x22, [sp,#32]
    724c:	a94363f7 	ldp	x23, x24, [sp,#48]
    7250:	a8c47bfd 	ldp	x29, x30, [sp],#64
    7254:	d65f03c0 	ret
/home/lagadanu/Desktop/qemu/optee_os/lib/libmpa/mpa_io.c:278
    7258:	7100c2df 	cmp	w22, #0x30
    725c:	540000e1 	b.ne	7278 <mpa_set_str+0xac>
/home/lagadanu/Desktop/qemu/optee_os/lib/libmpa/mpa_io.c:279
    7260:	394002e3 	ldrb	w3, [x23]
/home/lagadanu/Desktop/qemu/optee_os/lib/libmpa/mpa_io.c:280
    7264:	121a7860 	and	w0, w3, #0xffffffdf
    7268:	7101601f 	cmp	w0, #0x58
    726c:	54000540 	b.eq	7314 <mpa_set_str+0x148>
/home/lagadanu/Desktop/qemu/optee_os/lib/libmpa/mpa_io.c:279
    7270:	910006f7 	add	x23, x23, #0x1
    7274:	2a0303f6 	mov	w22, w3
/home/lagadanu/Desktop/qemu/optee_os/lib/libmpa/mpa_io.c:285
    7278:	7100c2df 	cmp	w22, #0x30
    727c:	54000520 	b.eq	7320 <mpa_set_str+0x154>
/home/lagadanu/Desktop/qemu/optee_os/lib/libmpa/mpa_io.c:285 (discriminator 1)
    7280:	2a1603e0 	mov	w0, w22
    7284:	97ffffc1 	bl	7188 <__mpa_isspace>
    7288:	350004c0 	cbnz	w0, 7320 <mpa_set_str+0x154>
    728c:	aa1703e5 	mov	x5, x23
/home/lagadanu/Desktop/qemu/optee_os/lib/libmpa/mpa_io.c:289
    7290:	34fffd36 	cbz	w22, 7234 <mpa_set_str+0x68>
/home/lagadanu/Desktop/qemu/optee_os/lib/libmpa/mpa_io.c:296
    7294:	394000a0 	ldrb	w0, [x5]
    7298:	35000480 	cbnz	w0, 7328 <mpa_set_str+0x15c>
/home/lagadanu/Desktop/qemu/optee_os/lib/libmpa/mpa_io.c:300
    729c:	cb1700a5 	sub	x5, x5, x23
/home/lagadanu/Desktop/qemu/optee_os/lib/libmpa/mpa_io.c:301
    72a0:	52820046 	mov	w6, #0x1002                	// #4098
/home/lagadanu/Desktop/qemu/optee_os/lib/libmpa/mpa_io.c:300
    72a4:	110004a5 	add	w5, w5, #0x1
/home/lagadanu/Desktop/qemu/optee_os/lib/libmpa/mpa_io.c:301
    72a8:	6b0600bf 	cmp	w5, w6
    72ac:	5400042c 	b.gt	7330 <mpa_set_str+0x164>
/home/lagadanu/Desktop/qemu/optee_os/lib/libmpa/mpa_io.c:311
    72b0:	90000065 	adrp	x5, 13000 <mempool_u32+0xde8>
    72b4:	912ee0b8 	add	x24, x5, #0xbb8
/home/lagadanu/Desktop/qemu/optee_os/lib/libmpa/mpa_io.c:301
    72b8:	52800013 	mov	w19, #0x0                   	// #0
__mpa_is_char_in_base():
/home/lagadanu/Desktop/qemu/optee_os/lib/libmpa/mpa_io.c:44
    72bc:	2a1603e0 	mov	w0, w22
    72c0:	97ffffb2 	bl	7188 <__mpa_isspace>
    72c4:	350005c0 	cbnz	w0, 737c <mpa_set_str+0x1b0>
/home/lagadanu/Desktop/qemu/optee_os/lib/libmpa/mpa_io.c:52
    72c8:	121a7ac1 	and	w1, w22, #0xffffffdf
/home/lagadanu/Desktop/qemu/optee_os/lib/libmpa/mpa_io.c:51
    72cc:	5100c2c0 	sub	w0, w22, #0x30
/home/lagadanu/Desktop/qemu/optee_os/lib/libmpa/mpa_io.c:52
    72d0:	51010421 	sub	w1, w1, #0x41
    72d4:	7100143f 	cmp	w1, #0x5
    72d8:	7a498800 	ccmp	w0, #0x9, #0x0, hi
    72dc:	540003e9 	b.ls	7358 <mpa_set_str+0x18c>
mpa_set_str():
/home/lagadanu/Desktop/qemu/optee_os/lib/libmpa/mpa_io.c:315
    72e0:	34000393 	cbz	w19, 7350 <mpa_set_str+0x184>
__mpa_digitstr_to_binary_wsize_base_16():
/home/lagadanu/Desktop/qemu/optee_os/lib/libmpa/mpa_io.c:85
    72e4:	11001e65 	add	w5, w19, #0x7
mpa_set_str():
/home/lagadanu/Desktop/qemu/optee_os/lib/libmpa/mpa_io.c:320
    72e8:	b9400286 	ldr	w6, [x20]
__mpa_digitstr_to_binary_wsize_base_16():
/home/lagadanu/Desktop/qemu/optee_os/lib/libmpa/mpa_io.c:85
    72ec:	13037ca0 	asr	w0, w5, #3
mpa_set_str():
/home/lagadanu/Desktop/qemu/optee_os/lib/libmpa/mpa_io.c:319
    72f0:	6b06001f 	cmp	w0, w6
    72f4:	54000529 	b.ls	7398 <mpa_set_str+0x1cc>
/home/lagadanu/Desktop/qemu/optee_os/lib/libmpa/mpa_io.c:321
    72f8:	d0000004 	adrp	x4, 9000 <__func__.3181+0x410>
    72fc:	2a0003e5 	mov	w5, w0
    7300:	91072084 	add	x4, x4, #0x1c8
    7304:	52800023 	mov	w3, #0x1                   	// #1
    7308:	52800022 	mov	w2, #0x1                   	// #1
    730c:	52802861 	mov	w1, #0x143                 	// #323
    7310:	1400000d 	b	7344 <mpa_set_str+0x178>
/home/lagadanu/Desktop/qemu/optee_os/lib/libmpa/mpa_io.c:281
    7314:	394006f6 	ldrb	w22, [x23,#1]
    7318:	91000af7 	add	x23, x23, #0x2
    731c:	17ffffd7 	b	7278 <mpa_set_str+0xac>
/home/lagadanu/Desktop/qemu/optee_os/lib/libmpa/mpa_io.c:286
    7320:	384016f6 	ldrb	w22, [x23],#1
    7324:	17ffffd5 	b	7278 <mpa_set_str+0xac>
/home/lagadanu/Desktop/qemu/optee_os/lib/libmpa/mpa_io.c:297
    7328:	910004a5 	add	x5, x5, #0x1
    732c:	17ffffda 	b	7294 <mpa_set_str+0xc8>
/home/lagadanu/Desktop/qemu/optee_os/lib/libmpa/mpa_io.c:302
    7330:	d0000004 	adrp	x4, 9000 <__func__.3181+0x410>
    7334:	9106a884 	add	x4, x4, #0x1aa
    7338:	52800023 	mov	w3, #0x1                   	// #1
    733c:	52800022 	mov	w2, #0x1                   	// #1
    7340:	528025c1 	mov	w1, #0x12e                 	// #302
/home/lagadanu/Desktop/qemu/optee_os/lib/libmpa/mpa_io.c:321
    7344:	b0000000 	adrp	x0, 8000 <PRIME_TABLE+0x168>
    7348:	912f4000 	add	x0, x0, #0xbd0
    734c:	97ffe886 	bl	1564 <trace_printf>
/home/lagadanu/Desktop/qemu/optee_os/lib/libmpa/mpa_io.c:324
    7350:	12800013 	mov	w19, #0xffffffff            	// #-1
/home/lagadanu/Desktop/qemu/optee_os/lib/libmpa/mpa_io.c:325
    7354:	17ffffbb 	b	7240 <mpa_set_str+0x74>
/home/lagadanu/Desktop/qemu/optee_os/lib/libmpa/mpa_io.c:311
    7358:	11000661 	add	w1, w19, #0x1
__mpa_digit_value():
/home/lagadanu/Desktop/qemu/optee_os/lib/libmpa/mpa_io.c:66
    735c:	7100241f 	cmp	w0, #0x9
    7360:	540000a9 	b.ls	7374 <mpa_set_str+0x1a8>
/home/lagadanu/Desktop/qemu/optee_os/lib/libmpa/mpa_io.c:68
    7364:	510106c0 	sub	w0, w22, #0x41
    7368:	7100141f 	cmp	w0, #0x5
    736c:	540000c8 	b.hi	7384 <mpa_set_str+0x1b8>
/home/lagadanu/Desktop/qemu/optee_os/lib/libmpa/mpa_io.c:69
    7370:	5100dec0 	sub	w0, w22, #0x37
mpa_set_str():
/home/lagadanu/Desktop/qemu/optee_os/lib/libmpa/mpa_io.c:311
    7374:	3833cb00 	strb	w0, [x24,w19,sxtw]
    7378:	2a0103f3 	mov	w19, w1
/home/lagadanu/Desktop/qemu/optee_os/lib/libmpa/mpa_io.c:312
    737c:	384016f6 	ldrb	w22, [x23],#1
    7380:	17ffffcf 	b	72bc <mpa_set_str+0xf0>
__mpa_digit_value():
/home/lagadanu/Desktop/qemu/optee_os/lib/libmpa/mpa_io.c:70
    7384:	510186c0 	sub	w0, w22, #0x61
/home/lagadanu/Desktop/qemu/optee_os/lib/libmpa/mpa_io.c:71
    7388:	51015ec3 	sub	w3, w22, #0x57
    738c:	7100141f 	cmp	w0, #0x5
    7390:	1a9f9060 	csel	w0, w3, wzr, ls
    7394:	17fffff8 	b	7374 <mpa_set_str+0x1a8>
mpa_set_str():
/home/lagadanu/Desktop/qemu/optee_os/lib/libmpa/mpa_io.c:330
    7398:	aa1403e0 	mov	x0, x20
    739c:	52800001 	mov	w1, #0x0                   	// #0
    73a0:	97fff52d 	bl	4854 <mpa_set_word>
/home/lagadanu/Desktop/qemu/optee_os/lib/libmpa/mpa_io.c:329
    73a4:	91002296 	add	x22, x20, #0x8
/home/lagadanu/Desktop/qemu/optee_os/lib/libmpa/mpa_io.c:334
    73a8:	52800020 	mov	w0, #0x1                   	// #1
/home/lagadanu/Desktop/qemu/optee_os/lib/libmpa/mpa_io.c:335
    73ac:	51000666 	sub	w6, w19, #0x1
    73b0:	90000064 	adrp	x4, 13000 <mempool_u32+0xde8>
/home/lagadanu/Desktop/qemu/optee_os/lib/libmpa/mpa_io.c:332
    73b4:	2900fe80 	stp	w0, wzr, [x20,#4]
    73b8:	93407cc3 	sxtw	x3, w6
/home/lagadanu/Desktop/qemu/optee_os/lib/libmpa/mpa_io.c:333
    73bc:	52800080 	mov	w0, #0x4                   	// #4
/home/lagadanu/Desktop/qemu/optee_os/lib/libmpa/mpa_io.c:337
    73c0:	912ee087 	add	x7, x4, #0xbb8
/home/lagadanu/Desktop/qemu/optee_os/lib/libmpa/mpa_io.c:338
    73c4:	2a0003e8 	mov	w8, w0
/home/lagadanu/Desktop/qemu/optee_os/lib/libmpa/mpa_io.c:336
    73c8:	7100047f 	cmp	w3, #0x1
    73cc:	b94002c2 	ldr	w2, [x22]
    73d0:	5400024c 	b.gt	7418 <mpa_set_str+0x24c>
/home/lagadanu/Desktop/qemu/optee_os/lib/libmpa/mpa_io.c:352
    73d4:	396ee081 	ldrb	w1, [x4,#3000]
/home/lagadanu/Desktop/qemu/optee_os/lib/libmpa/mpa_io.c:348
    73d8:	360000a6 	tbz	w6, #0, 73ec <mpa_set_str+0x220>
/home/lagadanu/Desktop/qemu/optee_os/lib/libmpa/mpa_io.c:349
    73dc:	912ee083 	add	x3, x4, #0xbb8
    73e0:	396ee081 	ldrb	w1, [x4,#3000]
    73e4:	39400463 	ldrb	w3, [x3,#1]
    73e8:	4a011061 	eor	w1, w3, w1, lsl #4
/home/lagadanu/Desktop/qemu/optee_os/lib/libmpa/mpa_io.c:350
    73ec:	52800083 	mov	w3, #0x4                   	// #4
    73f0:	4b000060 	sub	w0, w3, w0
    73f4:	531d7000 	lsl	w0, w0, #3
/home/lagadanu/Desktop/qemu/optee_os/lib/libmpa/mpa_io.c:349
    73f8:	1ac02020 	lsl	w0, w1, w0
    73fc:	4a000040 	eor	w0, w2, w0
    7400:	b90002c0 	str	w0, [x22]
/home/lagadanu/Desktop/qemu/optee_os/lib/libmpa/mpa_io.c:355
    7404:	34fff1f5 	cbz	w21, 7240 <mpa_set_str+0x74>
/home/lagadanu/Desktop/qemu/optee_os/lib/libmpa/mpa_io.c:356
    7408:	b9400680 	ldr	w0, [x20,#4]
    740c:	4b0003e0 	neg	w0, w0
    7410:	b9000680 	str	w0, [x20,#4]
    7414:	17ffff8b 	b	7240 <mpa_set_str+0x74>
/home/lagadanu/Desktop/qemu/optee_os/lib/libmpa/mpa_io.c:337
    7418:	8b0300e1 	add	x1, x7, x3
    741c:	38676865 	ldrb	w5, [x3,x7]
    7420:	385ff021 	ldurb	w1, [x1,#-1]
    7424:	4a0110a1 	eor	w1, w5, w1, lsl #4
/home/lagadanu/Desktop/qemu/optee_os/lib/libmpa/mpa_io.c:338
    7428:	4b000105 	sub	w5, w8, w0
    742c:	531d70a5 	lsl	w5, w5, #3
/home/lagadanu/Desktop/qemu/optee_os/lib/libmpa/mpa_io.c:341
    7430:	71000400 	subs	w0, w0, #0x1
/home/lagadanu/Desktop/qemu/optee_os/lib/libmpa/mpa_io.c:337
    7434:	1ac52021 	lsl	w1, w1, w5
    7438:	4a010041 	eor	w1, w2, w1
    743c:	b90002c1 	str	w1, [x22]
/home/lagadanu/Desktop/qemu/optee_os/lib/libmpa/mpa_io.c:341
    7440:	540000e1 	b.ne	745c <mpa_set_str+0x290>
/home/lagadanu/Desktop/qemu/optee_os/lib/libmpa/mpa_io.c:343
    7444:	b90006df 	str	wzr, [x22,#4]
/home/lagadanu/Desktop/qemu/optee_os/lib/libmpa/mpa_io.c:342
    7448:	910012d6 	add	x22, x22, #0x4
/home/lagadanu/Desktop/qemu/optee_os/lib/libmpa/mpa_io.c:345
    744c:	b9400680 	ldr	w0, [x20,#4]
    7450:	11000400 	add	w0, w0, #0x1
    7454:	b9000680 	str	w0, [x20,#4]
/home/lagadanu/Desktop/qemu/optee_os/lib/libmpa/mpa_io.c:344
    7458:	52800080 	mov	w0, #0x4                   	// #4
    745c:	d1000863 	sub	x3, x3, #0x2
    7460:	17ffffda 	b	73c8 <mpa_set_str+0x1fc>

0000000000007464 <mpa_get_str>:
mpa_get_str():
/home/lagadanu/Desktop/qemu/optee_os/lib/libmpa/mpa_io.c:376
    7464:	a9be7bfd 	stp	x29, x30, [sp,#-32]!
    7468:	910003fd 	mov	x29, sp
    746c:	f9000bf3 	str	x19, [sp,#16]
/home/lagadanu/Desktop/qemu/optee_os/lib/libmpa/mpa_io.c:379
    7470:	b5000160 	cbnz	x0, 749c <mpa_get_str+0x38>
/home/lagadanu/Desktop/qemu/optee_os/lib/libmpa/mpa_io.c:379 (discriminator 1)
    7474:	b0000003 	adrp	x3, 8000 <PRIME_TABLE+0x168>
    7478:	912f4063 	add	x3, x3, #0xbd0
    747c:	91004063 	add	x3, x3, #0x10
    7480:	d0000001 	adrp	x1, 9000 <__func__.3181+0x410>
    7484:	d0000000 	adrp	x0, 9000 <__func__.3181+0x410>
    7488:	9107c421 	add	x1, x1, #0x1f1
    748c:	91081400 	add	x0, x0, #0x205
    7490:	52802f62 	mov	w2, #0x17b                 	// #379
    7494:	97ffec51 	bl	25d8 <_assert_log>
    7498:	97ffec61 	bl	261c <_assert_break>
/home/lagadanu/Desktop/qemu/optee_os/lib/libmpa/mpa_io.c:382
    749c:	b9400443 	ldr	w3, [x2,#4]
    74a0:	aa0003f3 	mov	x19, x0
    74a4:	36f80063 	tbz	w3, #31, 74b0 <mpa_get_str+0x4c>
/home/lagadanu/Desktop/qemu/optee_os/lib/libmpa/mpa_io.c:383
    74a8:	528005a3 	mov	w3, #0x2d                  	// #45
    74ac:	38001403 	strb	w3, [x0],#1
/home/lagadanu/Desktop/qemu/optee_os/lib/libmpa/mpa_io.c:386
    74b0:	7100403f 	cmp	w1, #0x10
    74b4:	540000a0 	b.eq	74c8 <mpa_get_str+0x64>
    74b8:	7100443f 	cmp	w1, #0x11
    74bc:	54000120 	b.eq	74e0 <mpa_get_str+0x7c>
/home/lagadanu/Desktop/qemu/optee_os/lib/libmpa/mpa_io.c:394
    74c0:	d2800013 	mov	x19, #0x0                   	// #0
    74c4:	14000003 	b	74d0 <mpa_get_str+0x6c>
/home/lagadanu/Desktop/qemu/optee_os/lib/libmpa/mpa_io.c:388
    74c8:	52800001 	mov	w1, #0x0                   	// #0
/home/lagadanu/Desktop/qemu/optee_os/lib/libmpa/mpa_io.c:391
    74cc:	97fffeea 	bl	7074 <__mpa_mpanum_to_hexstr>
/home/lagadanu/Desktop/qemu/optee_os/lib/libmpa/mpa_io.c:398
    74d0:	aa1303e0 	mov	x0, x19
    74d4:	f9400bf3 	ldr	x19, [sp,#16]
    74d8:	a8c27bfd 	ldp	x29, x30, [sp],#32
    74dc:	d65f03c0 	ret
/home/lagadanu/Desktop/qemu/optee_os/lib/libmpa/mpa_io.c:391
    74e0:	52800021 	mov	w1, #0x1                   	// #1
    74e4:	17fffffa 	b	74cc <mpa_get_str+0x68>

00000000000074e8 <mpa_set_oct_str>:
mpa_set_oct_str():
/home/lagadanu/Desktop/qemu/optee_os/lib/libmpa/mpa_io.c:415
    74e8:	a9bc7bfd 	stp	x29, x30, [sp,#-64]!
    74ec:	910003fd 	mov	x29, sp
    74f0:	a90153f3 	stp	x19, x20, [sp,#16]
    74f4:	aa0003f4 	mov	x20, x0
    74f8:	a9025bf5 	stp	x21, x22, [sp,#32]
/home/lagadanu/Desktop/qemu/optee_os/lib/libmpa/mpa_io.c:417
    74fc:	2a0203f3 	mov	w19, w2
/home/lagadanu/Desktop/qemu/optee_os/lib/libmpa/mpa_io.c:415
    7500:	f9001bf7 	str	x23, [sp,#48]
    7504:	aa0103f5 	mov	x21, x1
    7508:	12001c77 	and	w23, w3, #0xff
/home/lagadanu/Desktop/qemu/optee_os/lib/libmpa/mpa_io.c:421
    750c:	7100027f 	cmp	w19, #0x0
    7510:	5400016c 	b.gt	753c <mpa_set_oct_str+0x54>
/home/lagadanu/Desktop/qemu/optee_os/lib/libmpa/mpa_io.c:428
    7514:	540001e1 	b.ne	7550 <mpa_set_oct_str+0x68>
/home/lagadanu/Desktop/qemu/optee_os/lib/libmpa/mpa_io.c:429
    7518:	52800001 	mov	w1, #0x0                   	// #0
    751c:	aa1403e0 	mov	x0, x20
    7520:	97fff4cd 	bl	4854 <mpa_set_word>
/home/lagadanu/Desktop/qemu/optee_os/lib/libmpa/mpa_io.c:458
    7524:	2a1303e0 	mov	w0, w19
    7528:	f9401bf7 	ldr	x23, [sp,#48]
    752c:	a94153f3 	ldp	x19, x20, [sp,#16]
    7530:	a9425bf5 	ldp	x21, x22, [sp,#32]
    7534:	a8c47bfd 	ldp	x29, x30, [sp],#64
    7538:	d65f03c0 	ret
/home/lagadanu/Desktop/qemu/optee_os/lib/libmpa/mpa_io.c:422
    753c:	394002a0 	ldrb	w0, [x21]
    7540:	35000080 	cbnz	w0, 7550 <mpa_set_oct_str+0x68>
/home/lagadanu/Desktop/qemu/optee_os/lib/libmpa/mpa_io.c:424
    7544:	51000673 	sub	w19, w19, #0x1
/home/lagadanu/Desktop/qemu/optee_os/lib/libmpa/mpa_io.c:425
    7548:	910006b5 	add	x21, x21, #0x1
    754c:	17fffff0 	b	750c <mpa_set_oct_str+0x24>
/home/lagadanu/Desktop/qemu/optee_os/lib/libmpa/mpa_io.c:438
    7550:	b9400280 	ldr	w0, [x20]
    7554:	51000661 	sub	w1, w19, #0x1
    7558:	d37e7400 	ubfiz	x0, x0, #2, #30
    755c:	eb21c01f 	cmp	x0, w1, sxtw
    7560:	54000483 	b.cc	75f0 <mpa_set_oct_str+0x108>
/home/lagadanu/Desktop/qemu/optee_os/lib/libmpa/mpa_io.c:442
    7564:	52800001 	mov	w1, #0x0                   	// #0
    7568:	aa1403e0 	mov	x0, x20
/home/lagadanu/Desktop/qemu/optee_os/lib/libmpa/mpa_io.c:441
    756c:	91002296 	add	x22, x20, #0x8
/home/lagadanu/Desktop/qemu/optee_os/lib/libmpa/mpa_io.c:442
    7570:	97fff4b9 	bl	4854 <mpa_set_word>
/home/lagadanu/Desktop/qemu/optee_os/lib/libmpa/mpa_io.c:446
    7574:	52800083 	mov	w3, #0x4                   	// #4
    7578:	12bc0005 	mov	w5, #0x1fffffff            	// #536870911
/home/lagadanu/Desktop/qemu/optee_os/lib/libmpa/mpa_io.c:444
    757c:	b900069f 	str	wzr, [x20,#4]
/home/lagadanu/Desktop/qemu/optee_os/lib/libmpa/mpa_io.c:445
    7580:	7100027f 	cmp	w19, #0x0
    7584:	540000ec 	b.gt	75a0 <mpa_set_oct_str+0xb8>
/home/lagadanu/Desktop/qemu/optee_os/lib/libmpa/mpa_io.c:457
    7588:	52800013 	mov	w19, #0x0                   	// #0
/home/lagadanu/Desktop/qemu/optee_os/lib/libmpa/mpa_io.c:454
    758c:	34fffcd7 	cbz	w23, 7524 <mpa_set_oct_str+0x3c>
/home/lagadanu/Desktop/qemu/optee_os/lib/libmpa/mpa_io.c:455
    7590:	b9400680 	ldr	w0, [x20,#4]
    7594:	4b0003e0 	neg	w0, w0
    7598:	b9000680 	str	w0, [x20,#4]
    759c:	17ffffe2 	b	7524 <mpa_set_oct_str+0x3c>
/home/lagadanu/Desktop/qemu/optee_os/lib/libmpa/mpa_io.c:446
    75a0:	7100127f 	cmp	w19, #0x4
    75a4:	110004a1 	add	w1, w5, #0x1
    75a8:	1a83d260 	csel	w0, w19, w3, le
    75ac:	531d7021 	lsl	w1, w1, #3
/home/lagadanu/Desktop/qemu/optee_os/lib/libmpa/mpa_io.c:448
    75b0:	4b000273 	sub	w19, w19, w0
    75b4:	51000400 	sub	w0, w0, #0x1
set_word():
/home/lagadanu/Desktop/qemu/optee_os/lib/libmpa/mpa_io.c:409
    75b8:	8b33c2a6 	add	x6, x21, w19, sxtw
/home/lagadanu/Desktop/qemu/optee_os/lib/libmpa/mpa_io.c:407
    75bc:	52800002 	mov	w2, #0x0                   	// #0
/home/lagadanu/Desktop/qemu/optee_os/lib/libmpa/mpa_io.c:409
    75c0:	386068c4 	ldrb	w4, [x6,x0]
    75c4:	d1000400 	sub	x0, x0, #0x1
/home/lagadanu/Desktop/qemu/optee_os/lib/libmpa/mpa_io.c:408
    75c8:	3100041f 	cmn	w0, #0x1
/home/lagadanu/Desktop/qemu/optee_os/lib/libmpa/mpa_io.c:409
    75cc:	1ac12084 	lsl	w4, w4, w1
    75d0:	11002021 	add	w1, w1, #0x8
    75d4:	2a040042 	orr	w2, w2, w4
/home/lagadanu/Desktop/qemu/optee_os/lib/libmpa/mpa_io.c:408
    75d8:	54ffff41 	b.ne	75c0 <mpa_set_oct_str+0xd8>
mpa_set_oct_str():
/home/lagadanu/Desktop/qemu/optee_os/lib/libmpa/mpa_io.c:449
    75dc:	b80046c2 	str	w2, [x22],#4
/home/lagadanu/Desktop/qemu/optee_os/lib/libmpa/mpa_io.c:451
    75e0:	b9400680 	ldr	w0, [x20,#4]
    75e4:	11000400 	add	w0, w0, #0x1
    75e8:	b9000680 	str	w0, [x20,#4]
    75ec:	17ffffe5 	b	7580 <mpa_set_oct_str+0x98>
/home/lagadanu/Desktop/qemu/optee_os/lib/libmpa/mpa_io.c:439
    75f0:	12800013 	mov	w19, #0xffffffff            	// #-1
    75f4:	17ffffcc 	b	7524 <mpa_set_oct_str+0x3c>

00000000000075f8 <mpa_get_oct_str>:
mpa_get_oct_str():
/home/lagadanu/Desktop/qemu/optee_os/lib/libmpa/mpa_io.c:471
    75f8:	a9bb7bfd 	stp	x29, x30, [sp,#-80]!
    75fc:	52800024 	mov	w4, #0x1                   	// #1
    7600:	910003fd 	mov	x29, sp
    7604:	a90153f3 	stp	x19, x20, [sp,#16]
__mpa_size_in_base_255():
/home/lagadanu/Desktop/qemu/optee_os/lib/libmpa/mpa_io.c:197
    7608:	b9400443 	ldr	w3, [x2,#4]
mpa_get_oct_str():
/home/lagadanu/Desktop/qemu/optee_os/lib/libmpa/mpa_io.c:471
    760c:	a9025bf5 	stp	x21, x22, [sp,#32]
    7610:	f9001bf7 	str	x23, [sp,#48]
__mpa_size_in_base_255():
/home/lagadanu/Desktop/qemu/optee_os/lib/libmpa/mpa_io.c:197
    7614:	7100007f 	cmp	w3, #0x0
    7618:	540001e0 	b.eq	7654 <mpa_get_oct_str+0x5c>
/home/lagadanu/Desktop/qemu/optee_os/lib/libmpa/mpa_io.c:201
    761c:	5a83a464 	cneg	w4, w3, lt
    7620:	51000485 	sub	w5, w4, #0x1
/home/lagadanu/Desktop/qemu/optee_os/lib/libmpa/mpa_io.c:200
    7624:	8b25c845 	add	x5, x2, w5, sxtw #2
    7628:	b94008a7 	ldr	w7, [x5,#8]
__mpa_count_leading_zero_bits():
/home/lagadanu/Desktop/qemu/optee_os/lib/libmpa/mpa_io.c:176
    762c:	52800405 	mov	w5, #0x20                  	// #32
/home/lagadanu/Desktop/qemu/optee_os/lib/libmpa/mpa_io.c:175
    7630:	340000a7 	cbz	w7, 7644 <mpa_get_oct_str+0x4c>
    7634:	52800005 	mov	w5, #0x0                   	// #0
    7638:	52b00006 	mov	w6, #0x80000000            	// #-2147483648
/home/lagadanu/Desktop/qemu/optee_os/lib/libmpa/mpa_io.c:179
    763c:	6a0600ff 	tst	w7, w6
    7640:	54000180 	b.eq	7670 <mpa_get_oct_str+0x78>
__mpa_size_in_base_255():
/home/lagadanu/Desktop/qemu/optee_os/lib/libmpa/mpa_io.c:202
    7644:	531b6893 	lsl	w19, w4, #5
/home/lagadanu/Desktop/qemu/optee_os/lib/libmpa/mpa_io.c:204
    7648:	11001e73 	add	w19, w19, #0x7
    764c:	4b050273 	sub	w19, w19, w5
    7650:	53037e64 	lsr	w4, w19, #3
mpa_get_oct_str():
/home/lagadanu/Desktop/qemu/optee_os/lib/libmpa/mpa_io.c:478
    7654:	f9400025 	ldr	x5, [x1]
/home/lagadanu/Desktop/qemu/optee_os/lib/libmpa/mpa_io.c:472
    7658:	2a0403f3 	mov	w19, w4
/home/lagadanu/Desktop/qemu/optee_os/lib/libmpa/mpa_io.c:478
    765c:	eb05027f 	cmp	x19, x5
    7660:	540000e9 	b.ls	767c <mpa_get_oct_str+0x84>
/home/lagadanu/Desktop/qemu/optee_os/lib/libmpa/mpa_io.c:479
    7664:	f9000033 	str	x19, [x1]
/home/lagadanu/Desktop/qemu/optee_os/lib/libmpa/mpa_io.c:504
    7668:	12800000 	mov	w0, #0xffffffff            	// #-1
    766c:	1400000e 	b	76a4 <mpa_get_oct_str+0xac>
__mpa_count_leading_zero_bits():
/home/lagadanu/Desktop/qemu/optee_os/lib/libmpa/mpa_io.c:180
    7670:	110004a5 	add	w5, w5, #0x1
/home/lagadanu/Desktop/qemu/optee_os/lib/libmpa/mpa_io.c:181
    7674:	53017cc6 	lsr	w6, w6, #1
    7678:	17fffff1 	b	763c <mpa_get_oct_str+0x44>
    767c:	aa0203f7 	mov	x23, x2
    7680:	aa0103f6 	mov	x22, x1
    7684:	aa0003e4 	mov	x4, x0
mpa_get_oct_str():
/home/lagadanu/Desktop/qemu/optee_os/lib/libmpa/mpa_io.c:484
    7688:	7100007f 	cmp	w3, #0x0
    768c:	54000161 	b.ne	76b8 <mpa_get_oct_str+0xc0>
/home/lagadanu/Desktop/qemu/optee_os/lib/libmpa/mpa_io.c:485
    7690:	aa0503e2 	mov	x2, x5
    7694:	52800001 	mov	w1, #0x0                   	// #0
    7698:	97ffe795 	bl	14ec <memset>
/home/lagadanu/Desktop/qemu/optee_os/lib/libmpa/mpa_io.c:513
    769c:	52800000 	mov	w0, #0x0                   	// #0
/home/lagadanu/Desktop/qemu/optee_os/lib/libmpa/mpa_io.c:512
    76a0:	f90002d3 	str	x19, [x22]
/home/lagadanu/Desktop/qemu/optee_os/lib/libmpa/mpa_io.c:514
    76a4:	a94153f3 	ldp	x19, x20, [sp,#16]
    76a8:	a9425bf5 	ldp	x21, x22, [sp,#32]
    76ac:	f9401bf7 	ldr	x23, [sp,#48]
    76b0:	a8c57bfd 	ldp	x29, x30, [sp],#80
    76b4:	d65f03c0 	ret
/home/lagadanu/Desktop/qemu/optee_os/lib/libmpa/mpa_io.c:483
    76b8:	5a83a474 	cneg	w20, w3, lt
/home/lagadanu/Desktop/qemu/optee_os/lib/libmpa/mpa_io.c:488
    76bc:	51000680 	sub	w0, w20, #0x1
/home/lagadanu/Desktop/qemu/optee_os/lib/libmpa/mpa_io.c:491
    76c0:	8b20c840 	add	x0, x2, w0, sxtw #2
    76c4:	b9400801 	ldr	w1, [x0,#8]
get_word():
/home/lagadanu/Desktop/qemu/optee_os/lib/libmpa/mpa_io.c:465
    76c8:	39012fa1 	strb	w1, [x29,#75]
/home/lagadanu/Desktop/qemu/optee_os/lib/libmpa/mpa_io.c:466
    76cc:	53087c20 	lsr	w0, w1, #8
    76d0:	53187c23 	lsr	w3, w1, #24
/home/lagadanu/Desktop/qemu/optee_os/lib/libmpa/mpa_io.c:465
    76d4:	39012ba0 	strb	w0, [x29,#74]
/home/lagadanu/Desktop/qemu/optee_os/lib/libmpa/mpa_io.c:466
    76d8:	53107c20 	lsr	w0, w1, #16
/home/lagadanu/Desktop/qemu/optee_os/lib/libmpa/mpa_io.c:465
    76dc:	910143a1 	add	x1, x29, #0x50
    76e0:	390127a0 	strb	w0, [x29,#73]
    76e4:	d2800000 	mov	x0, #0x0                   	// #0
    76e8:	381f8c23 	strb	w3, [x1,#-8]!
mpa_get_oct_str():
/home/lagadanu/Desktop/qemu/optee_os/lib/libmpa/mpa_io.c:494
    76ec:	38616802 	ldrb	w2, [x0,x1]
    76f0:	34000342 	cbz	w2, 7758 <mpa_get_oct_str+0x160>
/home/lagadanu/Desktop/qemu/optee_os/lib/libmpa/mpa_io.c:495
    76f4:	52800095 	mov	w21, #0x4                   	// #4
    76f8:	4b0002b5 	sub	w21, w21, w0
    76fc:	93407eb5 	sxtw	x21, w21
    7700:	8b20c021 	add	x1, x1, w0, sxtw
    7704:	aa1503e2 	mov	x2, x21
    7708:	aa0403e0 	mov	x0, x4
    770c:	97ffe770 	bl	14cc <memcpy>
    7710:	aa0003e4 	mov	x4, x0
/home/lagadanu/Desktop/qemu/optee_os/lib/libmpa/mpa_io.c:500
    7714:	51000a83 	sub	w3, w20, #0x2
    7718:	93407c63 	sxtw	x3, w3
/home/lagadanu/Desktop/qemu/optee_os/lib/libmpa/mpa_io.c:502
    771c:	37fffc03 	tbnz	w3, #31, 769c <mpa_get_oct_str+0xa4>
/home/lagadanu/Desktop/qemu/optee_os/lib/libmpa/mpa_io.c:503
    7720:	eb1302bf 	cmp	x21, x19
    7724:	54fffa28 	b.hi	7668 <mpa_get_oct_str+0x70>
/home/lagadanu/Desktop/qemu/optee_os/lib/libmpa/mpa_io.c:505
    7728:	8b030ae0 	add	x0, x23, x3, lsl #2
get_word():
/home/lagadanu/Desktop/qemu/optee_os/lib/libmpa/mpa_io.c:465
    772c:	8b150082 	add	x2, x4, x21
mpa_get_oct_str():
/home/lagadanu/Desktop/qemu/optee_os/lib/libmpa/mpa_io.c:505
    7730:	b9400801 	ldr	w1, [x0,#8]
    7734:	d2800060 	mov	x0, #0x3                   	// #3
get_word():
/home/lagadanu/Desktop/qemu/optee_os/lib/libmpa/mpa_io.c:465
    7738:	38206841 	strb	w1, [x2,x0]
    773c:	d1000400 	sub	x0, x0, #0x1
/home/lagadanu/Desktop/qemu/optee_os/lib/libmpa/mpa_io.c:466
    7740:	53087c21 	lsr	w1, w1, #8
/home/lagadanu/Desktop/qemu/optee_os/lib/libmpa/mpa_io.c:464
    7744:	b100041f 	cmn	x0, #0x1
    7748:	54ffff81 	b.ne	7738 <mpa_get_oct_str+0x140>
mpa_get_oct_str():
/home/lagadanu/Desktop/qemu/optee_os/lib/libmpa/mpa_io.c:507
    774c:	910012b5 	add	x21, x21, #0x4
    7750:	d1000463 	sub	x3, x3, #0x1
    7754:	17fffff2 	b	771c <mpa_get_oct_str+0x124>
    7758:	91000400 	add	x0, x0, #0x1
/home/lagadanu/Desktop/qemu/optee_os/lib/libmpa/mpa_io.c:493 (discriminator 2)
    775c:	f100101f 	cmp	x0, #0x4
    7760:	54fffc61 	b.ne	76ec <mpa_get_oct_str+0xf4>
/home/lagadanu/Desktop/qemu/optee_os/lib/libmpa/mpa_io.c:474
    7764:	d2800015 	mov	x21, #0x0                   	// #0
    7768:	17ffffeb 	b	7714 <mpa_get_oct_str+0x11c>

000000000000776c <mpa_mod>:
mpa_mod():
/home/lagadanu/Desktop/qemu/optee_os/lib/libmpa/mpa_modulus.c:20
    776c:	aa0303e4 	mov	x4, x3
    7770:	aa0203e3 	mov	x3, x2
    7774:	aa0103e2 	mov	x2, x1
    7778:	aa0003e1 	mov	x1, x0
    777c:	d2800000 	mov	x0, #0x0                   	// #0
    7780:	17fff648 	b	50a0 <mpa_div>

0000000000007784 <mpa_add_mod>:
mpa_add_mod():
/home/lagadanu/Desktop/qemu/optee_os/lib/libmpa/mpa_modulus.c:31
    7784:	a9bb7bfd 	stp	x29, x30, [sp,#-80]!
    7788:	910003fd 	mov	x29, sp
    778c:	a90153f3 	stp	x19, x20, [sp,#16]
/home/lagadanu/Desktop/qemu/optee_os/lib/libmpa/mpa_modulus.c:34
    7790:	910123b3 	add	x19, x29, #0x48
/home/lagadanu/Desktop/qemu/optee_os/lib/libmpa/mpa_modulus.c:31
    7794:	aa0403f4 	mov	x20, x4
    7798:	a9025bf5 	stp	x21, x22, [sp,#32]
    779c:	a90363f7 	stp	x23, x24, [sp,#48]
    77a0:	aa0303f6 	mov	x22, x3
    77a4:	aa0003f5 	mov	x21, x0
    77a8:	aa0103f7 	mov	x23, x1
    77ac:	aa0203f8 	mov	x24, x2
/home/lagadanu/Desktop/qemu/optee_os/lib/libmpa/mpa_modulus.c:34
    77b0:	aa0403e1 	mov	x1, x4
    77b4:	aa1303e0 	mov	x0, x19
    77b8:	97fff8a7 	bl	5a54 <mpa_alloc_static_temp_var>
/home/lagadanu/Desktop/qemu/optee_os/lib/libmpa/mpa_modulus.c:36
    77bc:	f94027a0 	ldr	x0, [x29,#72]
    77c0:	aa1403e3 	mov	x3, x20
    77c4:	aa1803e2 	mov	x2, x24
    77c8:	aa1703e1 	mov	x1, x23
    77cc:	97fffba1 	bl	6650 <mpa_add>
/home/lagadanu/Desktop/qemu/optee_os/lib/libmpa/mpa_modulus.c:37
    77d0:	f94027a2 	ldr	x2, [x29,#72]
    77d4:	aa1403e4 	mov	x4, x20
    77d8:	aa1603e3 	mov	x3, x22
    77dc:	aa1503e1 	mov	x1, x21
    77e0:	d2800000 	mov	x0, #0x0                   	// #0
    77e4:	97fff62f 	bl	50a0 <mpa_div>
/home/lagadanu/Desktop/qemu/optee_os/lib/libmpa/mpa_modulus.c:39
    77e8:	aa1403e1 	mov	x1, x20
    77ec:	aa1303e0 	mov	x0, x19
    77f0:	97fff89d 	bl	5a64 <mpa_free_static_temp_var>
/home/lagadanu/Desktop/qemu/optee_os/lib/libmpa/mpa_modulus.c:40
    77f4:	a94153f3 	ldp	x19, x20, [sp,#16]
    77f8:	a9425bf5 	ldp	x21, x22, [sp,#32]
    77fc:	a94363f7 	ldp	x23, x24, [sp,#48]
    7800:	a8c57bfd 	ldp	x29, x30, [sp],#80
    7804:	d65f03c0 	ret

0000000000007808 <mpa_sub_mod>:
mpa_sub_mod():
/home/lagadanu/Desktop/qemu/optee_os/lib/libmpa/mpa_modulus.c:50
    7808:	a9bb7bfd 	stp	x29, x30, [sp,#-80]!
    780c:	910003fd 	mov	x29, sp
    7810:	a90153f3 	stp	x19, x20, [sp,#16]
/home/lagadanu/Desktop/qemu/optee_os/lib/libmpa/mpa_modulus.c:53
    7814:	910123b3 	add	x19, x29, #0x48
/home/lagadanu/Desktop/qemu/optee_os/lib/libmpa/mpa_modulus.c:50
    7818:	aa0403f4 	mov	x20, x4
    781c:	a9025bf5 	stp	x21, x22, [sp,#32]
    7820:	a90363f7 	stp	x23, x24, [sp,#48]
    7824:	aa0303f6 	mov	x22, x3
    7828:	aa0003f5 	mov	x21, x0
    782c:	aa0103f7 	mov	x23, x1
    7830:	aa0203f8 	mov	x24, x2
/home/lagadanu/Desktop/qemu/optee_os/lib/libmpa/mpa_modulus.c:53
    7834:	aa0403e1 	mov	x1, x4
    7838:	aa1303e0 	mov	x0, x19
    783c:	97fff886 	bl	5a54 <mpa_alloc_static_temp_var>
/home/lagadanu/Desktop/qemu/optee_os/lib/libmpa/mpa_modulus.c:55
    7840:	f94027a0 	ldr	x0, [x29,#72]
    7844:	aa1403e3 	mov	x3, x20
    7848:	aa1803e2 	mov	x2, x24
    784c:	aa1703e1 	mov	x1, x23
    7850:	97fffbe5 	bl	67e4 <mpa_sub>
/home/lagadanu/Desktop/qemu/optee_os/lib/libmpa/mpa_modulus.c:56
    7854:	f94027a2 	ldr	x2, [x29,#72]
    7858:	aa1403e4 	mov	x4, x20
    785c:	aa1603e3 	mov	x3, x22
    7860:	aa1503e1 	mov	x1, x21
    7864:	d2800000 	mov	x0, #0x0                   	// #0
    7868:	97fff60e 	bl	50a0 <mpa_div>
/home/lagadanu/Desktop/qemu/optee_os/lib/libmpa/mpa_modulus.c:58
    786c:	aa1403e1 	mov	x1, x20
    7870:	aa1303e0 	mov	x0, x19
    7874:	97fff87c 	bl	5a64 <mpa_free_static_temp_var>
/home/lagadanu/Desktop/qemu/optee_os/lib/libmpa/mpa_modulus.c:59
    7878:	a94153f3 	ldp	x19, x20, [sp,#16]
    787c:	a9425bf5 	ldp	x21, x22, [sp,#32]
    7880:	a94363f7 	ldp	x23, x24, [sp,#48]
    7884:	a8c57bfd 	ldp	x29, x30, [sp],#80
    7888:	d65f03c0 	ret

000000000000788c <mpa_mul_mod>:
mpa_mul_mod():
/home/lagadanu/Desktop/qemu/optee_os/lib/libmpa/mpa_modulus.c:69
    788c:	a9bb7bfd 	stp	x29, x30, [sp,#-80]!
    7890:	910003fd 	mov	x29, sp
    7894:	a90153f3 	stp	x19, x20, [sp,#16]
/home/lagadanu/Desktop/qemu/optee_os/lib/libmpa/mpa_modulus.c:72
    7898:	910123b3 	add	x19, x29, #0x48
/home/lagadanu/Desktop/qemu/optee_os/lib/libmpa/mpa_modulus.c:69
    789c:	aa0403f4 	mov	x20, x4
    78a0:	a9025bf5 	stp	x21, x22, [sp,#32]
    78a4:	a90363f7 	stp	x23, x24, [sp,#48]
    78a8:	aa0303f6 	mov	x22, x3
    78ac:	aa0003f5 	mov	x21, x0
    78b0:	aa0103f7 	mov	x23, x1
    78b4:	aa0203f8 	mov	x24, x2
/home/lagadanu/Desktop/qemu/optee_os/lib/libmpa/mpa_modulus.c:72
    78b8:	aa0403e1 	mov	x1, x4
    78bc:	aa1303e0 	mov	x0, x19
    78c0:	97fff865 	bl	5a54 <mpa_alloc_static_temp_var>
/home/lagadanu/Desktop/qemu/optee_os/lib/libmpa/mpa_modulus.c:74
    78c4:	f94027a0 	ldr	x0, [x29,#72]
    78c8:	aa1403e3 	mov	x3, x20
    78cc:	aa1803e2 	mov	x2, x24
    78d0:	aa1703e1 	mov	x1, x23
    78d4:	97fff8dc 	bl	5c44 <mpa_mul>
/home/lagadanu/Desktop/qemu/optee_os/lib/libmpa/mpa_modulus.c:75
    78d8:	f94027a2 	ldr	x2, [x29,#72]
    78dc:	aa1403e4 	mov	x4, x20
    78e0:	aa1603e3 	mov	x3, x22
    78e4:	aa1503e1 	mov	x1, x21
    78e8:	d2800000 	mov	x0, #0x0                   	// #0
    78ec:	97fff5ed 	bl	50a0 <mpa_div>
/home/lagadanu/Desktop/qemu/optee_os/lib/libmpa/mpa_modulus.c:77
    78f0:	aa1403e1 	mov	x1, x20
    78f4:	aa1303e0 	mov	x0, x19
    78f8:	97fff85b 	bl	5a64 <mpa_free_static_temp_var>
/home/lagadanu/Desktop/qemu/optee_os/lib/libmpa/mpa_modulus.c:78
    78fc:	a94153f3 	ldp	x19, x20, [sp,#16]
    7900:	a9425bf5 	ldp	x21, x22, [sp,#32]
    7904:	a94363f7 	ldp	x23, x24, [sp,#48]
    7908:	a8c57bfd 	ldp	x29, x30, [sp],#80
    790c:	d65f03c0 	ret

0000000000007910 <mpa_inv_mod>:
mpa_inv_mod():
/home/lagadanu/Desktop/qemu/optee_os/lib/libmpa/mpa_modulus.c:87
    7910:	a9bb7bfd 	stp	x29, x30, [sp,#-80]!
    7914:	910003fd 	mov	x29, sp
    7918:	a9025bf5 	stp	x21, x22, [sp,#32]
    791c:	aa0103f6 	mov	x22, x1
    7920:	a90153f3 	stp	x19, x20, [sp,#16]
/home/lagadanu/Desktop/qemu/optee_os/lib/libmpa/mpa_modulus.c:93
    7924:	52800021 	mov	w1, #0x1                   	// #1
/home/lagadanu/Desktop/qemu/optee_os/lib/libmpa/mpa_modulus.c:87
    7928:	a90363f7 	stp	x23, x24, [sp,#48]
    792c:	aa0003f3 	mov	x19, x0
    7930:	aa0203f7 	mov	x23, x2
    7934:	aa0303f4 	mov	x20, x3
/home/lagadanu/Desktop/qemu/optee_os/lib/libmpa/mpa_modulus.c:93
    7938:	aa1603e0 	mov	x0, x22
    793c:	97fffd0c 	bl	6d6c <mpa_cmp_short>
    7940:	35000160 	cbnz	w0, 796c <mpa_inv_mod+0x5c>
/home/lagadanu/Desktop/qemu/optee_os/lib/libmpa/mpa_modulus.c:95
    7944:	52800015 	mov	w21, #0x0                   	// #0
/home/lagadanu/Desktop/qemu/optee_os/lib/libmpa/mpa_modulus.c:94
    7948:	52800021 	mov	w1, #0x1                   	// #1
    794c:	aa1303e0 	mov	x0, x19
    7950:	97fff399 	bl	47b4 <mpa_set_S32>
/home/lagadanu/Desktop/qemu/optee_os/lib/libmpa/mpa_modulus.c:122
    7954:	2a1503e0 	mov	w0, w21
    7958:	a94153f3 	ldp	x19, x20, [sp,#16]
    795c:	a9425bf5 	ldp	x21, x22, [sp,#32]
    7960:	a94363f7 	ldp	x23, x24, [sp,#48]
    7964:	a8c57bfd 	ldp	x29, x30, [sp],#80
    7968:	d65f03c0 	ret
/home/lagadanu/Desktop/qemu/optee_os/lib/libmpa/mpa_modulus.c:99
    796c:	eb1302df 	cmp	x22, x19
    7970:	54000421 	b.ne	79f4 <mpa_inv_mod+0xe4>
/home/lagadanu/Desktop/qemu/optee_os/lib/libmpa/mpa_modulus.c:100
    7974:	aa1403e1 	mov	x1, x20
    7978:	910123a0 	add	x0, x29, #0x48
    797c:	97fff836 	bl	5a54 <mpa_alloc_static_temp_var>
/home/lagadanu/Desktop/qemu/optee_os/lib/libmpa/mpa_modulus.c:104
    7980:	910103b8 	add	x24, x29, #0x40
    7984:	aa1403e1 	mov	x1, x20
    7988:	aa1803e0 	mov	x0, x24
    798c:	97fff832 	bl	5a54 <mpa_alloc_static_temp_var>
/home/lagadanu/Desktop/qemu/optee_os/lib/libmpa/mpa_modulus.c:106
    7990:	a94407a0 	ldp	x0, x1, [x29,#64]
    7994:	aa1403e5 	mov	x5, x20
    7998:	aa1703e4 	mov	x4, x23
    799c:	aa1603e3 	mov	x3, x22
    79a0:	d2800002 	mov	x2, #0x0                   	// #0
    79a4:	97fff79e 	bl	581c <mpa_extended_gcd>
/home/lagadanu/Desktop/qemu/optee_os/lib/libmpa/mpa_modulus.c:107
    79a8:	f94023a0 	ldr	x0, [x29,#64]
    79ac:	52800021 	mov	w1, #0x1                   	// #1
    79b0:	97fffcef 	bl	6d6c <mpa_cmp_short>
    79b4:	2a0003f5 	mov	w21, w0
/home/lagadanu/Desktop/qemu/optee_os/lib/libmpa/mpa_modulus.c:109
    79b8:	eb1302df 	cmp	x22, x19
    79bc:	54000101 	b.ne	79dc <mpa_inv_mod+0xcc>
/home/lagadanu/Desktop/qemu/optee_os/lib/libmpa/mpa_modulus.c:110
    79c0:	910143b6 	add	x22, x29, #0x50
    79c4:	aa1303e0 	mov	x0, x19
    79c8:	f85f8ec1 	ldr	x1, [x22,#-8]!
    79cc:	97fff143 	bl	3ed8 <mpa_copy>
/home/lagadanu/Desktop/qemu/optee_os/lib/libmpa/mpa_modulus.c:111
    79d0:	aa1403e1 	mov	x1, x20
    79d4:	aa1603e0 	mov	x0, x22
    79d8:	97fff823 	bl	5a64 <mpa_free_static_temp_var>
/home/lagadanu/Desktop/qemu/optee_os/lib/libmpa/mpa_modulus.c:114
    79dc:	aa1403e1 	mov	x1, x20
    79e0:	aa1803e0 	mov	x0, x24
    79e4:	97fff820 	bl	5a64 <mpa_free_static_temp_var>
/home/lagadanu/Desktop/qemu/optee_os/lib/libmpa/mpa_modulus.c:115
    79e8:	34000155 	cbz	w21, 7a10 <mpa_inv_mod+0x100>
/home/lagadanu/Desktop/qemu/optee_os/lib/libmpa/mpa_modulus.c:120
    79ec:	12800015 	mov	w21, #0xffffffff            	// #-1
    79f0:	17ffffd9 	b	7954 <mpa_inv_mod+0x44>
/home/lagadanu/Desktop/qemu/optee_os/lib/libmpa/mpa_modulus.c:102
    79f4:	f90027b3 	str	x19, [x29,#72]
    79f8:	17ffffe2 	b	7980 <mpa_inv_mod+0x70>
/home/lagadanu/Desktop/qemu/optee_os/lib/libmpa/mpa_modulus.c:117
    79fc:	aa1403e3 	mov	x3, x20
    7a00:	aa1703e2 	mov	x2, x23
    7a04:	aa1303e1 	mov	x1, x19
    7a08:	aa1303e0 	mov	x0, x19
    7a0c:	97fffb11 	bl	6650 <mpa_add>
/home/lagadanu/Desktop/qemu/optee_os/lib/libmpa/mpa_modulus.c:116
    7a10:	52800001 	mov	w1, #0x0                   	// #0
    7a14:	aa1303e0 	mov	x0, x19
    7a18:	97fffcd5 	bl	6d6c <mpa_cmp_short>
    7a1c:	37ffff00 	tbnz	w0, #31, 79fc <mpa_inv_mod+0xec>
    7a20:	17ffffcd 	b	7954 <mpa_inv_mod+0x44>

0000000000007a24 <snprintf>:
snprintf():
/home/lagadanu/Desktop/qemu/optee_os/lib/libutils/isoc/snprintf.c:10
    7a24:	a9b07bfd 	stp	x29, x30, [sp,#-256]!
    7a28:	910003fd 	mov	x29, sp
    7a2c:	a90d93a3 	stp	x3, x4, [x29,#216]
/home/lagadanu/Desktop/qemu/optee_os/lib/libutils/isoc/snprintf.c:14
    7a30:	910403a3 	add	x3, x29, #0x100
    7a34:	a9030fa3 	stp	x3, x3, [x29,#48]
    7a38:	910343a3 	add	x3, x29, #0xd0
    7a3c:	f90023a3 	str	x3, [x29,#64]
    7a40:	128004e3 	mov	w3, #0xffffffd8            	// #-40
    7a44:	b9004ba3 	str	w3, [x29,#72]
    7a48:	12800fe3 	mov	w3, #0xffffff80            	// #-128
    7a4c:	b9004fa3 	str	w3, [x29,#76]
/home/lagadanu/Desktop/qemu/optee_os/lib/libutils/isoc/snprintf.c:15
    7a50:	910043a3 	add	x3, x29, #0x10
/home/lagadanu/Desktop/qemu/optee_os/lib/libutils/isoc/snprintf.c:10
    7a54:	a90e9ba5 	stp	x5, x6, [x29,#232]
/home/lagadanu/Desktop/qemu/optee_os/lib/libutils/isoc/snprintf.c:15
    7a58:	a94317a4 	ldp	x4, x5, [x29,#48]
    7a5c:	a90117a4 	stp	x4, x5, [x29,#16]
    7a60:	a94417a4 	ldp	x4, x5, [x29,#64]
    7a64:	a90217a4 	stp	x4, x5, [x29,#32]
/home/lagadanu/Desktop/qemu/optee_os/lib/libutils/isoc/snprintf.c:10
    7a68:	3d8017a0 	str	q0, [x29,#80]
/home/lagadanu/Desktop/qemu/optee_os/lib/libutils/isoc/snprintf.c:15
    7a6c:	52800004 	mov	w4, #0x0                   	// #0
/home/lagadanu/Desktop/qemu/optee_os/lib/libutils/isoc/snprintf.c:10
    7a70:	3d801ba1 	str	q1, [x29,#96]
    7a74:	3d801fa2 	str	q2, [x29,#112]
    7a78:	3d8023a3 	str	q3, [x29,#128]
    7a7c:	3d8027a4 	str	q4, [x29,#144]
    7a80:	3d802ba5 	str	q5, [x29,#160]
    7a84:	3d802fa6 	str	q6, [x29,#176]
    7a88:	3d8033a7 	str	q7, [x29,#192]
    7a8c:	f9007fa7 	str	x7, [x29,#248]
/home/lagadanu/Desktop/qemu/optee_os/lib/libutils/isoc/snprintf.c:15
    7a90:	97ffe746 	bl	17a8 <__vsnprintf>
/home/lagadanu/Desktop/qemu/optee_os/lib/libutils/isoc/snprintf.c:19
    7a94:	a8d07bfd 	ldp	x29, x30, [sp],#256
    7a98:	d65f03c0 	ret

0000000000007a9c <vsnprintf>:
vsnprintf():
/home/lagadanu/Desktop/qemu/optee_os/lib/libutils/isoc/snprintf.c:22
    7a9c:	a9bb7bfd 	stp	x29, x30, [sp,#-80]!
    7aa0:	910003fd 	mov	x29, sp
    7aa4:	a90153f3 	stp	x19, x20, [sp,#16]
    7aa8:	aa0003f3 	mov	x19, x0
    7aac:	f90013f5 	str	x21, [sp,#32]
    7ab0:	aa0103f4 	mov	x20, x1
    7ab4:	aa0203f5 	mov	x21, x2
/home/lagadanu/Desktop/qemu/optee_os/lib/libutils/isoc/snprintf.c:23
    7ab8:	aa0303e1 	mov	x1, x3
    7abc:	9100c3a0 	add	x0, x29, #0x30
    7ac0:	d2800402 	mov	x2, #0x20                  	// #32
    7ac4:	97ffe682 	bl	14cc <memcpy>
    7ac8:	aa0003e3 	mov	x3, x0
    7acc:	aa1503e2 	mov	x2, x21
    7ad0:	aa1403e1 	mov	x1, x20
    7ad4:	52800004 	mov	w4, #0x0                   	// #0
    7ad8:	aa1303e0 	mov	x0, x19
    7adc:	97ffe733 	bl	17a8 <__vsnprintf>
/home/lagadanu/Desktop/qemu/optee_os/lib/libutils/isoc/snprintf.c:24
    7ae0:	f94013f5 	ldr	x21, [sp,#32]
    7ae4:	a94153f3 	ldp	x19, x20, [sp,#16]
    7ae8:	a8c57bfd 	ldp	x29, x30, [sp],#80
    7aec:	d65f03c0 	ret

0000000000007af0 <memcmp>:
memcmp():
/home/lagadanu/Desktop/qemu/optee_os/lib/libutils/isoc/newlib/memcmp.c:90
    7af0:	d2800004 	mov	x4, #0x0                   	// #0
    7af4:	eb04005f 	cmp	x2, x4
    7af8:	54000061 	b.ne	7b04 <memcmp+0x14>
/home/lagadanu/Desktop/qemu/optee_os/lib/libutils/isoc/newlib/memcmp.c:96
    7afc:	52800000 	mov	w0, #0x0                   	// #0
/home/lagadanu/Desktop/qemu/optee_os/lib/libutils/isoc/newlib/memcmp.c:136
    7b00:	d65f03c0 	ret
/home/lagadanu/Desktop/qemu/optee_os/lib/libutils/isoc/newlib/memcmp.c:91
    7b04:	38646803 	ldrb	w3, [x0,x4]
    7b08:	91000484 	add	x4, x4, #0x1
    7b0c:	8b040025 	add	x5, x1, x4
    7b10:	385ff0a5 	ldurb	w5, [x5,#-1]
    7b14:	6b05007f 	cmp	w3, w5
    7b18:	54fffee0 	b.eq	7af4 <memcmp+0x4>
/home/lagadanu/Desktop/qemu/optee_os/lib/libutils/isoc/newlib/memcmp.c:92
    7b1c:	4b050060 	sub	w0, w3, w5
    7b20:	d65f03c0 	ret

0000000000007b24 <memmove>:
memmove():
/home/lagadanu/Desktop/qemu/optee_os/lib/libutils/isoc/newlib/memmove.c:96
    7b24:	eb01001f 	cmp	x0, x1
    7b28:	54000089 	b.ls	7b38 <memmove+0x14>
/home/lagadanu/Desktop/qemu/optee_os/lib/libutils/isoc/newlib/memmove.c:96 (discriminator 1)
    7b2c:	8b020023 	add	x3, x1, x2
    7b30:	eb03001f 	cmp	x0, x3
    7b34:	540000e3 	b.cc	7b50 <memmove+0x2c>
    7b38:	d2800003 	mov	x3, #0x0                   	// #0
/home/lagadanu/Desktop/qemu/optee_os/lib/libutils/isoc/newlib/memmove.c:103
    7b3c:	eb03005f 	cmp	x2, x3
    7b40:	54000101 	b.ne	7b60 <memmove+0x3c>
/home/lagadanu/Desktop/qemu/optee_os/lib/libutils/isoc/newlib/memmove.c:157
    7b44:	d65f03c0 	ret
/home/lagadanu/Desktop/qemu/optee_os/lib/libutils/isoc/newlib/memmove.c:101
    7b48:	38626823 	ldrb	w3, [x1,x2]
    7b4c:	38226803 	strb	w3, [x0,x2]
/home/lagadanu/Desktop/qemu/optee_os/lib/libutils/isoc/newlib/memmove.c:100
    7b50:	d1000442 	sub	x2, x2, #0x1
    7b54:	b100045f 	cmn	x2, #0x1
    7b58:	54ffff81 	b.ne	7b48 <memmove+0x24>
    7b5c:	d65f03c0 	ret
/home/lagadanu/Desktop/qemu/optee_os/lib/libutils/isoc/newlib/memmove.c:104
    7b60:	38636824 	ldrb	w4, [x1,x3]
    7b64:	38236804 	strb	w4, [x0,x3]
    7b68:	91000463 	add	x3, x3, #0x1
    7b6c:	17fffff4 	b	7b3c <memmove+0x18>

0000000000007b70 <mempool_alloc_pool>:
mempool_alloc_pool():
/home/lagadanu/Desktop/qemu/optee_os/lib/libutils/ext/mempool.c:115
    7b70:	a9be7bfd 	stp	x29, x30, [sp,#-32]!
    7b74:	910003fd 	mov	x29, sp
    7b78:	a90153f3 	stp	x19, x20, [sp,#16]
    7b7c:	aa0003f3 	mov	x19, x0
    7b80:	aa0103f4 	mov	x20, x1
/home/lagadanu/Desktop/qemu/optee_os/lib/libutils/ext/mempool.c:116
    7b84:	d2800020 	mov	x0, #0x1                   	// #1
    7b88:	d2800301 	mov	x1, #0x18                  	// #24
    7b8c:	97ffe458 	bl	cec <calloc>
/home/lagadanu/Desktop/qemu/optee_os/lib/libutils/ext/mempool.c:119
    7b90:	f2400a7f 	tst	x19, #0x7
    7b94:	54000140 	b.eq	7bbc <mempool_alloc_pool+0x4c>
/home/lagadanu/Desktop/qemu/optee_os/lib/libutils/ext/mempool.c:119 (discriminator 1)
    7b98:	b0000003 	adrp	x3, 8000 <PRIME_TABLE+0x168>
    7b9c:	d0000001 	adrp	x1, 9000 <__func__.3181+0x410>
    7ba0:	912fc063 	add	x3, x3, #0xbf0
    7ba4:	91082421 	add	x1, x1, #0x209
    7ba8:	d0000000 	adrp	x0, 9000 <__func__.3181+0x410>
    7bac:	91089000 	add	x0, x0, #0x224
    7bb0:	52800ee2 	mov	w2, #0x77                  	// #119
    7bb4:	97ffea89 	bl	25d8 <_assert_log>
    7bb8:	97ffea99 	bl	261c <_assert_break>
/home/lagadanu/Desktop/qemu/optee_os/lib/libutils/ext/mempool.c:121
    7bbc:	b4000080 	cbz	x0, 7bcc <mempool_alloc_pool+0x5c>
/home/lagadanu/Desktop/qemu/optee_os/lib/libutils/ext/mempool.c:124
    7bc0:	92800001 	mov	x1, #0xffffffffffffffff    	// #-1
/home/lagadanu/Desktop/qemu/optee_os/lib/libutils/ext/mempool.c:123
    7bc4:	f9000813 	str	x19, [x0,#16]
/home/lagadanu/Desktop/qemu/optee_os/lib/libutils/ext/mempool.c:124
    7bc8:	a9000414 	stp	x20, x1, [x0]
/home/lagadanu/Desktop/qemu/optee_os/lib/libutils/ext/mempool.c:134
    7bcc:	a94153f3 	ldp	x19, x20, [sp,#16]
    7bd0:	a8c27bfd 	ldp	x29, x30, [sp],#32
    7bd4:	d65f03c0 	ret

0000000000007bd8 <mempool_alloc>:
mempool_alloc():
/home/lagadanu/Desktop/qemu/optee_os/lib/libutils/ext/mempool.c:144
    7bd8:	a9401403 	ldp	x3, x5, [x0]
/home/lagadanu/Desktop/qemu/optee_os/lib/libutils/ext/mempool.c:137
    7bdc:	aa0003e4 	mov	x4, x0
/home/lagadanu/Desktop/qemu/optee_os/lib/libutils/ext/mempool.c:144
    7be0:	b7f80165 	tbnz	x5, #63, 7c0c <mempool_alloc+0x34>
/home/lagadanu/Desktop/qemu/optee_os/lib/libutils/ext/mempool.c:147
    7be4:	f9400800 	ldr	x0, [x0,#16]
/home/lagadanu/Desktop/qemu/optee_os/lib/libutils/ext/mempool.c:151
    7be8:	91001ca2 	add	x2, x5, #0x7
/home/lagadanu/Desktop/qemu/optee_os/lib/libutils/ext/mempool.c:147
    7bec:	8b0000a6 	add	x6, x5, x0
/home/lagadanu/Desktop/qemu/optee_os/lib/libutils/ext/mempool.c:151
    7bf0:	f86068a0 	ldr	x0, [x5,x0]
    7bf4:	8b000042 	add	x2, x2, x0
/home/lagadanu/Desktop/qemu/optee_os/lib/libutils/ext/mempool.c:173
    7bf8:	d2800000 	mov	x0, #0x0                   	// #0
/home/lagadanu/Desktop/qemu/optee_os/lib/libutils/ext/mempool.c:151
    7bfc:	927df042 	and	x2, x2, #0xfffffffffffffff8
/home/lagadanu/Desktop/qemu/optee_os/lib/libutils/ext/mempool.c:152
    7c00:	eb03005f 	cmp	x2, x3
    7c04:	54000089 	b.ls	7c14 <mempool_alloc+0x3c>
    7c08:	d65f03c0 	ret
/home/lagadanu/Desktop/qemu/optee_os/lib/libutils/ext/mempool.c:140
    7c0c:	d2800006 	mov	x6, #0x0                   	// #0
/home/lagadanu/Desktop/qemu/optee_os/lib/libutils/ext/mempool.c:145
    7c10:	d2800002 	mov	x2, #0x0                   	// #0
/home/lagadanu/Desktop/qemu/optee_os/lib/libutils/ext/mempool.c:157
    7c14:	91007c21 	add	x1, x1, #0x1f
/home/lagadanu/Desktop/qemu/optee_os/lib/libutils/ext/mempool.c:173
    7c18:	d2800000 	mov	x0, #0x0                   	// #0
/home/lagadanu/Desktop/qemu/optee_os/lib/libutils/ext/mempool.c:157
    7c1c:	927df021 	and	x1, x1, #0xfffffffffffffff8
/home/lagadanu/Desktop/qemu/optee_os/lib/libutils/ext/mempool.c:158
    7c20:	8b010047 	add	x7, x2, x1
    7c24:	eb0300ff 	cmp	x7, x3
    7c28:	54000168 	b.hi	7c54 <mempool_alloc+0x7c>
/home/lagadanu/Desktop/qemu/optee_os/lib/libutils/ext/mempool.c:161
    7c2c:	f9400880 	ldr	x0, [x4,#16]
    7c30:	8b000043 	add	x3, x2, x0
/home/lagadanu/Desktop/qemu/optee_os/lib/libutils/ext/mempool.c:162
    7c34:	f8206841 	str	x1, [x2,x0]
/home/lagadanu/Desktop/qemu/optee_os/lib/libutils/ext/mempool.c:163
    7c38:	f9000465 	str	x5, [x3,#8]
/home/lagadanu/Desktop/qemu/optee_os/lib/libutils/ext/mempool.c:164
    7c3c:	b4000046 	cbz	x6, 7c44 <mempool_alloc+0x6c>
/home/lagadanu/Desktop/qemu/optee_os/lib/libutils/ext/mempool.c:165
    7c40:	f90008c2 	str	x2, [x6,#16]
/home/lagadanu/Desktop/qemu/optee_os/lib/libutils/ext/mempool.c:166
    7c44:	92800000 	mov	x0, #0xffffffffffffffff    	// #-1
    7c48:	f9000860 	str	x0, [x3,#16]
/home/lagadanu/Desktop/qemu/optee_os/lib/libutils/ext/mempool.c:169
    7c4c:	91006060 	add	x0, x3, #0x18
/home/lagadanu/Desktop/qemu/optee_os/lib/libutils/ext/mempool.c:167
    7c50:	f9000482 	str	x2, [x4,#8]
/home/lagadanu/Desktop/qemu/optee_os/lib/libutils/ext/mempool.c:174
    7c54:	d65f03c0 	ret

0000000000007c58 <mempool_free>:
mempool_free():
/home/lagadanu/Desktop/qemu/optee_os/lib/libutils/ext/mempool.c:183
    7c58:	b40001e1 	cbz	x1, 7c94 <mempool_free+0x3c>
/home/lagadanu/Desktop/qemu/optee_os/lib/libutils/ext/mempool.c:188
    7c5c:	f85f0022 	ldur	x2, [x1,#-16]
/home/lagadanu/Desktop/qemu/optee_os/lib/libutils/ext/mempool.c:181
    7c60:	92800003 	mov	x3, #0xffffffffffffffff    	// #-1
/home/lagadanu/Desktop/qemu/optee_os/lib/libutils/ext/mempool.c:188
    7c64:	b7f800c2 	tbnz	x2, #63, 7c7c <mempool_free+0x24>
/home/lagadanu/Desktop/qemu/optee_os/lib/libutils/ext/mempool.c:191
    7c68:	f9400803 	ldr	x3, [x0,#16]
    7c6c:	f85f8024 	ldur	x4, [x1,#-8]
    7c70:	8b020063 	add	x3, x3, x2
    7c74:	f9000864 	str	x4, [x3,#16]
    7c78:	aa0203e3 	mov	x3, x2
/home/lagadanu/Desktop/qemu/optee_os/lib/libutils/ext/mempool.c:195
    7c7c:	f85f8024 	ldur	x4, [x1,#-8]
    7c80:	b7f80084 	tbnz	x4, #63, 7c90 <mempool_free+0x38>
/home/lagadanu/Desktop/qemu/optee_os/lib/libutils/ext/mempool.c:198
    7c84:	a9408403 	ldp	x3, x1, [x0,#8]
    7c88:	8b040021 	add	x1, x1, x4
    7c8c:	f9000422 	str	x2, [x1,#8]
/home/lagadanu/Desktop/qemu/optee_os/lib/libutils/ext/mempool.c:202
    7c90:	f9000403 	str	x3, [x0,#8]
    7c94:	d65f03c0 	ret
