
out/873bcd08-c2c3-11e6-a937-d0bf9c45c61c.elf:     file format elf64-littleaarch64
out/873bcd08-c2c3-11e6-a937-d0bf9c45c61c.elf
architecture: aarch64, flags 0x00000150:
HAS_SYMS, DYNAMIC, D_PAGED
start address 0x0000000000000020

Program Header:
    LOAD off    0x0000000000010000 vaddr 0x0000000000000000 paddr 0x0000000000000000 align 2**16
         filesz 0x0000000000007c98 memsz 0x0000000000007c98 flags r-x
    LOAD off    0x0000000000017c98 vaddr 0x0000000000007c98 paddr 0x0000000000007c98 align 2**16
         filesz 0x0000000000001d74 memsz 0x0000000000001d74 flags r--
    LOAD off    0x000000000001a000 vaddr 0x000000000000a000 paddr 0x000000000000a000 align 2**16
         filesz 0x000000000000017c memsz 0x000000000000abc0 flags rw-
 DYNAMIC off    0x00000000000196e0 vaddr 0x00000000000096e0 paddr 0x00000000000096e0 align 2**3
         filesz 0x0000000000000100 memsz 0x0000000000000100 flags rw-

Dynamic Section:
  HASH                 0x00000000000099c0
  STRTAB               0x0000000000009930
  SYMTAB               0x00000000000097e0
  STRSZ                0x000000000000008e
  SYMENT               0x0000000000000018
  DEBUG                0x0000000000000000
  RELA                 0x0000000000009248
  RELASZ               0x0000000000000420
  RELAENT              0x0000000000000018
  FLAGS_1              0x0000000008000000
  RELACOUNT            0x0000000000000021
private flags = 0:

Sections:
Idx Name          Size      VMA               LMA               File off  Algn
  0 .ta_head      00000020  0000000000000000  0000000000000000  00010000  2**3
                  CONTENTS, ALLOC, LOAD, DATA
  1 .text         00007c78  0000000000000020  0000000000000020  00010020  2**2
                  CONTENTS, ALLOC, LOAD, READONLY, CODE
  2 .rodata       000015b0  0000000000007c98  0000000000007c98  00017c98  2**3
                  CONTENTS, ALLOC, LOAD, READONLY, DATA
  3 .dynsym       00000150  00000000000097e0  00000000000097e0  000197e0  2**3
                  CONTENTS, ALLOC, LOAD, READONLY, DATA
  4 .rela.dyn     00000318  0000000000009248  0000000000009248  00019248  2**3
                  CONTENTS, ALLOC, LOAD, READONLY, DATA
  5 .got          00000078  0000000000009560  0000000000009560  00019560  2**3
                  CONTENTS, ALLOC, LOAD, DATA
  6 .rela.got     00000108  00000000000095d8  00000000000095d8  000195d8  2**3
                  CONTENTS, ALLOC, LOAD, READONLY, DATA
  7 .dynamic      00000100  00000000000096e0  00000000000096e0  000196e0  2**3
                  CONTENTS, ALLOC, LOAD, DATA
  8 .dynstr       0000008e  0000000000009930  0000000000009930  00019930  2**0
                  CONTENTS, ALLOC, LOAD, READONLY, DATA
  9 .hash         0000004c  00000000000099c0  00000000000099c0  000199c0  2**3
                  CONTENTS, ALLOC, LOAD, READONLY, DATA
 10 .data         0000017c  000000000000a000  000000000000a000  0001a000  2**3
                  CONTENTS, ALLOC, LOAD, DATA
 11 .bss          0000aa40  000000000000a180  000000000000a180  0001a17c  2**3
                  ALLOC
 12 .debug_info   0001039b  0000000000000000  0000000000000000  0001a17c  2**0
                  CONTENTS, READONLY, DEBUGGING
 13 .debug_abbrev 000040e0  0000000000000000  0000000000000000  0002a517  2**0
                  CONTENTS, READONLY, DEBUGGING
 14 .debug_loc    00017831  0000000000000000  0000000000000000  0002e5f7  2**0
                  CONTENTS, READONLY, DEBUGGING
 15 .debug_aranges 00000c30  0000000000000000  0000000000000000  00045e30  2**4
                  CONTENTS, READONLY, DEBUGGING
 16 .debug_ranges 000010b0  0000000000000000  0000000000000000  00046a60  2**4
                  CONTENTS, READONLY, DEBUGGING
 17 .debug_macro  0000533f  0000000000000000  0000000000000000  00047b10  2**0
                  CONTENTS, READONLY, DEBUGGING
 18 .debug_line   000068c8  0000000000000000  0000000000000000  0004ce4f  2**0
                  CONTENTS, READONLY, DEBUGGING
 19 .debug_str    0000f87c  0000000000000000  0000000000000000  00053717  2**0
                  CONTENTS, READONLY, DEBUGGING
 20 .comment      0000002d  0000000000000000  0000000000000000  00062f93  2**0
                  CONTENTS, READONLY
 21 .debug_frame  00002530  0000000000000000  0000000000000000  00062fc0  2**3
                  CONTENTS, READONLY, DEBUGGING
SYMBOL TABLE:
0000000000000000 l    d  .ta_head	0000000000000000 .ta_head
0000000000000020 l    d  .text	0000000000000000 .text
0000000000007c98 l    d  .rodata	0000000000000000 .rodata
0000000000009248 l    d  .rela.dyn	0000000000000000 .rela.dyn
0000000000009560 l    d  .got	0000000000000000 .got
00000000000095d8 l    d  .rela.got	0000000000000000 .rela.got
00000000000096e0 l    d  .dynamic	0000000000000000 .dynamic
00000000000097e0 l    d  .dynsym	0000000000000000 .dynsym
0000000000009930 l    d  .dynstr	0000000000000000 .dynstr
00000000000099c0 l    d  .hash	0000000000000000 .hash
000000000000a000 l    d  .data	0000000000000000 .data
000000000000a180 l    d  .bss	0000000000000000 .bss
0000000000000000 l    d  .debug_info	0000000000000000 .debug_info
0000000000000000 l    d  .debug_abbrev	0000000000000000 .debug_abbrev
0000000000000000 l    d  .debug_loc	0000000000000000 .debug_loc
0000000000000000 l    d  .debug_aranges	0000000000000000 .debug_aranges
0000000000000000 l    d  .debug_ranges	0000000000000000 .debug_ranges
0000000000000000 l    d  .debug_macro	0000000000000000 .debug_macro
0000000000000000 l    d  .debug_line	0000000000000000 .debug_line
0000000000000000 l    d  .debug_str	0000000000000000 .debug_str
0000000000000000 l    d  .comment	0000000000000000 .comment
0000000000000000 l    d  .debug_frame	0000000000000000 .debug_frame
0000000000000000 l    df *ABS*	0000000000000000 user_ta_header.c
0000000000007d30 l     O .rodata	0000000000000004 __compound_literal.4
0000000000007d34 l     O .rodata	0000000000000004 __compound_literal.3
0000000000007d38 l     O .rodata	0000000000000001 __compound_literal.2
0000000000007d39 l     O .rodata	0000000000000001 __compound_literal.1
0000000000007d3a l     O .rodata	0000000000000001 __compound_literal.0
0000000000000000 l    df *ABS*	0000000000000000 ta_entry.c
0000000000007ca8 l     O .rodata	0000000000000012 __func__.3882
0000000000007cc0 l     O .rodata	0000000000000012 __func__.3891
0000000000007cd8 l     O .rodata	000000000000000f __func__.3898
0000000000007ce8 l     O .rodata	000000000000000e __func__.3905
0000000000007cf8 l     O .rodata	000000000000000e __func__.3912
0000000000007d08 l     O .rodata	000000000000000f __func__.3919
0000000000007d18 l     O .rodata	000000000000000f __func__.3926
0000000000000000 l    df *ABS*	0000000000000000 bget_malloc.c
00000000000003c8 l     F .text	0000000000000040 raw_malloc_return_hook.isra.3
0000000000000408 l     F .text	0000000000000110 create_free_block.constprop.11
00000000000006d8 l     F .text	000000000000005c raw_malloc.constprop.15
0000000000007d50 l     O .rodata	0000000000000012 __func__.3464
0000000000007d68 l     O .rodata	0000000000000005 __func__.3319
0000000000007d70 l     O .rodata	0000000000000006 __func__.3334
0000000000007d78 l     O .rodata	0000000000000005 __func__.3351
0000000000007d80 l     O .rodata	0000000000000006 __func__.3343
0000000000007d88 l     O .rodata	0000000000000006 __func__.3360
0000000000007d90 l     O .rodata	0000000000000007 __func__.3370
0000000000007d98 l     O .rodata	000000000000000d __func__.3500
0000000000007da8 l     O .rodata	000000000000000c __func__.3474
0000000000007db8 l     O .rodata	000000000000000b __func__.3485
0000000000007dc8 l     O .rodata	0000000000000010 __func__.3552
0000000000007dd8 l     O .rodata	000000000000000e __func__.3506
0000000000007de8 l     O .rodata	0000000000000013 __func__.3411
0000000000012180 l     O .bss	0000000000000038 mstats
00000000000121b8 l     O .bss	0000000000000008 malloc_pool_len
00000000000121c0 l     O .bss	0000000000000008 malloc_pool
000000000000a0a8 l     O .data	0000000000000038 malloc_poolset
0000000000000000 l    df *ABS*	0000000000000000 strndup.c
0000000000000000 l    df *ABS*	0000000000000000 memcpy.c
0000000000000000 l    df *ABS*	0000000000000000 memset.c
0000000000000000 l    df *ABS*	0000000000000000 strnlen.c
0000000000000000 l    df *ABS*	0000000000000000 trace.c
0000000000007e00 l     O .rodata	0000000000000005 lvl_strs.3178
0000000000000000 l    df *ABS*	0000000000000000 snprintk.c
0000000000007e08 l     O .rodata	0000000000000011 HEXDIGITS
0000000000007e20 l     O .rodata	0000000000000011 hexdigits
0000000000000000 l    df *ABS*	0000000000000000 memchr.c
0000000000000000 l    df *ABS*	0000000000000000 strlen.c
0000000000000000 l    df *ABS*	0000000000000000 trace_ext.c
0000000000000000 l    df *ABS*	0000000000000000 assert.c
0000000000000000 l    df *ABS*	0000000000000000 tee_tcpudp_socket.c
0000000000002630 l     F .text	000000000000002c sock_error
000000000000265c l     F .text	0000000000000068 sock_recv
00000000000026c4 l     F .text	0000000000000060 sock_send
0000000000002724 l     F .text	000000000000003c sock_close
0000000000002760 l     F .text	00000000000000d8 tcp_open
0000000000002838 l     F .text	00000000000000d8 udp_open
0000000000002910 l     F .text	0000000000000094 tcp_ioctl
00000000000029a4 l     F .text	0000000000000094 udp_ioctl
000000000000a0f0 l     O .data	0000000000000038 udp_socket_instance
000000000000a128 l     O .data	0000000000000038 tcp_socket_instance
0000000000000000 l    df *ABS*	0000000000000000 tee_socket_pta.c
0000000000002a38 l     F .text	0000000000000088 invoke_socket_pta
0000000000007e38 l     O .rodata	0000000000000010 socket_uuid.3808
00000000000121c8 l     O .bss	0000000000000008 sess.3807
0000000000000000 l    df *ABS*	0000000000000000 user_ta_entry.c
0000000000002c84 l     F .text	0000000000000028 ta_header_get_session
0000000000002cac l     F .text	0000000000000094 ta_header_remove_session
0000000000014bba l     O .bss	0000000000000001 init_done
000000000000a168 l     O .data	0000000000000010 ta_sessions
0000000000000000 l    df *ABS*	0000000000000000 utee_syscalls_a64.o
0000000000000000 l    df *ABS*	0000000000000000 gprof_a64.o
0000000000000000 l    df *ABS*	0000000000000000 tee_api_arith.c
0000000000003970 l     F .text	0000000000000028 TEE_BigInt_Panic
0000000000012218 l     O .bss	0000000000001980 mempool_u32
0000000000013b98 l     O .bss	0000000000000010 mem.4074
0000000000013ba8 l     O .bss	0000000000000008 mempool
0000000000000000 l    df *ABS*	0000000000000000 tee_api.c
0000000000013bb0 l     O .bss	0000000000000008 tee_api_instance_data
0000000000007e58 l     O .rodata	000000000000000b __func__.4337
0000000000000000 l    df *ABS*	0000000000000000 tee_api_panic.c
0000000000000000 l    df *ABS*	0000000000000000 mpa_misc.c
0000000000000000 l    df *ABS*	0000000000000000 mpa_montgomery.c
0000000000000000 l    df *ABS*	0000000000000000 mpa_primetest.c
0000000000008ad0 l     O .rodata	0000000000000010 const_miller_rabin_proof_limit
0000000000008ae0 l     O .rodata	000000000000001c proof_a.3550
0000000000008b00 l     O .rodata	000000000000000c const_two
0000000000008b10 l     O .rodata	00000000000000b8 const_small_prime_factors
0000000000000000 l    df *ABS*	0000000000000000 mpa_conv.c
0000000000000000 l    df *ABS*	0000000000000000 mpa_div.c
0000000000000000 l    df *ABS*	0000000000000000 mpa_gcd.c
0000000000005190 l     F .text	0000000000000080 __mpa_divby2
0000000000005210 l     F .text	000000000000016c __mpa_gcd.part.0
000000000000537c l     F .text	0000000000000380 __mpa_egcd
0000000000000000 l    df *ABS*	0000000000000000 mpa_mem_static.c
0000000000000000 l    df *ABS*	0000000000000000 mpa_mul.c
0000000000000000 l    df *ABS*	0000000000000000 mpa_random.c
0000000000000000 l    df *ABS*	0000000000000000 mpa_shift.c
0000000000000000 l    df *ABS*	0000000000000000 mpa_addsub.c
0000000000000000 l    df *ABS*	0000000000000000 mpa_cmp.c
0000000000000000 l    df *ABS*	0000000000000000 mpa_expmod.c
0000000000000000 l    df *ABS*	0000000000000000 mpa_init.c
0000000000000000 l    df *ABS*	0000000000000000 mpa_io.c
0000000000007030 l     F .text	0000000000000044 __mpa_word_to_hexstr
0000000000007074 l     F .text	0000000000000114 __mpa_mpanum_to_hexstr
0000000000007188 l     F .text	000000000000003c __mpa_isspace
0000000000008bd0 l     O .rodata	000000000000000c __func__.3624
0000000000008be0 l     O .rodata	000000000000000c __func__.3638
0000000000013bb8 l     O .bss	0000000000001002 buf.3610
0000000000000000 l    df *ABS*	0000000000000000 mpa_modulus.c
0000000000000000 l    df *ABS*	0000000000000000 snprintf.c
0000000000000000 l    df *ABS*	0000000000000000 memcmp.c
0000000000000000 l    df *ABS*	0000000000000000 memmove.c
0000000000000000 l    df *ABS*	0000000000000000 mempool.c
0000000000008bf0 l     O .rodata	0000000000000013 __func__.3181
0000000000000000 l    df *ABS*	0000000000000000 
00000000000096e0 l     O *ABS*	0000000000000000 _DYNAMIC
0000000000009578 l     O *ABS*	0000000000000000 _GLOBAL_OFFSET_TABLE_
0000000000003284 g     F .text	000000000000000c utee_se_channel_transmit
000000000000259c g     F .text	000000000000003c putchar
0000000000006fac g     F .text	000000000000001c mpa_init_static
0000000000003ed8 g     F .text	0000000000000054 mpa_copy
00000000000038b0 g     F .text	000000000000001c TEE_BigIntConvertToFMM
0000000000003790 g     F .text	000000000000000c TEE_BigIntSquareMod
000000000000340c g     F .text	0000000000000004 TEE_BigIntShiftRight
00000000000047e0 g     F .text	0000000000000074 mpa_get_S32
0000000000003f5c g     F .text	0000000000000044 mpa_highest_bit_index
000000000000314c g     F .text	000000000000000c utee_storage_obj_create
0000000000003260 g     F .text	000000000000000c utee_se_session_close
0000000000002f54 g     F .text	000000000000000c utee_return
0000000000003200 g     F .text	000000000000000c utee_se_service_get_readers
0000000000003e58 g     F .text	0000000000000008 TEE_Realloc
00000000000048d0 g     F .text	0000000000000148 __mpa_div_q_r_internal_word
00000000000067e4 g     F .text	000000000000019c mpa_sub
0000000000002490 g     F .text	00000000000000cc printf
0000000000002f60 g     F .text	000000000000000c utee_log
0000000000008bc8 g     O .rodata	0000000000000004 NR_STORED_PRIMES
0000000000003b34 g     F .text	00000000000000b4 TEE_InvokeTACommand
0000000000003fe4 g     F .text	000000000000001c mpa_can_hold
0000000000005ab8 g     F .text	0000000000000098 __mpa_abs_mul_word
0000000000004380 g     F .text	0000000000000088 mpa_montgomery_mul
000000000000147c g     F .text	0000000000000050 strndup
0000000000002350 g     F .text	0000000000000054 vsnprintk
0000000000004000 g     F .text	000000000000000c mpa_parity
0000000000007b24 g     F .text	000000000000004c memmove
000000000000636c g     F .text	0000000000000020 __mpa_full_adder_ackum
0000000000007a24 g     F .text	0000000000000078 snprintf
0000000000003408 g     F .text	0000000000000004 TEE_BigIntCmpS32
0000000000003444 g     F .text	000000000000000c TEE_BigIntAdd
0000000000002f84 g     F .text	000000000000000c utee_get_property_name_to_index
0000000000007d40 g     O .rodata	0000000000000008 ta_heap_size
0000000000008bcc g     O .rodata	0000000000000004 MAX_TABULATED_PRIME
0000000000003008 g     F .text	000000000000000c utee_cryp_state_alloc
0000000000003110 g     F .text	000000000000000c utee_authenc_enc_final
0000000000005a98 g     F .text	0000000000000020 __mpa_mul_add_word_cum
000000000000345c g     F .text	0000000000000004 TEE_BigIntNeg
00000000000050a0 g     F .text	00000000000000f0 mpa_div
0000000000000020 g       .text	0000000000000000 __text_start
0000000000007e68 g     O .rodata	000000000000000c const_one
0000000000001410 g     F .text	000000000000006c malloc_buffer_overlaps_heap
0000000000006cec g     F .text	0000000000000018 __mpa_abs_less_than
000000000000361c g     F .text	00000000000000a8 TEE_BigIntSubMod
0000000000005dec g     F .text	000000000000010c mpa_get_random
0000000000001564 g     F .text	0000000000000240 trace_printf
00000000000031e8 g     F .text	000000000000000c utee_se_service_open
00000000000014cc g     F .text	0000000000000020 memcpy
0000000000003020 g     F .text	000000000000000c utee_cryp_state_free
0000000000003ea8 g     F .text	0000000000000030 mpa_wipe
00000000000038cc g     F .text	0000000000000094 TEE_BigIntConvertFromFMM
0000000000003e7c g     F .text	0000000000000008 TEE_Panic
0000000000003278 g     F .text	000000000000000c utee_se_channel_get_select_resp
000000000000255c g     F .text	0000000000000040 puts
0000000000003960 g     F .text	0000000000000010 TEE_BigIntComputeFMM
0000000000004854 g     F .text	0000000000000014 mpa_set_word
0000000000000ca4 g     F .text	0000000000000030 malloc_get_stats
0000000000006058 g     F .text	0000000000000190 mpa_shift_left
0000000000003068 g     F .text	000000000000000c utee_cipher_final
0000000000005c44 g     F .text	00000000000000e4 mpa_mul
0000000000003dd4 g     F .text	0000000000000028 TEE_GetREETime
000000000000a000 g     O .data	00000000000000a8 ta_props
0000000000000cd4 g     F .text	0000000000000004 malloc
00000000000030a4 g     F .text	000000000000000c utee_cryp_obj_close
0000000000003224 g     F .text	000000000000000c utee_se_reader_open_session
0000000000007a9c g     F .text	0000000000000054 vsnprintf
000000000000a178 g     O .data	0000000000000004 trace_level
0000000000003404 g     F .text	0000000000000004 TEE_BigIntCmp
0000000000007d28 g     O .rodata	0000000000000008 ta_num_props
0000000000000a58 g     F .text	00000000000000c8 bgetr
0000000000003104 g     F .text	000000000000000c utee_authenc_update_payload
0000000000007c58 g     F .text	0000000000000040 mempool_free
00000000000033a0 g     F .text	0000000000000040 TEE_BigIntConvertToOctetString
000000000000329c g     F .text	000000000000000c utee_cache_operation
00000000000030ec g     F .text	000000000000000c utee_authenc_init
0000000000003410 g     F .text	000000000000001c TEE_BigIntGetBit
0000000000007d48 g     O .rodata	0000000000000003 trace_ext_prefix
000000000000638c g     F .text	00000000000000f4 __mpa_abs_add
0000000000000734 g     F .text	0000000000000088 bgetz
0000000000003c8c g     F .text	000000000000000c TEE_GetInstanceData
0000000000003cd8 g     F .text	000000000000003c TEE_Wait
00000000000031b8 g     F .text	000000000000000c utee_storage_obj_write
0000000000005a64 g     F .text	000000000000001c mpa_free_static_temp_var
0000000000004408 g     F .text	00000000000003ac mpa_is_prob_prime
0000000000003290 g     F .text	000000000000000c utee_se_channel_close
0000000000005d28 g     F .text	00000000000000c4 mpa_mul_word
0000000000003e6c g     F .text	0000000000000008 TEE_CacheFlush
0000000000000028 g     F .text	0000000000000004 TA_DestroyEntryPoint
00000000000025d8 g     F .text	0000000000000044 _assert_log
0000000000003364 g     F .text	0000000000000014 TEE_BigIntFMMContextSizeInU32
0000000000004a18 g     F .text	0000000000000688 __mpa_div_q_r
00000000000032ac g     F .text	0000000000000058 _TEE_MathAPI_Init
00000000000031a0 g     F .text	000000000000000c utee_storage_next_enum
000000000000a180 g     O .bss	0000000000008000 ta_heap
000000000000379c g     F .text	000000000000006c TEE_BigIntInvMod
0000000000000034 g     F .text	0000000000000004 TA_CloseSessionEntryPoint
0000000000002f6c g     F .text	000000000000000c __utee_panic
0000000000001508 g     F .text	0000000000000028 strnlen
0000000000003014 g     F .text	000000000000000c utee_cryp_state_copy
0000000000000038 g     F .text	0000000000000388 TA_InvokeCommandEntryPoint
00000000000074e8 g     F .text	0000000000000110 mpa_set_oct_str
0000000000003254 g     F .text	000000000000000c utee_se_session_open_channel
0000000000007bd8 g     F .text	0000000000000080 mempool_alloc
0000000000005f5c g     F .text	0000000000000098 __mpa_shift_words_left
0000000000003098 g     F .text	000000000000000c utee_cryp_obj_alloc
0000000000002ffc g     F .text	000000000000000c utee_set_ta_time
000000000000308c g     F .text	000000000000000c utee_cryp_obj_get_attr
0000000000004090 g     F .text	0000000000000090 __mpa_montgomery_sub_ack
0000000000000cec g     F .text	0000000000000070 calloc
0000000000003dfc g     F .text	000000000000005c TEE_Malloc
0000000000002fd8 g     F .text	000000000000000c utee_mask_cancellation
00000000000030b0 g     F .text	000000000000000c utee_cryp_obj_reset
0000000000003c6c g     F .text	0000000000000014 TEE_CheckMemoryAccessRights
0000000000014bc0 g       .bss	0000000000000000 __gprof_buf_end
0000000000006980 g     F .text	000000000000002c mpa_neg
0000000000007e98 g     O .rodata	0000000000000c38 PRIME_TABLE
000000000000002c g     F .text	0000000000000008 TA_OpenSessionEntryPoint
00000000000056fc g     F .text	0000000000000120 mpa_gcd
0000000000003f2c g     F .text	0000000000000030 mpa_abs
0000000000003194 g     F .text	000000000000000c utee_storage_start_enum
00000000000071cc g     F .text	0000000000000298 mpa_set_str
0000000000003164 g     F .text	000000000000000c utee_storage_obj_rename
00000000000121d0 g     O .bss	0000000000000004 ta_param_types
000000000000388c g     F .text	0000000000000024 TEE_BigIntIsProbablePrime
0000000000005a54 g     F .text	0000000000000010 mpa_alloc_static_temp_var
0000000000002f78 g     F .text	000000000000000c utee_get_property
0000000000002ac0 g     F .text	0000000000000094 __tee_socket_pta_open
0000000000003304 g     F .text	0000000000000004 TEE_BigIntInit
0000000000003c98 g     F .text	0000000000000008 TEE_MemMove
0000000000003378 g     F .text	0000000000000028 TEE_BigIntConvertFromOctetString
000000000000a160 g     O .data	0000000000000008 _ref__utee_mcount
0000000000002418 g     F .text	000000000000002c memchr
0000000000003c14 g     F .text	000000000000002c TEE_UnmaskCancellation
000000000000788c g     F .text	0000000000000084 mpa_mul_mod
0000000000003158 g     F .text	000000000000000c utee_storage_obj_del
000000000000a0e8 g     O .data	0000000000000008 TEE_tcpSocket
000000000000a0e0 g     O .data	0000000000000008 TEE_udpSocket
00000000000031d0 g     F .text	000000000000000c utee_storage_obj_seek
0000000000004244 g     F .text	000000000000013c mpa_compute_fmm_context
0000000000003038 g     F .text	000000000000000c utee_hash_update
00000000000032a8  w    F .text	0000000000000004 __utee_mcount
00000000000034e0 g     F .text	0000000000000094 TEE_BigIntMod
000000000000326c g     F .text	000000000000000c utee_se_channel_select_next
0000000000002f9c g     F .text	000000000000000c utee_close_ta_session
000000000000347c g     F .text	0000000000000064 TEE_BigIntDiv
0000000000000c8c g     F .text	0000000000000018 malloc_reset_stats
000000000000305c g     F .text	000000000000000c utee_cipher_update
0000000000003248 g     F .text	000000000000000c utee_se_session_get_atr
0000000000000d5c g     F .text	000000000000005c realloc
0000000000006480 g     F .text	00000000000000cc __mpa_abs_add_ackum
0000000000007b70 g     F .text	0000000000000068 mempool_alloc_pool
0000000000003134 g     F .text	000000000000000c utee_asymm_verify
0000000000003460 g     F .text	000000000000000c TEE_BigIntMul
0000000000004868 g     F .text	0000000000000018 mpa_get_word
0000000000003ca8 g     F .text	0000000000000008 TEE_MemFill
0000000000007af0 g     F .text	0000000000000034 memcmp
0000000000001160 g     F .text	0000000000000130 malloc_add_pool
0000000000001554 g     F .text	0000000000000010 trace_get_level
00000000000030e0 g     F .text	000000000000000c utee_cryp_random_number_generate
0000000000003354 g     F .text	0000000000000010 TEE_BigIntFMMSizeInU32
0000000000003308 g     F .text	0000000000000014 TEE_BigIntInitFMM
0000000000003128 g     F .text	000000000000000c utee_asymm_operate
0000000000002d40 g     F .text	0000000000000208 __utee_entry
0000000000007c98 g       .text	0000000000000000 __text_end
0000000000003808 g     F .text	0000000000000078 TEE_BigIntRelativePrime
0000000000005ef8 g     F .text	0000000000000064 mpa_get_random_digits
0000000000000b20 g     F .text	00000000000000d4 bpool
00000000000047b4 g     F .text	000000000000002c mpa_set_S32
0000000000006fc8 g     F .text	0000000000000068 mpa_init_static_fmm_context
0000000000003be8 g     F .text	000000000000002c TEE_GetCancellationFlag
00000000000031f4 g     F .text	000000000000000c utee_se_service_close
0000000000003d94 g     F .text	0000000000000040 TEE_SetTAPersistentTime
00000000000069ac g     F .text	000000000000013c mpa_add_word
0000000000002bdc g     F .text	0000000000000054 __tee_socket_pta_recv
000000000000320c g     F .text	000000000000000c utee_se_reader_get_prop
00000000000014ec g     F .text	000000000000001c memset
0000000000003d14 g     F .text	0000000000000080 TEE_GetTAPersistentTime
00000000000017a4 g     F .text	0000000000000004 dhex_dump
0000000000003c40 g     F .text	000000000000002c TEE_MaskCancellation
0000000000006348 g     F .text	0000000000000024 __mpa_full_sub
00000000000031ac g     F .text	000000000000000c utee_storage_obj_read
00000000000030bc g     F .text	000000000000000c utee_cryp_obj_populate
0000000000006d04 g     F .text	0000000000000068 mpa_cmp
0000000000007910 g     F .text	0000000000000114 mpa_inv_mod
0000000000006ae8 g     F .text	0000000000000138 mpa_sub_word
0000000000005a80 g     F .text	0000000000000018 __mpa_mul_add_word
0000000000006650 g     F .text	0000000000000194 mpa_add
0000000000006df0 g     F .text	00000000000001bc mpa_exp_mod
0000000000005ff4 g     F .text	0000000000000064 __mpa_shift_words_right
0000000000001530 g     F .text	0000000000000024 trace_set_level
000000000000323c g     F .text	000000000000000c utee_se_session_is_closed
0000000000003074 g     F .text	000000000000000c utee_cryp_obj_get_info
0000000000003170 g     F .text	000000000000000c utee_storage_alloc_enum
0000000000003188 g     F .text	000000000000000c utee_storage_reset_enum
00000000000031c4 g     F .text	000000000000000c utee_storage_obj_trunc
000000000000776c g     F .text	0000000000000018 mpa_mod
0000000000006cd0 g     F .text	000000000000001c __mpa_abs_greater_than
00000000000033e4 g     F .text	0000000000000020 TEE_BigIntConvertToS32
0000000000003450 g     F .text	000000000000000c TEE_BigIntSub
0000000000002fb4 g     F .text	000000000000000c utee_get_cancellation_flag
000000000000302c g     F .text	000000000000000c utee_hash_init
00000000000003c0 g     F .text	0000000000000008 tahead_get_trace_level
0000000000003998 g     F .text	0000000000000078 __utee_from_param
0000000000007e78 g     O .rodata	0000000000000010 Const_1_LShift_Base
0000000000003a10 g     F .text	000000000000006c __utee_to_param
0000000000000db8 g     F .text	00000000000003a8 memalign
00000000000033e0 g     F .text	0000000000000004 TEE_BigIntConvertFromS32
0000000000007808 g     F .text	0000000000000084 mpa_sub_mod
0000000000003080 g     F .text	000000000000000c utee_cryp_obj_restrict_usage
0000000000001290 g     F .text	0000000000000180 malloc_buffer_is_within_alloced
00000000000030c8 g     F .text	000000000000000c utee_cryp_obj_copy
00000000000061e8 g     F .text	0000000000000144 mpa_shift_right
000000000000331c g     F .text	0000000000000038 TEE_BigIntInitFMMContext
00000000000030d4 g     F .text	000000000000000c utee_cryp_derive_key
0000000000004120 g     F .text	0000000000000124 __mpa_montgomery_mul
00000000000075f8 g     F .text	0000000000000174 mpa_get_oct_str
0000000000006d6c g     F .text	0000000000000084 mpa_cmp_short
000000000000311c g     F .text	000000000000000c utee_authenc_dec_final
0000000000006c20 g     F .text	00000000000000b0 __mpa_abs_cmp
000000000000346c g     F .text	0000000000000010 TEE_BigIntSquare
0000000000000020 g     F .text	0000000000000008 TA_CreateEntryPoint
00000000000023a4 g     F .text	0000000000000074 snprintk
000000000000342c g     F .text	0000000000000018 TEE_BigIntGetBitCount
00000000000036c4 g     F .text	00000000000000cc TEE_BigIntMulMod
00000000000121d8 g     O .bss	0000000000000040 ta_params
0000000000005b50 g     F .text	00000000000000f4 __mpa_abs_mul
0000000000000518 g     F .text	00000000000001c0 bget
0000000000003e60 g     F .text	0000000000000004 TEE_Free
0000000000003218 g     F .text	000000000000000c utee_se_reader_get_name
0000000000003e74 g     F .text	0000000000000008 TEE_CacheInvalidate
0000000000003050 g     F .text	000000000000000c utee_cipher_init
000000000000261c g     F .text	0000000000000014 _assert_break
0000000000003574 g     F .text	00000000000000a8 TEE_BigIntAddMod
000000000000317c g     F .text	000000000000000c utee_storage_free_enum
00000000000030f8 g     F .text	000000000000000c utee_authenc_update_aad
0000000000003fa0 g     F .text	0000000000000044 mpa_get_bit
0000000000002b88 g     F .text	0000000000000054 __tee_socket_pta_send
0000000000003ca0 g     F .text	0000000000000008 TEE_MemCompare
00000000000017a8 g     F .text	0000000000000ba8 __vsnprintf
0000000000003a7c g     F .text	0000000000000090 TEE_OpenTASession
0000000000002f48 g     F .text	000000000000000c utee_panic
0000000000002b54 g     F .text	0000000000000034 __tee_socket_pta_close
0000000000002460 g     F .text	0000000000000028 trace_ext_puts
0000000000002488 g     F .text	0000000000000008 trace_ext_get_thread_id
0000000000002c30 g     F .text	0000000000000054 __tee_socket_pta_ioctl
0000000000003e64 g     F .text	0000000000000008 TEE_CacheClean
0000000000002f90 g     F .text	000000000000000c utee_open_ta_session
0000000000004880 g     F .text	0000000000000050 __mpa_div_dword
0000000000003e84 g     F .text	0000000000000024 __mpa_set_unused_digits_to_zero
0000000000007e88 g     O .rodata	000000000000000c const_largest_deci_base
00000000000071c4 g     F .text	0000000000000008 mpa_get_str_size
0000000000003044 g     F .text	000000000000000c utee_hash_final
0000000000002444 g     F .text	000000000000001c strlen
0000000000003880 g     F .text	000000000000000c TEE_BigIntComputeExtendedGcd
000000000000581c g     F .text	00000000000001ec mpa_extended_gcd
0000000000007784 g     F .text	0000000000000084 mpa_add_mod
0000000000003140 g     F .text	000000000000000c utee_storage_obj_open
0000000000002fa8 g     F .text	000000000000000c utee_invoke_ta_command
0000000000007464 g     F .text	0000000000000084 mpa_get_str
0000000000002fe4 g     F .text	000000000000000c utee_wait
0000000000003cb0 g     F .text	0000000000000028 TEE_GetSystemTime
0000000000000000 g     O .ta_head	0000000000000020 ta_head
00000000000007bc g     F .text	000000000000029c brel
0000000000005a08 g     F .text	000000000000004c mpa_alloc_static_temp_var_size
0000000000002ff0 g     F .text	000000000000000c utee_get_time
0000000000004018 g     F .text	0000000000000078 __mpa_montgomery_mul_add
0000000000003c80 g     F .text	000000000000000c TEE_SetInstanceData
0000000000002fcc g     F .text	000000000000000c utee_unmask_cancellation
0000000000002fc0 g     F .text	000000000000000c utee_check_access_rights
0000000000003230 g     F .text	000000000000000c utee_se_reader_close_sessions
00000000000031dc g     F .text	000000000000000c utee_cryp_obj_generate_key
0000000000003b0c g     F .text	0000000000000028 TEE_CloseTASession
000000000000400c g     F .text	000000000000000c mpa_constant_one
000000000000632c g     F .text	000000000000001c __mpa_full_adder
000000000000654c g     F .text	0000000000000104 __mpa_abs_sub
0000000000014bc0 g       .bss	0000000000000000 __gprof_buf_start
0000000000000cd8 g     F .text	0000000000000014 free
0000000000000bf4 g     F .text	0000000000000098 bstats



Disassembly of section .text:

0000000000000020 <TA_CreateEntryPoint>:
TA_CreateEntryPoint():
/home/lagadanu/Desktop/qemu/out-br/build/optee_test-1.0/ta/socket/ta_entry.c:40
      20:	52800000 	mov	w0, #0x0                   	// #0
      24:	d65f03c0 	ret

0000000000000028 <TA_DestroyEntryPoint>:
TA_DestroyEntryPoint():
/home/lagadanu/Desktop/qemu/out-br/build/optee_test-1.0/ta/socket/ta_entry.c:43
      28:	d65f03c0 	ret

000000000000002c <TA_OpenSessionEntryPoint>:
TA_OpenSessionEntryPoint():
/home/lagadanu/Desktop/qemu/out-br/build/optee_test-1.0/ta/socket/ta_entry.c:54
      2c:	52800000 	mov	w0, #0x0                   	// #0
      30:	d65f03c0 	ret

0000000000000034 <TA_CloseSessionEntryPoint>:
TA_CloseSessionEntryPoint():
/home/lagadanu/Desktop/qemu/out-br/build/optee_test-1.0/ta/socket/ta_entry.c:57
      34:	d65f03c0 	ret

0000000000000038 <TA_InvokeCommandEntryPoint>:
TA_InvokeCommandEntryPoint():
/home/lagadanu/Desktop/qemu/out-br/build/optee_test-1.0/ta/socket/ta_entry.c:264
      38:	a9b97bfd 	stp	x29, x30, [sp,#-112]!
/home/lagadanu/Desktop/qemu/out-br/build/optee_test-1.0/ta/socket/ta_entry.c:267
      3c:	7100183f 	cmp	w1, #0x6
/home/lagadanu/Desktop/qemu/out-br/build/optee_test-1.0/ta/socket/ta_entry.c:264
      40:	910003fd 	mov	x29, sp
      44:	a90153f3 	stp	x19, x20, [sp,#16]
/home/lagadanu/Desktop/qemu/out-br/build/optee_test-1.0/ta/socket/ta_entry.c:283
      48:	129fff34 	mov	w20, #0xffff0006            	// #-65530
/home/lagadanu/Desktop/qemu/out-br/build/optee_test-1.0/ta/socket/ta_entry.c:264
      4c:	a9025bf5 	stp	x21, x22, [sp,#32]
      50:	f9001bf7 	str	x23, [sp,#48]
/home/lagadanu/Desktop/qemu/out-br/build/optee_test-1.0/ta/socket/ta_entry.c:267
      54:	540002a8 	b.hi	a8 <TA_InvokeCommandEntryPoint+0x70>
      58:	f0000020 	adrp	x0, 7000 <mpa_init_static_fmm_context+0x38>
      5c:	aa0303f3 	mov	x19, x3
      60:	2a0203e5 	mov	w5, w2
      64:	91326000 	add	x0, x0, #0xc98
      68:	78615800 	ldrh	w0, [x0,w1,uxtw #1]
      6c:	10000061 	adr	x1, 78 <TA_InvokeCommandEntryPoint+0x40>
      70:	8b20a820 	add	x0, x1, w0, sxth #2
      74:	d61f0000 	br	x0
ta_entry_tcp_open():
/home/lagadanu/Desktop/qemu/out-br/build/optee_test-1.0/ta/socket/ta_entry.c:77
      78:	5284ca26 	mov	w6, #0x2651                	// #9809
      7c:	6b06005f 	cmp	w2, w6
      80:	54000200 	b.eq	c0 <TA_InvokeCommandEntryPoint+0x88>
/home/lagadanu/Desktop/qemu/out-br/build/optee_test-1.0/ta/socket/ta_entry.c:78
      84:	90000044 	adrp	x4, 8000 <PRIME_TABLE+0x168>
      88:	f0000020 	adrp	x0, 7000 <mpa_init_static_fmm_context+0x38>
      8c:	91300c84 	add	x4, x4, #0xc03
      90:	9132a000 	add	x0, x0, #0xca8
      94:	52800023 	mov	w3, #0x1                   	// #1
      98:	52800022 	mov	w2, #0x1                   	// #1
      9c:	528009e1 	mov	w1, #0x4f                  	// #79
ta_entry_udp_open():
/home/lagadanu/Desktop/qemu/out-br/build/optee_test-1.0/ta/socket/ta_entry.c:119
      a0:	129fff34 	mov	w20, #0xffff0006            	// #-65530
/home/lagadanu/Desktop/qemu/out-br/build/optee_test-1.0/ta/socket/ta_entry.c:117
      a4:	94000530 	bl	1564 <trace_printf>
TA_InvokeCommandEntryPoint():
/home/lagadanu/Desktop/qemu/out-br/build/optee_test-1.0/ta/socket/ta_entry.c:285
      a8:	2a1403e0 	mov	w0, w20
      ac:	f9401bf7 	ldr	x23, [sp,#48]
      b0:	a94153f3 	ldp	x19, x20, [sp,#16]
      b4:	a9425bf5 	ldp	x21, x22, [sp,#32]
      b8:	a8c77bfd 	ldp	x29, x30, [sp],#112
      bc:	d65f03c0 	ret
ta_entry_tcp_open():
/home/lagadanu/Desktop/qemu/out-br/build/optee_test-1.0/ta/socket/ta_entry.c:83
      c0:	91008075 	add	x21, x3, #0x20
      c4:	b9400aa0 	ldr	w0, [x21,#8]
      c8:	71003c1f 	cmp	w0, #0xf
      cc:	540000a8 	b.hi	e0 <TA_InvokeCommandEntryPoint+0xa8>
ta_entry_udp_open():
/home/lagadanu/Desktop/qemu/out-br/build/optee_test-1.0/ta/socket/ta_entry.c:123
      d0:	52800200 	mov	w0, #0x10                  	// #16
/home/lagadanu/Desktop/qemu/out-br/build/optee_test-1.0/ta/socket/ta_entry.c:124
      d4:	129ffdf4 	mov	w20, #0xffff0010            	// #-65520
/home/lagadanu/Desktop/qemu/out-br/build/optee_test-1.0/ta/socket/ta_entry.c:123
      d8:	b9000aa0 	str	w0, [x21,#8]
      dc:	17fffff3 	b	a8 <TA_InvokeCommandEntryPoint+0x70>
ta_entry_tcp_open():
/home/lagadanu/Desktop/qemu/out-br/build/optee_test-1.0/ta/socket/ta_entry.c:88
      e0:	b9400060 	ldr	w0, [x3]
/home/lagadanu/Desktop/qemu/out-br/build/optee_test-1.0/ta/socket/ta_entry.c:93
      e4:	129ffe74 	mov	w20, #0xffff000c            	// #-65524
/home/lagadanu/Desktop/qemu/out-br/build/optee_test-1.0/ta/socket/ta_entry.c:88
      e8:	b9005ba0 	str	w0, [x29,#88]
/home/lagadanu/Desktop/qemu/out-br/build/optee_test-1.0/ta/socket/ta_entry.c:89
      ec:	b9400460 	ldr	w0, [x3,#4]
      f0:	7900d3a0 	strh	w0, [x29,#104]
/home/lagadanu/Desktop/qemu/out-br/build/optee_test-1.0/ta/socket/ta_entry.c:90
      f4:	b9401861 	ldr	w1, [x3,#24]
      f8:	f9400860 	ldr	x0, [x3,#16]
      fc:	940004e0 	bl	147c <strndup>
     100:	f90033a0 	str	x0, [x29,#96]
/home/lagadanu/Desktop/qemu/out-br/build/optee_test-1.0/ta/socket/ta_entry.c:92
     104:	b4fffd20 	cbz	x0, a8 <TA_InvokeCommandEntryPoint+0x70>
/home/lagadanu/Desktop/qemu/out-br/build/optee_test-1.0/ta/socket/ta_entry.c:95
     108:	b0000040 	adrp	x0, 9000 <__func__.3181+0x410>
     10c:	f942d800 	ldr	x0, [x0,#1456]
ta_entry_udp_open():
/home/lagadanu/Desktop/qemu/out-br/build/optee_test-1.0/ta/socket/ta_entry.c:134
     110:	f9400000 	ldr	x0, [x0]
/home/lagadanu/Desktop/qemu/out-br/build/optee_test-1.0/ta/socket/ta_entry.c:135
     114:	910123b7 	add	x23, x29, #0x48
     118:	9100c262 	add	x2, x19, #0x30
     11c:	910163a1 	add	x1, x29, #0x58
     120:	f9400403 	ldr	x3, [x0,#8]
/home/lagadanu/Desktop/qemu/out-br/build/optee_test-1.0/ta/socket/ta_entry.c:134
     124:	f9002ba0 	str	x0, [x29,#80]
/home/lagadanu/Desktop/qemu/out-br/build/optee_test-1.0/ta/socket/ta_entry.c:135
     128:	aa1703e0 	mov	x0, x23
     12c:	d63f0060 	blr	x3
     130:	2a0003f4 	mov	w20, w0
/home/lagadanu/Desktop/qemu/out-br/build/optee_test-1.0/ta/socket/ta_entry.c:136
     134:	f94033a0 	ldr	x0, [x29,#96]
     138:	940002e8 	bl	cd8 <free>
/home/lagadanu/Desktop/qemu/out-br/build/optee_test-1.0/ta/socket/ta_entry.c:137
     13c:	35fffb74 	cbnz	w20, a8 <TA_InvokeCommandEntryPoint+0x70>
/home/lagadanu/Desktop/qemu/out-br/build/optee_test-1.0/ta/socket/ta_entry.c:138
     140:	f9401260 	ldr	x0, [x19,#32]
     144:	d2800216 	mov	x22, #0x10                  	// #16
     148:	aa1703e1 	mov	x1, x23
     14c:	aa1603e2 	mov	x2, x22
     150:	940004df 	bl	14cc <memcpy>
/home/lagadanu/Desktop/qemu/out-br/build/optee_test-1.0/ta/socket/ta_entry.c:139
     154:	b9000ab6 	str	w22, [x21,#8]
     158:	17ffffd4 	b	a8 <TA_InvokeCommandEntryPoint+0x70>
/home/lagadanu/Desktop/qemu/out-br/build/optee_test-1.0/ta/socket/ta_entry.c:116
     15c:	5284ca26 	mov	w6, #0x2651                	// #9809
     160:	6b06005f 	cmp	w2, w6
     164:	54000140 	b.eq	18c <TA_InvokeCommandEntryPoint+0x154>
/home/lagadanu/Desktop/qemu/out-br/build/optee_test-1.0/ta/socket/ta_entry.c:117
     168:	f0000020 	adrp	x0, 7000 <mpa_init_static_fmm_context+0x38>
     16c:	9132a000 	add	x0, x0, #0xca8
     170:	90000044 	adrp	x4, 8000 <PRIME_TABLE+0x168>
     174:	52800023 	mov	w3, #0x1                   	// #1
     178:	91300c84 	add	x4, x4, #0xc03
     17c:	52800022 	mov	w2, #0x1                   	// #1
     180:	52800ec1 	mov	w1, #0x76                  	// #118
     184:	91006000 	add	x0, x0, #0x18
     188:	17ffffc6 	b	a0 <TA_InvokeCommandEntryPoint+0x68>
/home/lagadanu/Desktop/qemu/out-br/build/optee_test-1.0/ta/socket/ta_entry.c:122
     18c:	91008075 	add	x21, x3, #0x20
     190:	b9400aa0 	ldr	w0, [x21,#8]
     194:	71003c1f 	cmp	w0, #0xf
     198:	54fff9c9 	b.ls	d0 <TA_InvokeCommandEntryPoint+0x98>
/home/lagadanu/Desktop/qemu/out-br/build/optee_test-1.0/ta/socket/ta_entry.c:127
     19c:	b9400060 	ldr	w0, [x3]
/home/lagadanu/Desktop/qemu/out-br/build/optee_test-1.0/ta/socket/ta_entry.c:132
     1a0:	129ffe74 	mov	w20, #0xffff000c            	// #-65524
/home/lagadanu/Desktop/qemu/out-br/build/optee_test-1.0/ta/socket/ta_entry.c:127
     1a4:	b9005ba0 	str	w0, [x29,#88]
/home/lagadanu/Desktop/qemu/out-br/build/optee_test-1.0/ta/socket/ta_entry.c:128
     1a8:	b9400460 	ldr	w0, [x3,#4]
     1ac:	7900d3a0 	strh	w0, [x29,#104]
/home/lagadanu/Desktop/qemu/out-br/build/optee_test-1.0/ta/socket/ta_entry.c:129
     1b0:	b9401861 	ldr	w1, [x3,#24]
     1b4:	f9400860 	ldr	x0, [x3,#16]
     1b8:	940004b1 	bl	147c <strndup>
     1bc:	f90033a0 	str	x0, [x29,#96]
/home/lagadanu/Desktop/qemu/out-br/build/optee_test-1.0/ta/socket/ta_entry.c:131
     1c0:	b4fff740 	cbz	x0, a8 <TA_InvokeCommandEntryPoint+0x70>
/home/lagadanu/Desktop/qemu/out-br/build/optee_test-1.0/ta/socket/ta_entry.c:134
     1c4:	b0000040 	adrp	x0, 9000 <__func__.3181+0x410>
     1c8:	f942dc00 	ldr	x0, [x0,#1464]
     1cc:	17ffffd1 	b	110 <TA_InvokeCommandEntryPoint+0xd8>
ta_entry_close():
/home/lagadanu/Desktop/qemu/out-br/build/optee_test-1.0/ta/socket/ta_entry.c:152
     1d0:	7100145f 	cmp	w2, #0x5
     1d4:	54000160 	b.eq	200 <TA_InvokeCommandEntryPoint+0x1c8>
/home/lagadanu/Desktop/qemu/out-br/build/optee_test-1.0/ta/socket/ta_entry.c:153
     1d8:	f0000020 	adrp	x0, 7000 <mpa_init_static_fmm_context+0x38>
     1dc:	9132a000 	add	x0, x0, #0xca8
     1e0:	90000044 	adrp	x4, 8000 <PRIME_TABLE+0x168>
     1e4:	528000a6 	mov	w6, #0x5                   	// #5
     1e8:	91300c84 	add	x4, x4, #0xc03
     1ec:	52800023 	mov	w3, #0x1                   	// #1
     1f0:	52800022 	mov	w2, #0x1                   	// #1
     1f4:	52801341 	mov	w1, #0x9a                  	// #154
     1f8:	9100c000 	add	x0, x0, #0x30
     1fc:	17ffffa9 	b	a0 <TA_InvokeCommandEntryPoint+0x68>
/home/lagadanu/Desktop/qemu/out-br/build/optee_test-1.0/ta/socket/ta_entry.c:158
     200:	b9400860 	ldr	w0, [x3,#8]
/home/lagadanu/Desktop/qemu/out-br/build/optee_test-1.0/ta/socket/ta_entry.c:159
     204:	129fff34 	mov	w20, #0xffff0006            	// #-65530
/home/lagadanu/Desktop/qemu/out-br/build/optee_test-1.0/ta/socket/ta_entry.c:158
     208:	7100401f 	cmp	w0, #0x10
     20c:	54fff4e1 	b.ne	a8 <TA_InvokeCommandEntryPoint+0x70>
/home/lagadanu/Desktop/qemu/out-br/build/optee_test-1.0/ta/socket/ta_entry.c:161
     210:	f9400060 	ldr	x0, [x3]
/home/lagadanu/Desktop/qemu/out-br/build/optee_test-1.0/ta/socket/ta_entry.c:162
     214:	f9400401 	ldr	x1, [x0,#8]
     218:	f9400000 	ldr	x0, [x0]
     21c:	f9400821 	ldr	x1, [x1,#16]
     220:	d63f0020 	blr	x1
ta_entry_ioctl():
/home/lagadanu/Desktop/qemu/out-br/build/optee_test-1.0/ta/socket/ta_entry.c:254
     224:	2a0003f4 	mov	w20, w0
     228:	17ffffa0 	b	a8 <TA_InvokeCommandEntryPoint+0x70>
ta_entry_send():
/home/lagadanu/Desktop/qemu/out-br/build/optee_test-1.0/ta/socket/ta_entry.c:174
     22c:	710d545f 	cmp	w2, #0x355
     230:	54000160 	b.eq	25c <TA_InvokeCommandEntryPoint+0x224>
/home/lagadanu/Desktop/qemu/out-br/build/optee_test-1.0/ta/socket/ta_entry.c:175
     234:	f0000020 	adrp	x0, 7000 <mpa_init_static_fmm_context+0x38>
     238:	9132a000 	add	x0, x0, #0xca8
     23c:	90000044 	adrp	x4, 8000 <PRIME_TABLE+0x168>
     240:	52806aa6 	mov	w6, #0x355                 	// #853
     244:	91300c84 	add	x4, x4, #0xc03
     248:	52800023 	mov	w3, #0x1                   	// #1
     24c:	52800022 	mov	w2, #0x1                   	// #1
     250:	52801601 	mov	w1, #0xb0                  	// #176
     254:	91010000 	add	x0, x0, #0x40
     258:	17ffff92 	b	a0 <TA_InvokeCommandEntryPoint+0x68>
/home/lagadanu/Desktop/qemu/out-br/build/optee_test-1.0/ta/socket/ta_entry.c:180
     25c:	b9400860 	ldr	w0, [x3,#8]
ta_entry_close():
/home/lagadanu/Desktop/qemu/out-br/build/optee_test-1.0/ta/socket/ta_entry.c:159
     260:	129fff34 	mov	w20, #0xffff0006            	// #-65530
ta_entry_send():
/home/lagadanu/Desktop/qemu/out-br/build/optee_test-1.0/ta/socket/ta_entry.c:180
     264:	7100401f 	cmp	w0, #0x10
     268:	54fff201 	b.ne	a8 <TA_InvokeCommandEntryPoint+0x70>
/home/lagadanu/Desktop/qemu/out-br/build/optee_test-1.0/ta/socket/ta_entry.c:183
     26c:	aa0303e0 	mov	x0, x3
/home/lagadanu/Desktop/qemu/out-br/build/optee_test-1.0/ta/socket/ta_entry.c:184
     270:	b9401861 	ldr	w1, [x3,#24]
/home/lagadanu/Desktop/qemu/out-br/build/optee_test-1.0/ta/socket/ta_entry.c:185
     274:	91009062 	add	x2, x3, #0x24
/home/lagadanu/Desktop/qemu/out-br/build/optee_test-1.0/ta/socket/ta_entry.c:183
     278:	f8420404 	ldr	x4, [x0],#32
/home/lagadanu/Desktop/qemu/out-br/build/optee_test-1.0/ta/socket/ta_entry.c:184
     27c:	b9000401 	str	w1, [x0,#4]
/home/lagadanu/Desktop/qemu/out-br/build/optee_test-1.0/ta/socket/ta_entry.c:185
     280:	b9402063 	ldr	w3, [x3,#32]
     284:	f9400480 	ldr	x0, [x4,#8]
     288:	f9400a61 	ldr	x1, [x19,#16]
     28c:	f9400c05 	ldr	x5, [x0,#24]
     290:	f9400080 	ldr	x0, [x4]
     294:	d63f00a0 	blr	x5
     298:	17ffffe3 	b	224 <TA_InvokeCommandEntryPoint+0x1ec>
ta_entry_recv():
/home/lagadanu/Desktop/qemu/out-br/build/optee_test-1.0/ta/socket/ta_entry.c:198
     29c:	7105945f 	cmp	w2, #0x165
     2a0:	54000160 	b.eq	2cc <TA_InvokeCommandEntryPoint+0x294>
/home/lagadanu/Desktop/qemu/out-br/build/optee_test-1.0/ta/socket/ta_entry.c:199
     2a4:	f0000020 	adrp	x0, 7000 <mpa_init_static_fmm_context+0x38>
     2a8:	9132a000 	add	x0, x0, #0xca8
     2ac:	90000044 	adrp	x4, 8000 <PRIME_TABLE+0x168>
     2b0:	52802ca6 	mov	w6, #0x165                 	// #357
     2b4:	91300c84 	add	x4, x4, #0xc03
     2b8:	52800023 	mov	w3, #0x1                   	// #1
     2bc:	52800022 	mov	w2, #0x1                   	// #1
     2c0:	52801901 	mov	w1, #0xc8                  	// #200
     2c4:	91014000 	add	x0, x0, #0x50
     2c8:	17ffff76 	b	a0 <TA_InvokeCommandEntryPoint+0x68>
/home/lagadanu/Desktop/qemu/out-br/build/optee_test-1.0/ta/socket/ta_entry.c:204
     2cc:	b9400860 	ldr	w0, [x3,#8]
ta_entry_close():
/home/lagadanu/Desktop/qemu/out-br/build/optee_test-1.0/ta/socket/ta_entry.c:159
     2d0:	129fff34 	mov	w20, #0xffff0006            	// #-65530
ta_entry_recv():
/home/lagadanu/Desktop/qemu/out-br/build/optee_test-1.0/ta/socket/ta_entry.c:204
     2d4:	7100401f 	cmp	w0, #0x10
     2d8:	54ffee81 	b.ne	a8 <TA_InvokeCommandEntryPoint+0x70>
/home/lagadanu/Desktop/qemu/out-br/build/optee_test-1.0/ta/socket/ta_entry.c:207
     2dc:	aa0303e2 	mov	x2, x3
/home/lagadanu/Desktop/qemu/out-br/build/optee_test-1.0/ta/socket/ta_entry.c:208
     2e0:	b9402063 	ldr	w3, [x3,#32]
/home/lagadanu/Desktop/qemu/out-br/build/optee_test-1.0/ta/socket/ta_entry.c:207
     2e4:	f8418440 	ldr	x0, [x2],#24
/home/lagadanu/Desktop/qemu/out-br/build/optee_test-1.0/ta/socket/ta_entry.c:208
     2e8:	f9400401 	ldr	x1, [x0,#8]
     2ec:	f9400000 	ldr	x0, [x0]
     2f0:	f9401024 	ldr	x4, [x1,#32]
     2f4:	f9400a61 	ldr	x1, [x19,#16]
     2f8:	d63f0080 	blr	x4
     2fc:	17ffffca 	b	224 <TA_InvokeCommandEntryPoint+0x1ec>
ta_entry_error():
/home/lagadanu/Desktop/qemu/out-br/build/optee_test-1.0/ta/socket/ta_entry.c:221
     300:	7100945f 	cmp	w2, #0x25
     304:	54000160 	b.eq	330 <TA_InvokeCommandEntryPoint+0x2f8>
/home/lagadanu/Desktop/qemu/out-br/build/optee_test-1.0/ta/socket/ta_entry.c:222
     308:	f0000020 	adrp	x0, 7000 <mpa_init_static_fmm_context+0x38>
     30c:	9132a000 	add	x0, x0, #0xca8
     310:	90000044 	adrp	x4, 8000 <PRIME_TABLE+0x168>
     314:	528004a6 	mov	w6, #0x25                  	// #37
     318:	91300c84 	add	x4, x4, #0xc03
     31c:	52800023 	mov	w3, #0x1                   	// #1
     320:	52800022 	mov	w2, #0x1                   	// #1
     324:	52801be1 	mov	w1, #0xdf                  	// #223
     328:	91018000 	add	x0, x0, #0x60
     32c:	17ffff5d 	b	a0 <TA_InvokeCommandEntryPoint+0x68>
/home/lagadanu/Desktop/qemu/out-br/build/optee_test-1.0/ta/socket/ta_entry.c:227
     330:	b9400860 	ldr	w0, [x3,#8]
ta_entry_close():
/home/lagadanu/Desktop/qemu/out-br/build/optee_test-1.0/ta/socket/ta_entry.c:159
     334:	129fff34 	mov	w20, #0xffff0006            	// #-65530
ta_entry_error():
/home/lagadanu/Desktop/qemu/out-br/build/optee_test-1.0/ta/socket/ta_entry.c:227
     338:	7100401f 	cmp	w0, #0x10
     33c:	54ffeb61 	b.ne	a8 <TA_InvokeCommandEntryPoint+0x70>
/home/lagadanu/Desktop/qemu/out-br/build/optee_test-1.0/ta/socket/ta_entry.c:230
     340:	f9400060 	ldr	x0, [x3]
/home/lagadanu/Desktop/qemu/out-br/build/optee_test-1.0/ta/socket/ta_entry.c:232
     344:	52800014 	mov	w20, #0x0                   	// #0
/home/lagadanu/Desktop/qemu/out-br/build/optee_test-1.0/ta/socket/ta_entry.c:231
     348:	f9400401 	ldr	x1, [x0,#8]
     34c:	f9400000 	ldr	x0, [x0]
     350:	f9401421 	ldr	x1, [x1,#40]
     354:	d63f0020 	blr	x1
     358:	b9001260 	str	w0, [x19,#16]
     35c:	17ffff53 	b	a8 <TA_InvokeCommandEntryPoint+0x70>
ta_entry_ioctl():
/home/lagadanu/Desktop/qemu/out-br/build/optee_test-1.0/ta/socket/ta_entry.c:244
     360:	7105d45f 	cmp	w2, #0x175
     364:	54000160 	b.eq	390 <TA_InvokeCommandEntryPoint+0x358>
/home/lagadanu/Desktop/qemu/out-br/build/optee_test-1.0/ta/socket/ta_entry.c:245
     368:	f0000020 	adrp	x0, 7000 <mpa_init_static_fmm_context+0x38>
     36c:	9132a000 	add	x0, x0, #0xca8
     370:	90000044 	adrp	x4, 8000 <PRIME_TABLE+0x168>
     374:	52802ea6 	mov	w6, #0x175                 	// #373
     378:	91300c84 	add	x4, x4, #0xc03
     37c:	52800023 	mov	w3, #0x1                   	// #1
     380:	52800022 	mov	w2, #0x1                   	// #1
     384:	52801ec1 	mov	w1, #0xf6                  	// #246
     388:	9101c000 	add	x0, x0, #0x70
     38c:	17ffff45 	b	a0 <TA_InvokeCommandEntryPoint+0x68>
/home/lagadanu/Desktop/qemu/out-br/build/optee_test-1.0/ta/socket/ta_entry.c:250
     390:	b9400860 	ldr	w0, [x3,#8]
ta_entry_close():
/home/lagadanu/Desktop/qemu/out-br/build/optee_test-1.0/ta/socket/ta_entry.c:159
     394:	129fff34 	mov	w20, #0xffff0006            	// #-65530
ta_entry_ioctl():
/home/lagadanu/Desktop/qemu/out-br/build/optee_test-1.0/ta/socket/ta_entry.c:250
     398:	7100401f 	cmp	w0, #0x10
     39c:	54ffe861 	b.ne	a8 <TA_InvokeCommandEntryPoint+0x70>
/home/lagadanu/Desktop/qemu/out-br/build/optee_test-1.0/ta/socket/ta_entry.c:253
     3a0:	f8418460 	ldr	x0, [x3],#24
/home/lagadanu/Desktop/qemu/out-br/build/optee_test-1.0/ta/socket/ta_entry.c:254
     3a4:	f9400a62 	ldr	x2, [x19,#16]
     3a8:	f9400401 	ldr	x1, [x0,#8]
     3ac:	f9400000 	ldr	x0, [x0]
     3b0:	f9401824 	ldr	x4, [x1,#48]
     3b4:	b9402261 	ldr	w1, [x19,#32]
     3b8:	d63f0080 	blr	x4
     3bc:	17ffff9a 	b	224 <TA_InvokeCommandEntryPoint+0x1ec>

00000000000003c0 <tahead_get_trace_level>:
tahead_get_trace_level():
/home/lagadanu/Desktop/qemu/optee_os/out/arm/export-ta_arm64/src/user_ta_header.c:107
     3c0:	52800040 	mov	w0, #0x2                   	// #2
     3c4:	d65f03c0 	ret

00000000000003c8 <raw_malloc_return_hook.isra.3>:
raw_malloc_return_hook():
/home/lagadanu/Desktop/qemu/optee_os/lib/libutils/isoc/bget_malloc.c:167
     3c8:	d0000083 	adrp	x3, 12000 <ta_heap+0x7e80>
     3cc:	91060064 	add	x4, x3, #0x180
     3d0:	b9402485 	ldr	w5, [x4,#36]
     3d4:	eb0200bf 	cmp	x5, x2
     3d8:	5400004a 	b.ge	3e0 <raw_malloc_return_hook.isra.3+0x18>
/home/lagadanu/Desktop/qemu/optee_os/lib/libutils/isoc/bget_malloc.c:168
     3dc:	b9002482 	str	w2, [x4,#36]
/home/lagadanu/Desktop/qemu/optee_os/lib/libutils/isoc/bget_malloc.c:170
     3e0:	b5000120 	cbnz	x0, 404 <raw_malloc_return_hook.isra.3+0x3c>
/home/lagadanu/Desktop/qemu/optee_os/lib/libutils/isoc/bget_malloc.c:171
     3e4:	91060060 	add	x0, x3, #0x180
     3e8:	b9402c03 	ldr	w3, [x0,#44]
     3ec:	11000463 	add	w3, w3, #0x1
     3f0:	b9002c03 	str	w3, [x0,#44]
/home/lagadanu/Desktop/qemu/optee_os/lib/libutils/isoc/bget_malloc.c:172
     3f4:	b9403003 	ldr	w3, [x0,#48]
     3f8:	eb01007f 	cmp	x3, x1
     3fc:	54000042 	b.cs	404 <raw_malloc_return_hook.isra.3+0x3c>
/home/lagadanu/Desktop/qemu/optee_os/lib/libutils/isoc/bget_malloc.c:174
     400:	29060801 	stp	w1, w2, [x0,#48]
     404:	d65f03c0 	ret

0000000000000408 <create_free_block.constprop.11>:
create_free_block():
/home/lagadanu/Desktop/qemu/optee_os/lib/libutils/isoc/bget_malloc.c:380
     408:	a9bf7bfd 	stp	x29, x30, [sp,#-16]!
/home/lagadanu/Desktop/qemu/optee_os/lib/libutils/isoc/bget_malloc.c:383
     40c:	8b010003 	add	x3, x0, x1
     410:	eb02007f 	cmp	x3, x2
/home/lagadanu/Desktop/qemu/optee_os/lib/libutils/isoc/bget_malloc.c:380
     414:	910003fd 	mov	x29, sp
/home/lagadanu/Desktop/qemu/optee_os/lib/libutils/isoc/bget_malloc.c:383
     418:	54000140 	b.eq	440 <create_free_block.constprop.11+0x38>
     41c:	f0000023 	adrp	x3, 7000 <mpa_init_static_fmm_context+0x38>
     420:	90000041 	adrp	x1, 8000 <PRIME_TABLE+0x168>
     424:	90000040 	adrp	x0, 8000 <PRIME_TABLE+0x168>
     428:	91354063 	add	x3, x3, #0xd50
     42c:	91335421 	add	x1, x1, #0xcd5
     430:	9133d400 	add	x0, x0, #0xcf5
     434:	52802fe2 	mov	w2, #0x17f                 	// #383
/home/lagadanu/Desktop/qemu/optee_os/lib/libutils/isoc/bget_malloc.c:384
     438:	94000868 	bl	25d8 <_assert_log>
     43c:	94000878 	bl	261c <_assert_break>
     440:	f9400462 	ldr	x2, [x3,#8]
     444:	b7f80122 	tbnz	x2, #63, 468 <create_free_block.constprop.11+0x60>
     448:	f0000023 	adrp	x3, 7000 <mpa_init_static_fmm_context+0x38>
     44c:	90000041 	adrp	x1, 8000 <PRIME_TABLE+0x168>
     450:	90000040 	adrp	x0, 8000 <PRIME_TABLE+0x168>
     454:	91354063 	add	x3, x3, #0xd50
     458:	52803002 	mov	w2, #0x180                 	// #384
     45c:	91335421 	add	x1, x1, #0xcd5
     460:	91344400 	add	x0, x0, #0xd11
     464:	17fffff5 	b	438 <create_free_block.constprop.11+0x30>
/home/lagadanu/Desktop/qemu/optee_os/lib/libutils/isoc/bget_malloc.c:386
     468:	f8616802 	ldr	x2, [x0,x1]
     46c:	b4000122 	cbz	x2, 490 <create_free_block.constprop.11+0x88>
     470:	f0000023 	adrp	x3, 7000 <mpa_init_static_fmm_context+0x38>
     474:	90000041 	adrp	x1, 8000 <PRIME_TABLE+0x168>
     478:	90000040 	adrp	x0, 8000 <PRIME_TABLE+0x168>
     47c:	91354063 	add	x3, x3, #0xd50
     480:	52803042 	mov	w2, #0x182                 	// #386
     484:	91335421 	add	x1, x1, #0xcd5
     488:	91347c00 	add	x0, x0, #0xd1f
     48c:	17ffffeb 	b	438 <create_free_block.constprop.11+0x30>
/home/lagadanu/Desktop/qemu/optee_os/lib/libutils/isoc/bget_malloc.c:389
     490:	a900041f 	stp	xzr, x1, [x0]
/home/lagadanu/Desktop/qemu/optee_os/lib/libutils/isoc/bget_malloc.c:393
     494:	f8216801 	str	x1, [x0,x1]
/home/lagadanu/Desktop/qemu/optee_os/lib/libutils/isoc/bget_malloc.c:396
     498:	d0000041 	adrp	x1, a000 <ta_props>
     49c:	9102a021 	add	x1, x1, #0xa8
     4a0:	f9400c23 	ldr	x3, [x1,#24]
     4a4:	f9400862 	ldr	x2, [x3,#16]
     4a8:	eb01005f 	cmp	x2, x1
     4ac:	54000120 	b.eq	4d0 <create_free_block.constprop.11+0xc8>
     4b0:	f0000023 	adrp	x3, 7000 <mpa_init_static_fmm_context+0x38>
     4b4:	90000041 	adrp	x1, 8000 <PRIME_TABLE+0x168>
     4b8:	90000040 	adrp	x0, 8000 <PRIME_TABLE+0x168>
     4bc:	91354063 	add	x3, x3, #0xd50
     4c0:	52803182 	mov	w2, #0x18c                 	// #396
     4c4:	91335421 	add	x1, x1, #0xcd5
     4c8:	9134c400 	add	x0, x0, #0xd31
     4cc:	17ffffdb 	b	438 <create_free_block.constprop.11+0x30>
/home/lagadanu/Desktop/qemu/optee_os/lib/libutils/isoc/bget_malloc.c:397
     4d0:	f9400841 	ldr	x1, [x2,#16]
     4d4:	f9400c21 	ldr	x1, [x1,#24]
     4d8:	eb02003f 	cmp	x1, x2
     4dc:	54000120 	b.eq	500 <create_free_block.constprop.11+0xf8>
     4e0:	f0000023 	adrp	x3, 7000 <mpa_init_static_fmm_context+0x38>
     4e4:	90000041 	adrp	x1, 8000 <PRIME_TABLE+0x168>
     4e8:	90000040 	adrp	x0, 8000 <PRIME_TABLE+0x168>
     4ec:	91354063 	add	x3, x3, #0xd50
     4f0:	528031a2 	mov	w2, #0x18d                 	// #397
     4f4:	91335421 	add	x1, x1, #0xcd5
     4f8:	9135b000 	add	x0, x0, #0xd6c
     4fc:	17ffffcf 	b	438 <create_free_block.constprop.11+0x30>
/home/lagadanu/Desktop/qemu/optee_os/lib/libutils/isoc/bget_malloc.c:399
     500:	a9010c01 	stp	x1, x3, [x0,#16]
/home/lagadanu/Desktop/qemu/optee_os/lib/libutils/isoc/bget_malloc.c:400
     504:	f9000c20 	str	x0, [x1,#24]
/home/lagadanu/Desktop/qemu/optee_os/lib/libutils/isoc/bget_malloc.c:401
     508:	f9400c01 	ldr	x1, [x0,#24]
     50c:	f9000820 	str	x0, [x1,#16]
/home/lagadanu/Desktop/qemu/optee_os/lib/libutils/isoc/bget_malloc.c:402
     510:	a8c17bfd 	ldp	x29, x30, [sp],#16
     514:	d65f03c0 	ret

0000000000000518 <bget>:
bget():
/home/lagadanu/Desktop/qemu/optee_os/lib/libutils/isoc/bget.c:576
     518:	a9bf7bfd 	stp	x29, x30, [sp,#-16]!
/home/lagadanu/Desktop/qemu/optee_os/lib/libutils/isoc/bget.c:587
     51c:	f100001f 	cmp	x0, #0x0
/home/lagadanu/Desktop/qemu/optee_os/lib/libutils/isoc/bget.c:576
     520:	910003fd 	mov	x29, sp
/home/lagadanu/Desktop/qemu/optee_os/lib/libutils/isoc/bget.c:587
     524:	5400016c 	b.gt	550 <bget+0x38>
/home/lagadanu/Desktop/qemu/optee_os/lib/libutils/isoc/bget.c:587 (discriminator 1)
     528:	f0000023 	adrp	x3, 7000 <mpa_init_static_fmm_context+0x38>
     52c:	91354063 	add	x3, x3, #0xd50
     530:	90000041 	adrp	x1, 8000 <PRIME_TABLE+0x168>
     534:	90000040 	adrp	x0, 8000 <PRIME_TABLE+0x168>
     538:	91006063 	add	x3, x3, #0x18
     53c:	91369c21 	add	x1, x1, #0xda7
     540:	913e7800 	add	x0, x0, #0xf9e
     544:	52804962 	mov	w2, #0x24b                 	// #587
/home/lagadanu/Desktop/qemu/optee_os/lib/libutils/isoc/bget.c:647 (discriminator 1)
     548:	94000824 	bl	25d8 <_assert_log>
     54c:	94000834 	bl	261c <_assert_break>
/home/lagadanu/Desktop/qemu/optee_os/lib/libutils/isoc/bget.c:594
     550:	f100401f 	cmp	x0, #0x10
     554:	d2800202 	mov	x2, #0x10                  	// #16
     558:	9a82a002 	csel	x2, x0, x2, ge
/home/lagadanu/Desktop/qemu/optee_os/lib/libutils/isoc/bget.c:608
     55c:	f9400820 	ldr	x0, [x1,#16]
/home/lagadanu/Desktop/qemu/optee_os/lib/libutils/isoc/bget.c:594
     560:	91003c42 	add	x2, x2, #0xf
     564:	927cec42 	and	x2, x2, #0xfffffffffffffff0
/home/lagadanu/Desktop/qemu/optee_os/lib/libutils/isoc/bget.c:598
     568:	91004042 	add	x2, x2, #0x10
/home/lagadanu/Desktop/qemu/optee_os/lib/libutils/isoc/bget.c:630
     56c:	eb01001f 	cmp	x0, x1
     570:	54000061 	b.ne	57c <bget+0x64>
/home/lagadanu/Desktop/qemu/optee_os/lib/libutils/isoc/bget.c:758
     574:	d2800000 	mov	x0, #0x0                   	// #0
     578:	1400001f 	b	5f4 <bget+0xdc>
/home/lagadanu/Desktop/qemu/optee_os/lib/libutils/isoc/bget.c:631
     57c:	f9400403 	ldr	x3, [x0,#8]
     580:	eb03005f 	cmp	x2, x3
     584:	54000a6c 	b.gt	6d0 <bget+0x1b8>
/home/lagadanu/Desktop/qemu/optee_os/lib/libutils/isoc/bget.c:642
     588:	cb020064 	sub	x4, x3, x2
     58c:	f100809f 	cmp	x4, #0x20
     590:	5400036d 	b.le	5fc <bget+0xe4>
/home/lagadanu/Desktop/qemu/optee_os/lib/libutils/isoc/bget.c:645
     594:	8b040005 	add	x5, x0, x4
/home/lagadanu/Desktop/qemu/optee_os/lib/libutils/isoc/bget.c:647
     598:	f86268a6 	ldr	x6, [x5,x2]
     59c:	eb06007f 	cmp	x3, x6
     5a0:	54000140 	b.eq	5c8 <bget+0xb0>
/home/lagadanu/Desktop/qemu/optee_os/lib/libutils/isoc/bget.c:647 (discriminator 1)
     5a4:	f0000023 	adrp	x3, 7000 <mpa_init_static_fmm_context+0x38>
     5a8:	91354063 	add	x3, x3, #0xd50
     5ac:	90000041 	adrp	x1, 8000 <PRIME_TABLE+0x168>
     5b0:	90000040 	adrp	x0, 8000 <PRIME_TABLE+0x168>
     5b4:	91006063 	add	x3, x3, #0x18
     5b8:	528050e2 	mov	w2, #0x287                 	// #647
     5bc:	91369c21 	add	x1, x1, #0xda7
     5c0:	91370000 	add	x0, x0, #0xdc0
     5c4:	17ffffe1 	b	548 <bget+0x30>
/home/lagadanu/Desktop/qemu/optee_os/lib/libutils/isoc/bget.c:649
     5c8:	f9000404 	str	x4, [x0,#8]
/home/lagadanu/Desktop/qemu/optee_os/lib/libutils/isoc/bget.c:651
     5cc:	f8246804 	str	x4, [x0,x4]
/home/lagadanu/Desktop/qemu/optee_os/lib/libutils/isoc/bget.c:653
     5d0:	cb0203e0 	neg	x0, x2
     5d4:	f90004a0 	str	x0, [x5,#8]
/home/lagadanu/Desktop/qemu/optee_os/lib/libutils/isoc/bget.c:658
     5d8:	f9401020 	ldr	x0, [x1,#32]
/home/lagadanu/Desktop/qemu/optee_os/lib/libutils/isoc/bget.c:655
     5dc:	f82268bf 	str	xzr, [x5,x2]
/home/lagadanu/Desktop/qemu/optee_os/lib/libutils/isoc/bget.c:658
     5e0:	8b020002 	add	x2, x0, x2
/home/lagadanu/Desktop/qemu/optee_os/lib/libutils/isoc/bget.c:659
     5e4:	f9401420 	ldr	x0, [x1,#40]
     5e8:	91000400 	add	x0, x0, #0x1
     5ec:	a9020022 	stp	x2, x0, [x1,#32]
/home/lagadanu/Desktop/qemu/optee_os/lib/libutils/isoc/bget.c:661
     5f0:	910040a0 	add	x0, x5, #0x10
/home/lagadanu/Desktop/qemu/optee_os/lib/libutils/isoc/bget.c:759
     5f4:	a8c17bfd 	ldp	x29, x30, [sp],#16
     5f8:	d65f03c0 	ret
/home/lagadanu/Desktop/qemu/optee_os/lib/libutils/isoc/bget.c:668
     5fc:	f8636802 	ldr	x2, [x0,x3]
/home/lagadanu/Desktop/qemu/optee_os/lib/libutils/isoc/bget.c:667
     600:	8b030005 	add	x5, x0, x3
/home/lagadanu/Desktop/qemu/optee_os/lib/libutils/isoc/bget.c:668
     604:	eb02007f 	cmp	x3, x2
     608:	54000140 	b.eq	630 <bget+0x118>
/home/lagadanu/Desktop/qemu/optee_os/lib/libutils/isoc/bget.c:668 (discriminator 1)
     60c:	f0000023 	adrp	x3, 7000 <mpa_init_static_fmm_context+0x38>
     610:	91354063 	add	x3, x3, #0xd50
     614:	90000041 	adrp	x1, 8000 <PRIME_TABLE+0x168>
     618:	90000040 	adrp	x0, 8000 <PRIME_TABLE+0x168>
     61c:	91006063 	add	x3, x3, #0x18
     620:	52805382 	mov	w2, #0x29c                 	// #668
     624:	91369c21 	add	x1, x1, #0xda7
     628:	91377000 	add	x0, x0, #0xddc
     62c:	17ffffc7 	b	548 <bget+0x30>
/home/lagadanu/Desktop/qemu/optee_os/lib/libutils/isoc/bget.c:673
     630:	f9400c02 	ldr	x2, [x0,#24]
     634:	f9400844 	ldr	x4, [x2,#16]
     638:	eb04001f 	cmp	x0, x4
     63c:	54000140 	b.eq	664 <bget+0x14c>
/home/lagadanu/Desktop/qemu/optee_os/lib/libutils/isoc/bget.c:673 (discriminator 1)
     640:	f0000023 	adrp	x3, 7000 <mpa_init_static_fmm_context+0x38>
     644:	91354063 	add	x3, x3, #0xd50
     648:	90000041 	adrp	x1, 8000 <PRIME_TABLE+0x168>
     64c:	90000040 	adrp	x0, 8000 <PRIME_TABLE+0x168>
     650:	91006063 	add	x3, x3, #0x18
     654:	52805422 	mov	w2, #0x2a1                 	// #673
     658:	91369c21 	add	x1, x1, #0xda7
     65c:	9137e000 	add	x0, x0, #0xdf8
     660:	17ffffba 	b	548 <bget+0x30>
/home/lagadanu/Desktop/qemu/optee_os/lib/libutils/isoc/bget.c:674
     664:	f9400804 	ldr	x4, [x0,#16]
     668:	f9400c86 	ldr	x6, [x4,#24]
     66c:	eb06001f 	cmp	x0, x6
     670:	54000140 	b.eq	698 <bget+0x180>
/home/lagadanu/Desktop/qemu/optee_os/lib/libutils/isoc/bget.c:674 (discriminator 1)
     674:	f0000023 	adrp	x3, 7000 <mpa_init_static_fmm_context+0x38>
     678:	91354063 	add	x3, x3, #0xd50
     67c:	90000041 	adrp	x1, 8000 <PRIME_TABLE+0x168>
     680:	90000040 	adrp	x0, 8000 <PRIME_TABLE+0x168>
     684:	91006063 	add	x3, x3, #0x18
     688:	52805442 	mov	w2, #0x2a2                 	// #674
     68c:	91369c21 	add	x1, x1, #0xda7
     690:	91384c00 	add	x0, x0, #0xe13
     694:	17ffffad 	b	548 <bget+0x30>
/home/lagadanu/Desktop/qemu/optee_os/lib/libutils/isoc/bget.c:675
     698:	f9000844 	str	x4, [x2,#16]
/home/lagadanu/Desktop/qemu/optee_os/lib/libutils/isoc/bget.c:690
     69c:	91004000 	add	x0, x0, #0x10
/home/lagadanu/Desktop/qemu/optee_os/lib/libutils/isoc/bget.c:676
     6a0:	f9400004 	ldr	x4, [x0]
     6a4:	f9000c82 	str	x2, [x4,#24]
/home/lagadanu/Desktop/qemu/optee_os/lib/libutils/isoc/bget.c:679
     6a8:	f9401022 	ldr	x2, [x1,#32]
     6ac:	8b030042 	add	x2, x2, x3
     6b0:	f9001022 	str	x2, [x1,#32]
/home/lagadanu/Desktop/qemu/optee_os/lib/libutils/isoc/bget.c:680
     6b4:	f9401422 	ldr	x2, [x1,#40]
/home/lagadanu/Desktop/qemu/optee_os/lib/libutils/isoc/bget.c:683
     6b8:	cb0303e3 	neg	x3, x3
/home/lagadanu/Desktop/qemu/optee_os/lib/libutils/isoc/bget.c:680
     6bc:	91000442 	add	x2, x2, #0x1
     6c0:	f9001422 	str	x2, [x1,#40]
/home/lagadanu/Desktop/qemu/optee_os/lib/libutils/isoc/bget.c:683
     6c4:	f81f8003 	stur	x3, [x0,#-8]
/home/lagadanu/Desktop/qemu/optee_os/lib/libutils/isoc/bget.c:687
     6c8:	f90000bf 	str	xzr, [x5]
/home/lagadanu/Desktop/qemu/optee_os/lib/libutils/isoc/bget.c:692
     6cc:	17ffffca 	b	5f4 <bget+0xdc>
/home/lagadanu/Desktop/qemu/optee_os/lib/libutils/isoc/bget.c:695
     6d0:	f9400800 	ldr	x0, [x0,#16]
     6d4:	17ffffa6 	b	56c <bget+0x54>

00000000000006d8 <raw_malloc.constprop.15>:
raw_malloc():
/home/lagadanu/Desktop/qemu/optee_os/lib/libutils/isoc/bget_malloc.c:288
     6d8:	a9bd7bfd 	stp	x29, x30, [sp,#-48]!
     6dc:	910003fd 	mov	x29, sp
     6e0:	a90153f3 	stp	x19, x20, [sp,#16]
     6e4:	aa0003f3 	mov	x19, x0
     6e8:	f90013f5 	str	x21, [sp,#32]
     6ec:	d0000054 	adrp	x20, a000 <ta_props>
/home/lagadanu/Desktop/qemu/optee_os/lib/libutils/isoc/bget_malloc.c:291
     6f0:	d2800015 	mov	x21, #0x0                   	// #0
/home/lagadanu/Desktop/qemu/optee_os/lib/libutils/isoc/bget_malloc.c:304
     6f4:	b7f800c0 	tbnz	x0, #63, 70c <raw_malloc.constprop.15+0x34>
/home/lagadanu/Desktop/qemu/optee_os/lib/libutils/isoc/bget_malloc.c:311
     6f8:	f100001f 	cmp	x0, #0x0
/home/lagadanu/Desktop/qemu/optee_os/lib/libutils/isoc/bget_malloc.c:313
     6fc:	9102a281 	add	x1, x20, #0xa8
     700:	9a9f1400 	csinc	x0, x0, xzr, ne
     704:	97ffff85 	bl	518 <bget>
     708:	aa0003f5 	mov	x21, x0
/home/lagadanu/Desktop/qemu/optee_os/lib/libutils/isoc/bget_malloc.c:315
     70c:	9102a294 	add	x20, x20, #0xa8
     710:	aa1303e1 	mov	x1, x19
     714:	aa1503e0 	mov	x0, x21
     718:	f9401282 	ldr	x2, [x20,#32]
     71c:	97ffff2b 	bl	3c8 <raw_malloc_return_hook.isra.3>
/home/lagadanu/Desktop/qemu/optee_os/lib/libutils/isoc/bget_malloc.c:318
     720:	aa1503e0 	mov	x0, x21
     724:	f94013f5 	ldr	x21, [sp,#32]
     728:	a94153f3 	ldp	x19, x20, [sp,#16]
     72c:	a8c37bfd 	ldp	x29, x30, [sp],#48
     730:	d65f03c0 	ret

0000000000000734 <bgetz>:
bgetz():
/home/lagadanu/Desktop/qemu/optee_os/lib/libutils/isoc/bget.c:768
     734:	a9be7bfd 	stp	x29, x30, [sp,#-32]!
     738:	910003fd 	mov	x29, sp
     73c:	a90153f3 	stp	x19, x20, [sp,#16]
     740:	aa0003f4 	mov	x20, x0
/home/lagadanu/Desktop/qemu/optee_os/lib/libutils/isoc/bget.c:769
     744:	97ffff75 	bl	518 <bget>
     748:	aa0003f3 	mov	x19, x0
/home/lagadanu/Desktop/qemu/optee_os/lib/libutils/isoc/bget.c:771
     74c:	b4000300 	cbz	x0, 7ac <bgetz+0x78>
/home/lagadanu/Desktop/qemu/optee_os/lib/libutils/isoc/bget.c:776
     750:	f85f8000 	ldur	x0, [x0,#-8]
/home/lagadanu/Desktop/qemu/optee_os/lib/libutils/isoc/bget.c:777
     754:	b50001e0 	cbnz	x0, 790 <bgetz+0x5c>
/home/lagadanu/Desktop/qemu/optee_os/lib/libutils/isoc/bget.c:781
     758:	f85e8262 	ldur	x2, [x19,#-24]
     75c:	d1006042 	sub	x2, x2, #0x18
/home/lagadanu/Desktop/qemu/optee_os/lib/libutils/isoc/bget.c:785
     760:	eb14005f 	cmp	x2, x20
     764:	540001ca 	b.ge	79c <bgetz+0x68>
     768:	f0000023 	adrp	x3, 7000 <mpa_init_static_fmm_context+0x38>
     76c:	91354063 	add	x3, x3, #0xd50
     770:	91008063 	add	x3, x3, #0x20
     774:	90000041 	adrp	x1, 8000 <PRIME_TABLE+0x168>
     778:	90000040 	adrp	x0, 8000 <PRIME_TABLE+0x168>
     77c:	91369c21 	add	x1, x1, #0xda7
     780:	9138b800 	add	x0, x0, #0xe2e
     784:	52806222 	mov	w2, #0x311                 	// #785
     788:	94000794 	bl	25d8 <_assert_log>
     78c:	940007a4 	bl	261c <_assert_break>
/home/lagadanu/Desktop/qemu/optee_os/lib/libutils/isoc/bget.c:783
     790:	928001e2 	mov	x2, #0xfffffffffffffff0    	// #-16
     794:	cb000042 	sub	x2, x2, x0
     798:	17fffff2 	b	760 <bgetz+0x2c>
memset_unchecked():
/home/lagadanu/Desktop/qemu/optee_os/lib/libutils/isoc/bget_malloc.c:141
     79c:	93407c42 	sxtw	x2, w2
     7a0:	52800001 	mov	w1, #0x0                   	// #0
     7a4:	aa1303e0 	mov	x0, x19
     7a8:	94000351 	bl	14ec <memset>
bgetz():
/home/lagadanu/Desktop/qemu/optee_os/lib/libutils/isoc/bget.c:789
     7ac:	aa1303e0 	mov	x0, x19
     7b0:	a94153f3 	ldp	x19, x20, [sp,#16]
     7b4:	a8c27bfd 	ldp	x29, x30, [sp],#32
     7b8:	d65f03c0 	ret

00000000000007bc <brel>:
brel():
/home/lagadanu/Desktop/qemu/optee_os/lib/libutils/isoc/bget.c:840
     7bc:	a9bf7bfd 	stp	x29, x30, [sp,#-16]!
     7c0:	910003fd 	mov	x29, sp
/home/lagadanu/Desktop/qemu/optee_os/lib/libutils/isoc/bget.c:846
     7c4:	f9401823 	ldr	x3, [x1,#48]
     7c8:	91000463 	add	x3, x3, #0x1
     7cc:	f9001823 	str	x3, [x1,#48]
/home/lagadanu/Desktop/qemu/optee_os/lib/libutils/isoc/bget.c:848
     7d0:	b5000160 	cbnz	x0, 7fc <brel+0x40>
/home/lagadanu/Desktop/qemu/optee_os/lib/libutils/isoc/bget.c:848 (discriminator 1)
     7d4:	f0000023 	adrp	x3, 7000 <mpa_init_static_fmm_context+0x38>
     7d8:	91354063 	add	x3, x3, #0xd50
     7dc:	90000041 	adrp	x1, 8000 <PRIME_TABLE+0x168>
     7e0:	90000040 	adrp	x0, 8000 <PRIME_TABLE+0x168>
     7e4:	9100a063 	add	x3, x3, #0x28
     7e8:	91369c21 	add	x1, x1, #0xda7
     7ec:	9138f000 	add	x0, x0, #0xe3c
     7f0:	52806a02 	mov	w2, #0x350                 	// #848
/home/lagadanu/Desktop/qemu/optee_os/lib/libutils/isoc/bget.c:879 (discriminator 1)
     7f4:	94000779 	bl	25d8 <_assert_log>
     7f8:	94000789 	bl	261c <_assert_break>
/home/lagadanu/Desktop/qemu/optee_os/lib/libutils/isoc/bget.c:876
     7fc:	f85f8003 	ldur	x3, [x0,#-8]
/home/lagadanu/Desktop/qemu/optee_os/lib/libutils/isoc/bget.c:879
     800:	b7f80143 	tbnz	x3, #63, 828 <brel+0x6c>
/home/lagadanu/Desktop/qemu/optee_os/lib/libutils/isoc/bget.c:879 (discriminator 1)
     804:	f0000023 	adrp	x3, 7000 <mpa_init_static_fmm_context+0x38>
     808:	91354063 	add	x3, x3, #0xd50
     80c:	90000041 	adrp	x1, 8000 <PRIME_TABLE+0x168>
     810:	90000040 	adrp	x0, 8000 <PRIME_TABLE+0x168>
     814:	9100a063 	add	x3, x3, #0x28
     818:	52806de2 	mov	w2, #0x36f                 	// #879
     81c:	91369c21 	add	x1, x1, #0xda7
     820:	91392000 	add	x0, x0, #0xe48
     824:	17fffff4 	b	7f4 <brel+0x38>
     828:	d1004002 	sub	x2, x0, #0x10
/home/lagadanu/Desktop/qemu/optee_os/lib/libutils/isoc/bget.c:885
     82c:	cb030044 	sub	x4, x2, x3
     830:	f9400084 	ldr	x4, [x4]
     834:	b4000144 	cbz	x4, 85c <brel+0xa0>
/home/lagadanu/Desktop/qemu/optee_os/lib/libutils/isoc/bget.c:885 (discriminator 1)
     838:	f0000023 	adrp	x3, 7000 <mpa_init_static_fmm_context+0x38>
     83c:	91354063 	add	x3, x3, #0xd50
     840:	90000041 	adrp	x1, 8000 <PRIME_TABLE+0x168>
     844:	90000040 	adrp	x0, 8000 <PRIME_TABLE+0x168>
     848:	9100a063 	add	x3, x3, #0x28
     84c:	52806ea2 	mov	w2, #0x375                 	// #885
     850:	91369c21 	add	x1, x1, #0xda7
     854:	91396000 	add	x0, x0, #0xe58
     858:	17ffffe7 	b	7f4 <brel+0x38>
/home/lagadanu/Desktop/qemu/optee_os/lib/libutils/isoc/bget.c:888
     85c:	f9401024 	ldr	x4, [x1,#32]
     860:	8b040064 	add	x4, x3, x4
     864:	f9001024 	str	x4, [x1,#32]
/home/lagadanu/Desktop/qemu/optee_os/lib/libutils/isoc/bget.c:889
     868:	b6f80144 	tbz	x4, #63, 890 <brel+0xd4>
/home/lagadanu/Desktop/qemu/optee_os/lib/libutils/isoc/bget.c:889 (discriminator 1)
     86c:	f0000023 	adrp	x3, 7000 <mpa_init_static_fmm_context+0x38>
     870:	91354063 	add	x3, x3, #0xd50
     874:	90000041 	adrp	x1, 8000 <PRIME_TABLE+0x168>
     878:	90000040 	adrp	x0, 8000 <PRIME_TABLE+0x168>
     87c:	9100a063 	add	x3, x3, #0x28
     880:	52806f22 	mov	w2, #0x379                 	// #889
     884:	91369c21 	add	x1, x1, #0xda7
     888:	913a1000 	add	x0, x0, #0xe84
     88c:	17ffffda 	b	7f4 <brel+0x38>
/home/lagadanu/Desktop/qemu/optee_os/lib/libutils/isoc/bget.c:894
     890:	f85f0004 	ldur	x4, [x0,#-16]
     894:	b4000424 	cbz	x4, 918 <brel+0x15c>
/home/lagadanu/Desktop/qemu/optee_os/lib/libutils/isoc/bget.c:905
     898:	cb040042 	sub	x2, x2, x4
     89c:	f9400440 	ldr	x0, [x2,#8]
     8a0:	eb00009f 	cmp	x4, x0
     8a4:	54000140 	b.eq	8cc <brel+0x110>
/home/lagadanu/Desktop/qemu/optee_os/lib/libutils/isoc/bget.c:905 (discriminator 1)
     8a8:	f0000023 	adrp	x3, 7000 <mpa_init_static_fmm_context+0x38>
     8ac:	91354063 	add	x3, x3, #0xd50
     8b0:	90000041 	adrp	x1, 8000 <PRIME_TABLE+0x168>
     8b4:	90000040 	adrp	x0, 8000 <PRIME_TABLE+0x168>
     8b8:	9100a063 	add	x3, x3, #0x28
     8bc:	52807122 	mov	w2, #0x389                 	// #905
     8c0:	91369c21 	add	x1, x1, #0xda7
     8c4:	913a6c00 	add	x0, x0, #0xe9b
     8c8:	17ffffcb 	b	7f4 <brel+0x38>
/home/lagadanu/Desktop/qemu/optee_os/lib/libutils/isoc/bget.c:907
     8cc:	cb030083 	sub	x3, x4, x3
     8d0:	f9000443 	str	x3, [x2,#8]
/home/lagadanu/Desktop/qemu/optee_os/lib/libutils/isoc/bget.c:927
     8d4:	f9400441 	ldr	x1, [x2,#8]
     8d8:	8b010040 	add	x0, x2, x1
/home/lagadanu/Desktop/qemu/optee_os/lib/libutils/isoc/bget.c:928
     8dc:	f9400403 	ldr	x3, [x0,#8]
     8e0:	f100007f 	cmp	x3, #0x0
     8e4:	540009cd 	b.le	a1c <brel+0x260>
/home/lagadanu/Desktop/qemu/optee_os/lib/libutils/isoc/bget.c:933
     8e8:	f8636804 	ldr	x4, [x0,x3]
     8ec:	eb04007f 	cmp	x3, x4
     8f0:	54000560 	b.eq	99c <brel+0x1e0>
/home/lagadanu/Desktop/qemu/optee_os/lib/libutils/isoc/bget.c:933 (discriminator 1)
     8f4:	f0000023 	adrp	x3, 7000 <mpa_init_static_fmm_context+0x38>
     8f8:	91354063 	add	x3, x3, #0xd50
     8fc:	90000041 	adrp	x1, 8000 <PRIME_TABLE+0x168>
     900:	90000040 	adrp	x0, 8000 <PRIME_TABLE+0x168>
     904:	9100a063 	add	x3, x3, #0x28
     908:	528074a2 	mov	w2, #0x3a5                 	// #933
     90c:	91369c21 	add	x1, x1, #0xda7
     910:	913b5000 	add	x0, x0, #0xed4
     914:	17ffffb8 	b	7f4 <brel+0x38>
/home/lagadanu/Desktop/qemu/optee_os/lib/libutils/isoc/bget.c:913
     918:	f9400c25 	ldr	x5, [x1,#24]
     91c:	f94008a4 	ldr	x4, [x5,#16]
     920:	eb01009f 	cmp	x4, x1
     924:	54000140 	b.eq	94c <brel+0x190>
/home/lagadanu/Desktop/qemu/optee_os/lib/libutils/isoc/bget.c:913 (discriminator 1)
     928:	f0000023 	adrp	x3, 7000 <mpa_init_static_fmm_context+0x38>
     92c:	91354063 	add	x3, x3, #0xd50
     930:	90000041 	adrp	x1, 8000 <PRIME_TABLE+0x168>
     934:	90000040 	adrp	x0, 8000 <PRIME_TABLE+0x168>
     938:	9100a063 	add	x3, x3, #0x28
     93c:	52807222 	mov	w2, #0x391                 	// #913
     940:	91369c21 	add	x1, x1, #0xda7
     944:	9134c400 	add	x0, x0, #0xd31
     948:	17ffffab 	b	7f4 <brel+0x38>
/home/lagadanu/Desktop/qemu/optee_os/lib/libutils/isoc/bget.c:914
     94c:	f9400881 	ldr	x1, [x4,#16]
     950:	f9400c21 	ldr	x1, [x1,#24]
     954:	eb01009f 	cmp	x4, x1
     958:	54000140 	b.eq	980 <brel+0x1c4>
/home/lagadanu/Desktop/qemu/optee_os/lib/libutils/isoc/bget.c:914 (discriminator 1)
     95c:	f0000023 	adrp	x3, 7000 <mpa_init_static_fmm_context+0x38>
     960:	91354063 	add	x3, x3, #0xd50
     964:	90000041 	adrp	x1, 8000 <PRIME_TABLE+0x168>
     968:	90000040 	adrp	x0, 8000 <PRIME_TABLE+0x168>
     96c:	9100a063 	add	x3, x3, #0x28
     970:	52807242 	mov	w2, #0x392                 	// #914
     974:	91369c21 	add	x1, x1, #0xda7
     978:	9135b000 	add	x0, x0, #0xd6c
     97c:	17ffff9e 	b	7f4 <brel+0x38>
/home/lagadanu/Desktop/qemu/optee_os/lib/libutils/isoc/bget.c:916
     980:	a9011444 	stp	x4, x5, [x2,#16]
/home/lagadanu/Desktop/qemu/optee_os/lib/libutils/isoc/bget.c:880
     984:	cb0303e3 	neg	x3, x3
/home/lagadanu/Desktop/qemu/optee_os/lib/libutils/isoc/bget.c:917
     988:	f9000c82 	str	x2, [x4,#24]
/home/lagadanu/Desktop/qemu/optee_os/lib/libutils/isoc/bget.c:918
     98c:	f9400c41 	ldr	x1, [x2,#24]
     990:	f9000822 	str	x2, [x1,#16]
/home/lagadanu/Desktop/qemu/optee_os/lib/libutils/isoc/bget.c:919
     994:	f81f8003 	stur	x3, [x0,#-8]
     998:	17ffffcf 	b	8d4 <brel+0x118>
/home/lagadanu/Desktop/qemu/optee_os/lib/libutils/isoc/bget.c:934
     99c:	f9400c04 	ldr	x4, [x0,#24]
     9a0:	f9400885 	ldr	x5, [x4,#16]
     9a4:	eb05001f 	cmp	x0, x5
     9a8:	54000140 	b.eq	9d0 <brel+0x214>
/home/lagadanu/Desktop/qemu/optee_os/lib/libutils/isoc/bget.c:934 (discriminator 1)
     9ac:	f0000023 	adrp	x3, 7000 <mpa_init_static_fmm_context+0x38>
     9b0:	91354063 	add	x3, x3, #0xd50
     9b4:	90000041 	adrp	x1, 8000 <PRIME_TABLE+0x168>
     9b8:	90000040 	adrp	x0, 8000 <PRIME_TABLE+0x168>
     9bc:	9100a063 	add	x3, x3, #0x28
     9c0:	528074c2 	mov	w2, #0x3a6                 	// #934
     9c4:	91369c21 	add	x1, x1, #0xda7
     9c8:	913c3400 	add	x0, x0, #0xf0d
     9cc:	17ffff8a 	b	7f4 <brel+0x38>
/home/lagadanu/Desktop/qemu/optee_os/lib/libutils/isoc/bget.c:935
     9d0:	f9400805 	ldr	x5, [x0,#16]
     9d4:	f9400ca6 	ldr	x6, [x5,#24]
     9d8:	eb06001f 	cmp	x0, x6
     9dc:	54000140 	b.eq	a04 <brel+0x248>
/home/lagadanu/Desktop/qemu/optee_os/lib/libutils/isoc/bget.c:935 (discriminator 1)
     9e0:	f0000023 	adrp	x3, 7000 <mpa_init_static_fmm_context+0x38>
     9e4:	91354063 	add	x3, x3, #0xd50
     9e8:	90000041 	adrp	x1, 8000 <PRIME_TABLE+0x168>
     9ec:	90000040 	adrp	x0, 8000 <PRIME_TABLE+0x168>
     9f0:	9100a063 	add	x3, x3, #0x28
     9f4:	528074e2 	mov	w2, #0x3a7                 	// #935
     9f8:	91369c21 	add	x1, x1, #0xda7
     9fc:	913ca800 	add	x0, x0, #0xf2a
     a00:	17ffff7d 	b	7f4 <brel+0x38>
/home/lagadanu/Desktop/qemu/optee_os/lib/libutils/isoc/bget.c:936
     a04:	f9000885 	str	x5, [x4,#16]
/home/lagadanu/Desktop/qemu/optee_os/lib/libutils/isoc/bget.c:937
     a08:	f9400800 	ldr	x0, [x0,#16]
     a0c:	f9000c04 	str	x4, [x0,#24]
/home/lagadanu/Desktop/qemu/optee_os/lib/libutils/isoc/bget.c:938
     a10:	8b030020 	add	x0, x1, x3
     a14:	f9000440 	str	x0, [x2,#8]
/home/lagadanu/Desktop/qemu/optee_os/lib/libutils/isoc/bget.c:947
     a18:	8b000040 	add	x0, x2, x0
/home/lagadanu/Desktop/qemu/optee_os/lib/libutils/isoc/bget.c:953
     a1c:	f9400401 	ldr	x1, [x0,#8]
     a20:	b7f80141 	tbnz	x1, #63, a48 <brel+0x28c>
/home/lagadanu/Desktop/qemu/optee_os/lib/libutils/isoc/bget.c:953 (discriminator 1)
     a24:	f0000023 	adrp	x3, 7000 <mpa_init_static_fmm_context+0x38>
     a28:	91354063 	add	x3, x3, #0xd50
     a2c:	90000041 	adrp	x1, 8000 <PRIME_TABLE+0x168>
     a30:	90000040 	adrp	x0, 8000 <PRIME_TABLE+0x168>
     a34:	9100a063 	add	x3, x3, #0x28
     a38:	52807722 	mov	w2, #0x3b9                 	// #953
     a3c:	91369c21 	add	x1, x1, #0xda7
     a40:	913d1c00 	add	x0, x0, #0xf47
     a44:	17ffff6c 	b	7f4 <brel+0x38>
/home/lagadanu/Desktop/qemu/optee_os/lib/libutils/isoc/bget.c:958
     a48:	f9400441 	ldr	x1, [x2,#8]
     a4c:	f9000001 	str	x1, [x0]
/home/lagadanu/Desktop/qemu/optee_os/lib/libutils/isoc/bget.c:986
     a50:	a8c17bfd 	ldp	x29, x30, [sp],#16
     a54:	d65f03c0 	ret

0000000000000a58 <bgetr>:
bgetr():
/home/lagadanu/Desktop/qemu/optee_os/lib/libutils/isoc/bget.c:800
     a58:	a9bc7bfd 	stp	x29, x30, [sp,#-64]!
     a5c:	910003fd 	mov	x29, sp
     a60:	a90153f3 	stp	x19, x20, [sp,#16]
     a64:	aa0103f4 	mov	x20, x1
     a68:	a9025bf5 	stp	x21, x22, [sp,#32]
/home/lagadanu/Desktop/qemu/optee_os/lib/libutils/isoc/bget.c:805
     a6c:	aa0203e1 	mov	x1, x2
/home/lagadanu/Desktop/qemu/optee_os/lib/libutils/isoc/bget.c:800
     a70:	f9001bf7 	str	x23, [sp,#48]
     a74:	aa0003f5 	mov	x21, x0
     a78:	aa0203f7 	mov	x23, x2
/home/lagadanu/Desktop/qemu/optee_os/lib/libutils/isoc/bget.c:805
     a7c:	aa1403e0 	mov	x0, x20
     a80:	97fffea6 	bl	518 <bget>
     a84:	aa0003f6 	mov	x22, x0
     a88:	b4000400 	cbz	x0, b08 <bgetr+0xb0>
/home/lagadanu/Desktop/qemu/optee_os/lib/libutils/isoc/bget.c:808
     a8c:	b40003f5 	cbz	x21, b08 <bgetr+0xb0>
/home/lagadanu/Desktop/qemu/optee_os/lib/libutils/isoc/bget.c:822
     a90:	f85f82a1 	ldur	x1, [x21,#-8]
     a94:	928001f3 	mov	x19, #0xfffffffffffffff0    	// #-16
     a98:	cb010273 	sub	x19, x19, x1
/home/lagadanu/Desktop/qemu/optee_os/lib/libutils/isoc/bget.c:823
     a9c:	f100027f 	cmp	x19, #0x0
     aa0:	5400016c 	b.gt	acc <bgetr+0x74>
     aa4:	f0000023 	adrp	x3, 7000 <mpa_init_static_fmm_context+0x38>
     aa8:	91354063 	add	x3, x3, #0xd50
     aac:	9100c063 	add	x3, x3, #0x30
     ab0:	90000041 	adrp	x1, 8000 <PRIME_TABLE+0x168>
     ab4:	90000040 	adrp	x0, 8000 <PRIME_TABLE+0x168>
     ab8:	91369c21 	add	x1, x1, #0xda7
     abc:	913d6000 	add	x0, x0, #0xf58
     ac0:	528066e2 	mov	w2, #0x337                 	// #823
     ac4:	940006c5 	bl	25d8 <_assert_log>
     ac8:	940006d5 	bl	261c <_assert_break>
/home/lagadanu/Desktop/qemu/optee_os/lib/libutils/isoc/bget.c:824
     acc:	eb13029f 	cmp	x20, x19
     ad0:	93407e81 	sxtw	x1, w20
     ad4:	93407e62 	sxtw	x2, w19
     ad8:	9a81a042 	csel	x2, x2, x1, ge
     adc:	aa1503e1 	mov	x1, x21
     ae0:	9400027b 	bl	14cc <memcpy>
/home/lagadanu/Desktop/qemu/optee_os/lib/libutils/isoc/bget.c:828
     ae4:	eb13029f 	cmp	x20, x19
     ae8:	540000ad 	b.le	afc <bgetr+0xa4>
/home/lagadanu/Desktop/qemu/optee_os/lib/libutils/isoc/bget.c:829
     aec:	cb130282 	sub	x2, x20, x19
     af0:	52800001 	mov	w1, #0x0                   	// #0
     af4:	8b1302c0 	add	x0, x22, x19
     af8:	9400027d 	bl	14ec <memset>
/home/lagadanu/Desktop/qemu/optee_os/lib/libutils/isoc/bget.c:831
     afc:	aa1703e1 	mov	x1, x23
     b00:	aa1503e0 	mov	x0, x21
     b04:	97ffff2e 	bl	7bc <brel>
/home/lagadanu/Desktop/qemu/optee_os/lib/libutils/isoc/bget.c:833
     b08:	aa1603e0 	mov	x0, x22
     b0c:	f9401bf7 	ldr	x23, [sp,#48]
     b10:	a94153f3 	ldp	x19, x20, [sp,#16]
     b14:	a9425bf5 	ldp	x21, x22, [sp,#32]
     b18:	a8c47bfd 	ldp	x29, x30, [sp],#64
     b1c:	d65f03c0 	ret

0000000000000b20 <bpool>:
bpool():
/home/lagadanu/Desktop/qemu/optee_os/lib/libutils/isoc/bget.c:1012
     b20:	a9bf7bfd 	stp	x29, x30, [sp,#-16]!
/home/lagadanu/Desktop/qemu/optee_os/lib/libutils/isoc/bget.c:1017
     b24:	927cec21 	and	x1, x1, #0xfffffffffffffff0
/home/lagadanu/Desktop/qemu/optee_os/lib/libutils/isoc/bget.c:1036
     b28:	f1004021 	subs	x1, x1, #0x10
/home/lagadanu/Desktop/qemu/optee_os/lib/libutils/isoc/bget.c:1012
     b2c:	910003fd 	mov	x29, sp
/home/lagadanu/Desktop/qemu/optee_os/lib/libutils/isoc/bget.c:1036
     b30:	54000165 	b.pl	b5c <bpool+0x3c>
     b34:	f0000023 	adrp	x3, 7000 <mpa_init_static_fmm_context+0x38>
     b38:	91354063 	add	x3, x3, #0xd50
     b3c:	90000041 	adrp	x1, 8000 <PRIME_TABLE+0x168>
     b40:	90000040 	adrp	x0, 8000 <PRIME_TABLE+0x168>
     b44:	9100e063 	add	x3, x3, #0x38
     b48:	91369c21 	add	x1, x1, #0xda7
     b4c:	913d8800 	add	x0, x0, #0xf62
     b50:	52808182 	mov	w2, #0x40c                 	// #1036
/home/lagadanu/Desktop/qemu/optee_os/lib/libutils/isoc/bget.c:1046 (discriminator 1)
     b54:	940006a1 	bl	25d8 <_assert_log>
     b58:	940006b1 	bl	261c <_assert_break>
/home/lagadanu/Desktop/qemu/optee_os/lib/libutils/isoc/bget.c:1046
     b5c:	f9400c44 	ldr	x4, [x2,#24]
     b60:	f9400883 	ldr	x3, [x4,#16]
/home/lagadanu/Desktop/qemu/optee_os/lib/libutils/isoc/bget.c:1042
     b64:	f900001f 	str	xzr, [x0]
/home/lagadanu/Desktop/qemu/optee_os/lib/libutils/isoc/bget.c:1046
     b68:	eb02007f 	cmp	x3, x2
     b6c:	54000140 	b.eq	b94 <bpool+0x74>
/home/lagadanu/Desktop/qemu/optee_os/lib/libutils/isoc/bget.c:1046 (discriminator 1)
     b70:	f0000023 	adrp	x3, 7000 <mpa_init_static_fmm_context+0x38>
     b74:	91354063 	add	x3, x3, #0xd50
     b78:	90000041 	adrp	x1, 8000 <PRIME_TABLE+0x168>
     b7c:	90000040 	adrp	x0, 8000 <PRIME_TABLE+0x168>
     b80:	9100e063 	add	x3, x3, #0x38
     b84:	528082c2 	mov	w2, #0x416                 	// #1046
     b88:	91369c21 	add	x1, x1, #0xda7
     b8c:	9134c400 	add	x0, x0, #0xd31
     b90:	17fffff1 	b	b54 <bpool+0x34>
/home/lagadanu/Desktop/qemu/optee_os/lib/libutils/isoc/bget.c:1047
     b94:	f9400862 	ldr	x2, [x3,#16]
     b98:	f9400c42 	ldr	x2, [x2,#24]
     b9c:	eb02007f 	cmp	x3, x2
     ba0:	54000140 	b.eq	bc8 <bpool+0xa8>
/home/lagadanu/Desktop/qemu/optee_os/lib/libutils/isoc/bget.c:1047 (discriminator 1)
     ba4:	f0000023 	adrp	x3, 7000 <mpa_init_static_fmm_context+0x38>
     ba8:	91354063 	add	x3, x3, #0xd50
     bac:	90000041 	adrp	x1, 8000 <PRIME_TABLE+0x168>
     bb0:	90000040 	adrp	x0, 8000 <PRIME_TABLE+0x168>
     bb4:	9100e063 	add	x3, x3, #0x38
     bb8:	528082e2 	mov	w2, #0x417                 	// #1047
     bbc:	91369c21 	add	x1, x1, #0xda7
     bc0:	9135b000 	add	x0, x0, #0xd6c
     bc4:	17ffffe4 	b	b54 <bpool+0x34>
/home/lagadanu/Desktop/qemu/optee_os/lib/libutils/isoc/bget.c:1049
     bc8:	a9011003 	stp	x3, x4, [x0,#16]
/home/lagadanu/Desktop/qemu/optee_os/lib/libutils/isoc/bget.c:1050
     bcc:	f9000c60 	str	x0, [x3,#24]
/home/lagadanu/Desktop/qemu/optee_os/lib/libutils/isoc/bget.c:1051
     bd0:	f9400c02 	ldr	x2, [x0,#24]
     bd4:	f9000840 	str	x0, [x2,#16]
/home/lagadanu/Desktop/qemu/optee_os/lib/libutils/isoc/bget.c:1067
     bd8:	8b010002 	add	x2, x0, x1
/home/lagadanu/Desktop/qemu/optee_os/lib/libutils/isoc/bget.c:1062
     bdc:	f9000401 	str	x1, [x0,#8]
/home/lagadanu/Desktop/qemu/optee_os/lib/libutils/isoc/bget.c:1068
     be0:	f8216801 	str	x1, [x0,x1]
/home/lagadanu/Desktop/qemu/optee_os/lib/libutils/isoc/bget.c:1071
     be4:	d2f00000 	mov	x0, #0x8000000000000000    	// #-9223372036854775808
     be8:	f9000440 	str	x0, [x2,#8]
/home/lagadanu/Desktop/qemu/optee_os/lib/libutils/isoc/bget.c:1072
     bec:	a8c17bfd 	ldp	x29, x30, [sp],#16
     bf0:	d65f03c0 	ret

0000000000000bf4 <bstats>:
bstats():
/home/lagadanu/Desktop/qemu/optee_os/lib/libutils/isoc/bget.c:1085
     bf4:	f94014a7 	ldr	x7, [x5,#40]
/home/lagadanu/Desktop/qemu/optee_os/lib/libutils/isoc/bget.c:1083
     bf8:	f94008a6 	ldr	x6, [x5,#16]
/home/lagadanu/Desktop/qemu/optee_os/lib/libutils/isoc/bget.c:1085
     bfc:	f9000067 	str	x7, [x3]
/home/lagadanu/Desktop/qemu/optee_os/lib/libutils/isoc/bget.c:1086
     c00:	f94018a3 	ldr	x3, [x5,#48]
     c04:	f9000083 	str	x3, [x4]
/home/lagadanu/Desktop/qemu/optee_os/lib/libutils/isoc/bget.c:1087
     c08:	f94010a3 	ldr	x3, [x5,#32]
     c0c:	f9000003 	str	x3, [x0]
/home/lagadanu/Desktop/qemu/optee_os/lib/libutils/isoc/bget.c:1089
     c10:	92800000 	mov	x0, #0xffffffffffffffff    	// #-1
/home/lagadanu/Desktop/qemu/optee_os/lib/libutils/isoc/bget.c:1088
     c14:	f900003f 	str	xzr, [x1]
/home/lagadanu/Desktop/qemu/optee_os/lib/libutils/isoc/bget.c:1089
     c18:	f9000040 	str	x0, [x2]
/home/lagadanu/Desktop/qemu/optee_os/lib/libutils/isoc/bget.c:1090
     c1c:	eb0500df 	cmp	x6, x5
     c20:	54000041 	b.ne	c28 <bstats+0x34>
     c24:	d65f03c0 	ret
/home/lagadanu/Desktop/qemu/optee_os/lib/libutils/isoc/bget.c:1091
     c28:	f94004c3 	ldr	x3, [x6,#8]
     c2c:	f100007f 	cmp	x3, #0x0
     c30:	540001ac 	b.gt	c64 <bstats+0x70>
/home/lagadanu/Desktop/qemu/optee_os/lib/libutils/isoc/bget.c:1091 (discriminator 1)
     c34:	f0000023 	adrp	x3, 7000 <mpa_init_static_fmm_context+0x38>
     c38:	91354063 	add	x3, x3, #0xd50
     c3c:	91010063 	add	x3, x3, #0x40
     c40:	90000041 	adrp	x1, 8000 <PRIME_TABLE+0x168>
     c44:	90000040 	adrp	x0, 8000 <PRIME_TABLE+0x168>
     c48:	91369c21 	add	x1, x1, #0xda7
     c4c:	913e5c00 	add	x0, x0, #0xf97
/home/lagadanu/Desktop/qemu/optee_os/lib/libutils/isoc/bget.c:1082 (discriminator 1)
     c50:	a9bf7bfd 	stp	x29, x30, [sp,#-16]!
/home/lagadanu/Desktop/qemu/optee_os/lib/libutils/isoc/bget.c:1091 (discriminator 1)
     c54:	52808862 	mov	w2, #0x443                 	// #1091
/home/lagadanu/Desktop/qemu/optee_os/lib/libutils/isoc/bget.c:1082 (discriminator 1)
     c58:	910003fd 	mov	x29, sp
/home/lagadanu/Desktop/qemu/optee_os/lib/libutils/isoc/bget.c:1091 (discriminator 1)
     c5c:	9400065f 	bl	25d8 <_assert_log>
     c60:	9400066f 	bl	261c <_assert_break>
/home/lagadanu/Desktop/qemu/optee_os/lib/libutils/isoc/bget.c:1092
     c64:	f9400020 	ldr	x0, [x1]
     c68:	8b030000 	add	x0, x0, x3
     c6c:	f9000020 	str	x0, [x1]
/home/lagadanu/Desktop/qemu/optee_os/lib/libutils/isoc/bget.c:1093
     c70:	f9400043 	ldr	x3, [x2]
     c74:	f94004c0 	ldr	x0, [x6,#8]
     c78:	eb03001f 	cmp	x0, x3
     c7c:	5400004d 	b.le	c84 <bstats+0x90>
/home/lagadanu/Desktop/qemu/optee_os/lib/libutils/isoc/bget.c:1094
     c80:	f9000040 	str	x0, [x2]
/home/lagadanu/Desktop/qemu/optee_os/lib/libutils/isoc/bget.c:1096
     c84:	f94008c6 	ldr	x6, [x6,#16]
     c88:	17ffffe5 	b	c1c <bstats+0x28>

0000000000000c8c <malloc_reset_stats>:
malloc_reset_stats():
/home/lagadanu/Desktop/qemu/optee_os/lib/libutils/isoc/bget_malloc.c:183
     c8c:	d0000080 	adrp	x0, 12000 <ta_heap+0x7e80>
     c90:	91060000 	add	x0, x0, #0x180
     c94:	b900241f 	str	wzr, [x0,#36]
/home/lagadanu/Desktop/qemu/optee_os/lib/libutils/isoc/bget_malloc.c:185
     c98:	2905fc1f 	stp	wzr, wzr, [x0,#44]
/home/lagadanu/Desktop/qemu/optee_os/lib/libutils/isoc/bget_malloc.c:186
     c9c:	b900341f 	str	wzr, [x0,#52]
     ca0:	d65f03c0 	ret

0000000000000ca4 <malloc_get_stats>:
malloc_get_stats():
/home/lagadanu/Desktop/qemu/optee_os/lib/libutils/isoc/bget_malloc.c:191
     ca4:	a9bf7bfd 	stp	x29, x30, [sp,#-16]!
/home/lagadanu/Desktop/qemu/optee_os/lib/libutils/isoc/bget_malloc.c:194
     ca8:	d2800702 	mov	x2, #0x38                  	// #56
     cac:	d0000081 	adrp	x1, 12000 <ta_heap+0x7e80>
     cb0:	91060021 	add	x1, x1, #0x180
/home/lagadanu/Desktop/qemu/optee_os/lib/libutils/isoc/bget_malloc.c:191
     cb4:	910003fd 	mov	x29, sp
/home/lagadanu/Desktop/qemu/optee_os/lib/libutils/isoc/bget_malloc.c:194
     cb8:	94000205 	bl	14cc <memcpy>
     cbc:	aa0003e3 	mov	x3, x0
/home/lagadanu/Desktop/qemu/optee_os/lib/libutils/isoc/bget_malloc.c:195
     cc0:	d0000040 	adrp	x0, a000 <ta_props>
     cc4:	f9406400 	ldr	x0, [x0,#200]
     cc8:	b9002060 	str	w0, [x3,#32]
/home/lagadanu/Desktop/qemu/optee_os/lib/libutils/isoc/bget_malloc.c:197
     ccc:	a8c17bfd 	ldp	x29, x30, [sp],#16
     cd0:	d65f03c0 	ret

0000000000000cd4 <malloc>:
malloc():
/home/lagadanu/Desktop/qemu/optee_os/lib/libutils/isoc/bget_malloc.c:821
     cd4:	17fffe81 	b	6d8 <raw_malloc.constprop.15>

0000000000000cd8 <free>:
raw_free():
/home/lagadanu/Desktop/qemu/optee_os/lib/libutils/isoc/bget_malloc.c:324
     cd8:	b4000080 	cbz	x0, ce8 <free+0x10>
/home/lagadanu/Desktop/qemu/optee_os/lib/libutils/isoc/bget_malloc.c:325
     cdc:	d0000041 	adrp	x1, a000 <ta_props>
     ce0:	9102a021 	add	x1, x1, #0xa8
     ce4:	17fffeb6 	b	7bc <brel>
     ce8:	d65f03c0 	ret

0000000000000cec <calloc>:
calloc():
/home/lagadanu/Desktop/qemu/optee_os/lib/libutils/isoc/bget_malloc.c:835
     cec:	a9bd7bfd 	stp	x29, x30, [sp,#-48]!
     cf0:	910003fd 	mov	x29, sp
     cf4:	a90153f3 	stp	x19, x20, [sp,#16]
raw_calloc():
/home/lagadanu/Desktop/qemu/optee_os/lib/libutils/isoc/bget_malloc.c:337
     cf8:	9b017c13 	mul	x19, x0, x1
     cfc:	9bc17c01 	umulh	x1, x0, x1
calloc():
/home/lagadanu/Desktop/qemu/optee_os/lib/libutils/isoc/bget_malloc.c:835
     d00:	f90013f5 	str	x21, [sp,#32]
raw_calloc():
/home/lagadanu/Desktop/qemu/optee_os/lib/libutils/isoc/bget_malloc.c:337
     d04:	d2800020 	mov	x0, #0x1                   	// #1
     d08:	d0000054 	adrp	x20, a000 <ta_props>
     d0c:	f100003f 	cmp	x1, #0x0
/home/lagadanu/Desktop/qemu/optee_os/lib/libutils/isoc/bget_malloc.c:331
     d10:	d2800015 	mov	x21, #0x0                   	// #0
/home/lagadanu/Desktop/qemu/optee_os/lib/libutils/isoc/bget_malloc.c:337
     d14:	9a9f07e1 	cset	x1, ne
     d18:	f100027f 	cmp	x19, #0x0
     d1c:	9a80a021 	csel	x1, x1, x0, ge
     d20:	b50000a1 	cbnz	x1, d34 <calloc+0x48>
/home/lagadanu/Desktop/qemu/optee_os/lib/libutils/isoc/bget_malloc.c:348
     d24:	9102a281 	add	x1, x20, #0xa8
     d28:	9a801260 	csel	x0, x19, x0, ne
     d2c:	97fffe82 	bl	734 <bgetz>
     d30:	aa0003f5 	mov	x21, x0
/home/lagadanu/Desktop/qemu/optee_os/lib/libutils/isoc/bget_malloc.c:350
     d34:	9102a294 	add	x20, x20, #0xa8
     d38:	aa1303e1 	mov	x1, x19
     d3c:	aa1503e0 	mov	x0, x21
     d40:	f9401282 	ldr	x2, [x20,#32]
     d44:	97fffda1 	bl	3c8 <raw_malloc_return_hook.isra.3>
calloc():
/home/lagadanu/Desktop/qemu/optee_os/lib/libutils/isoc/bget_malloc.c:842
     d48:	aa1503e0 	mov	x0, x21
     d4c:	f94013f5 	ldr	x21, [sp,#32]
     d50:	a94153f3 	ldp	x19, x20, [sp,#16]
     d54:	a8c37bfd 	ldp	x29, x30, [sp],#48
     d58:	d65f03c0 	ret

0000000000000d5c <realloc>:
realloc():
/home/lagadanu/Desktop/qemu/optee_os/lib/libutils/isoc/bget_malloc.c:850
     d5c:	a9bd7bfd 	stp	x29, x30, [sp,#-48]!
     d60:	910003fd 	mov	x29, sp
     d64:	a90153f3 	stp	x19, x20, [sp,#16]
     d68:	aa0103f3 	mov	x19, x1
     d6c:	f90013f5 	str	x21, [sp,#32]
     d70:	d0000054 	adrp	x20, a000 <ta_props>
raw_realloc():
/home/lagadanu/Desktop/qemu/optee_os/lib/libutils/isoc/bget_malloc.c:358
     d74:	d2800015 	mov	x21, #0x0                   	// #0
/home/lagadanu/Desktop/qemu/optee_os/lib/libutils/isoc/bget_malloc.c:362
     d78:	b7f800c1 	tbnz	x1, #63, d90 <realloc+0x34>
/home/lagadanu/Desktop/qemu/optee_os/lib/libutils/isoc/bget_malloc.c:371
     d7c:	f100003f 	cmp	x1, #0x0
/home/lagadanu/Desktop/qemu/optee_os/lib/libutils/isoc/bget_malloc.c:373
     d80:	9102a282 	add	x2, x20, #0xa8
     d84:	9a9f1421 	csinc	x1, x1, xzr, ne
     d88:	97ffff34 	bl	a58 <bgetr>
     d8c:	aa0003f5 	mov	x21, x0
/home/lagadanu/Desktop/qemu/optee_os/lib/libutils/isoc/bget_malloc.c:375
     d90:	9102a294 	add	x20, x20, #0xa8
     d94:	aa1303e1 	mov	x1, x19
     d98:	aa1503e0 	mov	x0, x21
     d9c:	f9401282 	ldr	x2, [x20,#32]
     da0:	97fffd8a 	bl	3c8 <raw_malloc_return_hook.isra.3>
realloc():
/home/lagadanu/Desktop/qemu/optee_os/lib/libutils/isoc/bget_malloc.c:857
     da4:	aa1503e0 	mov	x0, x21
     da8:	f94013f5 	ldr	x21, [sp,#32]
     dac:	a94153f3 	ldp	x19, x20, [sp,#16]
     db0:	a8c37bfd 	ldp	x29, x30, [sp],#48
     db4:	d65f03c0 	ret

0000000000000db8 <memalign>:
memalign():
/home/lagadanu/Desktop/qemu/optee_os/lib/libutils/isoc/bget_malloc.c:860
     db8:	a9bc7bfd 	stp	x29, x30, [sp,#-64]!
     dbc:	910003fd 	mov	x29, sp
     dc0:	a90153f3 	stp	x19, x20, [sp,#16]
     dc4:	aa0003f4 	mov	x20, x0
     dc8:	a9025bf5 	stp	x21, x22, [sp,#32]
     dcc:	f9001bf7 	str	x23, [sp,#48]
raw_memalign():
/home/lagadanu/Desktop/qemu/optee_os/lib/libutils/isoc/bget_malloc.c:535
     dd0:	b4001c40 	cbz	x0, 1158 <memalign+0x3a0>
     dd4:	cb0003f3 	neg	x19, x0
     dd8:	ea33001f 	bics	xzr, x0, x19
     ddc:	54001be1 	b.ne	1158 <memalign+0x3a0>
     de0:	aa0103e0 	mov	x0, x1
/home/lagadanu/Desktop/qemu/optee_os/lib/libutils/isoc/bget_malloc.c:542
     de4:	f100429f 	cmp	x20, #0x10
     de8:	540000c8 	b.hi	e00 <memalign+0x48>
memalign():
/home/lagadanu/Desktop/qemu/optee_os/lib/libutils/isoc/bget_malloc.c:867
     dec:	a94153f3 	ldp	x19, x20, [sp,#16]
     df0:	a9425bf5 	ldp	x21, x22, [sp,#32]
     df4:	f9401bf7 	ldr	x23, [sp,#48]
     df8:	a8c47bfd 	ldp	x29, x30, [sp],#64
raw_memalign():
/home/lagadanu/Desktop/qemu/optee_os/lib/libutils/isoc/bget_malloc.c:543
     dfc:	17fffe37 	b	6d8 <raw_malloc.constprop.15>
/home/lagadanu/Desktop/qemu/optee_os/lib/libutils/isoc/bget_malloc.c:545
     e00:	91008037 	add	x23, x1, #0x20
     e04:	8b1402f7 	add	x23, x23, x20
/home/lagadanu/Desktop/qemu/optee_os/lib/libutils/isoc/bget_malloc.c:549
     e08:	eb17029f 	cmp	x20, x23
     e0c:	fa579022 	ccmp	x1, x23, #0x2, ls
     e10:	54001a48 	b.hi	1158 <memalign+0x3a0>
     e14:	aa0103f5 	mov	x21, x1
/home/lagadanu/Desktop/qemu/optee_os/lib/libutils/isoc/bget_malloc.c:552
     e18:	d0000056 	adrp	x22, a000 <ta_props>
     e1c:	9102a2c1 	add	x1, x22, #0xa8
     e20:	aa1703e0 	mov	x0, x23
     e24:	97fffdbd 	bl	518 <bget>
     e28:	aa0003e1 	mov	x1, x0
/home/lagadanu/Desktop/qemu/optee_os/lib/libutils/isoc/bget_malloc.c:553
     e2c:	b40017e0 	cbz	x0, 1128 <memalign+0x370>
/home/lagadanu/Desktop/qemu/optee_os/lib/libutils/isoc/bget_malloc.c:556
     e30:	d1000680 	sub	x0, x20, #0x1
     e34:	ea00003f 	tst	x1, x0
     e38:	54000a80 	b.eq	f88 <memalign+0x1d0>
/home/lagadanu/Desktop/qemu/optee_os/lib/libutils/isoc/bget_malloc.c:569
     e3c:	8b010280 	add	x0, x20, x1
/home/lagadanu/Desktop/qemu/optee_os/lib/libutils/isoc/bget_malloc.c:574
     e40:	8b170037 	add	x23, x1, x23
/home/lagadanu/Desktop/qemu/optee_os/lib/libutils/isoc/bget_malloc.c:570
     e44:	8a000273 	and	x19, x19, x0
/home/lagadanu/Desktop/qemu/optee_os/lib/libutils/isoc/bget_malloc.c:572
     e48:	cb010260 	sub	x0, x19, x1
/home/lagadanu/Desktop/qemu/optee_os/lib/libutils/isoc/bget_malloc.c:573
     e4c:	8b140262 	add	x2, x19, x20
     e50:	f1007c1f 	cmp	x0, #0x1f
     e54:	9a939053 	csel	x19, x2, x19, ls
/home/lagadanu/Desktop/qemu/optee_os/lib/libutils/isoc/bget_malloc.c:574
     e58:	8b1302a0 	add	x0, x21, x19
     e5c:	eb17001f 	cmp	x0, x23
     e60:	54000169 	b.ls	e8c <memalign+0xd4>
     e64:	f0000023 	adrp	x3, 7000 <mpa_init_static_fmm_context+0x38>
     e68:	91354063 	add	x3, x3, #0xd50
     e6c:	90000041 	adrp	x1, 8000 <PRIME_TABLE+0x168>
     e70:	90000040 	adrp	x0, 8000 <PRIME_TABLE+0x168>
     e74:	91012063 	add	x3, x3, #0x48
     e78:	91335421 	add	x1, x1, #0xcd5
     e7c:	913e9c00 	add	x0, x0, #0xfa7
     e80:	528047c2 	mov	w2, #0x23e                 	// #574
brel_before():
/home/lagadanu/Desktop/qemu/optee_os/lib/libutils/isoc/bget_malloc.c:411
     e84:	940005d5 	bl	25d8 <_assert_log>
     e88:	940005e5 	bl	261c <_assert_break>
     e8c:	eb13003f 	cmp	x1, x19
     e90:	54000143 	b.cc	eb8 <memalign+0x100>
     e94:	f0000023 	adrp	x3, 7000 <mpa_init_static_fmm_context+0x38>
     e98:	91354063 	add	x3, x3, #0xd50
     e9c:	90000041 	adrp	x1, 8000 <PRIME_TABLE+0x168>
     ea0:	90000040 	adrp	x0, 8000 <PRIME_TABLE+0x168>
     ea4:	91016063 	add	x3, x3, #0x58
     ea8:	52803362 	mov	w2, #0x19b                 	// #411
     eac:	91335421 	add	x1, x1, #0xcd5
     eb0:	913f4c00 	add	x0, x0, #0xfd3
     eb4:	17fffff4 	b	e84 <memalign+0xcc>
/home/lagadanu/Desktop/qemu/optee_os/lib/libutils/isoc/bget_malloc.c:413
     eb8:	cb010274 	sub	x20, x19, x1
/home/lagadanu/Desktop/qemu/optee_os/lib/libutils/isoc/bget_malloc.c:414
     ebc:	f1007e9f 	cmp	x20, #0x1f
     ec0:	54000148 	b.hi	ee8 <memalign+0x130>
     ec4:	f0000023 	adrp	x3, 7000 <mpa_init_static_fmm_context+0x38>
     ec8:	91354063 	add	x3, x3, #0xd50
     ecc:	90000041 	adrp	x1, 8000 <PRIME_TABLE+0x168>
     ed0:	90000040 	adrp	x0, 8000 <PRIME_TABLE+0x168>
     ed4:	91016063 	add	x3, x3, #0x58
     ed8:	528033c2 	mov	w2, #0x19e                 	// #414
     edc:	91335421 	add	x1, x1, #0xcd5
     ee0:	913f9800 	add	x0, x0, #0xfe6
     ee4:	17ffffe8 	b	e84 <memalign+0xcc>
/home/lagadanu/Desktop/qemu/optee_os/lib/libutils/isoc/bget_malloc.c:418
     ee8:	f85f8022 	ldur	x2, [x1,#-8]
/home/lagadanu/Desktop/qemu/optee_os/lib/libutils/isoc/bget_malloc.c:417
     eec:	d1004020 	sub	x0, x1, #0x10
/home/lagadanu/Desktop/qemu/optee_os/lib/libutils/isoc/bget_malloc.c:423
     ef0:	f85f0021 	ldur	x1, [x1,#-16]
     ef4:	8b020282 	add	x2, x20, x2
     ef8:	b40003e1 	cbz	x1, f74 <memalign+0x1bc>
/home/lagadanu/Desktop/qemu/optee_os/lib/libutils/isoc/bget_malloc.c:428
     efc:	cb010000 	sub	x0, x0, x1
/home/lagadanu/Desktop/qemu/optee_os/lib/libutils/isoc/bget_malloc.c:429
     f00:	f9400403 	ldr	x3, [x0,#8]
     f04:	eb03003f 	cmp	x1, x3
     f08:	54000140 	b.eq	f30 <memalign+0x178>
     f0c:	f0000023 	adrp	x3, 7000 <mpa_init_static_fmm_context+0x38>
     f10:	91354063 	add	x3, x3, #0xd50
     f14:	90000041 	adrp	x1, 8000 <PRIME_TABLE+0x168>
     f18:	b0000040 	adrp	x0, 9000 <__func__.3181+0x410>
     f1c:	91016063 	add	x3, x3, #0x58
     f20:	528035a2 	mov	w2, #0x1ad                 	// #429
     f24:	91335421 	add	x1, x1, #0xcd5
     f28:	91003400 	add	x0, x0, #0xd
     f2c:	17ffffd6 	b	e84 <memalign+0xcc>
/home/lagadanu/Desktop/qemu/optee_os/lib/libutils/isoc/bget_malloc.c:430
     f30:	8b010281 	add	x1, x20, x1
     f34:	f9000401 	str	x1, [x0,#8]
/home/lagadanu/Desktop/qemu/optee_os/lib/libutils/isoc/bget_malloc.c:435
     f38:	a93f0a61 	stp	x1, x2, [x19,#-16]
/home/lagadanu/Desktop/qemu/optee_os/lib/libutils/isoc/bget_malloc.c:449
     f3c:	9102a2c1 	add	x1, x22, #0xa8
     f40:	f9401020 	ldr	x0, [x1,#32]
     f44:	cb140014 	sub	x20, x0, x20
     f48:	f9001034 	str	x20, [x1,#32]
/home/lagadanu/Desktop/qemu/optee_os/lib/libutils/isoc/bget_malloc.c:450
     f4c:	b6f80214 	tbz	x20, #63, f8c <memalign+0x1d4>
     f50:	f0000023 	adrp	x3, 7000 <mpa_init_static_fmm_context+0x38>
     f54:	91354063 	add	x3, x3, #0xd50
     f58:	91016063 	add	x3, x3, #0x58
     f5c:	52803842 	mov	w2, #0x1c2                 	// #450
brel_after():
/home/lagadanu/Desktop/qemu/optee_os/lib/libutils/isoc/bget_malloc.c:522
     f60:	90000041 	adrp	x1, 8000 <PRIME_TABLE+0x168>
     f64:	90000040 	adrp	x0, 8000 <PRIME_TABLE+0x168>
     f68:	91335421 	add	x1, x1, #0xcd5
     f6c:	913a1000 	add	x0, x0, #0xe84
     f70:	17ffffc5 	b	e84 <memalign+0xcc>
brel_before():
/home/lagadanu/Desktop/qemu/optee_os/lib/libutils/isoc/bget_malloc.c:443
     f74:	f81f8262 	stur	x2, [x19,#-8]
/home/lagadanu/Desktop/qemu/optee_os/lib/libutils/isoc/bget_malloc.c:445
     f78:	aa1403e1 	mov	x1, x20
     f7c:	d1004262 	sub	x2, x19, #0x10
     f80:	97fffd22 	bl	408 <create_free_block.constprop.11>
     f84:	17ffffee 	b	f3c <memalign+0x184>
raw_memalign():
/home/lagadanu/Desktop/qemu/optee_os/lib/libutils/isoc/bget_malloc.c:556
     f88:	aa0103f3 	mov	x19, x1
brel_after():
/home/lagadanu/Desktop/qemu/optee_os/lib/libutils/isoc/bget_malloc.c:466
     f8c:	f10042bf 	cmp	x21, #0x10
     f90:	d2800200 	mov	x0, #0x10                  	// #16
     f94:	9a8022a0 	csel	x0, x21, x0, cs
/home/lagadanu/Desktop/qemu/optee_os/lib/libutils/isoc/bget_malloc.c:470
     f98:	f85f8262 	ldur	x2, [x19,#-8]
/home/lagadanu/Desktop/qemu/optee_os/lib/libutils/isoc/bget_malloc.c:466
     f9c:	91003c00 	add	x0, x0, #0xf
/home/lagadanu/Desktop/qemu/optee_os/lib/libutils/isoc/bget_malloc.c:470
     fa0:	d1004264 	sub	x4, x19, #0x10
/home/lagadanu/Desktop/qemu/optee_os/lib/libutils/isoc/bget_malloc.c:466
     fa4:	927cec00 	and	x0, x0, #0xfffffffffffffff0
/home/lagadanu/Desktop/qemu/optee_os/lib/libutils/isoc/bget_malloc.c:470
     fa8:	cb0203f4 	neg	x20, x2
/home/lagadanu/Desktop/qemu/optee_os/lib/libutils/isoc/bget_malloc.c:469
     fac:	91004001 	add	x1, x0, #0x10
/home/lagadanu/Desktop/qemu/optee_os/lib/libutils/isoc/bget_malloc.c:470
     fb0:	eb14003f 	cmp	x1, x20
     fb4:	5400014d 	b.le	fdc <memalign+0x224>
     fb8:	f0000023 	adrp	x3, 7000 <mpa_init_static_fmm_context+0x38>
     fbc:	91354063 	add	x3, x3, #0xd50
     fc0:	90000041 	adrp	x1, 8000 <PRIME_TABLE+0x168>
     fc4:	b0000040 	adrp	x0, 9000 <__func__.3181+0x410>
     fc8:	9101a063 	add	x3, x3, #0x68
     fcc:	52803ac2 	mov	w2, #0x1d6                 	// #470
     fd0:	91335421 	add	x1, x1, #0xcd5
     fd4:	9100b800 	add	x0, x0, #0x2e
     fd8:	17ffffab 	b	e84 <memalign+0xcc>
/home/lagadanu/Desktop/qemu/optee_os/lib/libutils/isoc/bget_malloc.c:476
     fdc:	cb010294 	sub	x20, x20, x1
/home/lagadanu/Desktop/qemu/optee_os/lib/libutils/isoc/bget_malloc.c:477
     fe0:	f1007e9f 	cmp	x20, #0x1f
     fe4:	54000a4d 	b.le	112c <memalign+0x374>
/home/lagadanu/Desktop/qemu/optee_os/lib/libutils/isoc/bget_malloc.c:480
     fe8:	928001e3 	mov	x3, #0xfffffffffffffff0    	// #-16
     fec:	cb020063 	sub	x3, x3, x2
     ff0:	8b030262 	add	x2, x19, x3
/home/lagadanu/Desktop/qemu/optee_os/lib/libutils/isoc/bget_malloc.c:484
     ff4:	cb0103e1 	neg	x1, x1
     ff8:	f9000481 	str	x1, [x4,#8]
     ffc:	8b000260 	add	x0, x19, x0
/home/lagadanu/Desktop/qemu/optee_os/lib/libutils/isoc/bget_malloc.c:485
    1000:	f9400441 	ldr	x1, [x2,#8]
    1004:	f100003f 	cmp	x1, #0x0
    1008:	540008ad 	b.le	111c <memalign+0x364>
/home/lagadanu/Desktop/qemu/optee_os/lib/libutils/isoc/bget_malloc.c:491
    100c:	f8636a63 	ldr	x3, [x19,x3]
    1010:	b4000143 	cbz	x3, 1038 <memalign+0x280>
    1014:	d0000023 	adrp	x3, 7000 <mpa_init_static_fmm_context+0x38>
    1018:	91354063 	add	x3, x3, #0xd50
    101c:	f0000021 	adrp	x1, 8000 <PRIME_TABLE+0x168>
    1020:	90000040 	adrp	x0, 9000 <__func__.3181+0x410>
    1024:	9101a063 	add	x3, x3, #0x68
    1028:	52803d62 	mov	w2, #0x1eb                 	// #491
    102c:	91335421 	add	x1, x1, #0xcd5
    1030:	91011000 	add	x0, x0, #0x44
    1034:	17ffff94 	b	e84 <memalign+0xcc>
/home/lagadanu/Desktop/qemu/optee_os/lib/libutils/isoc/bget_malloc.c:492
    1038:	f8616843 	ldr	x3, [x2,x1]
    103c:	eb03003f 	cmp	x1, x3
    1040:	54000140 	b.eq	1068 <memalign+0x2b0>
    1044:	d0000023 	adrp	x3, 7000 <mpa_init_static_fmm_context+0x38>
    1048:	91354063 	add	x3, x3, #0xd50
    104c:	f0000021 	adrp	x1, 8000 <PRIME_TABLE+0x168>
    1050:	90000040 	adrp	x0, 9000 <__func__.3181+0x410>
    1054:	9101a063 	add	x3, x3, #0x68
    1058:	52803d82 	mov	w2, #0x1ec                 	// #492
    105c:	91335421 	add	x1, x1, #0xcd5
    1060:	91016800 	add	x0, x0, #0x5a
    1064:	17ffff88 	b	e84 <memalign+0xcc>
/home/lagadanu/Desktop/qemu/optee_os/lib/libutils/isoc/bget_malloc.c:496
    1068:	8b010283 	add	x3, x20, x1
    106c:	a9000c1f 	stp	xzr, x3, [x0]
/home/lagadanu/Desktop/qemu/optee_os/lib/libutils/isoc/bget_malloc.c:499
    1070:	f8616843 	ldr	x3, [x2,x1]
    1074:	8b140063 	add	x3, x3, x20
    1078:	f8216843 	str	x3, [x2,x1]
/home/lagadanu/Desktop/qemu/optee_os/lib/libutils/isoc/bget_malloc.c:505
    107c:	f9400c41 	ldr	x1, [x2,#24]
    1080:	f9400823 	ldr	x3, [x1,#16]
    1084:	eb03005f 	cmp	x2, x3
    1088:	54000140 	b.eq	10b0 <memalign+0x2f8>
    108c:	d0000023 	adrp	x3, 7000 <mpa_init_static_fmm_context+0x38>
    1090:	91354063 	add	x3, x3, #0xd50
    1094:	f0000021 	adrp	x1, 8000 <PRIME_TABLE+0x168>
    1098:	90000040 	adrp	x0, 9000 <__func__.3181+0x410>
    109c:	9101a063 	add	x3, x3, #0x68
    10a0:	52803f22 	mov	w2, #0x1f9                 	// #505
    10a4:	91335421 	add	x1, x1, #0xcd5
    10a8:	9101e400 	add	x0, x0, #0x79
    10ac:	17ffff76 	b	e84 <memalign+0xcc>
/home/lagadanu/Desktop/qemu/optee_os/lib/libutils/isoc/bget_malloc.c:506
    10b0:	f9400843 	ldr	x3, [x2,#16]
    10b4:	f9400c64 	ldr	x4, [x3,#24]
    10b8:	eb04005f 	cmp	x2, x4
    10bc:	54000140 	b.eq	10e4 <memalign+0x32c>
    10c0:	d0000023 	adrp	x3, 7000 <mpa_init_static_fmm_context+0x38>
    10c4:	91354063 	add	x3, x3, #0xd50
    10c8:	f0000021 	adrp	x1, 8000 <PRIME_TABLE+0x168>
    10cc:	90000040 	adrp	x0, 9000 <__func__.3181+0x410>
    10d0:	9101a063 	add	x3, x3, #0x68
    10d4:	52803f42 	mov	w2, #0x1fa                 	// #506
    10d8:	91335421 	add	x1, x1, #0xcd5
    10dc:	91026000 	add	x0, x0, #0x98
    10e0:	17ffff69 	b	e84 <memalign+0xcc>
/home/lagadanu/Desktop/qemu/optee_os/lib/libutils/isoc/bget_malloc.c:509
    10e4:	a9010403 	stp	x3, x1, [x0,#16]
/home/lagadanu/Desktop/qemu/optee_os/lib/libutils/isoc/bget_malloc.c:513
    10e8:	f9000820 	str	x0, [x1,#16]
/home/lagadanu/Desktop/qemu/optee_os/lib/libutils/isoc/bget_malloc.c:514
    10ec:	f9400801 	ldr	x1, [x0,#16]
    10f0:	f9000c20 	str	x0, [x1,#24]
/home/lagadanu/Desktop/qemu/optee_os/lib/libutils/isoc/bget_malloc.c:521
    10f4:	9102a2c1 	add	x1, x22, #0xa8
    10f8:	f9401020 	ldr	x0, [x1,#32]
    10fc:	cb140014 	sub	x20, x0, x20
    1100:	f9001034 	str	x20, [x1,#32]
/home/lagadanu/Desktop/qemu/optee_os/lib/libutils/isoc/bget_malloc.c:522
    1104:	b6f80154 	tbz	x20, #63, 112c <memalign+0x374>
    1108:	d0000023 	adrp	x3, 7000 <mpa_init_static_fmm_context+0x38>
    110c:	91354063 	add	x3, x3, #0xd50
    1110:	9101a063 	add	x3, x3, #0x68
    1114:	52804142 	mov	w2, #0x20a                 	// #522
    1118:	17ffff92 	b	f60 <memalign+0x1a8>
/home/lagadanu/Desktop/qemu/optee_os/lib/libutils/isoc/bget_malloc.c:517
    111c:	aa1403e1 	mov	x1, x20
    1120:	97fffcba 	bl	408 <create_free_block.constprop.11>
    1124:	17fffff4 	b	10f4 <memalign+0x33c>
raw_memalign():
/home/lagadanu/Desktop/qemu/optee_os/lib/libutils/isoc/bget_malloc.c:553
    1128:	d2800013 	mov	x19, #0x0                   	// #0
/home/lagadanu/Desktop/qemu/optee_os/lib/libutils/isoc/bget_malloc.c:589
    112c:	9102a2d6 	add	x22, x22, #0xa8
    1130:	aa1503e1 	mov	x1, x21
    1134:	aa1303e0 	mov	x0, x19
    1138:	f94012c2 	ldr	x2, [x22,#32]
    113c:	97fffca3 	bl	3c8 <raw_malloc_return_hook.isra.3>
memalign():
/home/lagadanu/Desktop/qemu/optee_os/lib/libutils/isoc/bget_malloc.c:867
    1140:	aa1303e0 	mov	x0, x19
    1144:	f9401bf7 	ldr	x23, [sp,#48]
    1148:	a94153f3 	ldp	x19, x20, [sp,#16]
    114c:	a9425bf5 	ldp	x21, x22, [sp,#32]
    1150:	a8c47bfd 	ldp	x29, x30, [sp],#64
    1154:	d65f03c0 	ret
raw_memalign():
/home/lagadanu/Desktop/qemu/optee_os/lib/libutils/isoc/bget_malloc.c:536
    1158:	d2800013 	mov	x19, #0x0                   	// #0
memalign():
/home/lagadanu/Desktop/qemu/optee_os/lib/libutils/isoc/bget_malloc.c:866
    115c:	17fffff9 	b	1140 <memalign+0x388>

0000000000001160 <malloc_add_pool>:
malloc_add_pool():
/home/lagadanu/Desktop/qemu/optee_os/lib/libutils/isoc/bget_malloc.c:878
    1160:	a9bb7bfd 	stp	x29, x30, [sp,#-80]!
    1164:	910003fd 	mov	x29, sp
    1168:	a90153f3 	stp	x19, x20, [sp,#16]
/home/lagadanu/Desktop/qemu/optee_os/lib/libutils/isoc/bget_malloc.c:883
    116c:	8b010014 	add	x20, x0, x1
/home/lagadanu/Desktop/qemu/optee_os/lib/libutils/isoc/bget_malloc.c:878
    1170:	a9025bf5 	stp	x21, x22, [sp,#32]
/home/lagadanu/Desktop/qemu/optee_os/lib/libutils/isoc/bget_malloc.c:889
    1174:	91003c00 	add	x0, x0, #0xf
/home/lagadanu/Desktop/qemu/optee_os/lib/libutils/isoc/bget_malloc.c:878
    1178:	a90363f7 	stp	x23, x24, [sp,#48]
/home/lagadanu/Desktop/qemu/optee_os/lib/libutils/isoc/bget_malloc.c:889
    117c:	927cec15 	and	x21, x0, #0xfffffffffffffff0
/home/lagadanu/Desktop/qemu/optee_os/lib/libutils/isoc/bget_malloc.c:878
    1180:	a9046bf9 	stp	x25, x26, [sp,#64]
/home/lagadanu/Desktop/qemu/optee_os/lib/libutils/isoc/bget_malloc.c:890
    1184:	927cee94 	and	x20, x20, #0xfffffffffffffff0
/home/lagadanu/Desktop/qemu/optee_os/lib/libutils/isoc/bget_malloc.c:891
    1188:	eb1402bf 	cmp	x21, x20
    118c:	54000163 	b.cc	11b8 <malloc_add_pool+0x58>
/home/lagadanu/Desktop/qemu/optee_os/lib/libutils/isoc/bget_malloc.c:891 (discriminator 1)
    1190:	d0000023 	adrp	x3, 7000 <mpa_init_static_fmm_context+0x38>
    1194:	91354063 	add	x3, x3, #0xd50
    1198:	f0000021 	adrp	x1, 8000 <PRIME_TABLE+0x168>
    119c:	90000040 	adrp	x0, 9000 <__func__.3181+0x410>
    11a0:	9101e063 	add	x3, x3, #0x78
    11a4:	91335421 	add	x1, x1, #0xcd5
    11a8:	9102dc00 	add	x0, x0, #0xb7
    11ac:	52806f62 	mov	w2, #0x37b                 	// #891
/home/lagadanu/Desktop/qemu/optee_os/lib/libutils/isoc/bget_malloc.c:904 (discriminator 1)
    11b0:	9400050a 	bl	25d8 <_assert_log>
    11b4:	9400051a 	bl	261c <_assert_break>
/home/lagadanu/Desktop/qemu/optee_os/lib/libutils/isoc/bget_malloc.c:893
    11b8:	cb150294 	sub	x20, x20, x21
    11bc:	f100be9f 	cmp	x20, #0x2f
    11c0:	540005c9 	b.ls	1278 <malloc_add_pool+0x118>
/home/lagadanu/Desktop/qemu/optee_os/lib/libutils/isoc/bget_malloc.c:901
    11c4:	b0000056 	adrp	x22, a000 <ta_props>
    11c8:	9102a2d9 	add	x25, x22, #0xa8
    11cc:	aa1503e0 	mov	x0, x21
    11d0:	aa1903e2 	mov	x2, x25
    11d4:	aa1403e1 	mov	x1, x20
    11d8:	97fffe52 	bl	b20 <bpool>
/home/lagadanu/Desktop/qemu/optee_os/lib/libutils/isoc/bget_malloc.c:902
    11dc:	b0000080 	adrp	x0, 12000 <ta_heap+0x7e80>
    11e0:	91060003 	add	x3, x0, #0x180
    11e4:	aa0003f3 	mov	x19, x0
raw_realloc():
/home/lagadanu/Desktop/qemu/optee_os/lib/libutils/isoc/bget_malloc.c:358
    11e8:	d280001a 	mov	x26, #0x0                   	// #0
malloc_add_pool():
/home/lagadanu/Desktop/qemu/optee_os/lib/libutils/isoc/bget_malloc.c:902
    11ec:	f9401c77 	ldr	x23, [x3,#56]
    11f0:	910006f7 	add	x23, x23, #0x1
/home/lagadanu/Desktop/qemu/optee_os/lib/libutils/isoc/bget_malloc.c:903
    11f4:	d37ceef8 	lsl	x24, x23, #4
raw_realloc():
/home/lagadanu/Desktop/qemu/optee_os/lib/libutils/isoc/bget_malloc.c:362
    11f8:	b7f800f8 	tbnz	x24, #63, 1214 <malloc_add_pool+0xb4>
/home/lagadanu/Desktop/qemu/optee_os/lib/libutils/isoc/bget_malloc.c:373
    11fc:	f9402060 	ldr	x0, [x3,#64]
/home/lagadanu/Desktop/qemu/optee_os/lib/libutils/isoc/bget_malloc.c:371
    1200:	f100031f 	cmp	x24, #0x0
/home/lagadanu/Desktop/qemu/optee_os/lib/libutils/isoc/bget_malloc.c:373
    1204:	aa1903e2 	mov	x2, x25
    1208:	9a9f1701 	csinc	x1, x24, xzr, ne
    120c:	97fffe13 	bl	a58 <bgetr>
    1210:	aa0003fa 	mov	x26, x0
/home/lagadanu/Desktop/qemu/optee_os/lib/libutils/isoc/bget_malloc.c:375
    1214:	9102a2d6 	add	x22, x22, #0xa8
    1218:	aa1803e1 	mov	x1, x24
    121c:	aa1a03e0 	mov	x0, x26
    1220:	f94012c2 	ldr	x2, [x22,#32]
    1224:	97fffc69 	bl	3c8 <raw_malloc_return_hook.isra.3>
malloc_add_pool():
/home/lagadanu/Desktop/qemu/optee_os/lib/libutils/isoc/bget_malloc.c:904
    1228:	b500015a 	cbnz	x26, 1250 <malloc_add_pool+0xf0>
/home/lagadanu/Desktop/qemu/optee_os/lib/libutils/isoc/bget_malloc.c:904 (discriminator 1)
    122c:	d0000023 	adrp	x3, 7000 <mpa_init_static_fmm_context+0x38>
    1230:	91354063 	add	x3, x3, #0xd50
    1234:	f0000021 	adrp	x1, 8000 <PRIME_TABLE+0x168>
    1238:	90000040 	adrp	x0, 9000 <__func__.3181+0x410>
    123c:	9101e063 	add	x3, x3, #0x78
    1240:	52807102 	mov	w2, #0x388                 	// #904
    1244:	91335421 	add	x1, x1, #0xcd5
    1248:	91030c00 	add	x0, x0, #0xc3
    124c:	17ffffd9 	b	11b0 <malloc_add_pool+0x50>
/home/lagadanu/Desktop/qemu/optee_os/lib/libutils/isoc/bget_malloc.c:905
    1250:	91060260 	add	x0, x19, #0x180
/home/lagadanu/Desktop/qemu/optee_os/lib/libutils/isoc/bget_malloc.c:906
    1254:	f9401c01 	ldr	x1, [x0,#56]
/home/lagadanu/Desktop/qemu/optee_os/lib/libutils/isoc/bget_malloc.c:905
    1258:	a903e817 	stp	x23, x26, [x0,#56]
/home/lagadanu/Desktop/qemu/optee_os/lib/libutils/isoc/bget_malloc.c:906
    125c:	d37cec21 	lsl	x1, x1, #4
    1260:	8b010342 	add	x2, x26, x1
    1264:	f8216b55 	str	x21, [x26,x1]
/home/lagadanu/Desktop/qemu/optee_os/lib/libutils/isoc/bget_malloc.c:909
    1268:	b9402801 	ldr	w1, [x0,#40]
/home/lagadanu/Desktop/qemu/optee_os/lib/libutils/isoc/bget_malloc.c:907
    126c:	f9000454 	str	x20, [x2,#8]
/home/lagadanu/Desktop/qemu/optee_os/lib/libutils/isoc/bget_malloc.c:909
    1270:	0b140034 	add	w20, w1, w20
    1274:	b9002814 	str	w20, [x0,#40]
/home/lagadanu/Desktop/qemu/optee_os/lib/libutils/isoc/bget_malloc.c:913
    1278:	a94153f3 	ldp	x19, x20, [sp,#16]
    127c:	a9425bf5 	ldp	x21, x22, [sp,#32]
    1280:	a94363f7 	ldp	x23, x24, [sp,#48]
    1284:	a9446bf9 	ldp	x25, x26, [sp,#64]
    1288:	a8c57bfd 	ldp	x29, x30, [sp],#80
    128c:	d65f03c0 	ret

0000000000001290 <malloc_buffer_is_within_alloced>:
malloc_buffer_is_within_alloced():
/home/lagadanu/Desktop/qemu/optee_os/lib/libutils/isoc/bget_malloc.c:920
    1290:	8b010001 	add	x1, x0, x1
/home/lagadanu/Desktop/qemu/optee_os/lib/libutils/isoc/bget_malloc.c:927
    1294:	eb01001f 	cmp	x0, x1
    1298:	54000b88 	b.hi	1408 <malloc_buffer_is_within_alloced+0x178>
    129c:	aa0003e5 	mov	x5, x0
bpool_foreach_iterator_init():
/home/lagadanu/Desktop/qemu/optee_os/lib/libutils/isoc/bget_malloc.c:230
    12a0:	b0000080 	adrp	x0, 12000 <ta_heap+0x7e80>
    12a4:	91060000 	add	x0, x0, #0x180
/home/lagadanu/Desktop/qemu/optee_os/lib/libutils/isoc/bget_malloc.c:229
    12a8:	d2800006 	mov	x6, #0x0                   	// #0
bpool_foreach_pool():
/home/lagadanu/Desktop/qemu/optee_os/lib/libutils/isoc/bget_malloc.c:239
    12ac:	d2f0000b 	mov	x11, #0x8000000000000000    	// #-9223372036854775808
bget_buf_size():
/home/lagadanu/Desktop/qemu/optee_os/lib/libutils/isoc/bget_malloc.c:611
    12b0:	928001e9 	mov	x9, #0xfffffffffffffff0    	// #-16
bpool_foreach_iterator_init():
/home/lagadanu/Desktop/qemu/optee_os/lib/libutils/isoc/bget_malloc.c:230
    12b4:	a9439c0a 	ldp	x10, x7, [x0,#56]
    12b8:	f94000e3 	ldr	x3, [x7]
bpool_foreach_pool():
/home/lagadanu/Desktop/qemu/optee_os/lib/libutils/isoc/bget_malloc.c:237
    12bc:	f9400462 	ldr	x2, [x3,#8]
bpool_foreach():
/home/lagadanu/Desktop/qemu/optee_os/lib/libutils/isoc/bget_malloc.c:279
    12c0:	aa0303e4 	mov	x4, x3
bpool_foreach_pool():
/home/lagadanu/Desktop/qemu/optee_os/lib/libutils/isoc/bget_malloc.c:239
    12c4:	eb0b005f 	cmp	x2, x11
    12c8:	540009a0 	b.eq	13fc <malloc_buffer_is_within_alloced+0x16c>
malloc_buffer_is_within_alloced():
/home/lagadanu/Desktop/qemu/optee_os/lib/libutils/isoc/bget_malloc.c:916
    12cc:	a9bf7bfd 	stp	x29, x30, [sp,#-16]!
    12d0:	910003fd 	mov	x29, sp
    12d4:	1400000d 	b	1308 <malloc_buffer_is_within_alloced+0x78>
bpool_foreach_pool():
/home/lagadanu/Desktop/qemu/optee_os/lib/libutils/isoc/bget_malloc.c:256
    12d8:	91004084 	add	x4, x4, #0x10
malloc_buffer_is_within_alloced():
/home/lagadanu/Desktop/qemu/optee_os/lib/libutils/isoc/bget_malloc.c:936
    12dc:	8b020082 	add	x2, x4, x2
/home/lagadanu/Desktop/qemu/optee_os/lib/libutils/isoc/bget_malloc.c:938
    12e0:	eb02003f 	cmp	x1, x2
    12e4:	1a9f87e2 	cset	w2, ls
    12e8:	eb0400bf 	cmp	x5, x4
    12ec:	1a9f37e0 	cset	w0, cs
    12f0:	6a000040 	ands	w0, w2, w0
    12f4:	540007a1 	b.ne	13e8 <malloc_buffer_is_within_alloced+0x158>
bpool_foreach_pool():
/home/lagadanu/Desktop/qemu/optee_os/lib/libutils/isoc/bget_malloc.c:237
    12f8:	f9400462 	ldr	x2, [x3,#8]
bpool_foreach():
/home/lagadanu/Desktop/qemu/optee_os/lib/libutils/isoc/bget_malloc.c:279
    12fc:	aa0303e4 	mov	x4, x3
bpool_foreach_pool():
/home/lagadanu/Desktop/qemu/optee_os/lib/libutils/isoc/bget_malloc.c:239
    1300:	eb0b005f 	cmp	x2, x11
    1304:	540006a0 	b.eq	13d8 <malloc_buffer_is_within_alloced+0x148>
/home/lagadanu/Desktop/qemu/optee_os/lib/libutils/isoc/bget_malloc.c:242
    1308:	b6f80242 	tbz	x2, #63, 1350 <malloc_buffer_is_within_alloced+0xc0>
/home/lagadanu/Desktop/qemu/optee_os/lib/libutils/isoc/bget_malloc.c:244
    130c:	cb0203e8 	neg	x8, x2
/home/lagadanu/Desktop/qemu/optee_os/lib/libutils/isoc/bget_malloc.c:246
    1310:	52800000 	mov	w0, #0x0                   	// #0
/home/lagadanu/Desktop/qemu/optee_os/lib/libutils/isoc/bget_malloc.c:259
    1314:	8b080063 	add	x3, x3, x8
bpool_foreach():
/home/lagadanu/Desktop/qemu/optee_os/lib/libutils/isoc/bget_malloc.c:270
    1318:	35ffff00 	cbnz	w0, 12f8 <malloc_buffer_is_within_alloced+0x68>
bget_buf_size():
/home/lagadanu/Desktop/qemu/optee_os/lib/libutils/isoc/bget_malloc.c:611
    131c:	cb020122 	sub	x2, x9, x2
/home/lagadanu/Desktop/qemu/optee_os/lib/libutils/isoc/bget_malloc.c:612
    1320:	f100005f 	cmp	x2, #0x0
    1324:	54fffdac 	b.gt	12d8 <malloc_buffer_is_within_alloced+0x48>
    1328:	d0000023 	adrp	x3, 7000 <mpa_init_static_fmm_context+0x38>
    132c:	91354063 	add	x3, x3, #0xd50
    1330:	91022063 	add	x3, x3, #0x88
    1334:	f0000021 	adrp	x1, 8000 <PRIME_TABLE+0x168>
    1338:	f0000020 	adrp	x0, 8000 <PRIME_TABLE+0x168>
    133c:	91335421 	add	x1, x1, #0xcd5
    1340:	913d6000 	add	x0, x0, #0xf58
    1344:	52804c82 	mov	w2, #0x264                 	// #612
    1348:	940004a4 	bl	25d8 <_assert_log>
    134c:	940004b4 	bl	261c <_assert_break>
bpool_foreach_pool():
/home/lagadanu/Desktop/qemu/optee_os/lib/libutils/isoc/bget_malloc.c:252
    1350:	f9400c60 	ldr	x0, [x3,#24]
    1354:	f9400800 	ldr	x0, [x0,#16]
    1358:	eb00007f 	cmp	x3, x0
    135c:	54000160 	b.eq	1388 <malloc_buffer_is_within_alloced+0xf8>
    1360:	d0000023 	adrp	x3, 7000 <mpa_init_static_fmm_context+0x38>
    1364:	91354063 	add	x3, x3, #0xd50
    1368:	91026063 	add	x3, x3, #0x98
    136c:	f0000021 	adrp	x1, 8000 <PRIME_TABLE+0x168>
    1370:	f0000020 	adrp	x0, 8000 <PRIME_TABLE+0x168>
    1374:	91335421 	add	x1, x1, #0xcd5
    1378:	9137e000 	add	x0, x0, #0xdf8
    137c:	52801f82 	mov	w2, #0xfc                  	// #252
    1380:	94000496 	bl	25d8 <_assert_log>
    1384:	940004a6 	bl	261c <_assert_break>
/home/lagadanu/Desktop/qemu/optee_os/lib/libutils/isoc/bget_malloc.c:253
    1388:	f9400860 	ldr	x0, [x3,#16]
    138c:	f9400c00 	ldr	x0, [x0,#24]
    1390:	eb00007f 	cmp	x3, x0
    1394:	54000160 	b.eq	13c0 <malloc_buffer_is_within_alloced+0x130>
    1398:	d0000023 	adrp	x3, 7000 <mpa_init_static_fmm_context+0x38>
    139c:	91354063 	add	x3, x3, #0xd50
    13a0:	91026063 	add	x3, x3, #0x98
    13a4:	f0000021 	adrp	x1, 8000 <PRIME_TABLE+0x168>
    13a8:	f0000020 	adrp	x0, 8000 <PRIME_TABLE+0x168>
    13ac:	91335421 	add	x1, x1, #0xcd5
    13b0:	91384c00 	add	x0, x0, #0xe13
    13b4:	52801fa2 	mov	w2, #0xfd                  	// #253
    13b8:	94000488 	bl	25d8 <_assert_log>
    13bc:	94000498 	bl	261c <_assert_break>
    13c0:	aa0203e8 	mov	x8, x2
/home/lagadanu/Desktop/qemu/optee_os/lib/libutils/isoc/bget_malloc.c:249
    13c4:	52800020 	mov	w0, #0x1                   	// #1
    13c8:	17ffffd3 	b	1314 <malloc_buffer_is_within_alloced+0x84>
bpool_foreach():
/home/lagadanu/Desktop/qemu/optee_os/lib/libutils/isoc/bget_malloc.c:279
    13cc:	d37cecc0 	lsl	x0, x6, #4
    13d0:	f86068e3 	ldr	x3, [x7,x0]
    13d4:	17ffffc9 	b	12f8 <malloc_buffer_is_within_alloced+0x68>
/home/lagadanu/Desktop/qemu/optee_os/lib/libutils/isoc/bget_malloc.c:275
    13d8:	910004c6 	add	x6, x6, #0x1
    13dc:	eb0a00df 	cmp	x6, x10
    13e0:	54ffff63 	b.cc	13cc <malloc_buffer_is_within_alloced+0x13c>
malloc_buffer_is_within_alloced():
/home/lagadanu/Desktop/qemu/optee_os/lib/libutils/isoc/bget_malloc.c:921
    13e4:	52800000 	mov	w0, #0x0                   	// #0
/home/lagadanu/Desktop/qemu/optee_os/lib/libutils/isoc/bget_malloc.c:948
    13e8:	a8c17bfd 	ldp	x29, x30, [sp],#16
    13ec:	d65f03c0 	ret
bpool_foreach():
/home/lagadanu/Desktop/qemu/optee_os/lib/libutils/isoc/bget_malloc.c:279
    13f0:	d37cecc0 	lsl	x0, x6, #4
    13f4:	f86068e3 	ldr	x3, [x7,x0]
    13f8:	17ffffb1 	b	12bc <malloc_buffer_is_within_alloced+0x2c>
/home/lagadanu/Desktop/qemu/optee_os/lib/libutils/isoc/bget_malloc.c:275
    13fc:	910004c6 	add	x6, x6, #0x1
    1400:	eb0a00df 	cmp	x6, x10
    1404:	54ffff63 	b.cc	13f0 <malloc_buffer_is_within_alloced+0x160>
malloc_buffer_is_within_alloced():
/home/lagadanu/Desktop/qemu/optee_os/lib/libutils/isoc/bget_malloc.c:921
    1408:	52800000 	mov	w0, #0x0                   	// #0
/home/lagadanu/Desktop/qemu/optee_os/lib/libutils/isoc/bget_malloc.c:947
    140c:	d65f03c0 	ret

0000000000001410 <malloc_buffer_overlaps_heap>:
malloc_buffer_overlaps_heap():
/home/lagadanu/Desktop/qemu/optee_os/lib/libutils/isoc/bget_malloc.c:960
    1410:	b0000082 	adrp	x2, 12000 <ta_heap+0x7e80>
    1414:	91060042 	add	x2, x2, #0x180
/home/lagadanu/Desktop/qemu/optee_os/lib/libutils/isoc/bget_malloc.c:953
    1418:	8b010001 	add	x1, x0, x1
/home/lagadanu/Desktop/qemu/optee_os/lib/libutils/isoc/bget_malloc.c:960
    141c:	d2800005 	mov	x5, #0x0                   	// #0
    1420:	a9438c47 	ldp	x7, x3, [x2,#56]
/home/lagadanu/Desktop/qemu/optee_os/lib/libutils/isoc/bget_malloc.c:960 (discriminator 1)
    1424:	eb0700bf 	cmp	x5, x7
    1428:	54000081 	b.ne	1438 <malloc_buffer_overlaps_heap+0x28>
/home/lagadanu/Desktop/qemu/optee_os/lib/libutils/isoc/bget_malloc.c:955
    142c:	52800002 	mov	w2, #0x0                   	// #0
/home/lagadanu/Desktop/qemu/optee_os/lib/libutils/isoc/bget_malloc.c:978
    1430:	2a0203e0 	mov	w0, w2
    1434:	d65f03c0 	ret
/home/lagadanu/Desktop/qemu/optee_os/lib/libutils/isoc/bget_malloc.c:962
    1438:	a9401066 	ldp	x6, x4, [x3]
/home/lagadanu/Desktop/qemu/optee_os/lib/libutils/isoc/bget_malloc.c:964
    143c:	eb01001f 	cmp	x0, x1
    1440:	1a9f97e2 	cset	w2, hi
/home/lagadanu/Desktop/qemu/optee_os/lib/libutils/isoc/bget_malloc.c:962
    1444:	8b0400c4 	add	x4, x6, x4
/home/lagadanu/Desktop/qemu/optee_os/lib/libutils/isoc/bget_malloc.c:964
    1448:	eb0400df 	cmp	x6, x4
    144c:	1a9f97e8 	cset	w8, hi
    1450:	2a080042 	orr	w2, w2, w8
    1454:	35fffee2 	cbnz	w2, 1430 <malloc_buffer_overlaps_heap+0x20>
/home/lagadanu/Desktop/qemu/optee_os/lib/libutils/isoc/bget_malloc.c:969
    1458:	eb06003f 	cmp	x1, x6
    145c:	91004063 	add	x3, x3, #0x10
    1460:	1a9f97e2 	cset	w2, hi
    1464:	eb04001f 	cmp	x0, x4
    1468:	1a9f27e4 	cset	w4, cc
    146c:	2a040042 	orr	w2, w2, w4
    1470:	35fffe02 	cbnz	w2, 1430 <malloc_buffer_overlaps_heap+0x20>
/home/lagadanu/Desktop/qemu/optee_os/lib/libutils/isoc/bget_malloc.c:960 (discriminator 2)
    1474:	910004a5 	add	x5, x5, #0x1
    1478:	17ffffeb 	b	1424 <malloc_buffer_overlaps_heap+0x14>

000000000000147c <strndup>:
strndup():
/home/lagadanu/Desktop/qemu/optee_os/lib/libutils/isoc/strndup.c:9
    147c:	a9bd7bfd 	stp	x29, x30, [sp,#-48]!
    1480:	910003fd 	mov	x29, sp
    1484:	a90153f3 	stp	x19, x20, [sp,#16]
    1488:	f90013f5 	str	x21, [sp,#32]
    148c:	aa0003f5 	mov	x21, x0
/home/lagadanu/Desktop/qemu/optee_os/lib/libutils/isoc/strndup.c:10
    1490:	9400001e 	bl	1508 <strnlen>
    1494:	aa0003f4 	mov	x20, x0
/home/lagadanu/Desktop/qemu/optee_os/lib/libutils/isoc/strndup.c:11
    1498:	91000400 	add	x0, x0, #0x1
    149c:	97fffe0e 	bl	cd4 <malloc>
    14a0:	aa0003f3 	mov	x19, x0
/home/lagadanu/Desktop/qemu/optee_os/lib/libutils/isoc/strndup.c:13
    14a4:	b40000a0 	cbz	x0, 14b8 <strndup+0x3c>
/home/lagadanu/Desktop/qemu/optee_os/lib/libutils/isoc/strndup.c:14
    14a8:	aa1403e2 	mov	x2, x20
    14ac:	aa1503e1 	mov	x1, x21
    14b0:	94000007 	bl	14cc <memcpy>
/home/lagadanu/Desktop/qemu/optee_os/lib/libutils/isoc/strndup.c:15
    14b4:	38346a7f 	strb	wzr, [x19,x20]
/home/lagadanu/Desktop/qemu/optee_os/lib/libutils/isoc/strndup.c:18
    14b8:	aa1303e0 	mov	x0, x19
    14bc:	f94013f5 	ldr	x21, [sp,#32]
    14c0:	a94153f3 	ldp	x19, x20, [sp,#16]
    14c4:	a8c37bfd 	ldp	x29, x30, [sp],#48
    14c8:	d65f03c0 	ret

00000000000014cc <memcpy>:
memcpy():
/home/lagadanu/Desktop/qemu/optee_os/lib/libutils/isoc/newlib/memcpy.c:94
    14cc:	d2800003 	mov	x3, #0x0                   	// #0
    14d0:	eb03005f 	cmp	x2, x3
    14d4:	54000041 	b.ne	14dc <memcpy+0x10>
/home/lagadanu/Desktop/qemu/optee_os/lib/libutils/isoc/newlib/memcpy.c:135
    14d8:	d65f03c0 	ret
/home/lagadanu/Desktop/qemu/optee_os/lib/libutils/isoc/newlib/memcpy.c:95
    14dc:	38636824 	ldrb	w4, [x1,x3]
    14e0:	38236804 	strb	w4, [x0,x3]
    14e4:	91000463 	add	x3, x3, #0x1
    14e8:	17fffffa 	b	14d0 <memcpy+0x4>

00000000000014ec <memset>:
memset():
/home/lagadanu/Desktop/qemu/optee_os/lib/libutils/isoc/newlib/memset.c:125
    14ec:	d2800003 	mov	x3, #0x0                   	// #0
    14f0:	eb03005f 	cmp	x2, x3
    14f4:	54000041 	b.ne	14fc <memset+0x10>
/home/lagadanu/Desktop/qemu/optee_os/lib/libutils/isoc/newlib/memset.c:129
    14f8:	d65f03c0 	ret
/home/lagadanu/Desktop/qemu/optee_os/lib/libutils/isoc/newlib/memset.c:126
    14fc:	38236801 	strb	w1, [x0,x3]
    1500:	91000463 	add	x3, x3, #0x1
    1504:	17fffffb 	b	14f0 <memset+0x4>

0000000000001508 <strnlen>:
strnlen():
/home/lagadanu/Desktop/qemu/optee_os/lib/libutils/isoc/newlib/strnlen.c:74
    1508:	8b010001 	add	x1, x0, x1
/home/lagadanu/Desktop/qemu/optee_os/lib/libutils/isoc/newlib/strnlen.c:77
    150c:	aa0003e2 	mov	x2, x0
    1510:	eb01005f 	cmp	x2, x1
    1514:	54000060 	b.eq	1520 <strnlen+0x18>
/home/lagadanu/Desktop/qemu/optee_os/lib/libutils/isoc/newlib/strnlen.c:77 (discriminator 1)
    1518:	39400043 	ldrb	w3, [x2]
    151c:	35000063 	cbnz	w3, 1528 <strnlen+0x20>
/home/lagadanu/Desktop/qemu/optee_os/lib/libutils/isoc/newlib/strnlen.c:80
    1520:	cb000040 	sub	x0, x2, x0
/home/lagadanu/Desktop/qemu/optee_os/lib/libutils/isoc/newlib/strnlen.c:81
    1524:	d65f03c0 	ret
/home/lagadanu/Desktop/qemu/optee_os/lib/libutils/isoc/newlib/strnlen.c:78
    1528:	91000442 	add	x2, x2, #0x1
    152c:	17fffff9 	b	1510 <strnlen+0x8>

0000000000001530 <trace_set_level>:
trace_set_level():
/home/lagadanu/Desktop/qemu/optee_os/lib/libutils/ext/trace.c:26
    1530:	51000401 	sub	w1, w0, #0x1
    1534:	71000c3f 	cmp	w1, #0x3
    1538:	90000041 	adrp	x1, 9000 <__func__.3181+0x410>
    153c:	54000088 	b.hi	154c <trace_set_level+0x1c>
/home/lagadanu/Desktop/qemu/optee_os/lib/libutils/ext/trace.c:29
    1540:	f942c821 	ldr	x1, [x1,#1424]
    1544:	b9000020 	str	w0, [x1]
    1548:	d65f03c0 	ret
    154c:	52800080 	mov	w0, #0x4                   	// #4
    1550:	17fffffc 	b	1540 <trace_set_level+0x10>

0000000000001554 <trace_get_level>:
trace_get_level():
/home/lagadanu/Desktop/qemu/optee_os/lib/libutils/ext/trace.c:35
    1554:	90000040 	adrp	x0, 9000 <__func__.3181+0x410>
    1558:	f942c800 	ldr	x0, [x0,#1424]
    155c:	b9400000 	ldr	w0, [x0]
    1560:	d65f03c0 	ret

0000000000001564 <trace_printf>:
trace_printf():
/home/lagadanu/Desktop/qemu/optee_os/lib/libutils/ext/trace.c:97
    1564:	d108c3ff 	sub	sp, sp, #0x230
    1568:	a9007bfd 	stp	x29, x30, [sp]
    156c:	910003fd 	mov	x29, sp
    1570:	f9010fa5 	str	x5, [x29,#536]
    1574:	910403a5 	add	x5, x29, #0x100
    1578:	a9046bf9 	stp	x25, x26, [sp,#64]
/home/lagadanu/Desktop/qemu/optee_os/lib/libutils/ext/trace.c:103
    157c:	72001c79 	ands	w25, w3, #0xff
/home/lagadanu/Desktop/qemu/optee_os/lib/libutils/ext/trace.c:97
    1580:	a90153f3 	stp	x19, x20, [sp,#16]
    1584:	a9025bf5 	stp	x21, x22, [sp,#32]
    1588:	a90363f7 	stp	x23, x24, [sp,#48]
    158c:	f90113a6 	str	x6, [x29,#544]
    1590:	f90117a7 	str	x7, [x29,#552]
    1594:	3d8024a0 	str	q0, [x5,#144]
    1598:	3d8028a1 	str	q1, [x5,#160]
    159c:	3d802ca2 	str	q2, [x5,#176]
    15a0:	3d8030a3 	str	q3, [x5,#192]
    15a4:	3d8034a4 	str	q4, [x5,#208]
    15a8:	3d8038a5 	str	q5, [x5,#224]
    15ac:	3d803ca6 	str	q6, [x5,#240]
    15b0:	910803a5 	add	x5, x29, #0x200
    15b4:	3d8000a7 	str	q7, [x5]
/home/lagadanu/Desktop/qemu/optee_os/lib/libutils/ext/trace.c:103
    15b8:	540008a0 	b.eq	16cc <trace_printf+0x168>
/home/lagadanu/Desktop/qemu/optee_os/lib/libutils/ext/trace.c:103 (discriminator 1)
    15bc:	90000043 	adrp	x3, 9000 <__func__.3181+0x410>
    15c0:	f942c863 	ldr	x3, [x3,#1424]
    15c4:	b9400063 	ldr	w3, [x3]
    15c8:	6b02007f 	cmp	w3, w2
    15cc:	5400072b 	b.lt	16b0 <trace_printf+0x14c>
trace_level_to_string():
/home/lagadanu/Desktop/qemu/optee_os/lib/libutils/ext/trace.c:52
    15d0:	51000443 	sub	w3, w2, #0x1
    15d4:	71000c7f 	cmp	w3, #0x3
/home/lagadanu/Desktop/qemu/optee_os/lib/libutils/ext/trace.c:55
    15d8:	d0000023 	adrp	x3, 7000 <mpa_init_static_fmm_context+0x38>
/home/lagadanu/Desktop/qemu/optee_os/lib/libutils/ext/trace.c:52
    15dc:	1a9f9045 	csel	w5, w2, wzr, ls
/home/lagadanu/Desktop/qemu/optee_os/lib/libutils/ext/trace.c:55
    15e0:	91380063 	add	x3, x3, #0xe00
    15e4:	3865c863 	ldrb	w3, [x3,w5,sxtw]
trace_printf():
/home/lagadanu/Desktop/qemu/optee_os/lib/libutils/ext/trace.c:107
    15e8:	910243b4 	add	x20, x29, #0x90
    15ec:	2a0203f3 	mov	w19, w2
    15f0:	2a0103f8 	mov	w24, w1
    15f4:	aa0003f6 	mov	x22, x0
    15f8:	90000042 	adrp	x2, 9000 <__func__.3181+0x410>
    15fc:	aa0403f7 	mov	x23, x4
    1600:	91031442 	add	x2, x2, #0xc5
    1604:	d2802001 	mov	x1, #0x100                 	// #256
    1608:	aa1403e0 	mov	x0, x20
    160c:	94000366 	bl	23a4 <snprintk>
/home/lagadanu/Desktop/qemu/optee_os/lib/libutils/ext/trace.c:109
    1610:	37f80500 	tbnz	w0, #31, 16b0 <trace_printf+0x14c>
/home/lagadanu/Desktop/qemu/optee_os/lib/libutils/ext/trace.c:114
    1614:	90000043 	adrp	x3, 9000 <__func__.3181+0x410>
/home/lagadanu/Desktop/qemu/optee_os/lib/libutils/ext/trace.c:111
    1618:	93407c15 	sxtw	x21, w0
/home/lagadanu/Desktop/qemu/optee_os/lib/libutils/ext/trace.c:114
    161c:	d280201a 	mov	x26, #0x100                 	// #256
    1620:	90000042 	adrp	x2, 9000 <__func__.3181+0x410>
    1624:	f942cc63 	ldr	x3, [x3,#1432]
    1628:	91032442 	add	x2, x2, #0xc9
    162c:	cb150341 	sub	x1, x26, x21
    1630:	8b150280 	add	x0, x20, x21
    1634:	9400035c 	bl	23a4 <snprintk>
/home/lagadanu/Desktop/qemu/optee_os/lib/libutils/ext/trace.c:116
    1638:	37f803c0 	tbnz	w0, #31, 16b0 <trace_printf+0x14c>
/home/lagadanu/Desktop/qemu/optee_os/lib/libutils/ext/trace.c:118
    163c:	8b20c2b5 	add	x21, x21, w0, sxtw
/home/lagadanu/Desktop/qemu/optee_os/lib/libutils/ext/trace.c:120
    1640:	340005d9 	cbz	w25, 16f8 <trace_printf+0x194>
/home/lagadanu/Desktop/qemu/optee_os/lib/libutils/ext/trace.c:120 (discriminator 1)
    1644:	52800342 	mov	w2, #0x1a                  	// #26
    1648:	1ad32440 	lsr	w0, w2, w19
    164c:	36000560 	tbz	w0, #0, 16f8 <trace_printf+0x194>
/home/lagadanu/Desktop/qemu/optee_os/lib/libutils/ext/trace.c:122
    1650:	8b150299 	add	x25, x20, x21
    1654:	cb15035a 	sub	x26, x26, x21
print_thread_id():
/home/lagadanu/Desktop/qemu/optee_os/lib/libutils/ext/trace.c:65
    1658:	9400038c 	bl	2488 <trace_ext_get_thread_id>
/home/lagadanu/Desktop/qemu/optee_os/lib/libutils/ext/trace.c:67
    165c:	37f803c0 	tbnz	w0, #31, 16d4 <trace_printf+0x170>
/home/lagadanu/Desktop/qemu/optee_os/lib/libutils/ext/trace.c:68
    1660:	2a0003e4 	mov	w4, w0
    1664:	90000042 	adrp	x2, 9000 <__func__.3181+0x410>
    1668:	52800023 	mov	w3, #0x1                   	// #1
    166c:	91033442 	add	x2, x2, #0xcd
    1670:	aa1a03e1 	mov	x1, x26
    1674:	aa1903e0 	mov	x0, x25
    1678:	9400034b 	bl	23a4 <snprintk>
trace_printf():
/home/lagadanu/Desktop/qemu/optee_os/lib/libutils/ext/trace.c:129
    167c:	37f801a0 	tbnz	w0, #31, 16b0 <trace_printf+0x14c>
/home/lagadanu/Desktop/qemu/optee_os/lib/libutils/ext/trace.c:131
    1680:	8b20c2b3 	add	x19, x21, w0, sxtw
/home/lagadanu/Desktop/qemu/optee_os/lib/libutils/ext/trace.c:133
    1684:	b4000476 	cbz	x22, 1710 <trace_printf+0x1ac>
/home/lagadanu/Desktop/qemu/optee_os/lib/libutils/ext/trace.c:134
    1688:	8b130280 	add	x0, x20, x19
    168c:	2a1803e4 	mov	w4, w24
    1690:	aa1603e3 	mov	x3, x22
    1694:	90000042 	adrp	x2, 9000 <__func__.3181+0x410>
    1698:	d2802001 	mov	x1, #0x100                 	// #256
    169c:	91036042 	add	x2, x2, #0xd8
    16a0:	cb130021 	sub	x1, x1, x19
    16a4:	94000340 	bl	23a4 <snprintk>
/home/lagadanu/Desktop/qemu/optee_os/lib/libutils/ext/trace.c:138
    16a8:	8b20c273 	add	x19, x19, w0, sxtw
/home/lagadanu/Desktop/qemu/optee_os/lib/libutils/ext/trace.c:136
    16ac:	36f80320 	tbz	w0, #31, 1710 <trace_printf+0x1ac>
/home/lagadanu/Desktop/qemu/optee_os/lib/libutils/ext/trace.c:164
    16b0:	a94153f3 	ldp	x19, x20, [sp,#16]
    16b4:	a9425bf5 	ldp	x21, x22, [sp,#32]
    16b8:	a94363f7 	ldp	x23, x24, [sp,#48]
    16bc:	a9446bf9 	ldp	x25, x26, [sp,#64]
    16c0:	a9407bfd 	ldp	x29, x30, [sp]
    16c4:	9108c3ff 	add	sp, sp, #0x230
    16c8:	d65f03c0 	ret
trace_level_to_string():
/home/lagadanu/Desktop/qemu/optee_os/lib/libutils/ext/trace.c:50
    16cc:	528009a3 	mov	w3, #0x4d                  	// #77
    16d0:	17ffffc6 	b	15e8 <trace_printf+0x84>
print_thread_id():
/home/lagadanu/Desktop/qemu/optee_os/lib/libutils/ext/trace.c:70
    16d4:	90000044 	adrp	x4, 9000 <__func__.3181+0x410>
    16d8:	52800023 	mov	w3, #0x1                   	// #1
    16dc:	91052084 	add	x4, x4, #0x148
    16e0:	90000042 	adrp	x2, 9000 <__func__.3181+0x410>
    16e4:	aa1a03e1 	mov	x1, x26
    16e8:	91034c42 	add	x2, x2, #0xd3
    16ec:	aa1903e0 	mov	x0, x25
    16f0:	9400032d 	bl	23a4 <snprintk>
    16f4:	17ffffe2 	b	167c <trace_printf+0x118>
trace_printf():
/home/lagadanu/Desktop/qemu/optee_os/lib/libutils/ext/trace.c:142
    16f8:	f103fabf 	cmp	x21, #0xfe
    16fc:	54fffda8 	b.hi	16b0 <trace_printf+0x14c>
/home/lagadanu/Desktop/qemu/optee_os/lib/libutils/ext/trace.c:144
    1700:	910006b3 	add	x19, x21, #0x1
    1704:	52800400 	mov	w0, #0x20                  	// #32
    1708:	38356a80 	strb	w0, [x20,x21]
/home/lagadanu/Desktop/qemu/optee_os/lib/libutils/ext/trace.c:145
    170c:	38336a9f 	strb	wzr, [x20,x19]
/home/lagadanu/Desktop/qemu/optee_os/lib/libutils/ext/trace.c:148
    1710:	9108c3a0 	add	x0, x29, #0x230
    1714:	a90703a0 	stp	x0, x0, [x29,#112]
    1718:	910843a0 	add	x0, x29, #0x210
    171c:	f90043a0 	str	x0, [x29,#128]
    1720:	128002e0 	mov	w0, #0xffffffe8            	// #-24
    1724:	b9008ba0 	str	w0, [x29,#136]
    1728:	12800fe0 	mov	w0, #0xffffff80            	// #-128
    172c:	b9008fa0 	str	w0, [x29,#140]
/home/lagadanu/Desktop/qemu/optee_os/lib/libutils/ext/trace.c:149
    1730:	a94707a0 	ldp	x0, x1, [x29,#112]
    1734:	a90507a0 	stp	x0, x1, [x29,#80]
    1738:	a94807a0 	ldp	x0, x1, [x29,#128]
    173c:	a90607a0 	stp	x0, x1, [x29,#96]
    1740:	d2802001 	mov	x1, #0x100                 	// #256
    1744:	cb130021 	sub	x1, x1, x19
    1748:	8b130280 	add	x0, x20, x19
    174c:	910143a3 	add	x3, x29, #0x50
    1750:	aa1703e2 	mov	x2, x23
    1754:	940002ff 	bl	2350 <vsnprintk>
/home/lagadanu/Desktop/qemu/optee_os/lib/libutils/ext/trace.c:152
    1758:	7100001f 	cmp	w0, #0x0
    175c:	8b20c261 	add	x1, x19, w0, sxtw
    1760:	9a93c033 	csel	x19, x1, x19, gt
    1764:	d2801fc0 	mov	x0, #0xfe                  	// #254
    1768:	f103fa7f 	cmp	x19, #0xfe
    176c:	9a809273 	csel	x19, x19, x0, ls
/home/lagadanu/Desktop/qemu/optee_os/lib/libutils/ext/trace.c:157
    1770:	52800140 	mov	w0, #0xa                   	// #10
    1774:	38336a80 	strb	w0, [x20,x19]
/home/lagadanu/Desktop/qemu/optee_os/lib/libutils/ext/trace.c:158
    1778:	b4000093 	cbz	x19, 1788 <trace_printf+0x224>
/home/lagadanu/Desktop/qemu/optee_os/lib/libutils/ext/trace.c:158 (discriminator 1)
    177c:	38736a80 	ldrb	w0, [x20,x19]
    1780:	7100281f 	cmp	w0, #0xa
    1784:	540000c0 	b.eq	179c <trace_printf+0x238>
/home/lagadanu/Desktop/qemu/optee_os/lib/libutils/ext/trace.c:161
    1788:	91024ba0 	add	x0, x29, #0x92
    178c:	3833681f 	strb	wzr, [x0,x19]
/home/lagadanu/Desktop/qemu/optee_os/lib/libutils/ext/trace.c:163
    1790:	aa1403e0 	mov	x0, x20
    1794:	94000333 	bl	2460 <trace_ext_puts>
    1798:	17ffffc6 	b	16b0 <trace_printf+0x14c>
/home/lagadanu/Desktop/qemu/optee_os/lib/libutils/ext/trace.c:159
    179c:	d1000673 	sub	x19, x19, #0x1
    17a0:	17fffff6 	b	1778 <trace_printf+0x214>

00000000000017a4 <dhex_dump>:
dhex_dump():
/home/lagadanu/Desktop/qemu/optee_os/lib/libutils/ext/trace.c:275
    17a4:	d65f03c0 	ret

00000000000017a8 <__vsnprintf>:
__vsnprintf():
/home/lagadanu/Desktop/qemu/optee_os/lib/libutils/ext/snprintk.c:137
    17a8:	d103c3ff 	sub	sp, sp, #0xf0
    17ac:	a9037bfd 	stp	x29, x30, [sp,#48]
    17b0:	9100c3fd 	add	x29, sp, #0x30
    17b4:	a90803a1 	stp	x1, x0, [x29,#128]
    17b8:	12001c80 	and	w0, w4, #0xff
    17bc:	b9007fa0 	str	w0, [x29,#124]
/home/lagadanu/Desktop/qemu/optee_os/lib/libutils/ext/snprintk.c:141
    17c0:	f94047a0 	ldr	x0, [x29,#136]
/home/lagadanu/Desktop/qemu/optee_os/lib/libutils/ext/snprintk.c:137
    17c4:	a90453f3 	stp	x19, x20, [sp,#64]
    17c8:	a90873fb 	stp	x27, x28, [sp,#128]
kprintf():
/home/lagadanu/Desktop/qemu/optee_os/lib/libutils/ext/snprintk.c:267
    17cc:	5280001b 	mov	w27, #0x0                   	// #0
    17d0:	b9401874 	ldr	w20, [x3,#24]
    17d4:	a9407073 	ldp	x19, x28, [x3]
__vsnprintf():
/home/lagadanu/Desktop/qemu/optee_os/lib/libutils/ext/snprintk.c:137
    17d8:	a90663f7 	stp	x23, x24, [sp,#96]
    17dc:	a9076bf9 	stp	x25, x26, [sp,#112]
    17e0:	910263b8 	add	x24, x29, #0x98
    17e4:	a9055bf5 	stp	x21, x22, [sp,#80]
    17e8:	aa0203f9 	mov	x25, x2
/home/lagadanu/Desktop/qemu/optee_os/lib/libutils/ext/snprintk.c:141
    17ec:	8b01001a 	add	x26, x0, x1
    17f0:	aa0003f6 	mov	x22, x0
kprintf():
/home/lagadanu/Desktop/qemu/optee_os/lib/libutils/ext/snprintk.c:269
    17f4:	d2800017 	mov	x23, #0x0                   	// #0
/home/lagadanu/Desktop/qemu/optee_os/lib/libutils/ext/snprintk.c:275
    17f8:	39400320 	ldrb	w0, [x25]
    17fc:	7100941f 	cmp	w0, #0x25
    1800:	7a401804 	ccmp	w0, #0x0, #0x4, ne
    1804:	540003c1 	b.ne	187c <__vsnprintf+0xd4>
/home/lagadanu/Desktop/qemu/optee_os/lib/libutils/ext/snprintk.c:279
    1808:	34005780 	cbz	w0, 22f8 <__vsnprintf+0xb50>
/home/lagadanu/Desktop/qemu/optee_os/lib/libutils/ext/snprintk.c:287
    180c:	12800004 	mov	w4, #0xffffffff            	// #-1
/home/lagadanu/Desktop/qemu/optee_os/lib/libutils/ext/snprintk.c:282
    1810:	91000722 	add	x2, x25, #0x1
    1814:	2a1403e0 	mov	w0, w20
/home/lagadanu/Desktop/qemu/optee_os/lib/libutils/ext/snprintk.c:324
    1818:	2a0403e5 	mov	w5, w4
/home/lagadanu/Desktop/qemu/optee_os/lib/libutils/ext/snprintk.c:288
    181c:	52800001 	mov	w1, #0x0                   	// #0
/home/lagadanu/Desktop/qemu/optee_os/lib/libutils/ext/snprintk.c:286
    1820:	5280000a 	mov	w10, #0x0                   	// #0
/home/lagadanu/Desktop/qemu/optee_os/lib/libutils/ext/snprintk.c:284
    1824:	52800015 	mov	w21, #0x0                   	// #0
/home/lagadanu/Desktop/qemu/optee_os/lib/libutils/ext/snprintk.c:299
    1828:	52800406 	mov	w6, #0x20                  	// #32
/home/lagadanu/Desktop/qemu/optee_os/lib/libutils/ext/snprintk.c:290
    182c:	39400048 	ldrb	w8, [x2]
    1830:	91000459 	add	x25, x2, #0x1
/home/lagadanu/Desktop/qemu/optee_os/lib/libutils/ext/snprintk.c:291
    1834:	71018d1f 	cmp	w8, #0x63
    1838:	54001b80 	b.eq	1ba8 <__vsnprintf+0x400>
    183c:	5400080c 	b.gt	193c <__vsnprintf+0x194>
    1840:	7100c11f 	cmp	w8, #0x30
    1844:	54001960 	b.eq	1b70 <__vsnprintf+0x3c8>
    1848:	540003cc 	b.gt	18c0 <__vsnprintf+0x118>
    184c:	7100a91f 	cmp	w8, #0x2a
    1850:	540012c0 	b.eq	1aa8 <__vsnprintf+0x300>
    1854:	5400024c 	b.gt	189c <__vsnprintf+0xf4>
    1858:	7100811f 	cmp	w8, #0x20
    185c:	540011c0 	b.eq	1a94 <__vsnprintf+0x2ec>
    1860:	71008d1f 	cmp	w8, #0x23
    1864:	540011e0 	b.eq	1aa0 <__vsnprintf+0x2f8>
/home/lagadanu/Desktop/qemu/optee_os/lib/libutils/ext/snprintk.c:541
    1868:	34005488 	cbz	w8, 22f8 <__vsnprintf+0xb50>
/home/lagadanu/Desktop/qemu/optee_os/lib/libutils/ext/snprintk.c:545
    186c:	910303a3 	add	x3, x29, #0xc0
    1870:	2a0003f4 	mov	w20, w0
    1874:	381d8c68 	strb	w8, [x3,#-40]!
    1878:	140000d4 	b	1bc8 <__vsnprintf+0x420>
/home/lagadanu/Desktop/qemu/optee_os/lib/libutils/ext/snprintk.c:276
    187c:	1100077b 	add	w27, w27, #0x1
/home/lagadanu/Desktop/qemu/optee_os/lib/libutils/ext/snprintk.c:277
    1880:	b40000b6 	cbz	x22, 1894 <__vsnprintf+0xec>
    1884:	eb16035f 	cmp	x26, x22
    1888:	54000069 	b.ls	1894 <__vsnprintf+0xec>
    188c:	390002c0 	strb	w0, [x22]
    1890:	910006d6 	add	x22, x22, #0x1
/home/lagadanu/Desktop/qemu/optee_os/lib/libutils/ext/snprintk.c:275
    1894:	91000739 	add	x25, x25, #0x1
    1898:	17ffffd8 	b	17f8 <__vsnprintf+0x50>
/home/lagadanu/Desktop/qemu/optee_os/lib/libutils/ext/snprintk.c:291
    189c:	7100b51f 	cmp	w8, #0x2d
    18a0:	54001120 	b.eq	1ac4 <__vsnprintf+0x31c>
    18a4:	7100b91f 	cmp	w8, #0x2e
    18a8:	54001280 	b.eq	1af8 <__vsnprintf+0x350>
    18ac:	7100ad1f 	cmp	w8, #0x2b
    18b0:	54fffdc1 	b.ne	1868 <__vsnprintf+0xc0>
/home/lagadanu/Desktop/qemu/optee_os/lib/libutils/ext/snprintk.c:319
    18b4:	2a0803e1 	mov	w1, w8
/home/lagadanu/Desktop/qemu/optee_os/lib/libutils/ext/snprintk.c:322
    18b8:	aa1903e2 	mov	x2, x25
    18bc:	17ffffdc 	b	182c <__vsnprintf+0x84>
/home/lagadanu/Desktop/qemu/optee_os/lib/libutils/ext/snprintk.c:291
    18c0:	7101111f 	cmp	w8, #0x44
    18c4:	54001920 	b.eq	1be8 <__vsnprintf+0x440>
    18c8:	5400018c 	b.gt	18f8 <__vsnprintf+0x150>
    18cc:	7100e51f 	cmp	w8, #0x39
    18d0:	54fffccc 	b.gt	1868 <__vsnprintf+0xc0>
    18d4:	5280000a 	mov	w10, #0x0                   	// #0
/home/lagadanu/Desktop/qemu/optee_os/lib/libutils/ext/snprintk.c:346
    18d8:	5100c108 	sub	w8, w8, #0x30
    18dc:	52800142 	mov	w2, #0xa                   	// #10
    18e0:	1b02214a 	madd	w10, w10, w2, w8
/home/lagadanu/Desktop/qemu/optee_os/lib/libutils/ext/snprintk.c:347
    18e4:	38401728 	ldrb	w8, [x25],#1
/home/lagadanu/Desktop/qemu/optee_os/lib/libutils/ext/snprintk.c:348
    18e8:	5100c102 	sub	w2, w8, #0x30
    18ec:	7100245f 	cmp	w2, #0x9
    18f0:	54ffff49 	b.ls	18d8 <__vsnprintf+0x130>
    18f4:	17ffffd0 	b	1834 <__vsnprintf+0x8c>
/home/lagadanu/Desktop/qemu/optee_os/lib/libutils/ext/snprintk.c:291
    18f8:	7101551f 	cmp	w8, #0x55
    18fc:	54003c40 	b.eq	2084 <__vsnprintf+0x8dc>
    1900:	7101611f 	cmp	w8, #0x58
    1904:	54000ac0 	b.eq	1a5c <__vsnprintf+0x2b4>
    1908:	71013d1f 	cmp	w8, #0x4f
    190c:	54fffae1 	b.ne	1868 <__vsnprintf+0xc0>
/home/lagadanu/Desktop/qemu/optee_os/lib/libutils/ext/snprintk.c:408
    1910:	321c02b5 	orr	w21, w21, #0x10
/home/lagadanu/Desktop/qemu/optee_os/lib/libutils/ext/snprintk.c:411
    1914:	36382695 	tbz	w21, #7, 1de4 <__vsnprintf+0x63c>
    1918:	37f827e0 	tbnz	w0, #31, 1e14 <__vsnprintf+0x66c>
    191c:	91003e61 	add	x1, x19, #0xf
    1920:	2a0003f4 	mov	w20, w0
    1924:	aa1303e0 	mov	x0, x19
    1928:	927df033 	and	x19, x1, #0xfffffffffffffff8
    192c:	f9400005 	ldr	x5, [x0]
/home/lagadanu/Desktop/qemu/optee_os/lib/libutils/ext/snprintk.c:412
    1930:	52800000 	mov	w0, #0x0                   	// #0
/home/lagadanu/Desktop/qemu/optee_os/lib/libutils/ext/snprintk.c:482
    1934:	52800001 	mov	w1, #0x0                   	// #0
    1938:	140000b8 	b	1c18 <__vsnprintf+0x470>
/home/lagadanu/Desktop/qemu/optee_os/lib/libutils/ext/snprintk.c:291
    193c:	7101bd1f 	cmp	w8, #0x6f
    1940:	54fffea0 	b.eq	1914 <__vsnprintf+0x16c>
    1944:	5400024c 	b.gt	198c <__vsnprintf+0x1e4>
    1948:	7101a51f 	cmp	w8, #0x69
    194c:	54001500 	b.eq	1bec <__vsnprintf+0x444>
    1950:	540000ec 	b.gt	196c <__vsnprintf+0x1c4>
    1954:	7101911f 	cmp	w8, #0x64
    1958:	540014a0 	b.eq	1bec <__vsnprintf+0x444>
    195c:	7101a11f 	cmp	w8, #0x68
    1960:	54fff841 	b.ne	1868 <__vsnprintf+0xc0>
/home/lagadanu/Desktop/qemu/optee_os/lib/libutils/ext/snprintk.c:352
    1964:	321a02b5 	orr	w21, w21, #0x40
    1968:	17ffffd4 	b	18b8 <__vsnprintf+0x110>
/home/lagadanu/Desktop/qemu/optee_os/lib/libutils/ext/snprintk.c:291
    196c:	7101b11f 	cmp	w8, #0x6c
    1970:	54001040 	b.eq	1b78 <__vsnprintf+0x3d0>
    1974:	7101b91f 	cmp	w8, #0x6e
    1978:	54001d40 	b.eq	1d20 <__vsnprintf+0x578>
    197c:	7101a91f 	cmp	w8, #0x6a
    1980:	54fff741 	b.ne	1868 <__vsnprintf+0xc0>
/home/lagadanu/Desktop/qemu/optee_os/lib/libutils/ext/snprintk.c:355
    1984:	321902b5 	orr	w21, w21, #0x80
    1988:	17ffffcc 	b	18b8 <__vsnprintf+0x110>
/home/lagadanu/Desktop/qemu/optee_os/lib/libutils/ext/snprintk.c:291
    198c:	7101d11f 	cmp	w8, #0x74
    1990:	54001040 	b.eq	1b98 <__vsnprintf+0x3f0>
    1994:	5400046c 	b.gt	1a20 <__vsnprintf+0x278>
    1998:	7101c51f 	cmp	w8, #0x71
    199c:	54000f60 	b.eq	1b88 <__vsnprintf+0x3e0>
    19a0:	540026cb 	b.lt	1e78 <__vsnprintf+0x6d0>
    19a4:	7101cd1f 	cmp	w8, #0x73
    19a8:	54fff601 	b.ne	1868 <__vsnprintf+0xc0>
/home/lagadanu/Desktop/qemu/optee_os/lib/libutils/ext/snprintk.c:442
    19ac:	37f83480 	tbnz	w0, #31, 203c <__vsnprintf+0x894>
    19b0:	91003e61 	add	x1, x19, #0xf
    19b4:	2a0003f4 	mov	w20, w0
    19b8:	aa1303e0 	mov	x0, x19
    19bc:	927df033 	and	x19, x1, #0xfffffffffffffff8
    19c0:	f9400003 	ldr	x3, [x0]
/home/lagadanu/Desktop/qemu/optee_os/lib/libutils/ext/snprintk.c:444
    19c4:	90000040 	adrp	x0, 9000 <__func__.3181+0x410>
    19c8:	91037c00 	add	x0, x0, #0xdf
    19cc:	f100007f 	cmp	x3, #0x0
    19d0:	9a830003 	csel	x3, x0, x3, eq
/home/lagadanu/Desktop/qemu/optee_os/lib/libutils/ext/snprintk.c:445
    19d4:	3100049f 	cmn	w4, #0x1
    19d8:	540033e0 	b.eq	2054 <__vsnprintf+0x8ac>
/home/lagadanu/Desktop/qemu/optee_os/lib/libutils/ext/snprintk.c:451
    19dc:	93407c82 	sxtw	x2, w4
    19e0:	aa0303e0 	mov	x0, x3
    19e4:	290d2ba8 	stp	w8, w10, [x29,#104]
    19e8:	52800001 	mov	w1, #0x0                   	// #0
    19ec:	f9003ba3 	str	x3, [x29,#112]
    19f0:	b9007ba4 	str	w4, [x29,#120]
    19f4:	94000289 	bl	2418 <memchr>
/home/lagadanu/Desktop/qemu/optee_os/lib/libutils/ext/snprintk.c:453
    19f8:	294d2ba8 	ldp	w8, w10, [x29,#104]
    19fc:	b9407ba4 	ldr	w4, [x29,#120]
    1a00:	f9403ba3 	ldr	x3, [x29,#112]
    1a04:	b4000080 	cbz	x0, 1a14 <__vsnprintf+0x26c>
/home/lagadanu/Desktop/qemu/optee_os/lib/libutils/ext/snprintk.c:454
    1a08:	cb030000 	sub	x0, x0, x3
    1a0c:	6b00009f 	cmp	w4, w0
    1a10:	1a80d084 	csel	w4, w4, w0, le
/home/lagadanu/Desktop/qemu/optee_os/lib/libutils/ext/snprintk.c:285
    1a14:	52800000 	mov	w0, #0x0                   	// #0
/home/lagadanu/Desktop/qemu/optee_os/lib/libutils/ext/snprintk.c:461
    1a18:	52800001 	mov	w1, #0x0                   	// #0
    1a1c:	14000144 	b	1f2c <__vsnprintf+0x784>
/home/lagadanu/Desktop/qemu/optee_os/lib/libutils/ext/snprintk.c:291
    1a20:	7101e11f 	cmp	w8, #0x78
    1a24:	540037e0 	b.eq	2120 <__vsnprintf+0x978>
    1a28:	7101e91f 	cmp	w8, #0x7a
    1a2c:	54000ba0 	b.eq	1ba0 <__vsnprintf+0x3f8>
    1a30:	7101d51f 	cmp	w8, #0x75
    1a34:	54fff1a1 	b.ne	1868 <__vsnprintf+0xc0>
/home/lagadanu/Desktop/qemu/optee_os/lib/libutils/ext/snprintk.c:467
    1a38:	363832b5 	tbz	w21, #7, 208c <__vsnprintf+0x8e4>
    1a3c:	37f83400 	tbnz	w0, #31, 20bc <__vsnprintf+0x914>
    1a40:	91003e61 	add	x1, x19, #0xf
    1a44:	2a0003f4 	mov	w20, w0
    1a48:	aa1303e0 	mov	x0, x19
    1a4c:	927df033 	and	x19, x1, #0xfffffffffffffff8
    1a50:	f9400005 	ldr	x5, [x0]
/home/lagadanu/Desktop/qemu/optee_os/lib/libutils/ext/snprintk.c:468
    1a54:	52800020 	mov	w0, #0x1                   	// #1
    1a58:	17ffffb7 	b	1934 <__vsnprintf+0x18c>
/home/lagadanu/Desktop/qemu/optee_os/lib/libutils/ext/snprintk.c:471
    1a5c:	d0000037 	adrp	x23, 7000 <mpa_init_static_fmm_context+0x38>
    1a60:	913822f7 	add	x23, x23, #0xe08
/home/lagadanu/Desktop/qemu/optee_os/lib/libutils/ext/snprintk.c:475
    1a64:	36383675 	tbz	w21, #7, 2130 <__vsnprintf+0x988>
    1a68:	37f837c0 	tbnz	w0, #31, 2160 <__vsnprintf+0x9b8>
    1a6c:	91003e61 	add	x1, x19, #0xf
    1a70:	2a0003f4 	mov	w20, w0
    1a74:	aa1303e0 	mov	x0, x19
    1a78:	927df033 	and	x19, x1, #0xfffffffffffffff8
    1a7c:	f9400005 	ldr	x5, [x0]
/home/lagadanu/Desktop/qemu/optee_os/lib/libutils/ext/snprintk.c:478
    1a80:	36000075 	tbz	w21, #0, 1a8c <__vsnprintf+0x2e4>
    1a84:	b4000045 	cbz	x5, 1a8c <__vsnprintf+0x2e4>
/home/lagadanu/Desktop/qemu/optee_os/lib/libutils/ext/snprintk.c:479
    1a88:	321f02b5 	orr	w21, w21, #0x2
/home/lagadanu/Desktop/qemu/optee_os/lib/libutils/ext/snprintk.c:476
    1a8c:	52800040 	mov	w0, #0x2                   	// #2
    1a90:	17ffffa9 	b	1934 <__vsnprintf+0x18c>
/home/lagadanu/Desktop/qemu/optee_os/lib/libutils/ext/snprintk.c:299
    1a94:	7100003f 	cmp	w1, #0x0
    1a98:	1a861021 	csel	w1, w1, w6, ne
    1a9c:	17ffff87 	b	18b8 <__vsnprintf+0x110>
/home/lagadanu/Desktop/qemu/optee_os/lib/libutils/ext/snprintk.c:302
    1aa0:	320002b5 	orr	w21, w21, #0x1
    1aa4:	17ffff85 	b	18b8 <__vsnprintf+0x110>
/home/lagadanu/Desktop/qemu/optee_os/lib/libutils/ext/snprintk.c:311
    1aa8:	37f80120 	tbnz	w0, #31, 1acc <__vsnprintf+0x324>
    1aac:	91002e63 	add	x3, x19, #0xb
    1ab0:	aa1303e2 	mov	x2, x19
    1ab4:	927df073 	and	x19, x3, #0xfffffffffffffff8
    1ab8:	b940004a 	ldr	w10, [x2]
    1abc:	36ffefea 	tbz	w10, #31, 18b8 <__vsnprintf+0x110>
/home/lagadanu/Desktop/qemu/optee_os/lib/libutils/ext/snprintk.c:313
    1ac0:	4b0a03ea 	neg	w10, w10
/home/lagadanu/Desktop/qemu/optee_os/lib/libutils/ext/snprintk.c:316
    1ac4:	321e02b5 	orr	w21, w21, #0x4
    1ac8:	17ffff7c 	b	18b8 <__vsnprintf+0x110>
/home/lagadanu/Desktop/qemu/optee_os/lib/libutils/ext/snprintk.c:311
    1acc:	11002003 	add	w3, w0, #0x8
    1ad0:	7100007f 	cmp	w3, #0x0
    1ad4:	540000cd 	b.le	1aec <__vsnprintf+0x344>
    1ad8:	91002e67 	add	x7, x19, #0xb
    1adc:	aa1303e2 	mov	x2, x19
    1ae0:	2a0303e0 	mov	w0, w3
    1ae4:	927df0f3 	and	x19, x7, #0xfffffffffffffff8
    1ae8:	17fffff4 	b	1ab8 <__vsnprintf+0x310>
    1aec:	8b20c382 	add	x2, x28, w0, sxtw
    1af0:	2a0303e0 	mov	w0, w3
    1af4:	17fffff1 	b	1ab8 <__vsnprintf+0x310>
/home/lagadanu/Desktop/qemu/optee_os/lib/libutils/ext/snprintk.c:322
    1af8:	39400328 	ldrb	w8, [x25]
    1afc:	91000723 	add	x3, x25, #0x1
    1b00:	7100a91f 	cmp	w8, #0x2a
    1b04:	54000140 	b.eq	1b2c <__vsnprintf+0x384>
    1b08:	aa0303f9 	mov	x25, x3
    1b0c:	52800004 	mov	w4, #0x0                   	// #0
/home/lagadanu/Desktop/qemu/optee_os/lib/libutils/ext/snprintk.c:328
    1b10:	5100c102 	sub	w2, w8, #0x30
    1b14:	7100245f 	cmp	w2, #0x9
    1b18:	54ffe8e8 	b.hi	1834 <__vsnprintf+0x8c>
/home/lagadanu/Desktop/qemu/optee_os/lib/libutils/ext/snprintk.c:329
    1b1c:	52800143 	mov	w3, #0xa                   	// #10
/home/lagadanu/Desktop/qemu/optee_os/lib/libutils/ext/snprintk.c:330
    1b20:	38401728 	ldrb	w8, [x25],#1
/home/lagadanu/Desktop/qemu/optee_os/lib/libutils/ext/snprintk.c:329
    1b24:	1b030884 	madd	w4, w4, w3, w2
    1b28:	17fffffa 	b	1b10 <__vsnprintf+0x368>
/home/lagadanu/Desktop/qemu/optee_os/lib/libutils/ext/snprintk.c:323
    1b2c:	37f80160 	tbnz	w0, #31, 1b58 <__vsnprintf+0x3b0>
    1b30:	91002e64 	add	x4, x19, #0xb
    1b34:	2a0003e2 	mov	w2, w0
    1b38:	aa1303e0 	mov	x0, x19
    1b3c:	927df093 	and	x19, x4, #0xfffffffffffffff8
/home/lagadanu/Desktop/qemu/optee_os/lib/libutils/ext/snprintk.c:324
    1b40:	b9400004 	ldr	w4, [x0]
/home/lagadanu/Desktop/qemu/optee_os/lib/libutils/ext/snprintk.c:322
    1b44:	aa0303f9 	mov	x25, x3
/home/lagadanu/Desktop/qemu/optee_os/lib/libutils/ext/snprintk.c:324
    1b48:	2a0203e0 	mov	w0, w2
    1b4c:	7100009f 	cmp	w4, #0x0
    1b50:	1a85a084 	csel	w4, w4, w5, ge
    1b54:	17ffff59 	b	18b8 <__vsnprintf+0x110>
/home/lagadanu/Desktop/qemu/optee_os/lib/libutils/ext/snprintk.c:323
    1b58:	11002002 	add	w2, w0, #0x8
    1b5c:	8b20c380 	add	x0, x28, w0, sxtw
    1b60:	7100005f 	cmp	w2, #0x0
    1b64:	54fffeed 	b.le	1b40 <__vsnprintf+0x398>
    1b68:	91002e64 	add	x4, x19, #0xb
    1b6c:	17fffff3 	b	1b38 <__vsnprintf+0x390>
/home/lagadanu/Desktop/qemu/optee_os/lib/libutils/ext/snprintk.c:340
    1b70:	321602b5 	orr	w21, w21, #0x400
    1b74:	17ffff51 	b	18b8 <__vsnprintf+0x110>
/home/lagadanu/Desktop/qemu/optee_os/lib/libutils/ext/snprintk.c:358
    1b78:	39400322 	ldrb	w2, [x25]
    1b7c:	7101b05f 	cmp	w2, #0x6c
    1b80:	54000081 	b.ne	1b90 <__vsnprintf+0x3e8>
/home/lagadanu/Desktop/qemu/optee_os/lib/libutils/ext/snprintk.c:359
    1b84:	91000739 	add	x25, x25, #0x1
/home/lagadanu/Desktop/qemu/optee_os/lib/libutils/ext/snprintk.c:366
    1b88:	321b02b5 	orr	w21, w21, #0x20
    1b8c:	17ffff4b 	b	18b8 <__vsnprintf+0x110>
/home/lagadanu/Desktop/qemu/optee_os/lib/libutils/ext/snprintk.c:362
    1b90:	321c02b5 	orr	w21, w21, #0x10
    1b94:	17ffff49 	b	18b8 <__vsnprintf+0x110>
/home/lagadanu/Desktop/qemu/optee_os/lib/libutils/ext/snprintk.c:369
    1b98:	321802b5 	orr	w21, w21, #0x100
    1b9c:	17ffff47 	b	18b8 <__vsnprintf+0x110>
/home/lagadanu/Desktop/qemu/optee_os/lib/libutils/ext/snprintk.c:372
    1ba0:	321702b5 	orr	w21, w21, #0x200
    1ba4:	17ffff45 	b	18b8 <__vsnprintf+0x110>
/home/lagadanu/Desktop/qemu/optee_os/lib/libutils/ext/snprintk.c:375
    1ba8:	37f80140 	tbnz	w0, #31, 1bd0 <__vsnprintf+0x428>
    1bac:	91002e61 	add	x1, x19, #0xb
    1bb0:	2a0003f4 	mov	w20, w0
    1bb4:	aa1303e0 	mov	x0, x19
    1bb8:	927df033 	and	x19, x1, #0xfffffffffffffff8
    1bbc:	910303a3 	add	x3, x29, #0xc0
    1bc0:	b9400000 	ldr	w0, [x0]
    1bc4:	381d8c60 	strb	w0, [x3,#-40]!
/home/lagadanu/Desktop/qemu/optee_os/lib/libutils/ext/snprintk.c:546
    1bc8:	52800024 	mov	w4, #0x1                   	// #1
    1bcc:	17ffff92 	b	1a14 <__vsnprintf+0x26c>
/home/lagadanu/Desktop/qemu/optee_os/lib/libutils/ext/snprintk.c:375
    1bd0:	11002014 	add	w20, w0, #0x8
    1bd4:	8b20c380 	add	x0, x28, w0, sxtw
    1bd8:	7100029f 	cmp	w20, #0x0
    1bdc:	54ffff0d 	b.le	1bbc <__vsnprintf+0x414>
    1be0:	91002e61 	add	x1, x19, #0xb
    1be4:	17fffff4 	b	1bb4 <__vsnprintf+0x40c>
/home/lagadanu/Desktop/qemu/optee_os/lib/libutils/ext/snprintk.c:380
    1be8:	321c02b5 	orr	w21, w21, #0x10
/home/lagadanu/Desktop/qemu/optee_os/lib/libutils/ext/snprintk.c:384
    1bec:	36380515 	tbz	w21, #7, 1c8c <__vsnprintf+0x4e4>
    1bf0:	37f80660 	tbnz	w0, #31, 1cbc <__vsnprintf+0x514>
    1bf4:	91003e62 	add	x2, x19, #0xf
    1bf8:	2a0003f4 	mov	w20, w0
    1bfc:	aa1303e0 	mov	x0, x19
    1c00:	927df053 	and	x19, x2, #0xfffffffffffffff8
    1c04:	f9400005 	ldr	x5, [x0]
/home/lagadanu/Desktop/qemu/optee_os/lib/libutils/ext/snprintk.c:389
    1c08:	52800020 	mov	w0, #0x1                   	// #1
/home/lagadanu/Desktop/qemu/optee_os/lib/libutils/ext/snprintk.c:385
    1c0c:	b6f80065 	tbz	x5, #63, 1c18 <__vsnprintf+0x470>
/home/lagadanu/Desktop/qemu/optee_os/lib/libutils/ext/snprintk.c:386
    1c10:	cb0503e5 	neg	x5, x5
/home/lagadanu/Desktop/qemu/optee_os/lib/libutils/ext/snprintk.c:387
    1c14:	528005a1 	mov	w1, #0x2d                  	// #45
/home/lagadanu/Desktop/qemu/optee_os/lib/libutils/ext/snprintk.c:489
    1c18:	3100049f 	cmn	w4, #0x1
    1c1c:	12157aa2 	and	w2, w21, #0xfffffbff
    1c20:	1a951055 	csel	w21, w2, w21, ne
/home/lagadanu/Desktop/qemu/optee_os/lib/libutils/ext/snprintk.c:497
    1c24:	f10000bf 	cmp	x5, #0x0
    1c28:	7a400880 	ccmp	w4, #0x0, #0x0, eq
/home/lagadanu/Desktop/qemu/optee_os/lib/libutils/ext/snprintk.c:496
    1c2c:	91009703 	add	x3, x24, #0x25
/home/lagadanu/Desktop/qemu/optee_os/lib/libutils/ext/snprintk.c:497
    1c30:	54000260 	b.eq	1c7c <__vsnprintf+0x4d4>
/home/lagadanu/Desktop/qemu/optee_os/lib/libutils/ext/snprintk.c:503
    1c34:	7100041f 	cmp	w0, #0x1
    1c38:	54002c60 	b.eq	21c4 <__vsnprintf+0xa1c>
    1c3c:	7100081f 	cmp	w0, #0x2
    1c40:	54002e40 	b.eq	2208 <__vsnprintf+0xa60>
    1c44:	91009700 	add	x0, x24, #0x25
/home/lagadanu/Desktop/qemu/optee_os/lib/libutils/ext/snprintk.c:506
    1c48:	120008a2 	and	w2, w5, #0x7
    1c4c:	d1000403 	sub	x3, x0, #0x1
    1c50:	1100c042 	add	w2, w2, #0x30
    1c54:	381ff002 	sturb	w2, [x0,#-1]
/home/lagadanu/Desktop/qemu/optee_os/lib/libutils/ext/snprintk.c:507
    1c58:	d343fca5 	lsr	x5, x5, #3
/home/lagadanu/Desktop/qemu/optee_os/lib/libutils/ext/snprintk.c:508
    1c5c:	b5002c45 	cbnz	x5, 21e4 <__vsnprintf+0xa3c>
/home/lagadanu/Desktop/qemu/optee_os/lib/libutils/ext/snprintk.c:510
    1c60:	7100c05f 	cmp	w2, #0x30
    1c64:	1a9f07e2 	cset	w2, ne
    1c68:	6a0202bf 	tst	w21, w2
    1c6c:	54000080 	b.eq	1c7c <__vsnprintf+0x4d4>
/home/lagadanu/Desktop/qemu/optee_os/lib/libutils/ext/snprintk.c:511
    1c70:	52800602 	mov	w2, #0x30                  	// #48
    1c74:	381ff062 	sturb	w2, [x3,#-1]
    1c78:	d1000803 	sub	x3, x0, #0x2
/home/lagadanu/Desktop/qemu/optee_os/lib/libutils/ext/snprintk.c:537
    1c7c:	91009702 	add	x2, x24, #0x25
    1c80:	2a0403e0 	mov	w0, w4
    1c84:	4b030044 	sub	w4, w2, w3
    1c88:	140000a9 	b	1f2c <__vsnprintf+0x784>
/home/lagadanu/Desktop/qemu/optee_os/lib/libutils/ext/snprintk.c:384
    1c8c:	3747fb35 	tbnz	w21, #8, 1bf0 <__vsnprintf+0x448>
    1c90:	374ffb15 	tbnz	w21, #9, 1bf0 <__vsnprintf+0x448>
    1c94:	372ffaf5 	tbnz	w21, #5, 1bf0 <__vsnprintf+0x448>
    1c98:	3727fad5 	tbnz	w21, #4, 1bf0 <__vsnprintf+0x448>
    1c9c:	36300295 	tbz	w21, #6, 1cec <__vsnprintf+0x544>
    1ca0:	37f801a0 	tbnz	w0, #31, 1cd4 <__vsnprintf+0x52c>
    1ca4:	91002e62 	add	x2, x19, #0xb
    1ca8:	2a0003f4 	mov	w20, w0
    1cac:	aa1303e0 	mov	x0, x19
    1cb0:	927df053 	and	x19, x2, #0xfffffffffffffff8
    1cb4:	79800005 	ldrsh	x5, [x0]
    1cb8:	17ffffd4 	b	1c08 <__vsnprintf+0x460>
    1cbc:	11002014 	add	w20, w0, #0x8
    1cc0:	8b20c380 	add	x0, x28, w0, sxtw
    1cc4:	7100029f 	cmp	w20, #0x0
    1cc8:	54fff9ed 	b.le	1c04 <__vsnprintf+0x45c>
    1ccc:	91003e62 	add	x2, x19, #0xf
    1cd0:	17ffffcb 	b	1bfc <__vsnprintf+0x454>
    1cd4:	11002014 	add	w20, w0, #0x8
    1cd8:	8b20c380 	add	x0, x28, w0, sxtw
    1cdc:	7100029f 	cmp	w20, #0x0
    1ce0:	54fffead 	b.le	1cb4 <__vsnprintf+0x50c>
    1ce4:	91002e62 	add	x2, x19, #0xb
    1ce8:	17fffff1 	b	1cac <__vsnprintf+0x504>
    1cec:	37f800e0 	tbnz	w0, #31, 1d08 <__vsnprintf+0x560>
    1cf0:	91002e62 	add	x2, x19, #0xb
    1cf4:	2a0003f4 	mov	w20, w0
    1cf8:	aa1303e0 	mov	x0, x19
    1cfc:	927df053 	and	x19, x2, #0xfffffffffffffff8
    1d00:	b9800005 	ldrsw	x5, [x0]
    1d04:	17ffffc1 	b	1c08 <__vsnprintf+0x460>
    1d08:	11002014 	add	w20, w0, #0x8
    1d0c:	8b20c380 	add	x0, x28, w0, sxtw
    1d10:	7100029f 	cmp	w20, #0x0
    1d14:	54ffff6d 	b.le	1d00 <__vsnprintf+0x558>
    1d18:	91002e62 	add	x2, x19, #0xb
    1d1c:	17fffff7 	b	1cf8 <__vsnprintf+0x550>
/home/lagadanu/Desktop/qemu/optee_os/lib/libutils/ext/snprintk.c:392
    1d20:	36380155 	tbz	w21, #7, 1d48 <__vsnprintf+0x5a0>
/home/lagadanu/Desktop/qemu/optee_os/lib/libutils/ext/snprintk.c:401
    1d24:	37f802c0 	tbnz	w0, #31, 1d7c <__vsnprintf+0x5d4>
    1d28:	91003e61 	add	x1, x19, #0xf
    1d2c:	2a0003f4 	mov	w20, w0
    1d30:	aa1303e0 	mov	x0, x19
    1d34:	927df033 	and	x19, x1, #0xfffffffffffffff8
    1d38:	f9400000 	ldr	x0, [x0]
    1d3c:	93407f61 	sxtw	x1, w27
    1d40:	f9000001 	str	x1, [x0]
    1d44:	17fffead 	b	17f8 <__vsnprintf+0x50>
/home/lagadanu/Desktop/qemu/optee_os/lib/libutils/ext/snprintk.c:394
    1d48:	3747fef5 	tbnz	w21, #8, 1d24 <__vsnprintf+0x57c>
/home/lagadanu/Desktop/qemu/optee_os/lib/libutils/ext/snprintk.c:396
    1d4c:	374ffed5 	tbnz	w21, #9, 1d24 <__vsnprintf+0x57c>
/home/lagadanu/Desktop/qemu/optee_os/lib/libutils/ext/snprintk.c:398
    1d50:	372ffeb5 	tbnz	w21, #5, 1d24 <__vsnprintf+0x57c>
/home/lagadanu/Desktop/qemu/optee_os/lib/libutils/ext/snprintk.c:400
    1d54:	3727fe95 	tbnz	w21, #4, 1d24 <__vsnprintf+0x57c>
/home/lagadanu/Desktop/qemu/optee_os/lib/libutils/ext/snprintk.c:402
    1d58:	363002b5 	tbz	w21, #6, 1dac <__vsnprintf+0x604>
/home/lagadanu/Desktop/qemu/optee_os/lib/libutils/ext/snprintk.c:403
    1d5c:	37f801c0 	tbnz	w0, #31, 1d94 <__vsnprintf+0x5ec>
    1d60:	91003e61 	add	x1, x19, #0xf
    1d64:	2a0003f4 	mov	w20, w0
    1d68:	aa1303e0 	mov	x0, x19
    1d6c:	927df033 	and	x19, x1, #0xfffffffffffffff8
    1d70:	f9400000 	ldr	x0, [x0]
    1d74:	7900001b 	strh	w27, [x0]
    1d78:	17fffea0 	b	17f8 <__vsnprintf+0x50>
/home/lagadanu/Desktop/qemu/optee_os/lib/libutils/ext/snprintk.c:401
    1d7c:	11002014 	add	w20, w0, #0x8
    1d80:	8b20c380 	add	x0, x28, w0, sxtw
    1d84:	7100029f 	cmp	w20, #0x0
    1d88:	54fffd8d 	b.le	1d38 <__vsnprintf+0x590>
    1d8c:	91003e61 	add	x1, x19, #0xf
    1d90:	17ffffe8 	b	1d30 <__vsnprintf+0x588>
/home/lagadanu/Desktop/qemu/optee_os/lib/libutils/ext/snprintk.c:403
    1d94:	11002014 	add	w20, w0, #0x8
    1d98:	8b20c380 	add	x0, x28, w0, sxtw
    1d9c:	7100029f 	cmp	w20, #0x0
    1da0:	54fffe8d 	b.le	1d70 <__vsnprintf+0x5c8>
    1da4:	91003e61 	add	x1, x19, #0xf
    1da8:	17fffff0 	b	1d68 <__vsnprintf+0x5c0>
/home/lagadanu/Desktop/qemu/optee_os/lib/libutils/ext/snprintk.c:405
    1dac:	37f80100 	tbnz	w0, #31, 1dcc <__vsnprintf+0x624>
    1db0:	91003e61 	add	x1, x19, #0xf
    1db4:	2a0003f4 	mov	w20, w0
    1db8:	aa1303e0 	mov	x0, x19
    1dbc:	927df033 	and	x19, x1, #0xfffffffffffffff8
    1dc0:	f9400000 	ldr	x0, [x0]
    1dc4:	b900001b 	str	w27, [x0]
    1dc8:	17fffe8c 	b	17f8 <__vsnprintf+0x50>
    1dcc:	11002014 	add	w20, w0, #0x8
    1dd0:	8b20c380 	add	x0, x28, w0, sxtw
    1dd4:	7100029f 	cmp	w20, #0x0
    1dd8:	54ffff4d 	b.le	1dc0 <__vsnprintf+0x618>
    1ddc:	91003e61 	add	x1, x19, #0xf
    1de0:	17fffff6 	b	1db8 <__vsnprintf+0x610>
/home/lagadanu/Desktop/qemu/optee_os/lib/libutils/ext/snprintk.c:411
    1de4:	3747d9b5 	tbnz	w21, #8, 1918 <__vsnprintf+0x170>
    1de8:	374fd995 	tbnz	w21, #9, 1918 <__vsnprintf+0x170>
    1dec:	372fd975 	tbnz	w21, #5, 1918 <__vsnprintf+0x170>
    1df0:	3727d955 	tbnz	w21, #4, 1918 <__vsnprintf+0x170>
    1df4:	36300295 	tbz	w21, #6, 1e44 <__vsnprintf+0x69c>
    1df8:	37f801a0 	tbnz	w0, #31, 1e2c <__vsnprintf+0x684>
    1dfc:	91002e61 	add	x1, x19, #0xb
    1e00:	2a0003f4 	mov	w20, w0
    1e04:	aa1303e0 	mov	x0, x19
    1e08:	927df033 	and	x19, x1, #0xfffffffffffffff8
    1e0c:	79400005 	ldrh	w5, [x0]
    1e10:	17fffec8 	b	1930 <__vsnprintf+0x188>
    1e14:	11002014 	add	w20, w0, #0x8
    1e18:	8b20c380 	add	x0, x28, w0, sxtw
    1e1c:	7100029f 	cmp	w20, #0x0
    1e20:	54ffd86d 	b.le	192c <__vsnprintf+0x184>
    1e24:	91003e61 	add	x1, x19, #0xf
    1e28:	17fffebf 	b	1924 <__vsnprintf+0x17c>
    1e2c:	11002014 	add	w20, w0, #0x8
    1e30:	8b20c380 	add	x0, x28, w0, sxtw
    1e34:	7100029f 	cmp	w20, #0x0
    1e38:	54fffead 	b.le	1e0c <__vsnprintf+0x664>
    1e3c:	91002e61 	add	x1, x19, #0xb
    1e40:	17fffff1 	b	1e04 <__vsnprintf+0x65c>
    1e44:	37f800e0 	tbnz	w0, #31, 1e60 <__vsnprintf+0x6b8>
    1e48:	91002e61 	add	x1, x19, #0xb
    1e4c:	2a0003f4 	mov	w20, w0
    1e50:	aa1303e0 	mov	x0, x19
    1e54:	927df033 	and	x19, x1, #0xfffffffffffffff8
    1e58:	b9400005 	ldr	w5, [x0]
    1e5c:	17fffeb5 	b	1930 <__vsnprintf+0x188>
    1e60:	11002014 	add	w20, w0, #0x8
    1e64:	8b20c380 	add	x0, x28, w0, sxtw
    1e68:	7100029f 	cmp	w20, #0x0
    1e6c:	54ffff6d 	b.le	1e58 <__vsnprintf+0x6b0>
    1e70:	91002e61 	add	x1, x19, #0xb
    1e74:	17fffff7 	b	1e50 <__vsnprintf+0x6a8>
/home/lagadanu/Desktop/qemu/optee_os/lib/libutils/ext/snprintk.c:415
    1e78:	b9407fa1 	ldr	w1, [x29,#124]
    1e7c:	34000b81 	cbz	w1, 1fec <__vsnprintf+0x844>
    1e80:	39400321 	ldrb	w1, [x25]
    1e84:	7101543f 	cmp	w1, #0x55
    1e88:	54000b21 	b.ne	1fec <__vsnprintf+0x844>
    1e8c:	39400721 	ldrb	w1, [x25,#1]
    1e90:	7101b03f 	cmp	w1, #0x6c
    1e94:	54000ac1 	b.ne	1fec <__vsnprintf+0x844>
/home/lagadanu/Desktop/qemu/optee_os/lib/libutils/ext/snprintk.c:420
    1e98:	91000b39 	add	x25, x25, #0x2
/home/lagadanu/Desktop/qemu/optee_os/lib/libutils/ext/snprintk.c:421
    1e9c:	37f809c0 	tbnz	w0, #31, 1fd4 <__vsnprintf+0x82c>
    1ea0:	91003e61 	add	x1, x19, #0xf
    1ea4:	2a0003f4 	mov	w20, w0
    1ea8:	aa1303e0 	mov	x0, x19
    1eac:	927df033 	and	x19, x1, #0xfffffffffffffff8
    1eb0:	f9400000 	ldr	x0, [x0]
uuid2str():
/home/lagadanu/Desktop/qemu/optee_os/lib/libutils/ext/snprintk.c:223
    1eb4:	90000042 	adrp	x2, 9000 <__func__.3181+0x410>
    1eb8:	b90073aa 	str	w10, [x29,#112]
    1ebc:	91039842 	add	x2, x2, #0xe6
    1ec0:	b9007ba8 	str	w8, [x29,#120]
    1ec4:	39403c01 	ldrb	w1, [x0,#15]
    1ec8:	79400804 	ldrh	w4, [x0,#4]
    1ecc:	39402407 	ldrb	w7, [x0,#9]
    1ed0:	39402006 	ldrb	w6, [x0,#8]
    1ed4:	79400c05 	ldrh	w5, [x0,#6]
    1ed8:	b9002be1 	str	w1, [sp,#40]
    1edc:	39403801 	ldrb	w1, [x0,#14]
    1ee0:	b90023e1 	str	w1, [sp,#32]
    1ee4:	39403401 	ldrb	w1, [x0,#13]
    1ee8:	b9001be1 	str	w1, [sp,#24]
    1eec:	39403001 	ldrb	w1, [x0,#12]
    1ef0:	b90013e1 	str	w1, [sp,#16]
    1ef4:	39402c01 	ldrb	w1, [x0,#11]
    1ef8:	b9000be1 	str	w1, [sp,#8]
    1efc:	39402801 	ldrb	w1, [x0,#10]
    1f00:	b90003e1 	str	w1, [sp]
    1f04:	d28004a1 	mov	x1, #0x25                  	// #37
    1f08:	b9400003 	ldr	w3, [x0]
    1f0c:	aa1803e0 	mov	x0, x24
    1f10:	94000125 	bl	23a4 <snprintk>
    1f14:	2a0003e4 	mov	w4, w0
    1f18:	b94073aa 	ldr	w10, [x29,#112]
kprintf():
/home/lagadanu/Desktop/qemu/optee_os/lib/libutils/ext/snprintk.c:423
    1f1c:	aa1803e3 	mov	x3, x24
    1f20:	b9407ba8 	ldr	w8, [x29,#120]
/home/lagadanu/Desktop/qemu/optee_os/lib/libutils/ext/snprintk.c:285
    1f24:	52800000 	mov	w0, #0x0                   	// #0
/home/lagadanu/Desktop/qemu/optee_os/lib/libutils/ext/snprintk.c:424
    1f28:	52800001 	mov	w1, #0x0                   	// #0
/home/lagadanu/Desktop/qemu/optee_os/lib/libutils/ext/snprintk.c:565
    1f2c:	6b04001f 	cmp	w0, w4
    1f30:	1a84a006 	csel	w6, w0, w4, ge
/home/lagadanu/Desktop/qemu/optee_os/lib/libutils/ext/snprintk.c:566
    1f34:	34001781 	cbz	w1, 2224 <__vsnprintf+0xa7c>
/home/lagadanu/Desktop/qemu/optee_os/lib/libutils/ext/snprintk.c:567
    1f38:	110004c6 	add	w6, w6, #0x1
/home/lagadanu/Desktop/qemu/optee_os/lib/libutils/ext/snprintk.c:572
    1f3c:	6b06015f 	cmp	w10, w6
    1f40:	1a86a142 	csel	w2, w10, w6, ge
    1f44:	0b02037b 	add	w27, w27, w2
/home/lagadanu/Desktop/qemu/optee_os/lib/libutils/ext/snprintk.c:575
    1f48:	52808082 	mov	w2, #0x404                 	// #1028
    1f4c:	6a0202a2 	ands	w2, w21, w2
    1f50:	540000a1 	b.ne	1f64 <__vsnprintf+0x7bc>
/home/lagadanu/Desktop/qemu/optee_os/lib/libutils/ext/snprintk.c:576
    1f54:	4b060145 	sub	w5, w10, w6
/home/lagadanu/Desktop/qemu/optee_os/lib/libutils/ext/snprintk.c:578
    1f58:	52800407 	mov	w7, #0x20                  	// #32
/home/lagadanu/Desktop/qemu/optee_os/lib/libutils/ext/snprintk.c:577
    1f5c:	710000bf 	cmp	w5, #0x0
    1f60:	540016ac 	b.gt	2234 <__vsnprintf+0xa8c>
/home/lagadanu/Desktop/qemu/optee_os/lib/libutils/ext/snprintk.c:582
    1f64:	34001801 	cbz	w1, 2264 <__vsnprintf+0xabc>
/home/lagadanu/Desktop/qemu/optee_os/lib/libutils/ext/snprintk.c:583
    1f68:	b5001756 	cbnz	x22, 2250 <__vsnprintf+0xaa8>
/home/lagadanu/Desktop/qemu/optee_os/lib/libutils/ext/snprintk.c:586
    1f6c:	d2800016 	mov	x22, #0x0                   	// #0
/home/lagadanu/Desktop/qemu/optee_os/lib/libutils/ext/snprintk.c:590
    1f70:	7110005f 	cmp	w2, #0x400
    1f74:	540000a1 	b.ne	1f88 <__vsnprintf+0x7e0>
/home/lagadanu/Desktop/qemu/optee_os/lib/libutils/ext/snprintk.c:591
    1f78:	4b060141 	sub	w1, w10, w6
/home/lagadanu/Desktop/qemu/optee_os/lib/libutils/ext/snprintk.c:593
    1f7c:	52800602 	mov	w2, #0x30                  	// #48
/home/lagadanu/Desktop/qemu/optee_os/lib/libutils/ext/snprintk.c:592
    1f80:	7100003f 	cmp	w1, #0x0
    1f84:	540018ec 	b.gt	22a0 <__vsnprintf+0xaf8>
/home/lagadanu/Desktop/qemu/optee_os/lib/libutils/ext/snprintk.c:597
    1f88:	4b040000 	sub	w0, w0, w4
/home/lagadanu/Desktop/qemu/optee_os/lib/libutils/ext/snprintk.c:599
    1f8c:	52800601 	mov	w1, #0x30                  	// #48
/home/lagadanu/Desktop/qemu/optee_os/lib/libutils/ext/snprintk.c:598
    1f90:	7100001f 	cmp	w0, #0x0
    1f94:	5400194c 	b.gt	22bc <__vsnprintf+0xb14>
    1f98:	8b244064 	add	x4, x3, w4, uxtw
/home/lagadanu/Desktop/qemu/optee_os/lib/libutils/ext/snprintk.c:602
    1f9c:	eb04007f 	cmp	x3, x4
    1fa0:	540019c1 	b.ne	22d8 <__vsnprintf+0xb30>
/home/lagadanu/Desktop/qemu/optee_os/lib/libutils/ext/snprintk.c:605
    1fa4:	3617c2b5 	tbz	w21, #2, 17f8 <__vsnprintf+0x50>
/home/lagadanu/Desktop/qemu/optee_os/lib/libutils/ext/snprintk.c:606
    1fa8:	4b06014a 	sub	w10, w10, w6
/home/lagadanu/Desktop/qemu/optee_os/lib/libutils/ext/snprintk.c:608
    1fac:	52800400 	mov	w0, #0x20                  	// #32
/home/lagadanu/Desktop/qemu/optee_os/lib/libutils/ext/snprintk.c:607
    1fb0:	7100015f 	cmp	w10, #0x0
    1fb4:	54ffc22d 	b.le	17f8 <__vsnprintf+0x50>
/home/lagadanu/Desktop/qemu/optee_os/lib/libutils/ext/snprintk.c:608
    1fb8:	b40000b6 	cbz	x22, 1fcc <__vsnprintf+0x824>
    1fbc:	eb16035f 	cmp	x26, x22
    1fc0:	54000069 	b.ls	1fcc <__vsnprintf+0x824>
    1fc4:	390002c0 	strb	w0, [x22]
    1fc8:	910006d6 	add	x22, x22, #0x1
    1fcc:	5100054a 	sub	w10, w10, #0x1
    1fd0:	17fffff8 	b	1fb0 <__vsnprintf+0x808>
/home/lagadanu/Desktop/qemu/optee_os/lib/libutils/ext/snprintk.c:421
    1fd4:	11002014 	add	w20, w0, #0x8
    1fd8:	8b20c380 	add	x0, x28, w0, sxtw
    1fdc:	7100029f 	cmp	w20, #0x0
    1fe0:	54fff68d 	b.le	1eb0 <__vsnprintf+0x708>
    1fe4:	91003e61 	add	x1, x19, #0xf
    1fe8:	17ffffb0 	b	1ea8 <__vsnprintf+0x700>
/home/lagadanu/Desktop/qemu/optee_os/lib/libutils/ext/snprintk.c:435
    1fec:	37f801c0 	tbnz	w0, #31, 2024 <__vsnprintf+0x87c>
    1ff0:	91003e61 	add	x1, x19, #0xf
    1ff4:	2a0003f4 	mov	w20, w0
    1ff8:	aa1303e0 	mov	x0, x19
    1ffc:	927df033 	and	x19, x1, #0xfffffffffffffff8
/home/lagadanu/Desktop/qemu/optee_os/lib/libutils/ext/snprintk.c:437
    2000:	b0000037 	adrp	x23, 7000 <mpa_init_static_fmm_context+0x38>
    2004:	913822f7 	add	x23, x23, #0xe08
/home/lagadanu/Desktop/qemu/optee_os/lib/libutils/ext/snprintk.c:435
    2008:	f9400005 	ldr	x5, [x0]
/home/lagadanu/Desktop/qemu/optee_os/lib/libutils/ext/snprintk.c:438
    200c:	321f02b5 	orr	w21, w21, #0x2
/home/lagadanu/Desktop/qemu/optee_os/lib/libutils/ext/snprintk.c:437
    2010:	910062f7 	add	x23, x23, #0x18
/home/lagadanu/Desktop/qemu/optee_os/lib/libutils/ext/snprintk.c:482
    2014:	52800001 	mov	w1, #0x0                   	// #0
/home/lagadanu/Desktop/qemu/optee_os/lib/libutils/ext/snprintk.c:439
    2018:	52800f08 	mov	w8, #0x78                  	// #120
/home/lagadanu/Desktop/qemu/optee_os/lib/libutils/ext/snprintk.c:436
    201c:	52800040 	mov	w0, #0x2                   	// #2
    2020:	17fffefe 	b	1c18 <__vsnprintf+0x470>
/home/lagadanu/Desktop/qemu/optee_os/lib/libutils/ext/snprintk.c:435
    2024:	11002014 	add	w20, w0, #0x8
    2028:	8b20c380 	add	x0, x28, w0, sxtw
    202c:	7100029f 	cmp	w20, #0x0
    2030:	54fffe8d 	b.le	2000 <__vsnprintf+0x858>
    2034:	91003e61 	add	x1, x19, #0xf
    2038:	17fffff0 	b	1ff8 <__vsnprintf+0x850>
/home/lagadanu/Desktop/qemu/optee_os/lib/libutils/ext/snprintk.c:442
    203c:	11002014 	add	w20, w0, #0x8
    2040:	8b20c380 	add	x0, x28, w0, sxtw
    2044:	7100029f 	cmp	w20, #0x0
    2048:	54ffcbcd 	b.le	19c0 <__vsnprintf+0x218>
    204c:	91003e61 	add	x1, x19, #0xf
    2050:	17fffe5a 	b	19b8 <__vsnprintf+0x210>
/home/lagadanu/Desktop/qemu/optee_os/lib/libutils/ext/snprintk.c:460
    2054:	aa0303e0 	mov	x0, x3
    2058:	b9006fa8 	str	w8, [x29,#108]
    205c:	f9003ba3 	str	x3, [x29,#112]
    2060:	b9007baa 	str	w10, [x29,#120]
    2064:	940000f8 	bl	2444 <strlen>
/home/lagadanu/Desktop/qemu/optee_os/lib/libutils/ext/snprintk.c:461
    2068:	52800001 	mov	w1, #0x0                   	// #0
/home/lagadanu/Desktop/qemu/optee_os/lib/libutils/ext/snprintk.c:460
    206c:	2a0003e4 	mov	w4, w0
    2070:	b9406fa8 	ldr	w8, [x29,#108]
/home/lagadanu/Desktop/qemu/optee_os/lib/libutils/ext/snprintk.c:285
    2074:	52800000 	mov	w0, #0x0                   	// #0
    2078:	b9407baa 	ldr	w10, [x29,#120]
    207c:	f9403ba3 	ldr	x3, [x29,#112]
    2080:	17ffffab 	b	1f2c <__vsnprintf+0x784>
/home/lagadanu/Desktop/qemu/optee_os/lib/libutils/ext/snprintk.c:464
    2084:	321c02b5 	orr	w21, w21, #0x10
    2088:	17fffe6c 	b	1a38 <__vsnprintf+0x290>
/home/lagadanu/Desktop/qemu/optee_os/lib/libutils/ext/snprintk.c:467
    208c:	3747cd95 	tbnz	w21, #8, 1a3c <__vsnprintf+0x294>
    2090:	374fcd75 	tbnz	w21, #9, 1a3c <__vsnprintf+0x294>
    2094:	372fcd55 	tbnz	w21, #5, 1a3c <__vsnprintf+0x294>
    2098:	3727cd35 	tbnz	w21, #4, 1a3c <__vsnprintf+0x294>
    209c:	36300295 	tbz	w21, #6, 20ec <__vsnprintf+0x944>
    20a0:	37f801a0 	tbnz	w0, #31, 20d4 <__vsnprintf+0x92c>
    20a4:	91002e61 	add	x1, x19, #0xb
    20a8:	2a0003f4 	mov	w20, w0
    20ac:	aa1303e0 	mov	x0, x19
    20b0:	927df033 	and	x19, x1, #0xfffffffffffffff8
    20b4:	79400005 	ldrh	w5, [x0]
    20b8:	17fffe67 	b	1a54 <__vsnprintf+0x2ac>
    20bc:	11002014 	add	w20, w0, #0x8
    20c0:	8b20c380 	add	x0, x28, w0, sxtw
    20c4:	7100029f 	cmp	w20, #0x0
    20c8:	54ffcc4d 	b.le	1a50 <__vsnprintf+0x2a8>
    20cc:	91003e61 	add	x1, x19, #0xf
    20d0:	17fffe5e 	b	1a48 <__vsnprintf+0x2a0>
    20d4:	11002014 	add	w20, w0, #0x8
    20d8:	8b20c380 	add	x0, x28, w0, sxtw
    20dc:	7100029f 	cmp	w20, #0x0
    20e0:	54fffead 	b.le	20b4 <__vsnprintf+0x90c>
    20e4:	91002e61 	add	x1, x19, #0xb
    20e8:	17fffff1 	b	20ac <__vsnprintf+0x904>
    20ec:	37f800e0 	tbnz	w0, #31, 2108 <__vsnprintf+0x960>
    20f0:	91002e61 	add	x1, x19, #0xb
    20f4:	2a0003f4 	mov	w20, w0
    20f8:	aa1303e0 	mov	x0, x19
    20fc:	927df033 	and	x19, x1, #0xfffffffffffffff8
    2100:	b9400005 	ldr	w5, [x0]
    2104:	17fffe54 	b	1a54 <__vsnprintf+0x2ac>
    2108:	11002014 	add	w20, w0, #0x8
    210c:	8b20c380 	add	x0, x28, w0, sxtw
    2110:	7100029f 	cmp	w20, #0x0
    2114:	54ffff6d 	b.le	2100 <__vsnprintf+0x958>
    2118:	91002e61 	add	x1, x19, #0xb
    211c:	17fffff7 	b	20f8 <__vsnprintf+0x950>
/home/lagadanu/Desktop/qemu/optee_os/lib/libutils/ext/snprintk.c:474
    2120:	b0000037 	adrp	x23, 7000 <mpa_init_static_fmm_context+0x38>
    2124:	913822f7 	add	x23, x23, #0xe08
    2128:	910062f7 	add	x23, x23, #0x18
    212c:	17fffe4e 	b	1a64 <__vsnprintf+0x2bc>
/home/lagadanu/Desktop/qemu/optee_os/lib/libutils/ext/snprintk.c:475
    2130:	3747c9d5 	tbnz	w21, #8, 1a68 <__vsnprintf+0x2c0>
    2134:	374fc9b5 	tbnz	w21, #9, 1a68 <__vsnprintf+0x2c0>
    2138:	372fc995 	tbnz	w21, #5, 1a68 <__vsnprintf+0x2c0>
    213c:	3727c975 	tbnz	w21, #4, 1a68 <__vsnprintf+0x2c0>
    2140:	36300295 	tbz	w21, #6, 2190 <__vsnprintf+0x9e8>
    2144:	37f801a0 	tbnz	w0, #31, 2178 <__vsnprintf+0x9d0>
    2148:	91002e61 	add	x1, x19, #0xb
    214c:	2a0003f4 	mov	w20, w0
    2150:	aa1303e0 	mov	x0, x19
    2154:	927df033 	and	x19, x1, #0xfffffffffffffff8
    2158:	79400005 	ldrh	w5, [x0]
    215c:	17fffe49 	b	1a80 <__vsnprintf+0x2d8>
    2160:	11002014 	add	w20, w0, #0x8
    2164:	8b20c380 	add	x0, x28, w0, sxtw
    2168:	7100029f 	cmp	w20, #0x0
    216c:	54ffc88d 	b.le	1a7c <__vsnprintf+0x2d4>
    2170:	91003e61 	add	x1, x19, #0xf
    2174:	17fffe40 	b	1a74 <__vsnprintf+0x2cc>
    2178:	11002014 	add	w20, w0, #0x8
    217c:	8b20c380 	add	x0, x28, w0, sxtw
    2180:	7100029f 	cmp	w20, #0x0
    2184:	54fffead 	b.le	2158 <__vsnprintf+0x9b0>
    2188:	91002e61 	add	x1, x19, #0xb
    218c:	17fffff1 	b	2150 <__vsnprintf+0x9a8>
    2190:	37f800e0 	tbnz	w0, #31, 21ac <__vsnprintf+0xa04>
    2194:	91002e61 	add	x1, x19, #0xb
    2198:	2a0003f4 	mov	w20, w0
    219c:	aa1303e0 	mov	x0, x19
    21a0:	927df033 	and	x19, x1, #0xfffffffffffffff8
    21a4:	b9400005 	ldr	w5, [x0]
    21a8:	17fffe36 	b	1a80 <__vsnprintf+0x2d8>
    21ac:	11002014 	add	w20, w0, #0x8
    21b0:	8b20c380 	add	x0, x28, w0, sxtw
    21b4:	7100029f 	cmp	w20, #0x0
    21b8:	54ffff6d 	b.le	21a4 <__vsnprintf+0x9fc>
    21bc:	91002e61 	add	x1, x19, #0xb
    21c0:	17fffff7 	b	219c <__vsnprintf+0x9f4>
/home/lagadanu/Desktop/qemu/optee_os/lib/libutils/ext/snprintk.c:503
    21c4:	91009700 	add	x0, x24, #0x25
/home/lagadanu/Desktop/qemu/optee_os/lib/libutils/ext/snprintk.c:517
    21c8:	d2800146 	mov	x6, #0xa                   	// #10
/home/lagadanu/Desktop/qemu/optee_os/lib/libutils/ext/snprintk.c:516
    21cc:	f10024bf 	cmp	x5, #0x9
    21d0:	d1000403 	sub	x3, x0, #0x1
    21d4:	540000c8 	b.hi	21ec <__vsnprintf+0xa44>
/home/lagadanu/Desktop/qemu/optee_os/lib/libutils/ext/snprintk.c:520
    21d8:	1100c0a2 	add	w2, w5, #0x30
    21dc:	381ff002 	sturb	w2, [x0,#-1]
    21e0:	17fffea7 	b	1c7c <__vsnprintf+0x4d4>
/home/lagadanu/Desktop/qemu/optee_os/lib/libutils/ext/snprintk.c:508
    21e4:	aa0303e0 	mov	x0, x3
    21e8:	17fffe98 	b	1c48 <__vsnprintf+0x4a0>
/home/lagadanu/Desktop/qemu/optee_os/lib/libutils/ext/snprintk.c:517
    21ec:	aa0303e0 	mov	x0, x3
    21f0:	9ac608a3 	udiv	x3, x5, x6
    21f4:	9b069462 	msub	x2, x3, x6, x5
/home/lagadanu/Desktop/qemu/optee_os/lib/libutils/ext/snprintk.c:518
    21f8:	aa0303e5 	mov	x5, x3
/home/lagadanu/Desktop/qemu/optee_os/lib/libutils/ext/snprintk.c:517
    21fc:	1100c042 	add	w2, w2, #0x30
    2200:	39000002 	strb	w2, [x0]
    2204:	17fffff2 	b	21cc <__vsnprintf+0xa24>
/home/lagadanu/Desktop/qemu/optee_os/lib/libutils/ext/snprintk.c:503
    2208:	91009703 	add	x3, x24, #0x25
/home/lagadanu/Desktop/qemu/optee_os/lib/libutils/ext/snprintk.c:525
    220c:	92400ca0 	and	x0, x5, #0xf
/home/lagadanu/Desktop/qemu/optee_os/lib/libutils/ext/snprintk.c:526
    2210:	d344fca5 	lsr	x5, x5, #4
/home/lagadanu/Desktop/qemu/optee_os/lib/libutils/ext/snprintk.c:525
    2214:	38606ae0 	ldrb	w0, [x23,x0]
    2218:	381ffc60 	strb	w0, [x3,#-1]!
/home/lagadanu/Desktop/qemu/optee_os/lib/libutils/ext/snprintk.c:527
    221c:	b5ffff85 	cbnz	x5, 220c <__vsnprintf+0xa64>
    2220:	17fffe97 	b	1c7c <__vsnprintf+0x4d4>
/home/lagadanu/Desktop/qemu/optee_os/lib/libutils/ext/snprintk.c:569
    2224:	110008c2 	add	w2, w6, #0x2
    2228:	f27f02bf 	tst	x21, #0x2
    222c:	1a861046 	csel	w6, w2, w6, ne
    2230:	17ffff43 	b	1f3c <__vsnprintf+0x794>
/home/lagadanu/Desktop/qemu/optee_os/lib/libutils/ext/snprintk.c:578
    2234:	b40000b6 	cbz	x22, 2248 <__vsnprintf+0xaa0>
    2238:	eb16035f 	cmp	x26, x22
    223c:	54000069 	b.ls	2248 <__vsnprintf+0xaa0>
    2240:	390002c7 	strb	w7, [x22]
    2244:	910006d6 	add	x22, x22, #0x1
    2248:	510004a5 	sub	w5, w5, #0x1
    224c:	17ffff44 	b	1f5c <__vsnprintf+0x7b4>
/home/lagadanu/Desktop/qemu/optee_os/lib/libutils/ext/snprintk.c:583
    2250:	eb16035f 	cmp	x26, x22
    2254:	54ffe8e9 	b.ls	1f70 <__vsnprintf+0x7c8>
    2258:	390002c1 	strb	w1, [x22]
    225c:	910006d6 	add	x22, x22, #0x1
    2260:	17ffff44 	b	1f70 <__vsnprintf+0x7c8>
/home/lagadanu/Desktop/qemu/optee_os/lib/libutils/ext/snprintk.c:584
    2264:	360fe875 	tbz	w21, #1, 1f70 <__vsnprintf+0x7c8>
/home/lagadanu/Desktop/qemu/optee_os/lib/libutils/ext/snprintk.c:585
    2268:	b4ffe836 	cbz	x22, 1f6c <__vsnprintf+0x7c4>
    226c:	eb16035f 	cmp	x26, x22
    2270:	54ffe809 	b.ls	1f70 <__vsnprintf+0x7c8>
    2274:	52800601 	mov	w1, #0x30                  	// #48
    2278:	390002c1 	strb	w1, [x22]
/home/lagadanu/Desktop/qemu/optee_os/lib/libutils/ext/snprintk.c:586
    227c:	b10006c1 	adds	x1, x22, #0x1
    2280:	54ffe760 	b.eq	1f6c <__vsnprintf+0x7c4>
    2284:	eb01035f 	cmp	x26, x1
    2288:	54000089 	b.ls	2298 <__vsnprintf+0xaf0>
    228c:	390006c8 	strb	w8, [x22,#1]
    2290:	91000ad6 	add	x22, x22, #0x2
    2294:	17ffff37 	b	1f70 <__vsnprintf+0x7c8>
    2298:	aa0103f6 	mov	x22, x1
    229c:	17ffff35 	b	1f70 <__vsnprintf+0x7c8>
/home/lagadanu/Desktop/qemu/optee_os/lib/libutils/ext/snprintk.c:593
    22a0:	b40000b6 	cbz	x22, 22b4 <__vsnprintf+0xb0c>
    22a4:	eb16035f 	cmp	x26, x22
    22a8:	54000069 	b.ls	22b4 <__vsnprintf+0xb0c>
    22ac:	390002c2 	strb	w2, [x22]
    22b0:	910006d6 	add	x22, x22, #0x1
    22b4:	51000421 	sub	w1, w1, #0x1
    22b8:	17ffff32 	b	1f80 <__vsnprintf+0x7d8>
/home/lagadanu/Desktop/qemu/optee_os/lib/libutils/ext/snprintk.c:599
    22bc:	b40000b6 	cbz	x22, 22d0 <__vsnprintf+0xb28>
    22c0:	eb16035f 	cmp	x26, x22
    22c4:	54000069 	b.ls	22d0 <__vsnprintf+0xb28>
    22c8:	390002c1 	strb	w1, [x22]
    22cc:	910006d6 	add	x22, x22, #0x1
    22d0:	51000400 	sub	w0, w0, #0x1
    22d4:	17ffff2f 	b	1f90 <__vsnprintf+0x7e8>
/home/lagadanu/Desktop/qemu/optee_os/lib/libutils/ext/snprintk.c:603
    22d8:	b40000d6 	cbz	x22, 22f0 <__vsnprintf+0xb48>
    22dc:	eb16035f 	cmp	x26, x22
    22e0:	54000089 	b.ls	22f0 <__vsnprintf+0xb48>
    22e4:	39400060 	ldrb	w0, [x3]
    22e8:	910006d6 	add	x22, x22, #0x1
    22ec:	381ff2c0 	sturb	w0, [x22,#-1]
/home/lagadanu/Desktop/qemu/optee_os/lib/libutils/ext/snprintk.c:602
    22f0:	91000463 	add	x3, x3, #0x1
    22f4:	17ffff2a 	b	1f9c <__vsnprintf+0x7f4>
__vsnprintf():
/home/lagadanu/Desktop/qemu/optee_os/lib/libutils/ext/snprintk.c:143
    22f8:	f94047a0 	ldr	x0, [x29,#136]
    22fc:	f100001f 	cmp	x0, #0x0
    2300:	f94043a0 	ldr	x0, [x29,#128]
    2304:	fa401804 	ccmp	x0, #0x0, #0x4, ne
    2308:	540000c0 	b.eq	2320 <__vsnprintf+0xb78>
/home/lagadanu/Desktop/qemu/optee_os/lib/libutils/ext/snprintk.c:145
    230c:	f94043a1 	ldr	x1, [x29,#128]
    2310:	93407f60 	sxtw	x0, w27
    2314:	eb00003f 	cmp	x1, x0
    2318:	54000168 	b.hi	2344 <__vsnprintf+0xb9c>
/home/lagadanu/Desktop/qemu/optee_os/lib/libutils/ext/snprintk.c:146
    231c:	381ff35f 	sturb	wzr, [x26,#-1]
/home/lagadanu/Desktop/qemu/optee_os/lib/libutils/ext/snprintk.c:151
    2320:	2a1b03e0 	mov	w0, w27
    2324:	a94453f3 	ldp	x19, x20, [sp,#64]
    2328:	a9455bf5 	ldp	x21, x22, [sp,#80]
    232c:	a94663f7 	ldp	x23, x24, [sp,#96]
    2330:	a9476bf9 	ldp	x25, x26, [sp,#112]
    2334:	a94873fb 	ldp	x27, x28, [sp,#128]
    2338:	a9437bfd 	ldp	x29, x30, [sp,#48]
    233c:	9103c3ff 	add	sp, sp, #0xf0
    2340:	d65f03c0 	ret
/home/lagadanu/Desktop/qemu/optee_os/lib/libutils/ext/snprintk.c:148
    2344:	f94047a1 	ldr	x1, [x29,#136]
    2348:	3820683f 	strb	wzr, [x1,x0]
/home/lagadanu/Desktop/qemu/optee_os/lib/libutils/ext/snprintk.c:150
    234c:	17fffff5 	b	2320 <__vsnprintf+0xb78>

0000000000002350 <vsnprintk>:
vsnprintk():
/home/lagadanu/Desktop/qemu/optee_os/lib/libutils/ext/snprintk.c:129
    2350:	a9bb7bfd 	stp	x29, x30, [sp,#-80]!
    2354:	910003fd 	mov	x29, sp
    2358:	a90153f3 	stp	x19, x20, [sp,#16]
    235c:	aa0003f3 	mov	x19, x0
    2360:	f90013f5 	str	x21, [sp,#32]
    2364:	aa0103f4 	mov	x20, x1
    2368:	aa0203f5 	mov	x21, x2
/home/lagadanu/Desktop/qemu/optee_os/lib/libutils/ext/snprintk.c:130
    236c:	aa0303e1 	mov	x1, x3
    2370:	9100c3a0 	add	x0, x29, #0x30
    2374:	d2800402 	mov	x2, #0x20                  	// #32
    2378:	97fffc55 	bl	14cc <memcpy>
    237c:	aa0003e3 	mov	x3, x0
    2380:	aa1503e2 	mov	x2, x21
    2384:	aa1403e1 	mov	x1, x20
    2388:	52800024 	mov	w4, #0x1                   	// #1
    238c:	aa1303e0 	mov	x0, x19
    2390:	97fffd06 	bl	17a8 <__vsnprintf>
/home/lagadanu/Desktop/qemu/optee_os/lib/libutils/ext/snprintk.c:131
    2394:	f94013f5 	ldr	x21, [sp,#32]
    2398:	a94153f3 	ldp	x19, x20, [sp,#16]
    239c:	a8c57bfd 	ldp	x29, x30, [sp],#80
    23a0:	d65f03c0 	ret

00000000000023a4 <snprintk>:
snprintk():
/home/lagadanu/Desktop/qemu/optee_os/lib/libutils/ext/snprintk.c:112
    23a4:	a9b07bfd 	stp	x29, x30, [sp,#-256]!
    23a8:	910003fd 	mov	x29, sp
    23ac:	a90d93a3 	stp	x3, x4, [x29,#216]
/home/lagadanu/Desktop/qemu/optee_os/lib/libutils/ext/snprintk.c:116
    23b0:	910403a3 	add	x3, x29, #0x100
    23b4:	a9030fa3 	stp	x3, x3, [x29,#48]
    23b8:	910343a3 	add	x3, x29, #0xd0
    23bc:	f90023a3 	str	x3, [x29,#64]
    23c0:	128004e3 	mov	w3, #0xffffffd8            	// #-40
    23c4:	b9004ba3 	str	w3, [x29,#72]
    23c8:	12800fe3 	mov	w3, #0xffffff80            	// #-128
    23cc:	b9004fa3 	str	w3, [x29,#76]
/home/lagadanu/Desktop/qemu/optee_os/lib/libutils/ext/snprintk.c:117
    23d0:	910043a3 	add	x3, x29, #0x10
/home/lagadanu/Desktop/qemu/optee_os/lib/libutils/ext/snprintk.c:112
    23d4:	a90e9ba5 	stp	x5, x6, [x29,#232]
/home/lagadanu/Desktop/qemu/optee_os/lib/libutils/ext/snprintk.c:117
    23d8:	a94317a4 	ldp	x4, x5, [x29,#48]
    23dc:	a90117a4 	stp	x4, x5, [x29,#16]
    23e0:	a94417a4 	ldp	x4, x5, [x29,#64]
/home/lagadanu/Desktop/qemu/optee_os/lib/libutils/ext/snprintk.c:112
    23e4:	3d8017a0 	str	q0, [x29,#80]
    23e8:	3d801ba1 	str	q1, [x29,#96]
    23ec:	3d801fa2 	str	q2, [x29,#112]
    23f0:	3d8023a3 	str	q3, [x29,#128]
    23f4:	3d8027a4 	str	q4, [x29,#144]
    23f8:	3d802ba5 	str	q5, [x29,#160]
    23fc:	3d802fa6 	str	q6, [x29,#176]
    2400:	3d8033a7 	str	q7, [x29,#192]
    2404:	f9007fa7 	str	x7, [x29,#248]
/home/lagadanu/Desktop/qemu/optee_os/lib/libutils/ext/snprintk.c:117
    2408:	a90217a4 	stp	x4, x5, [x29,#32]
    240c:	97ffffd1 	bl	2350 <vsnprintk>
/home/lagadanu/Desktop/qemu/optee_os/lib/libutils/ext/snprintk.c:121
    2410:	a8d07bfd 	ldp	x29, x30, [sp],#256
    2414:	d65f03c0 	ret

0000000000002418 <memchr>:
memchr():
/home/lagadanu/Desktop/qemu/optee_os/lib/libutils/isoc/newlib/memchr.c:109
    2418:	12001c21 	and	w1, w1, #0xff
    241c:	8b020002 	add	x2, x0, x2
/home/lagadanu/Desktop/qemu/optee_os/lib/libutils/isoc/newlib/memchr.c:153
    2420:	eb02001f 	cmp	x0, x2
    2424:	54000061 	b.ne	2430 <memchr+0x18>
/home/lagadanu/Desktop/qemu/optee_os/lib/libutils/isoc/newlib/memchr.c:159
    2428:	d2800000 	mov	x0, #0x0                   	// #0
/home/lagadanu/Desktop/qemu/optee_os/lib/libutils/isoc/newlib/memchr.c:160
    242c:	d65f03c0 	ret
/home/lagadanu/Desktop/qemu/optee_os/lib/libutils/isoc/newlib/memchr.c:154
    2430:	39400003 	ldrb	w3, [x0]
    2434:	6b01007f 	cmp	w3, w1
    2438:	54ffffa0 	b.eq	242c <memchr+0x14>
/home/lagadanu/Desktop/qemu/optee_os/lib/libutils/isoc/newlib/memchr.c:156
    243c:	91000400 	add	x0, x0, #0x1
    2440:	17fffff8 	b	2420 <memchr+0x8>

0000000000002444 <strlen>:
strlen():
/home/lagadanu/Desktop/qemu/optee_os/lib/libutils/isoc/newlib/strlen.c:117
    2444:	aa0003e1 	mov	x1, x0
    2448:	39400022 	ldrb	w2, [x1]
    244c:	35000062 	cbnz	w2, 2458 <strlen+0x14>
/home/lagadanu/Desktop/qemu/optee_os/lib/libutils/isoc/newlib/strlen.c:120
    2450:	cb000020 	sub	x0, x1, x0
    2454:	d65f03c0 	ret
/home/lagadanu/Desktop/qemu/optee_os/lib/libutils/isoc/newlib/strlen.c:118
    2458:	91000421 	add	x1, x1, #0x1
    245c:	17fffffb 	b	2448 <strlen+0x4>

0000000000002460 <trace_ext_puts>:
trace_ext_puts():
/home/lagadanu/Desktop/qemu/optee_os/lib/libutee/trace_ext.c:17
    2460:	a9be7bfd 	stp	x29, x30, [sp,#-32]!
    2464:	910003fd 	mov	x29, sp
    2468:	f9000bf3 	str	x19, [sp,#16]
    246c:	aa0003f3 	mov	x19, x0
/home/lagadanu/Desktop/qemu/optee_os/lib/libutee/trace_ext.c:18
    2470:	97fffff5 	bl	2444 <strlen>
    2474:	aa0003e1 	mov	x1, x0
    2478:	aa1303e0 	mov	x0, x19
/home/lagadanu/Desktop/qemu/optee_os/lib/libutee/trace_ext.c:19
    247c:	f9400bf3 	ldr	x19, [sp,#16]
    2480:	a8c27bfd 	ldp	x29, x30, [sp],#32
/home/lagadanu/Desktop/qemu/optee_os/lib/libutee/trace_ext.c:18
    2484:	140002b7 	b	2f60 <utee_log>

0000000000002488 <trace_ext_get_thread_id>:
trace_ext_get_thread_id():
/home/lagadanu/Desktop/qemu/optee_os/lib/libutee/trace_ext.c:24
    2488:	12800000 	mov	w0, #0xffffffff            	// #-1
    248c:	d65f03c0 	ret

0000000000002490 <printf>:
printf():
/home/lagadanu/Desktop/qemu/optee_os/lib/libutee/trace_ext.c:32
    2490:	d10883ff 	sub	sp, sp, #0x220
    2494:	a9007bfd 	stp	x29, x30, [sp]
    2498:	910003fd 	mov	x29, sp
    249c:	a90153f3 	stp	x19, x20, [sp,#16]
    24a0:	aa0003f3 	mov	x19, x0
    24a4:	910403a0 	add	x0, x29, #0x100
    24a8:	a91e8ba1 	stp	x1, x2, [x29,#488]
    24ac:	a91f93a3 	stp	x3, x4, [x29,#504]
    24b0:	f90107a5 	str	x5, [x29,#520]
    24b4:	f9010ba6 	str	x6, [x29,#528]
    24b8:	f9010fa7 	str	x7, [x29,#536]
    24bc:	3d801800 	str	q0, [x0,#96]
    24c0:	3d801c01 	str	q1, [x0,#112]
    24c4:	3d802002 	str	q2, [x0,#128]
    24c8:	3d802403 	str	q3, [x0,#144]
    24cc:	3d802804 	str	q4, [x0,#160]
    24d0:	3d802c05 	str	q5, [x0,#176]
    24d4:	3d803006 	str	q6, [x0,#192]
    24d8:	3d803407 	str	q7, [x0,#208]
/home/lagadanu/Desktop/qemu/optee_os/lib/libutee/trace_ext.c:37
    24dc:	97fffc1e 	bl	1554 <trace_get_level>
    24e0:	7100001f 	cmp	w0, #0x0
    24e4:	5400038d 	b.le	2554 <printf+0xc4>
/home/lagadanu/Desktop/qemu/optee_os/lib/libutee/trace_ext.c:40
    24e8:	910883a0 	add	x0, x29, #0x220
    24ec:	a90403a0 	stp	x0, x0, [x29,#64]
    24f0:	910783a0 	add	x0, x29, #0x1e0
    24f4:	f9002ba0 	str	x0, [x29,#80]
    24f8:	128006e0 	mov	w0, #0xffffffc8            	// #-56
    24fc:	b9005ba0 	str	w0, [x29,#88]
    2500:	12800fe0 	mov	w0, #0xffffff80            	// #-128
    2504:	b9005fa0 	str	w0, [x29,#92]
/home/lagadanu/Desktop/qemu/optee_os/lib/libutee/trace_ext.c:41
    2508:	a94407a0 	ldp	x0, x1, [x29,#64]
    250c:	a90207a0 	stp	x0, x1, [x29,#32]
    2510:	a94507a0 	ldp	x0, x1, [x29,#80]
    2514:	910183b4 	add	x20, x29, #0x60
    2518:	a90307a0 	stp	x0, x1, [x29,#48]
    251c:	aa1303e2 	mov	x2, x19
    2520:	910083a3 	add	x3, x29, #0x20
    2524:	d2802001 	mov	x1, #0x100                 	// #256
    2528:	aa1403e0 	mov	x0, x20
    252c:	9400155c 	bl	7a9c <vsnprintf>
    2530:	2a0003f3 	mov	w19, w0
/home/lagadanu/Desktop/qemu/optee_os/lib/libutee/trace_ext.c:44
    2534:	37f80060 	tbnz	w0, #31, 2540 <printf+0xb0>
/home/lagadanu/Desktop/qemu/optee_os/lib/libutee/trace_ext.c:47
    2538:	aa1403e0 	mov	x0, x20
    253c:	97ffffc9 	bl	2460 <trace_ext_puts>
/home/lagadanu/Desktop/qemu/optee_os/lib/libutee/trace_ext.c:50
    2540:	2a1303e0 	mov	w0, w19
    2544:	a94153f3 	ldp	x19, x20, [sp,#16]
    2548:	a9407bfd 	ldp	x29, x30, [sp]
    254c:	910883ff 	add	sp, sp, #0x220
    2550:	d65f03c0 	ret
/home/lagadanu/Desktop/qemu/optee_os/lib/libutee/trace_ext.c:38
    2554:	52800013 	mov	w19, #0x0                   	// #0
    2558:	17fffffa 	b	2540 <printf+0xb0>

000000000000255c <puts>:
puts():
/home/lagadanu/Desktop/qemu/optee_os/lib/libutee/trace_ext.c:53
    255c:	a9be7bfd 	stp	x29, x30, [sp,#-32]!
    2560:	910003fd 	mov	x29, sp
    2564:	f9000bf3 	str	x19, [sp,#16]
    2568:	aa0003f3 	mov	x19, x0
/home/lagadanu/Desktop/qemu/optee_os/lib/libutee/trace_ext.c:54
    256c:	97fffbfa 	bl	1554 <trace_get_level>
    2570:	7100001f 	cmp	w0, #0x0
    2574:	540000cd 	b.le	258c <puts+0x30>
/home/lagadanu/Desktop/qemu/optee_os/lib/libutee/trace_ext.c:55
    2578:	aa1303e0 	mov	x0, x19
    257c:	97ffffb9 	bl	2460 <trace_ext_puts>
/home/lagadanu/Desktop/qemu/optee_os/lib/libutee/trace_ext.c:56
    2580:	f0000020 	adrp	x0, 9000 <__func__.3181+0x410>
    2584:	91051c00 	add	x0, x0, #0x147
    2588:	97ffffb6 	bl	2460 <trace_ext_puts>
/home/lagadanu/Desktop/qemu/optee_os/lib/libutee/trace_ext.c:59
    258c:	52800020 	mov	w0, #0x1                   	// #1
    2590:	f9400bf3 	ldr	x19, [sp,#16]
    2594:	a8c27bfd 	ldp	x29, x30, [sp],#32
    2598:	d65f03c0 	ret

000000000000259c <putchar>:
putchar():
/home/lagadanu/Desktop/qemu/optee_os/lib/libutee/trace_ext.c:62
    259c:	a9bd7bfd 	stp	x29, x30, [sp,#-48]!
    25a0:	910003fd 	mov	x29, sp
    25a4:	f9000bf3 	str	x19, [sp,#16]
    25a8:	2a0003f3 	mov	w19, w0
/home/lagadanu/Desktop/qemu/optee_os/lib/libutee/trace_ext.c:63
    25ac:	3900a3a0 	strb	w0, [x29,#40]
    25b0:	3900a7bf 	strb	wzr, [x29,#41]
/home/lagadanu/Desktop/qemu/optee_os/lib/libutee/trace_ext.c:65
    25b4:	97fffbe8 	bl	1554 <trace_get_level>
    25b8:	7100001f 	cmp	w0, #0x0
    25bc:	5400006d 	b.le	25c8 <putchar+0x2c>
/home/lagadanu/Desktop/qemu/optee_os/lib/libutee/trace_ext.c:66
    25c0:	9100a3a0 	add	x0, x29, #0x28
    25c4:	97ffffa7 	bl	2460 <trace_ext_puts>
/home/lagadanu/Desktop/qemu/optee_os/lib/libutee/trace_ext.c:73
    25c8:	12001e60 	and	w0, w19, #0xff
    25cc:	f9400bf3 	ldr	x19, [sp,#16]
    25d0:	a8c37bfd 	ldp	x29, x30, [sp],#48
    25d4:	d65f03c0 	ret

00000000000025d8 <_assert_log>:
_assert_log():
/home/lagadanu/Desktop/qemu/optee_os/lib/libutee/assert.c:17
    25d8:	d10083ff 	sub	sp, sp, #0x20
/home/lagadanu/Desktop/qemu/optee_os/lib/libutee/assert.c:18
    25dc:	2a0203e7 	mov	w7, w2
    25e0:	aa0103e6 	mov	x6, x1
    25e4:	aa0003e5 	mov	x5, x0
    25e8:	52800022 	mov	w2, #0x1                   	// #1
    25ec:	52800001 	mov	w1, #0x0                   	// #0
/home/lagadanu/Desktop/qemu/optee_os/lib/libutee/assert.c:17
    25f0:	a9017bfd 	stp	x29, x30, [sp,#16]
    25f4:	910043fd 	add	x29, sp, #0x10
/home/lagadanu/Desktop/qemu/optee_os/lib/libutee/assert.c:18
    25f8:	d2800000 	mov	x0, #0x0                   	// #0
    25fc:	f0000024 	adrp	x4, 9000 <__func__.3181+0x410>
    2600:	91045c84 	add	x4, x4, #0x117
    2604:	f90003e3 	str	x3, [sp]
    2608:	52800023 	mov	w3, #0x1                   	// #1
    260c:	97fffbd6 	bl	1564 <trace_printf>
/home/lagadanu/Desktop/qemu/optee_os/lib/libutee/assert.c:20
    2610:	a9417bfd 	ldp	x29, x30, [sp,#16]
    2614:	910083ff 	add	sp, sp, #0x20
    2618:	d65f03c0 	ret

000000000000261c <_assert_break>:
_assert_break():
/home/lagadanu/Desktop/qemu/optee_os/lib/libutee/assert.c:23
    261c:	a9bf7bfd 	stp	x29, x30, [sp,#-16]!
/home/lagadanu/Desktop/qemu/optee_os/lib/libutee/assert.c:24
    2620:	d2bfffe0 	mov	x0, #0xffff0000            	// #4294901760
/home/lagadanu/Desktop/qemu/optee_os/lib/libutee/assert.c:23
    2624:	910003fd 	mov	x29, sp
/home/lagadanu/Desktop/qemu/optee_os/lib/libutee/assert.c:24
    2628:	94000248 	bl	2f48 <utee_panic>
    262c:	14000000 	b	262c <_assert_break+0x10>

0000000000002630 <sock_error>:
sock_error():
/home/lagadanu/Desktop/qemu/optee_os/lib/libutee/tee_tcpudp_socket.c:143
    2630:	a9be7bfd 	stp	x29, x30, [sp,#-32]!
    2634:	910003fd 	mov	x29, sp
    2638:	f9000bf3 	str	x19, [sp,#16]
    263c:	aa0003f3 	mov	x19, x0
/home/lagadanu/Desktop/qemu/optee_os/lib/libutee/tee_tcpudp_socket.c:146
    2640:	b5000060 	cbnz	x0, 264c <sock_error+0x1c>
/home/lagadanu/Desktop/qemu/optee_os/lib/libutee/tee_tcpudp_socket.c:147
    2644:	52800000 	mov	w0, #0x0                   	// #0
    2648:	9400060d 	bl	3e7c <TEE_Panic>
/home/lagadanu/Desktop/qemu/optee_os/lib/libutee/tee_tcpudp_socket.c:150
    264c:	b9400660 	ldr	w0, [x19,#4]
    2650:	f9400bf3 	ldr	x19, [sp,#16]
    2654:	a8c27bfd 	ldp	x29, x30, [sp],#32
    2658:	d65f03c0 	ret

000000000000265c <sock_recv>:
sock_recv():
/home/lagadanu/Desktop/qemu/optee_os/lib/libutee/tee_tcpudp_socket.c:129
    265c:	a9bd7bfd 	stp	x29, x30, [sp,#-48]!
/home/lagadanu/Desktop/qemu/optee_os/lib/libutee/tee_tcpudp_socket.c:133
    2660:	f100001f 	cmp	x0, #0x0
    2664:	fa401844 	ccmp	x2, #0x0, #0x4, ne
/home/lagadanu/Desktop/qemu/optee_os/lib/libutee/tee_tcpudp_socket.c:129
    2668:	910003fd 	mov	x29, sp
    266c:	a90153f3 	stp	x19, x20, [sp,#16]
    2670:	aa0003f3 	mov	x19, x0
    2674:	a9025bf5 	stp	x21, x22, [sp,#32]
    2678:	aa0203f4 	mov	x20, x2
    267c:	aa0103f5 	mov	x21, x1
    2680:	2a0303f6 	mov	w22, w3
/home/lagadanu/Desktop/qemu/optee_os/lib/libutee/tee_tcpudp_socket.c:133
    2684:	54000080 	b.eq	2694 <sock_recv+0x38>
/home/lagadanu/Desktop/qemu/optee_os/lib/libutee/tee_tcpudp_socket.c:133 (discriminator 1)
    2688:	b50000a1 	cbnz	x1, 269c <sock_recv+0x40>
/home/lagadanu/Desktop/qemu/optee_os/lib/libutee/tee_tcpudp_socket.c:133 (discriminator 2)
    268c:	b9400040 	ldr	w0, [x2]
    2690:	34000060 	cbz	w0, 269c <sock_recv+0x40>
/home/lagadanu/Desktop/qemu/optee_os/lib/libutee/tee_tcpudp_socket.c:134
    2694:	52800000 	mov	w0, #0x0                   	// #0
    2698:	940005f9 	bl	3e7c <TEE_Panic>
/home/lagadanu/Desktop/qemu/optee_os/lib/libutee/tee_tcpudp_socket.c:136
    269c:	b9400260 	ldr	w0, [x19]
    26a0:	2a1603e3 	mov	w3, w22
    26a4:	aa1403e2 	mov	x2, x20
    26a8:	aa1503e1 	mov	x1, x21
    26ac:	9400014c 	bl	2bdc <__tee_socket_pta_recv>
/home/lagadanu/Desktop/qemu/optee_os/lib/libutee/tee_tcpudp_socket.c:140
    26b0:	a9425bf5 	ldp	x21, x22, [sp,#32]
/home/lagadanu/Desktop/qemu/optee_os/lib/libutee/tee_tcpudp_socket.c:137
    26b4:	b9000660 	str	w0, [x19,#4]
/home/lagadanu/Desktop/qemu/optee_os/lib/libutee/tee_tcpudp_socket.c:140
    26b8:	a94153f3 	ldp	x19, x20, [sp,#16]
    26bc:	a8c37bfd 	ldp	x29, x30, [sp],#48
    26c0:	d65f03c0 	ret

00000000000026c4 <sock_send>:
sock_send():
/home/lagadanu/Desktop/qemu/optee_os/lib/libutee/tee_tcpudp_socket.c:114
    26c4:	a9bd7bfd 	stp	x29, x30, [sp,#-48]!
/home/lagadanu/Desktop/qemu/optee_os/lib/libutee/tee_tcpudp_socket.c:118
    26c8:	f100003f 	cmp	x1, #0x0
    26cc:	fa401844 	ccmp	x2, #0x0, #0x4, ne
/home/lagadanu/Desktop/qemu/optee_os/lib/libutee/tee_tcpudp_socket.c:114
    26d0:	910003fd 	mov	x29, sp
    26d4:	a90153f3 	stp	x19, x20, [sp,#16]
/home/lagadanu/Desktop/qemu/optee_os/lib/libutee/tee_tcpudp_socket.c:118
    26d8:	fa401804 	ccmp	x0, #0x0, #0x4, ne
/home/lagadanu/Desktop/qemu/optee_os/lib/libutee/tee_tcpudp_socket.c:114
    26dc:	a9025bf5 	stp	x21, x22, [sp,#32]
    26e0:	aa0003f3 	mov	x19, x0
    26e4:	aa0103f4 	mov	x20, x1
    26e8:	aa0203f5 	mov	x21, x2
    26ec:	2a0303f6 	mov	w22, w3
/home/lagadanu/Desktop/qemu/optee_os/lib/libutee/tee_tcpudp_socket.c:118
    26f0:	54000061 	b.ne	26fc <sock_send+0x38>
/home/lagadanu/Desktop/qemu/optee_os/lib/libutee/tee_tcpudp_socket.c:119
    26f4:	52800000 	mov	w0, #0x0                   	// #0
    26f8:	940005e1 	bl	3e7c <TEE_Panic>
/home/lagadanu/Desktop/qemu/optee_os/lib/libutee/tee_tcpudp_socket.c:121
    26fc:	b9400260 	ldr	w0, [x19]
    2700:	2a1603e3 	mov	w3, w22
    2704:	aa1503e2 	mov	x2, x21
    2708:	aa1403e1 	mov	x1, x20
    270c:	9400011f 	bl	2b88 <__tee_socket_pta_send>
/home/lagadanu/Desktop/qemu/optee_os/lib/libutee/tee_tcpudp_socket.c:125
    2710:	a9425bf5 	ldp	x21, x22, [sp,#32]
/home/lagadanu/Desktop/qemu/optee_os/lib/libutee/tee_tcpudp_socket.c:122
    2714:	b9000660 	str	w0, [x19,#4]
/home/lagadanu/Desktop/qemu/optee_os/lib/libutee/tee_tcpudp_socket.c:125
    2718:	a94153f3 	ldp	x19, x20, [sp,#16]
    271c:	a8c37bfd 	ldp	x29, x30, [sp],#48
    2720:	d65f03c0 	ret

0000000000002724 <sock_close>:
sock_close():
/home/lagadanu/Desktop/qemu/optee_os/lib/libutee/tee_tcpudp_socket.c:99
    2724:	a9be7bfd 	stp	x29, x30, [sp,#-32]!
    2728:	910003fd 	mov	x29, sp
    272c:	a90153f3 	stp	x19, x20, [sp,#16]
/home/lagadanu/Desktop/qemu/optee_os/lib/libutee/tee_tcpudp_socket.c:104
    2730:	52800014 	mov	w20, #0x0                   	// #0
/home/lagadanu/Desktop/qemu/optee_os/lib/libutee/tee_tcpudp_socket.c:103
    2734:	b40000e0 	cbz	x0, 2750 <sock_close+0x2c>
    2738:	aa0003f3 	mov	x19, x0
/home/lagadanu/Desktop/qemu/optee_os/lib/libutee/tee_tcpudp_socket.c:106
    273c:	b9400000 	ldr	w0, [x0]
    2740:	94000105 	bl	2b54 <__tee_socket_pta_close>
    2744:	2a0003f4 	mov	w20, w0
/home/lagadanu/Desktop/qemu/optee_os/lib/libutee/tee_tcpudp_socket.c:107
    2748:	aa1303e0 	mov	x0, x19
    274c:	940005c5 	bl	3e60 <TEE_Free>
/home/lagadanu/Desktop/qemu/optee_os/lib/libutee/tee_tcpudp_socket.c:110
    2750:	2a1403e0 	mov	w0, w20
    2754:	a94153f3 	ldp	x19, x20, [sp,#16]
    2758:	a8c27bfd 	ldp	x29, x30, [sp],#32
    275c:	d65f03c0 	ret

0000000000002760 <tcp_open>:
tcp_open():
/home/lagadanu/Desktop/qemu/optee_os/lib/libutee/tee_tcpudp_socket.c:22
    2760:	a9bc7bfd 	stp	x29, x30, [sp,#-64]!
/home/lagadanu/Desktop/qemu/optee_os/lib/libutee/tee_tcpudp_socket.c:27
    2764:	f100001f 	cmp	x0, #0x0
    2768:	fa401844 	ccmp	x2, #0x0, #0x4, ne
/home/lagadanu/Desktop/qemu/optee_os/lib/libutee/tee_tcpudp_socket.c:22
    276c:	910003fd 	mov	x29, sp
    2770:	a9025bf5 	stp	x21, x22, [sp,#32]
/home/lagadanu/Desktop/qemu/optee_os/lib/libutee/tee_tcpudp_socket.c:27
    2774:	fa401824 	ccmp	x1, #0x0, #0x4, ne
/home/lagadanu/Desktop/qemu/optee_os/lib/libutee/tee_tcpudp_socket.c:22
    2778:	f9001bf7 	str	x23, [sp,#48]
    277c:	aa0103f6 	mov	x22, x1
    2780:	a90153f3 	stp	x19, x20, [sp,#16]
    2784:	aa0203f5 	mov	x21, x2
    2788:	aa0003f7 	mov	x23, x0
/home/lagadanu/Desktop/qemu/optee_os/lib/libutee/tee_tcpudp_socket.c:27
    278c:	54000061 	b.ne	2798 <tcp_open+0x38>
/home/lagadanu/Desktop/qemu/optee_os/lib/libutee/tee_tcpudp_socket.c:28
    2790:	52800000 	mov	w0, #0x0                   	// #0
    2794:	940005ba 	bl	3e7c <TEE_Panic>
/home/lagadanu/Desktop/qemu/optee_os/lib/libutee/tee_tcpudp_socket.c:30
    2798:	b90002bf 	str	wzr, [x21]
/home/lagadanu/Desktop/qemu/optee_os/lib/libutee/tee_tcpudp_socket.c:32
    279c:	52800001 	mov	w1, #0x0                   	// #0
    27a0:	52800100 	mov	w0, #0x8                   	// #8
/home/lagadanu/Desktop/qemu/optee_os/lib/libutee/tee_tcpudp_socket.c:34
    27a4:	129ffe73 	mov	w19, #0xffff000c            	// #-65524
/home/lagadanu/Desktop/qemu/optee_os/lib/libutee/tee_tcpudp_socket.c:32
    27a8:	94000595 	bl	3dfc <TEE_Malloc>
    27ac:	aa0003f4 	mov	x20, x0
/home/lagadanu/Desktop/qemu/optee_os/lib/libutee/tee_tcpudp_socket.c:33
    27b0:	b40002a0 	cbz	x0, 2804 <tcp_open+0xa4>
/home/lagadanu/Desktop/qemu/optee_os/lib/libutee/tee_tcpudp_socket.c:36
    27b4:	aa0003e4 	mov	x4, x0
    27b8:	794022c2 	ldrh	w2, [x22,#16]
    27bc:	b94002c0 	ldr	w0, [x22]
    27c0:	52800ca3 	mov	w3, #0x65                  	// #101
    27c4:	f94006c1 	ldr	x1, [x22,#8]
    27c8:	940000be 	bl	2ac0 <__tee_socket_pta_open>
    27cc:	2a0003f3 	mov	w19, w0
/home/lagadanu/Desktop/qemu/optee_os/lib/libutee/tee_tcpudp_socket.c:41
    27d0:	34000080 	cbz	w0, 27e0 <tcp_open+0x80>
/home/lagadanu/Desktop/qemu/optee_os/lib/libutee/tee_tcpudp_socket.c:42
    27d4:	aa1403e0 	mov	x0, x20
/home/lagadanu/Desktop/qemu/optee_os/lib/libutee/tee_tcpudp_socket.c:43
    27d8:	d2800014 	mov	x20, #0x0                   	// #0
/home/lagadanu/Desktop/qemu/optee_os/lib/libutee/tee_tcpudp_socket.c:42
    27dc:	940005a1 	bl	3e60 <TEE_Free>
/home/lagadanu/Desktop/qemu/optee_os/lib/libutee/tee_tcpudp_socket.c:45
    27e0:	f90002f4 	str	x20, [x23]
/home/lagadanu/Desktop/qemu/optee_os/lib/libutee/tee_tcpudp_socket.c:47
    27e4:	528e00e0 	mov	w0, #0x7007                	// #28679
    27e8:	72be2000 	movk	w0, #0xf100, lsl #16
    27ec:	6b00027f 	cmp	w19, w0
    27f0:	54000160 	b.eq	281c <tcp_open+0xbc>
    27f4:	52800040 	mov	w0, #0x2                   	// #2
    27f8:	72be2020 	movk	w0, #0xf101, lsl #16
    27fc:	6b00027f 	cmp	w19, w0
    2800:	54000160 	b.eq	282c <tcp_open+0xcc>
/home/lagadanu/Desktop/qemu/optee_os/lib/libutee/tee_tcpudp_socket.c:57
    2804:	2a1303e0 	mov	w0, w19
    2808:	f9401bf7 	ldr	x23, [sp,#48]
    280c:	a94153f3 	ldp	x19, x20, [sp,#16]
    2810:	a9425bf5 	ldp	x21, x22, [sp,#32]
    2814:	a8c47bfd 	ldp	x29, x30, [sp],#64
    2818:	d65f03c0 	ret
/home/lagadanu/Desktop/qemu/optee_os/lib/libutee/tee_tcpudp_socket.c:49
    281c:	b90002b3 	str	w19, [x21]
/home/lagadanu/Desktop/qemu/optee_os/lib/libutee/tee_tcpudp_socket.c:50
    2820:	528e0033 	mov	w19, #0x7001                	// #28673
/home/lagadanu/Desktop/qemu/optee_os/lib/libutee/tee_tcpudp_socket.c:53
    2824:	72be2013 	movk	w19, #0xf100, lsl #16
    2828:	17fffff7 	b	2804 <tcp_open+0xa4>
/home/lagadanu/Desktop/qemu/optee_os/lib/libutee/tee_tcpudp_socket.c:52
    282c:	b90002b3 	str	w19, [x21]
/home/lagadanu/Desktop/qemu/optee_os/lib/libutee/tee_tcpudp_socket.c:53
    2830:	528e00d3 	mov	w19, #0x7006                	// #28678
    2834:	17fffffc 	b	2824 <tcp_open+0xc4>

0000000000002838 <udp_open>:
udp_open():
/home/lagadanu/Desktop/qemu/optee_os/lib/libutee/tee_tcpudp_socket.c:61
    2838:	a9bc7bfd 	stp	x29, x30, [sp,#-64]!
/home/lagadanu/Desktop/qemu/optee_os/lib/libutee/tee_tcpudp_socket.c:66
    283c:	f100001f 	cmp	x0, #0x0
    2840:	fa401844 	ccmp	x2, #0x0, #0x4, ne
/home/lagadanu/Desktop/qemu/optee_os/lib/libutee/tee_tcpudp_socket.c:61
    2844:	910003fd 	mov	x29, sp
    2848:	a9025bf5 	stp	x21, x22, [sp,#32]
/home/lagadanu/Desktop/qemu/optee_os/lib/libutee/tee_tcpudp_socket.c:66
    284c:	fa401824 	ccmp	x1, #0x0, #0x4, ne
/home/lagadanu/Desktop/qemu/optee_os/lib/libutee/tee_tcpudp_socket.c:61
    2850:	f9001bf7 	str	x23, [sp,#48]
    2854:	aa0103f6 	mov	x22, x1
    2858:	a90153f3 	stp	x19, x20, [sp,#16]
    285c:	aa0203f5 	mov	x21, x2
    2860:	aa0003f7 	mov	x23, x0
/home/lagadanu/Desktop/qemu/optee_os/lib/libutee/tee_tcpudp_socket.c:66
    2864:	54000061 	b.ne	2870 <udp_open+0x38>
/home/lagadanu/Desktop/qemu/optee_os/lib/libutee/tee_tcpudp_socket.c:67
    2868:	52800000 	mov	w0, #0x0                   	// #0
    286c:	94000584 	bl	3e7c <TEE_Panic>
/home/lagadanu/Desktop/qemu/optee_os/lib/libutee/tee_tcpudp_socket.c:69
    2870:	b90002bf 	str	wzr, [x21]
/home/lagadanu/Desktop/qemu/optee_os/lib/libutee/tee_tcpudp_socket.c:71
    2874:	52800001 	mov	w1, #0x0                   	// #0
    2878:	52800100 	mov	w0, #0x8                   	// #8
/home/lagadanu/Desktop/qemu/optee_os/lib/libutee/tee_tcpudp_socket.c:73
    287c:	129ffe73 	mov	w19, #0xffff000c            	// #-65524
/home/lagadanu/Desktop/qemu/optee_os/lib/libutee/tee_tcpudp_socket.c:71
    2880:	9400055f 	bl	3dfc <TEE_Malloc>
    2884:	aa0003f4 	mov	x20, x0
/home/lagadanu/Desktop/qemu/optee_os/lib/libutee/tee_tcpudp_socket.c:72
    2888:	b40002a0 	cbz	x0, 28dc <udp_open+0xa4>
/home/lagadanu/Desktop/qemu/optee_os/lib/libutee/tee_tcpudp_socket.c:75
    288c:	aa0003e4 	mov	x4, x0
    2890:	794022c2 	ldrh	w2, [x22,#16]
    2894:	b94002c0 	ldr	w0, [x22]
    2898:	52800cc3 	mov	w3, #0x66                  	// #102
    289c:	f94006c1 	ldr	x1, [x22,#8]
    28a0:	94000088 	bl	2ac0 <__tee_socket_pta_open>
    28a4:	2a0003f3 	mov	w19, w0
/home/lagadanu/Desktop/qemu/optee_os/lib/libutee/tee_tcpudp_socket.c:80
    28a8:	34000080 	cbz	w0, 28b8 <udp_open+0x80>
/home/lagadanu/Desktop/qemu/optee_os/lib/libutee/tee_tcpudp_socket.c:81
    28ac:	aa1403e0 	mov	x0, x20
/home/lagadanu/Desktop/qemu/optee_os/lib/libutee/tee_tcpudp_socket.c:82
    28b0:	d2800014 	mov	x20, #0x0                   	// #0
/home/lagadanu/Desktop/qemu/optee_os/lib/libutee/tee_tcpudp_socket.c:81
    28b4:	9400056b 	bl	3e60 <TEE_Free>
/home/lagadanu/Desktop/qemu/optee_os/lib/libutee/tee_tcpudp_socket.c:84
    28b8:	f90002f4 	str	x20, [x23]
/home/lagadanu/Desktop/qemu/optee_os/lib/libutee/tee_tcpudp_socket.c:86
    28bc:	528e00e0 	mov	w0, #0x7007                	// #28679
    28c0:	72be2000 	movk	w0, #0xf100, lsl #16
    28c4:	6b00027f 	cmp	w19, w0
    28c8:	54000160 	b.eq	28f4 <udp_open+0xbc>
    28cc:	52800040 	mov	w0, #0x2                   	// #2
    28d0:	72be2040 	movk	w0, #0xf102, lsl #16
    28d4:	6b00027f 	cmp	w19, w0
    28d8:	54000160 	b.eq	2904 <udp_open+0xcc>
/home/lagadanu/Desktop/qemu/optee_os/lib/libutee/tee_tcpudp_socket.c:96
    28dc:	2a1303e0 	mov	w0, w19
    28e0:	f9401bf7 	ldr	x23, [sp,#48]
    28e4:	a94153f3 	ldp	x19, x20, [sp,#16]
    28e8:	a9425bf5 	ldp	x21, x22, [sp,#32]
    28ec:	a8c47bfd 	ldp	x29, x30, [sp],#64
    28f0:	d65f03c0 	ret
/home/lagadanu/Desktop/qemu/optee_os/lib/libutee/tee_tcpudp_socket.c:88
    28f4:	b90002b3 	str	w19, [x21]
/home/lagadanu/Desktop/qemu/optee_os/lib/libutee/tee_tcpudp_socket.c:89
    28f8:	528e0033 	mov	w19, #0x7001                	// #28673
/home/lagadanu/Desktop/qemu/optee_os/lib/libutee/tee_tcpudp_socket.c:92
    28fc:	72be2013 	movk	w19, #0xf100, lsl #16
    2900:	17fffff7 	b	28dc <udp_open+0xa4>
/home/lagadanu/Desktop/qemu/optee_os/lib/libutee/tee_tcpudp_socket.c:91
    2904:	b90002b3 	str	w19, [x21]
/home/lagadanu/Desktop/qemu/optee_os/lib/libutee/tee_tcpudp_socket.c:92
    2908:	528e00d3 	mov	w19, #0x7006                	// #28678
    290c:	17fffffc 	b	28fc <udp_open+0xc4>

0000000000002910 <tcp_ioctl>:
tcp_ioctl():
/home/lagadanu/Desktop/qemu/optee_os/lib/libutee/tee_tcpudp_socket.c:154
    2910:	a9bd7bfd 	stp	x29, x30, [sp,#-48]!
/home/lagadanu/Desktop/qemu/optee_os/lib/libutee/tee_tcpudp_socket.c:158
    2914:	f100001f 	cmp	x0, #0x0
    2918:	fa401864 	ccmp	x3, #0x0, #0x4, ne
/home/lagadanu/Desktop/qemu/optee_os/lib/libutee/tee_tcpudp_socket.c:154
    291c:	910003fd 	mov	x29, sp
    2920:	a90153f3 	stp	x19, x20, [sp,#16]
    2924:	aa0003f3 	mov	x19, x0
    2928:	a9025bf5 	stp	x21, x22, [sp,#32]
    292c:	2a0103f4 	mov	w20, w1
    2930:	aa0203f6 	mov	x22, x2
    2934:	aa0303f5 	mov	x21, x3
/home/lagadanu/Desktop/qemu/optee_os/lib/libutee/tee_tcpudp_socket.c:158
    2938:	54000080 	b.eq	2948 <tcp_ioctl+0x38>
/home/lagadanu/Desktop/qemu/optee_os/lib/libutee/tee_tcpudp_socket.c:158 (discriminator 1)
    293c:	b50000a2 	cbnz	x2, 2950 <tcp_ioctl+0x40>
/home/lagadanu/Desktop/qemu/optee_os/lib/libutee/tee_tcpudp_socket.c:158 (discriminator 2)
    2940:	b9400060 	ldr	w0, [x3]
    2944:	34000060 	cbz	w0, 2950 <tcp_ioctl+0x40>
/home/lagadanu/Desktop/qemu/optee_os/lib/libutee/tee_tcpudp_socket.c:159
    2948:	52800000 	mov	w0, #0x0                   	// #0
    294c:	9400054c 	bl	3e7c <TEE_Panic>
__tee_socket_ioctl_cmd_to_proto():
/home/lagadanu/Desktop/qemu/optee_os/lib/libutee/tee_socket_private.h:14
    2950:	53187e81 	lsr	w1, w20, #24
tcp_ioctl():
/home/lagadanu/Desktop/qemu/optee_os/lib/libutee/tee_tcpudp_socket.c:162
    2954:	52800000 	mov	w0, #0x0                   	// #0
/home/lagadanu/Desktop/qemu/optee_os/lib/libutee/tee_tcpudp_socket.c:161
    2958:	34000161 	cbz	w1, 2984 <tcp_ioctl+0x74>
/home/lagadanu/Desktop/qemu/optee_os/lib/libutee/tee_tcpudp_socket.c:164
    295c:	52b34200 	mov	w0, #0x9a100000            	// #-1710227456
    2960:	0b000280 	add	w0, w20, w0
    2964:	7100041f 	cmp	w0, #0x1
    2968:	54000168 	b.hi	2994 <tcp_ioctl+0x84>
/home/lagadanu/Desktop/qemu/optee_os/lib/libutee/tee_tcpudp_socket.c:167
    296c:	b9400260 	ldr	w0, [x19]
    2970:	aa1503e3 	mov	x3, x21
    2974:	aa1603e2 	mov	x2, x22
    2978:	2a1403e1 	mov	w1, w20
    297c:	940000ad 	bl	2c30 <__tee_socket_pta_ioctl>
/home/lagadanu/Desktop/qemu/optee_os/lib/libutee/tee_tcpudp_socket.c:174
    2980:	b9000660 	str	w0, [x19,#4]
/home/lagadanu/Desktop/qemu/optee_os/lib/libutee/tee_tcpudp_socket.c:177
    2984:	a94153f3 	ldp	x19, x20, [sp,#16]
    2988:	a9425bf5 	ldp	x21, x22, [sp,#32]
    298c:	a8c37bfd 	ldp	x29, x30, [sp],#48
    2990:	d65f03c0 	ret
/home/lagadanu/Desktop/qemu/optee_os/lib/libutee/tee_tcpudp_socket.c:171
    2994:	52800000 	mov	w0, #0x0                   	// #0
    2998:	94000539 	bl	3e7c <TEE_Panic>
/home/lagadanu/Desktop/qemu/optee_os/lib/libutee/tee_tcpudp_socket.c:155
    299c:	52bfffe0 	mov	w0, #0xffff0000            	// #-65536
    29a0:	17fffff8 	b	2980 <tcp_ioctl+0x70>

00000000000029a4 <udp_ioctl>:
udp_ioctl():
/home/lagadanu/Desktop/qemu/optee_os/lib/libutee/tee_tcpudp_socket.c:181
    29a4:	a9bd7bfd 	stp	x29, x30, [sp,#-48]!
/home/lagadanu/Desktop/qemu/optee_os/lib/libutee/tee_tcpudp_socket.c:185
    29a8:	f100001f 	cmp	x0, #0x0
    29ac:	fa401864 	ccmp	x3, #0x0, #0x4, ne
/home/lagadanu/Desktop/qemu/optee_os/lib/libutee/tee_tcpudp_socket.c:181
    29b0:	910003fd 	mov	x29, sp
    29b4:	a90153f3 	stp	x19, x20, [sp,#16]
    29b8:	aa0003f3 	mov	x19, x0
    29bc:	a9025bf5 	stp	x21, x22, [sp,#32]
    29c0:	2a0103f4 	mov	w20, w1
    29c4:	aa0203f6 	mov	x22, x2
    29c8:	aa0303f5 	mov	x21, x3
/home/lagadanu/Desktop/qemu/optee_os/lib/libutee/tee_tcpudp_socket.c:185
    29cc:	54000080 	b.eq	29dc <udp_ioctl+0x38>
/home/lagadanu/Desktop/qemu/optee_os/lib/libutee/tee_tcpudp_socket.c:185 (discriminator 1)
    29d0:	b50000a2 	cbnz	x2, 29e4 <udp_ioctl+0x40>
/home/lagadanu/Desktop/qemu/optee_os/lib/libutee/tee_tcpudp_socket.c:185 (discriminator 2)
    29d4:	b9400060 	ldr	w0, [x3]
    29d8:	34000060 	cbz	w0, 29e4 <udp_ioctl+0x40>
/home/lagadanu/Desktop/qemu/optee_os/lib/libutee/tee_tcpudp_socket.c:186
    29dc:	52800000 	mov	w0, #0x0                   	// #0
    29e0:	94000527 	bl	3e7c <TEE_Panic>
__tee_socket_ioctl_cmd_to_proto():
/home/lagadanu/Desktop/qemu/optee_os/lib/libutee/tee_socket_private.h:14
    29e4:	53187e81 	lsr	w1, w20, #24
udp_ioctl():
/home/lagadanu/Desktop/qemu/optee_os/lib/libutee/tee_tcpudp_socket.c:189
    29e8:	52800000 	mov	w0, #0x0                   	// #0
/home/lagadanu/Desktop/qemu/optee_os/lib/libutee/tee_tcpudp_socket.c:188
    29ec:	34000161 	cbz	w1, 2a18 <udp_ioctl+0x74>
/home/lagadanu/Desktop/qemu/optee_os/lib/libutee/tee_tcpudp_socket.c:191
    29f0:	12acc000 	mov	w0, #0x99ffffff            	// #-1711276033
    29f4:	0b000280 	add	w0, w20, w0
    29f8:	7100041f 	cmp	w0, #0x1
    29fc:	54000168 	b.hi	2a28 <udp_ioctl+0x84>
/home/lagadanu/Desktop/qemu/optee_os/lib/libutee/tee_tcpudp_socket.c:194
    2a00:	b9400260 	ldr	w0, [x19]
    2a04:	aa1503e3 	mov	x3, x21
    2a08:	aa1603e2 	mov	x2, x22
    2a0c:	2a1403e1 	mov	w1, w20
    2a10:	94000088 	bl	2c30 <__tee_socket_pta_ioctl>
/home/lagadanu/Desktop/qemu/optee_os/lib/libutee/tee_tcpudp_socket.c:201
    2a14:	b9000660 	str	w0, [x19,#4]
/home/lagadanu/Desktop/qemu/optee_os/lib/libutee/tee_tcpudp_socket.c:204
    2a18:	a94153f3 	ldp	x19, x20, [sp,#16]
    2a1c:	a9425bf5 	ldp	x21, x22, [sp,#32]
    2a20:	a8c37bfd 	ldp	x29, x30, [sp],#48
    2a24:	d65f03c0 	ret
/home/lagadanu/Desktop/qemu/optee_os/lib/libutee/tee_tcpudp_socket.c:198
    2a28:	52800000 	mov	w0, #0x0                   	// #0
    2a2c:	94000514 	bl	3e7c <TEE_Panic>
/home/lagadanu/Desktop/qemu/optee_os/lib/libutee/tee_tcpudp_socket.c:182
    2a30:	52bfffe0 	mov	w0, #0xffff0000            	// #-65536
    2a34:	17fffff8 	b	2a14 <udp_ioctl+0x70>

0000000000002a38 <invoke_socket_pta>:
invoke_socket_pta():
/home/lagadanu/Desktop/qemu/optee_os/lib/libutee/tee_socket_pta.c:16
    2a38:	a9bd7bfd 	stp	x29, x30, [sp,#-48]!
    2a3c:	910003fd 	mov	x29, sp
    2a40:	a90153f3 	stp	x19, x20, [sp,#16]
    2a44:	2a0003f4 	mov	w20, w0
/home/lagadanu/Desktop/qemu/optee_os/lib/libutee/tee_socket_pta.c:20
    2a48:	90000080 	adrp	x0, 12000 <ta_heap+0x7e80>
/home/lagadanu/Desktop/qemu/optee_os/lib/libutee/tee_socket_pta.c:16
    2a4c:	a9025bf5 	stp	x21, x22, [sp,#32]
    2a50:	2a0103f5 	mov	w21, w1
    2a54:	aa0203f6 	mov	x22, x2
/home/lagadanu/Desktop/qemu/optee_os/lib/libutee/tee_socket_pta.c:20
    2a58:	f940e401 	ldr	x1, [x0,#456]
    2a5c:	aa0003f3 	mov	x19, x0
    2a60:	b4000161 	cbz	x1, 2a8c <invoke_socket_pta+0x54>
/home/lagadanu/Desktop/qemu/optee_os/lib/libutee/tee_socket_pta.c:28
    2a64:	aa1603e4 	mov	x4, x22
    2a68:	2a1503e3 	mov	w3, w21
    2a6c:	2a1403e2 	mov	w2, w20
    2a70:	f940e660 	ldr	x0, [x19,#456]
/home/lagadanu/Desktop/qemu/optee_os/lib/libutee/tee_socket_pta.c:29
    2a74:	a9425bf5 	ldp	x21, x22, [sp,#32]
/home/lagadanu/Desktop/qemu/optee_os/lib/libutee/tee_socket_pta.c:28
    2a78:	d2800005 	mov	x5, #0x0                   	// #0
/home/lagadanu/Desktop/qemu/optee_os/lib/libutee/tee_socket_pta.c:29
    2a7c:	a94153f3 	ldp	x19, x20, [sp,#16]
/home/lagadanu/Desktop/qemu/optee_os/lib/libutee/tee_socket_pta.c:28
    2a80:	52800001 	mov	w1, #0x0                   	// #0
/home/lagadanu/Desktop/qemu/optee_os/lib/libutee/tee_socket_pta.c:29
    2a84:	a8c37bfd 	ldp	x29, x30, [sp],#48
/home/lagadanu/Desktop/qemu/optee_os/lib/libutee/tee_socket_pta.c:28
    2a88:	1400042b 	b	3b34 <TEE_InvokeTACommand>
    2a8c:	91072004 	add	x4, x0, #0x1c8
/home/lagadanu/Desktop/qemu/optee_os/lib/libutee/tee_socket_pta.c:21
    2a90:	d2800005 	mov	x5, #0x0                   	// #0
    2a94:	b0000020 	adrp	x0, 7000 <mpa_init_static_fmm_context+0x38>
    2a98:	d2800003 	mov	x3, #0x0                   	// #0
    2a9c:	52800002 	mov	w2, #0x0                   	// #0
    2aa0:	52800001 	mov	w1, #0x0                   	// #0
    2aa4:	9138e000 	add	x0, x0, #0xe38
    2aa8:	940003f5 	bl	3a7c <TEE_OpenTASession>
/home/lagadanu/Desktop/qemu/optee_os/lib/libutee/tee_socket_pta.c:24
    2aac:	34fffdc0 	cbz	w0, 2a64 <invoke_socket_pta+0x2c>
/home/lagadanu/Desktop/qemu/optee_os/lib/libutee/tee_socket_pta.c:29
    2ab0:	a94153f3 	ldp	x19, x20, [sp,#16]
    2ab4:	a9425bf5 	ldp	x21, x22, [sp,#32]
    2ab8:	a8c37bfd 	ldp	x29, x30, [sp],#48
    2abc:	d65f03c0 	ret

0000000000002ac0 <__tee_socket_pta_open>:
__tee_socket_pta_open():
/home/lagadanu/Desktop/qemu/optee_os/lib/libutee/tee_socket_pta.c:34
    2ac0:	a9ba7bfd 	stp	x29, x30, [sp,#-96]!
/home/lagadanu/Desktop/qemu/optee_os/lib/libutee/tee_socket_pta.c:45
    2ac4:	7100081f 	cmp	w0, #0x2
/home/lagadanu/Desktop/qemu/optee_os/lib/libutee/tee_socket_pta.c:34
    2ac8:	910003fd 	mov	x29, sp
    2acc:	a90153f3 	stp	x19, x20, [sp,#16]
/home/lagadanu/Desktop/qemu/optee_os/lib/libutee/tee_socket_pta.c:43
    2ad0:	a9027fbf 	stp	xzr, xzr, [x29,#32]
    2ad4:	a9037fbf 	stp	xzr, xzr, [x29,#48]
    2ad8:	a9047fbf 	stp	xzr, xzr, [x29,#64]
    2adc:	a9057fbf 	stp	xzr, xzr, [x29,#80]
/home/lagadanu/Desktop/qemu/optee_os/lib/libutee/tee_socket_pta.c:45
    2ae0:	54000368 	b.hi	2b4c <__tee_socket_pta_open+0x8c>
    2ae4:	12003c42 	and	w2, w2, #0xffff
/home/lagadanu/Desktop/qemu/optee_os/lib/libutee/tee_socket_pta.c:55
    2ae8:	29040ba0 	stp	w0, w2, [x29,#32]
/home/lagadanu/Desktop/qemu/optee_os/lib/libutee/tee_socket_pta.c:58
    2aec:	129fff20 	mov	w0, #0xffff0006            	// #-65530
/home/lagadanu/Desktop/qemu/optee_os/lib/libutee/tee_socket_pta.c:57
    2af0:	b4000281 	cbz	x1, 2b40 <__tee_socket_pta_open+0x80>
    2af4:	2a0303f3 	mov	w19, w3
    2af8:	aa0103e0 	mov	x0, x1
/home/lagadanu/Desktop/qemu/optee_os/lib/libutee/tee_socket_pta.c:59
    2afc:	f9001ba1 	str	x1, [x29,#48]
    2b00:	aa0403f4 	mov	x20, x4
/home/lagadanu/Desktop/qemu/optee_os/lib/libutee/tee_socket_pta.c:60
    2b04:	97fffe50 	bl	2444 <strlen>
    2b08:	11000400 	add	w0, w0, #0x1
    2b0c:	b9003ba0 	str	w0, [x29,#56]
/home/lagadanu/Desktop/qemu/optee_os/lib/libutee/tee_socket_pta.c:62
    2b10:	51019661 	sub	w1, w19, #0x65
    2b14:	7100043f 	cmp	w1, #0x1
/home/lagadanu/Desktop/qemu/optee_os/lib/libutee/tee_socket_pta.c:68
    2b18:	129fff20 	mov	w0, #0xffff0006            	// #-65530
/home/lagadanu/Desktop/qemu/optee_os/lib/libutee/tee_socket_pta.c:62
    2b1c:	54000128 	b.hi	2b40 <__tee_socket_pta_open+0x80>
/home/lagadanu/Desktop/qemu/optee_os/lib/libutee/tee_socket_pta.c:71
    2b20:	910083a2 	add	x2, x29, #0x20
    2b24:	52842a21 	mov	w1, #0x2151                	// #8529
    2b28:	52800020 	mov	w0, #0x1                   	// #1
/home/lagadanu/Desktop/qemu/optee_os/lib/libutee/tee_socket_pta.c:65
    2b2c:	b90043b3 	str	w19, [x29,#64]
/home/lagadanu/Desktop/qemu/optee_os/lib/libutee/tee_socket_pta.c:71
    2b30:	97ffffc2 	bl	2a38 <invoke_socket_pta>
/home/lagadanu/Desktop/qemu/optee_os/lib/libutee/tee_socket_pta.c:72
    2b34:	35000060 	cbnz	w0, 2b40 <__tee_socket_pta_open+0x80>
/home/lagadanu/Desktop/qemu/optee_os/lib/libutee/tee_socket_pta.c:73
    2b38:	b94053a1 	ldr	w1, [x29,#80]
    2b3c:	b9000281 	str	w1, [x20]
/home/lagadanu/Desktop/qemu/optee_os/lib/libutee/tee_socket_pta.c:75
    2b40:	a94153f3 	ldp	x19, x20, [sp,#16]
    2b44:	a8c67bfd 	ldp	x29, x30, [sp],#96
    2b48:	d65f03c0 	ret
/home/lagadanu/Desktop/qemu/optee_os/lib/libutee/tee_socket_pta.c:52
    2b4c:	129fff20 	mov	w0, #0xffff0006            	// #-65530
    2b50:	17fffffc 	b	2b40 <__tee_socket_pta_open+0x80>

0000000000002b54 <__tee_socket_pta_close>:
__tee_socket_pta_close():
/home/lagadanu/Desktop/qemu/optee_os/lib/libutee/tee_socket_pta.c:78
    2b54:	a9bb7bfd 	stp	x29, x30, [sp,#-80]!
/home/lagadanu/Desktop/qemu/optee_os/lib/libutee/tee_socket_pta.c:88
    2b58:	52800021 	mov	w1, #0x1                   	// #1
/home/lagadanu/Desktop/qemu/optee_os/lib/libutee/tee_socket_pta.c:78
    2b5c:	910003fd 	mov	x29, sp
/home/lagadanu/Desktop/qemu/optee_os/lib/libutee/tee_socket_pta.c:88
    2b60:	910043a2 	add	x2, x29, #0x10
/home/lagadanu/Desktop/qemu/optee_os/lib/libutee/tee_socket_pta.c:85
    2b64:	a9017fbf 	stp	xzr, xzr, [x29,#16]
/home/lagadanu/Desktop/qemu/optee_os/lib/libutee/tee_socket_pta.c:87
    2b68:	b90013a0 	str	w0, [x29,#16]
/home/lagadanu/Desktop/qemu/optee_os/lib/libutee/tee_socket_pta.c:88
    2b6c:	52800040 	mov	w0, #0x2                   	// #2
/home/lagadanu/Desktop/qemu/optee_os/lib/libutee/tee_socket_pta.c:85
    2b70:	a9027fbf 	stp	xzr, xzr, [x29,#32]
    2b74:	a9037fbf 	stp	xzr, xzr, [x29,#48]
    2b78:	a9047fbf 	stp	xzr, xzr, [x29,#64]
/home/lagadanu/Desktop/qemu/optee_os/lib/libutee/tee_socket_pta.c:88
    2b7c:	97ffffaf 	bl	2a38 <invoke_socket_pta>
/home/lagadanu/Desktop/qemu/optee_os/lib/libutee/tee_socket_pta.c:89
    2b80:	a8c57bfd 	ldp	x29, x30, [sp],#80
    2b84:	d65f03c0 	ret

0000000000002b88 <__tee_socket_pta_send>:
__tee_socket_pta_send():
/home/lagadanu/Desktop/qemu/optee_os/lib/libutee/tee_socket_pta.c:93
    2b88:	a9ba7bfd 	stp	x29, x30, [sp,#-96]!
    2b8c:	910003fd 	mov	x29, sp
    2b90:	f9000bf3 	str	x19, [sp,#16]
    2b94:	aa0203f3 	mov	x19, x2
/home/lagadanu/Desktop/qemu/optee_os/lib/libutee/tee_socket_pta.c:110
    2b98:	910083a2 	add	x2, x29, #0x20
/home/lagadanu/Desktop/qemu/optee_os/lib/libutee/tee_socket_pta.c:102
    2b9c:	a9027fbf 	stp	xzr, xzr, [x29,#32]
/home/lagadanu/Desktop/qemu/optee_os/lib/libutee/tee_socket_pta.c:105
    2ba0:	29040fa0 	stp	w0, w3, [x29,#32]
/home/lagadanu/Desktop/qemu/optee_os/lib/libutee/tee_socket_pta.c:108
    2ba4:	b9400260 	ldr	w0, [x19]
/home/lagadanu/Desktop/qemu/optee_os/lib/libutee/tee_socket_pta.c:102
    2ba8:	a9037fbf 	stp	xzr, xzr, [x29,#48]
/home/lagadanu/Desktop/qemu/optee_os/lib/libutee/tee_socket_pta.c:107
    2bac:	f9001ba1 	str	x1, [x29,#48]
/home/lagadanu/Desktop/qemu/optee_os/lib/libutee/tee_socket_pta.c:110
    2bb0:	52804a21 	mov	w1, #0x251                 	// #593
/home/lagadanu/Desktop/qemu/optee_os/lib/libutee/tee_socket_pta.c:108
    2bb4:	b9003ba0 	str	w0, [x29,#56]
/home/lagadanu/Desktop/qemu/optee_os/lib/libutee/tee_socket_pta.c:110
    2bb8:	52800060 	mov	w0, #0x3                   	// #3
/home/lagadanu/Desktop/qemu/optee_os/lib/libutee/tee_socket_pta.c:102
    2bbc:	a9047fbf 	stp	xzr, xzr, [x29,#64]
    2bc0:	a9057fbf 	stp	xzr, xzr, [x29,#80]
/home/lagadanu/Desktop/qemu/optee_os/lib/libutee/tee_socket_pta.c:110
    2bc4:	97ffff9d 	bl	2a38 <invoke_socket_pta>
/home/lagadanu/Desktop/qemu/optee_os/lib/libutee/tee_socket_pta.c:111
    2bc8:	b94043a1 	ldr	w1, [x29,#64]
    2bcc:	b9000261 	str	w1, [x19]
/home/lagadanu/Desktop/qemu/optee_os/lib/libutee/tee_socket_pta.c:113
    2bd0:	f9400bf3 	ldr	x19, [sp,#16]
    2bd4:	a8c67bfd 	ldp	x29, x30, [sp],#96
    2bd8:	d65f03c0 	ret

0000000000002bdc <__tee_socket_pta_recv>:
__tee_socket_pta_recv():
/home/lagadanu/Desktop/qemu/optee_os/lib/libutee/tee_socket_pta.c:118
    2bdc:	a9ba7bfd 	stp	x29, x30, [sp,#-96]!
    2be0:	910003fd 	mov	x29, sp
    2be4:	f9000bf3 	str	x19, [sp,#16]
    2be8:	aa0203f3 	mov	x19, x2
/home/lagadanu/Desktop/qemu/optee_os/lib/libutee/tee_socket_pta.c:134
    2bec:	910083a2 	add	x2, x29, #0x20
/home/lagadanu/Desktop/qemu/optee_os/lib/libutee/tee_socket_pta.c:126
    2bf0:	a9027fbf 	stp	xzr, xzr, [x29,#32]
/home/lagadanu/Desktop/qemu/optee_os/lib/libutee/tee_socket_pta.c:129
    2bf4:	29040fa0 	stp	w0, w3, [x29,#32]
/home/lagadanu/Desktop/qemu/optee_os/lib/libutee/tee_socket_pta.c:132
    2bf8:	b9400260 	ldr	w0, [x19]
/home/lagadanu/Desktop/qemu/optee_os/lib/libutee/tee_socket_pta.c:126
    2bfc:	a9037fbf 	stp	xzr, xzr, [x29,#48]
/home/lagadanu/Desktop/qemu/optee_os/lib/libutee/tee_socket_pta.c:131
    2c00:	f9001ba1 	str	x1, [x29,#48]
/home/lagadanu/Desktop/qemu/optee_os/lib/libutee/tee_socket_pta.c:134
    2c04:	52800c21 	mov	w1, #0x61                  	// #97
/home/lagadanu/Desktop/qemu/optee_os/lib/libutee/tee_socket_pta.c:132
    2c08:	b9003ba0 	str	w0, [x29,#56]
/home/lagadanu/Desktop/qemu/optee_os/lib/libutee/tee_socket_pta.c:134
    2c0c:	52800080 	mov	w0, #0x4                   	// #4
/home/lagadanu/Desktop/qemu/optee_os/lib/libutee/tee_socket_pta.c:126
    2c10:	a9047fbf 	stp	xzr, xzr, [x29,#64]
    2c14:	a9057fbf 	stp	xzr, xzr, [x29,#80]
/home/lagadanu/Desktop/qemu/optee_os/lib/libutee/tee_socket_pta.c:134
    2c18:	97ffff88 	bl	2a38 <invoke_socket_pta>
/home/lagadanu/Desktop/qemu/optee_os/lib/libutee/tee_socket_pta.c:135
    2c1c:	b9403ba1 	ldr	w1, [x29,#56]
    2c20:	b9000261 	str	w1, [x19]
/home/lagadanu/Desktop/qemu/optee_os/lib/libutee/tee_socket_pta.c:137
    2c24:	f9400bf3 	ldr	x19, [sp,#16]
    2c28:	a8c67bfd 	ldp	x29, x30, [sp],#96
    2c2c:	d65f03c0 	ret

0000000000002c30 <__tee_socket_pta_ioctl>:
__tee_socket_pta_ioctl():
/home/lagadanu/Desktop/qemu/optee_os/lib/libutee/tee_socket_pta.c:141
    2c30:	a9ba7bfd 	stp	x29, x30, [sp,#-96]!
    2c34:	910003fd 	mov	x29, sp
    2c38:	f9000bf3 	str	x19, [sp,#16]
    2c3c:	aa0303f3 	mov	x19, x3
/home/lagadanu/Desktop/qemu/optee_os/lib/libutee/tee_socket_pta.c:149
    2c40:	a9027fbf 	stp	xzr, xzr, [x29,#32]
/home/lagadanu/Desktop/qemu/optee_os/lib/libutee/tee_socket_pta.c:152
    2c44:	290407a0 	stp	w0, w1, [x29,#32]
/home/lagadanu/Desktop/qemu/optee_os/lib/libutee/tee_socket_pta.c:157
    2c48:	52800e21 	mov	w1, #0x71                  	// #113
/home/lagadanu/Desktop/qemu/optee_os/lib/libutee/tee_socket_pta.c:155
    2c4c:	b9400060 	ldr	w0, [x3]
/home/lagadanu/Desktop/qemu/optee_os/lib/libutee/tee_socket_pta.c:149
    2c50:	a9037fbf 	stp	xzr, xzr, [x29,#48]
/home/lagadanu/Desktop/qemu/optee_os/lib/libutee/tee_socket_pta.c:154
    2c54:	f9001ba2 	str	x2, [x29,#48]
/home/lagadanu/Desktop/qemu/optee_os/lib/libutee/tee_socket_pta.c:157
    2c58:	910083a2 	add	x2, x29, #0x20
/home/lagadanu/Desktop/qemu/optee_os/lib/libutee/tee_socket_pta.c:155
    2c5c:	b9003ba0 	str	w0, [x29,#56]
/home/lagadanu/Desktop/qemu/optee_os/lib/libutee/tee_socket_pta.c:157
    2c60:	528000a0 	mov	w0, #0x5                   	// #5
/home/lagadanu/Desktop/qemu/optee_os/lib/libutee/tee_socket_pta.c:149
    2c64:	a9047fbf 	stp	xzr, xzr, [x29,#64]
    2c68:	a9057fbf 	stp	xzr, xzr, [x29,#80]
/home/lagadanu/Desktop/qemu/optee_os/lib/libutee/tee_socket_pta.c:157
    2c6c:	97ffff73 	bl	2a38 <invoke_socket_pta>
/home/lagadanu/Desktop/qemu/optee_os/lib/libutee/tee_socket_pta.c:158
    2c70:	b9403ba1 	ldr	w1, [x29,#56]
    2c74:	b9000261 	str	w1, [x19]
/home/lagadanu/Desktop/qemu/optee_os/lib/libutee/tee_socket_pta.c:160
    2c78:	f9400bf3 	ldr	x19, [sp,#16]
    2c7c:	a8c67bfd 	ldp	x29, x30, [sp],#96
    2c80:	d65f03c0 	ret

0000000000002c84 <ta_header_get_session>:
ta_header_get_session():
/home/lagadanu/Desktop/qemu/optee_os/lib/libutee/arch/arm/user_ta_entry.c:78
    2c84:	2a0003e1 	mov	w1, w0
/home/lagadanu/Desktop/qemu/optee_os/lib/libutee/arch/arm/user_ta_entry.c:81
    2c88:	90000040 	adrp	x0, a000 <ta_props>
    2c8c:	f940b400 	ldr	x0, [x0,#360]
/home/lagadanu/Desktop/qemu/optee_os/lib/libutee/arch/arm/user_ta_entry.c:81 (discriminator 1)
    2c90:	b5000040 	cbnz	x0, 2c98 <ta_header_get_session+0x14>
/home/lagadanu/Desktop/qemu/optee_os/lib/libutee/arch/arm/user_ta_entry.c:86
    2c94:	d65f03c0 	ret
/home/lagadanu/Desktop/qemu/optee_os/lib/libutee/arch/arm/user_ta_entry.c:82
    2c98:	b9400002 	ldr	w2, [x0]
    2c9c:	6b01005f 	cmp	w2, w1
    2ca0:	54ffffa0 	b.eq	2c94 <ta_header_get_session+0x10>
/home/lagadanu/Desktop/qemu/optee_os/lib/libutee/arch/arm/user_ta_entry.c:81 (discriminator 2)
    2ca4:	f9400800 	ldr	x0, [x0,#16]
    2ca8:	17fffffa 	b	2c90 <ta_header_get_session+0xc>

0000000000002cac <ta_header_remove_session>:
ta_header_remove_session():
/home/lagadanu/Desktop/qemu/optee_os/lib/libutee/arch/arm/user_ta_entry.c:115
    2cac:	a9be7bfd 	stp	x29, x30, [sp,#-32]!
    2cb0:	2a0003e2 	mov	w2, w0
    2cb4:	910003fd 	mov	x29, sp
    2cb8:	f9000bf3 	str	x19, [sp,#16]
/home/lagadanu/Desktop/qemu/optee_os/lib/libutee/arch/arm/user_ta_entry.c:119
    2cbc:	90000053 	adrp	x19, a000 <ta_props>
    2cc0:	f940b660 	ldr	x0, [x19,#360]
/home/lagadanu/Desktop/qemu/optee_os/lib/libutee/arch/arm/user_ta_entry.c:119 (discriminator 1)
    2cc4:	b5000080 	cbnz	x0, 2cd4 <ta_header_remove_session+0x28>
/home/lagadanu/Desktop/qemu/optee_os/lib/libutee/arch/arm/user_ta_entry.c:133
    2cc8:	f9400bf3 	ldr	x19, [sp,#16]
    2ccc:	a8c27bfd 	ldp	x29, x30, [sp],#32
    2cd0:	d65f03c0 	ret
/home/lagadanu/Desktop/qemu/optee_os/lib/libutee/arch/arm/user_ta_entry.c:120
    2cd4:	b9400001 	ldr	w1, [x0]
    2cd8:	6b02003f 	cmp	w1, w2
    2cdc:	f9400801 	ldr	x1, [x0,#16]
    2ce0:	540002c1 	b.ne	2d38 <ta_header_remove_session+0x8c>
    2ce4:	f9400c02 	ldr	x2, [x0,#24]
/home/lagadanu/Desktop/qemu/optee_os/lib/libutee/arch/arm/user_ta_entry.c:121
    2ce8:	b4000221 	cbz	x1, 2d2c <ta_header_remove_session+0x80>
/home/lagadanu/Desktop/qemu/optee_os/lib/libutee/arch/arm/user_ta_entry.c:121 (discriminator 1)
    2cec:	f9000c22 	str	x2, [x1,#24]
/home/lagadanu/Desktop/qemu/optee_os/lib/libutee/arch/arm/user_ta_entry.c:121 (discriminator 4)
    2cf0:	f9400c02 	ldr	x2, [x0,#24]
    2cf4:	f9000041 	str	x1, [x2]
/home/lagadanu/Desktop/qemu/optee_os/lib/libutee/arch/arm/user_ta_entry.c:122 (discriminator 4)
    2cf8:	9400045a 	bl	3e60 <TEE_Free>
/home/lagadanu/Desktop/qemu/optee_os/lib/libutee/arch/arm/user_ta_entry.c:125 (discriminator 4)
    2cfc:	f0000020 	adrp	x0, 9000 <__func__.3181+0x410>
/home/lagadanu/Desktop/qemu/optee_os/lib/libutee/arch/arm/user_ta_entry.c:127 (discriminator 4)
    2d00:	f940b661 	ldr	x1, [x19,#360]
/home/lagadanu/Desktop/qemu/optee_os/lib/libutee/arch/arm/user_ta_entry.c:125 (discriminator 4)
    2d04:	52800282 	mov	w2, #0x14                  	// #20
    2d08:	f942e800 	ldr	x0, [x0,#1488]
/home/lagadanu/Desktop/qemu/optee_os/lib/libutee/arch/arm/user_ta_entry.c:127 (discriminator 4)
    2d0c:	f100003f 	cmp	x1, #0x0
/home/lagadanu/Desktop/qemu/optee_os/lib/libutee/arch/arm/user_ta_entry.c:125 (discriminator 4)
    2d10:	b9401400 	ldr	w0, [x0,#20]
    2d14:	0a020000 	and	w0, w0, w2
/home/lagadanu/Desktop/qemu/optee_os/lib/libutee/arch/arm/user_ta_entry.c:127 (discriminator 4)
    2d18:	7a420004 	ccmp	w0, w2, #0x4, eq
    2d1c:	54fffd60 	b.eq	2cc8 <ta_header_remove_session+0x1c>
/home/lagadanu/Desktop/qemu/optee_os/lib/libutee/arch/arm/user_ta_entry.c:133
    2d20:	f9400bf3 	ldr	x19, [sp,#16]
    2d24:	a8c27bfd 	ldp	x29, x30, [sp],#32
uninit_instance():
/home/lagadanu/Desktop/qemu/optee_os/lib/libutee/arch/arm/user_ta_entry.c:63
    2d28:	17fff4c0 	b	28 <TA_DestroyEntryPoint>
ta_header_remove_session():
/home/lagadanu/Desktop/qemu/optee_os/lib/libutee/arch/arm/user_ta_entry.c:121 (discriminator 2)
    2d2c:	9105a263 	add	x3, x19, #0x168
    2d30:	f9000462 	str	x2, [x3,#8]
    2d34:	17ffffef 	b	2cf0 <ta_header_remove_session+0x44>
/home/lagadanu/Desktop/qemu/optee_os/lib/libutee/arch/arm/user_ta_entry.c:119 (discriminator 2)
    2d38:	aa0103e0 	mov	x0, x1
    2d3c:	17ffffe2 	b	2cc4 <ta_header_remove_session+0x18>

0000000000002d40 <__utee_entry>:
__utee_entry():
/home/lagadanu/Desktop/qemu/optee_os/lib/libutee/arch/arm/user_ta_entry.c:200
    2d40:	a9b77bfd 	stp	x29, x30, [sp,#-144]!
/home/lagadanu/Desktop/qemu/optee_os/lib/libutee/arch/arm/user_ta_entry.c:211
    2d44:	f100041f 	cmp	x0, #0x1
/home/lagadanu/Desktop/qemu/optee_os/lib/libutee/arch/arm/user_ta_entry.c:200
    2d48:	910003fd 	mov	x29, sp
    2d4c:	a90153f3 	stp	x19, x20, [sp,#16]
    2d50:	aa0103f4 	mov	x20, x1
    2d54:	a9025bf5 	stp	x21, x22, [sp,#32]
    2d58:	f9001bf7 	str	x23, [sp,#48]
/home/lagadanu/Desktop/qemu/optee_os/lib/libutee/arch/arm/user_ta_entry.c:211
    2d5c:	54000a60 	b.eq	2ea8 <__utee_entry+0x168>
    2d60:	aa0203f6 	mov	x22, x2
    2d64:	b40000e0 	cbz	x0, 2d80 <__utee_entry+0x40>
    2d68:	f100081f 	cmp	x0, #0x2
    2d6c:	54000b20 	b.eq	2ed0 <__utee_entry+0x190>
/home/lagadanu/Desktop/qemu/optee_os/lib/libutee/arch/arm/user_ta_entry.c:223
    2d70:	52800000 	mov	w0, #0x0                   	// #0
/home/lagadanu/Desktop/qemu/optee_os/lib/libutee/arch/arm/user_ta_entry.c:222
    2d74:	12800013 	mov	w19, #0xffffffff            	// #-1
/home/lagadanu/Desktop/qemu/optee_os/lib/libutee/arch/arm/user_ta_entry.c:223
    2d78:	94000441 	bl	3e7c <TEE_Panic>
/home/lagadanu/Desktop/qemu/optee_os/lib/libutee/arch/arm/user_ta_entry.c:224
    2d7c:	1400000c 	b	2dac <__utee_entry+0x6c>
ta_header_add_session():
/home/lagadanu/Desktop/qemu/optee_os/lib/libutee/arch/arm/user_ta_entry.c:90
    2d80:	2a0103e0 	mov	w0, w1
    2d84:	97ffffc0 	bl	2c84 <ta_header_get_session>
/home/lagadanu/Desktop/qemu/optee_os/lib/libutee/arch/arm/user_ta_entry.c:93
    2d88:	b5000520 	cbnz	x0, 2e2c <__utee_entry+0xec>
/home/lagadanu/Desktop/qemu/optee_os/lib/libutee/arch/arm/user_ta_entry.c:96
    2d8c:	d0000080 	adrp	x0, 14000 <buf.3610+0x448>
    2d90:	396ee801 	ldrb	w1, [x0,#3002]
    2d94:	340001e1 	cbz	w1, 2dd0 <__utee_entry+0x90>
/home/lagadanu/Desktop/qemu/optee_os/lib/libutee/arch/arm/user_ta_entry.c:103
    2d98:	52b00001 	mov	w1, #0x80000000            	// #-2147483648
    2d9c:	52800400 	mov	w0, #0x20                  	// #32
/home/lagadanu/Desktop/qemu/optee_os/lib/libutee/arch/arm/user_ta_entry.c:106
    2da0:	129ffe73 	mov	w19, #0xffff000c            	// #-65524
/home/lagadanu/Desktop/qemu/optee_os/lib/libutee/arch/arm/user_ta_entry.c:103
    2da4:	94000416 	bl	3dfc <TEE_Malloc>
/home/lagadanu/Desktop/qemu/optee_os/lib/libutee/arch/arm/user_ta_entry.c:105
    2da8:	b5000300 	cbnz	x0, 2e08 <__utee_entry+0xc8>
ta_header_save_params():
/home/lagadanu/Desktop/qemu/optee_os/lib/libutee/arch/arm/user_ta_entry.c:69
    2dac:	f0000020 	adrp	x0, 9000 <__func__.3181+0x410>
/home/lagadanu/Desktop/qemu/optee_os/lib/libutee/arch/arm/user_ta_entry.c:74
    2db0:	d2800802 	mov	x2, #0x40                  	// #64
/home/lagadanu/Desktop/qemu/optee_os/lib/libutee/arch/arm/user_ta_entry.c:69
    2db4:	f942d401 	ldr	x1, [x0,#1448]
/home/lagadanu/Desktop/qemu/optee_os/lib/libutee/arch/arm/user_ta_entry.c:74
    2db8:	f942e400 	ldr	x0, [x0,#1480]
/home/lagadanu/Desktop/qemu/optee_os/lib/libutee/arch/arm/user_ta_entry.c:69
    2dbc:	b900003f 	str	wzr, [x1]
/home/lagadanu/Desktop/qemu/optee_os/lib/libutee/arch/arm/user_ta_entry.c:74
    2dc0:	52800001 	mov	w1, #0x0                   	// #0
    2dc4:	97fff9ca 	bl	14ec <memset>
__utee_entry():
/home/lagadanu/Desktop/qemu/optee_os/lib/libutee/arch/arm/user_ta_entry.c:227
    2dc8:	2a1303e0 	mov	w0, w19
    2dcc:	94000062 	bl	2f54 <utee_return>
ta_header_add_session():
/home/lagadanu/Desktop/qemu/optee_os/lib/libutee/arch/arm/user_ta_entry.c:97
    2dd0:	52800021 	mov	w1, #0x1                   	// #1
    2dd4:	392ee801 	strb	w1, [x0,#3002]
init_instance():
/home/lagadanu/Desktop/qemu/optee_os/lib/libutee/arch/arm/user_ta_entry.c:53
    2dd8:	97fff57a 	bl	3c0 <tahead_get_trace_level>
    2ddc:	97fff9d5 	bl	1530 <trace_set_level>
/home/lagadanu/Desktop/qemu/optee_os/lib/libutee/arch/arm/user_ta_entry.c:55
    2de0:	f0000020 	adrp	x0, 9000 <__func__.3181+0x410>
    2de4:	f942c001 	ldr	x1, [x0,#1408]
    2de8:	f942d000 	ldr	x0, [x0,#1440]
    2dec:	f9400021 	ldr	x1, [x1]
    2df0:	97fff8dc 	bl	1160 <malloc_add_pool>
/home/lagadanu/Desktop/qemu/optee_os/lib/libutee/arch/arm/user_ta_entry.c:56
    2df4:	9400012e 	bl	32ac <_TEE_MathAPI_Init>
/home/lagadanu/Desktop/qemu/optee_os/lib/libutee/arch/arm/user_ta_entry.c:57
    2df8:	97fff48a 	bl	20 <TA_CreateEntryPoint>
    2dfc:	2a0003f3 	mov	w19, w0
ta_header_add_session():
/home/lagadanu/Desktop/qemu/optee_os/lib/libutee/arch/arm/user_ta_entry.c:99
    2e00:	34fffcc0 	cbz	w0, 2d98 <__utee_entry+0x58>
    2e04:	17ffffea 	b	2dac <__utee_entry+0x6c>
/home/lagadanu/Desktop/qemu/optee_os/lib/libutee/arch/arm/user_ta_entry.c:109
    2e08:	90000041 	adrp	x1, a000 <ta_props>
    2e0c:	9105a021 	add	x1, x1, #0x168
    2e10:	f9400422 	ldr	x2, [x1,#8]
    2e14:	f9000c02 	str	x2, [x0,#24]
/home/lagadanu/Desktop/qemu/optee_os/lib/libutee/arch/arm/user_ta_entry.c:107
    2e18:	b9000014 	str	w20, [x0]
/home/lagadanu/Desktop/qemu/optee_os/lib/libutee/arch/arm/user_ta_entry.c:109
    2e1c:	a900fc1f 	stp	xzr, xzr, [x0,#8]
    2e20:	f9000040 	str	x0, [x2]
    2e24:	91004000 	add	x0, x0, #0x10
    2e28:	f9000420 	str	x0, [x1,#8]
entry_open_session():
/home/lagadanu/Desktop/qemu/optee_os/lib/libutee/arch/arm/user_ta_entry.c:147
    2e2c:	2a1403e0 	mov	w0, w20
/home/lagadanu/Desktop/qemu/optee_os/lib/libutee/arch/arm/user_ta_entry.c:149
    2e30:	129fff13 	mov	w19, #0xffff0007            	// #-65529
/home/lagadanu/Desktop/qemu/optee_os/lib/libutee/arch/arm/user_ta_entry.c:147
    2e34:	97ffff94 	bl	2c84 <ta_header_get_session>
    2e38:	aa0003f7 	mov	x23, x0
/home/lagadanu/Desktop/qemu/optee_os/lib/libutee/arch/arm/user_ta_entry.c:148
    2e3c:	b4fffb80 	cbz	x0, 2dac <__utee_entry+0x6c>
/home/lagadanu/Desktop/qemu/optee_os/lib/libutee/arch/arm/user_ta_entry.c:151
    2e40:	910143b5 	add	x21, x29, #0x50
    2e44:	aa1603e2 	mov	x2, x22
    2e48:	910133a1 	add	x1, x29, #0x4c
    2e4c:	aa1503e0 	mov	x0, x21
    2e50:	940002f0 	bl	3a10 <__utee_to_param>
/home/lagadanu/Desktop/qemu/optee_os/lib/libutee/arch/arm/user_ta_entry.c:152
    2e54:	b9404fb3 	ldr	w19, [x29,#76]
ta_header_save_params():
/home/lagadanu/Desktop/qemu/optee_os/lib/libutee/arch/arm/user_ta_entry.c:69
    2e58:	f0000020 	adrp	x0, 9000 <__func__.3181+0x410>
/home/lagadanu/Desktop/qemu/optee_os/lib/libutee/arch/arm/user_ta_entry.c:72
    2e5c:	d2800802 	mov	x2, #0x40                  	// #64
/home/lagadanu/Desktop/qemu/optee_os/lib/libutee/arch/arm/user_ta_entry.c:69
    2e60:	f942d401 	ldr	x1, [x0,#1448]
/home/lagadanu/Desktop/qemu/optee_os/lib/libutee/arch/arm/user_ta_entry.c:72
    2e64:	f942e400 	ldr	x0, [x0,#1480]
/home/lagadanu/Desktop/qemu/optee_os/lib/libutee/arch/arm/user_ta_entry.c:69
    2e68:	b9000033 	str	w19, [x1]
/home/lagadanu/Desktop/qemu/optee_os/lib/libutee/arch/arm/user_ta_entry.c:72
    2e6c:	aa1503e1 	mov	x1, x21
    2e70:	97fff997 	bl	14cc <memcpy>
entry_open_session():
/home/lagadanu/Desktop/qemu/optee_os/lib/libutee/arch/arm/user_ta_entry.c:154
    2e74:	910022e2 	add	x2, x23, #0x8
    2e78:	aa1503e1 	mov	x1, x21
    2e7c:	2a1303e0 	mov	w0, w19
    2e80:	97fff46b 	bl	2c <TA_OpenSessionEntryPoint>
/home/lagadanu/Desktop/qemu/optee_os/lib/libutee/arch/arm/user_ta_entry.c:157
    2e84:	b9404fa1 	ldr	w1, [x29,#76]
/home/lagadanu/Desktop/qemu/optee_os/lib/libutee/arch/arm/user_ta_entry.c:154
    2e88:	2a0003f3 	mov	w19, w0
/home/lagadanu/Desktop/qemu/optee_os/lib/libutee/arch/arm/user_ta_entry.c:157
    2e8c:	aa1503e2 	mov	x2, x21
    2e90:	aa1603e0 	mov	x0, x22
    2e94:	940002c1 	bl	3998 <__utee_from_param>
/home/lagadanu/Desktop/qemu/optee_os/lib/libutee/arch/arm/user_ta_entry.c:159
    2e98:	34fff8b3 	cbz	w19, 2dac <__utee_entry+0x6c>
/home/lagadanu/Desktop/qemu/optee_os/lib/libutee/arch/arm/user_ta_entry.c:160
    2e9c:	2a1403e0 	mov	w0, w20
    2ea0:	97ffff83 	bl	2cac <ta_header_remove_session>
    2ea4:	17ffffc2 	b	2dac <__utee_entry+0x6c>
entry_close_session():
/home/lagadanu/Desktop/qemu/optee_os/lib/libutee/arch/arm/user_ta_entry.c:166
    2ea8:	2a0103e0 	mov	w0, w1
/home/lagadanu/Desktop/qemu/optee_os/lib/libutee/arch/arm/user_ta_entry.c:169
    2eac:	129fff13 	mov	w19, #0xffff0007            	// #-65529
/home/lagadanu/Desktop/qemu/optee_os/lib/libutee/arch/arm/user_ta_entry.c:166
    2eb0:	97ffff75 	bl	2c84 <ta_header_get_session>
/home/lagadanu/Desktop/qemu/optee_os/lib/libutee/arch/arm/user_ta_entry.c:168
    2eb4:	b4fff7c0 	cbz	x0, 2dac <__utee_entry+0x6c>
/home/lagadanu/Desktop/qemu/optee_os/lib/libutee/arch/arm/user_ta_entry.c:171
    2eb8:	f9400400 	ldr	x0, [x0,#8]
/home/lagadanu/Desktop/qemu/optee_os/lib/libutee/arch/arm/user_ta_entry.c:174
    2ebc:	52800013 	mov	w19, #0x0                   	// #0
/home/lagadanu/Desktop/qemu/optee_os/lib/libutee/arch/arm/user_ta_entry.c:171
    2ec0:	97fff45d 	bl	34 <TA_CloseSessionEntryPoint>
/home/lagadanu/Desktop/qemu/optee_os/lib/libutee/arch/arm/user_ta_entry.c:173
    2ec4:	2a1403e0 	mov	w0, w20
    2ec8:	97ffff79 	bl	2cac <ta_header_remove_session>
    2ecc:	17ffffb8 	b	2dac <__utee_entry+0x6c>
entry_invoke_command():
/home/lagadanu/Desktop/qemu/optee_os/lib/libutee/arch/arm/user_ta_entry.c:183
    2ed0:	2a0103e0 	mov	w0, w1
/home/lagadanu/Desktop/qemu/optee_os/lib/libutee/arch/arm/user_ta_entry.c:186
    2ed4:	129fff13 	mov	w19, #0xffff0007            	// #-65529
/home/lagadanu/Desktop/qemu/optee_os/lib/libutee/arch/arm/user_ta_entry.c:183
    2ed8:	97ffff6b 	bl	2c84 <ta_header_get_session>
    2edc:	aa0003f5 	mov	x21, x0
/home/lagadanu/Desktop/qemu/optee_os/lib/libutee/arch/arm/user_ta_entry.c:185
    2ee0:	b4fff660 	cbz	x0, 2dac <__utee_entry+0x6c>
/home/lagadanu/Desktop/qemu/optee_os/lib/libutee/arch/arm/user_ta_entry.c:188
    2ee4:	910143b4 	add	x20, x29, #0x50
    2ee8:	aa0303f7 	mov	x23, x3
    2eec:	aa1603e2 	mov	x2, x22
    2ef0:	910133a1 	add	x1, x29, #0x4c
    2ef4:	aa1403e0 	mov	x0, x20
    2ef8:	940002c6 	bl	3a10 <__utee_to_param>
ta_header_save_params():
/home/lagadanu/Desktop/qemu/optee_os/lib/libutee/arch/arm/user_ta_entry.c:69
    2efc:	f0000020 	adrp	x0, 9000 <__func__.3181+0x410>
entry_invoke_command():
/home/lagadanu/Desktop/qemu/optee_os/lib/libutee/arch/arm/user_ta_entry.c:189
    2f00:	b9404fb3 	ldr	w19, [x29,#76]
ta_header_save_params():
/home/lagadanu/Desktop/qemu/optee_os/lib/libutee/arch/arm/user_ta_entry.c:72
    2f04:	d2800802 	mov	x2, #0x40                  	// #64
/home/lagadanu/Desktop/qemu/optee_os/lib/libutee/arch/arm/user_ta_entry.c:69
    2f08:	f942d401 	ldr	x1, [x0,#1448]
/home/lagadanu/Desktop/qemu/optee_os/lib/libutee/arch/arm/user_ta_entry.c:72
    2f0c:	f942e400 	ldr	x0, [x0,#1480]
/home/lagadanu/Desktop/qemu/optee_os/lib/libutee/arch/arm/user_ta_entry.c:69
    2f10:	b9000033 	str	w19, [x1]
/home/lagadanu/Desktop/qemu/optee_os/lib/libutee/arch/arm/user_ta_entry.c:72
    2f14:	aa1403e1 	mov	x1, x20
    2f18:	97fff96d 	bl	14cc <memcpy>
entry_invoke_command():
/home/lagadanu/Desktop/qemu/optee_os/lib/libutee/arch/arm/user_ta_entry.c:191
    2f1c:	f94006a0 	ldr	x0, [x21,#8]
    2f20:	2a1303e2 	mov	w2, w19
    2f24:	2a1703e1 	mov	w1, w23
    2f28:	aa1403e3 	mov	x3, x20
    2f2c:	97fff443 	bl	38 <TA_InvokeCommandEntryPoint>
    2f30:	2a0003f3 	mov	w19, w0
/home/lagadanu/Desktop/qemu/optee_os/lib/libutee/arch/arm/user_ta_entry.c:194
    2f34:	b9404fa1 	ldr	w1, [x29,#76]
    2f38:	aa1403e2 	mov	x2, x20
    2f3c:	aa1603e0 	mov	x0, x22
    2f40:	94000296 	bl	3998 <__utee_from_param>
    2f44:	17ffff9a 	b	2dac <__utee_entry+0x6c>

0000000000002f48 <utee_panic>:
utee_panic():
/home/lagadanu/Desktop/qemu/optee_os/lib/libutee/arch/arm/utee_syscalls_a64.S:24
    2f48:	a9bf7bfd 	stp	x29, x30, [sp,#-16]!
/home/lagadanu/Desktop/qemu/optee_os/lib/libutee/arch/arm/utee_syscalls_a64.S:25
    2f4c:	910003e1 	mov	x1, sp
/home/lagadanu/Desktop/qemu/optee_os/lib/libutee/arch/arm/utee_syscalls_a64.S:26
    2f50:	94000007 	bl	2f6c <__utee_panic>

0000000000002f54 <utee_return>:
utee_return():
/home/lagadanu/Desktop/qemu/optee_os/lib/libutee/arch/arm/utee_syscalls_asm.S:8
    2f54:	d2800008 	mov	x8, #0x0                   	// #0
    2f58:	d4000001 	svc	#0x0
    2f5c:	d65f03c0 	ret

0000000000002f60 <utee_log>:
utee_log():
/home/lagadanu/Desktop/qemu/optee_os/lib/libutee/arch/arm/utee_syscalls_asm.S:10
    2f60:	d2800028 	mov	x8, #0x1                   	// #1
    2f64:	d4000001 	svc	#0x0
    2f68:	d65f03c0 	ret

0000000000002f6c <__utee_panic>:
__utee_panic():
/home/lagadanu/Desktop/qemu/optee_os/lib/libutee/arch/arm/utee_syscalls_asm.S:12
    2f6c:	d2800048 	mov	x8, #0x2                   	// #2
    2f70:	d4000001 	svc	#0x0
    2f74:	d65f03c0 	ret

0000000000002f78 <utee_get_property>:
utee_get_property():
/home/lagadanu/Desktop/qemu/optee_os/lib/libutee/arch/arm/utee_syscalls_asm.S:14
    2f78:	d2800068 	mov	x8, #0x3                   	// #3
    2f7c:	d4000001 	svc	#0x0
    2f80:	d65f03c0 	ret

0000000000002f84 <utee_get_property_name_to_index>:
utee_get_property_name_to_index():
/home/lagadanu/Desktop/qemu/optee_os/lib/libutee/arch/arm/utee_syscalls_asm.S:16
    2f84:	d2800088 	mov	x8, #0x4                   	// #4
    2f88:	d4000001 	svc	#0x0
    2f8c:	d65f03c0 	ret

0000000000002f90 <utee_open_ta_session>:
utee_open_ta_session():
/home/lagadanu/Desktop/qemu/optee_os/lib/libutee/arch/arm/utee_syscalls_asm.S:19
    2f90:	d28000a8 	mov	x8, #0x5                   	// #5
    2f94:	d4000001 	svc	#0x0
    2f98:	d65f03c0 	ret

0000000000002f9c <utee_close_ta_session>:
utee_close_ta_session():
/home/lagadanu/Desktop/qemu/optee_os/lib/libutee/arch/arm/utee_syscalls_asm.S:21
    2f9c:	d28000c8 	mov	x8, #0x6                   	// #6
    2fa0:	d4000001 	svc	#0x0
    2fa4:	d65f03c0 	ret

0000000000002fa8 <utee_invoke_ta_command>:
utee_invoke_ta_command():
/home/lagadanu/Desktop/qemu/optee_os/lib/libutee/arch/arm/utee_syscalls_asm.S:23
    2fa8:	d28000e8 	mov	x8, #0x7                   	// #7
    2fac:	d4000001 	svc	#0x0
    2fb0:	d65f03c0 	ret

0000000000002fb4 <utee_get_cancellation_flag>:
utee_get_cancellation_flag():
/home/lagadanu/Desktop/qemu/optee_os/lib/libutee/arch/arm/utee_syscalls_asm.S:25
    2fb4:	d2800128 	mov	x8, #0x9                   	// #9
    2fb8:	d4000001 	svc	#0x0
    2fbc:	d65f03c0 	ret

0000000000002fc0 <utee_check_access_rights>:
utee_check_access_rights():
/home/lagadanu/Desktop/qemu/optee_os/lib/libutee/arch/arm/utee_syscalls_asm.S:28
    2fc0:	d2800108 	mov	x8, #0x8                   	// #8
    2fc4:	d4000001 	svc	#0x0
    2fc8:	d65f03c0 	ret

0000000000002fcc <utee_unmask_cancellation>:
utee_unmask_cancellation():
/home/lagadanu/Desktop/qemu/optee_os/lib/libutee/arch/arm/utee_syscalls_asm.S:30
    2fcc:	d2800148 	mov	x8, #0xa                   	// #10
    2fd0:	d4000001 	svc	#0x0
    2fd4:	d65f03c0 	ret

0000000000002fd8 <utee_mask_cancellation>:
utee_mask_cancellation():
/home/lagadanu/Desktop/qemu/optee_os/lib/libutee/arch/arm/utee_syscalls_asm.S:32
    2fd8:	d2800168 	mov	x8, #0xb                   	// #11
    2fdc:	d4000001 	svc	#0x0
    2fe0:	d65f03c0 	ret

0000000000002fe4 <utee_wait>:
utee_wait():
/home/lagadanu/Desktop/qemu/optee_os/lib/libutee/arch/arm/utee_syscalls_asm.S:34
    2fe4:	d2800188 	mov	x8, #0xc                   	// #12
    2fe8:	d4000001 	svc	#0x0
    2fec:	d65f03c0 	ret

0000000000002ff0 <utee_get_time>:
utee_get_time():
/home/lagadanu/Desktop/qemu/optee_os/lib/libutee/arch/arm/utee_syscalls_asm.S:36
    2ff0:	d28001a8 	mov	x8, #0xd                   	// #13
    2ff4:	d4000001 	svc	#0x0
    2ff8:	d65f03c0 	ret

0000000000002ffc <utee_set_ta_time>:
utee_set_ta_time():
/home/lagadanu/Desktop/qemu/optee_os/lib/libutee/arch/arm/utee_syscalls_asm.S:38
    2ffc:	d28001c8 	mov	x8, #0xe                   	// #14
    3000:	d4000001 	svc	#0x0
    3004:	d65f03c0 	ret

0000000000003008 <utee_cryp_state_alloc>:
utee_cryp_state_alloc():
/home/lagadanu/Desktop/qemu/optee_os/lib/libutee/arch/arm/utee_syscalls_asm.S:40
    3008:	d28001e8 	mov	x8, #0xf                   	// #15
    300c:	d4000001 	svc	#0x0
    3010:	d65f03c0 	ret

0000000000003014 <utee_cryp_state_copy>:
utee_cryp_state_copy():
/home/lagadanu/Desktop/qemu/optee_os/lib/libutee/arch/arm/utee_syscalls_asm.S:42
    3014:	d2800208 	mov	x8, #0x10                  	// #16
    3018:	d4000001 	svc	#0x0
    301c:	d65f03c0 	ret

0000000000003020 <utee_cryp_state_free>:
utee_cryp_state_free():
/home/lagadanu/Desktop/qemu/optee_os/lib/libutee/arch/arm/utee_syscalls_asm.S:44
    3020:	d2800228 	mov	x8, #0x11                  	// #17
    3024:	d4000001 	svc	#0x0
    3028:	d65f03c0 	ret

000000000000302c <utee_hash_init>:
utee_hash_init():
/home/lagadanu/Desktop/qemu/optee_os/lib/libutee/arch/arm/utee_syscalls_asm.S:46
    302c:	d2800248 	mov	x8, #0x12                  	// #18
    3030:	d4000001 	svc	#0x0
    3034:	d65f03c0 	ret

0000000000003038 <utee_hash_update>:
utee_hash_update():
/home/lagadanu/Desktop/qemu/optee_os/lib/libutee/arch/arm/utee_syscalls_asm.S:48
    3038:	d2800268 	mov	x8, #0x13                  	// #19
    303c:	d4000001 	svc	#0x0
    3040:	d65f03c0 	ret

0000000000003044 <utee_hash_final>:
utee_hash_final():
/home/lagadanu/Desktop/qemu/optee_os/lib/libutee/arch/arm/utee_syscalls_asm.S:50
    3044:	d2800288 	mov	x8, #0x14                  	// #20
    3048:	d4000001 	svc	#0x0
    304c:	d65f03c0 	ret

0000000000003050 <utee_cipher_init>:
utee_cipher_init():
/home/lagadanu/Desktop/qemu/optee_os/lib/libutee/arch/arm/utee_syscalls_asm.S:52
    3050:	d28002a8 	mov	x8, #0x15                  	// #21
    3054:	d4000001 	svc	#0x0
    3058:	d65f03c0 	ret

000000000000305c <utee_cipher_update>:
utee_cipher_update():
/home/lagadanu/Desktop/qemu/optee_os/lib/libutee/arch/arm/utee_syscalls_asm.S:54
    305c:	d28002c8 	mov	x8, #0x16                  	// #22
    3060:	d4000001 	svc	#0x0
    3064:	d65f03c0 	ret

0000000000003068 <utee_cipher_final>:
utee_cipher_final():
/home/lagadanu/Desktop/qemu/optee_os/lib/libutee/arch/arm/utee_syscalls_asm.S:56
    3068:	d28002e8 	mov	x8, #0x17                  	// #23
    306c:	d4000001 	svc	#0x0
    3070:	d65f03c0 	ret

0000000000003074 <utee_cryp_obj_get_info>:
utee_cryp_obj_get_info():
/home/lagadanu/Desktop/qemu/optee_os/lib/libutee/arch/arm/utee_syscalls_asm.S:58
    3074:	d2800308 	mov	x8, #0x18                  	// #24
    3078:	d4000001 	svc	#0x0
    307c:	d65f03c0 	ret

0000000000003080 <utee_cryp_obj_restrict_usage>:
utee_cryp_obj_restrict_usage():
/home/lagadanu/Desktop/qemu/optee_os/lib/libutee/arch/arm/utee_syscalls_asm.S:60
    3080:	d2800328 	mov	x8, #0x19                  	// #25
    3084:	d4000001 	svc	#0x0
    3088:	d65f03c0 	ret

000000000000308c <utee_cryp_obj_get_attr>:
utee_cryp_obj_get_attr():
/home/lagadanu/Desktop/qemu/optee_os/lib/libutee/arch/arm/utee_syscalls_asm.S:63
    308c:	d2800348 	mov	x8, #0x1a                  	// #26
    3090:	d4000001 	svc	#0x0
    3094:	d65f03c0 	ret

0000000000003098 <utee_cryp_obj_alloc>:
utee_cryp_obj_alloc():
/home/lagadanu/Desktop/qemu/optee_os/lib/libutee/arch/arm/utee_syscalls_asm.S:65
    3098:	d2800368 	mov	x8, #0x1b                  	// #27
    309c:	d4000001 	svc	#0x0
    30a0:	d65f03c0 	ret

00000000000030a4 <utee_cryp_obj_close>:
utee_cryp_obj_close():
/home/lagadanu/Desktop/qemu/optee_os/lib/libutee/arch/arm/utee_syscalls_asm.S:67
    30a4:	d2800388 	mov	x8, #0x1c                  	// #28
    30a8:	d4000001 	svc	#0x0
    30ac:	d65f03c0 	ret

00000000000030b0 <utee_cryp_obj_reset>:
utee_cryp_obj_reset():
/home/lagadanu/Desktop/qemu/optee_os/lib/libutee/arch/arm/utee_syscalls_asm.S:69
    30b0:	d28003a8 	mov	x8, #0x1d                  	// #29
    30b4:	d4000001 	svc	#0x0
    30b8:	d65f03c0 	ret

00000000000030bc <utee_cryp_obj_populate>:
utee_cryp_obj_populate():
/home/lagadanu/Desktop/qemu/optee_os/lib/libutee/arch/arm/utee_syscalls_asm.S:71
    30bc:	d28003c8 	mov	x8, #0x1e                  	// #30
    30c0:	d4000001 	svc	#0x0
    30c4:	d65f03c0 	ret

00000000000030c8 <utee_cryp_obj_copy>:
utee_cryp_obj_copy():
/home/lagadanu/Desktop/qemu/optee_os/lib/libutee/arch/arm/utee_syscalls_asm.S:73
    30c8:	d28003e8 	mov	x8, #0x1f                  	// #31
    30cc:	d4000001 	svc	#0x0
    30d0:	d65f03c0 	ret

00000000000030d4 <utee_cryp_derive_key>:
utee_cryp_derive_key():
/home/lagadanu/Desktop/qemu/optee_os/lib/libutee/arch/arm/utee_syscalls_asm.S:75
    30d4:	d2800408 	mov	x8, #0x20                  	// #32
    30d8:	d4000001 	svc	#0x0
    30dc:	d65f03c0 	ret

00000000000030e0 <utee_cryp_random_number_generate>:
utee_cryp_random_number_generate():
/home/lagadanu/Desktop/qemu/optee_os/lib/libutee/arch/arm/utee_syscalls_asm.S:77
    30e0:	d2800428 	mov	x8, #0x21                  	// #33
    30e4:	d4000001 	svc	#0x0
    30e8:	d65f03c0 	ret

00000000000030ec <utee_authenc_init>:
utee_authenc_init():
/home/lagadanu/Desktop/qemu/optee_os/lib/libutee/arch/arm/utee_syscalls_asm.S:80
    30ec:	d2800448 	mov	x8, #0x22                  	// #34
    30f0:	d4000001 	svc	#0x0
    30f4:	d65f03c0 	ret

00000000000030f8 <utee_authenc_update_aad>:
utee_authenc_update_aad():
/home/lagadanu/Desktop/qemu/optee_os/lib/libutee/arch/arm/utee_syscalls_asm.S:82
    30f8:	d2800468 	mov	x8, #0x23                  	// #35
    30fc:	d4000001 	svc	#0x0
