
out/e626662e-c0e2-485c-b8c8-09fbce6edf3d.elf:     file format elf64-littleaarch64
out/e626662e-c0e2-485c-b8c8-09fbce6edf3d.elf
architecture: aarch64, flags 0x00000150:
HAS_SYMS, DYNAMIC, D_PAGED
start address 0x0000000000000020

Program Header:
    LOAD off    0x0000000000010000 vaddr 0x0000000000000000 paddr 0x0000000000000000 align 2**16
         filesz 0x000000000000a740 memsz 0x000000000000a740 flags r-x
    LOAD off    0x000000000001a740 vaddr 0x000000000000a740 paddr 0x000000000000a740 align 2**16
         filesz 0x0000000000001bdc memsz 0x0000000000001bdc flags r--
    LOAD off    0x000000000001d000 vaddr 0x000000000000d000 paddr 0x000000000000d000 align 2**16
         filesz 0x000000000000014c memsz 0x000000000000aba8 flags rw-
 DYNAMIC off    0x000000000001bfd8 vaddr 0x000000000000bfd8 paddr 0x000000000000bfd8 align 2**3
         filesz 0x0000000000000100 memsz 0x0000000000000100 flags rw-

Dynamic Section:
  HASH                 0x000000000000c2d0
  STRTAB               0x000000000000c228
  SYMTAB               0x000000000000c0d8
  STRSZ                0x00000000000000a1
  SYMENT               0x0000000000000018
  DEBUG                0x0000000000000000
  RELA                 0x000000000000bc90
  RELASZ               0x00000000000002d0
  RELAENT              0x0000000000000018
  FLAGS_1              0x0000000008000000
  RELACOUNT            0x0000000000000013
private flags = 0:

Sections:
Idx Name          Size      VMA               LMA               File off  Algn
  0 .ta_head      00000020  0000000000000000  0000000000000000  00010000  2**3
                  CONTENTS, ALLOC, LOAD, DATA
  1 .text         0000a720  0000000000000020  0000000000000020  00010020  2**2
                  CONTENTS, ALLOC, LOAD, READONLY, CODE
  2 .rodata       00001549  000000000000a740  000000000000a740  0001a740  2**3
                  CONTENTS, ALLOC, LOAD, READONLY, DATA
  3 .dynsym       00000150  000000000000c0d8  000000000000c0d8  0001c0d8  2**3
                  CONTENTS, ALLOC, LOAD, READONLY, DATA
  4 .rela.dyn     000001c8  000000000000bc90  000000000000bc90  0001bc90  2**3
                  CONTENTS, ALLOC, LOAD, READONLY, DATA
  5 .got          00000078  000000000000be58  000000000000be58  0001be58  2**3
                  CONTENTS, ALLOC, LOAD, DATA
  6 .rela.got     00000108  000000000000bed0  000000000000bed0  0001bed0  2**3
                  CONTENTS, ALLOC, LOAD, READONLY, DATA
  7 .dynamic      00000100  000000000000bfd8  000000000000bfd8  0001bfd8  2**3
                  CONTENTS, ALLOC, LOAD, DATA
  8 .dynstr       000000a1  000000000000c228  000000000000c228  0001c228  2**0
                  CONTENTS, ALLOC, LOAD, READONLY, DATA
  9 .hash         0000004c  000000000000c2d0  000000000000c2d0  0001c2d0  2**3
                  CONTENTS, ALLOC, LOAD, READONLY, DATA
 10 .data         0000014c  000000000000d000  000000000000d000  0001d000  2**3
                  CONTENTS, ALLOC, LOAD, DATA
 11 .bss          0000aa58  000000000000d150  000000000000d150  0001d14c  2**3
                  ALLOC
 12 .debug_info   000137ad  0000000000000000  0000000000000000  0001d14c  2**0
                  CONTENTS, READONLY, DEBUGGING
 13 .debug_abbrev 0000440c  0000000000000000  0000000000000000  000308f9  2**0
                  CONTENTS, READONLY, DEBUGGING
 14 .debug_loc    0001cad6  0000000000000000  0000000000000000  00034d05  2**0
                  CONTENTS, READONLY, DEBUGGING
 15 .debug_aranges 00000c30  0000000000000000  0000000000000000  000517e0  2**4
                  CONTENTS, READONLY, DEBUGGING
 16 .debug_macro  00005482  0000000000000000  0000000000000000  00052410  2**0
                  CONTENTS, READONLY, DEBUGGING
 17 .debug_line   00006ed9  0000000000000000  0000000000000000  00057892  2**0
                  CONTENTS, READONLY, DEBUGGING
 18 .debug_str    00010d8b  0000000000000000  0000000000000000  0005e76b  2**0
                  CONTENTS, READONLY, DEBUGGING
 19 .comment      0000002d  0000000000000000  0000000000000000  0006f4f6  2**0
                  CONTENTS, READONLY
 20 .debug_frame  00002ff8  0000000000000000  0000000000000000  0006f528  2**3
                  CONTENTS, READONLY, DEBUGGING
 21 .debug_ranges 00000f90  0000000000000000  0000000000000000  00072520  2**4
                  CONTENTS, READONLY, DEBUGGING
SYMBOL TABLE:
0000000000000000 l    d  .ta_head	0000000000000000 .ta_head
0000000000000020 l    d  .text	0000000000000000 .text
000000000000a740 l    d  .rodata	0000000000000000 .rodata
000000000000bc90 l    d  .rela.dyn	0000000000000000 .rela.dyn
000000000000be58 l    d  .got	0000000000000000 .got
000000000000bed0 l    d  .rela.got	0000000000000000 .rela.got
000000000000bfd8 l    d  .dynamic	0000000000000000 .dynamic
000000000000c0d8 l    d  .dynsym	0000000000000000 .dynsym
000000000000c228 l    d  .dynstr	0000000000000000 .dynstr
000000000000c2d0 l    d  .hash	0000000000000000 .hash
000000000000d000 l    d  .data	0000000000000000 .data
000000000000d150 l    d  .bss	0000000000000000 .bss
0000000000000000 l    d  .debug_info	0000000000000000 .debug_info
0000000000000000 l    d  .debug_abbrev	0000000000000000 .debug_abbrev
0000000000000000 l    d  .debug_loc	0000000000000000 .debug_loc
0000000000000000 l    d  .debug_aranges	0000000000000000 .debug_aranges
0000000000000000 l    d  .debug_macro	0000000000000000 .debug_macro
0000000000000000 l    d  .debug_line	0000000000000000 .debug_line
0000000000000000 l    d  .debug_str	0000000000000000 .debug_str
0000000000000000 l    d  .comment	0000000000000000 .comment
0000000000000000 l    d  .debug_frame	0000000000000000 .debug_frame
0000000000000000 l    d  .debug_ranges	0000000000000000 .debug_ranges
0000000000000000 l    df *ABS*	0000000000000000 user_ta_header.c
000000000000a768 l     O .rodata	0000000000000004 __compound_literal.4
000000000000a76c l     O .rodata	0000000000000004 __compound_literal.3
000000000000a770 l     O .rodata	0000000000000001 __compound_literal.2
000000000000a771 l     O .rodata	0000000000000001 __compound_literal.1
000000000000a772 l     O .rodata	0000000000000001 __compound_literal.0
0000000000000000 l    df *ABS*	0000000000000000 ta_entry.c
000000000000a740 l     O .rodata	000000000000001b __func__.3753
0000000000000000 l    df *ABS*	0000000000000000 ta_aes_perf.c
000000000000d000 l     O .data	0000000000000010 iv
000000000000d010 l     O .data	0000000000000020 aes_key.3860
000000000000d030 l     O .data	0000000000000020 aes_key2.3861
000000000000d150 l     O .bss	0000000000000004 algo
000000000000d158 l     O .bss	0000000000000008 crypto_op
000000000000d160 l     O .bss	0000000000000004 use_iv
0000000000000000 l    df *ABS*	0000000000000000 trace.c
000000000000a788 l     O .rodata	0000000000000005 lvl_strs.3178
0000000000000000 l    df *ABS*	0000000000000000 snprintk.c
000000000000a790 l     O .rodata	0000000000000011 HEXDIGITS
000000000000a7a8 l     O .rodata	0000000000000011 hexdigits
0000000000000000 l    df *ABS*	0000000000000000 memchr.c
0000000000000000 l    df *ABS*	0000000000000000 memcpy.c
0000000000000000 l    df *ABS*	0000000000000000 strlen.c
0000000000000000 l    df *ABS*	0000000000000000 trace_ext.c
0000000000000000 l    df *ABS*	0000000000000000 tee_api.c
0000000000015168 l     O .bss	0000000000000008 tee_api_instance_data
000000000000a7d0 l     O .rodata	000000000000000b __func__.4337
0000000000000000 l    df *ABS*	0000000000000000 tee_api_objects.c
0000000000000000 l    df *ABS*	0000000000000000 tee_api_operations.c
0000000000002664 l     F .text	000000000000021c tee_buffer_update
0000000000000000 l    df *ABS*	0000000000000000 tee_api_panic.c
0000000000000000 l    df *ABS*	0000000000000000 user_ta_entry.c
0000000000004ab0 l     F .text	0000000000000028 ta_header_get_session
0000000000004ad8 l     F .text	0000000000000094 ta_header_remove_session
0000000000017ba0 l     O .bss	0000000000000001 init_done
000000000000d100 l     O .data	0000000000000010 ta_sessions
0000000000000000 l    df *ABS*	0000000000000000 utee_syscalls_a64.o
0000000000000000 l    df *ABS*	0000000000000000 gprof_a64.o
0000000000000000 l    df *ABS*	0000000000000000 tee_api_arith.c
000000000000579c l     F .text	0000000000000028 TEE_BigInt_Panic
00000000000151b8 l     O .bss	0000000000001980 mempool_u32
0000000000016b38 l     O .bss	0000000000000010 mem.4074
0000000000016b48 l     O .bss	0000000000000008 mempool
0000000000000000 l    df *ABS*	0000000000000000 mpa_misc.c
0000000000000000 l    df *ABS*	0000000000000000 mpa_montgomery.c
0000000000000000 l    df *ABS*	0000000000000000 mpa_primetest.c
000000000000b448 l     O .rodata	0000000000000010 const_miller_rabin_proof_limit
000000000000b458 l     O .rodata	000000000000001c proof_a.3550
000000000000b478 l     O .rodata	000000000000000c const_two
000000000000b488 l     O .rodata	00000000000000b8 const_small_prime_factors
0000000000000000 l    df *ABS*	0000000000000000 mpa_conv.c
0000000000000000 l    df *ABS*	0000000000000000 mpa_div.c
0000000000000000 l    df *ABS*	0000000000000000 mpa_gcd.c
0000000000006ad0 l     F .text	0000000000000080 __mpa_divby2
0000000000006b50 l     F .text	000000000000016c __mpa_gcd.part.0
0000000000006cbc l     F .text	0000000000000380 __mpa_egcd
0000000000000000 l    df *ABS*	0000000000000000 mpa_mem_static.c
0000000000000000 l    df *ABS*	0000000000000000 mpa_mul.c
0000000000000000 l    df *ABS*	0000000000000000 mpa_random.c
0000000000000000 l    df *ABS*	0000000000000000 mpa_shift.c
0000000000000000 l    df *ABS*	0000000000000000 mpa_addsub.c
0000000000000000 l    df *ABS*	0000000000000000 mpa_cmp.c
0000000000000000 l    df *ABS*	0000000000000000 mpa_expmod.c
0000000000000000 l    df *ABS*	0000000000000000 mpa_init.c
0000000000000000 l    df *ABS*	0000000000000000 mpa_io.c
0000000000008970 l     F .text	0000000000000044 __mpa_word_to_hexstr
00000000000089b4 l     F .text	0000000000000114 __mpa_mpanum_to_hexstr
0000000000008ac8 l     F .text	000000000000003c __mpa_isspace
000000000000b548 l     O .rodata	000000000000000c __func__.3624
000000000000b558 l     O .rodata	000000000000000c __func__.3638
0000000000016b50 l     O .bss	0000000000001002 buf.3610
0000000000000000 l    df *ABS*	0000000000000000 mpa_modulus.c
0000000000000000 l    df *ABS*	0000000000000000 bget_malloc.c
0000000000009364 l     F .text	0000000000000040 raw_malloc_return_hook.isra.3
00000000000093a4 l     F .text	0000000000000110 create_free_block.constprop.11
0000000000009674 l     F .text	000000000000005c raw_malloc.constprop.15
000000000000b568 l     O .rodata	0000000000000012 __func__.3464
000000000000b580 l     O .rodata	0000000000000005 __func__.3319
000000000000b588 l     O .rodata	0000000000000006 __func__.3334
000000000000b590 l     O .rodata	0000000000000005 __func__.3351
000000000000b598 l     O .rodata	0000000000000006 __func__.3343
000000000000b5a0 l     O .rodata	0000000000000006 __func__.3360
000000000000b5a8 l     O .rodata	0000000000000007 __func__.3370
000000000000b5b0 l     O .rodata	000000000000000d __func__.3500
000000000000b5c0 l     O .rodata	000000000000000c __func__.3474
000000000000b5d0 l     O .rodata	000000000000000b __func__.3485
000000000000b5e0 l     O .rodata	0000000000000010 __func__.3552
000000000000b5f0 l     O .rodata	000000000000000e __func__.3506
000000000000b600 l     O .rodata	0000000000000013 __func__.3411
0000000000017b58 l     O .bss	0000000000000038 mstats
0000000000017b90 l     O .bss	0000000000000008 malloc_pool_len
0000000000017b98 l     O .bss	0000000000000008 malloc_pool
000000000000d110 l     O .data	0000000000000038 malloc_poolset
0000000000000000 l    df *ABS*	0000000000000000 snprintf.c
0000000000000000 l    df *ABS*	0000000000000000 memcmp.c
0000000000000000 l    df *ABS*	0000000000000000 memmove.c
0000000000000000 l    df *ABS*	0000000000000000 memset.c
0000000000000000 l    df *ABS*	0000000000000000 buf_compare_ct.c
0000000000000000 l    df *ABS*	0000000000000000 mempool.c
000000000000b618 l     O .rodata	0000000000000013 __func__.3181
0000000000000000 l    df *ABS*	0000000000000000 assert.c
0000000000000000 l    df *ABS*	0000000000000000 
000000000000bfd8 l     O *ABS*	0000000000000000 _DYNAMIC
000000000000be70 l     O *ABS*	0000000000000000 _GLOBAL_OFFSET_TABLE_
00000000000050b0 g     F .text	000000000000000c utee_se_channel_transmit
0000000000001490 g     F .text	000000000000003c putchar
00000000000088ec g     F .text	000000000000001c mpa_init_static
0000000000001dc8 g     F .text	00000000000000c0 TEE_PopulateTransientObject
0000000000005818 g     F .text	0000000000000054 mpa_copy
00000000000056dc g     F .text	000000000000001c TEE_BigIntConvertToFMM
00000000000055bc g     F .text	000000000000000c TEE_BigIntSquareMod
0000000000005238 g     F .text	0000000000000004 TEE_BigIntShiftRight
0000000000006120 g     F .text	0000000000000074 mpa_get_S32
000000000000589c g     F .text	0000000000000044 mpa_highest_bit_index
0000000000004f78 g     F .text	000000000000000c utee_storage_obj_create
000000000000508c g     F .text	000000000000000c utee_se_session_close
0000000000004d80 g     F .text	000000000000000c utee_return
0000000000003690 g     F .text	0000000000000070 TEE_DigestUpdate
000000000000502c g     F .text	000000000000000c utee_se_service_get_readers
000000000000198c g     F .text	0000000000000008 TEE_Realloc
0000000000006210 g     F .text	0000000000000148 __mpa_div_q_r_internal_word
00000000000033e0 g     F .text	0000000000000190 TEE_SetOperationKey2
0000000000008124 g     F .text	000000000000019c mpa_sub
0000000000001384 g     F .text	00000000000000cc printf
0000000000004d8c g     F .text	000000000000000c utee_log
000000000000b540 g     O .rodata	0000000000000004 NR_STORED_PRIMES
0000000000001e88 g     F .text	0000000000000054 TEE_InitRefAttribute
0000000000001668 g     F .text	00000000000000b4 TEE_InvokeTACommand
0000000000005924 g     F .text	000000000000001c mpa_can_hold
00000000000073f8 g     F .text	0000000000000098 __mpa_abs_mul_word
00000000000040d4 g     F .text	00000000000001bc TEE_AEEncryptFinal
0000000000005cc0 g     F .text	0000000000000088 mpa_montgomery_mul
0000000000001224 g     F .text	0000000000000054 vsnprintk
0000000000005940 g     F .text	000000000000000c mpa_parity
000000000000a518 g     F .text	000000000000004c memmove
0000000000007cac g     F .text	0000000000000020 __mpa_full_adder_ackum
000000000000a418 g     F .text	0000000000000078 snprintf
0000000000005234 g     F .text	0000000000000004 TEE_BigIntCmpS32
0000000000001edc g     F .text	0000000000000050 TEE_InitValueAttribute
0000000000005270 g     F .text	000000000000000c TEE_BigIntAdd
0000000000004db0 g     F .text	000000000000000c utee_get_property_name_to_index
000000000000a778 g     O .rodata	0000000000000008 ta_heap_size
000000000000b544 g     O .rodata	0000000000000004 MAX_TABULATED_PRIME
0000000000001d74 g     F .text	0000000000000054 TEE_ResetTransientObject
0000000000004e34 g     F .text	000000000000000c utee_cryp_state_alloc
0000000000004f3c g     F .text	000000000000000c utee_authenc_enc_final
00000000000073d8 g     F .text	0000000000000020 __mpa_mul_add_word_cum
00000000000037c4 g     F .text	00000000000000a4 TEE_CipherInit
0000000000005288 g     F .text	0000000000000004 TEE_BigIntNeg
00000000000069e0 g     F .text	00000000000000f0 mpa_div
0000000000000020 g       .text	0000000000000000 __text_start
0000000000002398 g     F .text	0000000000000050 TEE_StartPersistentObjectEnumerator
000000000000a7e0 g     O .rodata	000000000000000c const_one
000000000000a3ac g     F .text	000000000000006c malloc_buffer_overlaps_heap
000000000000862c g     F .text	0000000000000018 __mpa_abs_less_than
0000000000005448 g     F .text	00000000000000a8 TEE_BigIntSubMod
0000000000003e2c g     F .text	00000000000000c4 TEE_AEInit
000000000000772c g     F .text	000000000000010c mpa_get_random
0000000000000438 g     F .text	0000000000000240 trace_printf
0000000000005014 g     F .text	000000000000000c utee_se_service_open
0000000000001318 g     F .text	0000000000000020 memcpy
0000000000004e4c g     F .text	000000000000000c utee_cryp_state_free
00000000000057e8 g     F .text	0000000000000030 mpa_wipe
00000000000056f8 g     F .text	0000000000000094 TEE_BigIntConvertFromFMM
0000000000004aa8 g     F .text	0000000000000008 TEE_Panic
00000000000050a4 g     F .text	000000000000000c utee_se_channel_get_select_resp
0000000000003570 g     F .text	0000000000000120 TEE_CopyOperation
0000000000001450 g     F .text	0000000000000040 puts
000000000000578c g     F .text	0000000000000010 TEE_BigIntComputeFMM
0000000000006194 g     F .text	0000000000000014 mpa_set_word
0000000000009c40 g     F .text	0000000000000030 malloc_get_stats
0000000000007998 g     F .text	0000000000000190 mpa_shift_left
0000000000004e94 g     F .text	000000000000000c utee_cipher_final
0000000000007584 g     F .text	00000000000000e4 mpa_mul
0000000000001908 g     F .text	0000000000000028 TEE_GetREETime
00000000000022ec g     F .text	000000000000005c TEE_AllocatePersistentObjectEnumerator
000000000000d050 g     O .data	00000000000000a8 ta_props
0000000000004428 g     F .text	0000000000000144 TEE_AsymmetricEncrypt
0000000000009c70 g     F .text	0000000000000004 malloc
0000000000004ed0 g     F .text	000000000000000c utee_cryp_obj_close
0000000000005050 g     F .text	000000000000000c utee_se_reader_open_session
000000000000202c g     F .text	0000000000000084 TEE_GenerateKey
000000000000a490 g     F .text	0000000000000054 vsnprintf
000000000000d148 g     O .data	0000000000000004 trace_level
0000000000005230 g     F .text	0000000000000004 TEE_BigIntCmp
000000000000a760 g     O .rodata	0000000000000008 ta_num_props
00000000000099f4 g     F .text	00000000000000c8 bgetr
0000000000004f30 g     F .text	000000000000000c utee_authenc_update_payload
000000000000a6a8 g     F .text	0000000000000040 mempool_free
0000000000003868 g     F .text	000000000000015c TEE_CipherUpdate
00000000000051cc g     F .text	0000000000000040 TEE_BigIntConvertToOctetString
0000000000003130 g     F .text	0000000000000148 TEE_GetOperationInfoMultiple
00000000000050c8 g     F .text	000000000000000c utee_cache_operation
0000000000004f18 g     F .text	000000000000000c utee_authenc_init
000000000000523c g     F .text	000000000000001c TEE_BigIntGetBit
000000000000a780 g     O .rodata	0000000000000003 trace_ext_prefix
0000000000007ccc g     F .text	00000000000000f4 __mpa_abs_add
00000000000096d0 g     F .text	0000000000000088 bgetz
00000000000017c0 g     F .text	000000000000000c TEE_GetInstanceData
000000000000180c g     F .text	000000000000003c TEE_Wait
0000000000004fe4 g     F .text	000000000000000c utee_storage_obj_write
00000000000073a4 g     F .text	000000000000001c mpa_free_static_temp_var
0000000000005d48 g     F .text	00000000000003ac mpa_is_prob_prime
00000000000050bc g     F .text	000000000000000c utee_se_channel_close
0000000000007668 g     F .text	00000000000000c4 mpa_mul_word
00000000000019a0 g     F .text	0000000000000008 TEE_CacheFlush
0000000000000028 g     F .text	0000000000000004 TA_DestroyEntryPoint
000000000000a6e8 g     F .text	0000000000000044 _assert_log
0000000000005190 g     F .text	0000000000000014 TEE_BigIntFMMContextSizeInU32
0000000000003d6c g     F .text	00000000000000c0 TEE_MACCompareFinal
0000000000002280 g     F .text	000000000000006c TEE_RenamePersistentObject
0000000000003700 g     F .text	00000000000000c4 TEE_DigestDoFinal
0000000000006358 g     F .text	0000000000000688 __mpa_div_q_r
00000000000050d8 g     F .text	0000000000000058 _TEE_MathAPI_Init
0000000000004fcc g     F .text	000000000000000c utee_storage_next_enum
000000000000d168 g     O .bss	0000000000008000 ta_heap
00000000000055c8 g     F .text	000000000000006c TEE_BigIntInvMod
0000000000000034 g     F .text	0000000000000004 TA_CloseSessionEntryPoint
000000000000456c g     F .text	0000000000000148 TEE_AsymmetricDecrypt
00000000000020b0 g     F .text	0000000000000098 TEE_OpenPersistentObject
0000000000004d98 g     F .text	000000000000000c __utee_panic
0000000000004e40 g     F .text	000000000000000c utee_cryp_state_copy
0000000000000038 g     F .text	0000000000000068 TA_InvokeCommandEntryPoint
0000000000008e28 g     F .text	0000000000000110 mpa_set_oct_str
0000000000005080 g     F .text	000000000000000c utee_se_session_open_channel
000000000000a628 g     F .text	0000000000000080 mempool_alloc
000000000000789c g     F .text	0000000000000098 __mpa_shift_words_left
0000000000004ec4 g     F .text	000000000000000c utee_cryp_obj_alloc
0000000000004e28 g     F .text	000000000000000c utee_set_ta_time
0000000000004eb8 g     F .text	000000000000000c utee_cryp_obj_get_attr
0000000000001fd8 g     F .text	0000000000000054 TEE_CopyObjectAttributes
00000000000059d0 g     F .text	0000000000000090 __mpa_montgomery_sub_ack
0000000000009c88 g     F .text	0000000000000070 calloc
0000000000001930 g     F .text	000000000000005c TEE_Malloc
0000000000004e04 g     F .text	000000000000000c utee_mask_cancellation
0000000000004edc g     F .text	000000000000000c utee_cryp_obj_reset
00000000000017a0 g     F .text	0000000000000014 TEE_CheckMemoryAccessRights
0000000000017ba8 g       .bss	0000000000000000 __gprof_buf_end
00000000000082c0 g     F .text	000000000000002c mpa_neg
000000000000a810 g     O .rodata	0000000000000c38 PRIME_TABLE
000000000000246c g     F .text	0000000000000068 TEE_ReadObjectData
0000000000001b18 g     F .text	00000000000000ac TEE_GetObjectBufferAttribute
000000000000002c g     F .text	0000000000000008 TA_OpenSessionEntryPoint
000000000000703c g     F .text	0000000000000120 mpa_gcd
000000000000586c g     F .text	0000000000000030 mpa_abs
0000000000004fc0 g     F .text	000000000000000c utee_storage_start_enum
0000000000002880 g     F .text	0000000000000044 TEE_FreeOperation
0000000000008b0c g     F .text	0000000000000298 mpa_set_str
0000000000004f90 g     F .text	000000000000000c utee_storage_obj_rename
0000000000015170 g     O .bss	0000000000000004 ta_param_types
00000000000019b0 g     F .text	000000000000004c __utee_from_attr
00000000000056b8 g     F .text	0000000000000024 TEE_BigIntIsProbablePrime
0000000000007394 g     F .text	0000000000000010 mpa_alloc_static_temp_var
0000000000002210 g     F .text	0000000000000044 TEE_CloseAndDeletePersistentObject1
0000000000004da4 g     F .text	000000000000000c utee_get_property
0000000000004290 g     F .text	0000000000000198 TEE_AEDecryptFinal
0000000000005130 g     F .text	0000000000000004 TEE_BigIntInit
00000000000017cc g     F .text	0000000000000008 TEE_MemMove
00000000000051a4 g     F .text	0000000000000028 TEE_BigIntConvertFromOctetString
000000000000d0f8 g     O .data	0000000000000008 _ref__utee_mcount
0000000000003b6c g     F .text	00000000000000a4 TEE_MACInit
00000000000046b4 g     F .text	000000000000013c TEE_AsymmetricSignDigest
00000000000012ec g     F .text	000000000000002c memchr
0000000000001748 g     F .text	000000000000002c TEE_UnmaskCancellation
00000000000019fc g     F .text	0000000000000048 TEE_GetObjectInfo
00000000000091cc g     F .text	0000000000000084 mpa_mul_mod
0000000000004f84 g     F .text	000000000000000c utee_storage_obj_del
0000000000003f84 g     F .text	0000000000000150 TEE_AEUpdate
0000000000004ffc g     F .text	000000000000000c utee_storage_obj_seek
0000000000001d20 g     F .text	0000000000000054 TEE_FreeTransientObject
0000000000005b84 g     F .text	000000000000013c mpa_compute_fmm_context
0000000000004e64 g     F .text	000000000000000c utee_hash_update
0000000000004a84 g     F .text	0000000000000024 rand
00000000000050d4  w    F .text	0000000000000004 __utee_mcount
00000000000030e8 g     F .text	0000000000000048 TEE_GetOperationInfo
000000000000530c g     F .text	0000000000000094 TEE_BigIntMod
0000000000005098 g     F .text	000000000000000c utee_se_channel_select_next
0000000000004dc8 g     F .text	000000000000000c utee_close_ta_session
00000000000052a8 g     F .text	0000000000000064 TEE_BigIntDiv
0000000000009c28 g     F .text	0000000000000018 malloc_reset_stats
0000000000004e88 g     F .text	000000000000000c utee_cipher_update
0000000000001a84 g     F .text	0000000000000044 TEE_RestrictObjectUsage1
0000000000005074 g     F .text	000000000000000c utee_se_session_get_atr
0000000000009cf8 g     F .text	000000000000005c realloc
0000000000007dc0 g     F .text	00000000000000cc __mpa_abs_add_ackum
000000000000a5c0 g     F .text	0000000000000068 mempool_alloc_pool
0000000000004f60 g     F .text	000000000000000c utee_asymm_verify
000000000000528c g     F .text	000000000000000c TEE_BigIntMul
0000000000003278 g     F .text	0000000000000078 TEE_ResetOperation
00000000000061a8 g     F .text	0000000000000018 mpa_get_word
00000000000017dc g     F .text	0000000000000008 TEE_MemFill
000000000000a4e4 g     F .text	0000000000000034 memcmp
000000000000a0fc g     F .text	0000000000000130 malloc_add_pool
0000000000003c10 g     F .text	00000000000000a0 TEE_MACUpdate
0000000000000428 g     F .text	0000000000000010 trace_get_level
0000000000004f0c g     F .text	000000000000000c utee_cryp_random_number_generate
0000000000001ac8 g     F .text	0000000000000050 TEE_RestrictObjectUsage
0000000000005180 g     F .text	0000000000000010 TEE_BigIntFMMSizeInU32
0000000000005134 g     F .text	0000000000000014 TEE_BigIntInitFMM
0000000000004f54 g     F .text	000000000000000c utee_asymm_operate
0000000000001c94 g     F .text	0000000000000028 TEE_CloseObject
0000000000004b6c g     F .text	0000000000000208 __utee_entry
000000000000a740 g       .text	0000000000000000 __text_end
0000000000005634 g     F .text	0000000000000078 TEE_BigIntRelativePrime
0000000000007838 g     F .text	0000000000000064 mpa_get_random_digits
0000000000009abc g     F .text	00000000000000d4 bpool
00000000000060f4 g     F .text	000000000000002c mpa_set_S32
0000000000008908 g     F .text	0000000000000068 mpa_init_static_fmm_context
000000000000171c g     F .text	000000000000002c TEE_GetCancellationFlag
0000000000005020 g     F .text	000000000000000c utee_se_service_close
00000000000018c8 g     F .text	0000000000000040 TEE_SetTAPersistentTime
00000000000082ec g     F .text	000000000000013c mpa_add_word
0000000000005038 g     F .text	000000000000000c utee_se_reader_get_prop
000000000000a564 g     F .text	000000000000001c memset
0000000000001848 g     F .text	0000000000000080 TEE_GetTAPersistentTime
00000000000001ac g     F .text	0000000000000014 cmd_clean_res
0000000000000678 g     F .text	0000000000000004 dhex_dump
0000000000002148 g     F .text	00000000000000c8 TEE_CreatePersistentObject
0000000000001774 g     F .text	000000000000002c TEE_MaskCancellation
0000000000007c88 g     F .text	0000000000000024 __mpa_full_sub
0000000000003ef0 g     F .text	0000000000000094 TEE_AEUpdateAAD
0000000000004fd8 g     F .text	000000000000000c utee_storage_obj_read
0000000000002538 g     F .text	000000000000005c TEE_TruncateObjectData
0000000000004ee8 g     F .text	000000000000000c utee_cryp_obj_populate
0000000000008644 g     F .text	0000000000000068 mpa_cmp
0000000000009250 g     F .text	0000000000000114 mpa_inv_mod
0000000000008428 g     F .text	0000000000000138 mpa_sub_word
00000000000073c0 g     F .text	0000000000000018 __mpa_mul_add_word
0000000000007f90 g     F .text	0000000000000194 mpa_add
0000000000008730 g     F .text	00000000000001bc mpa_exp_mod
0000000000001a44 g     F .text	0000000000000040 TEE_GetObjectInfo1
0000000000007934 g     F .text	0000000000000064 __mpa_shift_words_right
0000000000000404 g     F .text	0000000000000024 trace_set_level
0000000000005068 g     F .text	000000000000000c utee_se_session_is_closed
0000000000004ea0 g     F .text	000000000000000c utee_cryp_obj_get_info
0000000000001bc4 g     F .text	00000000000000d0 TEE_GetObjectValueAttribute
00000000000032f0 g     F .text	00000000000000f0 TEE_SetOperationKey
0000000000004f9c g     F .text	000000000000000c utee_storage_alloc_enum
0000000000004fb4 g     F .text	000000000000000c utee_storage_reset_enum
0000000000004ff0 g     F .text	000000000000000c utee_storage_obj_trunc
00000000000090ac g     F .text	0000000000000018 mpa_mod
0000000000008610 g     F .text	000000000000001c __mpa_abs_greater_than
0000000000005210 g     F .text	0000000000000020 TEE_BigIntConvertToS32
000000000000527c g     F .text	000000000000000c TEE_BigIntSub
0000000000004de0 g     F .text	000000000000000c utee_get_cancellation_flag
0000000000004e58 g     F .text	000000000000000c utee_hash_init
00000000000003fc g     F .text	0000000000000008 tahead_get_trace_level
00000000000014cc g     F .text	0000000000000078 __utee_from_param
0000000000002594 g     F .text	00000000000000d0 TEE_SeekObjectData
000000000000a7f0 g     O .rodata	0000000000000010 Const_1_LShift_Base
0000000000001544 g     F .text	000000000000006c __utee_to_param
0000000000009d54 g     F .text	00000000000003a8 memalign
00000000000039c4 g     F .text	00000000000001a8 TEE_CipherDoFinal
000000000000520c g     F .text	0000000000000004 TEE_BigIntConvertFromS32
0000000000009148 g     F .text	0000000000000084 mpa_sub_mod
0000000000004eac g     F .text	000000000000000c utee_cryp_obj_restrict_usage
000000000000a22c g     F .text	0000000000000180 malloc_buffer_is_within_alloced
0000000000004ef4 g     F .text	000000000000000c utee_cryp_obj_copy
0000000000007b28 g     F .text	0000000000000144 mpa_shift_right
0000000000005148 g     F .text	0000000000000038 TEE_BigIntInitFMMContext
0000000000004f00 g     F .text	000000000000000c utee_cryp_derive_key
0000000000005a60 g     F .text	0000000000000124 __mpa_montgomery_mul
0000000000008f38 g     F .text	0000000000000174 mpa_get_oct_str
00000000000000a0 g     F .text	000000000000010c cmd_process
00000000000086ac g     F .text	0000000000000084 mpa_cmp_short
0000000000004f48 g     F .text	000000000000000c utee_authenc_dec_final
00000000000024d4 g     F .text	0000000000000064 TEE_WriteObjectData
0000000000002370 g     F .text	0000000000000028 TEE_ResetPersistentObjectEnumerator
0000000000008560 g     F .text	00000000000000b0 __mpa_abs_cmp
0000000000005298 g     F .text	0000000000000010 TEE_BigIntSquare
0000000000000020 g     F .text	0000000000000008 TA_CreateEntryPoint
0000000000001278 g     F .text	0000000000000074 snprintk
0000000000005258 g     F .text	0000000000000018 TEE_BigIntGetBitCount
00000000000054f0 g     F .text	00000000000000cc TEE_BigIntMulMod
000000000000491c g     F .text	0000000000000144 TEE_DeriveKey
0000000000015178 g     O .bss	0000000000000040 ta_params
0000000000007490 g     F .text	00000000000000f4 __mpa_abs_mul
00000000000094b4 g     F .text	00000000000001c0 bget
0000000000001cbc g     F .text	0000000000000064 TEE_AllocateTransientObject
0000000000001994 g     F .text	0000000000000004 TEE_Free
0000000000005044 g     F .text	000000000000000c utee_se_reader_get_name
00000000000019a8 g     F .text	0000000000000008 TEE_CacheInvalidate
0000000000004e7c g     F .text	000000000000000c utee_cipher_init
000000000000a72c g     F .text	0000000000000014 _assert_break
00000000000053a0 g     F .text	00000000000000a8 TEE_BigIntAddMod
0000000000004fa8 g     F .text	000000000000000c utee_storage_free_enum
0000000000004f24 g     F .text	000000000000000c utee_authenc_update_aad
00000000000058e0 g     F .text	0000000000000044 mpa_get_bit
00000000000028c4 g     F .text	0000000000000824 TEE_AllocateOperation
0000000000004a60 g     F .text	0000000000000024 TEE_GenerateRandom
00000000000017d4 g     F .text	0000000000000008 TEE_MemCompare
000000000000067c g     F .text	0000000000000ba8 __vsnprintf
0000000000002348 g     F .text	0000000000000028 TEE_FreePersistentObjectEnumerator
0000000000004d74 g     F .text	000000000000000c utee_panic
00000000000015b0 g     F .text	0000000000000090 TEE_OpenTASession
0000000000001354 g     F .text	0000000000000028 trace_ext_puts
000000000000137c g     F .text	0000000000000008 trace_ext_get_thread_id
0000000000002254 g     F .text	000000000000002c TEE_CloseAndDeletePersistentObject
0000000000001998 g     F .text	0000000000000008 TEE_CacheClean
0000000000004dbc g     F .text	000000000000000c utee_open_ta_session
000000000000a580 g     F .text	0000000000000040 buf_compare_ct
00000000000061c0 g     F .text	0000000000000050 __mpa_div_dword
00000000000057c4 g     F .text	0000000000000024 __mpa_set_unused_digits_to_zero
000000000000a800 g     O .rodata	000000000000000c const_largest_deci_base
0000000000008b04 g     F .text	0000000000000008 mpa_get_str_size
0000000000001f2c g     F .text	00000000000000ac TEE_CopyObjectAttributes1
0000000000004e70 g     F .text	000000000000000c utee_hash_final
0000000000001338 g     F .text	000000000000001c strlen
00000000000056ac g     F .text	000000000000000c TEE_BigIntComputeExtendedGcd
000000000000715c g     F .text	00000000000001ec mpa_extended_gcd
00000000000090c4 g     F .text	0000000000000084 mpa_add_mod
0000000000004f6c g     F .text	000000000000000c utee_storage_obj_open
0000000000004dd4 g     F .text	000000000000000c utee_invoke_ta_command
0000000000008da4 g     F .text	0000000000000084 mpa_get_str
0000000000004e10 g     F .text	000000000000000c utee_wait
00000000000017e4 g     F .text	0000000000000028 TEE_GetSystemTime
0000000000000000 g     O .ta_head	0000000000000020 ta_head
0000000000009758 g     F .text	000000000000029c brel
0000000000007348 g     F .text	000000000000004c mpa_alloc_static_temp_var_size
0000000000004e1c g     F .text	000000000000000c utee_get_time
0000000000005958 g     F .text	0000000000000078 __mpa_montgomery_mul_add
00000000000017b4 g     F .text	000000000000000c TEE_SetInstanceData
0000000000004df8 g     F .text	000000000000000c utee_unmask_cancellation
0000000000004dec g     F .text	000000000000000c utee_check_access_rights
000000000000505c g     F .text	000000000000000c utee_se_reader_close_sessions
00000000000023e8 g     F .text	0000000000000084 TEE_GetNextPersistentObject
0000000000005008 g     F .text	000000000000000c utee_cryp_obj_generate_key
000000000000594c g     F .text	000000000000000c mpa_constant_one
0000000000001640 g     F .text	0000000000000028 TEE_CloseTASession
00000000000047f0 g     F .text	000000000000012c TEE_AsymmetricVerifyDigest
0000000000007c6c g     F .text	000000000000001c __mpa_full_adder
0000000000007e8c g     F .text	0000000000000104 __mpa_abs_sub
0000000000017ba8 g       .bss	0000000000000000 __gprof_buf_start
0000000000009c74 g     F .text	0000000000000014 free
00000000000001c0 g     F .text	000000000000023c cmd_prepare_key
0000000000009b90 g     F .text	0000000000000098 bstats
0000000000003cb0 g     F .text	00000000000000bc TEE_MACComputeFinal



Disassembly of section .text:

0000000000000020 <TA_CreateEntryPoint>:
TA_CreateEntryPoint():
/home/lagadanu/Desktop/qemu/out-br/build/optee_test-1.0/ta/aes_perf/ta_entry.c:42
      20:	52800000 	mov	w0, #0x0                   	// #0
      24:	d65f03c0 	ret

0000000000000028 <TA_DestroyEntryPoint>:
TA_DestroyEntryPoint():
/home/lagadanu/Desktop/qemu/out-br/build/optee_test-1.0/ta/aes_perf/ta_entry.c:46
      28:	d65f03c0 	ret

000000000000002c <TA_OpenSessionEntryPoint>:
TA_OpenSessionEntryPoint():
/home/lagadanu/Desktop/qemu/out-br/build/optee_test-1.0/ta/aes_perf/ta_entry.c:58
      2c:	52800000 	mov	w0, #0x0                   	// #0
      30:	d65f03c0 	ret

0000000000000034 <TA_CloseSessionEntryPoint>:
TA_CloseSessionEntryPoint():
/home/lagadanu/Desktop/qemu/out-br/build/optee_test-1.0/ta/aes_perf/ta_entry.c:65
      34:	1400005e 	b	1ac <cmd_clean_res>

0000000000000038 <TA_InvokeCommandEntryPoint>:
TA_InvokeCommandEntryPoint():
/home/lagadanu/Desktop/qemu/out-br/build/optee_test-1.0/ta/aes_perf/ta_entry.c:72
      38:	2a0103e4 	mov	w4, w1
      3c:	2a0203e0 	mov	w0, w2
      40:	aa0303e1 	mov	x1, x3
/home/lagadanu/Desktop/qemu/out-br/build/optee_test-1.0/ta/aes_perf/ta_entry.c:75
      44:	7100049f 	cmp	w4, #0x1
      48:	540000e0 	b.eq	64 <TA_InvokeCommandEntryPoint+0x2c>
      4c:	340000a4 	cbz	w4, 60 <TA_InvokeCommandEntryPoint+0x28>
      50:	7100089f 	cmp	w4, #0x2
      54:	540000c0 	b.eq	6c <TA_InvokeCommandEntryPoint+0x34>
/home/lagadanu/Desktop/qemu/out-br/build/optee_test-1.0/ta/aes_perf/ta_entry.c:90
      58:	129fff20 	mov	w0, #0xffff0006            	// #-65530
      5c:	d65f03c0 	ret
/home/lagadanu/Desktop/qemu/out-br/build/optee_test-1.0/ta/aes_perf/ta_entry.c:77
      60:	14000058 	b	1c0 <cmd_prepare_key>
/home/lagadanu/Desktop/qemu/out-br/build/optee_test-1.0/ta/aes_perf/ta_entry.c:80
      64:	52800002 	mov	w2, #0x0                   	// #0
      68:	1400000e 	b	a0 <cmd_process>
/home/lagadanu/Desktop/qemu/out-br/build/optee_test-1.0/ta/aes_perf/ta_entry.c:72
      6c:	a9bf7bfd 	stp	x29, x30, [sp,#-16]!
/home/lagadanu/Desktop/qemu/out-br/build/optee_test-1.0/ta/aes_perf/ta_entry.c:85
      70:	52800023 	mov	w3, #0x1                   	// #1
      74:	52800022 	mov	w2, #0x1                   	// #1
      78:	52800aa1 	mov	w1, #0x55                  	// #85
/home/lagadanu/Desktop/qemu/out-br/build/optee_test-1.0/ta/aes_perf/ta_entry.c:72
      7c:	910003fd 	mov	x29, sp
/home/lagadanu/Desktop/qemu/out-br/build/optee_test-1.0/ta/aes_perf/ta_entry.c:85
      80:	f0000044 	adrp	x4, b000 <PRIME_TABLE+0x7f0>
      84:	9118c484 	add	x4, x4, #0x631
      88:	d0000040 	adrp	x0, a000 <memalign+0x2ac>
      8c:	911d0000 	add	x0, x0, #0x740
      90:	940000ea 	bl	438 <trace_printf>
/home/lagadanu/Desktop/qemu/out-br/build/optee_test-1.0/ta/aes_perf/ta_entry.c:86
      94:	129ffea0 	mov	w0, #0xffff000a            	// #-65526
/home/lagadanu/Desktop/qemu/out-br/build/optee_test-1.0/ta/aes_perf/ta_entry.c:92
      98:	a8c17bfd 	ldp	x29, x30, [sp],#16
      9c:	d65f03c0 	ret

00000000000000a0 <cmd_process>:
cmd_process():
/home/lagadanu/Desktop/qemu/out-br/build/optee_test-1.0/ta/aes_perf/ta_aes_perf.c:120
      a0:	7105dc1f 	cmp	w0, #0x177
      a4:	54000801 	b.ne	1a4 <cmd_process+0x104>
/home/lagadanu/Desktop/qemu/out-br/build/optee_test-1.0/ta/aes_perf/ta_aes_perf.c:107
      a8:	a9ba7bfd 	stp	x29, x30, [sp,#-96]!
      ac:	12001c42 	and	w2, w2, #0xff
      b0:	910003fd 	mov	x29, sp
      b4:	a90153f3 	stp	x19, x20, [sp,#16]
      b8:	aa0103f3 	mov	x19, x1
      bc:	a9025bf5 	stp	x21, x22, [sp,#32]
      c0:	a90363f7 	stp	x23, x24, [sp,#48]
      c4:	f90023f9 	str	x25, [sp,#64]
/home/lagadanu/Desktop/qemu/out-br/build/optee_test-1.0/ta/aes_perf/ta_aes_perf.c:123
      c8:	34000162 	cbz	w2, f4 <cmd_process+0x54>
is_inbuf_a_secure_memref():
/home/lagadanu/Desktop/qemu/out-br/build/optee_test-1.0/ta/aes_perf/ta_aes_perf.c:63
      cc:	f9400021 	ldr	x1, [x1]
      d0:	528000a0 	mov	w0, #0x5                   	// #5
      d4:	52800022 	mov	w2, #0x1                   	// #1
      d8:	72a40000 	movk	w0, #0x2000, lsl #16
      dc:	940005b1 	bl	17a0 <TEE_CheckMemoryAccessRights>
is_outbuf_a_secure_memref():
/home/lagadanu/Desktop/qemu/out-br/build/optee_test-1.0/ta/aes_perf/ta_aes_perf.c:80
      e0:	f9400a61 	ldr	x1, [x19,#16]
      e4:	528000c0 	mov	w0, #0x6                   	// #6
      e8:	52800022 	mov	w2, #0x1                   	// #1
      ec:	72a40000 	movk	w0, #0x2000, lsl #16
      f0:	940005ac 	bl	17a0 <TEE_CheckMemoryAccessRights>
cmd_process():
/home/lagadanu/Desktop/qemu/out-br/build/optee_test-1.0/ta/aes_perf/ta_aes_perf.c:153
      f4:	b9401a60 	ldr	w0, [x19,#24]
/home/lagadanu/Desktop/qemu/out-br/build/optee_test-1.0/ta/aes_perf/ta_aes_perf.c:156
      f8:	52810201 	mov	w1, #0x810                 	// #2064
/home/lagadanu/Desktop/qemu/out-br/build/optee_test-1.0/ta/aes_perf/ta_aes_perf.c:153
      fc:	b9005fa0 	str	w0, [x29,#92]
/home/lagadanu/Desktop/qemu/out-br/build/optee_test-1.0/ta/aes_perf/ta_aes_perf.c:156
     100:	72a80001 	movk	w1, #0x4000, lsl #16
     104:	b0000060 	adrp	x0, d000 <iv>
/home/lagadanu/Desktop/qemu/out-br/build/optee_test-1.0/ta/aes_perf/ta_aes_perf.c:151
     108:	b9400a76 	ldr	w22, [x19,#8]
/home/lagadanu/Desktop/qemu/out-br/build/optee_test-1.0/ta/aes_perf/ta_aes_perf.c:154
     10c:	b9402278 	ldr	w24, [x19,#32]
     110:	52800014 	mov	w20, #0x0                   	// #0
/home/lagadanu/Desktop/qemu/out-br/build/optee_test-1.0/ta/aes_perf/ta_aes_perf.c:156
     114:	b9415002 	ldr	w2, [x0,#336]
/home/lagadanu/Desktop/qemu/out-br/build/optee_test-1.0/ta/aes_perf/ta_aes_perf.c:158
     118:	910173b9 	add	x25, x29, #0x5c
/home/lagadanu/Desktop/qemu/out-br/build/optee_test-1.0/ta/aes_perf/ta_aes_perf.c:150
     11c:	f9400275 	ldr	x21, [x19]
/home/lagadanu/Desktop/qemu/out-br/build/optee_test-1.0/ta/aes_perf/ta_aes_perf.c:152
     120:	f9400a77 	ldr	x23, [x19,#16]
/home/lagadanu/Desktop/qemu/out-br/build/optee_test-1.0/ta/aes_perf/ta_aes_perf.c:156
     124:	6b01005f 	cmp	w2, w1
/home/lagadanu/Desktop/qemu/out-br/build/optee_test-1.0/ta/aes_perf/ta_aes_perf.c:158
     128:	91054013 	add	x19, x0, #0x150
/home/lagadanu/Desktop/qemu/out-br/build/optee_test-1.0/ta/aes_perf/ta_aes_perf.c:156
     12c:	54000340 	b.eq	194 <cmd_process+0xf4>
/home/lagadanu/Desktop/qemu/out-br/build/optee_test-1.0/ta/aes_perf/ta_aes_perf.c:162
     130:	6b14031f 	cmp	w24, w20
     134:	54000340 	b.eq	19c <cmd_process+0xfc>
/home/lagadanu/Desktop/qemu/out-br/build/optee_test-1.0/ta/aes_perf/ta_aes_perf.c:163
     138:	f9400660 	ldr	x0, [x19,#8]
     13c:	aa1903e4 	mov	x4, x25
     140:	aa1703e3 	mov	x3, x23
     144:	2a1603e2 	mov	w2, w22
     148:	aa1503e1 	mov	x1, x21
     14c:	11000694 	add	w20, w20, #0x1
     150:	94000dc6 	bl	3868 <TEE_CipherUpdate>
/home/lagadanu/Desktop/qemu/out-br/build/optee_test-1.0/ta/aes_perf/ta_aes_perf.c:165
     154:	34fffee0 	cbz	w0, 130 <cmd_process+0x90>
     158:	14000009 	b	17c <cmd_process+0xdc>
/home/lagadanu/Desktop/qemu/out-br/build/optee_test-1.0/ta/aes_perf/ta_aes_perf.c:158
     15c:	f9400660 	ldr	x0, [x19,#8]
     160:	aa1903e4 	mov	x4, x25
     164:	aa1703e3 	mov	x3, x23
     168:	2a1603e2 	mov	w2, w22
     16c:	aa1503e1 	mov	x1, x21
     170:	11000694 	add	w20, w20, #0x1
     174:	94000f84 	bl	3f84 <TEE_AEUpdate>
/home/lagadanu/Desktop/qemu/out-br/build/optee_test-1.0/ta/aes_perf/ta_aes_perf.c:159
     178:	340000e0 	cbz	w0, 194 <cmd_process+0xf4>
/home/lagadanu/Desktop/qemu/out-br/build/optee_test-1.0/ta/aes_perf/ta_aes_perf.c:176
     17c:	a94153f3 	ldp	x19, x20, [sp,#16]
     180:	a9425bf5 	ldp	x21, x22, [sp,#32]
     184:	a94363f7 	ldp	x23, x24, [sp,#48]
     188:	f94023f9 	ldr	x25, [sp,#64]
     18c:	a8c67bfd 	ldp	x29, x30, [sp],#96
     190:	d65f03c0 	ret
/home/lagadanu/Desktop/qemu/out-br/build/optee_test-1.0/ta/aes_perf/ta_aes_perf.c:157
     194:	6b14031f 	cmp	w24, w20
     198:	54fffe21 	b.ne	15c <cmd_process+0xbc>
/home/lagadanu/Desktop/qemu/out-br/build/optee_test-1.0/ta/aes_perf/ta_aes_perf.c:175
     19c:	52800000 	mov	w0, #0x0                   	// #0
     1a0:	17fffff7 	b	17c <cmd_process+0xdc>
/home/lagadanu/Desktop/qemu/out-br/build/optee_test-1.0/ta/aes_perf/ta_aes_perf.c:121
     1a4:	129fff20 	mov	w0, #0xffff0006            	// #-65530
     1a8:	d65f03c0 	ret

00000000000001ac <cmd_clean_res>:
cmd_clean_res():
/home/lagadanu/Desktop/qemu/out-br/build/optee_test-1.0/ta/aes_perf/ta_aes_perf.c:297
     1ac:	b0000060 	adrp	x0, d000 <iv>
     1b0:	f940ac00 	ldr	x0, [x0,#344]
     1b4:	b4000040 	cbz	x0, 1bc <cmd_clean_res+0x10>
/home/lagadanu/Desktop/qemu/out-br/build/optee_test-1.0/ta/aes_perf/ta_aes_perf.c:298
     1b8:	140009b2 	b	2880 <TEE_FreeOperation>
     1bc:	d65f03c0 	ret

00000000000001c0 <cmd_prepare_key>:
cmd_prepare_key():
/home/lagadanu/Desktop/qemu/out-br/build/optee_test-1.0/ta/aes_perf/ta_aes_perf.c:179
     1c0:	a9b87bfd 	stp	x29, x30, [sp,#-128]!
/home/lagadanu/Desktop/qemu/out-br/build/optee_test-1.0/ta/aes_perf/ta_aes_perf.c:210
     1c4:	7100441f 	cmp	w0, #0x11
/home/lagadanu/Desktop/qemu/out-br/build/optee_test-1.0/ta/aes_perf/ta_aes_perf.c:179
     1c8:	910003fd 	mov	x29, sp
     1cc:	a90153f3 	stp	x19, x20, [sp,#16]
/home/lagadanu/Desktop/qemu/out-br/build/optee_test-1.0/ta/aes_perf/ta_aes_perf.c:211
     1d0:	129fff34 	mov	w20, #0xffff0006            	// #-65530
/home/lagadanu/Desktop/qemu/out-br/build/optee_test-1.0/ta/aes_perf/ta_aes_perf.c:179
     1d4:	a9025bf5 	stp	x21, x22, [sp,#32]
     1d8:	a90363f7 	stp	x23, x24, [sp,#48]
     1dc:	f90023f9 	str	x25, [sp,#64]
/home/lagadanu/Desktop/qemu/out-br/build/optee_test-1.0/ta/aes_perf/ta_aes_perf.c:210
     1e0:	54001001 	b.ne	3e0 <cmd_prepare_key+0x220>
/home/lagadanu/Desktop/qemu/out-br/build/optee_test-1.0/ta/aes_perf/ta_aes_perf.c:214
     1e4:	29405420 	ldp	w0, w21, [x1]
/home/lagadanu/Desktop/qemu/out-br/build/optee_test-1.0/ta/aes_perf/ta_aes_perf.c:240
     1e8:	129fff34 	mov	w20, #0xffff0006            	// #-65530
/home/lagadanu/Desktop/qemu/out-br/build/optee_test-1.0/ta/aes_perf/ta_aes_perf.c:217
     1ec:	b9401021 	ldr	w1, [x1,#16]
/home/lagadanu/Desktop/qemu/out-br/build/optee_test-1.0/ta/aes_perf/ta_aes_perf.c:213
     1f0:	7100001f 	cmp	w0, #0x0
     1f4:	1a9f07f6 	cset	w22, ne
/home/lagadanu/Desktop/qemu/out-br/build/optee_test-1.0/ta/aes_perf/ta_aes_perf.c:217
     1f8:	7100103f 	cmp	w1, #0x4
     1fc:	54000f28 	b.hi	3e0 <cmd_prepare_key+0x220>
     200:	f0000040 	adrp	x0, b000 <PRIME_TABLE+0x7f0>
     204:	b0000073 	adrp	x19, d000 <iv>
     208:	9118b000 	add	x0, x0, #0x62c
     20c:	38614800 	ldrb	w0, [x0,w1,uxtw]
     210:	10000061 	adr	x1, 21c <cmd_prepare_key+0x5c>
     214:	8b208820 	add	x0, x1, w0, sxtb #2
     218:	d61f0000 	br	x0
/home/lagadanu/Desktop/qemu/out-br/build/optee_test-1.0/ta/aes_perf/ta_aes_perf.c:219
     21c:	91054260 	add	x0, x19, #0x150
     220:	52800201 	mov	w1, #0x10                  	// #16
     224:	72a20001 	movk	w1, #0x1000, lsl #16
     228:	b9015261 	str	w1, [x19,#336]
/home/lagadanu/Desktop/qemu/out-br/build/optee_test-1.0/ta/aes_perf/ta_aes_perf.c:220
     22c:	b900101f 	str	wzr, [x0,#16]
/home/lagadanu/Desktop/qemu/out-br/build/optee_test-1.0/ta/aes_perf/ta_aes_perf.c:215
     230:	2a1503f4 	mov	w20, w21
/home/lagadanu/Desktop/qemu/out-br/build/optee_test-1.0/ta/aes_perf/ta_aes_perf.c:238
     234:	14000012 	b	27c <cmd_prepare_key+0xbc>
/home/lagadanu/Desktop/qemu/out-br/build/optee_test-1.0/ta/aes_perf/ta_aes_perf.c:223
     238:	91054260 	add	x0, x19, #0x150
     23c:	52802201 	mov	w1, #0x110                 	// #272
/home/lagadanu/Desktop/qemu/out-br/build/optee_test-1.0/ta/aes_perf/ta_aes_perf.c:227
     240:	72a20001 	movk	w1, #0x1000, lsl #16
/home/lagadanu/Desktop/qemu/out-br/build/optee_test-1.0/ta/aes_perf/ta_aes_perf.c:236
     244:	b9015261 	str	w1, [x19,#336]
/home/lagadanu/Desktop/qemu/out-br/build/optee_test-1.0/ta/aes_perf/ta_aes_perf.c:237
     248:	52800021 	mov	w1, #0x1                   	// #1
     24c:	b9001001 	str	w1, [x0,#16]
     250:	17fffff8 	b	230 <cmd_prepare_key+0x70>
/home/lagadanu/Desktop/qemu/out-br/build/optee_test-1.0/ta/aes_perf/ta_aes_perf.c:227
     254:	91054260 	add	x0, x19, #0x150
     258:	52804201 	mov	w1, #0x210                 	// #528
     25c:	17fffff9 	b	240 <cmd_prepare_key+0x80>
/home/lagadanu/Desktop/qemu/out-br/build/optee_test-1.0/ta/aes_perf/ta_aes_perf.c:231
     260:	91054260 	add	x0, x19, #0x150
     264:	52808201 	mov	w1, #0x410                 	// #1040
     268:	72a20001 	movk	w1, #0x1000, lsl #16
/home/lagadanu/Desktop/qemu/out-br/build/optee_test-1.0/ta/aes_perf/ta_aes_perf.c:233
     26c:	531f7ab4 	lsl	w20, w21, #1
/home/lagadanu/Desktop/qemu/out-br/build/optee_test-1.0/ta/aes_perf/ta_aes_perf.c:231
     270:	b9015261 	str	w1, [x19,#336]
/home/lagadanu/Desktop/qemu/out-br/build/optee_test-1.0/ta/aes_perf/ta_aes_perf.c:232
     274:	52800021 	mov	w1, #0x1                   	// #1
     278:	b9001001 	str	w1, [x0,#16]
/home/lagadanu/Desktop/qemu/out-br/build/optee_test-1.0/ta/aes_perf/ta_aes_perf.c:243
     27c:	97ffffcc 	bl	1ac <cmd_clean_res>
/home/lagadanu/Desktop/qemu/out-br/build/optee_test-1.0/ta/aes_perf/ta_aes_perf.c:245
     280:	91054278 	add	x24, x19, #0x150
     284:	b9415261 	ldr	w1, [x19,#336]
     288:	2a1403e3 	mov	w3, w20
     28c:	2a1603e2 	mov	w2, w22
     290:	91002300 	add	x0, x24, #0x8
     294:	9400098c 	bl	28c4 <TEE_AllocateOperation>
     298:	2a0003f4 	mov	w20, w0
/home/lagadanu/Desktop/qemu/out-br/build/optee_test-1.0/ta/aes_perf/ta_aes_perf.c:246
     29c:	35000a20 	cbnz	w0, 3e0 <cmd_prepare_key+0x220>
/home/lagadanu/Desktop/qemu/out-br/build/optee_test-1.0/ta/aes_perf/ta_aes_perf.c:248
     2a0:	52800200 	mov	w0, #0x10                  	// #16
     2a4:	910163a2 	add	x2, x29, #0x58
     2a8:	2a1503e1 	mov	w1, w21
     2ac:	72b40000 	movk	w0, #0xa000, lsl #16
     2b0:	94000683 	bl	1cbc <TEE_AllocateTransientObject>
     2b4:	2a0003f4 	mov	w20, w0
/home/lagadanu/Desktop/qemu/out-br/build/optee_test-1.0/ta/aes_perf/ta_aes_perf.c:249
     2b8:	35000940 	cbnz	w0, 3e0 <cmd_prepare_key+0x220>
/home/lagadanu/Desktop/qemu/out-br/build/optee_test-1.0/ta/aes_perf/ta_aes_perf.c:251
     2bc:	52b80000 	mov	w0, #0xc0000000            	// #-1073741824
/home/lagadanu/Desktop/qemu/out-br/build/optee_test-1.0/ta/aes_perf/ta_aes_perf.c:252
     2c0:	b0000076 	adrp	x22, d000 <iv>
     2c4:	910002d7 	add	x23, x22, #0x0
/home/lagadanu/Desktop/qemu/out-br/build/optee_test-1.0/ta/aes_perf/ta_aes_perf.c:251
     2c8:	b9006ba0 	str	w0, [x29,#104]
/home/lagadanu/Desktop/qemu/out-br/build/optee_test-1.0/ta/aes_perf/ta_aes_perf.c:252
     2cc:	910042e0 	add	x0, x23, #0x10
     2d0:	f9003ba0 	str	x0, [x29,#112]
/home/lagadanu/Desktop/qemu/out-br/build/optee_test-1.0/ta/aes_perf/ta_aes_perf.c:253
     2d4:	53037ea0 	lsr	w0, w21, #3
     2d8:	b9007ba0 	str	w0, [x29,#120]
/home/lagadanu/Desktop/qemu/out-br/build/optee_test-1.0/ta/aes_perf/ta_aes_perf.c:255
     2dc:	f9402fa0 	ldr	x0, [x29,#88]
     2e0:	9101a3b9 	add	x25, x29, #0x68
     2e4:	52800022 	mov	w2, #0x1                   	// #1
     2e8:	aa1903e1 	mov	x1, x25
     2ec:	940006b7 	bl	1dc8 <TEE_PopulateTransientObject>
     2f0:	2a0003f4 	mov	w20, w0
/home/lagadanu/Desktop/qemu/out-br/build/optee_test-1.0/ta/aes_perf/ta_aes_perf.c:256
     2f4:	35000760 	cbnz	w0, 3e0 <cmd_prepare_key+0x220>
/home/lagadanu/Desktop/qemu/out-br/build/optee_test-1.0/ta/aes_perf/ta_aes_perf.c:258
     2f8:	b9415261 	ldr	w1, [x19,#336]
     2fc:	52808200 	mov	w0, #0x410                 	// #1040
     300:	72a20000 	movk	w0, #0x1000, lsl #16
     304:	6b00003f 	cmp	w1, w0
     308:	54000561 	b.ne	3b4 <cmd_prepare_key+0x1f4>
/home/lagadanu/Desktop/qemu/out-br/build/optee_test-1.0/ta/aes_perf/ta_aes_perf.c:259
     30c:	52800200 	mov	w0, #0x10                  	// #16
     310:	910183a2 	add	x2, x29, #0x60
     314:	2a1503e1 	mov	w1, w21
     318:	72b40000 	movk	w0, #0xa000, lsl #16
     31c:	94000668 	bl	1cbc <TEE_AllocateTransientObject>
/home/lagadanu/Desktop/qemu/out-br/build/optee_test-1.0/ta/aes_perf/ta_aes_perf.c:261
     320:	35000520 	cbnz	w0, 3c4 <cmd_prepare_key+0x204>
/home/lagadanu/Desktop/qemu/out-br/build/optee_test-1.0/ta/aes_perf/ta_aes_perf.c:265
     324:	f94033a0 	ldr	x0, [x29,#96]
/home/lagadanu/Desktop/qemu/out-br/build/optee_test-1.0/ta/aes_perf/ta_aes_perf.c:263
     328:	9100c2f7 	add	x23, x23, #0x30
/home/lagadanu/Desktop/qemu/out-br/build/optee_test-1.0/ta/aes_perf/ta_aes_perf.c:265
     32c:	52800022 	mov	w2, #0x1                   	// #1
     330:	aa1903e1 	mov	x1, x25
/home/lagadanu/Desktop/qemu/out-br/build/optee_test-1.0/ta/aes_perf/ta_aes_perf.c:263
     334:	f9003bb7 	str	x23, [x29,#112]
/home/lagadanu/Desktop/qemu/out-br/build/optee_test-1.0/ta/aes_perf/ta_aes_perf.c:265
     338:	940006a4 	bl	1dc8 <TEE_PopulateTransientObject>
/home/lagadanu/Desktop/qemu/out-br/build/optee_test-1.0/ta/aes_perf/ta_aes_perf.c:266
     33c:	35000440 	cbnz	w0, 3c4 <cmd_prepare_key+0x204>
/home/lagadanu/Desktop/qemu/out-br/build/optee_test-1.0/ta/aes_perf/ta_aes_perf.c:268
     340:	f9400700 	ldr	x0, [x24,#8]
     344:	a9458ba1 	ldp	x1, x2, [x29,#88]
     348:	94000c26 	bl	33e0 <TEE_SetOperationKey2>
/home/lagadanu/Desktop/qemu/out-br/build/optee_test-1.0/ta/aes_perf/ta_aes_perf.c:269
     34c:	350003c0 	cbnz	w0, 3c4 <cmd_prepare_key+0x204>
/home/lagadanu/Desktop/qemu/out-br/build/optee_test-1.0/ta/aes_perf/ta_aes_perf.c:271
     350:	f94033a0 	ldr	x0, [x29,#96]
     354:	94000673 	bl	1d20 <TEE_FreeTransientObject>
/home/lagadanu/Desktop/qemu/out-br/build/optee_test-1.0/ta/aes_perf/ta_aes_perf.c:277
     358:	f9402fa0 	ldr	x0, [x29,#88]
     35c:	94000671 	bl	1d20 <TEE_FreeTransientObject>
/home/lagadanu/Desktop/qemu/out-br/build/optee_test-1.0/ta/aes_perf/ta_aes_perf.c:279
     360:	91054260 	add	x0, x19, #0x150
     364:	b9401000 	ldr	w0, [x0,#16]
     368:	35000320 	cbnz	w0, 3cc <cmd_prepare_key+0x20c>
/home/lagadanu/Desktop/qemu/out-br/build/optee_test-1.0/ta/aes_perf/ta_aes_perf.c:284
     36c:	d2800002 	mov	x2, #0x0                   	// #0
/home/lagadanu/Desktop/qemu/out-br/build/optee_test-1.0/ta/aes_perf/ta_aes_perf.c:283
     370:	d2800001 	mov	x1, #0x0                   	// #0
/home/lagadanu/Desktop/qemu/out-br/build/optee_test-1.0/ta/aes_perf/ta_aes_perf.c:287
     374:	b9415264 	ldr	w4, [x19,#336]
     378:	52810203 	mov	w3, #0x810                 	// #2064
     37c:	72a80003 	movk	w3, #0x4000, lsl #16
     380:	91054260 	add	x0, x19, #0x150
     384:	6b03009f 	cmp	w4, w3
     388:	54000281 	b.ne	3d8 <cmd_prepare_key+0x218>
/home/lagadanu/Desktop/qemu/out-br/build/optee_test-1.0/ta/aes_perf/ta_aes_perf.c:288
     38c:	f9400400 	ldr	x0, [x0,#8]
     390:	52800005 	mov	w5, #0x0                   	// #0
     394:	52800004 	mov	w4, #0x0                   	// #0
     398:	52801003 	mov	w3, #0x80                  	// #128
     39c:	94000ea4 	bl	3e2c <TEE_AEInit>
     3a0:	14000009 	b	3c4 <cmd_prepare_key+0x204>
/home/lagadanu/Desktop/qemu/out-br/build/optee_test-1.0/ta/aes_perf/ta_aes_perf.c:236
     3a4:	52810201 	mov	w1, #0x810                 	// #2064
     3a8:	91054260 	add	x0, x19, #0x150
     3ac:	72a80001 	movk	w1, #0x4000, lsl #16
     3b0:	17ffffa5 	b	244 <cmd_prepare_key+0x84>
/home/lagadanu/Desktop/qemu/out-br/build/optee_test-1.0/ta/aes_perf/ta_aes_perf.c:273
     3b4:	f9400700 	ldr	x0, [x24,#8]
     3b8:	f9402fa1 	ldr	x1, [x29,#88]
     3bc:	94000bcd 	bl	32f0 <TEE_SetOperationKey>
/home/lagadanu/Desktop/qemu/out-br/build/optee_test-1.0/ta/aes_perf/ta_aes_perf.c:274
     3c0:	34fffcc0 	cbz	w0, 358 <cmd_prepare_key+0x198>
     3c4:	2a0003f4 	mov	w20, w0
     3c8:	14000006 	b	3e0 <cmd_prepare_key+0x220>
/home/lagadanu/Desktop/qemu/out-br/build/optee_test-1.0/ta/aes_perf/ta_aes_perf.c:281
     3cc:	d2800202 	mov	x2, #0x10                  	// #16
/home/lagadanu/Desktop/qemu/out-br/build/optee_test-1.0/ta/aes_perf/ta_aes_perf.c:280
     3d0:	910002c1 	add	x1, x22, #0x0
     3d4:	17ffffe8 	b	374 <cmd_prepare_key+0x1b4>
/home/lagadanu/Desktop/qemu/out-br/build/optee_test-1.0/ta/aes_perf/ta_aes_perf.c:290
     3d8:	f9400400 	ldr	x0, [x0,#8]
     3dc:	94000cfa 	bl	37c4 <TEE_CipherInit>
/home/lagadanu/Desktop/qemu/out-br/build/optee_test-1.0/ta/aes_perf/ta_aes_perf.c:293
     3e0:	2a1403e0 	mov	w0, w20
     3e4:	f94023f9 	ldr	x25, [sp,#64]
     3e8:	a94153f3 	ldp	x19, x20, [sp,#16]
     3ec:	a9425bf5 	ldp	x21, x22, [sp,#32]
     3f0:	a94363f7 	ldp	x23, x24, [sp,#48]
     3f4:	a8c87bfd 	ldp	x29, x30, [sp],#128
     3f8:	d65f03c0 	ret

00000000000003fc <tahead_get_trace_level>:
tahead_get_trace_level():
/home/lagadanu/Desktop/qemu/optee_os/out/arm/export-ta_arm64/src/user_ta_header.c:107
     3fc:	52800040 	mov	w0, #0x2                   	// #2
     400:	d65f03c0 	ret

0000000000000404 <trace_set_level>:
trace_set_level():
/home/lagadanu/Desktop/qemu/optee_os/lib/libutils/ext/trace.c:26
     404:	51000401 	sub	w1, w0, #0x1
     408:	71000c3f 	cmp	w1, #0x3
     40c:	f0000041 	adrp	x1, b000 <PRIME_TABLE+0x7f0>
     410:	54000088 	b.hi	420 <trace_set_level+0x1c>
/home/lagadanu/Desktop/qemu/optee_os/lib/libutils/ext/trace.c:29
     414:	f9474421 	ldr	x1, [x1,#3720]
     418:	b9000020 	str	w0, [x1]
     41c:	d65f03c0 	ret
     420:	52800080 	mov	w0, #0x4                   	// #4
     424:	17fffffc 	b	414 <trace_set_level+0x10>

0000000000000428 <trace_get_level>:
trace_get_level():
/home/lagadanu/Desktop/qemu/optee_os/lib/libutils/ext/trace.c:35
     428:	f0000040 	adrp	x0, b000 <PRIME_TABLE+0x7f0>
     42c:	f9474400 	ldr	x0, [x0,#3720]
     430:	b9400000 	ldr	w0, [x0]
     434:	d65f03c0 	ret

0000000000000438 <trace_printf>:
trace_printf():
/home/lagadanu/Desktop/qemu/optee_os/lib/libutils/ext/trace.c:97
     438:	d108c3ff 	sub	sp, sp, #0x230
     43c:	a9007bfd 	stp	x29, x30, [sp]
     440:	910003fd 	mov	x29, sp
     444:	f9010fa5 	str	x5, [x29,#536]
     448:	910403a5 	add	x5, x29, #0x100
     44c:	a9046bf9 	stp	x25, x26, [sp,#64]
/home/lagadanu/Desktop/qemu/optee_os/lib/libutils/ext/trace.c:103
     450:	72001c79 	ands	w25, w3, #0xff
/home/lagadanu/Desktop/qemu/optee_os/lib/libutils/ext/trace.c:97
     454:	a90153f3 	stp	x19, x20, [sp,#16]
     458:	a9025bf5 	stp	x21, x22, [sp,#32]
     45c:	a90363f7 	stp	x23, x24, [sp,#48]
     460:	f90113a6 	str	x6, [x29,#544]
     464:	f90117a7 	str	x7, [x29,#552]
     468:	3d8024a0 	str	q0, [x5,#144]
     46c:	3d8028a1 	str	q1, [x5,#160]
     470:	3d802ca2 	str	q2, [x5,#176]
     474:	3d8030a3 	str	q3, [x5,#192]
     478:	3d8034a4 	str	q4, [x5,#208]
     47c:	3d8038a5 	str	q5, [x5,#224]
     480:	3d803ca6 	str	q6, [x5,#240]
     484:	910803a5 	add	x5, x29, #0x200
     488:	3d8000a7 	str	q7, [x5]
/home/lagadanu/Desktop/qemu/optee_os/lib/libutils/ext/trace.c:103
     48c:	540008a0 	b.eq	5a0 <trace_printf+0x168>
/home/lagadanu/Desktop/qemu/optee_os/lib/libutils/ext/trace.c:103 (discriminator 1)
     490:	f0000043 	adrp	x3, b000 <PRIME_TABLE+0x7f0>
     494:	f9474463 	ldr	x3, [x3,#3720]
     498:	b9400063 	ldr	w3, [x3]
     49c:	6b02007f 	cmp	w3, w2
     4a0:	5400072b 	b.lt	584 <trace_printf+0x14c>
trace_level_to_string():
/home/lagadanu/Desktop/qemu/optee_os/lib/libutils/ext/trace.c:52
     4a4:	51000443 	sub	w3, w2, #0x1
     4a8:	71000c7f 	cmp	w3, #0x3
/home/lagadanu/Desktop/qemu/optee_os/lib/libutils/ext/trace.c:55
     4ac:	d0000043 	adrp	x3, a000 <memalign+0x2ac>
/home/lagadanu/Desktop/qemu/optee_os/lib/libutils/ext/trace.c:52
     4b0:	1a9f9045 	csel	w5, w2, wzr, ls
/home/lagadanu/Desktop/qemu/optee_os/lib/libutils/ext/trace.c:55
     4b4:	911e2063 	add	x3, x3, #0x788
     4b8:	3865c863 	ldrb	w3, [x3,w5,sxtw]
trace_printf():
/home/lagadanu/Desktop/qemu/optee_os/lib/libutils/ext/trace.c:107
     4bc:	910243b4 	add	x20, x29, #0x90
     4c0:	2a0203f3 	mov	w19, w2
     4c4:	2a0103f8 	mov	w24, w1
     4c8:	aa0003f6 	mov	x22, x0
     4cc:	f0000042 	adrp	x2, b000 <PRIME_TABLE+0x7f0>
     4d0:	aa0403f7 	mov	x23, x4
     4d4:	911c5842 	add	x2, x2, #0x716
     4d8:	d2802001 	mov	x1, #0x100                 	// #256
     4dc:	aa1403e0 	mov	x0, x20
     4e0:	94000366 	bl	1278 <snprintk>
/home/lagadanu/Desktop/qemu/optee_os/lib/libutils/ext/trace.c:109
     4e4:	37f80500 	tbnz	w0, #31, 584 <trace_printf+0x14c>
/home/lagadanu/Desktop/qemu/optee_os/lib/libutils/ext/trace.c:114
     4e8:	f0000043 	adrp	x3, b000 <PRIME_TABLE+0x7f0>
/home/lagadanu/Desktop/qemu/optee_os/lib/libutils/ext/trace.c:111
     4ec:	93407c15 	sxtw	x21, w0
/home/lagadanu/Desktop/qemu/optee_os/lib/libutils/ext/trace.c:114
     4f0:	d280201a 	mov	x26, #0x100                 	// #256
     4f4:	f0000042 	adrp	x2, b000 <PRIME_TABLE+0x7f0>
     4f8:	f9474c63 	ldr	x3, [x3,#3736]
     4fc:	911c6842 	add	x2, x2, #0x71a
     500:	cb150341 	sub	x1, x26, x21
     504:	8b150280 	add	x0, x20, x21
     508:	9400035c 	bl	1278 <snprintk>
/home/lagadanu/Desktop/qemu/optee_os/lib/libutils/ext/trace.c:116
     50c:	37f803c0 	tbnz	w0, #31, 584 <trace_printf+0x14c>
/home/lagadanu/Desktop/qemu/optee_os/lib/libutils/ext/trace.c:118
     510:	8b20c2b5 	add	x21, x21, w0, sxtw
/home/lagadanu/Desktop/qemu/optee_os/lib/libutils/ext/trace.c:120
     514:	340005d9 	cbz	w25, 5cc <trace_printf+0x194>
/home/lagadanu/Desktop/qemu/optee_os/lib/libutils/ext/trace.c:120 (discriminator 1)
     518:	52800342 	mov	w2, #0x1a                  	// #26
     51c:	1ad32440 	lsr	w0, w2, w19
     520:	36000560 	tbz	w0, #0, 5cc <trace_printf+0x194>
/home/lagadanu/Desktop/qemu/optee_os/lib/libutils/ext/trace.c:122
     524:	8b150299 	add	x25, x20, x21
     528:	cb15035a 	sub	x26, x26, x21
print_thread_id():
/home/lagadanu/Desktop/qemu/optee_os/lib/libutils/ext/trace.c:65
     52c:	94000394 	bl	137c <trace_ext_get_thread_id>
/home/lagadanu/Desktop/qemu/optee_os/lib/libutils/ext/trace.c:67
     530:	37f803c0 	tbnz	w0, #31, 5a8 <trace_printf+0x170>
/home/lagadanu/Desktop/qemu/optee_os/lib/libutils/ext/trace.c:68
     534:	2a0003e4 	mov	w4, w0
     538:	f0000042 	adrp	x2, b000 <PRIME_TABLE+0x7f0>
     53c:	52800023 	mov	w3, #0x1                   	// #1
     540:	911c7842 	add	x2, x2, #0x71e
     544:	aa1a03e1 	mov	x1, x26
     548:	aa1903e0 	mov	x0, x25
     54c:	9400034b 	bl	1278 <snprintk>
trace_printf():
/home/lagadanu/Desktop/qemu/optee_os/lib/libutils/ext/trace.c:129
     550:	37f801a0 	tbnz	w0, #31, 584 <trace_printf+0x14c>
/home/lagadanu/Desktop/qemu/optee_os/lib/libutils/ext/trace.c:131
     554:	8b20c2b3 	add	x19, x21, w0, sxtw
/home/lagadanu/Desktop/qemu/optee_os/lib/libutils/ext/trace.c:133
     558:	b4000476 	cbz	x22, 5e4 <trace_printf+0x1ac>
/home/lagadanu/Desktop/qemu/optee_os/lib/libutils/ext/trace.c:134
     55c:	8b130280 	add	x0, x20, x19
     560:	2a1803e4 	mov	w4, w24
     564:	aa1603e3 	mov	x3, x22
     568:	f0000042 	adrp	x2, b000 <PRIME_TABLE+0x7f0>
     56c:	d2802001 	mov	x1, #0x100                 	// #256
     570:	911ca442 	add	x2, x2, #0x729
     574:	cb130021 	sub	x1, x1, x19
     578:	94000340 	bl	1278 <snprintk>
/home/lagadanu/Desktop/qemu/optee_os/lib/libutils/ext/trace.c:138
     57c:	8b20c273 	add	x19, x19, w0, sxtw
/home/lagadanu/Desktop/qemu/optee_os/lib/libutils/ext/trace.c:136
     580:	36f80320 	tbz	w0, #31, 5e4 <trace_printf+0x1ac>
/home/lagadanu/Desktop/qemu/optee_os/lib/libutils/ext/trace.c:164
     584:	a94153f3 	ldp	x19, x20, [sp,#16]
     588:	a9425bf5 	ldp	x21, x22, [sp,#32]
     58c:	a94363f7 	ldp	x23, x24, [sp,#48]
     590:	a9446bf9 	ldp	x25, x26, [sp,#64]
     594:	a9407bfd 	ldp	x29, x30, [sp]
     598:	9108c3ff 	add	sp, sp, #0x230
     59c:	d65f03c0 	ret
trace_level_to_string():
/home/lagadanu/Desktop/qemu/optee_os/lib/libutils/ext/trace.c:50
     5a0:	528009a3 	mov	w3, #0x4d                  	// #77
     5a4:	17ffffc6 	b	4bc <trace_printf+0x84>
print_thread_id():
/home/lagadanu/Desktop/qemu/optee_os/lib/libutils/ext/trace.c:70
     5a8:	f0000044 	adrp	x4, b000 <PRIME_TABLE+0x7f0>
     5ac:	52800023 	mov	w3, #0x1                   	// #1
     5b0:	911e0c84 	add	x4, x4, #0x783
     5b4:	f0000042 	adrp	x2, b000 <PRIME_TABLE+0x7f0>
     5b8:	aa1a03e1 	mov	x1, x26
     5bc:	911c9042 	add	x2, x2, #0x724
     5c0:	aa1903e0 	mov	x0, x25
     5c4:	9400032d 	bl	1278 <snprintk>
     5c8:	17ffffe2 	b	550 <trace_printf+0x118>
trace_printf():
/home/lagadanu/Desktop/qemu/optee_os/lib/libutils/ext/trace.c:142
     5cc:	f103fabf 	cmp	x21, #0xfe
     5d0:	54fffda8 	b.hi	584 <trace_printf+0x14c>
/home/lagadanu/Desktop/qemu/optee_os/lib/libutils/ext/trace.c:144
     5d4:	910006b3 	add	x19, x21, #0x1
     5d8:	52800400 	mov	w0, #0x20                  	// #32
     5dc:	38356a80 	strb	w0, [x20,x21]
/home/lagadanu/Desktop/qemu/optee_os/lib/libutils/ext/trace.c:145
     5e0:	38336a9f 	strb	wzr, [x20,x19]
/home/lagadanu/Desktop/qemu/optee_os/lib/libutils/ext/trace.c:148
     5e4:	9108c3a0 	add	x0, x29, #0x230
     5e8:	a90703a0 	stp	x0, x0, [x29,#112]
     5ec:	910843a0 	add	x0, x29, #0x210
     5f0:	f90043a0 	str	x0, [x29,#128]
     5f4:	128002e0 	mov	w0, #0xffffffe8            	// #-24
     5f8:	b9008ba0 	str	w0, [x29,#136]
     5fc:	12800fe0 	mov	w0, #0xffffff80            	// #-128
     600:	b9008fa0 	str	w0, [x29,#140]
/home/lagadanu/Desktop/qemu/optee_os/lib/libutils/ext/trace.c:149
     604:	a94707a0 	ldp	x0, x1, [x29,#112]
     608:	a90507a0 	stp	x0, x1, [x29,#80]
     60c:	a94807a0 	ldp	x0, x1, [x29,#128]
     610:	a90607a0 	stp	x0, x1, [x29,#96]
     614:	d2802001 	mov	x1, #0x100                 	// #256
     618:	cb130021 	sub	x1, x1, x19
     61c:	8b130280 	add	x0, x20, x19
     620:	910143a3 	add	x3, x29, #0x50
     624:	aa1703e2 	mov	x2, x23
     628:	940002ff 	bl	1224 <vsnprintk>
/home/lagadanu/Desktop/qemu/optee_os/lib/libutils/ext/trace.c:152
     62c:	7100001f 	cmp	w0, #0x0
     630:	8b20c261 	add	x1, x19, w0, sxtw
     634:	9a93c033 	csel	x19, x1, x19, gt
     638:	d2801fc0 	mov	x0, #0xfe                  	// #254
     63c:	f103fa7f 	cmp	x19, #0xfe
     640:	9a809273 	csel	x19, x19, x0, ls
/home/lagadanu/Desktop/qemu/optee_os/lib/libutils/ext/trace.c:157
     644:	52800140 	mov	w0, #0xa                   	// #10
     648:	38336a80 	strb	w0, [x20,x19]
/home/lagadanu/Desktop/qemu/optee_os/lib/libutils/ext/trace.c:158
     64c:	b4000093 	cbz	x19, 65c <trace_printf+0x224>
/home/lagadanu/Desktop/qemu/optee_os/lib/libutils/ext/trace.c:158 (discriminator 1)
     650:	38736a80 	ldrb	w0, [x20,x19]
     654:	7100281f 	cmp	w0, #0xa
     658:	540000c0 	b.eq	670 <trace_printf+0x238>
/home/lagadanu/Desktop/qemu/optee_os/lib/libutils/ext/trace.c:161
     65c:	91024ba0 	add	x0, x29, #0x92
     660:	3833681f 	strb	wzr, [x0,x19]
/home/lagadanu/Desktop/qemu/optee_os/lib/libutils/ext/trace.c:163
     664:	aa1403e0 	mov	x0, x20
     668:	9400033b 	bl	1354 <trace_ext_puts>
     66c:	17ffffc6 	b	584 <trace_printf+0x14c>
/home/lagadanu/Desktop/qemu/optee_os/lib/libutils/ext/trace.c:159
     670:	d1000673 	sub	x19, x19, #0x1
     674:	17fffff6 	b	64c <trace_printf+0x214>

0000000000000678 <dhex_dump>:
dhex_dump():
/home/lagadanu/Desktop/qemu/optee_os/lib/libutils/ext/trace.c:275
     678:	d65f03c0 	ret

000000000000067c <__vsnprintf>:
__vsnprintf():
/home/lagadanu/Desktop/qemu/optee_os/lib/libutils/ext/snprintk.c:137
     67c:	d103c3ff 	sub	sp, sp, #0xf0
     680:	a9037bfd 	stp	x29, x30, [sp,#48]
     684:	9100c3fd 	add	x29, sp, #0x30
     688:	a90803a1 	stp	x1, x0, [x29,#128]
     68c:	12001c80 	and	w0, w4, #0xff
     690:	b9007fa0 	str	w0, [x29,#124]
/home/lagadanu/Desktop/qemu/optee_os/lib/libutils/ext/snprintk.c:141
     694:	f94047a0 	ldr	x0, [x29,#136]
/home/lagadanu/Desktop/qemu/optee_os/lib/libutils/ext/snprintk.c:137
     698:	a90453f3 	stp	x19, x20, [sp,#64]
     69c:	a90873fb 	stp	x27, x28, [sp,#128]
kprintf():
/home/lagadanu/Desktop/qemu/optee_os/lib/libutils/ext/snprintk.c:267
     6a0:	5280001b 	mov	w27, #0x0                   	// #0
     6a4:	b9401874 	ldr	w20, [x3,#24]
     6a8:	a9407073 	ldp	x19, x28, [x3]
__vsnprintf():
/home/lagadanu/Desktop/qemu/optee_os/lib/libutils/ext/snprintk.c:137
     6ac:	a90663f7 	stp	x23, x24, [sp,#96]
     6b0:	a9076bf9 	stp	x25, x26, [sp,#112]
     6b4:	910263b8 	add	x24, x29, #0x98
     6b8:	a9055bf5 	stp	x21, x22, [sp,#80]
     6bc:	aa0203f9 	mov	x25, x2
/home/lagadanu/Desktop/qemu/optee_os/lib/libutils/ext/snprintk.c:141
     6c0:	8b01001a 	add	x26, x0, x1
     6c4:	aa0003f6 	mov	x22, x0
kprintf():
/home/lagadanu/Desktop/qemu/optee_os/lib/libutils/ext/snprintk.c:269
     6c8:	d2800017 	mov	x23, #0x0                   	// #0
/home/lagadanu/Desktop/qemu/optee_os/lib/libutils/ext/snprintk.c:275
     6cc:	39400320 	ldrb	w0, [x25]
     6d0:	7100941f 	cmp	w0, #0x25
     6d4:	7a401804 	ccmp	w0, #0x0, #0x4, ne
     6d8:	540003c1 	b.ne	750 <__vsnprintf+0xd4>
/home/lagadanu/Desktop/qemu/optee_os/lib/libutils/ext/snprintk.c:279
     6dc:	34005780 	cbz	w0, 11cc <__vsnprintf+0xb50>
/home/lagadanu/Desktop/qemu/optee_os/lib/libutils/ext/snprintk.c:287
     6e0:	12800004 	mov	w4, #0xffffffff            	// #-1
/home/lagadanu/Desktop/qemu/optee_os/lib/libutils/ext/snprintk.c:282
     6e4:	91000722 	add	x2, x25, #0x1
     6e8:	2a1403e0 	mov	w0, w20
/home/lagadanu/Desktop/qemu/optee_os/lib/libutils/ext/snprintk.c:324
     6ec:	2a0403e5 	mov	w5, w4
/home/lagadanu/Desktop/qemu/optee_os/lib/libutils/ext/snprintk.c:288
     6f0:	52800001 	mov	w1, #0x0                   	// #0
/home/lagadanu/Desktop/qemu/optee_os/lib/libutils/ext/snprintk.c:286
     6f4:	5280000a 	mov	w10, #0x0                   	// #0
/home/lagadanu/Desktop/qemu/optee_os/lib/libutils/ext/snprintk.c:284
     6f8:	52800015 	mov	w21, #0x0                   	// #0
/home/lagadanu/Desktop/qemu/optee_os/lib/libutils/ext/snprintk.c:299
     6fc:	52800406 	mov	w6, #0x20                  	// #32
/home/lagadanu/Desktop/qemu/optee_os/lib/libutils/ext/snprintk.c:290
     700:	39400048 	ldrb	w8, [x2]
     704:	91000459 	add	x25, x2, #0x1
/home/lagadanu/Desktop/qemu/optee_os/lib/libutils/ext/snprintk.c:291
     708:	71018d1f 	cmp	w8, #0x63
     70c:	54001b80 	b.eq	a7c <__vsnprintf+0x400>
     710:	5400080c 	b.gt	810 <__vsnprintf+0x194>
     714:	7100c11f 	cmp	w8, #0x30
     718:	54001960 	b.eq	a44 <__vsnprintf+0x3c8>
     71c:	540003cc 	b.gt	794 <__vsnprintf+0x118>
     720:	7100a91f 	cmp	w8, #0x2a
     724:	540012c0 	b.eq	97c <__vsnprintf+0x300>
     728:	5400024c 	b.gt	770 <__vsnprintf+0xf4>
     72c:	7100811f 	cmp	w8, #0x20
     730:	540011c0 	b.eq	968 <__vsnprintf+0x2ec>
     734:	71008d1f 	cmp	w8, #0x23
     738:	540011e0 	b.eq	974 <__vsnprintf+0x2f8>
/home/lagadanu/Desktop/qemu/optee_os/lib/libutils/ext/snprintk.c:541
     73c:	34005488 	cbz	w8, 11cc <__vsnprintf+0xb50>
/home/lagadanu/Desktop/qemu/optee_os/lib/libutils/ext/snprintk.c:545
     740:	910303a3 	add	x3, x29, #0xc0
     744:	2a0003f4 	mov	w20, w0
     748:	381d8c68 	strb	w8, [x3,#-40]!
     74c:	140000d4 	b	a9c <__vsnprintf+0x420>
/home/lagadanu/Desktop/qemu/optee_os/lib/libutils/ext/snprintk.c:276
     750:	1100077b 	add	w27, w27, #0x1
/home/lagadanu/Desktop/qemu/optee_os/lib/libutils/ext/snprintk.c:277
     754:	b40000b6 	cbz	x22, 768 <__vsnprintf+0xec>
     758:	eb16035f 	cmp	x26, x22
     75c:	54000069 	b.ls	768 <__vsnprintf+0xec>
     760:	390002c0 	strb	w0, [x22]
     764:	910006d6 	add	x22, x22, #0x1
/home/lagadanu/Desktop/qemu/optee_os/lib/libutils/ext/snprintk.c:275
     768:	91000739 	add	x25, x25, #0x1
     76c:	17ffffd8 	b	6cc <__vsnprintf+0x50>
/home/lagadanu/Desktop/qemu/optee_os/lib/libutils/ext/snprintk.c:291
     770:	7100b51f 	cmp	w8, #0x2d
     774:	54001120 	b.eq	998 <__vsnprintf+0x31c>
     778:	7100b91f 	cmp	w8, #0x2e
     77c:	54001280 	b.eq	9cc <__vsnprintf+0x350>
     780:	7100ad1f 	cmp	w8, #0x2b
     784:	54fffdc1 	b.ne	73c <__vsnprintf+0xc0>
/home/lagadanu/Desktop/qemu/optee_os/lib/libutils/ext/snprintk.c:319
     788:	2a0803e1 	mov	w1, w8
/home/lagadanu/Desktop/qemu/optee_os/lib/libutils/ext/snprintk.c:322
     78c:	aa1903e2 	mov	x2, x25
     790:	17ffffdc 	b	700 <__vsnprintf+0x84>
/home/lagadanu/Desktop/qemu/optee_os/lib/libutils/ext/snprintk.c:291
     794:	7101111f 	cmp	w8, #0x44
     798:	54001920 	b.eq	abc <__vsnprintf+0x440>
     79c:	5400018c 	b.gt	7cc <__vsnprintf+0x150>
     7a0:	7100e51f 	cmp	w8, #0x39
     7a4:	54fffccc 	b.gt	73c <__vsnprintf+0xc0>
     7a8:	5280000a 	mov	w10, #0x0                   	// #0
/home/lagadanu/Desktop/qemu/optee_os/lib/libutils/ext/snprintk.c:346
     7ac:	5100c108 	sub	w8, w8, #0x30
     7b0:	52800142 	mov	w2, #0xa                   	// #10
     7b4:	1b02214a 	madd	w10, w10, w2, w8
/home/lagadanu/Desktop/qemu/optee_os/lib/libutils/ext/snprintk.c:347
     7b8:	38401728 	ldrb	w8, [x25],#1
/home/lagadanu/Desktop/qemu/optee_os/lib/libutils/ext/snprintk.c:348
     7bc:	5100c102 	sub	w2, w8, #0x30
     7c0:	7100245f 	cmp	w2, #0x9
     7c4:	54ffff49 	b.ls	7ac <__vsnprintf+0x130>
     7c8:	17ffffd0 	b	708 <__vsnprintf+0x8c>
/home/lagadanu/Desktop/qemu/optee_os/lib/libutils/ext/snprintk.c:291
     7cc:	7101551f 	cmp	w8, #0x55
     7d0:	54003c40 	b.eq	f58 <__vsnprintf+0x8dc>
     7d4:	7101611f 	cmp	w8, #0x58
     7d8:	54000ac0 	b.eq	930 <__vsnprintf+0x2b4>
     7dc:	71013d1f 	cmp	w8, #0x4f
     7e0:	54fffae1 	b.ne	73c <__vsnprintf+0xc0>
/home/lagadanu/Desktop/qemu/optee_os/lib/libutils/ext/snprintk.c:408
     7e4:	321c02b5 	orr	w21, w21, #0x10
/home/lagadanu/Desktop/qemu/optee_os/lib/libutils/ext/snprintk.c:411
     7e8:	36382695 	tbz	w21, #7, cb8 <__vsnprintf+0x63c>
     7ec:	37f827e0 	tbnz	w0, #31, ce8 <__vsnprintf+0x66c>
     7f0:	91003e61 	add	x1, x19, #0xf
     7f4:	2a0003f4 	mov	w20, w0
     7f8:	aa1303e0 	mov	x0, x19
     7fc:	927df033 	and	x19, x1, #0xfffffffffffffff8
     800:	f9400005 	ldr	x5, [x0]
/home/lagadanu/Desktop/qemu/optee_os/lib/libutils/ext/snprintk.c:412
     804:	52800000 	mov	w0, #0x0                   	// #0
/home/lagadanu/Desktop/qemu/optee_os/lib/libutils/ext/snprintk.c:482
     808:	52800001 	mov	w1, #0x0                   	// #0
     80c:	140000b8 	b	aec <__vsnprintf+0x470>
/home/lagadanu/Desktop/qemu/optee_os/lib/libutils/ext/snprintk.c:291
     810:	7101bd1f 	cmp	w8, #0x6f
     814:	54fffea0 	b.eq	7e8 <__vsnprintf+0x16c>
     818:	5400024c 	b.gt	860 <__vsnprintf+0x1e4>
     81c:	7101a51f 	cmp	w8, #0x69
     820:	54001500 	b.eq	ac0 <__vsnprintf+0x444>
     824:	540000ec 	b.gt	840 <__vsnprintf+0x1c4>
     828:	7101911f 	cmp	w8, #0x64
     82c:	540014a0 	b.eq	ac0 <__vsnprintf+0x444>
     830:	7101a11f 	cmp	w8, #0x68
     834:	54fff841 	b.ne	73c <__vsnprintf+0xc0>
/home/lagadanu/Desktop/qemu/optee_os/lib/libutils/ext/snprintk.c:352
     838:	321a02b5 	orr	w21, w21, #0x40
     83c:	17ffffd4 	b	78c <__vsnprintf+0x110>
/home/lagadanu/Desktop/qemu/optee_os/lib/libutils/ext/snprintk.c:291
     840:	7101b11f 	cmp	w8, #0x6c
     844:	54001040 	b.eq	a4c <__vsnprintf+0x3d0>
     848:	7101b91f 	cmp	w8, #0x6e
     84c:	54001d40 	b.eq	bf4 <__vsnprintf+0x578>
     850:	7101a91f 	cmp	w8, #0x6a
     854:	54fff741 	b.ne	73c <__vsnprintf+0xc0>
/home/lagadanu/Desktop/qemu/optee_os/lib/libutils/ext/snprintk.c:355
     858:	321902b5 	orr	w21, w21, #0x80
     85c:	17ffffcc 	b	78c <__vsnprintf+0x110>
/home/lagadanu/Desktop/qemu/optee_os/lib/libutils/ext/snprintk.c:291
     860:	7101d11f 	cmp	w8, #0x74
     864:	54001040 	b.eq	a6c <__vsnprintf+0x3f0>
     868:	5400046c 	b.gt	8f4 <__vsnprintf+0x278>
     86c:	7101c51f 	cmp	w8, #0x71
     870:	54000f60 	b.eq	a5c <__vsnprintf+0x3e0>
     874:	540026cb 	b.lt	d4c <__vsnprintf+0x6d0>
     878:	7101cd1f 	cmp	w8, #0x73
     87c:	54fff601 	b.ne	73c <__vsnprintf+0xc0>
/home/lagadanu/Desktop/qemu/optee_os/lib/libutils/ext/snprintk.c:442
     880:	37f83480 	tbnz	w0, #31, f10 <__vsnprintf+0x894>
     884:	91003e61 	add	x1, x19, #0xf
     888:	2a0003f4 	mov	w20, w0
     88c:	aa1303e0 	mov	x0, x19
     890:	927df033 	and	x19, x1, #0xfffffffffffffff8
     894:	f9400003 	ldr	x3, [x0]
/home/lagadanu/Desktop/qemu/optee_os/lib/libutils/ext/snprintk.c:444
     898:	f0000040 	adrp	x0, b000 <PRIME_TABLE+0x7f0>
     89c:	911cc000 	add	x0, x0, #0x730
     8a0:	f100007f 	cmp	x3, #0x0
     8a4:	9a830003 	csel	x3, x0, x3, eq
/home/lagadanu/Desktop/qemu/optee_os/lib/libutils/ext/snprintk.c:445
     8a8:	3100049f 	cmn	w4, #0x1
     8ac:	540033e0 	b.eq	f28 <__vsnprintf+0x8ac>
/home/lagadanu/Desktop/qemu/optee_os/lib/libutils/ext/snprintk.c:451
     8b0:	93407c82 	sxtw	x2, w4
     8b4:	aa0303e0 	mov	x0, x3
     8b8:	290d2ba8 	stp	w8, w10, [x29,#104]
     8bc:	52800001 	mov	w1, #0x0                   	// #0
     8c0:	f9003ba3 	str	x3, [x29,#112]
     8c4:	b9007ba4 	str	w4, [x29,#120]
     8c8:	94000289 	bl	12ec <memchr>
/home/lagadanu/Desktop/qemu/optee_os/lib/libutils/ext/snprintk.c:453
     8cc:	294d2ba8 	ldp	w8, w10, [x29,#104]
     8d0:	b9407ba4 	ldr	w4, [x29,#120]
     8d4:	f9403ba3 	ldr	x3, [x29,#112]
     8d8:	b4000080 	cbz	x0, 8e8 <__vsnprintf+0x26c>
/home/lagadanu/Desktop/qemu/optee_os/lib/libutils/ext/snprintk.c:454
     8dc:	cb030000 	sub	x0, x0, x3
     8e0:	6b00009f 	cmp	w4, w0
     8e4:	1a80d084 	csel	w4, w4, w0, le
/home/lagadanu/Desktop/qemu/optee_os/lib/libutils/ext/snprintk.c:285
     8e8:	52800000 	mov	w0, #0x0                   	// #0
/home/lagadanu/Desktop/qemu/optee_os/lib/libutils/ext/snprintk.c:461
     8ec:	52800001 	mov	w1, #0x0                   	// #0
     8f0:	14000144 	b	e00 <__vsnprintf+0x784>
/home/lagadanu/Desktop/qemu/optee_os/lib/libutils/ext/snprintk.c:291
     8f4:	7101e11f 	cmp	w8, #0x78
     8f8:	540037e0 	b.eq	ff4 <__vsnprintf+0x978>
     8fc:	7101e91f 	cmp	w8, #0x7a
     900:	54000ba0 	b.eq	a74 <__vsnprintf+0x3f8>
     904:	7101d51f 	cmp	w8, #0x75
     908:	54fff1a1 	b.ne	73c <__vsnprintf+0xc0>
/home/lagadanu/Desktop/qemu/optee_os/lib/libutils/ext/snprintk.c:467
     90c:	363832b5 	tbz	w21, #7, f60 <__vsnprintf+0x8e4>
     910:	37f83400 	tbnz	w0, #31, f90 <__vsnprintf+0x914>
     914:	91003e61 	add	x1, x19, #0xf
     918:	2a0003f4 	mov	w20, w0
     91c:	aa1303e0 	mov	x0, x19
     920:	927df033 	and	x19, x1, #0xfffffffffffffff8
     924:	f9400005 	ldr	x5, [x0]
/home/lagadanu/Desktop/qemu/optee_os/lib/libutils/ext/snprintk.c:468
     928:	52800020 	mov	w0, #0x1                   	// #1
     92c:	17ffffb7 	b	808 <__vsnprintf+0x18c>
/home/lagadanu/Desktop/qemu/optee_os/lib/libutils/ext/snprintk.c:471
     930:	d0000057 	adrp	x23, a000 <memalign+0x2ac>
     934:	911e42f7 	add	x23, x23, #0x790
/home/lagadanu/Desktop/qemu/optee_os/lib/libutils/ext/snprintk.c:475
     938:	36383675 	tbz	w21, #7, 1004 <__vsnprintf+0x988>
     93c:	37f837c0 	tbnz	w0, #31, 1034 <__vsnprintf+0x9b8>
     940:	91003e61 	add	x1, x19, #0xf
     944:	2a0003f4 	mov	w20, w0
     948:	aa1303e0 	mov	x0, x19
     94c:	927df033 	and	x19, x1, #0xfffffffffffffff8
     950:	f9400005 	ldr	x5, [x0]
/home/lagadanu/Desktop/qemu/optee_os/lib/libutils/ext/snprintk.c:478
     954:	36000075 	tbz	w21, #0, 960 <__vsnprintf+0x2e4>
     958:	b4000045 	cbz	x5, 960 <__vsnprintf+0x2e4>
/home/lagadanu/Desktop/qemu/optee_os/lib/libutils/ext/snprintk.c:479
     95c:	321f02b5 	orr	w21, w21, #0x2
/home/lagadanu/Desktop/qemu/optee_os/lib/libutils/ext/snprintk.c:476
     960:	52800040 	mov	w0, #0x2                   	// #2
     964:	17ffffa9 	b	808 <__vsnprintf+0x18c>
/home/lagadanu/Desktop/qemu/optee_os/lib/libutils/ext/snprintk.c:299
     968:	7100003f 	cmp	w1, #0x0
     96c:	1a861021 	csel	w1, w1, w6, ne
     970:	17ffff87 	b	78c <__vsnprintf+0x110>
/home/lagadanu/Desktop/qemu/optee_os/lib/libutils/ext/snprintk.c:302
     974:	320002b5 	orr	w21, w21, #0x1
     978:	17ffff85 	b	78c <__vsnprintf+0x110>
/home/lagadanu/Desktop/qemu/optee_os/lib/libutils/ext/snprintk.c:311
     97c:	37f80120 	tbnz	w0, #31, 9a0 <__vsnprintf+0x324>
     980:	91002e63 	add	x3, x19, #0xb
     984:	aa1303e2 	mov	x2, x19
     988:	927df073 	and	x19, x3, #0xfffffffffffffff8
     98c:	b940004a 	ldr	w10, [x2]
     990:	36ffefea 	tbz	w10, #31, 78c <__vsnprintf+0x110>
/home/lagadanu/Desktop/qemu/optee_os/lib/libutils/ext/snprintk.c:313
     994:	4b0a03ea 	neg	w10, w10
/home/lagadanu/Desktop/qemu/optee_os/lib/libutils/ext/snprintk.c:316
     998:	321e02b5 	orr	w21, w21, #0x4
     99c:	17ffff7c 	b	78c <__vsnprintf+0x110>
/home/lagadanu/Desktop/qemu/optee_os/lib/libutils/ext/snprintk.c:311
     9a0:	11002003 	add	w3, w0, #0x8
     9a4:	7100007f 	cmp	w3, #0x0
     9a8:	540000cd 	b.le	9c0 <__vsnprintf+0x344>
     9ac:	91002e67 	add	x7, x19, #0xb
     9b0:	aa1303e2 	mov	x2, x19
     9b4:	2a0303e0 	mov	w0, w3
     9b8:	927df0f3 	and	x19, x7, #0xfffffffffffffff8
     9bc:	17fffff4 	b	98c <__vsnprintf+0x310>
     9c0:	8b20c382 	add	x2, x28, w0, sxtw
     9c4:	2a0303e0 	mov	w0, w3
     9c8:	17fffff1 	b	98c <__vsnprintf+0x310>
/home/lagadanu/Desktop/qemu/optee_os/lib/libutils/ext/snprintk.c:322
     9cc:	39400328 	ldrb	w8, [x25]
     9d0:	91000723 	add	x3, x25, #0x1
     9d4:	7100a91f 	cmp	w8, #0x2a
     9d8:	54000140 	b.eq	a00 <__vsnprintf+0x384>
     9dc:	aa0303f9 	mov	x25, x3
     9e0:	52800004 	mov	w4, #0x0                   	// #0
/home/lagadanu/Desktop/qemu/optee_os/lib/libutils/ext/snprintk.c:328
     9e4:	5100c102 	sub	w2, w8, #0x30
     9e8:	7100245f 	cmp	w2, #0x9
     9ec:	54ffe8e8 	b.hi	708 <__vsnprintf+0x8c>
/home/lagadanu/Desktop/qemu/optee_os/lib/libutils/ext/snprintk.c:329
     9f0:	52800143 	mov	w3, #0xa                   	// #10
/home/lagadanu/Desktop/qemu/optee_os/lib/libutils/ext/snprintk.c:330
     9f4:	38401728 	ldrb	w8, [x25],#1
/home/lagadanu/Desktop/qemu/optee_os/lib/libutils/ext/snprintk.c:329
     9f8:	1b030884 	madd	w4, w4, w3, w2
     9fc:	17fffffa 	b	9e4 <__vsnprintf+0x368>
/home/lagadanu/Desktop/qemu/optee_os/lib/libutils/ext/snprintk.c:323
     a00:	37f80160 	tbnz	w0, #31, a2c <__vsnprintf+0x3b0>
     a04:	91002e64 	add	x4, x19, #0xb
     a08:	2a0003e2 	mov	w2, w0
     a0c:	aa1303e0 	mov	x0, x19
     a10:	927df093 	and	x19, x4, #0xfffffffffffffff8
/home/lagadanu/Desktop/qemu/optee_os/lib/libutils/ext/snprintk.c:324
     a14:	b9400004 	ldr	w4, [x0]
/home/lagadanu/Desktop/qemu/optee_os/lib/libutils/ext/snprintk.c:322
     a18:	aa0303f9 	mov	x25, x3
/home/lagadanu/Desktop/qemu/optee_os/lib/libutils/ext/snprintk.c:324
     a1c:	2a0203e0 	mov	w0, w2
     a20:	7100009f 	cmp	w4, #0x0
     a24:	1a85a084 	csel	w4, w4, w5, ge
     a28:	17ffff59 	b	78c <__vsnprintf+0x110>
/home/lagadanu/Desktop/qemu/optee_os/lib/libutils/ext/snprintk.c:323
     a2c:	11002002 	add	w2, w0, #0x8
     a30:	8b20c380 	add	x0, x28, w0, sxtw
     a34:	7100005f 	cmp	w2, #0x0
     a38:	54fffeed 	b.le	a14 <__vsnprintf+0x398>
     a3c:	91002e64 	add	x4, x19, #0xb
     a40:	17fffff3 	b	a0c <__vsnprintf+0x390>
/home/lagadanu/Desktop/qemu/optee_os/lib/libutils/ext/snprintk.c:340
     a44:	321602b5 	orr	w21, w21, #0x400
     a48:	17ffff51 	b	78c <__vsnprintf+0x110>
/home/lagadanu/Desktop/qemu/optee_os/lib/libutils/ext/snprintk.c:358
     a4c:	39400322 	ldrb	w2, [x25]
     a50:	7101b05f 	cmp	w2, #0x6c
     a54:	54000081 	b.ne	a64 <__vsnprintf+0x3e8>
/home/lagadanu/Desktop/qemu/optee_os/lib/libutils/ext/snprintk.c:359
     a58:	91000739 	add	x25, x25, #0x1
/home/lagadanu/Desktop/qemu/optee_os/lib/libutils/ext/snprintk.c:366
     a5c:	321b02b5 	orr	w21, w21, #0x20
     a60:	17ffff4b 	b	78c <__vsnprintf+0x110>
/home/lagadanu/Desktop/qemu/optee_os/lib/libutils/ext/snprintk.c:362
     a64:	321c02b5 	orr	w21, w21, #0x10
     a68:	17ffff49 	b	78c <__vsnprintf+0x110>
/home/lagadanu/Desktop/qemu/optee_os/lib/libutils/ext/snprintk.c:369
     a6c:	321802b5 	orr	w21, w21, #0x100
     a70:	17ffff47 	b	78c <__vsnprintf+0x110>
/home/lagadanu/Desktop/qemu/optee_os/lib/libutils/ext/snprintk.c:372
     a74:	321702b5 	orr	w21, w21, #0x200
     a78:	17ffff45 	b	78c <__vsnprintf+0x110>
/home/lagadanu/Desktop/qemu/optee_os/lib/libutils/ext/snprintk.c:375
     a7c:	37f80140 	tbnz	w0, #31, aa4 <__vsnprintf+0x428>
     a80:	91002e61 	add	x1, x19, #0xb
     a84:	2a0003f4 	mov	w20, w0
     a88:	aa1303e0 	mov	x0, x19
     a8c:	927df033 	and	x19, x1, #0xfffffffffffffff8
     a90:	910303a3 	add	x3, x29, #0xc0
     a94:	b9400000 	ldr	w0, [x0]
     a98:	381d8c60 	strb	w0, [x3,#-40]!
/home/lagadanu/Desktop/qemu/optee_os/lib/libutils/ext/snprintk.c:546
     a9c:	52800024 	mov	w4, #0x1                   	// #1
     aa0:	17ffff92 	b	8e8 <__vsnprintf+0x26c>
/home/lagadanu/Desktop/qemu/optee_os/lib/libutils/ext/snprintk.c:375
     aa4:	11002014 	add	w20, w0, #0x8
     aa8:	8b20c380 	add	x0, x28, w0, sxtw
     aac:	7100029f 	cmp	w20, #0x0
     ab0:	54ffff0d 	b.le	a90 <__vsnprintf+0x414>
     ab4:	91002e61 	add	x1, x19, #0xb
     ab8:	17fffff4 	b	a88 <__vsnprintf+0x40c>
/home/lagadanu/Desktop/qemu/optee_os/lib/libutils/ext/snprintk.c:380
     abc:	321c02b5 	orr	w21, w21, #0x10
/home/lagadanu/Desktop/qemu/optee_os/lib/libutils/ext/snprintk.c:384
     ac0:	36380515 	tbz	w21, #7, b60 <__vsnprintf+0x4e4>
     ac4:	37f80660 	tbnz	w0, #31, b90 <__vsnprintf+0x514>
     ac8:	91003e62 	add	x2, x19, #0xf
     acc:	2a0003f4 	mov	w20, w0
     ad0:	aa1303e0 	mov	x0, x19
     ad4:	927df053 	and	x19, x2, #0xfffffffffffffff8
     ad8:	f9400005 	ldr	x5, [x0]
/home/lagadanu/Desktop/qemu/optee_os/lib/libutils/ext/snprintk.c:389
     adc:	52800020 	mov	w0, #0x1                   	// #1
/home/lagadanu/Desktop/qemu/optee_os/lib/libutils/ext/snprintk.c:385
     ae0:	b6f80065 	tbz	x5, #63, aec <__vsnprintf+0x470>
/home/lagadanu/Desktop/qemu/optee_os/lib/libutils/ext/snprintk.c:386
     ae4:	cb0503e5 	neg	x5, x5
/home/lagadanu/Desktop/qemu/optee_os/lib/libutils/ext/snprintk.c:387
     ae8:	528005a1 	mov	w1, #0x2d                  	// #45
/home/lagadanu/Desktop/qemu/optee_os/lib/libutils/ext/snprintk.c:489
     aec:	3100049f 	cmn	w4, #0x1
     af0:	12157aa2 	and	w2, w21, #0xfffffbff
     af4:	1a951055 	csel	w21, w2, w21, ne
/home/lagadanu/Desktop/qemu/optee_os/lib/libutils/ext/snprintk.c:497
     af8:	f10000bf 	cmp	x5, #0x0
     afc:	7a400880 	ccmp	w4, #0x0, #0x0, eq
/home/lagadanu/Desktop/qemu/optee_os/lib/libutils/ext/snprintk.c:496
     b00:	91009703 	add	x3, x24, #0x25
/home/lagadanu/Desktop/qemu/optee_os/lib/libutils/ext/snprintk.c:497
     b04:	54000260 	b.eq	b50 <__vsnprintf+0x4d4>
/home/lagadanu/Desktop/qemu/optee_os/lib/libutils/ext/snprintk.c:503
     b08:	7100041f 	cmp	w0, #0x1
     b0c:	54002c60 	b.eq	1098 <__vsnprintf+0xa1c>
     b10:	7100081f 	cmp	w0, #0x2
     b14:	54002e40 	b.eq	10dc <__vsnprintf+0xa60>
     b18:	91009700 	add	x0, x24, #0x25
/home/lagadanu/Desktop/qemu/optee_os/lib/libutils/ext/snprintk.c:506
     b1c:	120008a2 	and	w2, w5, #0x7
     b20:	d1000403 	sub	x3, x0, #0x1
     b24:	1100c042 	add	w2, w2, #0x30
     b28:	381ff002 	sturb	w2, [x0,#-1]
/home/lagadanu/Desktop/qemu/optee_os/lib/libutils/ext/snprintk.c:507
     b2c:	d343fca5 	lsr	x5, x5, #3
/home/lagadanu/Desktop/qemu/optee_os/lib/libutils/ext/snprintk.c:508
     b30:	b5002c45 	cbnz	x5, 10b8 <__vsnprintf+0xa3c>
/home/lagadanu/Desktop/qemu/optee_os/lib/libutils/ext/snprintk.c:510
     b34:	7100c05f 	cmp	w2, #0x30
     b38:	1a9f07e2 	cset	w2, ne
     b3c:	6a0202bf 	tst	w21, w2
     b40:	54000080 	b.eq	b50 <__vsnprintf+0x4d4>
/home/lagadanu/Desktop/qemu/optee_os/lib/libutils/ext/snprintk.c:511
     b44:	52800602 	mov	w2, #0x30                  	// #48
     b48:	381ff062 	sturb	w2, [x3,#-1]
     b4c:	d1000803 	sub	x3, x0, #0x2
/home/lagadanu/Desktop/qemu/optee_os/lib/libutils/ext/snprintk.c:537
     b50:	91009702 	add	x2, x24, #0x25
     b54:	2a0403e0 	mov	w0, w4
     b58:	4b030044 	sub	w4, w2, w3
     b5c:	140000a9 	b	e00 <__vsnprintf+0x784>
/home/lagadanu/Desktop/qemu/optee_os/lib/libutils/ext/snprintk.c:384
     b60:	3747fb35 	tbnz	w21, #8, ac4 <__vsnprintf+0x448>
     b64:	374ffb15 	tbnz	w21, #9, ac4 <__vsnprintf+0x448>
     b68:	372ffaf5 	tbnz	w21, #5, ac4 <__vsnprintf+0x448>
     b6c:	3727fad5 	tbnz	w21, #4, ac4 <__vsnprintf+0x448>
     b70:	36300295 	tbz	w21, #6, bc0 <__vsnprintf+0x544>
     b74:	37f801a0 	tbnz	w0, #31, ba8 <__vsnprintf+0x52c>
     b78:	91002e62 	add	x2, x19, #0xb
     b7c:	2a0003f4 	mov	w20, w0
     b80:	aa1303e0 	mov	x0, x19
     b84:	927df053 	and	x19, x2, #0xfffffffffffffff8
     b88:	79800005 	ldrsh	x5, [x0]
     b8c:	17ffffd4 	b	adc <__vsnprintf+0x460>
     b90:	11002014 	add	w20, w0, #0x8
     b94:	8b20c380 	add	x0, x28, w0, sxtw
     b98:	7100029f 	cmp	w20, #0x0
     b9c:	54fff9ed 	b.le	ad8 <__vsnprintf+0x45c>
     ba0:	91003e62 	add	x2, x19, #0xf
     ba4:	17ffffcb 	b	ad0 <__vsnprintf+0x454>
     ba8:	11002014 	add	w20, w0, #0x8
     bac:	8b20c380 	add	x0, x28, w0, sxtw
     bb0:	7100029f 	cmp	w20, #0x0
     bb4:	54fffead 	b.le	b88 <__vsnprintf+0x50c>
     bb8:	91002e62 	add	x2, x19, #0xb
     bbc:	17fffff1 	b	b80 <__vsnprintf+0x504>
     bc0:	37f800e0 	tbnz	w0, #31, bdc <__vsnprintf+0x560>
     bc4:	91002e62 	add	x2, x19, #0xb
     bc8:	2a0003f4 	mov	w20, w0
     bcc:	aa1303e0 	mov	x0, x19
     bd0:	927df053 	and	x19, x2, #0xfffffffffffffff8
     bd4:	b9800005 	ldrsw	x5, [x0]
     bd8:	17ffffc1 	b	adc <__vsnprintf+0x460>
     bdc:	11002014 	add	w20, w0, #0x8
     be0:	8b20c380 	add	x0, x28, w0, sxtw
     be4:	7100029f 	cmp	w20, #0x0
     be8:	54ffff6d 	b.le	bd4 <__vsnprintf+0x558>
     bec:	91002e62 	add	x2, x19, #0xb
     bf0:	17fffff7 	b	bcc <__vsnprintf+0x550>
/home/lagadanu/Desktop/qemu/optee_os/lib/libutils/ext/snprintk.c:392
     bf4:	36380155 	tbz	w21, #7, c1c <__vsnprintf+0x5a0>
/home/lagadanu/Desktop/qemu/optee_os/lib/libutils/ext/snprintk.c:401
     bf8:	37f802c0 	tbnz	w0, #31, c50 <__vsnprintf+0x5d4>
     bfc:	91003e61 	add	x1, x19, #0xf
     c00:	2a0003f4 	mov	w20, w0
     c04:	aa1303e0 	mov	x0, x19
     c08:	927df033 	and	x19, x1, #0xfffffffffffffff8
     c0c:	f9400000 	ldr	x0, [x0]
     c10:	93407f61 	sxtw	x1, w27
     c14:	f9000001 	str	x1, [x0]
     c18:	17fffead 	b	6cc <__vsnprintf+0x50>
/home/lagadanu/Desktop/qemu/optee_os/lib/libutils/ext/snprintk.c:394
     c1c:	3747fef5 	tbnz	w21, #8, bf8 <__vsnprintf+0x57c>
/home/lagadanu/Desktop/qemu/optee_os/lib/libutils/ext/snprintk.c:396
     c20:	374ffed5 	tbnz	w21, #9, bf8 <__vsnprintf+0x57c>
/home/lagadanu/Desktop/qemu/optee_os/lib/libutils/ext/snprintk.c:398
     c24:	372ffeb5 	tbnz	w21, #5, bf8 <__vsnprintf+0x57c>
/home/lagadanu/Desktop/qemu/optee_os/lib/libutils/ext/snprintk.c:400
     c28:	3727fe95 	tbnz	w21, #4, bf8 <__vsnprintf+0x57c>
/home/lagadanu/Desktop/qemu/optee_os/lib/libutils/ext/snprintk.c:402
     c2c:	363002b5 	tbz	w21, #6, c80 <__vsnprintf+0x604>
/home/lagadanu/Desktop/qemu/optee_os/lib/libutils/ext/snprintk.c:403
     c30:	37f801c0 	tbnz	w0, #31, c68 <__vsnprintf+0x5ec>
     c34:	91003e61 	add	x1, x19, #0xf
     c38:	2a0003f4 	mov	w20, w0
     c3c:	aa1303e0 	mov	x0, x19
     c40:	927df033 	and	x19, x1, #0xfffffffffffffff8
     c44:	f9400000 	ldr	x0, [x0]
     c48:	7900001b 	strh	w27, [x0]
     c4c:	17fffea0 	b	6cc <__vsnprintf+0x50>
/home/lagadanu/Desktop/qemu/optee_os/lib/libutils/ext/snprintk.c:401
     c50:	11002014 	add	w20, w0, #0x8
     c54:	8b20c380 	add	x0, x28, w0, sxtw
     c58:	7100029f 	cmp	w20, #0x0
     c5c:	54fffd8d 	b.le	c0c <__vsnprintf+0x590>
     c60:	91003e61 	add	x1, x19, #0xf
     c64:	17ffffe8 	b	c04 <__vsnprintf+0x588>
/home/lagadanu/Desktop/qemu/optee_os/lib/libutils/ext/snprintk.c:403
     c68:	11002014 	add	w20, w0, #0x8
     c6c:	8b20c380 	add	x0, x28, w0, sxtw
     c70:	7100029f 	cmp	w20, #0x0
     c74:	54fffe8d 	b.le	c44 <__vsnprintf+0x5c8>
     c78:	91003e61 	add	x1, x19, #0xf
     c7c:	17fffff0 	b	c3c <__vsnprintf+0x5c0>
/home/lagadanu/Desktop/qemu/optee_os/lib/libutils/ext/snprintk.c:405
     c80:	37f80100 	tbnz	w0, #31, ca0 <__vsnprintf+0x624>
     c84:	91003e61 	add	x1, x19, #0xf
     c88:	2a0003f4 	mov	w20, w0
     c8c:	aa1303e0 	mov	x0, x19
     c90:	927df033 	and	x19, x1, #0xfffffffffffffff8
     c94:	f9400000 	ldr	x0, [x0]
     c98:	b900001b 	str	w27, [x0]
     c9c:	17fffe8c 	b	6cc <__vsnprintf+0x50>
     ca0:	11002014 	add	w20, w0, #0x8
     ca4:	8b20c380 	add	x0, x28, w0, sxtw
     ca8:	7100029f 	cmp	w20, #0x0
     cac:	54ffff4d 	b.le	c94 <__vsnprintf+0x618>
     cb0:	91003e61 	add	x1, x19, #0xf
     cb4:	17fffff6 	b	c8c <__vsnprintf+0x610>
/home/lagadanu/Desktop/qemu/optee_os/lib/libutils/ext/snprintk.c:411
     cb8:	3747d9b5 	tbnz	w21, #8, 7ec <__vsnprintf+0x170>
     cbc:	374fd995 	tbnz	w21, #9, 7ec <__vsnprintf+0x170>
     cc0:	372fd975 	tbnz	w21, #5, 7ec <__vsnprintf+0x170>
     cc4:	3727d955 	tbnz	w21, #4, 7ec <__vsnprintf+0x170>
     cc8:	36300295 	tbz	w21, #6, d18 <__vsnprintf+0x69c>
     ccc:	37f801a0 	tbnz	w0, #31, d00 <__vsnprintf+0x684>
     cd0:	91002e61 	add	x1, x19, #0xb
     cd4:	2a0003f4 	mov	w20, w0
     cd8:	aa1303e0 	mov	x0, x19
     cdc:	927df033 	and	x19, x1, #0xfffffffffffffff8
     ce0:	79400005 	ldrh	w5, [x0]
     ce4:	17fffec8 	b	804 <__vsnprintf+0x188>
     ce8:	11002014 	add	w20, w0, #0x8
     cec:	8b20c380 	add	x0, x28, w0, sxtw
     cf0:	7100029f 	cmp	w20, #0x0
     cf4:	54ffd86d 	b.le	800 <__vsnprintf+0x184>
     cf8:	91003e61 	add	x1, x19, #0xf
     cfc:	17fffebf 	b	7f8 <__vsnprintf+0x17c>
     d00:	11002014 	add	w20, w0, #0x8
     d04:	8b20c380 	add	x0, x28, w0, sxtw
     d08:	7100029f 	cmp	w20, #0x0
     d0c:	54fffead 	b.le	ce0 <__vsnprintf+0x664>
     d10:	91002e61 	add	x1, x19, #0xb
     d14:	17fffff1 	b	cd8 <__vsnprintf+0x65c>
     d18:	37f800e0 	tbnz	w0, #31, d34 <__vsnprintf+0x6b8>
     d1c:	91002e61 	add	x1, x19, #0xb
     d20:	2a0003f4 	mov	w20, w0
     d24:	aa1303e0 	mov	x0, x19
     d28:	927df033 	and	x19, x1, #0xfffffffffffffff8
     d2c:	b9400005 	ldr	w5, [x0]
     d30:	17fffeb5 	b	804 <__vsnprintf+0x188>
     d34:	11002014 	add	w20, w0, #0x8
     d38:	8b20c380 	add	x0, x28, w0, sxtw
     d3c:	7100029f 	cmp	w20, #0x0
     d40:	54ffff6d 	b.le	d2c <__vsnprintf+0x6b0>
     d44:	91002e61 	add	x1, x19, #0xb
     d48:	17fffff7 	b	d24 <__vsnprintf+0x6a8>
/home/lagadanu/Desktop/qemu/optee_os/lib/libutils/ext/snprintk.c:415
     d4c:	b9407fa1 	ldr	w1, [x29,#124]
     d50:	34000b81 	cbz	w1, ec0 <__vsnprintf+0x844>
     d54:	39400321 	ldrb	w1, [x25]
     d58:	7101543f 	cmp	w1, #0x55
     d5c:	54000b21 	b.ne	ec0 <__vsnprintf+0x844>
     d60:	39400721 	ldrb	w1, [x25,#1]
     d64:	7101b03f 	cmp	w1, #0x6c
     d68:	54000ac1 	b.ne	ec0 <__vsnprintf+0x844>
/home/lagadanu/Desktop/qemu/optee_os/lib/libutils/ext/snprintk.c:420
     d6c:	91000b39 	add	x25, x25, #0x2
/home/lagadanu/Desktop/qemu/optee_os/lib/libutils/ext/snprintk.c:421
     d70:	37f809c0 	tbnz	w0, #31, ea8 <__vsnprintf+0x82c>
     d74:	91003e61 	add	x1, x19, #0xf
     d78:	2a0003f4 	mov	w20, w0
     d7c:	aa1303e0 	mov	x0, x19
     d80:	927df033 	and	x19, x1, #0xfffffffffffffff8
     d84:	f9400000 	ldr	x0, [x0]
uuid2str():
/home/lagadanu/Desktop/qemu/optee_os/lib/libutils/ext/snprintk.c:223
     d88:	f0000042 	adrp	x2, b000 <PRIME_TABLE+0x7f0>
     d8c:	b90073aa 	str	w10, [x29,#112]
     d90:	911cdc42 	add	x2, x2, #0x737
     d94:	b9007ba8 	str	w8, [x29,#120]
     d98:	39403c01 	ldrb	w1, [x0,#15]
     d9c:	79400804 	ldrh	w4, [x0,#4]
     da0:	39402407 	ldrb	w7, [x0,#9]
     da4:	39402006 	ldrb	w6, [x0,#8]
     da8:	79400c05 	ldrh	w5, [x0,#6]
     dac:	b9002be1 	str	w1, [sp,#40]
     db0:	39403801 	ldrb	w1, [x0,#14]
     db4:	b90023e1 	str	w1, [sp,#32]
     db8:	39403401 	ldrb	w1, [x0,#13]
     dbc:	b9001be1 	str	w1, [sp,#24]
     dc0:	39403001 	ldrb	w1, [x0,#12]
     dc4:	b90013e1 	str	w1, [sp,#16]
     dc8:	39402c01 	ldrb	w1, [x0,#11]
     dcc:	b9000be1 	str	w1, [sp,#8]
     dd0:	39402801 	ldrb	w1, [x0,#10]
     dd4:	b90003e1 	str	w1, [sp]
     dd8:	d28004a1 	mov	x1, #0x25                  	// #37
     ddc:	b9400003 	ldr	w3, [x0]
     de0:	aa1803e0 	mov	x0, x24
     de4:	94000125 	bl	1278 <snprintk>
     de8:	2a0003e4 	mov	w4, w0
     dec:	b94073aa 	ldr	w10, [x29,#112]
kprintf():
/home/lagadanu/Desktop/qemu/optee_os/lib/libutils/ext/snprintk.c:423
     df0:	aa1803e3 	mov	x3, x24
     df4:	b9407ba8 	ldr	w8, [x29,#120]
/home/lagadanu/Desktop/qemu/optee_os/lib/libutils/ext/snprintk.c:285
     df8:	52800000 	mov	w0, #0x0                   	// #0
/home/lagadanu/Desktop/qemu/optee_os/lib/libutils/ext/snprintk.c:424
     dfc:	52800001 	mov	w1, #0x0                   	// #0
/home/lagadanu/Desktop/qemu/optee_os/lib/libutils/ext/snprintk.c:565
     e00:	6b04001f 	cmp	w0, w4
     e04:	1a84a006 	csel	w6, w0, w4, ge
/home/lagadanu/Desktop/qemu/optee_os/lib/libutils/ext/snprintk.c:566
     e08:	34001781 	cbz	w1, 10f8 <__vsnprintf+0xa7c>
/home/lagadanu/Desktop/qemu/optee_os/lib/libutils/ext/snprintk.c:567
     e0c:	110004c6 	add	w6, w6, #0x1
/home/lagadanu/Desktop/qemu/optee_os/lib/libutils/ext/snprintk.c:572
     e10:	6b06015f 	cmp	w10, w6
     e14:	1a86a142 	csel	w2, w10, w6, ge
     e18:	0b02037b 	add	w27, w27, w2
/home/lagadanu/Desktop/qemu/optee_os/lib/libutils/ext/snprintk.c:575
     e1c:	52808082 	mov	w2, #0x404                 	// #1028
     e20:	6a0202a2 	ands	w2, w21, w2
     e24:	540000a1 	b.ne	e38 <__vsnprintf+0x7bc>
/home/lagadanu/Desktop/qemu/optee_os/lib/libutils/ext/snprintk.c:576
     e28:	4b060145 	sub	w5, w10, w6
/home/lagadanu/Desktop/qemu/optee_os/lib/libutils/ext/snprintk.c:578
     e2c:	52800407 	mov	w7, #0x20                  	// #32
/home/lagadanu/Desktop/qemu/optee_os/lib/libutils/ext/snprintk.c:577
     e30:	710000bf 	cmp	w5, #0x0
     e34:	540016ac 	b.gt	1108 <__vsnprintf+0xa8c>
/home/lagadanu/Desktop/qemu/optee_os/lib/libutils/ext/snprintk.c:582
     e38:	34001801 	cbz	w1, 1138 <__vsnprintf+0xabc>
/home/lagadanu/Desktop/qemu/optee_os/lib/libutils/ext/snprintk.c:583
     e3c:	b5001756 	cbnz	x22, 1124 <__vsnprintf+0xaa8>
/home/lagadanu/Desktop/qemu/optee_os/lib/libutils/ext/snprintk.c:586
     e40:	d2800016 	mov	x22, #0x0                   	// #0
/home/lagadanu/Desktop/qemu/optee_os/lib/libutils/ext/snprintk.c:590
     e44:	7110005f 	cmp	w2, #0x400
     e48:	540000a1 	b.ne	e5c <__vsnprintf+0x7e0>
/home/lagadanu/Desktop/qemu/optee_os/lib/libutils/ext/snprintk.c:591
     e4c:	4b060141 	sub	w1, w10, w6
/home/lagadanu/Desktop/qemu/optee_os/lib/libutils/ext/snprintk.c:593
     e50:	52800602 	mov	w2, #0x30                  	// #48
/home/lagadanu/Desktop/qemu/optee_os/lib/libutils/ext/snprintk.c:592
     e54:	7100003f 	cmp	w1, #0x0
     e58:	540018ec 	b.gt	1174 <__vsnprintf+0xaf8>
/home/lagadanu/Desktop/qemu/optee_os/lib/libutils/ext/snprintk.c:597
     e5c:	4b040000 	sub	w0, w0, w4
/home/lagadanu/Desktop/qemu/optee_os/lib/libutils/ext/snprintk.c:599
     e60:	52800601 	mov	w1, #0x30                  	// #48
/home/lagadanu/Desktop/qemu/optee_os/lib/libutils/ext/snprintk.c:598
     e64:	7100001f 	cmp	w0, #0x0
     e68:	5400194c 	b.gt	1190 <__vsnprintf+0xb14>
     e6c:	8b244064 	add	x4, x3, w4, uxtw
/home/lagadanu/Desktop/qemu/optee_os/lib/libutils/ext/snprintk.c:602
     e70:	eb04007f 	cmp	x3, x4
     e74:	540019c1 	b.ne	11ac <__vsnprintf+0xb30>
/home/lagadanu/Desktop/qemu/optee_os/lib/libutils/ext/snprintk.c:605
     e78:	3617c2b5 	tbz	w21, #2, 6cc <__vsnprintf+0x50>
/home/lagadanu/Desktop/qemu/optee_os/lib/libutils/ext/snprintk.c:606
     e7c:	4b06014a 	sub	w10, w10, w6
/home/lagadanu/Desktop/qemu/optee_os/lib/libutils/ext/snprintk.c:608
     e80:	52800400 	mov	w0, #0x20                  	// #32
/home/lagadanu/Desktop/qemu/optee_os/lib/libutils/ext/snprintk.c:607
     e84:	7100015f 	cmp	w10, #0x0
     e88:	54ffc22d 	b.le	6cc <__vsnprintf+0x50>
/home/lagadanu/Desktop/qemu/optee_os/lib/libutils/ext/snprintk.c:608
     e8c:	b40000b6 	cbz	x22, ea0 <__vsnprintf+0x824>
     e90:	eb16035f 	cmp	x26, x22
     e94:	54000069 	b.ls	ea0 <__vsnprintf+0x824>
     e98:	390002c0 	strb	w0, [x22]
     e9c:	910006d6 	add	x22, x22, #0x1
     ea0:	5100054a 	sub	w10, w10, #0x1
     ea4:	17fffff8 	b	e84 <__vsnprintf+0x808>
/home/lagadanu/Desktop/qemu/optee_os/lib/libutils/ext/snprintk.c:421
     ea8:	11002014 	add	w20, w0, #0x8
     eac:	8b20c380 	add	x0, x28, w0, sxtw
     eb0:	7100029f 	cmp	w20, #0x0
     eb4:	54fff68d 	b.le	d84 <__vsnprintf+0x708>
     eb8:	91003e61 	add	x1, x19, #0xf
     ebc:	17ffffb0 	b	d7c <__vsnprintf+0x700>
/home/lagadanu/Desktop/qemu/optee_os/lib/libutils/ext/snprintk.c:435
     ec0:	37f801c0 	tbnz	w0, #31, ef8 <__vsnprintf+0x87c>
     ec4:	91003e61 	add	x1, x19, #0xf
     ec8:	2a0003f4 	mov	w20, w0
     ecc:	aa1303e0 	mov	x0, x19
     ed0:	927df033 	and	x19, x1, #0xfffffffffffffff8
/home/lagadanu/Desktop/qemu/optee_os/lib/libutils/ext/snprintk.c:437
     ed4:	d0000057 	adrp	x23, a000 <memalign+0x2ac>
     ed8:	911e42f7 	add	x23, x23, #0x790
/home/lagadanu/Desktop/qemu/optee_os/lib/libutils/ext/snprintk.c:435
     edc:	f9400005 	ldr	x5, [x0]
/home/lagadanu/Desktop/qemu/optee_os/lib/libutils/ext/snprintk.c:438
     ee0:	321f02b5 	orr	w21, w21, #0x2
/home/lagadanu/Desktop/qemu/optee_os/lib/libutils/ext/snprintk.c:437
     ee4:	910062f7 	add	x23, x23, #0x18
/home/lagadanu/Desktop/qemu/optee_os/lib/libutils/ext/snprintk.c:482
     ee8:	52800001 	mov	w1, #0x0                   	// #0
/home/lagadanu/Desktop/qemu/optee_os/lib/libutils/ext/snprintk.c:439
     eec:	52800f08 	mov	w8, #0x78                  	// #120
/home/lagadanu/Desktop/qemu/optee_os/lib/libutils/ext/snprintk.c:436
     ef0:	52800040 	mov	w0, #0x2                   	// #2
     ef4:	17fffefe 	b	aec <__vsnprintf+0x470>
/home/lagadanu/Desktop/qemu/optee_os/lib/libutils/ext/snprintk.c:435
     ef8:	11002014 	add	w20, w0, #0x8
     efc:	8b20c380 	add	x0, x28, w0, sxtw
     f00:	7100029f 	cmp	w20, #0x0
     f04:	54fffe8d 	b.le	ed4 <__vsnprintf+0x858>
     f08:	91003e61 	add	x1, x19, #0xf
     f0c:	17fffff0 	b	ecc <__vsnprintf+0x850>
/home/lagadanu/Desktop/qemu/optee_os/lib/libutils/ext/snprintk.c:442
     f10:	11002014 	add	w20, w0, #0x8
     f14:	8b20c380 	add	x0, x28, w0, sxtw
     f18:	7100029f 	cmp	w20, #0x0
     f1c:	54ffcbcd 	b.le	894 <__vsnprintf+0x218>
     f20:	91003e61 	add	x1, x19, #0xf
     f24:	17fffe5a 	b	88c <__vsnprintf+0x210>
/home/lagadanu/Desktop/qemu/optee_os/lib/libutils/ext/snprintk.c:460
     f28:	aa0303e0 	mov	x0, x3
     f2c:	b9006fa8 	str	w8, [x29,#108]
     f30:	f9003ba3 	str	x3, [x29,#112]
     f34:	b9007baa 	str	w10, [x29,#120]
     f38:	94000100 	bl	1338 <strlen>
/home/lagadanu/Desktop/qemu/optee_os/lib/libutils/ext/snprintk.c:461
     f3c:	52800001 	mov	w1, #0x0                   	// #0
/home/lagadanu/Desktop/qemu/optee_os/lib/libutils/ext/snprintk.c:460
     f40:	2a0003e4 	mov	w4, w0
     f44:	b9406fa8 	ldr	w8, [x29,#108]
/home/lagadanu/Desktop/qemu/optee_os/lib/libutils/ext/snprintk.c:285
     f48:	52800000 	mov	w0, #0x0                   	// #0
     f4c:	b9407baa 	ldr	w10, [x29,#120]
     f50:	f9403ba3 	ldr	x3, [x29,#112]
     f54:	17ffffab 	b	e00 <__vsnprintf+0x784>
/home/lagadanu/Desktop/qemu/optee_os/lib/libutils/ext/snprintk.c:464
     f58:	321c02b5 	orr	w21, w21, #0x10
     f5c:	17fffe6c 	b	90c <__vsnprintf+0x290>
/home/lagadanu/Desktop/qemu/optee_os/lib/libutils/ext/snprintk.c:467
     f60:	3747cd95 	tbnz	w21, #8, 910 <__vsnprintf+0x294>
     f64:	374fcd75 	tbnz	w21, #9, 910 <__vsnprintf+0x294>
     f68:	372fcd55 	tbnz	w21, #5, 910 <__vsnprintf+0x294>
     f6c:	3727cd35 	tbnz	w21, #4, 910 <__vsnprintf+0x294>
     f70:	36300295 	tbz	w21, #6, fc0 <__vsnprintf+0x944>
     f74:	37f801a0 	tbnz	w0, #31, fa8 <__vsnprintf+0x92c>
     f78:	91002e61 	add	x1, x19, #0xb
     f7c:	2a0003f4 	mov	w20, w0
     f80:	aa1303e0 	mov	x0, x19
     f84:	927df033 	and	x19, x1, #0xfffffffffffffff8
     f88:	79400005 	ldrh	w5, [x0]
     f8c:	17fffe67 	b	928 <__vsnprintf+0x2ac>
     f90:	11002014 	add	w20, w0, #0x8
     f94:	8b20c380 	add	x0, x28, w0, sxtw
     f98:	7100029f 	cmp	w20, #0x0
     f9c:	54ffcc4d 	b.le	924 <__vsnprintf+0x2a8>
     fa0:	91003e61 	add	x1, x19, #0xf
     fa4:	17fffe5e 	b	91c <__vsnprintf+0x2a0>
     fa8:	11002014 	add	w20, w0, #0x8
     fac:	8b20c380 	add	x0, x28, w0, sxtw
     fb0:	7100029f 	cmp	w20, #0x0
     fb4:	54fffead 	b.le	f88 <__vsnprintf+0x90c>
     fb8:	91002e61 	add	x1, x19, #0xb
     fbc:	17fffff1 	b	f80 <__vsnprintf+0x904>
     fc0:	37f800e0 	tbnz	w0, #31, fdc <__vsnprintf+0x960>
     fc4:	91002e61 	add	x1, x19, #0xb
     fc8:	2a0003f4 	mov	w20, w0
     fcc:	aa1303e0 	mov	x0, x19
     fd0:	927df033 	and	x19, x1, #0xfffffffffffffff8
     fd4:	b9400005 	ldr	w5, [x0]
     fd8:	17fffe54 	b	928 <__vsnprintf+0x2ac>
     fdc:	11002014 	add	w20, w0, #0x8
     fe0:	8b20c380 	add	x0, x28, w0, sxtw
     fe4:	7100029f 	cmp	w20, #0x0
     fe8:	54ffff6d 	b.le	fd4 <__vsnprintf+0x958>
     fec:	91002e61 	add	x1, x19, #0xb
     ff0:	17fffff7 	b	fcc <__vsnprintf+0x950>
/home/lagadanu/Desktop/qemu/optee_os/lib/libutils/ext/snprintk.c:474
     ff4:	d0000057 	adrp	x23, a000 <memalign+0x2ac>
     ff8:	911e42f7 	add	x23, x23, #0x790
     ffc:	910062f7 	add	x23, x23, #0x18
    1000:	17fffe4e 	b	938 <__vsnprintf+0x2bc>
/home/lagadanu/Desktop/qemu/optee_os/lib/libutils/ext/snprintk.c:475
    1004:	3747c9d5 	tbnz	w21, #8, 93c <__vsnprintf+0x2c0>
    1008:	374fc9b5 	tbnz	w21, #9, 93c <__vsnprintf+0x2c0>
    100c:	372fc995 	tbnz	w21, #5, 93c <__vsnprintf+0x2c0>
    1010:	3727c975 	tbnz	w21, #4, 93c <__vsnprintf+0x2c0>
    1014:	36300295 	tbz	w21, #6, 1064 <__vsnprintf+0x9e8>
    1018:	37f801a0 	tbnz	w0, #31, 104c <__vsnprintf+0x9d0>
    101c:	91002e61 	add	x1, x19, #0xb
    1020:	2a0003f4 	mov	w20, w0
    1024:	aa1303e0 	mov	x0, x19
    1028:	927df033 	and	x19, x1, #0xfffffffffffffff8
    102c:	79400005 	ldrh	w5, [x0]
    1030:	17fffe49 	b	954 <__vsnprintf+0x2d8>
    1034:	11002014 	add	w20, w0, #0x8
    1038:	8b20c380 	add	x0, x28, w0, sxtw
    103c:	7100029f 	cmp	w20, #0x0
    1040:	54ffc88d 	b.le	950 <__vsnprintf+0x2d4>
    1044:	91003e61 	add	x1, x19, #0xf
    1048:	17fffe40 	b	948 <__vsnprintf+0x2cc>
    104c:	11002014 	add	w20, w0, #0x8
    1050:	8b20c380 	add	x0, x28, w0, sxtw
    1054:	7100029f 	cmp	w20, #0x0
    1058:	54fffead 	b.le	102c <__vsnprintf+0x9b0>
    105c:	91002e61 	add	x1, x19, #0xb
    1060:	17fffff1 	b	1024 <__vsnprintf+0x9a8>
    1064:	37f800e0 	tbnz	w0, #31, 1080 <__vsnprintf+0xa04>
    1068:	91002e61 	add	x1, x19, #0xb
    106c:	2a0003f4 	mov	w20, w0
    1070:	aa1303e0 	mov	x0, x19
    1074:	927df033 	and	x19, x1, #0xfffffffffffffff8
    1078:	b9400005 	ldr	w5, [x0]
    107c:	17fffe36 	b	954 <__vsnprintf+0x2d8>
    1080:	11002014 	add	w20, w0, #0x8
    1084:	8b20c380 	add	x0, x28, w0, sxtw
    1088:	7100029f 	cmp	w20, #0x0
    108c:	54ffff6d 	b.le	1078 <__vsnprintf+0x9fc>
    1090:	91002e61 	add	x1, x19, #0xb
    1094:	17fffff7 	b	1070 <__vsnprintf+0x9f4>
/home/lagadanu/Desktop/qemu/optee_os/lib/libutils/ext/snprintk.c:503
    1098:	91009700 	add	x0, x24, #0x25
/home/lagadanu/Desktop/qemu/optee_os/lib/libutils/ext/snprintk.c:517
    109c:	d2800146 	mov	x6, #0xa                   	// #10
/home/lagadanu/Desktop/qemu/optee_os/lib/libutils/ext/snprintk.c:516
    10a0:	f10024bf 	cmp	x5, #0x9
    10a4:	d1000403 	sub	x3, x0, #0x1
    10a8:	540000c8 	b.hi	10c0 <__vsnprintf+0xa44>
/home/lagadanu/Desktop/qemu/optee_os/lib/libutils/ext/snprintk.c:520
    10ac:	1100c0a2 	add	w2, w5, #0x30
    10b0:	381ff002 	sturb	w2, [x0,#-1]
    10b4:	17fffea7 	b	b50 <__vsnprintf+0x4d4>
/home/lagadanu/Desktop/qemu/optee_os/lib/libutils/ext/snprintk.c:508
    10b8:	aa0303e0 	mov	x0, x3
    10bc:	17fffe98 	b	b1c <__vsnprintf+0x4a0>
/home/lagadanu/Desktop/qemu/optee_os/lib/libutils/ext/snprintk.c:517
    10c0:	aa0303e0 	mov	x0, x3
    10c4:	9ac608a3 	udiv	x3, x5, x6
    10c8:	9b069462 	msub	x2, x3, x6, x5
/home/lagadanu/Desktop/qemu/optee_os/lib/libutils/ext/snprintk.c:518
    10cc:	aa0303e5 	mov	x5, x3
/home/lagadanu/Desktop/qemu/optee_os/lib/libutils/ext/snprintk.c:517
    10d0:	1100c042 	add	w2, w2, #0x30
    10d4:	39000002 	strb	w2, [x0]
    10d8:	17fffff2 	b	10a0 <__vsnprintf+0xa24>
/home/lagadanu/Desktop/qemu/optee_os/lib/libutils/ext/snprintk.c:503
    10dc:	91009703 	add	x3, x24, #0x25
/home/lagadanu/Desktop/qemu/optee_os/lib/libutils/ext/snprintk.c:525
    10e0:	92400ca0 	and	x0, x5, #0xf
/home/lagadanu/Desktop/qemu/optee_os/lib/libutils/ext/snprintk.c:526
    10e4:	d344fca5 	lsr	x5, x5, #4
/home/lagadanu/Desktop/qemu/optee_os/lib/libutils/ext/snprintk.c:525
    10e8:	38606ae0 	ldrb	w0, [x23,x0]
    10ec:	381ffc60 	strb	w0, [x3,#-1]!
/home/lagadanu/Desktop/qemu/optee_os/lib/libutils/ext/snprintk.c:527
    10f0:	b5ffff85 	cbnz	x5, 10e0 <__vsnprintf+0xa64>
    10f4:	17fffe97 	b	b50 <__vsnprintf+0x4d4>
/home/lagadanu/Desktop/qemu/optee_os/lib/libutils/ext/snprintk.c:569
    10f8:	110008c2 	add	w2, w6, #0x2
    10fc:	f27f02bf 	tst	x21, #0x2
    1100:	1a861046 	csel	w6, w2, w6, ne
    1104:	17ffff43 	b	e10 <__vsnprintf+0x794>
/home/lagadanu/Desktop/qemu/optee_os/lib/libutils/ext/snprintk.c:578
    1108:	b40000b6 	cbz	x22, 111c <__vsnprintf+0xaa0>
    110c:	eb16035f 	cmp	x26, x22
    1110:	54000069 	b.ls	111c <__vsnprintf+0xaa0>
    1114:	390002c7 	strb	w7, [x22]
    1118:	910006d6 	add	x22, x22, #0x1
    111c:	510004a5 	sub	w5, w5, #0x1
    1120:	17ffff44 	b	e30 <__vsnprintf+0x7b4>
/home/lagadanu/Desktop/qemu/optee_os/lib/libutils/ext/snprintk.c:583
    1124:	eb16035f 	cmp	x26, x22
    1128:	54ffe8e9 	b.ls	e44 <__vsnprintf+0x7c8>
    112c:	390002c1 	strb	w1, [x22]
    1130:	910006d6 	add	x22, x22, #0x1
    1134:	17ffff44 	b	e44 <__vsnprintf+0x7c8>
/home/lagadanu/Desktop/qemu/optee_os/lib/libutils/ext/snprintk.c:584
    1138:	360fe875 	tbz	w21, #1, e44 <__vsnprintf+0x7c8>
/home/lagadanu/Desktop/qemu/optee_os/lib/libutils/ext/snprintk.c:585
    113c:	b4ffe836 	cbz	x22, e40 <__vsnprintf+0x7c4>
    1140:	eb16035f 	cmp	x26, x22
    1144:	54ffe809 	b.ls	e44 <__vsnprintf+0x7c8>
    1148:	52800601 	mov	w1, #0x30                  	// #48
    114c:	390002c1 	strb	w1, [x22]
/home/lagadanu/Desktop/qemu/optee_os/lib/libutils/ext/snprintk.c:586
    1150:	b10006c1 	adds	x1, x22, #0x1
    1154:	54ffe760 	b.eq	e40 <__vsnprintf+0x7c4>
    1158:	eb01035f 	cmp	x26, x1
    115c:	54000089 	b.ls	116c <__vsnprintf+0xaf0>
    1160:	390006c8 	strb	w8, [x22,#1]
    1164:	91000ad6 	add	x22, x22, #0x2
    1168:	17ffff37 	b	e44 <__vsnprintf+0x7c8>
    116c:	aa0103f6 	mov	x22, x1
    1170:	17ffff35 	b	e44 <__vsnprintf+0x7c8>
/home/lagadanu/Desktop/qemu/optee_os/lib/libutils/ext/snprintk.c:593
    1174:	b40000b6 	cbz	x22, 1188 <__vsnprintf+0xb0c>
    1178:	eb16035f 	cmp	x26, x22
    117c:	54000069 	b.ls	1188 <__vsnprintf+0xb0c>
    1180:	390002c2 	strb	w2, [x22]
    1184:	910006d6 	add	x22, x22, #0x1
    1188:	51000421 	sub	w1, w1, #0x1
    118c:	17ffff32 	b	e54 <__vsnprintf+0x7d8>
/home/lagadanu/Desktop/qemu/optee_os/lib/libutils/ext/snprintk.c:599
    1190:	b40000b6 	cbz	x22, 11a4 <__vsnprintf+0xb28>
    1194:	eb16035f 	cmp	x26, x22
    1198:	54000069 	b.ls	11a4 <__vsnprintf+0xb28>
    119c:	390002c1 	strb	w1, [x22]
    11a0:	910006d6 	add	x22, x22, #0x1
    11a4:	51000400 	sub	w0, w0, #0x1
    11a8:	17ffff2f 	b	e64 <__vsnprintf+0x7e8>
/home/lagadanu/Desktop/qemu/optee_os/lib/libutils/ext/snprintk.c:603
    11ac:	b40000d6 	cbz	x22, 11c4 <__vsnprintf+0xb48>
    11b0:	eb16035f 	cmp	x26, x22
    11b4:	54000089 	b.ls	11c4 <__vsnprintf+0xb48>
    11b8:	39400060 	ldrb	w0, [x3]
    11bc:	910006d6 	add	x22, x22, #0x1
    11c0:	381ff2c0 	sturb	w0, [x22,#-1]
/home/lagadanu/Desktop/qemu/optee_os/lib/libutils/ext/snprintk.c:602
    11c4:	91000463 	add	x3, x3, #0x1
    11c8:	17ffff2a 	b	e70 <__vsnprintf+0x7f4>
__vsnprintf():
/home/lagadanu/Desktop/qemu/optee_os/lib/libutils/ext/snprintk.c:143
    11cc:	f94047a0 	ldr	x0, [x29,#136]
    11d0:	f100001f 	cmp	x0, #0x0
    11d4:	f94043a0 	ldr	x0, [x29,#128]
    11d8:	fa401804 	ccmp	x0, #0x0, #0x4, ne
    11dc:	540000c0 	b.eq	11f4 <__vsnprintf+0xb78>
/home/lagadanu/Desktop/qemu/optee_os/lib/libutils/ext/snprintk.c:145
    11e0:	f94043a1 	ldr	x1, [x29,#128]
    11e4:	93407f60 	sxtw	x0, w27
    11e8:	eb00003f 	cmp	x1, x0
    11ec:	54000168 	b.hi	1218 <__vsnprintf+0xb9c>
/home/lagadanu/Desktop/qemu/optee_os/lib/libutils/ext/snprintk.c:146
    11f0:	381ff35f 	sturb	wzr, [x26,#-1]
/home/lagadanu/Desktop/qemu/optee_os/lib/libutils/ext/snprintk.c:151
    11f4:	2a1b03e0 	mov	w0, w27
    11f8:	a94453f3 	ldp	x19, x20, [sp,#64]
    11fc:	a9455bf5 	ldp	x21, x22, [sp,#80]
    1200:	a94663f7 	ldp	x23, x24, [sp,#96]
    1204:	a9476bf9 	ldp	x25, x26, [sp,#112]
    1208:	a94873fb 	ldp	x27, x28, [sp,#128]
    120c:	a9437bfd 	ldp	x29, x30, [sp,#48]
    1210:	9103c3ff 	add	sp, sp, #0xf0
    1214:	d65f03c0 	ret
/home/lagadanu/Desktop/qemu/optee_os/lib/libutils/ext/snprintk.c:148
    1218:	f94047a1 	ldr	x1, [x29,#136]
    121c:	3820683f 	strb	wzr, [x1,x0]
/home/lagadanu/Desktop/qemu/optee_os/lib/libutils/ext/snprintk.c:150
    1220:	17fffff5 	b	11f4 <__vsnprintf+0xb78>

0000000000001224 <vsnprintk>:
vsnprintk():
/home/lagadanu/Desktop/qemu/optee_os/lib/libutils/ext/snprintk.c:129
    1224:	a9bb7bfd 	stp	x29, x30, [sp,#-80]!
    1228:	910003fd 	mov	x29, sp
    122c:	a90153f3 	stp	x19, x20, [sp,#16]
    1230:	aa0003f3 	mov	x19, x0
    1234:	f90013f5 	str	x21, [sp,#32]
    1238:	aa0103f4 	mov	x20, x1
    123c:	aa0203f5 	mov	x21, x2
/home/lagadanu/Desktop/qemu/optee_os/lib/libutils/ext/snprintk.c:130
    1240:	aa0303e1 	mov	x1, x3
    1244:	9100c3a0 	add	x0, x29, #0x30
    1248:	d2800402 	mov	x2, #0x20                  	// #32
    124c:	94000033 	bl	1318 <memcpy>
    1250:	aa0003e3 	mov	x3, x0
    1254:	aa1503e2 	mov	x2, x21
    1258:	aa1403e1 	mov	x1, x20
    125c:	52800024 	mov	w4, #0x1                   	// #1
    1260:	aa1303e0 	mov	x0, x19
    1264:	97fffd06 	bl	67c <__vsnprintf>
/home/lagadanu/Desktop/qemu/optee_os/lib/libutils/ext/snprintk.c:131
    1268:	f94013f5 	ldr	x21, [sp,#32]
    126c:	a94153f3 	ldp	x19, x20, [sp,#16]
    1270:	a8c57bfd 	ldp	x29, x30, [sp],#80
    1274:	d65f03c0 	ret

0000000000001278 <snprintk>:
snprintk():
/home/lagadanu/Desktop/qemu/optee_os/lib/libutils/ext/snprintk.c:112
    1278:	a9b07bfd 	stp	x29, x30, [sp,#-256]!
    127c:	910003fd 	mov	x29, sp
    1280:	a90d93a3 	stp	x3, x4, [x29,#216]
/home/lagadanu/Desktop/qemu/optee_os/lib/libutils/ext/snprintk.c:116
    1284:	910403a3 	add	x3, x29, #0x100
    1288:	a9030fa3 	stp	x3, x3, [x29,#48]
    128c:	910343a3 	add	x3, x29, #0xd0
    1290:	f90023a3 	str	x3, [x29,#64]
    1294:	128004e3 	mov	w3, #0xffffffd8            	// #-40
    1298:	b9004ba3 	str	w3, [x29,#72]
    129c:	12800fe3 	mov	w3, #0xffffff80            	// #-128
    12a0:	b9004fa3 	str	w3, [x29,#76]
/home/lagadanu/Desktop/qemu/optee_os/lib/libutils/ext/snprintk.c:117
    12a4:	910043a3 	add	x3, x29, #0x10
/home/lagadanu/Desktop/qemu/optee_os/lib/libutils/ext/snprintk.c:112
    12a8:	a90e9ba5 	stp	x5, x6, [x29,#232]
/home/lagadanu/Desktop/qemu/optee_os/lib/libutils/ext/snprintk.c:117
    12ac:	a94317a4 	ldp	x4, x5, [x29,#48]
    12b0:	a90117a4 	stp	x4, x5, [x29,#16]
    12b4:	a94417a4 	ldp	x4, x5, [x29,#64]
/home/lagadanu/Desktop/qemu/optee_os/lib/libutils/ext/snprintk.c:112
    12b8:	3d8017a0 	str	q0, [x29,#80]
    12bc:	3d801ba1 	str	q1, [x29,#96]
    12c0:	3d801fa2 	str	q2, [x29,#112]
    12c4:	3d8023a3 	str	q3, [x29,#128]
    12c8:	3d8027a4 	str	q4, [x29,#144]
    12cc:	3d802ba5 	str	q5, [x29,#160]
    12d0:	3d802fa6 	str	q6, [x29,#176]
    12d4:	3d8033a7 	str	q7, [x29,#192]
    12d8:	f9007fa7 	str	x7, [x29,#248]
/home/lagadanu/Desktop/qemu/optee_os/lib/libutils/ext/snprintk.c:117
    12dc:	a90217a4 	stp	x4, x5, [x29,#32]
    12e0:	97ffffd1 	bl	1224 <vsnprintk>
/home/lagadanu/Desktop/qemu/optee_os/lib/libutils/ext/snprintk.c:121
    12e4:	a8d07bfd 	ldp	x29, x30, [sp],#256
    12e8:	d65f03c0 	ret

00000000000012ec <memchr>:
memchr():
/home/lagadanu/Desktop/qemu/optee_os/lib/libutils/isoc/newlib/memchr.c:109
    12ec:	12001c21 	and	w1, w1, #0xff
    12f0:	8b020002 	add	x2, x0, x2
/home/lagadanu/Desktop/qemu/optee_os/lib/libutils/isoc/newlib/memchr.c:153
    12f4:	eb02001f 	cmp	x0, x2
    12f8:	54000061 	b.ne	1304 <memchr+0x18>
/home/lagadanu/Desktop/qemu/optee_os/lib/libutils/isoc/newlib/memchr.c:159
    12fc:	d2800000 	mov	x0, #0x0                   	// #0
/home/lagadanu/Desktop/qemu/optee_os/lib/libutils/isoc/newlib/memchr.c:160
    1300:	d65f03c0 	ret
/home/lagadanu/Desktop/qemu/optee_os/lib/libutils/isoc/newlib/memchr.c:154
    1304:	39400003 	ldrb	w3, [x0]
    1308:	6b01007f 	cmp	w3, w1
    130c:	54ffffa0 	b.eq	1300 <memchr+0x14>
/home/lagadanu/Desktop/qemu/optee_os/lib/libutils/isoc/newlib/memchr.c:156
    1310:	91000400 	add	x0, x0, #0x1
    1314:	17fffff8 	b	12f4 <memchr+0x8>

0000000000001318 <memcpy>:
memcpy():
/home/lagadanu/Desktop/qemu/optee_os/lib/libutils/isoc/newlib/memcpy.c:94
    1318:	d2800003 	mov	x3, #0x0                   	// #0
    131c:	eb03005f 	cmp	x2, x3
    1320:	54000041 	b.ne	1328 <memcpy+0x10>
/home/lagadanu/Desktop/qemu/optee_os/lib/libutils/isoc/newlib/memcpy.c:135
    1324:	d65f03c0 	ret
/home/lagadanu/Desktop/qemu/optee_os/lib/libutils/isoc/newlib/memcpy.c:95
    1328:	38636824 	ldrb	w4, [x1,x3]
    132c:	38236804 	strb	w4, [x0,x3]
    1330:	91000463 	add	x3, x3, #0x1
    1334:	17fffffa 	b	131c <memcpy+0x4>

0000000000001338 <strlen>:
strlen():
/home/lagadanu/Desktop/qemu/optee_os/lib/libutils/isoc/newlib/strlen.c:117
    1338:	aa0003e1 	mov	x1, x0
    133c:	39400022 	ldrb	w2, [x1]
    1340:	35000062 	cbnz	w2, 134c <strlen+0x14>
/home/lagadanu/Desktop/qemu/optee_os/lib/libutils/isoc/newlib/strlen.c:120
    1344:	cb000020 	sub	x0, x1, x0
    1348:	d65f03c0 	ret
/home/lagadanu/Desktop/qemu/optee_os/lib/libutils/isoc/newlib/strlen.c:118
    134c:	91000421 	add	x1, x1, #0x1
    1350:	17fffffb 	b	133c <strlen+0x4>

0000000000001354 <trace_ext_puts>:
trace_ext_puts():
/home/lagadanu/Desktop/qemu/optee_os/lib/libutee/trace_ext.c:17
    1354:	a9be7bfd 	stp	x29, x30, [sp,#-32]!
    1358:	910003fd 	mov	x29, sp
    135c:	f9000bf3 	str	x19, [sp,#16]
    1360:	aa0003f3 	mov	x19, x0
/home/lagadanu/Desktop/qemu/optee_os/lib/libutee/trace_ext.c:18
    1364:	97fffff5 	bl	1338 <strlen>
    1368:	aa0003e1 	mov	x1, x0
    136c:	aa1303e0 	mov	x0, x19
/home/lagadanu/Desktop/qemu/optee_os/lib/libutee/trace_ext.c:19
    1370:	f9400bf3 	ldr	x19, [sp,#16]
    1374:	a8c27bfd 	ldp	x29, x30, [sp],#32
/home/lagadanu/Desktop/qemu/optee_os/lib/libutee/trace_ext.c:18
    1378:	14000e85 	b	4d8c <utee_log>

000000000000137c <trace_ext_get_thread_id>:
trace_ext_get_thread_id():
/home/lagadanu/Desktop/qemu/optee_os/lib/libutee/trace_ext.c:24
    137c:	12800000 	mov	w0, #0xffffffff            	// #-1
    1380:	d65f03c0 	ret

0000000000001384 <printf>:
printf():
/home/lagadanu/Desktop/qemu/optee_os/lib/libutee/trace_ext.c:32
    1384:	d10883ff 	sub	sp, sp, #0x220
    1388:	a9007bfd 	stp	x29, x30, [sp]
    138c:	910003fd 	mov	x29, sp
    1390:	a90153f3 	stp	x19, x20, [sp,#16]
    1394:	aa0003f3 	mov	x19, x0
    1398:	910403a0 	add	x0, x29, #0x100
    139c:	a91e8ba1 	stp	x1, x2, [x29,#488]
    13a0:	a91f93a3 	stp	x3, x4, [x29,#504]
    13a4:	f90107a5 	str	x5, [x29,#520]
    13a8:	f9010ba6 	str	x6, [x29,#528]
    13ac:	f9010fa7 	str	x7, [x29,#536]
    13b0:	3d801800 	str	q0, [x0,#96]
    13b4:	3d801c01 	str	q1, [x0,#112]
    13b8:	3d802002 	str	q2, [x0,#128]
    13bc:	3d802403 	str	q3, [x0,#144]
    13c0:	3d802804 	str	q4, [x0,#160]
    13c4:	3d802c05 	str	q5, [x0,#176]
    13c8:	3d803006 	str	q6, [x0,#192]
    13cc:	3d803407 	str	q7, [x0,#208]
/home/lagadanu/Desktop/qemu/optee_os/lib/libutee/trace_ext.c:37
    13d0:	97fffc16 	bl	428 <trace_get_level>
    13d4:	7100001f 	cmp	w0, #0x0
    13d8:	5400038d 	b.le	1448 <printf+0xc4>
/home/lagadanu/Desktop/qemu/optee_os/lib/libutee/trace_ext.c:40
    13dc:	910883a0 	add	x0, x29, #0x220
    13e0:	a90403a0 	stp	x0, x0, [x29,#64]
    13e4:	910783a0 	add	x0, x29, #0x1e0
    13e8:	f9002ba0 	str	x0, [x29,#80]
    13ec:	128006e0 	mov	w0, #0xffffffc8            	// #-56
    13f0:	b9005ba0 	str	w0, [x29,#88]
    13f4:	12800fe0 	mov	w0, #0xffffff80            	// #-128
    13f8:	b9005fa0 	str	w0, [x29,#92]
/home/lagadanu/Desktop/qemu/optee_os/lib/libutee/trace_ext.c:41
    13fc:	a94407a0 	ldp	x0, x1, [x29,#64]
    1400:	a90207a0 	stp	x0, x1, [x29,#32]
    1404:	a94507a0 	ldp	x0, x1, [x29,#80]
    1408:	910183b4 	add	x20, x29, #0x60
    140c:	a90307a0 	stp	x0, x1, [x29,#48]
    1410:	aa1303e2 	mov	x2, x19
    1414:	910083a3 	add	x3, x29, #0x20
    1418:	d2802001 	mov	x1, #0x100                 	// #256
    141c:	aa1403e0 	mov	x0, x20
    1420:	9400241c 	bl	a490 <vsnprintf>
    1424:	2a0003f3 	mov	w19, w0
/home/lagadanu/Desktop/qemu/optee_os/lib/libutee/trace_ext.c:44
    1428:	37f80060 	tbnz	w0, #31, 1434 <printf+0xb0>
/home/lagadanu/Desktop/qemu/optee_os/lib/libutee/trace_ext.c:47
    142c:	aa1403e0 	mov	x0, x20
    1430:	97ffffc9 	bl	1354 <trace_ext_puts>
/home/lagadanu/Desktop/qemu/optee_os/lib/libutee/trace_ext.c:50
    1434:	2a1303e0 	mov	w0, w19
    1438:	a94153f3 	ldp	x19, x20, [sp,#16]
    143c:	a9407bfd 	ldp	x29, x30, [sp]
    1440:	910883ff 	add	sp, sp, #0x220
    1444:	d65f03c0 	ret
/home/lagadanu/Desktop/qemu/optee_os/lib/libutee/trace_ext.c:38
    1448:	52800013 	mov	w19, #0x0                   	// #0
    144c:	17fffffa 	b	1434 <printf+0xb0>

0000000000001450 <puts>:
puts():
/home/lagadanu/Desktop/qemu/optee_os/lib/libutee/trace_ext.c:53
    1450:	a9be7bfd 	stp	x29, x30, [sp,#-32]!
    1454:	910003fd 	mov	x29, sp
    1458:	f9000bf3 	str	x19, [sp,#16]
    145c:	aa0003f3 	mov	x19, x0
/home/lagadanu/Desktop/qemu/optee_os/lib/libutee/trace_ext.c:54
    1460:	97fffbf2 	bl	428 <trace_get_level>
    1464:	7100001f 	cmp	w0, #0x0
    1468:	540000cd 	b.le	1480 <puts+0x30>
/home/lagadanu/Desktop/qemu/optee_os/lib/libutee/trace_ext.c:55
    146c:	aa1303e0 	mov	x0, x19
    1470:	97ffffb9 	bl	1354 <trace_ext_puts>
/home/lagadanu/Desktop/qemu/optee_os/lib/libutee/trace_ext.c:56
    1474:	d0000040 	adrp	x0, b000 <PRIME_TABLE+0x7f0>
    1478:	911e0800 	add	x0, x0, #0x782
    147c:	97ffffb6 	bl	1354 <trace_ext_puts>
/home/lagadanu/Desktop/qemu/optee_os/lib/libutee/trace_ext.c:59
    1480:	52800020 	mov	w0, #0x1                   	// #1
    1484:	f9400bf3 	ldr	x19, [sp,#16]
    1488:	a8c27bfd 	ldp	x29, x30, [sp],#32
    148c:	d65f03c0 	ret

0000000000001490 <putchar>:
putchar():
/home/lagadanu/Desktop/qemu/optee_os/lib/libutee/trace_ext.c:62
    1490:	a9bd7bfd 	stp	x29, x30, [sp,#-48]!
    1494:	910003fd 	mov	x29, sp
    1498:	f9000bf3 	str	x19, [sp,#16]
    149c:	2a0003f3 	mov	w19, w0
/home/lagadanu/Desktop/qemu/optee_os/lib/libutee/trace_ext.c:63
    14a0:	3900a3a0 	strb	w0, [x29,#40]
    14a4:	3900a7bf 	strb	wzr, [x29,#41]
/home/lagadanu/Desktop/qemu/optee_os/lib/libutee/trace_ext.c:65
    14a8:	97fffbe0 	bl	428 <trace_get_level>
    14ac:	7100001f 	cmp	w0, #0x0
    14b0:	5400006d 	b.le	14bc <putchar+0x2c>
/home/lagadanu/Desktop/qemu/optee_os/lib/libutee/trace_ext.c:66
    14b4:	9100a3a0 	add	x0, x29, #0x28
    14b8:	97ffffa7 	bl	1354 <trace_ext_puts>
/home/lagadanu/Desktop/qemu/optee_os/lib/libutee/trace_ext.c:73
    14bc:	12001e60 	and	w0, w19, #0xff
    14c0:	f9400bf3 	ldr	x19, [sp,#16]
    14c4:	a8c37bfd 	ldp	x29, x30, [sp],#48
    14c8:	d65f03c0 	ret

00000000000014cc <__utee_from_param>:
__utee_from_param():
/home/lagadanu/Desktop/qemu/optee_os/lib/libutee/tee_api.c:25
    14cc:	b0000045 	adrp	x5, a000 <memalign+0x2ac>
    14d0:	911f00a5 	add	x5, x5, #0x7c0
/home/lagadanu/Desktop/qemu/optee_os/lib/libutee/tee_api.c:23
    14d4:	2a0103e3 	mov	w3, w1
    14d8:	52800004 	mov	w4, #0x0                   	// #0
    14dc:	f8008403 	str	x3, [x0],#8
/home/lagadanu/Desktop/qemu/optee_os/lib/libutee/tee_api.c:25
    14e0:	1ac42423 	lsr	w3, w1, w4
    14e4:	12000c63 	and	w3, w3, #0xf
    14e8:	51000463 	sub	w3, w3, #0x1
    14ec:	7100187f 	cmp	w3, #0x6
    14f0:	54000268 	b.hi	153c <__utee_from_param+0x70>
    14f4:	386348a3 	ldrb	w3, [x5,w3,uxtw]
    14f8:	10000066 	adr	x6, 1504 <__utee_from_param+0x38>
    14fc:	8b2388c3 	add	x3, x6, w3, sxtb #2
    1500:	d61f0060 	br	x3
/home/lagadanu/Desktop/qemu/optee_os/lib/libutee/tee_api.c:29
    1504:	b9400043 	ldr	w3, [x2]
    1508:	f9000003 	str	x3, [x0]
/home/lagadanu/Desktop/qemu/optee_os/lib/libutee/tee_api.c:30
    150c:	b9400443 	ldr	w3, [x2,#4]
/home/lagadanu/Desktop/qemu/optee_os/lib/libutee/tee_api.c:36
    1510:	f9000403 	str	x3, [x0,#8]
    1514:	11001084 	add	w4, w4, #0x4
    1518:	91004042 	add	x2, x2, #0x10
    151c:	91004000 	add	x0, x0, #0x10
/home/lagadanu/Desktop/qemu/optee_os/lib/libutee/tee_api.c:24 (discriminator 2)
    1520:	7100409f 	cmp	w4, #0x10
    1524:	54fffde1 	b.ne	14e0 <__utee_from_param+0x14>
/home/lagadanu/Desktop/qemu/optee_os/lib/libutee/tee_api.c:44
    1528:	d65f03c0 	ret
/home/lagadanu/Desktop/qemu/optee_os/lib/libutee/tee_api.c:35
    152c:	f9400043 	ldr	x3, [x2]
    1530:	f9000003 	str	x3, [x0]
/home/lagadanu/Desktop/qemu/optee_os/lib/libutee/tee_api.c:36
    1534:	b9400843 	ldr	w3, [x2,#8]
    1538:	17fffff6 	b	1510 <__utee_from_param+0x44>
/home/lagadanu/Desktop/qemu/optee_os/lib/libutee/tee_api.c:40
    153c:	a9007c1f 	stp	xzr, xzr, [x0]
/home/lagadanu/Desktop/qemu/optee_os/lib/libutee/tee_api.c:41
    1540:	17fffff5 	b	1514 <__utee_from_param+0x48>

0000000000001544 <__utee_to_param>:
__utee_to_param():
/home/lagadanu/Desktop/qemu/optee_os/lib/libutee/tee_api.c:50
    1544:	f8408446 	ldr	x6, [x2],#8
/home/lagadanu/Desktop/qemu/optee_os/lib/libutee/tee_api.c:56
    1548:	b0000045 	adrp	x5, a000 <memalign+0x2ac>
    154c:	911f20a5 	add	x5, x5, #0x7c8
/home/lagadanu/Desktop/qemu/optee_os/lib/libutee/tee_api.c:50
    1550:	52800004 	mov	w4, #0x0                   	// #0
    1554:	2a0603e9 	mov	w9, w6
/home/lagadanu/Desktop/qemu/optee_os/lib/libutee/tee_api.c:56
    1558:	1ac42523 	lsr	w3, w9, w4
    155c:	12000c63 	and	w3, w3, #0xf
    1560:	51000463 	sub	w3, w3, #0x1
    1564:	7100187f 	cmp	w3, #0x6
/home/lagadanu/Desktop/qemu/optee_os/lib/libutee/tee_api.c:54
    1568:	a9401c48 	ldp	x8, x7, [x2]
/home/lagadanu/Desktop/qemu/optee_os/lib/libutee/tee_api.c:56
    156c:	540000c8 	b.hi	1584 <__utee_to_param+0x40>
    1570:	386348a3 	ldrb	w3, [x5,w3,uxtw]
    1574:	1000006a 	adr	x10, 1580 <__utee_to_param+0x3c>
    1578:	8b238943 	add	x3, x10, w3, sxtb #2
    157c:	d61f0060 	br	x3
/home/lagadanu/Desktop/qemu/optee_os/lib/libutee/tee_api.c:61
    1580:	29001c08 	stp	w8, w7, [x0]
    1584:	11001084 	add	w4, w4, #0x4
    1588:	91004042 	add	x2, x2, #0x10
    158c:	91004000 	add	x0, x0, #0x10
/home/lagadanu/Desktop/qemu/optee_os/lib/libutee/tee_api.c:52 (discriminator 2)
    1590:	7100409f 	cmp	w4, #0x10
    1594:	54fffe21 	b.ne	1558 <__utee_to_param+0x14>
/home/lagadanu/Desktop/qemu/optee_os/lib/libutee/tee_api.c:74
    1598:	b4000041 	cbz	x1, 15a0 <__utee_to_param+0x5c>
/home/lagadanu/Desktop/qemu/optee_os/lib/libutee/tee_api.c:75
    159c:	b9000026 	str	w6, [x1]
    15a0:	d65f03c0 	ret
/home/lagadanu/Desktop/qemu/optee_os/lib/libutee/tee_api.c:66
    15a4:	f9000008 	str	x8, [x0]
/home/lagadanu/Desktop/qemu/optee_os/lib/libutee/tee_api.c:67
    15a8:	b9000807 	str	w7, [x0,#8]
/home/lagadanu/Desktop/qemu/optee_os/lib/libutee/tee_api.c:68
    15ac:	17fffff6 	b	1584 <__utee_to_param+0x40>

00000000000015b0 <TEE_OpenTASession>:
TEE_OpenTASession():
/home/lagadanu/Desktop/qemu/optee_os/lib/libutee/tee_api.c:84
    15b0:	a9b77bfd 	stp	x29, x30, [sp,#-144]!
    15b4:	910003fd 	mov	x29, sp
    15b8:	a90153f3 	stp	x19, x20, [sp,#16]
/home/lagadanu/Desktop/qemu/optee_os/lib/libutee/tee_api.c:89
    15bc:	910123b3 	add	x19, x29, #0x48
/home/lagadanu/Desktop/qemu/optee_os/lib/libutee/tee_api.c:84
    15c0:	a9025bf5 	stp	x21, x22, [sp,#32]
    15c4:	aa0303f4 	mov	x20, x3
    15c8:	a90363f7 	stp	x23, x24, [sp,#48]
    15cc:	aa0003f6 	mov	x22, x0
    15d0:	aa0503f8 	mov	x24, x5
    15d4:	2a0103f7 	mov	w23, w1
    15d8:	aa0403f5 	mov	x21, x4
    15dc:	2a0203e1 	mov	w1, w2
/home/lagadanu/Desktop/qemu/optee_os/lib/libutee/tee_api.c:89
    15e0:	aa1303e0 	mov	x0, x19
    15e4:	aa0303e2 	mov	x2, x3
    15e8:	97ffffb9 	bl	14cc <__utee_from_param>
/home/lagadanu/Desktop/qemu/optee_os/lib/libutee/tee_api.c:90
    15ec:	aa1803e4 	mov	x4, x24
    15f0:	910113a3 	add	x3, x29, #0x44
    15f4:	aa1303e2 	mov	x2, x19
    15f8:	2a1703e1 	mov	w1, w23
    15fc:	aa1603e0 	mov	x0, x22
    1600:	94000def 	bl	4dbc <utee_open_ta_session>
/home/lagadanu/Desktop/qemu/optee_os/lib/libutee/tee_api.c:92
    1604:	aa1303e2 	mov	x2, x19
/home/lagadanu/Desktop/qemu/optee_os/lib/libutee/tee_api.c:90
    1608:	2a0003f6 	mov	w22, w0
/home/lagadanu/Desktop/qemu/optee_os/lib/libutee/tee_api.c:92
    160c:	d2800001 	mov	x1, #0x0                   	// #0
    1610:	aa1403e0 	mov	x0, x20
    1614:	97ffffcc 	bl	1544 <__utee_to_param>
/home/lagadanu/Desktop/qemu/optee_os/lib/libutee/tee_api.c:98
    1618:	34000056 	cbz	w22, 1620 <TEE_OpenTASession+0x70>
/home/lagadanu/Desktop/qemu/optee_os/lib/libutee/tee_api.c:99
    161c:	b90047bf 	str	wzr, [x29,#68]
/home/lagadanu/Desktop/qemu/optee_os/lib/libutee/tee_api.c:101
    1620:	b94047a0 	ldr	w0, [x29,#68]
/home/lagadanu/Desktop/qemu/optee_os/lib/libutee/tee_api.c:103
    1624:	a94153f3 	ldp	x19, x20, [sp,#16]
    1628:	a94363f7 	ldp	x23, x24, [sp,#48]
/home/lagadanu/Desktop/qemu/optee_os/lib/libutee/tee_api.c:101
    162c:	f90002a0 	str	x0, [x21]
/home/lagadanu/Desktop/qemu/optee_os/lib/libutee/tee_api.c:103
    1630:	2a1603e0 	mov	w0, w22
    1634:	a9425bf5 	ldp	x21, x22, [sp,#32]
    1638:	a8c97bfd 	ldp	x29, x30, [sp],#144
    163c:	d65f03c0 	ret

0000000000001640 <TEE_CloseTASession>:
TEE_CloseTASession():
/home/lagadanu/Desktop/qemu/optee_os/lib/libutee/tee_api.c:107
    1640:	b4000120 	cbz	x0, 1664 <TEE_CloseTASession+0x24>
/home/lagadanu/Desktop/qemu/optee_os/lib/libutee/tee_api.c:106
    1644:	a9bf7bfd 	stp	x29, x30, [sp,#-16]!
    1648:	910003fd 	mov	x29, sp
/home/lagadanu/Desktop/qemu/optee_os/lib/libutee/tee_api.c:108
    164c:	94000ddf 	bl	4dc8 <utee_close_ta_session>
/home/lagadanu/Desktop/qemu/optee_os/lib/libutee/tee_api.c:110
    1650:	34000060 	cbz	w0, 165c <TEE_CloseTASession+0x1c>
/home/lagadanu/Desktop/qemu/optee_os/lib/libutee/tee_api.c:113
    1654:	a8c17bfd 	ldp	x29, x30, [sp],#16
/home/lagadanu/Desktop/qemu/optee_os/lib/libutee/tee_api.c:111
    1658:	14000d14 	b	4aa8 <TEE_Panic>
/home/lagadanu/Desktop/qemu/optee_os/lib/libutee/tee_api.c:113
    165c:	a8c17bfd 	ldp	x29, x30, [sp],#16
    1660:	d65f03c0 	ret
    1664:	d65f03c0 	ret

0000000000001668 <TEE_InvokeTACommand>:
TEE_InvokeTACommand():
/home/lagadanu/Desktop/qemu/optee_os/lib/libutee/tee_api.c:120
    1668:	a9b77bfd 	stp	x29, x30, [sp,#-144]!
    166c:	910003fd 	mov	x29, sp
    1670:	a90153f3 	stp	x19, x20, [sp,#16]
/home/lagadanu/Desktop/qemu/optee_os/lib/libutee/tee_api.c:125
    1674:	910123b4 	add	x20, x29, #0x48
/home/lagadanu/Desktop/qemu/optee_os/lib/libutee/tee_api.c:120
    1678:	a9025bf5 	stp	x21, x22, [sp,#32]
    167c:	aa0003f3 	mov	x19, x0
    1680:	a90363f7 	stp	x23, x24, [sp,#48]
    1684:	aa0403f6 	mov	x22, x4
    1688:	aa0503f5 	mov	x21, x5
    168c:	2a0103f7 	mov	w23, w1
    1690:	2a0203f8 	mov	w24, w2
/home/lagadanu/Desktop/qemu/optee_os/lib/libutee/tee_api.c:125
    1694:	2a0303e1 	mov	w1, w3
    1698:	aa0403e2 	mov	x2, x4
    169c:	aa1403e0 	mov	x0, x20
    16a0:	97ffff8b 	bl	14cc <__utee_from_param>
/home/lagadanu/Desktop/qemu/optee_os/lib/libutee/tee_api.c:126
    16a4:	910113a4 	add	x4, x29, #0x44
    16a8:	aa1403e3 	mov	x3, x20
    16ac:	2a1803e2 	mov	w2, w24
    16b0:	2a1703e1 	mov	w1, w23
    16b4:	aa1303e0 	mov	x0, x19
    16b8:	94000dc7 	bl	4dd4 <utee_invoke_ta_command>
/home/lagadanu/Desktop/qemu/optee_os/lib/libutee/tee_api.c:129
    16bc:	aa1403e2 	mov	x2, x20
/home/lagadanu/Desktop/qemu/optee_os/lib/libutee/tee_api.c:126
    16c0:	2a0003f3 	mov	w19, w0
/home/lagadanu/Desktop/qemu/optee_os/lib/libutee/tee_api.c:129
    16c4:	d2800001 	mov	x1, #0x0                   	// #0
    16c8:	aa1603e0 	mov	x0, x22
    16cc:	97ffff9e 	bl	1544 <__utee_to_param>
    16d0:	b94047a0 	ldr	w0, [x29,#68]
/home/lagadanu/Desktop/qemu/optee_os/lib/libutee/tee_api.c:131
    16d4:	b4000055 	cbz	x21, 16dc <TEE_InvokeTACommand+0x74>
/home/lagadanu/Desktop/qemu/optee_os/lib/libutee/tee_api.c:132
    16d8:	b90002a0 	str	w0, [x21]
/home/lagadanu/Desktop/qemu/optee_os/lib/libutee/tee_api.c:134
    16dc:	7100101f 	cmp	w0, #0x4
    16e0:	54000120 	b.eq	1704 <TEE_InvokeTACommand+0x9c>
/home/lagadanu/Desktop/qemu/optee_os/lib/libutee/tee_api.c:138
    16e4:	7100027f 	cmp	w19, #0x0
    16e8:	129ffe60 	mov	w0, #0xffff000c            	// #-65524
    16ec:	7a401264 	ccmp	w19, w0, #0x4, ne
    16f0:	1299fb60 	mov	w0, #0xffff3024            	// #-53212
    16f4:	7a401264 	ccmp	w19, w0, #0x4, ne
    16f8:	54000060 	b.eq	1704 <TEE_InvokeTACommand+0x9c>
/home/lagadanu/Desktop/qemu/optee_os/lib/libutee/tee_api.c:140
    16fc:	2a1303e0 	mov	w0, w19
    1700:	94000cea 	bl	4aa8 <TEE_Panic>
/home/lagadanu/Desktop/qemu/optee_os/lib/libutee/tee_api.c:143
    1704:	2a1303e0 	mov	w0, w19
    1708:	a94153f3 	ldp	x19, x20, [sp,#16]
    170c:	a9425bf5 	ldp	x21, x22, [sp,#32]
    1710:	a94363f7 	ldp	x23, x24, [sp,#48]
    1714:	a8c97bfd 	ldp	x29, x30, [sp],#144
    1718:	d65f03c0 	ret

000000000000171c <TEE_GetCancellationFlag>:
TEE_GetCancellationFlag():
/home/lagadanu/Desktop/qemu/optee_os/lib/libutee/tee_api.c:148
    171c:	a9be7bfd 	stp	x29, x30, [sp,#-32]!
    1720:	910003fd 	mov	x29, sp
/home/lagadanu/Desktop/qemu/optee_os/lib/libutee/tee_api.c:150
    1724:	910073a0 	add	x0, x29, #0x1c
    1728:	94000dae 	bl	4de0 <utee_get_cancellation_flag>
/home/lagadanu/Desktop/qemu/optee_os/lib/libutee/tee_api.c:152
    172c:	34000040 	cbz	w0, 1734 <TEE_GetCancellationFlag+0x18>
/home/lagadanu/Desktop/qemu/optee_os/lib/libutee/tee_api.c:153
    1730:	b9001fbf 	str	wzr, [x29,#28]
/home/lagadanu/Desktop/qemu/optee_os/lib/libutee/tee_api.c:154
    1734:	b9401fa0 	ldr	w0, [x29,#28]
/home/lagadanu/Desktop/qemu/optee_os/lib/libutee/tee_api.c:155
    1738:	a8c27bfd 	ldp	x29, x30, [sp],#32
/home/lagadanu/Desktop/qemu/optee_os/lib/libutee/tee_api.c:154
    173c:	7100001f 	cmp	w0, #0x0
/home/lagadanu/Desktop/qemu/optee_os/lib/libutee/tee_api.c:155
    1740:	1a9f07e0 	cset	w0, ne
    1744:	d65f03c0 	ret

0000000000001748 <TEE_UnmaskCancellation>:
TEE_UnmaskCancellation():
/home/lagadanu/Desktop/qemu/optee_os/lib/libutee/tee_api.c:158
    1748:	a9be7bfd 	stp	x29, x30, [sp,#-32]!
    174c:	910003fd 	mov	x29, sp
/home/lagadanu/Desktop/qemu/optee_os/lib/libutee/tee_api.c:160
    1750:	910073a0 	add	x0, x29, #0x1c
    1754:	94000da9 	bl	4df8 <utee_unmask_cancellation>
/home/lagadanu/Desktop/qemu/optee_os/lib/libutee/tee_api.c:162
    1758:	34000040 	cbz	w0, 1760 <TEE_UnmaskCancellation+0x18>
/home/lagadanu/Desktop/qemu/optee_os/lib/libutee/tee_api.c:163
    175c:	94000cd3 	bl	4aa8 <TEE_Panic>
/home/lagadanu/Desktop/qemu/optee_os/lib/libutee/tee_api.c:164
    1760:	b9401fa0 	ldr	w0, [x29,#28]
/home/lagadanu/Desktop/qemu/optee_os/lib/libutee/tee_api.c:165
    1764:	a8c27bfd 	ldp	x29, x30, [sp],#32
/home/lagadanu/Desktop/qemu/optee_os/lib/libutee/tee_api.c:164
    1768:	7100001f 	cmp	w0, #0x0
/home/lagadanu/Desktop/qemu/optee_os/lib/libutee/tee_api.c:165
    176c:	1a9f07e0 	cset	w0, ne
    1770:	d65f03c0 	ret

0000000000001774 <TEE_MaskCancellation>:
TEE_MaskCancellation():
/home/lagadanu/Desktop/qemu/optee_os/lib/libutee/tee_api.c:168
    1774:	a9be7bfd 	stp	x29, x30, [sp,#-32]!
    1778:	910003fd 	mov	x29, sp
/home/lagadanu/Desktop/qemu/optee_os/lib/libutee/tee_api.c:170
    177c:	910073a0 	add	x0, x29, #0x1c
    1780:	94000da1 	bl	4e04 <utee_mask_cancellation>
/home/lagadanu/Desktop/qemu/optee_os/lib/libutee/tee_api.c:172
    1784:	34000040 	cbz	w0, 178c <TEE_MaskCancellation+0x18>
/home/lagadanu/Desktop/qemu/optee_os/lib/libutee/tee_api.c:173
    1788:	94000cc8 	bl	4aa8 <TEE_Panic>
/home/lagadanu/Desktop/qemu/optee_os/lib/libutee/tee_api.c:174
    178c:	b9401fa0 	ldr	w0, [x29,#28]
/home/lagadanu/Desktop/qemu/optee_os/lib/libutee/tee_api.c:175
    1790:	a8c27bfd 	ldp	x29, x30, [sp],#32
/home/lagadanu/Desktop/qemu/optee_os/lib/libutee/tee_api.c:174
    1794:	7100001f 	cmp	w0, #0x0
/home/lagadanu/Desktop/qemu/optee_os/lib/libutee/tee_api.c:175
    1798:	1a9f07e0 	cset	w0, ne
    179c:	d65f03c0 	ret

00000000000017a0 <TEE_CheckMemoryAccessRights>:
TEE_CheckMemoryAccessRights():
/home/lagadanu/Desktop/qemu/optee_os/lib/libutee/tee_api.c:184
    17a0:	34000062 	cbz	w2, 17ac <TEE_CheckMemoryAccessRights+0xc>
/home/lagadanu/Desktop/qemu/optee_os/lib/libutee/tee_api.c:188
    17a4:	2a0203e2 	mov	w2, w2
    17a8:	14000d91 	b	4dec <utee_check_access_rights>
/home/lagadanu/Desktop/qemu/optee_os/lib/libutee/tee_api.c:200
    17ac:	52800000 	mov	w0, #0x0                   	// #0
    17b0:	d65f03c0 	ret

00000000000017b4 <TEE_SetInstanceData>:
TEE_SetInstanceData():
/home/lagadanu/Desktop/qemu/optee_os/lib/libutee/tee_api.c:204
    17b4:	900000a1 	adrp	x1, 15000 <ta_heap+0x7e98>
    17b8:	f900b420 	str	x0, [x1,#360]
    17bc:	d65f03c0 	ret

00000000000017c0 <TEE_GetInstanceData>:
TEE_GetInstanceData():
/home/lagadanu/Desktop/qemu/optee_os/lib/libutee/tee_api.c:210
    17c0:	900000a0 	adrp	x0, 15000 <ta_heap+0x7e98>
    17c4:	f940b400 	ldr	x0, [x0,#360]
    17c8:	d65f03c0 	ret

00000000000017cc <TEE_MemMove>:
TEE_MemMove():
/home/lagadanu/Desktop/qemu/optee_os/lib/libutee/tee_api.c:214
    17cc:	2a0203e2 	mov	w2, w2
    17d0:	14002352 	b	a518 <memmove>

00000000000017d4 <TEE_MemCompare>:
TEE_MemCompare():
/home/lagadanu/Desktop/qemu/optee_os/lib/libutee/tee_api.c:219
    17d4:	2a0203e2 	mov	w2, w2
    17d8:	14002343 	b	a4e4 <memcmp>

00000000000017dc <TEE_MemFill>:
TEE_MemFill():
/home/lagadanu/Desktop/qemu/optee_os/lib/libutee/tee_api.c:224
    17dc:	2a0203e2 	mov	w2, w2
    17e0:	14002361 	b	a564 <memset>

00000000000017e4 <TEE_GetSystemTime>:
TEE_GetSystemTime():
/home/lagadanu/Desktop/qemu/optee_os/lib/libutee/tee_api.c:230
    17e4:	a9bf7bfd 	stp	x29, x30, [sp,#-16]!
/home/lagadanu/Desktop/qemu/optee_os/lib/libutee/tee_api.c:231
    17e8:	aa0003e1 	mov	x1, x0
    17ec:	d2800000 	mov	x0, #0x0                   	// #0
/home/lagadanu/Desktop/qemu/optee_os/lib/libutee/tee_api.c:230
    17f0:	910003fd 	mov	x29, sp
/home/lagadanu/Desktop/qemu/optee_os/lib/libutee/tee_api.c:231
    17f4:	94000d8a 	bl	4e1c <utee_get_time>
/home/lagadanu/Desktop/qemu/optee_os/lib/libutee/tee_api.c:233
    17f8:	34000060 	cbz	w0, 1804 <TEE_GetSystemTime+0x20>
/home/lagadanu/Desktop/qemu/optee_os/lib/libutee/tee_api.c:235
    17fc:	a8c17bfd 	ldp	x29, x30, [sp],#16
/home/lagadanu/Desktop/qemu/optee_os/lib/libutee/tee_api.c:234
    1800:	14000caa 	b	4aa8 <TEE_Panic>
/home/lagadanu/Desktop/qemu/optee_os/lib/libutee/tee_api.c:235
    1804:	a8c17bfd 	ldp	x29, x30, [sp],#16
    1808:	d65f03c0 	ret

000000000000180c <TEE_Wait>:
TEE_Wait():
/home/lagadanu/Desktop/qemu/optee_os/lib/libutee/tee_api.c:238
    180c:	a9be7bfd 	stp	x29, x30, [sp,#-32]!
/home/lagadanu/Desktop/qemu/optee_os/lib/libutee/tee_api.c:239
    1810:	2a0003e0 	mov	w0, w0
/home/lagadanu/Desktop/qemu/optee_os/lib/libutee/tee_api.c:238
    1814:	910003fd 	mov	x29, sp
    1818:	f9000bf3 	str	x19, [sp,#16]
/home/lagadanu/Desktop/qemu/optee_os/lib/libutee/tee_api.c:239
    181c:	94000d7d 	bl	4e10 <utee_wait>
/home/lagadanu/Desktop/qemu/optee_os/lib/libutee/tee_api.c:241
    1820:	7100001f 	cmp	w0, #0x0
    1824:	129fffa1 	mov	w1, #0xffff0002            	// #-65534
/home/lagadanu/Desktop/qemu/optee_os/lib/libutee/tee_api.c:239
    1828:	2a0003f3 	mov	w19, w0
/home/lagadanu/Desktop/qemu/optee_os/lib/libutee/tee_api.c:241
    182c:	7a411004 	ccmp	w0, w1, #0x4, ne
    1830:	54000040 	b.eq	1838 <TEE_Wait+0x2c>
/home/lagadanu/Desktop/qemu/optee_os/lib/libutee/tee_api.c:242
    1834:	94000c9d 	bl	4aa8 <TEE_Panic>
/home/lagadanu/Desktop/qemu/optee_os/lib/libutee/tee_api.c:245
    1838:	2a1303e0 	mov	w0, w19
    183c:	f9400bf3 	ldr	x19, [sp,#16]
    1840:	a8c27bfd 	ldp	x29, x30, [sp],#32
    1844:	d65f03c0 	ret

0000000000001848 <TEE_GetTAPersistentTime>:
TEE_GetTAPersistentTime():
/home/lagadanu/Desktop/qemu/optee_os/lib/libutee/tee_api.c:248
    1848:	a9be7bfd 	stp	x29, x30, [sp,#-32]!
/home/lagadanu/Desktop/qemu/optee_os/lib/libutee/tee_api.c:251
    184c:	aa0003e1 	mov	x1, x0
/home/lagadanu/Desktop/qemu/optee_os/lib/libutee/tee_api.c:248
    1850:	910003fd 	mov	x29, sp
    1854:	a90153f3 	stp	x19, x20, [sp,#16]
    1858:	aa0003f4 	mov	x20, x0
/home/lagadanu/Desktop/qemu/optee_os/lib/libutee/tee_api.c:251
    185c:	d2800020 	mov	x0, #0x1                   	// #1
    1860:	94000d6f 	bl	4e1c <utee_get_time>
/home/lagadanu/Desktop/qemu/optee_os/lib/libutee/tee_api.c:253
    1864:	7100001f 	cmp	w0, #0x0
/home/lagadanu/Desktop/qemu/optee_os/lib/libutee/tee_api.c:251
    1868:	2a0003f3 	mov	w19, w0
/home/lagadanu/Desktop/qemu/optee_os/lib/libutee/tee_api.c:253
    186c:	1a9f07e1 	cset	w1, ne
    1870:	1299fe00 	mov	w0, #0xffff300f            	// #-53233
    1874:	6b00027f 	cmp	w19, w0
    1878:	1a9f07e0 	cset	w0, ne
    187c:	6a00003f 	tst	w1, w0
    1880:	54000040 	b.eq	1888 <TEE_GetTAPersistentTime+0x40>
/home/lagadanu/Desktop/qemu/optee_os/lib/libutee/tee_api.c:255
    1884:	29007e9f 	stp	wzr, wzr, [x20]
/home/lagadanu/Desktop/qemu/optee_os/lib/libutee/tee_api.c:259
    1888:	11402e62 	add	w2, w19, #0xb, lsl #12
    188c:	7100045f 	cmp	w2, #0x1
    1890:	1a9f97e2 	cset	w2, hi
/home/lagadanu/Desktop/qemu/optee_os/lib/libutee/tee_api.c:258
    1894:	6a02003f 	tst	w1, w2
    1898:	54000100 	b.eq	18b8 <TEE_GetTAPersistentTime+0x70>
/home/lagadanu/Desktop/qemu/optee_os/lib/libutee/tee_api.c:261
    189c:	129ffe61 	mov	w1, #0xffff000c            	// #-65524
    18a0:	6b01027f 	cmp	w19, w1
    18a4:	1a9f07e1 	cset	w1, ne
    18a8:	6a01001f 	tst	w0, w1
    18ac:	54000060 	b.eq	18b8 <TEE_GetTAPersistentTime+0x70>
/home/lagadanu/Desktop/qemu/optee_os/lib/libutee/tee_api.c:263
    18b0:	2a1303e0 	mov	w0, w19
    18b4:	94000c7d 	bl	4aa8 <TEE_Panic>
/home/lagadanu/Desktop/qemu/optee_os/lib/libutee/tee_api.c:266
    18b8:	2a1303e0 	mov	w0, w19
    18bc:	a94153f3 	ldp	x19, x20, [sp,#16]
    18c0:	a8c27bfd 	ldp	x29, x30, [sp],#32
    18c4:	d65f03c0 	ret

00000000000018c8 <TEE_SetTAPersistentTime>:
TEE_SetTAPersistentTime():
/home/lagadanu/Desktop/qemu/optee_os/lib/libutee/tee_api.c:269
    18c8:	a9be7bfd 	stp	x29, x30, [sp,#-32]!
    18cc:	910003fd 	mov	x29, sp
    18d0:	f9000bf3 	str	x19, [sp,#16]
/home/lagadanu/Desktop/qemu/optee_os/lib/libutee/tee_api.c:272
    18d4:	94000d55 	bl	4e28 <utee_set_ta_time>
/home/lagadanu/Desktop/qemu/optee_os/lib/libutee/tee_api.c:275
    18d8:	7100001f 	cmp	w0, #0x0
    18dc:	129ffe61 	mov	w1, #0xffff000c            	// #-65524
    18e0:	7a411004 	ccmp	w0, w1, #0x4, ne
/home/lagadanu/Desktop/qemu/optee_os/lib/libutee/tee_api.c:272
    18e4:	2a0003f3 	mov	w19, w0
/home/lagadanu/Desktop/qemu/optee_os/lib/libutee/tee_api.c:275
    18e8:	1299f7c1 	mov	w1, #0xffff3041            	// #-53183
    18ec:	7a411004 	ccmp	w0, w1, #0x4, ne
    18f0:	54000040 	b.eq	18f8 <TEE_SetTAPersistentTime+0x30>
/home/lagadanu/Desktop/qemu/optee_os/lib/libutee/tee_api.c:277
    18f4:	94000c6d 	bl	4aa8 <TEE_Panic>
/home/lagadanu/Desktop/qemu/optee_os/lib/libutee/tee_api.c:280
    18f8:	2a1303e0 	mov	w0, w19
    18fc:	f9400bf3 	ldr	x19, [sp,#16]
    1900:	a8c27bfd 	ldp	x29, x30, [sp],#32
    1904:	d65f03c0 	ret

0000000000001908 <TEE_GetREETime>:
TEE_GetREETime():
/home/lagadanu/Desktop/qemu/optee_os/lib/libutee/tee_api.c:283
    1908:	a9bf7bfd 	stp	x29, x30, [sp,#-16]!
/home/lagadanu/Desktop/qemu/optee_os/lib/libutee/tee_api.c:284
    190c:	aa0003e1 	mov	x1, x0
    1910:	d2800040 	mov	x0, #0x2                   	// #2
/home/lagadanu/Desktop/qemu/optee_os/lib/libutee/tee_api.c:283
    1914:	910003fd 	mov	x29, sp
/home/lagadanu/Desktop/qemu/optee_os/lib/libutee/tee_api.c:284
    1918:	94000d41 	bl	4e1c <utee_get_time>
/home/lagadanu/Desktop/qemu/optee_os/lib/libutee/tee_api.c:286
    191c:	34000060 	cbz	w0, 1928 <TEE_GetREETime+0x20>
/home/lagadanu/Desktop/qemu/optee_os/lib/libutee/tee_api.c:288
    1920:	a8c17bfd 	ldp	x29, x30, [sp],#16
/home/lagadanu/Desktop/qemu/optee_os/lib/libutee/tee_api.c:287
    1924:	14000c61 	b	4aa8 <TEE_Panic>
/home/lagadanu/Desktop/qemu/optee_os/lib/libutee/tee_api.c:288
    1928:	a8c17bfd 	ldp	x29, x30, [sp],#16
    192c:	d65f03c0 	ret

0000000000001930 <TEE_Malloc>:
TEE_Malloc():
/home/lagadanu/Desktop/qemu/optee_os/lib/libutee/tee_api.c:292
    1930:	35000081 	cbnz	w1, 1940 <TEE_Malloc+0x10>
/home/lagadanu/Desktop/qemu/optee_os/lib/libutee/tee_api.c:293
    1934:	2a0003e1 	mov	w1, w0
    1938:	d2800020 	mov	x0, #0x1                   	// #1
    193c:	140020d3 	b	9c88 <calloc>
/home/lagadanu/Desktop/qemu/optee_os/lib/libutee/tee_api.c:294
    1940:	52b00002 	mov	w2, #0x80000000            	// #-2147483648
    1944:	6b02003f 	cmp	w1, w2
    1948:	54000061 	b.ne	1954 <TEE_Malloc+0x24>
/home/lagadanu/Desktop/qemu/optee_os/lib/libutee/tee_api.c:295
    194c:	2a0003e0 	mov	w0, w0
    1950:	140020c8 	b	9c70 <malloc>
/home/lagadanu/Desktop/qemu/optee_os/lib/libutee/tee_api.c:291
    1954:	a9bf7bfd 	stp	x29, x30, [sp,#-16]!
    1958:	2a0103e5 	mov	w5, w1
/home/lagadanu/Desktop/qemu/optee_os/lib/libutee/tee_api.c:297
    195c:	52800023 	mov	w3, #0x1                   	// #1
    1960:	52800022 	mov	w2, #0x1                   	// #1
/home/lagadanu/Desktop/qemu/optee_os/lib/libutee/tee_api.c:291
    1964:	910003fd 	mov	x29, sp
/home/lagadanu/Desktop/qemu/optee_os/lib/libutee/tee_api.c:297
    1968:	52802521 	mov	w1, #0x129                 	// #297
    196c:	d0000044 	adrp	x4, b000 <PRIME_TABLE+0x7f0>
    1970:	b0000040 	adrp	x0, a000 <memalign+0x2ac>
    1974:	911da084 	add	x4, x4, #0x768
    1978:	911f4000 	add	x0, x0, #0x7d0
    197c:	97fffaaf 	bl	438 <trace_printf>
/home/lagadanu/Desktop/qemu/optee_os/lib/libutee/tee_api.c:300
    1980:	d2800000 	mov	x0, #0x0                   	// #0
    1984:	a8c17bfd 	ldp	x29, x30, [sp],#16
    1988:	d65f03c0 	ret

000000000000198c <TEE_Realloc>:
TEE_Realloc():
/home/lagadanu/Desktop/qemu/optee_os/lib/libutee/tee_api.c:304
    198c:	2a0103e1 	mov	w1, w1
    1990:	140020da 	b	9cf8 <realloc>

0000000000001994 <TEE_Free>:
TEE_Free():
/home/lagadanu/Desktop/qemu/optee_os/lib/libutee/tee_api.c:309
    1994:	140020b8 	b	9c74 <free>

0000000000001998 <TEE_CacheClean>:
TEE_CacheClean():
/home/lagadanu/Desktop/qemu/optee_os/lib/libutee/tee_api.c:315
    1998:	d2800002 	mov	x2, #0x0                   	// #0
    199c:	14000dcb 	b	50c8 <utee_cache_operation>

00000000000019a0 <TEE_CacheFlush>:
TEE_CacheFlush():
/home/lagadanu/Desktop/qemu/optee_os/lib/libutee/tee_api.c:319
    19a0:	d2800022 	mov	x2, #0x1                   	// #1
    19a4:	14000dc9 	b	50c8 <utee_cache_operation>

00000000000019a8 <TEE_CacheInvalidate>:
TEE_CacheInvalidate():
/home/lagadanu/Desktop/qemu/optee_os/lib/libutee/tee_api.c:324
    19a8:	d2800042 	mov	x2, #0x2                   	// #2
    19ac:	14000dc7 	b	50c8 <utee_cache_operation>

00000000000019b0 <__utee_from_attr>:
__utee_from_attr():
/home/lagadanu/Desktop/qemu/optee_os/lib/libutee/tee_api_objects.c:19
    19b0:	52800303 	mov	w3, #0x18                  	// #24
    19b4:	9ba30442 	umaddl	x2, w2, w3, x1
/home/lagadanu/Desktop/qemu/optee_os/lib/libutee/tee_api_objects.c:22 (discriminator 1)
    19b8:	eb02003f 	cmp	x1, x2
    19bc:	54000041 	b.ne	19c4 <__utee_from_attr+0x14>
/home/lagadanu/Desktop/qemu/optee_os/lib/libutee/tee_api_objects.c:32
    19c0:	d65f03c0 	ret
/home/lagadanu/Desktop/qemu/optee_os/lib/libutee/tee_api_objects.c:23
    19c4:	b9400023 	ldr	w3, [x1]
    19c8:	b9001003 	str	w3, [x0,#16]
/home/lagadanu/Desktop/qemu/optee_os/lib/libutee/tee_api_objects.c:24
    19cc:	36e80103 	tbz	w3, #29, 19ec <__utee_from_attr+0x3c>
/home/lagadanu/Desktop/qemu/optee_os/lib/libutee/tee_api_objects.c:25
    19d0:	b9400823 	ldr	w3, [x1,#8]
    19d4:	f9000003 	str	x3, [x0]
/home/lagadanu/Desktop/qemu/optee_os/lib/libutee/tee_api_objects.c:26
    19d8:	b9400c23 	ldr	w3, [x1,#12]
/home/lagadanu/Desktop/qemu/optee_os/lib/libutee/tee_api_objects.c:29
    19dc:	f9000403 	str	x3, [x0,#8]
    19e0:	91006021 	add	x1, x1, #0x18
    19e4:	91006000 	add	x0, x0, #0x18
    19e8:	17fffff4 	b	19b8 <__utee_from_attr+0x8>
/home/lagadanu/Desktop/qemu/optee_os/lib/libutee/tee_api_objects.c:28
    19ec:	f9400423 	ldr	x3, [x1,#8]
    19f0:	f9000003 	str	x3, [x0]
/home/lagadanu/Desktop/qemu/optee_os/lib/libutee/tee_api_objects.c:29
    19f4:	b9401023 	ldr	w3, [x1,#16]
    19f8:	17fffff9 	b	19dc <__utee_from_attr+0x2c>

00000000000019fc <TEE_GetObjectInfo>:
TEE_GetObjectInfo():
/home/lagadanu/Desktop/qemu/optee_os/lib/libutee/tee_api_objects.c:42
    19fc:	a9be7bfd 	stp	x29, x30, [sp,#-32]!
    1a00:	910003fd 	mov	x29, sp
    1a04:	f9000bf3 	str	x19, [sp,#16]
    1a08:	aa0103f3 	mov	x19, x1
/home/lagadanu/Desktop/qemu/optee_os/lib/libutee/tee_api_objects.c:45
    1a0c:	94000d25 	bl	4ea0 <utee_cryp_obj_get_info>
/home/lagadanu/Desktop/qemu/optee_os/lib/libutee/tee_api_objects.c:47
    1a10:	34000040 	cbz	w0, 1a18 <TEE_GetObjectInfo+0x1c>
/home/lagadanu/Desktop/qemu/optee_os/lib/libutee/tee_api_objects.c:48
    1a14:	94000c25 	bl	4aa8 <TEE_Panic>
/home/lagadanu/Desktop/qemu/optee_os/lib/libutee/tee_api_objects.c:50
    1a18:	b9400261 	ldr	w1, [x19]
    1a1c:	528017c0 	mov	w0, #0xbe                  	// #190
    1a20:	72b40000 	movk	w0, #0xa000, lsl #16
    1a24:	6b00003f 	cmp	w1, w0
    1a28:	54000081 	b.ne	1a38 <TEE_GetObjectInfo+0x3c>
/home/lagadanu/Desktop/qemu/optee_os/lib/libutee/tee_api_objects.c:52
    1a2c:	2900fe7f 	stp	wzr, wzr, [x19,#4]
/home/lagadanu/Desktop/qemu/optee_os/lib/libutee/tee_api_objects.c:54
    1a30:	2901fe7f 	stp	wzr, wzr, [x19,#12]
/home/lagadanu/Desktop/qemu/optee_os/lib/libutee/tee_api_objects.c:56
    1a34:	2902fe7f 	stp	wzr, wzr, [x19,#20]
/home/lagadanu/Desktop/qemu/optee_os/lib/libutee/tee_api_objects.c:58
    1a38:	f9400bf3 	ldr	x19, [sp,#16]
    1a3c:	a8c27bfd 	ldp	x29, x30, [sp],#32
    1a40:	d65f03c0 	ret

0000000000001a44 <TEE_GetObjectInfo1>:
TEE_GetObjectInfo1():
/home/lagadanu/Desktop/qemu/optee_os/lib/libutee/tee_api_objects.c:61
    1a44:	a9be7bfd 	stp	x29, x30, [sp,#-32]!
    1a48:	910003fd 	mov	x29, sp
    1a4c:	f9000bf3 	str	x19, [sp,#16]
/home/lagadanu/Desktop/qemu/optee_os/lib/libutee/tee_api_objects.c:64
    1a50:	94000d14 	bl	4ea0 <utee_cryp_obj_get_info>
/home/lagadanu/Desktop/qemu/optee_os/lib/libutee/tee_api_objects.c:67
    1a54:	52800021 	mov	w1, #0x1                   	// #1
    1a58:	121e7802 	and	w2, w0, #0xfffffffd
    1a5c:	7100001f 	cmp	w0, #0x0
    1a60:	72be0201 	movk	w1, #0xf010, lsl #16
/home/lagadanu/Desktop/qemu/optee_os/lib/libutee/tee_api_objects.c:64
    1a64:	2a0003f3 	mov	w19, w0
/home/lagadanu/Desktop/qemu/optee_os/lib/libutee/tee_api_objects.c:67
    1a68:	7a411044 	ccmp	w2, w1, #0x4, ne
    1a6c:	54000040 	b.eq	1a74 <TEE_GetObjectInfo1+0x30>
/home/lagadanu/Desktop/qemu/optee_os/lib/libutee/tee_api_objects.c:69
    1a70:	94000c0e 	bl	4aa8 <TEE_Panic>
/home/lagadanu/Desktop/qemu/optee_os/lib/libutee/tee_api_objects.c:72
    1a74:	2a1303e0 	mov	w0, w19
    1a78:	f9400bf3 	ldr	x19, [sp,#16]
    1a7c:	a8c27bfd 	ldp	x29, x30, [sp],#32
    1a80:	d65f03c0 	ret

0000000000001a84 <TEE_RestrictObjectUsage1>:
TEE_RestrictObjectUsage1():
/home/lagadanu/Desktop/qemu/optee_os/lib/libutee/tee_api_objects.c:96
    1a84:	a9be7bfd 	stp	x29, x30, [sp,#-32]!
/home/lagadanu/Desktop/qemu/optee_os/lib/libutee/tee_api_objects.c:99
    1a88:	2a0103e1 	mov	w1, w1
/home/lagadanu/Desktop/qemu/optee_os/lib/libutee/tee_api_objects.c:96
    1a8c:	910003fd 	mov	x29, sp
    1a90:	f9000bf3 	str	x19, [sp,#16]
/home/lagadanu/Desktop/qemu/optee_os/lib/libutee/tee_api_objects.c:99
    1a94:	94000d06 	bl	4eac <utee_cryp_obj_restrict_usage>
/home/lagadanu/Desktop/qemu/optee_os/lib/libutee/tee_api_objects.c:102
    1a98:	52800021 	mov	w1, #0x1                   	// #1
    1a9c:	121e7802 	and	w2, w0, #0xfffffffd
    1aa0:	7100001f 	cmp	w0, #0x0
    1aa4:	72be0201 	movk	w1, #0xf010, lsl #16
/home/lagadanu/Desktop/qemu/optee_os/lib/libutee/tee_api_objects.c:99
    1aa8:	2a0003f3 	mov	w19, w0
/home/lagadanu/Desktop/qemu/optee_os/lib/libutee/tee_api_objects.c:102
    1aac:	7a411044 	ccmp	w2, w1, #0x4, ne
    1ab0:	54000040 	b.eq	1ab8 <TEE_RestrictObjectUsage1+0x34>
/home/lagadanu/Desktop/qemu/optee_os/lib/libutee/tee_api_objects.c:104
    1ab4:	94000bfd 	bl	4aa8 <TEE_Panic>
/home/lagadanu/Desktop/qemu/optee_os/lib/libutee/tee_api_objects.c:107
    1ab8:	2a1303e0 	mov	w0, w19
    1abc:	f9400bf3 	ldr	x19, [sp,#16]
    1ac0:	a8c27bfd 	ldp	x29, x30, [sp],#32
    1ac4:	d65f03c0 	ret

0000000000001ac8 <TEE_RestrictObjectUsage>:
TEE_RestrictObjectUsage():
/home/lagadanu/Desktop/qemu/optee_os/lib/libutee/tee_api_objects.c:81
    1ac8:	a9bc7bfd 	stp	x29, x30, [sp,#-64]!
    1acc:	910003fd 	mov	x29, sp
    1ad0:	a90153f3 	stp	x19, x20, [sp,#16]
    1ad4:	aa0003f3 	mov	x19, x0
    1ad8:	2a0103f4 	mov	w20, w1
/home/lagadanu/Desktop/qemu/optee_os/lib/libutee/tee_api_objects.c:85
    1adc:	910083a1 	add	x1, x29, #0x20
    1ae0:	94000cf0 	bl	4ea0 <utee_cryp_obj_get_info>
/home/lagadanu/Desktop/qemu/optee_os/lib/libutee/tee_api_objects.c:86
    1ae4:	b94023a1 	ldr	w1, [x29,#32]
    1ae8:	528017c0 	mov	w0, #0xbe                  	// #190
    1aec:	72b40000 	movk	w0, #0xa000, lsl #16
    1af0:	6b00003f 	cmp	w1, w0
    1af4:	540000c0 	b.eq	1b0c <TEE_RestrictObjectUsage+0x44>
/home/lagadanu/Desktop/qemu/optee_os/lib/libutee/tee_api_objects.c:89
    1af8:	2a1403e1 	mov	w1, w20
    1afc:	aa1303e0 	mov	x0, x19
    1b00:	97ffffe1 	bl	1a84 <TEE_RestrictObjectUsage1>
/home/lagadanu/Desktop/qemu/optee_os/lib/libutee/tee_api_objects.c:91
    1b04:	34000040 	cbz	w0, 1b0c <TEE_RestrictObjectUsage+0x44>
/home/lagadanu/Desktop/qemu/optee_os/lib/libutee/tee_api_objects.c:92
    1b08:	94000be8 	bl	4aa8 <TEE_Panic>
/home/lagadanu/Desktop/qemu/optee_os/lib/libutee/tee_api_objects.c:93
    1b0c:	a94153f3 	ldp	x19, x20, [sp,#16]
    1b10:	a8c47bfd 	ldp	x29, x30, [sp],#64
    1b14:	d65f03c0 	ret

0000000000001b18 <TEE_GetObjectBufferAttribute>:
TEE_GetObjectBufferAttribute():
/home/lagadanu/Desktop/qemu/optee_os/lib/libutee/tee_api_objects.c:112
    1b18:	a9b97bfd 	stp	x29, x30, [sp,#-112]!
    1b1c:	910003fd 	mov	x29, sp
    1b20:	a90153f3 	stp	x19, x20, [sp,#16]
    1b24:	aa0303f4 	mov	x20, x3
    1b28:	a9025bf5 	stp	x21, x22, [sp,#32]
    1b2c:	aa0003f6 	mov	x22, x0
    1b30:	f9001bf7 	str	x23, [sp,#48]
    1b34:	2a0103f5 	mov	w21, w1
    1b38:	aa0203f7 	mov	x23, x2
/home/lagadanu/Desktop/qemu/optee_os/lib/libutee/tee_api_objects.c:117
    1b3c:	910143a1 	add	x1, x29, #0x50
    1b40:	94000cd8 	bl	4ea0 <utee_cryp_obj_get_info>
    1b44:	2a0003f3 	mov	w19, w0
/home/lagadanu/Desktop/qemu/optee_os/lib/libutee/tee_api_objects.c:118
    1b48:	350001a0 	cbnz	w0, 1b7c <TEE_GetObjectBufferAttribute+0x64>
/home/lagadanu/Desktop/qemu/optee_os/lib/libutee/tee_api_objects.c:123
    1b4c:	129fff33 	mov	w19, #0xffff0006            	// #-65530
/home/lagadanu/Desktop/qemu/optee_os/lib/libutee/tee_api_objects.c:122
    1b50:	37e80175 	tbnz	w21, #29, 1b7c <TEE_GetObjectBufferAttribute+0x64>
/home/lagadanu/Desktop/qemu/optee_os/lib/libutee/tee_api_objects.c:127
    1b54:	9101c3a3 	add	x3, x29, #0x70
    1b58:	b9400280 	ldr	w0, [x20]
/home/lagadanu/Desktop/qemu/optee_os/lib/libutee/tee_api_objects.c:128
    1b5c:	aa1703e2 	mov	x2, x23
    1b60:	2a1503e1 	mov	w1, w21
/home/lagadanu/Desktop/qemu/optee_os/lib/libutee/tee_api_objects.c:127
    1b64:	f81d8c60 	str	x0, [x3,#-40]!
/home/lagadanu/Desktop/qemu/optee_os/lib/libutee/tee_api_objects.c:128
    1b68:	aa1603e0 	mov	x0, x22
    1b6c:	94000cd3 	bl	4eb8 <utee_cryp_obj_get_attr>
    1b70:	2a0003f3 	mov	w19, w0
/home/lagadanu/Desktop/qemu/optee_os/lib/libutee/tee_api_objects.c:130
    1b74:	f94027a0 	ldr	x0, [x29,#72]
    1b78:	b9000280 	str	w0, [x20]
/home/lagadanu/Desktop/qemu/optee_os/lib/libutee/tee_api_objects.c:134
    1b7c:	529fff00 	mov	w0, #0xfff8                	// #65528
    1b80:	0b000260 	add	w0, w19, w0
/home/lagadanu/Desktop/qemu/optee_os/lib/libutee/tee_api_objects.c:133
    1b84:	721c781f 	tst	w0, #0xfffffff7
    1b88:	7a401a64 	ccmp	w19, #0x0, #0x4, ne
    1b8c:	54000100 	b.eq	1bac <TEE_GetObjectBufferAttribute+0x94>
/home/lagadanu/Desktop/qemu/optee_os/lib/libutee/tee_api_objects.c:136
    1b90:	121e7a61 	and	w1, w19, #0xfffffffd
    1b94:	52800020 	mov	w0, #0x1                   	// #1
    1b98:	72be0200 	movk	w0, #0xf010, lsl #16
    1b9c:	6b00003f 	cmp	w1, w0
    1ba0:	54000060 	b.eq	1bac <TEE_GetObjectBufferAttribute+0x94>
/home/lagadanu/Desktop/qemu/optee_os/lib/libutee/tee_api_objects.c:138
    1ba4:	2a1303e0 	mov	w0, w19
    1ba8:	94000bc0 	bl	4aa8 <TEE_Panic>
/home/lagadanu/Desktop/qemu/optee_os/lib/libutee/tee_api_objects.c:141
    1bac:	2a1303e0 	mov	w0, w19
    1bb0:	f9401bf7 	ldr	x23, [sp,#48]
    1bb4:	a94153f3 	ldp	x19, x20, [sp,#16]
    1bb8:	a9425bf5 	ldp	x21, x22, [sp,#32]
    1bbc:	a8c77bfd 	ldp	x29, x30, [sp],#112
    1bc0:	d65f03c0 	ret

0000000000001bc4 <TEE_GetObjectValueAttribute>:
TEE_GetObjectValueAttribute():
/home/lagadanu/Desktop/qemu/optee_os/lib/libutee/tee_api_objects.c:146
    1bc4:	a9b97bfd 	stp	x29, x30, [sp,#-112]!
    1bc8:	910003fd 	mov	x29, sp
    1bcc:	a9025bf5 	stp	x21, x22, [sp,#32]
    1bd0:	2a0103f6 	mov	w22, w1
/home/lagadanu/Desktop/qemu/optee_os/lib/libutee/tee_api_objects.c:150
    1bd4:	d2800101 	mov	x1, #0x8                   	// #8
/home/lagadanu/Desktop/qemu/optee_os/lib/libutee/tee_api_objects.c:146
    1bd8:	a90153f3 	stp	x19, x20, [sp,#16]
/home/lagadanu/Desktop/qemu/optee_os/lib/libutee/tee_api_objects.c:150
    1bdc:	f90027a1 	str	x1, [x29,#72]
/home/lagadanu/Desktop/qemu/optee_os/lib/libutee/tee_api_objects.c:146
    1be0:	aa0203f5 	mov	x21, x2
    1be4:	f9001bf7 	str	x23, [sp,#48]
    1be8:	aa0303f4 	mov	x20, x3
/home/lagadanu/Desktop/qemu/optee_os/lib/libutee/tee_api_objects.c:152
    1bec:	910143a1 	add	x1, x29, #0x50
/home/lagadanu/Desktop/qemu/optee_os/lib/libutee/tee_api_objects.c:146
    1bf0:	aa0003f7 	mov	x23, x0
/home/lagadanu/Desktop/qemu/optee_os/lib/libutee/tee_api_objects.c:152
    1bf4:	94000cab 	bl	4ea0 <utee_cryp_obj_get_info>
    1bf8:	2a0003f3 	mov	w19, w0
/home/lagadanu/Desktop/qemu/optee_os/lib/libutee/tee_api_objects.c:153
    1bfc:	35000120 	cbnz	w0, 1c20 <TEE_GetObjectValueAttribute+0x5c>
/home/lagadanu/Desktop/qemu/optee_os/lib/libutee/tee_api_objects.c:158
    1c00:	129fff33 	mov	w19, #0xffff0006            	// #-65530
/home/lagadanu/Desktop/qemu/optee_os/lib/libutee/tee_api_objects.c:157
    1c04:	36e800f6 	tbz	w22, #29, 1c20 <TEE_GetObjectValueAttribute+0x5c>
/home/lagadanu/Desktop/qemu/optee_os/lib/libutee/tee_api_objects.c:162
    1c08:	910123a3 	add	x3, x29, #0x48
    1c0c:	910103a2 	add	x2, x29, #0x40
    1c10:	2a1603e1 	mov	w1, w22
    1c14:	aa1703e0 	mov	x0, x23
    1c18:	94000ca8 	bl	4eb8 <utee_cryp_obj_get_attr>
    1c1c:	2a0003f3 	mov	w19, w0
/home/lagadanu/Desktop/qemu/optee_os/lib/libutee/tee_api_objects.c:166
    1c20:	7100027f 	cmp	w19, #0x0
    1c24:	129ffee0 	mov	w0, #0xffff0008            	// #-65528
    1c28:	7a401264 	ccmp	w19, w0, #0x4, ne
    1c2c:	54000100 	b.eq	1c4c <TEE_GetObjectValueAttribute+0x88>
/home/lagadanu/Desktop/qemu/optee_os/lib/libutee/tee_api_objects.c:168
    1c30:	121e7a61 	and	w1, w19, #0xfffffffd
    1c34:	52800020 	mov	w0, #0x1                   	// #1
    1c38:	72be0200 	movk	w0, #0xf010, lsl #16
    1c3c:	6b00003f 	cmp	w1, w0
    1c40:	54000060 	b.eq	1c4c <TEE_GetObjectValueAttribute+0x88>
/home/lagadanu/Desktop/qemu/optee_os/lib/libutee/tee_api_objects.c:170
    1c44:	2a1303e0 	mov	w0, w19
    1c48:	94000b98 	bl	4aa8 <TEE_Panic>
/home/lagadanu/Desktop/qemu/optee_os/lib/libutee/tee_api_objects.c:172
    1c4c:	f94027a0 	ldr	x0, [x29,#72]
    1c50:	f100201f 	cmp	x0, #0x8
    1c54:	54000060 	b.eq	1c60 <TEE_GetObjectValueAttribute+0x9c>
/home/lagadanu/Desktop/qemu/optee_os/lib/libutee/tee_api_objects.c:173
    1c58:	52800000 	mov	w0, #0x0                   	// #0
    1c5c:	94000b93 	bl	4aa8 <TEE_Panic>
/home/lagadanu/Desktop/qemu/optee_os/lib/libutee/tee_api_objects.c:175
    1c60:	350000f3 	cbnz	w19, 1c7c <TEE_GetObjectValueAttribute+0xb8>
/home/lagadanu/Desktop/qemu/optee_os/lib/libutee/tee_api_objects.c:176
    1c64:	b4000075 	cbz	x21, 1c70 <TEE_GetObjectValueAttribute+0xac>
/home/lagadanu/Desktop/qemu/optee_os/lib/libutee/tee_api_objects.c:177
    1c68:	b94043a0 	ldr	w0, [x29,#64]
    1c6c:	b90002a0 	str	w0, [x21]
/home/lagadanu/Desktop/qemu/optee_os/lib/libutee/tee_api_objects.c:178
    1c70:	b4000074 	cbz	x20, 1c7c <TEE_GetObjectValueAttribute+0xb8>
/home/lagadanu/Desktop/qemu/optee_os/lib/libutee/tee_api_objects.c:179
    1c74:	b94047a0 	ldr	w0, [x29,#68]
    1c78:	b9000280 	str	w0, [x20]
/home/lagadanu/Desktop/qemu/optee_os/lib/libutee/tee_api_objects.c:183
    1c7c:	2a1303e0 	mov	w0, w19
    1c80:	f9401bf7 	ldr	x23, [sp,#48]
    1c84:	a94153f3 	ldp	x19, x20, [sp,#16]
    1c88:	a9425bf5 	ldp	x21, x22, [sp,#32]
    1c8c:	a8c77bfd 	ldp	x29, x30, [sp],#112
    1c90:	d65f03c0 	ret

0000000000001c94 <TEE_CloseObject>:
TEE_CloseObject():
/home/lagadanu/Desktop/qemu/optee_os/lib/libutee/tee_api_objects.c:189
    1c94:	b4000120 	cbz	x0, 1cb8 <TEE_CloseObject+0x24>
/home/lagadanu/Desktop/qemu/optee_os/lib/libutee/tee_api_objects.c:186
    1c98:	a9bf7bfd 	stp	x29, x30, [sp,#-16]!
    1c9c:	910003fd 	mov	x29, sp
/home/lagadanu/Desktop/qemu/optee_os/lib/libutee/tee_api_objects.c:192
    1ca0:	94000c8c 	bl	4ed0 <utee_cryp_obj_close>
/home/lagadanu/Desktop/qemu/optee_os/lib/libutee/tee_api_objects.c:193
    1ca4:	34000060 	cbz	w0, 1cb0 <TEE_CloseObject+0x1c>
/home/lagadanu/Desktop/qemu/optee_os/lib/libutee/tee_api_objects.c:195
    1ca8:	a8c17bfd 	ldp	x29, x30, [sp],#16
/home/lagadanu/Desktop/qemu/optee_os/lib/libutee/tee_api_objects.c:194
    1cac:	14000b7f 	b	4aa8 <TEE_Panic>
/home/lagadanu/Desktop/qemu/optee_os/lib/libutee/tee_api_objects.c:195
    1cb0:	a8c17bfd 	ldp	x29, x30, [sp],#16
    1cb4:	d65f03c0 	ret
    1cb8:	d65f03c0 	ret

0000000000001cbc <TEE_AllocateTransientObject>:
TEE_AllocateTransientObject():
/home/lagadanu/Desktop/qemu/optee_os/lib/libutee/tee_api_objects.c:202
    1cbc:	a9bd7bfd 	stp	x29, x30, [sp,#-48]!
/home/lagadanu/Desktop/qemu/optee_os/lib/libutee/tee_api_objects.c:206
    1cc0:	2a0103e1 	mov	w1, w1
    1cc4:	2a0003e0 	mov	w0, w0
/home/lagadanu/Desktop/qemu/optee_os/lib/libutee/tee_api_objects.c:202
    1cc8:	910003fd 	mov	x29, sp
    1ccc:	a90153f3 	stp	x19, x20, [sp,#16]
    1cd0:	aa0203f4 	mov	x20, x2
/home/lagadanu/Desktop/qemu/optee_os/lib/libutee/tee_api_objects.c:206
    1cd4:	9100b3a2 	add	x2, x29, #0x2c
    1cd8:	94000c7b 	bl	4ec4 <utee_cryp_obj_alloc>
/home/lagadanu/Desktop/qemu/optee_os/lib/libutee/tee_api_objects.c:208
    1cdc:	7100001f 	cmp	w0, #0x0
    1ce0:	129ffe61 	mov	w1, #0xffff000c            	// #-65524
/home/lagadanu/Desktop/qemu/optee_os/lib/libutee/tee_api_objects.c:206
    1ce4:	2a0003f3 	mov	w19, w0
/home/lagadanu/Desktop/qemu/optee_os/lib/libutee/tee_api_objects.c:208
    1ce8:	7a411004 	ccmp	w0, w1, #0x4, ne
    1cec:	54000120 	b.eq	1d10 <TEE_AllocateTransientObject+0x54>
/home/lagadanu/Desktop/qemu/optee_os/lib/libutee/tee_api_objects.c:209
    1cf0:	129ffea1 	mov	w1, #0xffff000a            	// #-65526
    1cf4:	6b01001f 	cmp	w0, w1
    1cf8:	54000040 	b.eq	1d00 <TEE_AllocateTransientObject+0x44>
/home/lagadanu/Desktop/qemu/optee_os/lib/libutee/tee_api_objects.c:211
    1cfc:	94000b6b 	bl	4aa8 <TEE_Panic>
/home/lagadanu/Desktop/qemu/optee_os/lib/libutee/tee_api_objects.c:217
    1d00:	2a1303e0 	mov	w0, w19
    1d04:	a94153f3 	ldp	x19, x20, [sp,#16]
    1d08:	a8c37bfd 	ldp	x29, x30, [sp],#48
    1d0c:	d65f03c0 	ret
/home/lagadanu/Desktop/qemu/optee_os/lib/libutee/tee_api_objects.c:213
    1d10:	35ffff80 	cbnz	w0, 1d00 <TEE_AllocateTransientObject+0x44>
/home/lagadanu/Desktop/qemu/optee_os/lib/libutee/tee_api_objects.c:214
    1d14:	b9402fa0 	ldr	w0, [x29,#44]
    1d18:	f9000280 	str	x0, [x20]
/home/lagadanu/Desktop/qemu/optee_os/lib/libutee/tee_api_objects.c:216
    1d1c:	17fffff9 	b	1d00 <TEE_AllocateTransientObject+0x44>

0000000000001d20 <TEE_FreeTransientObject>:
TEE_FreeTransientObject():
/home/lagadanu/Desktop/qemu/optee_os/lib/libutee/tee_api_objects.c:224
    1d20:	b4000280 	cbz	x0, 1d70 <TEE_FreeTransientObject+0x50>
/home/lagadanu/Desktop/qemu/optee_os/lib/libutee/tee_api_objects.c:220
    1d24:	a9bc7bfd 	stp	x29, x30, [sp,#-64]!
    1d28:	910003fd 	mov	x29, sp
    1d2c:	f9000bf3 	str	x19, [sp,#16]
/home/lagadanu/Desktop/qemu/optee_os/lib/libutee/tee_api_objects.c:227
    1d30:	910083a1 	add	x1, x29, #0x20
    1d34:	aa0003f3 	mov	x19, x0
    1d38:	94000c5a 	bl	4ea0 <utee_cryp_obj_get_info>
/home/lagadanu/Desktop/qemu/optee_os/lib/libutee/tee_api_objects.c:228
    1d3c:	34000040 	cbz	w0, 1d44 <TEE_FreeTransientObject+0x24>
/home/lagadanu/Desktop/qemu/optee_os/lib/libutee/tee_api_objects.c:229
    1d40:	94000b5a 	bl	4aa8 <TEE_Panic>
/home/lagadanu/Desktop/qemu/optee_os/lib/libutee/tee_api_objects.c:231
    1d44:	b9403ba0 	ldr	w0, [x29,#56]
    1d48:	36800060 	tbz	w0, #16, 1d54 <TEE_FreeTransientObject+0x34>
/home/lagadanu/Desktop/qemu/optee_os/lib/libutee/tee_api_objects.c:232
    1d4c:	52800000 	mov	w0, #0x0                   	// #0
    1d50:	94000b56 	bl	4aa8 <TEE_Panic>
/home/lagadanu/Desktop/qemu/optee_os/lib/libutee/tee_api_objects.c:234
    1d54:	aa1303e0 	mov	x0, x19
    1d58:	94000c5e 	bl	4ed0 <utee_cryp_obj_close>
/home/lagadanu/Desktop/qemu/optee_os/lib/libutee/tee_api_objects.c:235
    1d5c:	34000040 	cbz	w0, 1d64 <TEE_FreeTransientObject+0x44>
/home/lagadanu/Desktop/qemu/optee_os/lib/libutee/tee_api_objects.c:236
    1d60:	94000b52 	bl	4aa8 <TEE_Panic>
/home/lagadanu/Desktop/qemu/optee_os/lib/libutee/tee_api_objects.c:237
    1d64:	f9400bf3 	ldr	x19, [sp,#16]
    1d68:	a8c47bfd 	ldp	x29, x30, [sp],#64
    1d6c:	d65f03c0 	ret
    1d70:	d65f03c0 	ret

0000000000001d74 <TEE_ResetTransientObject>:
TEE_ResetTransientObject():
/home/lagadanu/Desktop/qemu/optee_os/lib/libutee/tee_api_objects.c:244
    1d74:	b4000280 	cbz	x0, 1dc4 <TEE_ResetTransientObject+0x50>
/home/lagadanu/Desktop/qemu/optee_os/lib/libutee/tee_api_objects.c:240
    1d78:	a9bc7bfd 	stp	x29, x30, [sp,#-64]!
    1d7c:	910003fd 	mov	x29, sp
    1d80:	f9000bf3 	str	x19, [sp,#16]
/home/lagadanu/Desktop/qemu/optee_os/lib/libutee/tee_api_objects.c:247
    1d84:	910083a1 	add	x1, x29, #0x20
    1d88:	aa0003f3 	mov	x19, x0
    1d8c:	94000c45 	bl	4ea0 <utee_cryp_obj_get_info>
/home/lagadanu/Desktop/qemu/optee_os/lib/libutee/tee_api_objects.c:248
    1d90:	34000040 	cbz	w0, 1d98 <TEE_ResetTransientObject+0x24>
/home/lagadanu/Desktop/qemu/optee_os/lib/libutee/tee_api_objects.c:249
    1d94:	94000b45 	bl	4aa8 <TEE_Panic>
/home/lagadanu/Desktop/qemu/optee_os/lib/libutee/tee_api_objects.c:251
    1d98:	b9403ba0 	ldr	w0, [x29,#56]
    1d9c:	36800060 	tbz	w0, #16, 1da8 <TEE_ResetTransientObject+0x34>
/home/lagadanu/Desktop/qemu/optee_os/lib/libutee/tee_api_objects.c:252
    1da0:	52800000 	mov	w0, #0x0                   	// #0
    1da4:	94000b41 	bl	4aa8 <TEE_Panic>
/home/lagadanu/Desktop/qemu/optee_os/lib/libutee/tee_api_objects.c:254
    1da8:	aa1303e0 	mov	x0, x19
    1dac:	94000c4c 	bl	4edc <utee_cryp_obj_reset>
/home/lagadanu/Desktop/qemu/optee_os/lib/libutee/tee_api_objects.c:255
    1db0:	34000040 	cbz	w0, 1db8 <TEE_ResetTransientObject+0x44>
/home/lagadanu/Desktop/qemu/optee_os/lib/libutee/tee_api_objects.c:256
    1db4:	94000b3d 	bl	4aa8 <TEE_Panic>
/home/lagadanu/Desktop/qemu/optee_os/lib/libutee/tee_api_objects.c:257
    1db8:	f9400bf3 	ldr	x19, [sp,#16]
    1dbc:	a8c47bfd 	ldp	x29, x30, [sp],#64
    1dc0:	d65f03c0 	ret
    1dc4:	d65f03c0 	ret

0000000000001dc8 <TEE_PopulateTransientObject>:
TEE_PopulateTransientObject():
/home/lagadanu/Desktop/qemu/optee_os/lib/libutee/tee_api_objects.c:262
    1dc8:	a9ba7bfd 	stp	x29, x30, [sp,#-96]!
    1dcc:	910003fd 	mov	x29, sp
    1dd0:	a9025bf5 	stp	x21, x22, [sp,#32]
    1dd4:	2a0203f6 	mov	w22, w2
    1dd8:	f9001bf7 	str	x23, [sp,#48]
    1ddc:	aa0103f7 	mov	x23, x1
/home/lagadanu/Desktop/qemu/optee_os/lib/libutee/tee_api_objects.c:265
    1de0:	52800301 	mov	w1, #0x18                  	// #24
/home/lagadanu/Desktop/qemu/optee_os/lib/libutee/tee_api_objects.c:262
    1de4:	a90153f3 	stp	x19, x20, [sp,#16]
    1de8:	aa0003f5 	mov	x21, x0
    1dec:	aa1603f3 	mov	x19, x22
/home/lagadanu/Desktop/qemu/optee_os/lib/libutee/tee_api_objects.c:265
    1df0:	9ba17ec1 	umull	x1, w22, w1
    1df4:	91005821 	add	x1, x1, #0x16
    1df8:	927c8421 	and	x1, x1, #0x3ffffffff0
    1dfc:	cb2163ff 	sub	sp, sp, x1
/home/lagadanu/Desktop/qemu/optee_os/lib/libutee/tee_api_objects.c:267
    1e00:	910103a1 	add	x1, x29, #0x40
/home/lagadanu/Desktop/qemu/optee_os/lib/libutee/tee_api_objects.c:265
    1e04:	910003f4 	mov	x20, sp
/home/lagadanu/Desktop/qemu/optee_os/lib/libutee/tee_api_objects.c:267
    1e08:	94000c26 	bl	4ea0 <utee_cryp_obj_get_info>
/home/lagadanu/Desktop/qemu/optee_os/lib/libutee/tee_api_objects.c:268
    1e0c:	34000040 	cbz	w0, 1e14 <TEE_PopulateTransientObject+0x4c>
/home/lagadanu/Desktop/qemu/optee_os/lib/libutee/tee_api_objects.c:269
    1e10:	94000b26 	bl	4aa8 <TEE_Panic>
/home/lagadanu/Desktop/qemu/optee_os/lib/libutee/tee_api_objects.c:272
    1e14:	b9405ba0 	ldr	w0, [x29,#88]
    1e18:	36800060 	tbz	w0, #16, 1e24 <TEE_PopulateTransientObject+0x5c>
/home/lagadanu/Desktop/qemu/optee_os/lib/libutee/tee_api_objects.c:273
    1e1c:	52800000 	mov	w0, #0x0                   	// #0
    1e20:	94000b22 	bl	4aa8 <TEE_Panic>
/home/lagadanu/Desktop/qemu/optee_os/lib/libutee/tee_api_objects.c:276
    1e24:	b9405ba0 	ldr	w0, [x29,#88]
    1e28:	36880060 	tbz	w0, #17, 1e34 <TEE_PopulateTransientObject+0x6c>
/home/lagadanu/Desktop/qemu/optee_os/lib/libutee/tee_api_objects.c:277
    1e2c:	52800000 	mov	w0, #0x0                   	// #0
    1e30:	94000b1e 	bl	4aa8 <TEE_Panic>
/home/lagadanu/Desktop/qemu/optee_os/lib/libutee/tee_api_objects.c:279
    1e34:	2a1303e2 	mov	w2, w19
    1e38:	aa1703e1 	mov	x1, x23
    1e3c:	aa1403e0 	mov	x0, x20
    1e40:	97fffedc 	bl	19b0 <__utee_from_attr>
/home/lagadanu/Desktop/qemu/optee_os/lib/libutee/tee_api_objects.c:280
    1e44:	aa1403e1 	mov	x1, x20
    1e48:	aa1603e2 	mov	x2, x22
    1e4c:	aa1503e0 	mov	x0, x21
    1e50:	94000c26 	bl	4ee8 <utee_cryp_obj_populate>
/home/lagadanu/Desktop/qemu/optee_os/lib/libutee/tee_api_objects.c:281
    1e54:	7100001f 	cmp	w0, #0x0
    1e58:	129fff21 	mov	w1, #0xffff0006            	// #-65530
/home/lagadanu/Desktop/qemu/optee_os/lib/libutee/tee_api_objects.c:280
    1e5c:	2a0003f3 	mov	w19, w0
/home/lagadanu/Desktop/qemu/optee_os/lib/libutee/tee_api_objects.c:281
    1e60:	7a411004 	ccmp	w0, w1, #0x4, ne
    1e64:	54000040 	b.eq	1e6c <TEE_PopulateTransientObject+0xa4>
/home/lagadanu/Desktop/qemu/optee_os/lib/libutee/tee_api_objects.c:282
    1e68:	94000b10 	bl	4aa8 <TEE_Panic>
/home/lagadanu/Desktop/qemu/optee_os/lib/libutee/tee_api_objects.c:284
    1e6c:	910003bf 	mov	sp, x29
    1e70:	2a1303e0 	mov	w0, w19
    1e74:	f9401bf7 	ldr	x23, [sp,#48]
    1e78:	a94153f3 	ldp	x19, x20, [sp,#16]
    1e7c:	a9425bf5 	ldp	x21, x22, [sp,#32]
    1e80:	a8c67bfd 	ldp	x29, x30, [sp],#96
    1e84:	d65f03c0 	ret

0000000000001e88 <TEE_InitRefAttribute>:
TEE_InitRefAttribute():
/home/lagadanu/Desktop/qemu/optee_os/lib/libutee/tee_api_objects.c:288
    1e88:	a9bd7bfd 	stp	x29, x30, [sp,#-48]!
    1e8c:	910003fd 	mov	x29, sp
    1e90:	a90153f3 	stp	x19, x20, [sp,#16]
    1e94:	aa0003f3 	mov	x19, x0
    1e98:	a9025bf5 	stp	x21, x22, [sp,#32]
    1e9c:	2a0103f4 	mov	w20, w1
    1ea0:	aa0203f6 	mov	x22, x2
    1ea4:	2a0303f5 	mov	w21, w3
/home/lagadanu/Desktop/qemu/optee_os/lib/libutee/tee_api_objects.c:289
    1ea8:	b5000060 	cbnz	x0, 1eb4 <TEE_InitRefAttribute+0x2c>
/home/lagadanu/Desktop/qemu/optee_os/lib/libutee/tee_api_objects.c:290
    1eac:	52800000 	mov	w0, #0x0                   	// #0
    1eb0:	94000afe 	bl	4aa8 <TEE_Panic>
/home/lagadanu/Desktop/qemu/optee_os/lib/libutee/tee_api_objects.c:291
    1eb4:	36e80074 	tbz	w20, #29, 1ec0 <TEE_InitRefAttribute+0x38>
/home/lagadanu/Desktop/qemu/optee_os/lib/libutee/tee_api_objects.c:292
    1eb8:	52800000 	mov	w0, #0x0                   	// #0
    1ebc:	94000afb 	bl	4aa8 <TEE_Panic>
/home/lagadanu/Desktop/qemu/optee_os/lib/libutee/tee_api_objects.c:294
    1ec0:	f9000676 	str	x22, [x19,#8]
/home/lagadanu/Desktop/qemu/optee_os/lib/libutee/tee_api_objects.c:295
    1ec4:	b9001275 	str	w21, [x19,#16]
/home/lagadanu/Desktop/qemu/optee_os/lib/libutee/tee_api_objects.c:293
    1ec8:	b9000274 	str	w20, [x19]
/home/lagadanu/Desktop/qemu/optee_os/lib/libutee/tee_api_objects.c:296
    1ecc:	a9425bf5 	ldp	x21, x22, [sp,#32]
    1ed0:	a94153f3 	ldp	x19, x20, [sp,#16]
    1ed4:	a8c37bfd 	ldp	x29, x30, [sp],#48
    1ed8:	d65f03c0 	ret

0000000000001edc <TEE_InitValueAttribute>:
TEE_InitValueAttribute():
/home/lagadanu/Desktop/qemu/optee_os/lib/libutee/tee_api_objects.c:300
    1edc:	a9bd7bfd 	stp	x29, x30, [sp,#-48]!
    1ee0:	910003fd 	mov	x29, sp
    1ee4:	a90153f3 	stp	x19, x20, [sp,#16]
    1ee8:	aa0003f3 	mov	x19, x0
    1eec:	a9025bf5 	stp	x21, x22, [sp,#32]
    1ef0:	2a0103f4 	mov	w20, w1
    1ef4:	2a0203f6 	mov	w22, w2
    1ef8:	2a0303f5 	mov	w21, w3
/home/lagadanu/Desktop/qemu/optee_os/lib/libutee/tee_api_objects.c:301
    1efc:	b5000060 	cbnz	x0, 1f08 <TEE_InitValueAttribute+0x2c>
/home/lagadanu/Desktop/qemu/optee_os/lib/libutee/tee_api_objects.c:302
    1f00:	52800000 	mov	w0, #0x0                   	// #0
    1f04:	94000ae9 	bl	4aa8 <TEE_Panic>
/home/lagadanu/Desktop/qemu/optee_os/lib/libutee/tee_api_objects.c:303
    1f08:	37e80074 	tbnz	w20, #29, 1f14 <TEE_InitValueAttribute+0x38>
/home/lagadanu/Desktop/qemu/optee_os/lib/libutee/tee_api_objects.c:304
    1f0c:	52800000 	mov	w0, #0x0                   	// #0
    1f10:	94000ae6 	bl	4aa8 <TEE_Panic>
/home/lagadanu/Desktop/qemu/optee_os/lib/libutee/tee_api_objects.c:307
    1f14:	29015676 	stp	w22, w21, [x19,#8]
/home/lagadanu/Desktop/qemu/optee_os/lib/libutee/tee_api_objects.c:305
    1f18:	b9000274 	str	w20, [x19]
/home/lagadanu/Desktop/qemu/optee_os/lib/libutee/tee_api_objects.c:308
    1f1c:	a9425bf5 	ldp	x21, x22, [sp,#32]
    1f20:	a94153f3 	ldp	x19, x20, [sp,#16]
    1f24:	a8c37bfd 	ldp	x29, x30, [sp],#48
    1f28:	d65f03c0 	ret

0000000000001f2c <TEE_CopyObjectAttributes1>:
TEE_CopyObjectAttributes1():
/home/lagadanu/Desktop/qemu/optee_os/lib/libutee/tee_api_objects.c:333
    1f2c:	a9b97bfd 	stp	x29, x30, [sp,#-112]!
    1f30:	910003fd 	mov	x29, sp
    1f34:	a90153f3 	stp	x19, x20, [sp,#16]
    1f38:	aa0103f4 	mov	x20, x1
    1f3c:	f90013f5 	str	x21, [sp,#32]
/home/lagadanu/Desktop/qemu/optee_os/lib/libutee/tee_api_objects.c:338
    1f40:	9100c3a1 	add	x1, x29, #0x30
/home/lagadanu/Desktop/qemu/optee_os/lib/libutee/tee_api_objects.c:333
    1f44:	aa0003f5 	mov	x21, x0
/home/lagadanu/Desktop/qemu/optee_os/lib/libutee/tee_api_objects.c:338
    1f48:	94000bd6 	bl	4ea0 <utee_cryp_obj_get_info>
    1f4c:	2a0003f3 	mov	w19, w0
/home/lagadanu/Desktop/qemu/optee_os/lib/libutee/tee_api_objects.c:339
    1f50:	350002a0 	cbnz	w0, 1fa4 <TEE_CopyObjectAttributes1+0x78>
/home/lagadanu/Desktop/qemu/optee_os/lib/libutee/tee_api_objects.c:342
    1f54:	910143a1 	add	x1, x29, #0x50
    1f58:	aa1403e0 	mov	x0, x20
    1f5c:	94000bd1 	bl	4ea0 <utee_cryp_obj_get_info>
    1f60:	2a0003f3 	mov	w19, w0
/home/lagadanu/Desktop/qemu/optee_os/lib/libutee/tee_api_objects.c:343
    1f64:	35000200 	cbnz	w0, 1fa4 <TEE_CopyObjectAttributes1+0x78>
/home/lagadanu/Desktop/qemu/optee_os/lib/libutee/tee_api_objects.c:346
    1f68:	b9406ba1 	ldr	w1, [x29,#104]
    1f6c:	37880041 	tbnz	w1, #17, 1f74 <TEE_CopyObjectAttributes1+0x48>
/home/lagadanu/Desktop/qemu/optee_os/lib/libutee/tee_api_objects.c:347
    1f70:	94000ace 	bl	4aa8 <TEE_Panic>
/home/lagadanu/Desktop/qemu/optee_os/lib/libutee/tee_api_objects.c:349
    1f74:	b9404ba0 	ldr	w0, [x29,#72]
    1f78:	36800060 	tbz	w0, #16, 1f84 <TEE_CopyObjectAttributes1+0x58>
/home/lagadanu/Desktop/qemu/optee_os/lib/libutee/tee_api_objects.c:350
    1f7c:	52800000 	mov	w0, #0x0                   	// #0
    1f80:	94000aca 	bl	4aa8 <TEE_Panic>
/home/lagadanu/Desktop/qemu/optee_os/lib/libutee/tee_api_objects.c:352
    1f84:	b9404ba0 	ldr	w0, [x29,#72]
    1f88:	36880060 	tbz	w0, #17, 1f94 <TEE_CopyObjectAttributes1+0x68>
/home/lagadanu/Desktop/qemu/optee_os/lib/libutee/tee_api_objects.c:353
    1f8c:	52800000 	mov	w0, #0x0                   	// #0
    1f90:	94000ac6 	bl	4aa8 <TEE_Panic>
/home/lagadanu/Desktop/qemu/optee_os/lib/libutee/tee_api_objects.c:355
    1f94:	aa1403e1 	mov	x1, x20
    1f98:	aa1503e0 	mov	x0, x21
    1f9c:	94000bd6 	bl	4ef4 <utee_cryp_obj_copy>
    1fa0:	2a0003f3 	mov	w19, w0
/home/lagadanu/Desktop/qemu/optee_os/lib/libutee/tee_api_objects.c:360
    1fa4:	121e7a60 	and	w0, w19, #0xfffffffd
    1fa8:	7100027f 	cmp	w19, #0x0
    1fac:	52800021 	mov	w1, #0x1                   	// #1
    1fb0:	72be0201 	movk	w1, #0xf010, lsl #16
    1fb4:	7a411004 	ccmp	w0, w1, #0x4, ne
    1fb8:	54000060 	b.eq	1fc4 <TEE_CopyObjectAttributes1+0x98>
/home/lagadanu/Desktop/qemu/optee_os/lib/libutee/tee_api_objects.c:362
    1fbc:	2a1303e0 	mov	w0, w19
    1fc0:	94000aba 	bl	4aa8 <TEE_Panic>
/home/lagadanu/Desktop/qemu/optee_os/lib/libutee/tee_api_objects.c:365
    1fc4:	2a1303e0 	mov	w0, w19
    1fc8:	f94013f5 	ldr	x21, [sp,#32]
    1fcc:	a94153f3 	ldp	x19, x20, [sp,#16]
    1fd0:	a8c77bfd 	ldp	x29, x30, [sp],#112
    1fd4:	d65f03c0 	ret

0000000000001fd8 <TEE_CopyObjectAttributes>:
TEE_CopyObjectAttributes():
/home/lagadanu/Desktop/qemu/optee_os/lib/libutee/tee_api_objects.c:318
    1fd8:	a9bc7bfd 	stp	x29, x30, [sp,#-64]!
    1fdc:	910003fd 	mov	x29, sp
    1fe0:	a90153f3 	stp	x19, x20, [sp,#16]
    1fe4:	aa0103f3 	mov	x19, x1
    1fe8:	aa0003f4 	mov	x20, x0
/home/lagadanu/Desktop/qemu/optee_os/lib/libutee/tee_api_objects.c:322
    1fec:	910083a1 	add	x1, x29, #0x20
    1ff0:	aa1303e0 	mov	x0, x19
    1ff4:	94000bab 	bl	4ea0 <utee_cryp_obj_get_info>
/home/lagadanu/Desktop/qemu/optee_os/lib/libutee/tee_api_objects.c:323
    1ff8:	b94023a1 	ldr	w1, [x29,#32]
    1ffc:	528017c0 	mov	w0, #0xbe                  	// #190
    2000:	72b40000 	movk	w0, #0xa000, lsl #16
    2004:	6b00003f 	cmp	w1, w0
    2008:	540000c0 	b.eq	2020 <TEE_CopyObjectAttributes+0x48>
/home/lagadanu/Desktop/qemu/optee_os/lib/libutee/tee_api_objects.c:326
    200c:	aa1303e1 	mov	x1, x19
    2010:	aa1403e0 	mov	x0, x20
    2014:	97ffffc6 	bl	1f2c <TEE_CopyObjectAttributes1>
/home/lagadanu/Desktop/qemu/optee_os/lib/libutee/tee_api_objects.c:327
    2018:	34000040 	cbz	w0, 2020 <TEE_CopyObjectAttributes+0x48>
/home/lagadanu/Desktop/qemu/optee_os/lib/libutee/tee_api_objects.c:328
    201c:	94000aa3 	bl	4aa8 <TEE_Panic>
/home/lagadanu/Desktop/qemu/optee_os/lib/libutee/tee_api_objects.c:329
    2020:	a94153f3 	ldp	x19, x20, [sp,#16]
    2024:	a8c47bfd 	ldp	x29, x30, [sp],#64
    2028:	d65f03c0 	ret

000000000000202c <TEE_GenerateKey>:
TEE_GenerateKey():
/home/lagadanu/Desktop/qemu/optee_os/lib/libutee/tee_api_objects.c:369
    202c:	a9bd7bfd 	stp	x29, x30, [sp,#-48]!
    2030:	910003fd 	mov	x29, sp
    2034:	a9025bf5 	stp	x21, x22, [sp,#32]
    2038:	aa0003f5 	mov	x21, x0
/home/lagadanu/Desktop/qemu/optee_os/lib/libutee/tee_api_objects.c:371
    203c:	52800300 	mov	w0, #0x18                  	// #24
/home/lagadanu/Desktop/qemu/optee_os/lib/libutee/tee_api_objects.c:369
    2040:	a90153f3 	stp	x19, x20, [sp,#16]
    2044:	2a0103f6 	mov	w22, w1
    2048:	2a0303f3 	mov	w19, w3
/home/lagadanu/Desktop/qemu/optee_os/lib/libutee/tee_api_objects.c:371
    204c:	9ba07c60 	umull	x0, w3, w0
/home/lagadanu/Desktop/qemu/optee_os/lib/libutee/tee_api_objects.c:369
    2050:	aa0203e1 	mov	x1, x2
/home/lagadanu/Desktop/qemu/optee_os/lib/libutee/tee_api_objects.c:373
    2054:	2a0303e2 	mov	w2, w3
/home/lagadanu/Desktop/qemu/optee_os/lib/libutee/tee_api_objects.c:371
    2058:	91005800 	add	x0, x0, #0x16
    205c:	927c8400 	and	x0, x0, #0x3ffffffff0
    2060:	cb2063ff 	sub	sp, sp, x0
/home/lagadanu/Desktop/qemu/optee_os/lib/libutee/tee_api_objects.c:373
    2064:	910003e0 	mov	x0, sp
    2068:	97fffe52 	bl	19b0 <__utee_from_attr>
/home/lagadanu/Desktop/qemu/optee_os/lib/libutee/tee_api_objects.c:374
    206c:	2a1303e3 	mov	w3, w19
    2070:	2a1603e1 	mov	w1, w22
    2074:	910003e2 	mov	x2, sp
    2078:	aa1503e0 	mov	x0, x21
    207c:	94000be3 	bl	5008 <utee_cryp_obj_generate_key>
/home/lagadanu/Desktop/qemu/optee_os/lib/libutee/tee_api_objects.c:377
    2080:	7100001f 	cmp	w0, #0x0
    2084:	129fff21 	mov	w1, #0xffff0006            	// #-65530
/home/lagadanu/Desktop/qemu/optee_os/lib/libutee/tee_api_objects.c:374
    2088:	2a0003f3 	mov	w19, w0
/home/lagadanu/Desktop/qemu/optee_os/lib/libutee/tee_api_objects.c:377
    208c:	7a411004 	ccmp	w0, w1, #0x4, ne
    2090:	54000040 	b.eq	2098 <TEE_GenerateKey+0x6c>
/home/lagadanu/Desktop/qemu/optee_os/lib/libutee/tee_api_objects.c:378
    2094:	94000a85 	bl	4aa8 <TEE_Panic>
/home/lagadanu/Desktop/qemu/optee_os/lib/libutee/tee_api_objects.c:381
    2098:	910003bf 	mov	sp, x29
    209c:	2a1303e0 	mov	w0, w19
    20a0:	a94153f3 	ldp	x19, x20, [sp,#16]
    20a4:	a9425bf5 	ldp	x21, x22, [sp,#32]
    20a8:	a8c37bfd 	ldp	x29, x30, [sp],#48
    20ac:	d65f03c0 	ret

00000000000020b0 <TEE_OpenPersistentObject>:
TEE_OpenPersistentObject():
/home/lagadanu/Desktop/qemu/optee_os/lib/libutee/tee_api_objects.c:388
    20b0:	a9bd7bfd 	stp	x29, x30, [sp,#-48]!
    20b4:	910003fd 	mov	x29, sp
    20b8:	a90153f3 	stp	x19, x20, [sp,#16]
/home/lagadanu/Desktop/qemu/optee_os/lib/libutee/tee_api_objects.c:393
    20bc:	129ffef3 	mov	w19, #0xffff0008            	// #-65528
/home/lagadanu/Desktop/qemu/optee_os/lib/libutee/tee_api_objects.c:392
    20c0:	b40001e1 	cbz	x1, 20fc <TEE_OpenPersistentObject+0x4c>
/home/lagadanu/Desktop/qemu/optee_os/lib/libutee/tee_api_objects.c:402
    20c4:	7101005f 	cmp	w2, #0x40
    20c8:	aa0403f4 	mov	x20, x4
/home/lagadanu/Desktop/qemu/optee_os/lib/libutee/tee_api_objects.c:403
    20cc:	129fff33 	mov	w19, #0xffff0006            	// #-65530
/home/lagadanu/Desktop/qemu/optee_os/lib/libutee/tee_api_objects.c:402
    20d0:	fa409884 	ccmp	x4, #0x0, #0x4, ls
    20d4:	54000140 	b.eq	20fc <TEE_OpenPersistentObject+0x4c>
/home/lagadanu/Desktop/qemu/optee_os/lib/libutee/tee_api_objects.c:407
    20d8:	9100b3a4 	add	x4, x29, #0x2c
    20dc:	2a0303e3 	mov	w3, w3
    20e0:	2a0203e2 	mov	w2, w2
    20e4:	2a0003e0 	mov	w0, w0
    20e8:	94000ba1 	bl	4f6c <utee_storage_obj_open>
    20ec:	2a0003f3 	mov	w19, w0
/home/lagadanu/Desktop/qemu/optee_os/lib/libutee/tee_api_objects.c:409
    20f0:	35000060 	cbnz	w0, 20fc <TEE_OpenPersistentObject+0x4c>
/home/lagadanu/Desktop/qemu/optee_os/lib/libutee/tee_api_objects.c:410
    20f4:	b9402fa0 	ldr	w0, [x29,#44]
    20f8:	f9000280 	str	x0, [x20]
/home/lagadanu/Desktop/qemu/optee_os/lib/libutee/tee_api_objects.c:414
    20fc:	121d7a60 	and	w0, w19, #0xfffffffb
/home/lagadanu/Desktop/qemu/optee_os/lib/libutee/tee_api_objects.c:413
    2100:	7100027f 	cmp	w19, #0x0
    2104:	129ffee1 	mov	w1, #0xffff0008            	// #-65528
    2108:	7a411004 	ccmp	w0, w1, #0x4, ne
    210c:	54000160 	b.eq	2138 <TEE_OpenPersistentObject+0x88>
/home/lagadanu/Desktop/qemu/optee_os/lib/libutee/tee_api_objects.c:415
    2110:	129fff80 	mov	w0, #0xffff0003            	// #-65533
    2114:	6b00027f 	cmp	w19, w0
    2118:	54000100 	b.eq	2138 <TEE_OpenPersistentObject+0x88>
/home/lagadanu/Desktop/qemu/optee_os/lib/libutee/tee_api_objects.c:417
    211c:	121e7a61 	and	w1, w19, #0xfffffffd
    2120:	52800020 	mov	w0, #0x1                   	// #1
    2124:	72be0200 	movk	w0, #0xf010, lsl #16
    2128:	6b00003f 	cmp	w1, w0
    212c:	54000060 	b.eq	2138 <TEE_OpenPersistentObject+0x88>
/home/lagadanu/Desktop/qemu/optee_os/lib/libutee/tee_api_objects.c:419
    2130:	2a1303e0 	mov	w0, w19
    2134:	94000a5d 	bl	4aa8 <TEE_Panic>
/home/lagadanu/Desktop/qemu/optee_os/lib/libutee/tee_api_objects.c:422
    2138:	2a1303e0 	mov	w0, w19
    213c:	a94153f3 	ldp	x19, x20, [sp,#16]
    2140:	a8c37bfd 	ldp	x29, x30, [sp],#48
    2144:	d65f03c0 	ret

0000000000002148 <TEE_CreatePersistentObject>:
TEE_CreatePersistentObject():
/home/lagadanu/Desktop/qemu/optee_os/lib/libutee/tee_api_objects.c:430
    2148:	a9bd7bfd 	stp	x29, x30, [sp,#-48]!
    214c:	910003fd 	mov	x29, sp
    2150:	f9000bf3 	str	x19, [sp,#16]
    2154:	aa0703f3 	mov	x19, x7
/home/lagadanu/Desktop/qemu/optee_os/lib/libutee/tee_api_objects.c:434
    2158:	b4000501 	cbz	x1, 21f8 <TEE_CreatePersistentObject+0xb0>
/home/lagadanu/Desktop/qemu/optee_os/lib/libutee/tee_api_objects.c:439
    215c:	7101005f 	cmp	w2, #0x40
    2160:	54000528 	b.hi	2204 <TEE_CreatePersistentObject+0xbc>
/home/lagadanu/Desktop/qemu/optee_os/lib/libutee/tee_api_objects.c:444
    2164:	9100b3a7 	add	x7, x29, #0x2c
    2168:	2a0603e6 	mov	w6, w6
    216c:	2a0303e3 	mov	w3, w3
    2170:	2a0203e2 	mov	w2, w2
    2174:	2a0003e0 	mov	w0, w0
    2178:	94000b80 	bl	4f78 <utee_storage_obj_create>
/home/lagadanu/Desktop/qemu/optee_os/lib/libutee/tee_api_objects.c:447
    217c:	35000380 	cbnz	w0, 21ec <TEE_CreatePersistentObject+0xa4>
    2180:	b9402fa1 	ldr	w1, [x29,#44]
/home/lagadanu/Desktop/qemu/optee_os/lib/libutee/tee_api_objects.c:448
    2184:	b40000b3 	cbz	x19, 2198 <TEE_CreatePersistentObject+0x50>
/home/lagadanu/Desktop/qemu/optee_os/lib/libutee/tee_api_objects.c:449
    2188:	f9000261 	str	x1, [x19]
/home/lagadanu/Desktop/qemu/optee_os/lib/libutee/tee_api_objects.c:468
    218c:	f9400bf3 	ldr	x19, [sp,#16]
    2190:	a8c37bfd 	ldp	x29, x30, [sp],#48
    2194:	d65f03c0 	ret
/home/lagadanu/Desktop/qemu/optee_os/lib/libutee/tee_api_objects.c:451
    2198:	aa0103e0 	mov	x0, x1
    219c:	94000b4d 	bl	4ed0 <utee_cryp_obj_close>
/home/lagadanu/Desktop/qemu/optee_os/lib/libutee/tee_api_objects.c:452
    21a0:	34ffff60 	cbz	w0, 218c <TEE_CreatePersistentObject+0x44>
/home/lagadanu/Desktop/qemu/optee_os/lib/libutee/tee_api_objects.c:458
    21a4:	129ffee1 	mov	w1, #0xffff0008            	// #-65528
    21a8:	6b01001f 	cmp	w0, w1
    21ac:	129fff81 	mov	w1, #0xffff0003            	// #-65533
    21b0:	7a411004 	ccmp	w0, w1, #0x4, ne
    21b4:	54fffec0 	b.eq	218c <TEE_CreatePersistentObject+0x44>
/home/lagadanu/Desktop/qemu/optee_os/lib/libutee/tee_api_objects.c:460
    21b8:	129ffe61 	mov	w1, #0xffff000c            	// #-65524
    21bc:	6b01001f 	cmp	w0, w1
    21c0:	1299f7c1 	mov	w1, #0xffff3041            	// #-53183
    21c4:	7a411004 	ccmp	w0, w1, #0x4, ne
    21c8:	54fffe20 	b.eq	218c <TEE_CreatePersistentObject+0x44>
/home/lagadanu/Desktop/qemu/optee_os/lib/libutee/tee_api_objects.c:462
    21cc:	121e7802 	and	w2, w0, #0xfffffffd
    21d0:	52800021 	mov	w1, #0x1                   	// #1
    21d4:	72be0201 	movk	w1, #0xf010, lsl #16
    21d8:	6b01005f 	cmp	w2, w1
    21dc:	54fffd80 	b.eq	218c <TEE_CreatePersistentObject+0x44>
/home/lagadanu/Desktop/qemu/optee_os/lib/libutee/tee_api_objects.c:465
    21e0:	94000a32 	bl	4aa8 <TEE_Panic>
/home/lagadanu/Desktop/qemu/optee_os/lib/libutee/tee_api_objects.c:467
    21e4:	52800000 	mov	w0, #0x0                   	// #0
    21e8:	17ffffe9 	b	218c <TEE_CreatePersistentObject+0x44>
/home/lagadanu/Desktop/qemu/optee_os/lib/libutee/tee_api_objects.c:456
    21ec:	b4fffdd3 	cbz	x19, 21a4 <TEE_CreatePersistentObject+0x5c>
/home/lagadanu/Desktop/qemu/optee_os/lib/libutee/tee_api_objects.c:457
    21f0:	f900027f 	str	xzr, [x19]
    21f4:	17ffffec 	b	21a4 <TEE_CreatePersistentObject+0x5c>
/home/lagadanu/Desktop/qemu/optee_os/lib/libutee/tee_api_objects.c:435
    21f8:	129ffee0 	mov	w0, #0xffff0008            	// #-65528
/home/lagadanu/Desktop/qemu/optee_os/lib/libutee/tee_api_objects.c:456
    21fc:	b5ffffa7 	cbnz	x7, 21f0 <TEE_CreatePersistentObject+0xa8>
    2200:	17ffffe3 	b	218c <TEE_CreatePersistentObject+0x44>
/home/lagadanu/Desktop/qemu/optee_os/lib/libutee/tee_api_objects.c:440
    2204:	129fff20 	mov	w0, #0xffff0006            	// #-65530
/home/lagadanu/Desktop/qemu/optee_os/lib/libutee/tee_api_objects.c:456
    2208:	b5ffff47 	cbnz	x7, 21f0 <TEE_CreatePersistentObject+0xa8>
    220c:	17ffffeb 	b	21b8 <TEE_CreatePersistentObject+0x70>

0000000000002210 <TEE_CloseAndDeletePersistentObject1>:
TEE_CloseAndDeletePersistentObject1():
/home/lagadanu/Desktop/qemu/optee_os/lib/libutee/tee_api_objects.c:490
    2210:	a9be7bfd 	stp	x29, x30, [sp,#-32]!
    2214:	910003fd 	mov	x29, sp
    2218:	a90153f3 	stp	x19, x20, [sp,#16]
    221c:	52800074 	mov	w20, #0x3                   	// #3
    2220:	72be0214 	movk	w20, #0xf010, lsl #16
/home/lagadanu/Desktop/qemu/optee_os/lib/libutee/tee_api_objects.c:494
    2224:	2a1403f3 	mov	w19, w20
/home/lagadanu/Desktop/qemu/optee_os/lib/libutee/tee_api_objects.c:493
    2228:	b40000e0 	cbz	x0, 2244 <TEE_CloseAndDeletePersistentObject1+0x34>
/home/lagadanu/Desktop/qemu/optee_os/lib/libutee/tee_api_objects.c:496
    222c:	94000b56 	bl	4f84 <utee_storage_obj_del>
/home/lagadanu/Desktop/qemu/optee_os/lib/libutee/tee_api_objects.c:498
    2230:	7100001f 	cmp	w0, #0x0
/home/lagadanu/Desktop/qemu/optee_os/lib/libutee/tee_api_objects.c:496
    2234:	2a0003f3 	mov	w19, w0
/home/lagadanu/Desktop/qemu/optee_os/lib/libutee/tee_api_objects.c:498
    2238:	7a541004 	ccmp	w0, w20, #0x4, ne
    223c:	54000040 	b.eq	2244 <TEE_CloseAndDeletePersistentObject1+0x34>
/home/lagadanu/Desktop/qemu/optee_os/lib/libutee/tee_api_objects.c:499
    2240:	94000a1a 	bl	4aa8 <TEE_Panic>
/home/lagadanu/Desktop/qemu/optee_os/lib/libutee/tee_api_objects.c:502
    2244:	2a1303e0 	mov	w0, w19
    2248:	a94153f3 	ldp	x19, x20, [sp,#16]
    224c:	a8c27bfd 	ldp	x29, x30, [sp],#32
    2250:	d65f03c0 	ret

0000000000002254 <TEE_CloseAndDeletePersistentObject>:
TEE_CloseAndDeletePersistentObject():
/home/lagadanu/Desktop/qemu/optee_os/lib/libutee/tee_api_objects.c:480
    2254:	b4000140 	cbz	x0, 227c <TEE_CloseAndDeletePersistentObject+0x28>
/home/lagadanu/Desktop/qemu/optee_os/lib/libutee/tee_api_objects.c:477
    2258:	a9bf7bfd 	stp	x29, x30, [sp,#-16]!
    225c:	910003fd 	mov	x29, sp
/home/lagadanu/Desktop/qemu/optee_os/lib/libutee/tee_api_objects.c:483
    2260:	97ffffec 	bl	2210 <TEE_CloseAndDeletePersistentObject1>
/home/lagadanu/Desktop/qemu/optee_os/lib/libutee/tee_api_objects.c:485
    2264:	34000080 	cbz	w0, 2274 <TEE_CloseAndDeletePersistentObject+0x20>
/home/lagadanu/Desktop/qemu/optee_os/lib/libutee/tee_api_objects.c:487
    2268:	a8c17bfd 	ldp	x29, x30, [sp],#16
/home/lagadanu/Desktop/qemu/optee_os/lib/libutee/tee_api_objects.c:486
    226c:	52800000 	mov	w0, #0x0                   	// #0
    2270:	14000a0e 	b	4aa8 <TEE_Panic>
/home/lagadanu/Desktop/qemu/optee_os/lib/libutee/tee_api_objects.c:487
    2274:	a8c17bfd 	ldp	x29, x30, [sp],#16
    2278:	d65f03c0 	ret
    227c:	d65f03c0 	ret

0000000000002280 <TEE_RenamePersistentObject>:
TEE_RenamePersistentObject():
/home/lagadanu/Desktop/qemu/optee_os/lib/libutee/tee_api_objects.c:508
    2280:	a9be7bfd 	stp	x29, x30, [sp,#-32]!
    2284:	910003fd 	mov	x29, sp
    2288:	f9000bf3 	str	x19, [sp,#16]
/home/lagadanu/Desktop/qemu/optee_os/lib/libutee/tee_api_objects.c:512
    228c:	129ffef3 	mov	w19, #0xffff0008            	// #-65528
/home/lagadanu/Desktop/qemu/optee_os/lib/libutee/tee_api_objects.c:511
    2290:	b4000100 	cbz	x0, 22b0 <TEE_RenamePersistentObject+0x30>
/home/lagadanu/Desktop/qemu/optee_os/lib/libutee/tee_api_objects.c:521
    2294:	7101005f 	cmp	w2, #0x40
/home/lagadanu/Desktop/qemu/optee_os/lib/libutee/tee_api_objects.c:522
    2298:	129fff33 	mov	w19, #0xffff0006            	// #-65530
/home/lagadanu/Desktop/qemu/optee_os/lib/libutee/tee_api_objects.c:521
    229c:	fa409824 	ccmp	x1, #0x0, #0x4, ls
    22a0:	54000080 	b.eq	22b0 <TEE_RenamePersistentObject+0x30>
/home/lagadanu/Desktop/qemu/optee_os/lib/libutee/tee_api_objects.c:526
    22a4:	2a0203e2 	mov	w2, w2
    22a8:	94000b3a 	bl	4f90 <utee_storage_obj_rename>
    22ac:	2a0003f3 	mov	w19, w0
/home/lagadanu/Desktop/qemu/optee_os/lib/libutee/tee_api_objects.c:530
    22b0:	7100027f 	cmp	w19, #0x0
    22b4:	129fff80 	mov	w0, #0xffff0003            	// #-65533
    22b8:	7a401264 	ccmp	w19, w0, #0x4, ne
    22bc:	54000100 	b.eq	22dc <TEE_RenamePersistentObject+0x5c>
/home/lagadanu/Desktop/qemu/optee_os/lib/libutee/tee_api_objects.c:532
    22c0:	121e7a61 	and	w1, w19, #0xfffffffd
    22c4:	52800020 	mov	w0, #0x1                   	// #1
    22c8:	72be0200 	movk	w0, #0xf010, lsl #16
    22cc:	6b00003f 	cmp	w1, w0
    22d0:	54000060 	b.eq	22dc <TEE_RenamePersistentObject+0x5c>
/home/lagadanu/Desktop/qemu/optee_os/lib/libutee/tee_api_objects.c:534
    22d4:	2a1303e0 	mov	w0, w19
    22d8:	940009f4 	bl	4aa8 <TEE_Panic>
/home/lagadanu/Desktop/qemu/optee_os/lib/libutee/tee_api_objects.c:537
    22dc:	2a1303e0 	mov	w0, w19
    22e0:	f9400bf3 	ldr	x19, [sp,#16]
    22e4:	a8c27bfd 	ldp	x29, x30, [sp],#32
    22e8:	d65f03c0 	ret

00000000000022ec <TEE_AllocatePersistentObjectEnumerator>:
TEE_AllocatePersistentObjectEnumerator():
/home/lagadanu/Desktop/qemu/optee_os/lib/libutee/tee_api_objects.c:541
    22ec:	a9bd7bfd 	stp	x29, x30, [sp,#-48]!
    22f0:	910003fd 	mov	x29, sp
    22f4:	a90153f3 	stp	x19, x20, [sp,#16]
/home/lagadanu/Desktop/qemu/optee_os/lib/libutee/tee_api_objects.c:546
    22f8:	129fff33 	mov	w19, #0xffff0006            	// #-65530
/home/lagadanu/Desktop/qemu/optee_os/lib/libutee/tee_api_objects.c:545
    22fc:	b40001e0 	cbz	x0, 2338 <TEE_AllocatePersistentObjectEnumerator+0x4c>
    2300:	aa0003f4 	mov	x20, x0
/home/lagadanu/Desktop/qemu/optee_os/lib/libutee/tee_api_objects.c:548
    2304:	9100b3a0 	add	x0, x29, #0x2c
    2308:	94000b25 	bl	4f9c <utee_storage_alloc_enum>
    230c:	2a0003f3 	mov	w19, w0
/home/lagadanu/Desktop/qemu/optee_os/lib/libutee/tee_api_objects.c:550
    2310:	34000040 	cbz	w0, 2318 <TEE_AllocatePersistentObjectEnumerator+0x2c>
/home/lagadanu/Desktop/qemu/optee_os/lib/libutee/tee_api_objects.c:551
    2314:	b9002fbf 	str	wzr, [x29,#44]
/home/lagadanu/Desktop/qemu/optee_os/lib/libutee/tee_api_objects.c:553
    2318:	b9402fa0 	ldr	w0, [x29,#44]
/home/lagadanu/Desktop/qemu/optee_os/lib/libutee/tee_api_objects.c:555
    231c:	7100027f 	cmp	w19, #0x0
/home/lagadanu/Desktop/qemu/optee_os/lib/libutee/tee_api_objects.c:553
    2320:	f9000280 	str	x0, [x20]
/home/lagadanu/Desktop/qemu/optee_os/lib/libutee/tee_api_objects.c:555
    2324:	129fff80 	mov	w0, #0xffff0003            	// #-65533
    2328:	7a401264 	ccmp	w19, w0, #0x4, ne
    232c:	54000060 	b.eq	2338 <TEE_AllocatePersistentObjectEnumerator+0x4c>
/home/lagadanu/Desktop/qemu/optee_os/lib/libutee/tee_api_objects.c:557
    2330:	2a1303e0 	mov	w0, w19
    2334:	940009dd 	bl	4aa8 <TEE_Panic>
/home/lagadanu/Desktop/qemu/optee_os/lib/libutee/tee_api_objects.c:560
    2338:	2a1303e0 	mov	w0, w19
    233c:	a94153f3 	ldp	x19, x20, [sp,#16]
    2340:	a8c37bfd 	ldp	x29, x30, [sp],#48
    2344:	d65f03c0 	ret

0000000000002348 <TEE_FreePersistentObjectEnumerator>:
TEE_FreePersistentObjectEnumerator():
/home/lagadanu/Desktop/qemu/optee_os/lib/libutee/tee_api_objects.c:566
    2348:	b4000120 	cbz	x0, 236c <TEE_FreePersistentObjectEnumerator+0x24>
/home/lagadanu/Desktop/qemu/optee_os/lib/libutee/tee_api_objects.c:563
    234c:	a9bf7bfd 	stp	x29, x30, [sp,#-16]!
    2350:	910003fd 	mov	x29, sp
/home/lagadanu/Desktop/qemu/optee_os/lib/libutee/tee_api_objects.c:569
    2354:	94000b15 	bl	4fa8 <utee_storage_free_enum>
/home/lagadanu/Desktop/qemu/optee_os/lib/libutee/tee_api_objects.c:571
    2358:	34000060 	cbz	w0, 2364 <TEE_FreePersistentObjectEnumerator+0x1c>
/home/lagadanu/Desktop/qemu/optee_os/lib/libutee/tee_api_objects.c:573
    235c:	a8c17bfd 	ldp	x29, x30, [sp],#16
/home/lagadanu/Desktop/qemu/optee_os/lib/libutee/tee_api_objects.c:572
    2360:	140009d2 	b	4aa8 <TEE_Panic>
/home/lagadanu/Desktop/qemu/optee_os/lib/libutee/tee_api_objects.c:573
    2364:	a8c17bfd 	ldp	x29, x30, [sp],#16
    2368:	d65f03c0 	ret
    236c:	d65f03c0 	ret

0000000000002370 <TEE_ResetPersistentObjectEnumerator>:
TEE_ResetPersistentObjectEnumerator():
/home/lagadanu/Desktop/qemu/optee_os/lib/libutee/tee_api_objects.c:579
    2370:	b4000120 	cbz	x0, 2394 <TEE_ResetPersistentObjectEnumerator+0x24>
/home/lagadanu/Desktop/qemu/optee_os/lib/libutee/tee_api_objects.c:576
    2374:	a9bf7bfd 	stp	x29, x30, [sp,#-16]!
    2378:	910003fd 	mov	x29, sp
/home/lagadanu/Desktop/qemu/optee_os/lib/libutee/tee_api_objects.c:582
    237c:	94000b0e 	bl	4fb4 <utee_storage_reset_enum>
/home/lagadanu/Desktop/qemu/optee_os/lib/libutee/tee_api_objects.c:584
    2380:	34000060 	cbz	w0, 238c <TEE_ResetPersistentObjectEnumerator+0x1c>
/home/lagadanu/Desktop/qemu/optee_os/lib/libutee/tee_api_objects.c:586
    2384:	a8c17bfd 	ldp	x29, x30, [sp],#16
/home/lagadanu/Desktop/qemu/optee_os/lib/libutee/tee_api_objects.c:585
    2388:	140009c8 	b	4aa8 <TEE_Panic>
/home/lagadanu/Desktop/qemu/optee_os/lib/libutee/tee_api_objects.c:586
    238c:	a8c17bfd 	ldp	x29, x30, [sp],#16
    2390:	d65f03c0 	ret
    2394:	d65f03c0 	ret

0000000000002398 <TEE_StartPersistentObjectEnumerator>:
TEE_StartPersistentObjectEnumerator():
/home/lagadanu/Desktop/qemu/optee_os/lib/libutee/tee_api_objects.c:591
    2398:	a9be7bfd 	stp	x29, x30, [sp,#-32]!
/home/lagadanu/Desktop/qemu/optee_os/lib/libutee/tee_api_objects.c:594
    239c:	2a0103e1 	mov	w1, w1
/home/lagadanu/Desktop/qemu/optee_os/lib/libutee/tee_api_objects.c:591
    23a0:	910003fd 	mov	x29, sp
    23a4:	f9000bf3 	str	x19, [sp,#16]
/home/lagadanu/Desktop/qemu/optee_os/lib/libutee/tee_api_objects.c:594
    23a8:	94000b06 	bl	4fc0 <utee_storage_start_enum>
/home/lagadanu/Desktop/qemu/optee_os/lib/libutee/tee_api_objects.c:597
    23ac:	7100001f 	cmp	w0, #0x0
    23b0:	129ffee1 	mov	w1, #0xffff0008            	// #-65528
/home/lagadanu/Desktop/qemu/optee_os/lib/libutee/tee_api_objects.c:594
    23b4:	2a0003f3 	mov	w19, w0
/home/lagadanu/Desktop/qemu/optee_os/lib/libutee/tee_api_objects.c:597
    23b8:	7a411004 	ccmp	w0, w1, #0x4, ne
    23bc:	540000e0 	b.eq	23d8 <TEE_StartPersistentObjectEnumerator+0x40>
/home/lagadanu/Desktop/qemu/optee_os/lib/libutee/tee_api_objects.c:599
    23c0:	121e7802 	and	w2, w0, #0xfffffffd
    23c4:	52800021 	mov	w1, #0x1                   	// #1
    23c8:	72be0201 	movk	w1, #0xf010, lsl #16
    23cc:	6b01005f 	cmp	w2, w1
    23d0:	54000040 	b.eq	23d8 <TEE_StartPersistentObjectEnumerator+0x40>
/home/lagadanu/Desktop/qemu/optee_os/lib/libutee/tee_api_objects.c:601
    23d4:	940009b5 	bl	4aa8 <TEE_Panic>
/home/lagadanu/Desktop/qemu/optee_os/lib/libutee/tee_api_objects.c:604
    23d8:	2a1303e0 	mov	w0, w19
    23dc:	f9400bf3 	ldr	x19, [sp,#16]
    23e0:	a8c27bfd 	ldp	x29, x30, [sp],#32
    23e4:	d65f03c0 	ret

00000000000023e8 <TEE_GetNextPersistentObject>:
TEE_GetNextPersistentObject():
/home/lagadanu/Desktop/qemu/optee_os/lib/libutee/tee_api_objects.c:609
    23e8:	a9bb7bfd 	stp	x29, x30, [sp,#-80]!
/home/lagadanu/Desktop/qemu/optee_os/lib/libutee/tee_api_objects.c:620
    23ec:	f100005f 	cmp	x2, #0x0
    23f0:	fa401864 	ccmp	x3, #0x0, #0x4, ne
/home/lagadanu/Desktop/qemu/optee_os/lib/libutee/tee_api_objects.c:609
    23f4:	910003fd 	mov	x29, sp
    23f8:	a90153f3 	stp	x19, x20, [sp,#16]
    23fc:	129fff33 	mov	w19, #0xffff0006            	// #-65530
/home/lagadanu/Desktop/qemu/optee_os/lib/libutee/tee_api_objects.c:620
    2400:	54000180 	b.eq	2430 <TEE_GetNextPersistentObject+0x48>
    2404:	aa0303f4 	mov	x20, x3
/home/lagadanu/Desktop/qemu/optee_os/lib/libutee/tee_api_objects.c:629
    2408:	910143a3 	add	x3, x29, #0x50
/home/lagadanu/Desktop/qemu/optee_os/lib/libutee/tee_api_objects.c:628
    240c:	f100003f 	cmp	x1, #0x0
/home/lagadanu/Desktop/qemu/optee_os/lib/libutee/tee_api_objects.c:629
    2410:	b9400284 	ldr	w4, [x20]
    2414:	f81d8c64 	str	x4, [x3,#-40]!
/home/lagadanu/Desktop/qemu/optee_os/lib/libutee/tee_api_objects.c:630
    2418:	9100c3a4 	add	x4, x29, #0x30
    241c:	9a810081 	csel	x1, x4, x1, eq
    2420:	94000aeb 	bl	4fcc <utee_storage_next_enum>
    2424:	2a0003f3 	mov	w19, w0
/home/lagadanu/Desktop/qemu/optee_os/lib/libutee/tee_api_objects.c:632
    2428:	f94017a0 	ldr	x0, [x29,#40]
    242c:	b9000280 	str	w0, [x20]
/home/lagadanu/Desktop/qemu/optee_os/lib/libutee/tee_api_objects.c:635
    2430:	7100027f 	cmp	w19, #0x0
    2434:	129ffee0 	mov	w0, #0xffff0008            	// #-65528
    2438:	7a401264 	ccmp	w19, w0, #0x4, ne
    243c:	54000100 	b.eq	245c <TEE_GetNextPersistentObject+0x74>
/home/lagadanu/Desktop/qemu/optee_os/lib/libutee/tee_api_objects.c:637
    2440:	121e7a61 	and	w1, w19, #0xfffffffd
    2444:	52800020 	mov	w0, #0x1                   	// #1
    2448:	72be0200 	movk	w0, #0xf010, lsl #16
    244c:	6b00003f 	cmp	w1, w0
    2450:	54000060 	b.eq	245c <TEE_GetNextPersistentObject+0x74>
/home/lagadanu/Desktop/qemu/optee_os/lib/libutee/tee_api_objects.c:639
    2454:	2a1303e0 	mov	w0, w19
    2458:	94000994 	bl	4aa8 <TEE_Panic>
/home/lagadanu/Desktop/qemu/optee_os/lib/libutee/tee_api_objects.c:642
    245c:	2a1303e0 	mov	w0, w19
    2460:	a94153f3 	ldp	x19, x20, [sp,#16]
    2464:	a8c57bfd 	ldp	x29, x30, [sp],#80
    2468:	d65f03c0 	ret

000000000000246c <TEE_ReadObjectData>:
TEE_ReadObjectData():
/home/lagadanu/Desktop/qemu/optee_os/lib/libutee/tee_api_objects.c:648
    246c:	a9bd7bfd 	stp	x29, x30, [sp,#-48]!
    2470:	910003fd 	mov	x29, sp
    2474:	a90153f3 	stp	x19, x20, [sp,#16]
    2478:	129fff33 	mov	w19, #0xffff0006            	// #-65530
/home/lagadanu/Desktop/qemu/optee_os/lib/libutee/tee_api_objects.c:652
    247c:	b4000140 	cbz	x0, 24a4 <TEE_ReadObjectData+0x38>
    2480:	aa0303f4 	mov	x20, x3
/home/lagadanu/Desktop/qemu/optee_os/lib/libutee/tee_api_objects.c:657
    2484:	9100c3a3 	add	x3, x29, #0x30
/home/lagadanu/Desktop/qemu/optee_os/lib/libutee/tee_api_objects.c:658
    2488:	2a0203e2 	mov	w2, w2
/home/lagadanu/Desktop/qemu/optee_os/lib/libutee/tee_api_objects.c:657
    248c:	b9400284 	ldr	w4, [x20]
    2490:	f81f8c64 	str	x4, [x3,#-8]!
/home/lagadanu/Desktop/qemu/optee_os/lib/libutee/tee_api_objects.c:658
    2494:	94000ad1 	bl	4fd8 <utee_storage_obj_read>
    2498:	2a0003f3 	mov	w19, w0
/home/lagadanu/Desktop/qemu/optee_os/lib/libutee/tee_api_objects.c:660
    249c:	f94017a0 	ldr	x0, [x29,#40]
    24a0:	b9000280 	str	w0, [x20]
/home/lagadanu/Desktop/qemu/optee_os/lib/libutee/tee_api_objects.c:664
    24a4:	121e7a60 	and	w0, w19, #0xfffffffd
    24a8:	7100027f 	cmp	w19, #0x0
    24ac:	52800021 	mov	w1, #0x1                   	// #1
    24b0:	72be0201 	movk	w1, #0xf010, lsl #16
    24b4:	7a411004 	ccmp	w0, w1, #0x4, ne
    24b8:	54000060 	b.eq	24c4 <TEE_ReadObjectData+0x58>
/home/lagadanu/Desktop/qemu/optee_os/lib/libutee/tee_api_objects.c:666
    24bc:	2a1303e0 	mov	w0, w19
    24c0:	9400097a 	bl	4aa8 <TEE_Panic>
/home/lagadanu/Desktop/qemu/optee_os/lib/libutee/tee_api_objects.c:669
    24c4:	2a1303e0 	mov	w0, w19
    24c8:	a94153f3 	ldp	x19, x20, [sp,#16]
    24cc:	a8c37bfd 	ldp	x29, x30, [sp],#48
    24d0:	d65f03c0 	ret

00000000000024d4 <TEE_WriteObjectData>:
TEE_WriteObjectData():
/home/lagadanu/Desktop/qemu/optee_os/lib/libutee/tee_api_objects.c:673
    24d4:	a9be7bfd 	stp	x29, x30, [sp,#-32]!
    24d8:	910003fd 	mov	x29, sp
    24dc:	f9000bf3 	str	x19, [sp,#16]
    24e0:	129fff33 	mov	w19, #0xffff0006            	// #-65530
/home/lagadanu/Desktop/qemu/optee_os/lib/libutee/tee_api_objects.c:676
    24e4:	b4000080 	cbz	x0, 24f4 <TEE_WriteObjectData+0x20>
/home/lagadanu/Desktop/qemu/optee_os/lib/libutee/tee_api_objects.c:686
    24e8:	2a0203e2 	mov	w2, w2
    24ec:	94000abe 	bl	4fe4 <utee_storage_obj_write>
    24f0:	2a0003f3 	mov	w19, w0
/home/lagadanu/Desktop/qemu/optee_os/lib/libutee/tee_api_objects.c:689
    24f4:	7100027f 	cmp	w19, #0x0
    24f8:	1299f7c0 	mov	w0, #0xffff3041            	// #-53183
    24fc:	7a401264 	ccmp	w19, w0, #0x4, ne
    2500:	54000140 	b.eq	2528 <TEE_WriteObjectData+0x54>
/home/lagadanu/Desktop/qemu/optee_os/lib/libutee/tee_api_objects.c:692
    2504:	121e7a61 	and	w1, w19, #0xfffffffd
    2508:	52800020 	mov	w0, #0x1                   	// #1
    250c:	72be0200 	movk	w0, #0xf010, lsl #16
    2510:	6b00003f 	cmp	w1, w0
    2514:	1299fe00 	mov	w0, #0xffff300f            	// #-53233
    2518:	7a401264 	ccmp	w19, w0, #0x4, ne
    251c:	54000060 	b.eq	2528 <TEE_WriteObjectData+0x54>
/home/lagadanu/Desktop/qemu/optee_os/lib/libutee/tee_api_objects.c:694
    2520:	2a1303e0 	mov	w0, w19
    2524:	94000961 	bl	4aa8 <TEE_Panic>
/home/lagadanu/Desktop/qemu/optee_os/lib/libutee/tee_api_objects.c:697
    2528:	2a1303e0 	mov	w0, w19
    252c:	f9400bf3 	ldr	x19, [sp,#16]
    2530:	a8c27bfd 	ldp	x29, x30, [sp],#32
    2534:	d65f03c0 	ret

0000000000002538 <TEE_TruncateObjectData>:
TEE_TruncateObjectData():
/home/lagadanu/Desktop/qemu/optee_os/lib/libutee/tee_api_objects.c:700
    2538:	a9be7bfd 	stp	x29, x30, [sp,#-32]!
    253c:	910003fd 	mov	x29, sp
    2540:	f9000bf3 	str	x19, [sp,#16]
    2544:	129fff33 	mov	w19, #0xffff0006            	// #-65530
/home/lagadanu/Desktop/qemu/optee_os/lib/libutee/tee_api_objects.c:703
    2548:	b4000080 	cbz	x0, 2558 <TEE_TruncateObjectData+0x20>
/home/lagadanu/Desktop/qemu/optee_os/lib/libutee/tee_api_objects.c:708
    254c:	2a0103e1 	mov	w1, w1
    2550:	94000aa8 	bl	4ff0 <utee_storage_obj_trunc>
    2554:	2a0003f3 	mov	w19, w0
/home/lagadanu/Desktop/qemu/optee_os/lib/libutee/tee_api_objects.c:711
    2558:	7100027f 	cmp	w19, #0x0
    255c:	1299f7c0 	mov	w0, #0xffff3041            	// #-53183
    2560:	7a401264 	ccmp	w19, w0, #0x4, ne
    2564:	54000100 	b.eq	2584 <TEE_TruncateObjectData+0x4c>
/home/lagadanu/Desktop/qemu/optee_os/lib/libutee/tee_api_objects.c:713
    2568:	121e7a61 	and	w1, w19, #0xfffffffd
    256c:	52800020 	mov	w0, #0x1                   	// #1
    2570:	72be0200 	movk	w0, #0xf010, lsl #16
    2574:	6b00003f 	cmp	w1, w0
    2578:	54000060 	b.eq	2584 <TEE_TruncateObjectData+0x4c>
/home/lagadanu/Desktop/qemu/optee_os/lib/libutee/tee_api_objects.c:715
    257c:	2a1303e0 	mov	w0, w19
    2580:	9400094a 	bl	4aa8 <TEE_Panic>
/home/lagadanu/Desktop/qemu/optee_os/lib/libutee/tee_api_objects.c:718
    2584:	2a1303e0 	mov	w0, w19
    2588:	f9400bf3 	ldr	x19, [sp,#16]
    258c:	a8c27bfd 	ldp	x29, x30, [sp],#32
    2590:	d65f03c0 	ret

0000000000002594 <TEE_SeekObjectData>:
TEE_SeekObjectData():
/home/lagadanu/Desktop/qemu/optee_os/lib/libutee/tee_api_objects.c:722
    2594:	a9bb7bfd 	stp	x29, x30, [sp,#-80]!
    2598:	910003fd 	mov	x29, sp
    259c:	a90153f3 	stp	x19, x20, [sp,#16]
/home/lagadanu/Desktop/qemu/optee_os/lib/libutee/tee_api_objects.c:727
    25a0:	129fff33 	mov	w19, #0xffff0006            	// #-65530
/home/lagadanu/Desktop/qemu/optee_os/lib/libutee/tee_api_objects.c:722
    25a4:	a9025bf5 	stp	x21, x22, [sp,#32]
/home/lagadanu/Desktop/qemu/optee_os/lib/libutee/tee_api_objects.c:726
    25a8:	b40003e0 	cbz	x0, 2624 <TEE_SeekObjectData+0x90>
    25ac:	aa0003f6 	mov	x22, x0
    25b0:	2a0103f4 	mov	w20, w1
    25b4:	2a0203f5 	mov	w21, w2
/home/lagadanu/Desktop/qemu/optee_os/lib/libutee/tee_api_objects.c:731
    25b8:	9100c3a1 	add	x1, x29, #0x30
    25bc:	94000a39 	bl	4ea0 <utee_cryp_obj_get_info>
    25c0:	2a0003f3 	mov	w19, w0
/home/lagadanu/Desktop/qemu/optee_os/lib/libutee/tee_api_objects.c:732
    25c4:	35000300 	cbnz	w0, 2624 <TEE_SeekObjectData+0x90>
/home/lagadanu/Desktop/qemu/optee_os/lib/libutee/tee_api_objects.c:735
    25c8:	710006bf 	cmp	w21, #0x1
    25cc:	540000c0 	b.eq	25e4 <TEE_SeekObjectData+0x50>
    25d0:	34000115 	cbz	w21, 25f0 <TEE_SeekObjectData+0x5c>
    25d4:	71000abf 	cmp	w21, #0x2
    25d8:	54000180 	b.eq	2608 <TEE_SeekObjectData+0x74>
/home/lagadanu/Desktop/qemu/optee_os/lib/libutee/tee_api_objects.c:761
    25dc:	129ffef3 	mov	w19, #0xffff0008            	// #-65528
    25e0:	14000011 	b	2624 <TEE_SeekObjectData+0x90>
/home/lagadanu/Desktop/qemu/optee_os/lib/libutee/tee_api_objects.c:746
    25e4:	b94047a0 	ldr	w0, [x29,#68]
/home/lagadanu/Desktop/qemu/optee_os/lib/libutee/tee_api_objects.c:743
    25e8:	7100029f 	cmp	w20, #0x0
    25ec:	5400014c 	b.gt	2614 <TEE_SeekObjectData+0x80>
/home/lagadanu/Desktop/qemu/optee_os/lib/libutee/tee_api_objects.c:765
    25f0:	2a1503e2 	mov	w2, w21
    25f4:	2a1403e1 	mov	w1, w20
    25f8:	aa1603e0 	mov	x0, x22
    25fc:	94000a80 	bl	4ffc <utee_storage_obj_seek>
    2600:	2a0003f3 	mov	w19, w0
    2604:	14000008 	b	2624 <TEE_SeekObjectData+0x90>
/home/lagadanu/Desktop/qemu/optee_os/lib/libutee/tee_api_objects.c:753
    2608:	7100029f 	cmp	w20, #0x0
    260c:	54ffff2d 	b.le	25f0 <TEE_SeekObjectData+0x5c>
/home/lagadanu/Desktop/qemu/optee_os/lib/libutee/tee_api_objects.c:755 (discriminator 1)
    2610:	b94043a0 	ldr	w0, [x29,#64]
    2614:	0b000281 	add	w1, w20, w0
/home/lagadanu/Desktop/qemu/optee_os/lib/libutee/tee_api_objects.c:748 (discriminator 1)
    2618:	1299fe13 	mov	w19, #0xffff300f            	// #-53233
/home/lagadanu/Desktop/qemu/optee_os/lib/libutee/tee_api_objects.c:753 (discriminator 1)
    261c:	6b01001f 	cmp	w0, w1
    2620:	54fffe89 	b.ls	25f0 <TEE_SeekObjectData+0x5c>
/home/lagadanu/Desktop/qemu/optee_os/lib/libutee/tee_api_objects.c:768
    2624:	7100027f 	cmp	w19, #0x0
    2628:	1299fe00 	mov	w0, #0xffff300f            	// #-53233
    262c:	7a401264 	ccmp	w19, w0, #0x4, ne
    2630:	54000100 	b.eq	2650 <TEE_SeekObjectData+0xbc>
/home/lagadanu/Desktop/qemu/optee_os/lib/libutee/tee_api_objects.c:770
    2634:	121e7a61 	and	w1, w19, #0xfffffffd
    2638:	52800020 	mov	w0, #0x1                   	// #1
    263c:	72be0200 	movk	w0, #0xf010, lsl #16
    2640:	6b00003f 	cmp	w1, w0
    2644:	54000060 	b.eq	2650 <TEE_SeekObjectData+0xbc>
/home/lagadanu/Desktop/qemu/optee_os/lib/libutee/tee_api_objects.c:772
    2648:	2a1303e0 	mov	w0, w19
    264c:	94000917 	bl	4aa8 <TEE_Panic>
/home/lagadanu/Desktop/qemu/optee_os/lib/libutee/tee_api_objects.c:775
    2650:	2a1303e0 	mov	w0, w19
    2654:	a94153f3 	ldp	x19, x20, [sp,#16]
    2658:	a9425bf5 	ldp	x21, x22, [sp,#32]
    265c:	a8c57bfd 	ldp	x29, x30, [sp],#80
    2660:	d65f03c0 	ret

0000000000002664 <tee_buffer_update>:
tee_buffer_update():
/home/lagadanu/Desktop/qemu/optee_os/lib/libutee/tee_api_operations.c:845
    2664:	a9b87bfd 	stp	x29, x30, [sp,#-128]!
    2668:	910003fd 	mov	x29, sp
    266c:	a90153f3 	stp	x19, x20, [sp,#16]
    2670:	aa0003f3 	mov	x19, x0
    2674:	a9025bf5 	stp	x21, x22, [sp,#32]
    2678:	a9046bf9 	stp	x25, x26, [sp,#64]
    267c:	aa0303f9 	mov	x25, x3
    2680:	a90363f7 	stp	x23, x24, [sp,#48]
    2684:	a90573fb 	stp	x27, x28, [sp,#80]
    2688:	f90037a5 	str	x5, [x29,#104]
/home/lagadanu/Desktop/qemu/optee_os/lib/libutee/tee_api_operations.c:850
    268c:	f94000b6 	ldr	x22, [x5]
/home/lagadanu/Desktop/qemu/optee_os/lib/libutee/tee_api_operations.c:857
    2690:	b5000202 	cbnz	x2, 26d0 <tee_buffer_update+0x6c>
/home/lagadanu/Desktop/qemu/optee_os/lib/libutee/tee_api_operations.c:858
    2694:	b5000183 	cbnz	x3, 26c4 <tee_buffer_update+0x60>
/home/lagadanu/Desktop/qemu/optee_os/lib/libutee/tee_api_operations.c:851
    2698:	d2800017 	mov	x23, #0x0                   	// #0
/home/lagadanu/Desktop/qemu/optee_os/lib/libutee/tee_api_operations.c:933
    269c:	f94037a0 	ldr	x0, [x29,#104]
/home/lagadanu/Desktop/qemu/optee_os/lib/libutee/tee_api_operations.c:935
    26a0:	a94153f3 	ldp	x19, x20, [sp,#16]
    26a4:	a9425bf5 	ldp	x21, x22, [sp,#32]
    26a8:	a9446bf9 	ldp	x25, x26, [sp,#64]
    26ac:	a94573fb 	ldp	x27, x28, [sp,#80]
/home/lagadanu/Desktop/qemu/optee_os/lib/libutee/tee_api_operations.c:933
    26b0:	f9000017 	str	x23, [x0]
/home/lagadanu/Desktop/qemu/optee_os/lib/libutee/tee_api_operations.c:935
    26b4:	a94363f7 	ldp	x23, x24, [sp,#48]
    26b8:	52800000 	mov	w0, #0x0                   	// #0
    26bc:	a8c87bfd 	ldp	x29, x30, [sp],#128
    26c0:	d65f03c0 	ret
/home/lagadanu/Desktop/qemu/optee_os/lib/libutee/tee_api_operations.c:859
    26c4:	52800000 	mov	w0, #0x0                   	// #0
    26c8:	940008f8 	bl	4aa8 <TEE_Panic>
    26cc:	17fffff3 	b	2698 <tee_buffer_update+0x34>
/home/lagadanu/Desktop/qemu/optee_os/lib/libutee/tee_api_operations.c:863
    26d0:	39410000 	ldrb	w0, [x0,#64]
    26d4:	aa0103f8 	mov	x24, x1
    26d8:	aa0203f5 	mov	x21, x2
    26dc:	aa0403fb 	mov	x27, x4
    26e0:	f940267a 	ldr	x26, [x19,#72]
    26e4:	34000860 	cbz	w0, 27f0 <tee_buffer_update+0x18c>
/home/lagadanu/Desktop/qemu/optee_os/lib/libutee/tee_api_operations.c:864
    26e8:	d37ffb54 	lsl	x20, x26, #1
/home/lagadanu/Desktop/qemu/optee_os/lib/libutee/tee_api_operations.c:865
    26ec:	d280003c 	mov	x28, #0x1                   	// #1
/home/lagadanu/Desktop/qemu/optee_os/lib/libutee/tee_api_operations.c:871
    26f0:	f9402a60 	ldr	x0, [x19,#80]
    26f4:	b4000260 	cbz	x0, 2740 <tee_buffer_update+0xdc>
/home/lagadanu/Desktop/qemu/optee_os/lib/libutee/tee_api_operations.c:873
    26f8:	eb1a001f 	cmp	x0, x26
    26fc:	54000802 	b.cs	27fc <tee_buffer_update+0x198>
/home/lagadanu/Desktop/qemu/optee_os/lib/libutee/tee_api_operations.c:874
    2700:	cb00035a 	sub	x26, x26, x0
/home/lagadanu/Desktop/qemu/optee_os/lib/libutee/tee_api_operations.c:877
    2704:	f9401e63 	ldr	x3, [x19,#56]
/home/lagadanu/Desktop/qemu/optee_os/lib/libutee/tee_api_operations.c:876
    2708:	eb19035f 	cmp	x26, x25
    270c:	9a99935a 	csel	x26, x26, x25, ls
/home/lagadanu/Desktop/qemu/optee_os/lib/libutee/tee_api_operations.c:877
    2710:	aa1503e1 	mov	x1, x21
    2714:	aa1a03e2 	mov	x2, x26
    2718:	8b000060 	add	x0, x3, x0
    271c:	97fffaff 	bl	1318 <memcpy>
/home/lagadanu/Desktop/qemu/optee_os/lib/libutee/tee_api_operations.c:878
    2720:	a9448262 	ldp	x2, x0, [x19,#72]
    2724:	8b000340 	add	x0, x26, x0
    2728:	f9002a60 	str	x0, [x19,#80]
/home/lagadanu/Desktop/qemu/optee_os/lib/libutee/tee_api_operations.c:881
    272c:	9ac20801 	udiv	x1, x0, x2
    2730:	9b028020 	msub	x0, x1, x2, x0
    2734:	b5fffb20 	cbnz	x0, 2698 <tee_buffer_update+0x34>
/home/lagadanu/Desktop/qemu/optee_os/lib/libutee/tee_api_operations.c:879
    2738:	8b1a02b5 	add	x21, x21, x26
/home/lagadanu/Desktop/qemu/optee_os/lib/libutee/tee_api_operations.c:880
    273c:	cb1a0339 	sub	x25, x25, x26
/home/lagadanu/Desktop/qemu/optee_os/lib/libutee/tee_api_operations.c:886
    2740:	f9402a77 	ldr	x23, [x19,#80]
    2744:	8b1c029c 	add	x28, x20, x28
    2748:	b4000617 	cbz	x23, 2808 <tee_buffer_update+0x1a4>
/home/lagadanu/Desktop/qemu/optee_os/lib/libutee/tee_api_operations.c:887 (discriminator 1)
    274c:	8b170320 	add	x0, x25, x23
/home/lagadanu/Desktop/qemu/optee_os/lib/libutee/tee_api_operations.c:886 (discriminator 1)
    2750:	eb1c001f 	cmp	x0, x28
    2754:	54000583 	b.cc	2804 <tee_buffer_update+0x1a0>
/home/lagadanu/Desktop/qemu/optee_os/lib/libutee/tee_api_operations.c:888
    2758:	f9402661 	ldr	x1, [x19,#72]
    275c:	cb14001a 	sub	x26, x0, x20
/home/lagadanu/Desktop/qemu/optee_os/lib/libutee/tee_api_operations.c:891
    2760:	910203a4 	add	x4, x29, #0x80
/home/lagadanu/Desktop/qemu/optee_os/lib/libutee/tee_api_operations.c:892
    2764:	aa1b03e3 	mov	x3, x27
/home/lagadanu/Desktop/qemu/optee_os/lib/libutee/tee_api_operations.c:888
    2768:	d1000420 	sub	x0, x1, #0x1
    276c:	cb0103e1 	neg	x1, x1
    2770:	8b00035a 	add	x26, x26, x0
/home/lagadanu/Desktop/qemu/optee_os/lib/libutee/tee_api_operations.c:892
    2774:	b9405a60 	ldr	w0, [x19,#88]
/home/lagadanu/Desktop/qemu/optee_os/lib/libutee/tee_api_operations.c:888
    2778:	8a01035a 	and	x26, x26, x1
/home/lagadanu/Desktop/qemu/optee_os/lib/libutee/tee_api_operations.c:892
    277c:	f9401e61 	ldr	x1, [x19,#56]
/home/lagadanu/Desktop/qemu/optee_os/lib/libutee/tee_api_operations.c:890
    2780:	eb17035f 	cmp	x26, x23
/home/lagadanu/Desktop/qemu/optee_os/lib/libutee/tee_api_operations.c:891
    2784:	f81f8c96 	str	x22, [x4,#-8]!
/home/lagadanu/Desktop/qemu/optee_os/lib/libutee/tee_api_operations.c:890
    2788:	9a97935a 	csel	x26, x26, x23, ls
/home/lagadanu/Desktop/qemu/optee_os/lib/libutee/tee_api_operations.c:892
    278c:	aa1a03e2 	mov	x2, x26
    2790:	d63f0300 	blr	x24
/home/lagadanu/Desktop/qemu/optee_os/lib/libutee/tee_api_operations.c:893
    2794:	34000040 	cbz	w0, 279c <tee_buffer_update+0x138>
/home/lagadanu/Desktop/qemu/optee_os/lib/libutee/tee_api_operations.c:894
    2798:	940008c4 	bl	4aa8 <TEE_Panic>
/home/lagadanu/Desktop/qemu/optee_os/lib/libutee/tee_api_operations.c:898
    279c:	f9402a60 	ldr	x0, [x19,#80]
/home/lagadanu/Desktop/qemu/optee_os/lib/libutee/tee_api_operations.c:895
    27a0:	f9403fb7 	ldr	x23, [x29,#120]
/home/lagadanu/Desktop/qemu/optee_os/lib/libutee/tee_api_operations.c:898
    27a4:	cb1a0000 	sub	x0, x0, x26
    27a8:	f9002a60 	str	x0, [x19,#80]
/home/lagadanu/Desktop/qemu/optee_os/lib/libutee/tee_api_operations.c:895
    27ac:	8b17037b 	add	x27, x27, x23
/home/lagadanu/Desktop/qemu/optee_os/lib/libutee/tee_api_operations.c:896
    27b0:	cb1702d6 	sub	x22, x22, x23
/home/lagadanu/Desktop/qemu/optee_os/lib/libutee/tee_api_operations.c:899
    27b4:	b40002a0 	cbz	x0, 2808 <tee_buffer_update+0x1a4>
/home/lagadanu/Desktop/qemu/optee_os/lib/libutee/tee_api_operations.c:903
    27b8:	f9401e60 	ldr	x0, [x19,#56]
    27bc:	cb1a0282 	sub	x2, x20, x26
    27c0:	8b1a0001 	add	x1, x0, x26
    27c4:	97fffad5 	bl	1318 <memcpy>
/home/lagadanu/Desktop/qemu/optee_os/lib/libutee/tee_api_operations.c:929
    27c8:	f9401e63 	ldr	x3, [x19,#56]
    27cc:	aa1903e2 	mov	x2, x25
    27d0:	f9402a60 	ldr	x0, [x19,#80]
    27d4:	aa1503e1 	mov	x1, x21
    27d8:	8b000060 	add	x0, x3, x0
    27dc:	97fffacf 	bl	1318 <memcpy>
/home/lagadanu/Desktop/qemu/optee_os/lib/libutee/tee_api_operations.c:930
    27e0:	f9402a60 	ldr	x0, [x19,#80]
    27e4:	8b190019 	add	x25, x0, x25
    27e8:	f9002a79 	str	x25, [x19,#80]
    27ec:	17ffffac 	b	269c <tee_buffer_update+0x38>
/home/lagadanu/Desktop/qemu/optee_os/lib/libutee/tee_api_operations.c:867
    27f0:	aa1a03f4 	mov	x20, x26
/home/lagadanu/Desktop/qemu/optee_os/lib/libutee/tee_api_operations.c:868
    27f4:	d280001c 	mov	x28, #0x0                   	// #0
    27f8:	17ffffbe 	b	26f0 <tee_buffer_update+0x8c>
/home/lagadanu/Desktop/qemu/optee_os/lib/libutee/tee_api_operations.c:876
    27fc:	cb00029a 	sub	x26, x20, x0
    2800:	17ffffc1 	b	2704 <tee_buffer_update+0xa0>
/home/lagadanu/Desktop/qemu/optee_os/lib/libutee/tee_api_operations.c:851
    2804:	d2800017 	mov	x23, #0x0                   	// #0
/home/lagadanu/Desktop/qemu/optee_os/lib/libutee/tee_api_operations.c:910
    2808:	eb1c033f 	cmp	x25, x28
    280c:	54fffde3 	b.cc	27c8 <tee_buffer_update+0x164>
/home/lagadanu/Desktop/qemu/optee_os/lib/libutee/tee_api_operations.c:912
    2810:	52806200 	mov	w0, #0x310                 	// #784
    2814:	b9400261 	ldr	w1, [x19]
    2818:	72a20000 	movk	w0, #0x1000, lsl #16
    281c:	6b00003f 	cmp	w1, w0
    2820:	f9402660 	ldr	x0, [x19,#72]
    2824:	54000281 	b.ne	2874 <tee_buffer_update+0x210>
/home/lagadanu/Desktop/qemu/optee_os/lib/libutee/tee_api_operations.c:913
    2828:	cb140334 	sub	x20, x25, x20
    282c:	d1000401 	sub	x1, x0, #0x1
    2830:	8b010294 	add	x20, x20, x1
/home/lagadanu/Desktop/qemu/optee_os/lib/libutee/tee_api_operations.c:915
    2834:	cb0003e0 	neg	x0, x0
/home/lagadanu/Desktop/qemu/optee_os/lib/libutee/tee_api_operations.c:917
    2838:	910203a4 	add	x4, x29, #0x80
/home/lagadanu/Desktop/qemu/optee_os/lib/libutee/tee_api_operations.c:915
    283c:	8a000294 	and	x20, x20, x0
/home/lagadanu/Desktop/qemu/optee_os/lib/libutee/tee_api_operations.c:918
    2840:	b9405a60 	ldr	w0, [x19,#88]
    2844:	aa1b03e3 	mov	x3, x27
    2848:	aa1403e2 	mov	x2, x20
/home/lagadanu/Desktop/qemu/optee_os/lib/libutee/tee_api_operations.c:917
    284c:	f81f8c96 	str	x22, [x4,#-8]!
/home/lagadanu/Desktop/qemu/optee_os/lib/libutee/tee_api_operations.c:918
    2850:	aa1503e1 	mov	x1, x21
    2854:	d63f0300 	blr	x24
/home/lagadanu/Desktop/qemu/optee_os/lib/libutee/tee_api_operations.c:919
    2858:	34000040 	cbz	w0, 2860 <tee_buffer_update+0x1fc>
/home/lagadanu/Desktop/qemu/optee_os/lib/libutee/tee_api_operations.c:920
    285c:	94000893 	bl	4aa8 <TEE_Panic>
/home/lagadanu/Desktop/qemu/optee_os/lib/libutee/tee_api_operations.c:925
    2860:	f9403fa0 	ldr	x0, [x29,#120]
/home/lagadanu/Desktop/qemu/optee_os/lib/libutee/tee_api_operations.c:921
    2864:	8b1402b5 	add	x21, x21, x20
/home/lagadanu/Desktop/qemu/optee_os/lib/libutee/tee_api_operations.c:922
    2868:	cb140339 	sub	x25, x25, x20
/home/lagadanu/Desktop/qemu/optee_os/lib/libutee/tee_api_operations.c:925
    286c:	8b0002f7 	add	x23, x23, x0
    2870:	17ffffd6 	b	27c8 <tee_buffer_update+0x164>
/home/lagadanu/Desktop/qemu/optee_os/lib/libutee/tee_api_operations.c:915
    2874:	cb140014 	sub	x20, x0, x20
    2878:	8b190294 	add	x20, x20, x25
    287c:	17ffffee 	b	2834 <tee_buffer_update+0x1d0>

0000000000002880 <TEE_FreeOperation>:
TEE_FreeOperation():
/home/lagadanu/Desktop/qemu/optee_os/lib/libutee/tee_api_operations.c:344
    2880:	a9be7bfd 	stp	x29, x30, [sp,#-32]!
    2884:	910003fd 	mov	x29, sp
    2888:	f9000bf3 	str	x19, [sp,#16]
    288c:	aa0003f3 	mov	x19, x0
/home/lagadanu/Desktop/qemu/optee_os/lib/libutee/tee_api_operations.c:347
    2890:	b5000060 	cbnz	x0, 289c <TEE_FreeOperation+0x1c>
/home/lagadanu/Desktop/qemu/optee_os/lib/libutee/tee_api_operations.c:348
    2894:	52800000 	mov	w0, #0x0                   	// #0
    2898:	94000884 	bl	4aa8 <TEE_Panic>
/home/lagadanu/Desktop/qemu/optee_os/lib/libutee/tee_api_operations.c:355
    289c:	b9405a60 	ldr	w0, [x19,#88]
    28a0:	9400096b 	bl	4e4c <utee_cryp_state_free>
/home/lagadanu/Desktop/qemu/optee_os/lib/libutee/tee_api_operations.c:356
    28a4:	34000040 	cbz	w0, 28ac <TEE_FreeOperation+0x2c>
/home/lagadanu/Desktop/qemu/optee_os/lib/libutee/tee_api_operations.c:357
    28a8:	94000880 	bl	4aa8 <TEE_Panic>
/home/lagadanu/Desktop/qemu/optee_os/lib/libutee/tee_api_operations.c:359
    28ac:	f9401e60 	ldr	x0, [x19,#56]
    28b0:	97fffc39 	bl	1994 <TEE_Free>
/home/lagadanu/Desktop/qemu/optee_os/lib/libutee/tee_api_operations.c:360
    28b4:	aa1303e0 	mov	x0, x19
/home/lagadanu/Desktop/qemu/optee_os/lib/libutee/tee_api_operations.c:361
    28b8:	f9400bf3 	ldr	x19, [sp,#16]
    28bc:	a8c27bfd 	ldp	x29, x30, [sp],#32
/home/lagadanu/Desktop/qemu/optee_os/lib/libutee/tee_api_operations.c:360
    28c0:	17fffc35 	b	1994 <TEE_Free>

00000000000028c4 <TEE_AllocateOperation>:
TEE_AllocateOperation():
/home/lagadanu/Desktop/qemu/optee_os/lib/libutee/tee_api_operations.c:37
    28c4:	a9b97bfd 	stp	x29, x30, [sp,#-112]!
    28c8:	910003fd 	mov	x29, sp
    28cc:	a90363f7 	stp	x23, x24, [sp,#48]
    28d0:	2a0203f8 	mov	w24, w2
    28d4:	a90153f3 	stp	x19, x20, [sp,#16]
    28d8:	2a0303f7 	mov	w23, w3
    28dc:	a9025bf5 	stp	x21, x22, [sp,#32]
    28e0:	2a0103f3 	mov	w19, w1
    28e4:	a9046bf9 	stp	x25, x26, [sp,#64]
    28e8:	a90573fb 	stp	x27, x28, [sp,#80]
    28ec:	f90037a0 	str	x0, [x29,#104]
/home/lagadanu/Desktop/qemu/optee_os/lib/libutee/tee_api_operations.c:46
    28f0:	b5000040 	cbnz	x0, 28f8 <TEE_AllocateOperation+0x34>
/home/lagadanu/Desktop/qemu/optee_os/lib/libutee/tee_api_operations.c:47
    28f4:	9400086d 	bl	4aa8 <TEE_Panic>
/home/lagadanu/Desktop/qemu/optee_os/lib/libutee/tee_api_operations.c:49
    28f8:	52808200 	mov	w0, #0x410                 	// #1040
    28fc:	72a20000 	movk	w0, #0x1000, lsl #16
    2900:	6b00027f 	cmp	w19, w0
    2904:	54002cc0 	b.eq	2e9c <TEE_AllocateOperation+0x5d8>
/home/lagadanu/Desktop/qemu/optee_os/lib/libutee/tee_api_operations.c:53
    2908:	52882620 	mov	w0, #0x4131                	// #16689
    290c:	72ae0000 	movk	w0, #0x7000, lsl #16
    2910:	6b00027f 	cmp	w19, w0
    2914:	54000e60 	b.eq	2ae0 <TEE_AllocateOperation+0x21c>
    2918:	540007c8 	b.hi	2a10 <TEE_AllocateOperation+0x14c>
    291c:	52842620 	mov	w0, #0x2131                	// #8497
    2920:	72ae0000 	movk	w0, #0x7000, lsl #16
    2924:	6b00027f 	cmp	w19, w0
    2928:	54000aa0 	b.eq	2a7c <TEE_AllocateOperation+0x1b8>
    292c:	54000568 	b.hi	29d8 <TEE_AllocateOperation+0x114>
    2930:	52820820 	mov	w0, #0x1041                	// #4161
    2934:	72ae0000 	movk	w0, #0x7000, lsl #16
    2938:	6b00027f 	cmp	w19, w0
    293c:	54000840 	b.eq	2a44 <TEE_AllocateOperation+0x180>
    2940:	11400400 	add	w0, w0, #0x1, lsl #12
    2944:	6b00027f 	cmp	w19, w0
    2948:	54000d40 	b.eq	2af0 <TEE_AllocateOperation+0x22c>
/home/lagadanu/Desktop/qemu/optee_os/lib/libutee/tee_api_operations.c:108
    294c:	52842620 	mov	w0, #0x2131                	// #8497
    2950:	72ae0000 	movk	w0, #0x7000, lsl #16
    2954:	6b00027f 	cmp	w19, w0
    2958:	540009e0 	b.eq	2a94 <TEE_AllocateOperation+0x1d0>
    295c:	54001ae8 	b.hi	2cb8 <TEE_AllocateOperation+0x3f4>
    2960:	5280a260 	mov	w0, #0x513                 	// #1299
    2964:	72a60000 	movk	w0, #0x3000, lsl #16
    2968:	6b00027f 	cmp	w19, w0
    296c:	54001000 	b.eq	2b6c <TEE_AllocateOperation+0x2a8>
    2970:	54001208 	b.hi	2bb0 <TEE_AllocateOperation+0x2ec>
    2974:	52806200 	mov	w0, #0x310                 	// #784
    2978:	72a20000 	movk	w0, #0x1000, lsl #16
    297c:	6b00027f 	cmp	w19, w0
    2980:	54002a80 	b.eq	2ed0 <TEE_AllocateOperation+0x60c>
    2984:	52802220 	mov	w0, #0x111                 	// #273
    2988:	54000dc8 	b.hi	2b40 <TEE_AllocateOperation+0x27c>
    298c:	72a20000 	movk	w0, #0x1000, lsl #16
    2990:	6b00027f 	cmp	w19, w0
    2994:	54000c08 	b.hi	2b14 <TEE_AllocateOperation+0x250>
    2998:	52802200 	mov	w0, #0x110                 	// #272
    299c:	72a20000 	movk	w0, #0x1000, lsl #16
    29a0:	6b00027f 	cmp	w19, w0
    29a4:	540029a2 	b.cs	2ed8 <TEE_AllocateOperation+0x614>
    29a8:	52800200 	mov	w0, #0x10                  	// #16
    29ac:	72a20000 	movk	w0, #0x1000, lsl #16
    29b0:	6b00027f 	cmp	w19, w0
    29b4:	540000e3 	b.cc	29d0 <TEE_AllocateOperation+0x10c>
    29b8:	11000400 	add	w0, w0, #0x1
    29bc:	6b00027f 	cmp	w19, w0
    29c0:	540028c9 	b.ls	2ed8 <TEE_AllocateOperation+0x614>
    29c4:	11000800 	add	w0, w0, #0x2
    29c8:	6b00027f 	cmp	w19, w0
    29cc:	54002860 	b.eq	2ed8 <TEE_AllocateOperation+0x614>
/home/lagadanu/Desktop/qemu/optee_os/lib/libutee/tee_api_operations.c:247
    29d0:	129ffeb4 	mov	w20, #0xffff000a            	// #-65526
    29d4:	1400003b 	b	2ac0 <TEE_AllocateOperation+0x1fc>
/home/lagadanu/Desktop/qemu/optee_os/lib/libutee/tee_api_operations.c:53
    29d8:	52862620 	mov	w0, #0x3131                	// #12593
    29dc:	72ae0000 	movk	w0, #0x7000, lsl #16
    29e0:	6b00027f 	cmp	w19, w0
    29e4:	54000680 	b.eq	2ab4 <TEE_AllocateOperation+0x1f0>
    29e8:	113c4000 	add	w0, w0, #0xf10
    29ec:	6b00027f 	cmp	w19, w0
    29f0:	54000860 	b.eq	2afc <TEE_AllocateOperation+0x238>
    29f4:	52860820 	mov	w0, #0x3041                	// #12353
    29f8:	72ae0000 	movk	w0, #0x7000, lsl #16
    29fc:	6b00027f 	cmp	w19, w0
    2a00:	54fffa61 	b.ne	294c <TEE_AllocateOperation+0x88>
/home/lagadanu/Desktop/qemu/optee_os/lib/libutee/tee_api_operations.c:58
    2a04:	129ffeb4 	mov	w20, #0xffff000a            	// #-65526
/home/lagadanu/Desktop/qemu/optee_os/lib/libutee/tee_api_operations.c:87
    2a08:	710402ff 	cmp	w23, #0x100
    2a0c:	14000010 	b	2a4c <TEE_AllocateOperation+0x188>
/home/lagadanu/Desktop/qemu/optee_os/lib/libutee/tee_api_operations.c:53
    2a10:	52840840 	mov	w0, #0x2042                	// #8258
    2a14:	72b00000 	movk	w0, #0x8000, lsl #16
    2a18:	6b00027f 	cmp	w19, w0
    2a1c:	540006a0 	b.eq	2af0 <TEE_AllocateOperation+0x22c>
    2a20:	540001a8 	b.hi	2a54 <TEE_AllocateOperation+0x190>
    2a24:	528a0820 	mov	w0, #0x5041                	// #20545
    2a28:	72ae0000 	movk	w0, #0x7000, lsl #16
    2a2c:	6b00027f 	cmp	w19, w0
    2a30:	540006c0 	b.eq	2b08 <TEE_AllocateOperation+0x244>
    2a34:	52820840 	mov	w0, #0x1042                	// #4162
    2a38:	72b00000 	movk	w0, #0x8000, lsl #16
    2a3c:	6b00027f 	cmp	w19, w0
    2a40:	54fff861 	b.ne	294c <TEE_AllocateOperation+0x88>
/home/lagadanu/Desktop/qemu/optee_os/lib/libutee/tee_api_operations.c:75
    2a44:	710302ff 	cmp	w23, #0xc0
/home/lagadanu/Desktop/qemu/optee_os/lib/libutee/tee_api_operations.c:58
    2a48:	129ffeb4 	mov	w20, #0xffff000a            	// #-65526
/home/lagadanu/Desktop/qemu/optee_os/lib/libutee/tee_api_operations.c:99
    2a4c:	540003a1 	b.ne	2ac0 <TEE_AllocateOperation+0x1fc>
    2a50:	17ffffbf 	b	294c <TEE_AllocateOperation+0x88>
/home/lagadanu/Desktop/qemu/optee_os/lib/libutee/tee_api_operations.c:53
    2a54:	52880840 	mov	w0, #0x4042                	// #16450
    2a58:	72b00000 	movk	w0, #0x8000, lsl #16
    2a5c:	6b00027f 	cmp	w19, w0
    2a60:	540004e0 	b.eq	2afc <TEE_AllocateOperation+0x238>
    2a64:	11400400 	add	w0, w0, #0x1, lsl #12
    2a68:	6b00027f 	cmp	w19, w0
    2a6c:	540004e0 	b.eq	2b08 <TEE_AllocateOperation+0x244>
    2a70:	52860840 	mov	w0, #0x3042                	// #12354
    2a74:	72b00000 	movk	w0, #0x8000, lsl #16
    2a78:	17ffffe1 	b	29fc <TEE_AllocateOperation+0x138>
/home/lagadanu/Desktop/qemu/optee_os/lib/libutee/tee_api_operations.c:57
    2a7c:	510802e0 	sub	w0, w23, #0x200
/home/lagadanu/Desktop/qemu/optee_os/lib/libutee/tee_api_operations.c:58
    2a80:	129ffeb4 	mov	w20, #0xffff000a            	// #-65526
/home/lagadanu/Desktop/qemu/optee_os/lib/libutee/tee_api_operations.c:57
    2a84:	7108001f 	cmp	w0, #0x200
    2a88:	540001c8 	b.hi	2ac0 <TEE_AllocateOperation+0x1fc>
/home/lagadanu/Desktop/qemu/optee_os/lib/libutee/tee_api_operations.c:59
    2a8c:	f24016ff 	tst	x23, #0x3f
    2a90:	54000181 	b.ne	2ac0 <TEE_AllocateOperation+0x1fc>
/home/lagadanu/Desktop/qemu/optee_os/lib/libutee/tee_api_operations.c:154
    2a94:	71000b1f 	cmp	w24, #0x2
    2a98:	540029c0 	b.eq	2fd0 <TEE_AllocateOperation+0x70c>
/home/lagadanu/Desktop/qemu/optee_os/lib/libutee/tee_api_operations.c:157
    2a9c:	71000f1f 	cmp	w24, #0x3
    2aa0:	54fff981 	b.ne	29d0 <TEE_AllocateOperation+0x10c>
/home/lagadanu/Desktop/qemu/optee_os/lib/libutee/tee_api_operations.c:44
    2aa4:	52800019 	mov	w25, #0x0                   	// #0
/home/lagadanu/Desktop/qemu/optee_os/lib/libutee/tee_api_operations.c:43
    2aa8:	5280001a 	mov	w26, #0x0                   	// #0
/home/lagadanu/Desktop/qemu/optee_os/lib/libutee/tee_api_operations.c:158
    2aac:	52800403 	mov	w3, #0x20                  	// #32
    2ab0:	140000d6 	b	2e08 <TEE_AllocateOperation+0x544>
/home/lagadanu/Desktop/qemu/optee_os/lib/libutee/tee_api_operations.c:64
    2ab4:	712002ff 	cmp	w23, #0x800
/home/lagadanu/Desktop/qemu/optee_os/lib/libutee/tee_api_operations.c:58
    2ab8:	129ffeb4 	mov	w20, #0xffff000a            	// #-65526
/home/lagadanu/Desktop/qemu/optee_os/lib/libutee/tee_api_operations.c:69
    2abc:	54fffec0 	b.eq	2a94 <TEE_AllocateOperation+0x1d0>
/home/lagadanu/Desktop/qemu/optee_os/lib/libutee/tee_api_operations.c:341
    2ac0:	2a1403e0 	mov	w0, w20
    2ac4:	a94153f3 	ldp	x19, x20, [sp,#16]
    2ac8:	a9425bf5 	ldp	x21, x22, [sp,#32]
    2acc:	a94363f7 	ldp	x23, x24, [sp,#48]
    2ad0:	a9446bf9 	ldp	x25, x26, [sp,#64]
    2ad4:	a94573fb 	ldp	x27, x28, [sp,#80]
    2ad8:	a8c77bfd 	ldp	x29, x30, [sp],#112
    2adc:	d65f03c0 	ret
/home/lagadanu/Desktop/qemu/optee_os/lib/libutee/tee_api_operations.c:69
    2ae0:	12157ae0 	and	w0, w23, #0xfffffbff
/home/lagadanu/Desktop/qemu/optee_os/lib/libutee/tee_api_operations.c:58
    2ae4:	129ffeb4 	mov	w20, #0xffff000a            	// #-65526
/home/lagadanu/Desktop/qemu/optee_os/lib/libutee/tee_api_operations.c:69
    2ae8:	7120001f 	cmp	w0, #0x800
    2aec:	17fffff4 	b	2abc <TEE_AllocateOperation+0x1f8>
/home/lagadanu/Desktop/qemu/optee_os/lib/libutee/tee_api_operations.c:58
    2af0:	129ffeb4 	mov	w20, #0xffff000a            	// #-65526
/home/lagadanu/Desktop/qemu/optee_os/lib/libutee/tee_api_operations.c:81
    2af4:	710382ff 	cmp	w23, #0xe0
    2af8:	17ffffd5 	b	2a4c <TEE_AllocateOperation+0x188>
/home/lagadanu/Desktop/qemu/optee_os/lib/libutee/tee_api_operations.c:58
    2afc:	129ffeb4 	mov	w20, #0xffff000a            	// #-65526
/home/lagadanu/Desktop/qemu/optee_os/lib/libutee/tee_api_operations.c:93
    2b00:	710602ff 	cmp	w23, #0x180
    2b04:	17ffffd2 	b	2a4c <TEE_AllocateOperation+0x188>
/home/lagadanu/Desktop/qemu/optee_os/lib/libutee/tee_api_operations.c:58
    2b08:	129ffeb4 	mov	w20, #0xffff000a            	// #-65526
/home/lagadanu/Desktop/qemu/optee_os/lib/libutee/tee_api_operations.c:99
    2b0c:	710826ff 	cmp	w23, #0x209
    2b10:	17ffffcf 	b	2a4c <TEE_AllocateOperation+0x188>
/home/lagadanu/Desktop/qemu/optee_os/lib/libutee/tee_api_operations.c:108
    2b14:	52802260 	mov	w0, #0x113                 	// #275
    2b18:	72a20000 	movk	w0, #0x1000, lsl #16
    2b1c:	6b00027f 	cmp	w19, w0
    2b20:	54001dc0 	b.eq	2ed8 <TEE_AllocateOperation+0x614>
    2b24:	1103f400 	add	w0, w0, #0xfd
    2b28:	6b00027f 	cmp	w19, w0
    2b2c:	54fff521 	b.ne	29d0 <TEE_AllocateOperation+0x10c>
    2b30:	5280001c 	mov	w28, #0x0                   	// #0
/home/lagadanu/Desktop/qemu/optee_os/lib/libutee/tee_api_operations.c:44
    2b34:	52800019 	mov	w25, #0x0                   	// #0
/home/lagadanu/Desktop/qemu/optee_os/lib/libutee/tee_api_operations.c:41
    2b38:	d2800036 	mov	x22, #0x1                   	// #1
    2b3c:	140000df 	b	2eb8 <TEE_AllocateOperation+0x5f4>
/home/lagadanu/Desktop/qemu/optee_os/lib/libutee/tee_api_operations.c:108
    2b40:	72a60000 	movk	w0, #0x3000, lsl #16
    2b44:	6b00027f 	cmp	w19, w0
    2b48:	54000208 	b.hi	2b88 <TEE_AllocateOperation+0x2c4>
    2b4c:	52802200 	mov	w0, #0x110                 	// #272
    2b50:	72a60000 	movk	w0, #0x3000, lsl #16
    2b54:	6b00027f 	cmp	w19, w0
    2b58:	540000a2 	b.cs	2b6c <TEE_AllocateOperation+0x2a8>
    2b5c:	12a60000 	mov	w0, #0xcfffffff            	// #-805306369
    2b60:	0b000260 	add	w0, w19, w0
    2b64:	7100141f 	cmp	w0, #0x5
    2b68:	54fff348 	b.hi	29d0 <TEE_AllocateOperation+0x10c>
/home/lagadanu/Desktop/qemu/optee_os/lib/libutee/tee_api_operations.c:58
    2b6c:	129ffeb4 	mov	w20, #0xffff000a            	// #-65526
/home/lagadanu/Desktop/qemu/optee_os/lib/libutee/tee_api_operations.c:241
    2b70:	7100131f 	cmp	w24, #0x4
    2b74:	54fffa61 	b.ne	2ac0 <TEE_AllocateOperation+0x1fc>
/home/lagadanu/Desktop/qemu/optee_os/lib/libutee/tee_api_operations.c:44
    2b78:	52800019 	mov	w25, #0x0                   	// #0
/home/lagadanu/Desktop/qemu/optee_os/lib/libutee/tee_api_operations.c:43
    2b7c:	5280001a 	mov	w26, #0x0                   	// #0
/home/lagadanu/Desktop/qemu/optee_os/lib/libutee/tee_api_operations.c:243
    2b80:	52800103 	mov	w3, #0x8                   	// #8
    2b84:	140000a1 	b	2e08 <TEE_AllocateOperation+0x544>
/home/lagadanu/Desktop/qemu/optee_os/lib/libutee/tee_api_operations.c:108
    2b88:	52802260 	mov	w0, #0x113                 	// #275
    2b8c:	72a60000 	movk	w0, #0x3000, lsl #16
    2b90:	6b00027f 	cmp	w19, w0
    2b94:	54fffec0 	b.eq	2b6c <TEE_AllocateOperation+0x2a8>
    2b98:	54fff1c3 	b.cc	29d0 <TEE_AllocateOperation+0x10c>
    2b9c:	529f5e00 	mov	w0, #0xfaf0                	// #64240
    2ba0:	72b9ffe0 	movk	w0, #0xcfff, lsl #16
    2ba4:	0b000260 	add	w0, w19, w0
    2ba8:	7100041f 	cmp	w0, #0x1
    2bac:	17ffffef 	b	2b68 <TEE_AllocateOperation+0x2a4>
    2bb0:	52804600 	mov	w0, #0x230                 	// #560
    2bb4:	72ac0420 	movk	w0, #0x6021, lsl #16
    2bb8:	6b00027f 	cmp	w19, w0
    2bbc:	540003a0 	b.eq	2c30 <TEE_AllocateOperation+0x36c>
    2bc0:	54000468 	b.hi	2c4c <TEE_AllocateOperation+0x388>
    2bc4:	528000c0 	mov	w0, #0x6                   	// #6
    2bc8:	72aa0000 	movk	w0, #0x5000, lsl #16
    2bcc:	6b00027f 	cmp	w19, w0
    2bd0:	54000228 	b.hi	2c14 <TEE_AllocateOperation+0x350>
    2bd4:	52800020 	mov	w0, #0x1                   	// #1
    2bd8:	72aa0000 	movk	w0, #0x5000, lsl #16
    2bdc:	6b00027f 	cmp	w19, w0
    2be0:	54001902 	b.cs	2f00 <TEE_AllocateOperation+0x63c>
    2be4:	5280e200 	mov	w0, #0x710                 	// #1808
    2be8:	72a80000 	movk	w0, #0x4000, lsl #16
    2bec:	6b00027f 	cmp	w19, w0
    2bf0:	54001740 	b.eq	2ed8 <TEE_AllocateOperation+0x614>
    2bf4:	11040000 	add	w0, w0, #0x100
    2bf8:	6b00027f 	cmp	w19, w0
    2bfc:	54fff9a0 	b.eq	2b30 <TEE_AllocateOperation+0x26c>
    2c00:	5280c200 	mov	w0, #0x610                 	// #1552
    2c04:	72a60000 	movk	w0, #0x3000, lsl #16
    2c08:	6b00027f 	cmp	w19, w0
    2c0c:	54ffee21 	b.ne	29d0 <TEE_AllocateOperation+0x10c>
    2c10:	17ffffd7 	b	2b6c <TEE_AllocateOperation+0x2a8>
    2c14:	52800600 	mov	w0, #0x30                  	// #48
    2c18:	72ac0000 	movk	w0, #0x6000, lsl #16
    2c1c:	6b00027f 	cmp	w19, w0
    2c20:	54001620 	b.eq	2ee4 <TEE_AllocateOperation+0x620>
    2c24:	11040000 	add	w0, w0, #0x100
    2c28:	6b00027f 	cmp	w19, w0
    2c2c:	54ffed21 	b.ne	29d0 <TEE_AllocateOperation+0x10c>
/home/lagadanu/Desktop/qemu/optee_os/lib/libutee/tee_api_operations.c:170
    2c30:	34001d98 	cbz	w24, 2fe0 <TEE_AllocateOperation+0x71c>
/home/lagadanu/Desktop/qemu/optee_os/lib/libutee/tee_api_operations.c:172
    2c34:	7100071f 	cmp	w24, #0x1
    2c38:	54ffecc1 	b.ne	29d0 <TEE_AllocateOperation+0x10c>
/home/lagadanu/Desktop/qemu/optee_os/lib/libutee/tee_api_operations.c:44
    2c3c:	52800019 	mov	w25, #0x0                   	// #0
/home/lagadanu/Desktop/qemu/optee_os/lib/libutee/tee_api_operations.c:173
    2c40:	2a1803fa 	mov	w26, w24
/home/lagadanu/Desktop/qemu/optee_os/lib/libutee/tee_api_operations.c:174
    2c44:	52800083 	mov	w3, #0x4                   	// #4
    2c48:	14000070 	b	2e08 <TEE_AllocateOperation+0x544>
/home/lagadanu/Desktop/qemu/optee_os/lib/libutee/tee_api_operations.c:108
    2c4c:	52804600 	mov	w0, #0x230                 	// #560
    2c50:	72ac0c20 	movk	w0, #0x6061, lsl #16
    2c54:	6b00027f 	cmp	w19, w0
    2c58:	54fffec0 	b.eq	2c30 <TEE_AllocateOperation+0x36c>
    2c5c:	54000168 	b.hi	2c88 <TEE_AllocateOperation+0x3c4>
    2c60:	52804600 	mov	w0, #0x230                 	// #560
    2c64:	72ac0820 	movk	w0, #0x6041, lsl #16
    2c68:	6b00027f 	cmp	w19, w0
    2c6c:	54fffe20 	b.eq	2c30 <TEE_AllocateOperation+0x36c>
    2c70:	11440000 	add	w0, w0, #0x100, lsl #12
    2c74:	6b00027f 	cmp	w19, w0
    2c78:	54fffdc0 	b.eq	2c30 <TEE_AllocateOperation+0x36c>
    2c7c:	52804600 	mov	w0, #0x230                 	// #560
    2c80:	72ac0620 	movk	w0, #0x6031, lsl #16
    2c84:	17ffffe9 	b	2c28 <TEE_AllocateOperation+0x364>
    2c88:	52830600 	mov	w0, #0x1830                	// #6192
    2c8c:	72ae0000 	movk	w0, #0x7000, lsl #16
    2c90:	6b00027f 	cmp	w19, w0
    2c94:	54fff000 	b.eq	2a94 <TEE_AllocateOperation+0x1d0>
    2c98:	11204400 	add	w0, w0, #0x811
    2c9c:	6b00027f 	cmp	w19, w0
    2ca0:	54ffefa0 	b.eq	2a94 <TEE_AllocateOperation+0x1d0>
    2ca4:	52820820 	mov	w0, #0x1041                	// #4161
    2ca8:	72ae0000 	movk	w0, #0x7000, lsl #16
    2cac:	6b00027f 	cmp	w19, w0
    2cb0:	54ffe901 	b.ne	29d0 <TEE_AllocateOperation+0x10c>
    2cb4:	17ffff78 	b	2a94 <TEE_AllocateOperation+0x1d0>
    2cb8:	52800640 	mov	w0, #0x32                  	// #50
    2cbc:	72b00000 	movk	w0, #0x8000, lsl #16
    2cc0:	6b00027f 	cmp	w19, w0
    2cc4:	54000960 	b.eq	2df0 <TEE_AllocateOperation+0x52c>
    2cc8:	540006c8 	b.hi	2da0 <TEE_AllocateOperation+0x4dc>
    2ccc:	528a0820 	mov	w0, #0x5041                	// #20545
    2cd0:	72ae0000 	movk	w0, #0x7000, lsl #16
    2cd4:	6b00027f 	cmp	w19, w0
    2cd8:	54ffede0 	b.eq	2a94 <TEE_AllocateOperation+0x1d0>
    2cdc:	54000308 	b.hi	2d3c <TEE_AllocateOperation+0x478>
    2ce0:	52870600 	mov	w0, #0x3830                	// #14384
    2ce4:	72ae0000 	movk	w0, #0x7000, lsl #16
    2ce8:	6b00027f 	cmp	w19, w0
    2cec:	54ffed40 	b.eq	2a94 <TEE_AllocateOperation+0x1d0>
    2cf0:	54000148 	b.hi	2d18 <TEE_AllocateOperation+0x454>
    2cf4:	52860820 	mov	w0, #0x3041                	// #12353
    2cf8:	72ae0000 	movk	w0, #0x7000, lsl #16
    2cfc:	6b00027f 	cmp	w19, w0
    2d00:	54ffeca0 	b.eq	2a94 <TEE_AllocateOperation+0x1d0>
    2d04:	1103c000 	add	w0, w0, #0xf0
    2d08:	6b00027f 	cmp	w19, w0
    2d0c:	54ffec40 	b.eq	2a94 <TEE_AllocateOperation+0x1d0>
    2d10:	52850600 	mov	w0, #0x2830                	// #10288
    2d14:	17ffffe5 	b	2ca8 <TEE_AllocateOperation+0x3e4>
    2d18:	52882620 	mov	w0, #0x4131                	// #16689
    2d1c:	72ae0000 	movk	w0, #0x7000, lsl #16
    2d20:	6b00027f 	cmp	w19, w0
    2d24:	54ffeb80 	b.eq	2a94 <TEE_AllocateOperation+0x1d0>
    2d28:	111bfc00 	add	w0, w0, #0x6ff
    2d2c:	6b00027f 	cmp	w19, w0
    2d30:	54ffeb20 	b.eq	2a94 <TEE_AllocateOperation+0x1d0>
    2d34:	52880820 	mov	w0, #0x4041                	// #16449
    2d38:	17ffffdc 	b	2ca8 <TEE_AllocateOperation+0x3e4>
    2d3c:	52872600 	mov	w0, #0x3930                	// #14640
    2d40:	72ae0620 	movk	w0, #0x7031, lsl #16
    2d44:	6b00027f 	cmp	w19, w0
    2d48:	54ffea60 	b.eq	2a94 <TEE_AllocateOperation+0x1d0>
    2d4c:	54000168 	b.hi	2d78 <TEE_AllocateOperation+0x4b4>
    2d50:	528d0600 	mov	w0, #0x6830                	// #26672
    2d54:	72ae0000 	movk	w0, #0x7000, lsl #16
    2d58:	6b00027f 	cmp	w19, w0
    2d5c:	54ffe9c0 	b.eq	2a94 <TEE_AllocateOperation+0x1d0>
    2d60:	52852600 	mov	w0, #0x2930                	// #10544
    2d64:	72ae0420 	movk	w0, #0x7021, lsl #16
    2d68:	6b00027f 	cmp	w19, w0
    2d6c:	54ffe940 	b.eq	2a94 <TEE_AllocateOperation+0x1d0>
    2d70:	528b0600 	mov	w0, #0x5830                	// #22576
    2d74:	17ffffcd 	b	2ca8 <TEE_AllocateOperation+0x3e4>
    2d78:	528b2600 	mov	w0, #0x5930                	// #22832
    2d7c:	72ae0a20 	movk	w0, #0x7051, lsl #16
    2d80:	6b00027f 	cmp	w19, w0
    2d84:	54ffe880 	b.eq	2a94 <TEE_AllocateOperation+0x1d0>
    2d88:	11440400 	add	w0, w0, #0x101, lsl #12
    2d8c:	6b00027f 	cmp	w19, w0
    2d90:	54ffe820 	b.eq	2a94 <TEE_AllocateOperation+0x1d0>
    2d94:	52892600 	mov	w0, #0x4930                	// #18736
    2d98:	72ae0820 	movk	w0, #0x7041, lsl #16
    2d9c:	17ffffc4 	b	2cac <TEE_AllocateOperation+0x3e8>
    2da0:	52861820 	mov	w0, #0x30c1                	// #12481
    2da4:	72b00000 	movk	w0, #0x8000, lsl #16
    2da8:	6b00027f 	cmp	w19, w0
    2dac:	54000468 	b.hi	2e38 <TEE_AllocateOperation+0x574>
    2db0:	52861800 	mov	w0, #0x30c0                	// #12480
    2db4:	72b00000 	movk	w0, #0x8000, lsl #16
    2db8:	6b00027f 	cmp	w19, w0
    2dbc:	540001a2 	b.cs	2df0 <TEE_AllocateOperation+0x52c>
    2dc0:	52840840 	mov	w0, #0x2042                	// #8258
    2dc4:	72b00000 	movk	w0, #0x8000, lsl #16
    2dc8:	6b00027f 	cmp	w19, w0
    2dcc:	54000120 	b.eq	2df0 <TEE_AllocateOperation+0x52c>
    2dd0:	54000228 	b.hi	2e14 <TEE_AllocateOperation+0x550>
    2dd4:	52820840 	mov	w0, #0x1042                	// #4162
    2dd8:	72b00000 	movk	w0, #0x8000, lsl #16
    2ddc:	6b00027f 	cmp	w19, w0
    2de0:	54000080 	b.eq	2df0 <TEE_AllocateOperation+0x52c>
    2de4:	1101f800 	add	w0, w0, #0x7e
    2de8:	6b00027f 	cmp	w19, w0
    2dec:	54ffdf21 	b.ne	29d0 <TEE_AllocateOperation+0x10c>
/home/lagadanu/Desktop/qemu/optee_os/lib/libutee/tee_api_operations.c:58
    2df0:	129ffeb4 	mov	w20, #0xffff000a            	// #-65526
/home/lagadanu/Desktop/qemu/optee_os/lib/libutee/tee_api_operations.c:209
    2df4:	71001b1f 	cmp	w24, #0x6
    2df8:	54ffe641 	b.ne	2ac0 <TEE_AllocateOperation+0x1fc>
/home/lagadanu/Desktop/qemu/optee_os/lib/libutee/tee_api_operations.c:44
    2dfc:	52800019 	mov	w25, #0x0                   	// #0
/home/lagadanu/Desktop/qemu/optee_os/lib/libutee/tee_api_operations.c:211
    2e00:	5280003a 	mov	w26, #0x1                   	// #1
/home/lagadanu/Desktop/qemu/optee_os/lib/libutee/tee_api_operations.c:212
    2e04:	52800803 	mov	w3, #0x40                  	// #64
/home/lagadanu/Desktop/qemu/optee_os/lib/libutee/tee_api_operations.c:41
    2e08:	d2800036 	mov	x22, #0x1                   	// #1
    2e0c:	5280001c 	mov	w28, #0x0                   	// #0
    2e10:	14000044 	b	2f20 <TEE_AllocateOperation+0x65c>
/home/lagadanu/Desktop/qemu/optee_os/lib/libutee/tee_api_operations.c:108
    2e14:	52841800 	mov	w0, #0x20c0                	// #8384
    2e18:	72b00000 	movk	w0, #0x8000, lsl #16
    2e1c:	6b00027f 	cmp	w19, w0
    2e20:	54ffdd83 	b.cc	29d0 <TEE_AllocateOperation+0x10c>
    2e24:	11000800 	add	w0, w0, #0x2
    2e28:	6b00027f 	cmp	w19, w0
    2e2c:	54fffe29 	b.ls	2df0 <TEE_AllocateOperation+0x52c>
    2e30:	113e0000 	add	w0, w0, #0xf80
    2e34:	17ffffed 	b	2de8 <TEE_AllocateOperation+0x524>
    2e38:	528a0840 	mov	w0, #0x5042                	// #20546
    2e3c:	72b00000 	movk	w0, #0x8000, lsl #16
    2e40:	6b00027f 	cmp	w19, w0
    2e44:	54fffd60 	b.eq	2df0 <TEE_AllocateOperation+0x52c>
    2e48:	54000188 	b.hi	2e78 <TEE_AllocateOperation+0x5b4>
    2e4c:	52880840 	mov	w0, #0x4042                	// #16450
    2e50:	72b00000 	movk	w0, #0x8000, lsl #16
    2e54:	6b00027f 	cmp	w19, w0
    2e58:	54fffcc0 	b.eq	2df0 <TEE_AllocateOperation+0x52c>
    2e5c:	5297e800 	mov	w0, #0xbf40                	// #48960
    2e60:	54ffdb83 	b.cc	29d0 <TEE_AllocateOperation+0x10c>
    2e64:	72afffe0 	movk	w0, #0x7fff, lsl #16
    2e68:	0b000260 	add	w0, w19, w0
    2e6c:	7100041f 	cmp	w0, #0x1
    2e70:	54fffc09 	b.ls	2df0 <TEE_AllocateOperation+0x52c>
    2e74:	17fffed7 	b	29d0 <TEE_AllocateOperation+0x10c>
    2e78:	528a1800 	mov	w0, #0x50c0                	// #20672
    2e7c:	72b00000 	movk	w0, #0x8000, lsl #16
    2e80:	6b00027f 	cmp	w19, w0
    2e84:	54ffda63 	b.cc	29d0 <TEE_AllocateOperation+0x10c>
    2e88:	11000400 	add	w0, w0, #0x1
    2e8c:	6b00027f 	cmp	w19, w0
    2e90:	54fffb09 	b.ls	2df0 <TEE_AllocateOperation+0x52c>
    2e94:	5293e800 	mov	w0, #0x9f40                	// #40768
    2e98:	17fffff3 	b	2e64 <TEE_AllocateOperation+0x5a0>
/home/lagadanu/Desktop/qemu/optee_os/lib/libutee/tee_api_operations.c:50
    2e9c:	52a0011c 	mov	w28, #0x80000               	// #524288
/home/lagadanu/Desktop/qemu/optee_os/lib/libutee/tee_api_operations.c:111
    2ea0:	52800039 	mov	w25, #0x1                   	// #1
/home/lagadanu/Desktop/qemu/optee_os/lib/libutee/tee_api_operations.c:120
    2ea4:	12001e60 	and	w0, w19, #0xff
/home/lagadanu/Desktop/qemu/optee_os/lib/libutee/tee_api_operations.c:123
    2ea8:	d2800216 	mov	x22, #0x10                  	// #16
    2eac:	7100401f 	cmp	w0, #0x10
    2eb0:	d2800100 	mov	x0, #0x8                   	// #8
    2eb4:	9a8002d6 	csel	x22, x22, x0, eq
/home/lagadanu/Desktop/qemu/optee_os/lib/libutee/tee_api_operations.c:127
    2eb8:	34000878 	cbz	w24, 2fc4 <TEE_AllocateOperation+0x700>
/home/lagadanu/Desktop/qemu/optee_os/lib/libutee/tee_api_operations.c:129
    2ebc:	7100071f 	cmp	w24, #0x1
    2ec0:	54ffd881 	b.ne	29d0 <TEE_AllocateOperation+0x10c>
/home/lagadanu/Desktop/qemu/optee_os/lib/libutee/tee_api_operations.c:43
    2ec4:	5280001a 	mov	w26, #0x0                   	// #0
/home/lagadanu/Desktop/qemu/optee_os/lib/libutee/tee_api_operations.c:130
    2ec8:	52800083 	mov	w3, #0x4                   	// #4
    2ecc:	14000015 	b	2f20 <TEE_AllocateOperation+0x65c>
/home/lagadanu/Desktop/qemu/optee_os/lib/libutee/tee_api_operations.c:108
    2ed0:	5280001c 	mov	w28, #0x0                   	// #0
    2ed4:	17fffff3 	b	2ea0 <TEE_AllocateOperation+0x5dc>
    2ed8:	5280001c 	mov	w28, #0x0                   	// #0
/home/lagadanu/Desktop/qemu/optee_os/lib/libutee/tee_api_operations.c:44
    2edc:	52800019 	mov	w25, #0x0                   	// #0
    2ee0:	17fffff1 	b	2ea4 <TEE_AllocateOperation+0x5e0>
/home/lagadanu/Desktop/qemu/optee_os/lib/libutee/tee_api_operations.c:181
    2ee4:	340008b8 	cbz	w24, 2ff8 <TEE_AllocateOperation+0x734>
/home/lagadanu/Desktop/qemu/optee_os/lib/libutee/tee_api_operations.c:183
    2ee8:	7100071f 	cmp	w24, #0x1
    2eec:	54ffd721 	b.ne	29d0 <TEE_AllocateOperation+0x10c>
/home/lagadanu/Desktop/qemu/optee_os/lib/libutee/tee_api_operations.c:44
    2ef0:	52800019 	mov	w25, #0x0                   	// #0
/home/lagadanu/Desktop/qemu/optee_os/lib/libutee/tee_api_operations.c:184
    2ef4:	5280003a 	mov	w26, #0x1                   	// #1
/home/lagadanu/Desktop/qemu/optee_os/lib/libutee/tee_api_operations.c:185
    2ef8:	52800283 	mov	w3, #0x14                  	// #20
    2efc:	17ffffc3 	b	2e08 <TEE_AllocateOperation+0x544>
/home/lagadanu/Desktop/qemu/optee_os/lib/libutee/tee_api_operations.c:58
    2f00:	129ffeb4 	mov	w20, #0xffff000a            	// #-65526
/home/lagadanu/Desktop/qemu/optee_os/lib/libutee/tee_api_operations.c:221
    2f04:	7100171f 	cmp	w24, #0x5
    2f08:	54ffddc1 	b.ne	2ac0 <TEE_AllocateOperation+0x1fc>
/home/lagadanu/Desktop/qemu/optee_os/lib/libutee/tee_api_operations.c:44
    2f0c:	52800019 	mov	w25, #0x0                   	// #0
/home/lagadanu/Desktop/qemu/optee_os/lib/libutee/tee_api_operations.c:43
    2f10:	5280001a 	mov	w26, #0x0                   	// #0
/home/lagadanu/Desktop/qemu/optee_os/lib/libutee/tee_api_operations.c:225
    2f14:	52800003 	mov	w3, #0x0                   	// #0
/home/lagadanu/Desktop/qemu/optee_os/lib/libutee/tee_api_operations.c:41
    2f18:	d2800036 	mov	x22, #0x1                   	// #1
/home/lagadanu/Desktop/qemu/optee_os/lib/libutee/tee_api_operations.c:224
    2f1c:	52a0009c 	mov	w28, #0x40000               	// #262144
/home/lagadanu/Desktop/qemu/optee_os/lib/libutee/tee_api_operations.c:250
    2f20:	52800001 	mov	w1, #0x0                   	// #0
    2f24:	52800c00 	mov	w0, #0x60                  	// #96
    2f28:	b90067a3 	str	w3, [x29,#100]
/home/lagadanu/Desktop/qemu/optee_os/lib/libutee/tee_api_operations.c:252
    2f2c:	129ffe74 	mov	w20, #0xffff000c            	// #-65524
/home/lagadanu/Desktop/qemu/optee_os/lib/libutee/tee_api_operations.c:250
    2f30:	97fffa80 	bl	1930 <TEE_Malloc>
    2f34:	aa0003f5 	mov	x21, x0
/home/lagadanu/Desktop/qemu/optee_os/lib/libutee/tee_api_operations.c:251
    2f38:	b4ffdc40 	cbz	x0, 2ac0 <TEE_AllocateOperation+0x1fc>
/home/lagadanu/Desktop/qemu/optee_os/lib/libutee/tee_api_operations.c:258
    2f3c:	b94067a3 	ldr	w3, [x29,#100]
/home/lagadanu/Desktop/qemu/optee_os/lib/libutee/tee_api_operations.c:255
    2f40:	531c7e7b 	lsr	w27, w19, #28
/home/lagadanu/Desktop/qemu/optee_os/lib/libutee/tee_api_operations.c:256
    2f44:	b9000818 	str	w24, [x0,#8]
/home/lagadanu/Desktop/qemu/optee_os/lib/libutee/tee_api_operations.c:261
    2f48:	f10006df 	cmp	x22, #0x1
/home/lagadanu/Desktop/qemu/optee_os/lib/libutee/tee_api_operations.c:255
    2f4c:	29006c13 	stp	w19, w27, [x0]
/home/lagadanu/Desktop/qemu/optee_os/lib/libutee/tee_api_operations.c:257
    2f50:	b9001017 	str	w23, [x0,#16]
/home/lagadanu/Desktop/qemu/optee_os/lib/libutee/tee_api_operations.c:259
    2f54:	29037003 	stp	w3, w28, [x0,#24]
/home/lagadanu/Desktop/qemu/optee_os/lib/libutee/tee_api_operations.c:261
    2f58:	540005a1 	b.ne	300c <TEE_AllocateOperation+0x748>
/home/lagadanu/Desktop/qemu/optee_os/lib/libutee/tee_api_operations.c:275
    2f5c:	390102b9 	strb	w25, [x21,#64]
/home/lagadanu/Desktop/qemu/optee_os/lib/libutee/tee_api_operations.c:277
    2f60:	7100177f 	cmp	w27, #0x5
/home/lagadanu/Desktop/qemu/optee_os/lib/libutee/tee_api_operations.c:274
    2f64:	f90026b6 	str	x22, [x21,#72]
/home/lagadanu/Desktop/qemu/optee_os/lib/libutee/tee_api_operations.c:277
    2f68:	54000641 	b.ne	3030 <TEE_AllocateOperation+0x76c>
/home/lagadanu/Desktop/qemu/optee_os/lib/libutee/tee_api_operations.c:301
    2f6c:	a9420ea2 	ldp	x2, x3, [x21,#32]
    2f70:	910162a4 	add	x4, x21, #0x58
    2f74:	2a1803e1 	mov	w1, w24
    2f78:	2a1303e0 	mov	w0, w19
    2f7c:	940007ae 	bl	4e34 <utee_cryp_state_alloc>
/home/lagadanu/Desktop/qemu/optee_os/lib/libutee/tee_api_operations.c:303
    2f80:	35000b00 	cbnz	w0, 30e0 <TEE_AllocateOperation+0x81c>
/home/lagadanu/Desktop/qemu/optee_os/lib/libutee/tee_api_operations.c:311
    2f84:	7100177f 	cmp	w27, #0x5
    2f88:	54000141 	b.ne	2fb0 <TEE_AllocateOperation+0x6ec>
/home/lagadanu/Desktop/qemu/optee_os/lib/libutee/tee_api_operations.c:312
    2f8c:	b9405aa0 	ldr	w0, [x21,#88]
    2f90:	d2800002 	mov	x2, #0x0                   	// #0
    2f94:	d2800001 	mov	x1, #0x0                   	// #0
    2f98:	940007b0 	bl	4e58 <utee_hash_init>
    2f9c:	2a0003f4 	mov	w20, w0
/home/lagadanu/Desktop/qemu/optee_os/lib/libutee/tee_api_operations.c:313
    2fa0:	35000780 	cbnz	w0, 3090 <TEE_AllocateOperation+0x7cc>
/home/lagadanu/Desktop/qemu/optee_os/lib/libutee/tee_api_operations.c:316
    2fa4:	b9401ea0 	ldr	w0, [x21,#28]
    2fa8:	320f0000 	orr	w0, w0, #0x20000
    2fac:	b9001ea0 	str	w0, [x21,#28]
/home/lagadanu/Desktop/qemu/optee_os/lib/libutee/tee_api_operations.c:321
    2fb0:	f94037a0 	ldr	x0, [x29,#104]
    2fb4:	52800014 	mov	w20, #0x0                   	// #0
/home/lagadanu/Desktop/qemu/optee_os/lib/libutee/tee_api_operations.c:319
    2fb8:	b90032bf 	str	wzr, [x21,#48]
/home/lagadanu/Desktop/qemu/optee_os/lib/libutee/tee_api_operations.c:321
    2fbc:	f9000015 	str	x21, [x0]
    2fc0:	17fffec0 	b	2ac0 <TEE_AllocateOperation+0x1fc>
/home/lagadanu/Desktop/qemu/optee_os/lib/libutee/tee_api_operations.c:43
    2fc4:	5280001a 	mov	w26, #0x0                   	// #0
/home/lagadanu/Desktop/qemu/optee_os/lib/libutee/tee_api_operations.c:128
    2fc8:	52800043 	mov	w3, #0x2                   	// #2
    2fcc:	17ffffd5 	b	2f20 <TEE_AllocateOperation+0x65c>
/home/lagadanu/Desktop/qemu/optee_os/lib/libutee/tee_api_operations.c:44
    2fd0:	52800019 	mov	w25, #0x0                   	// #0
/home/lagadanu/Desktop/qemu/optee_os/lib/libutee/tee_api_operations.c:155
    2fd4:	5280003a 	mov	w26, #0x1                   	// #1
/home/lagadanu/Desktop/qemu/optee_os/lib/libutee/tee_api_operations.c:156
    2fd8:	52800203 	mov	w3, #0x10                  	// #16
