
out/e626662e-c0e2-485c-b8c8-09fbce6edf3d.elf:     file format elf64-littleaarch64
out/e626662e-c0e2-485c-b8c8-09fbce6edf3d.elf
architecture: aarch64, flags 0x00000150:
HAS_SYMS, DYNAMIC, D_PAGED
start address 0x0000000000000020

Program Header:
    LOAD off    0x0000000000010000 vaddr 0x0000000000000000 paddr 0x0000000000000000 align 2**16
         filesz 0x000000000000a740 memsz 0x000000000000a740 flags r-x
    LOAD off    0x000000000001a740 vaddr 0x000000000000a740 paddr 0x000000000000a740 align 2**16
         filesz 0x0000000000001bdc memsz 0x0000000000001bdc flags r--
    LOAD off    0x000000000001d000 vaddr 0x000000000000d000 paddr 0x000000000000d000 align 2**16
         filesz 0x000000000000014c memsz 0x000000000000aba8 flags rw-
 DYNAMIC off    0x000000000001bfd8 vaddr 0x000000000000bfd8 paddr 0x000000000000bfd8 align 2**3
         filesz 0x0000000000000100 memsz 0x0000000000000100 flags rw-

Dynamic Section:
  HASH                 0x000000000000c2d0
  STRTAB               0x000000000000c228
  SYMTAB               0x000000000000c0d8
  STRSZ                0x00000000000000a1
  SYMENT               0x0000000000000018
  DEBUG                0x0000000000000000
  RELA                 0x000000000000bc90
  RELASZ               0x00000000000002d0
  RELAENT              0x0000000000000018
  FLAGS_1              0x0000000008000000
  RELACOUNT            0x0000000000000013
private flags = 0:

Sections:
Idx Name          Size      VMA               LMA               File off  Algn
  0 .ta_head      00000020  0000000000000000  0000000000000000  00010000  2**3
                  CONTENTS, ALLOC, LOAD, DATA
  1 .text         0000a720  0000000000000020  0000000000000020  00010020  2**2
                  CONTENTS, ALLOC, LOAD, READONLY, CODE
  2 .rodata       00001549  000000000000a740  000000000000a740  0001a740  2**3
                  CONTENTS, ALLOC, LOAD, READONLY, DATA
  3 .dynsym       00000150  000000000000c0d8  000000000000c0d8  0001c0d8  2**3
                  CONTENTS, ALLOC, LOAD, READONLY, DATA
  4 .rela.dyn     000001c8  000000000000bc90  000000000000bc90  0001bc90  2**3
                  CONTENTS, ALLOC, LOAD, READONLY, DATA
  5 .got          00000078  000000000000be58  000000000000be58  0001be58  2**3
                  CONTENTS, ALLOC, LOAD, DATA
  6 .rela.got     00000108  000000000000bed0  000000000000bed0  0001bed0  2**3
                  CONTENTS, ALLOC, LOAD, READONLY, DATA
  7 .dynamic      00000100  000000000000bfd8  000000000000bfd8  0001bfd8  2**3
                  CONTENTS, ALLOC, LOAD, DATA
  8 .dynstr       000000a1  000000000000c228  000000000000c228  0001c228  2**0
                  CONTENTS, ALLOC, LOAD, READONLY, DATA
  9 .hash         0000004c  000000000000c2d0  000000000000c2d0  0001c2d0  2**3
                  CONTENTS, ALLOC, LOAD, READONLY, DATA
 10 .data         0000014c  000000000000d000  000000000000d000  0001d000  2**3
                  CONTENTS, ALLOC, LOAD, DATA
 11 .bss          0000aa58  000000000000d150  000000000000d150  0001d14c  2**3
                  ALLOC
 12 .debug_info   000137ad  0000000000000000  0000000000000000  0001d14c  2**0
                  CONTENTS, READONLY, DEBUGGING
 13 .debug_abbrev 0000440c  0000000000000000  0000000000000000  000308f9  2**0
                  CONTENTS, READONLY, DEBUGGING
 14 .debug_loc    0001cad6  0000000000000000  0000000000000000  00034d05  2**0
                  CONTENTS, READONLY, DEBUGGING
 15 .debug_aranges 00000c30  0000000000000000  0000000000000000  000517e0  2**4
                  CONTENTS, READONLY, DEBUGGING
 16 .debug_macro  00005482  0000000000000000  0000000000000000  00052410  2**0
                  CONTENTS, READONLY, DEBUGGING
 17 .debug_line   00006ed9  0000000000000000  0000000000000000  00057892  2**0
                  CONTENTS, READONLY, DEBUGGING
 18 .debug_str    00010d8b  0000000000000000  0000000000000000  0005e76b  2**0
                  CONTENTS, READONLY, DEBUGGING
 19 .comment      0000002d  0000000000000000  0000000000000000  0006f4f6  2**0
                  CONTENTS, READONLY
 20 .debug_frame  00002ff8  0000000000000000  0000000000000000  0006f528  2**3
                  CONTENTS, READONLY, DEBUGGING
 21 .debug_ranges 00000f90  0000000000000000  0000000000000000  00072520  2**4
                  CONTENTS, READONLY, DEBUGGING
SYMBOL TABLE:
0000000000000000 l    d  .ta_head	0000000000000000 .ta_head
0000000000000020 l    d  .text	0000000000000000 .text
000000000000a740 l    d  .rodata	0000000000000000 .rodata
000000000000bc90 l    d  .rela.dyn	0000000000000000 .rela.dyn
000000000000be58 l    d  .got	0000000000000000 .got
000000000000bed0 l    d  .rela.got	0000000000000000 .rela.got
000000000000bfd8 l    d  .dynamic	0000000000000000 .dynamic
000000000000c0d8 l    d  .dynsym	0000000000000000 .dynsym
000000000000c228 l    d  .dynstr	0000000000000000 .dynstr
000000000000c2d0 l    d  .hash	0000000000000000 .hash
000000000000d000 l    d  .data	0000000000000000 .data
000000000000d150 l    d  .bss	0000000000000000 .bss
0000000000000000 l    d  .debug_info	0000000000000000 .debug_info
0000000000000000 l    d  .debug_abbrev	0000000000000000 .debug_abbrev
0000000000000000 l    d  .debug_loc	0000000000000000 .debug_loc
0000000000000000 l    d  .debug_aranges	0000000000000000 .debug_aranges
0000000000000000 l    d  .debug_macro	0000000000000000 .debug_macro
0000000000000000 l    d  .debug_line	0000000000000000 .debug_line
0000000000000000 l    d  .debug_str	0000000000000000 .debug_str
0000000000000000 l    d  .comment	0000000000000000 .comment
0000000000000000 l    d  .debug_frame	0000000000000000 .debug_frame
0000000000000000 l    d  .debug_ranges	0000000000000000 .debug_ranges
0000000000000000 l    df *ABS*	0000000000000000 user_ta_header.c
000000000000a768 l     O .rodata	0000000000000004 __compound_literal.4
000000000000a76c l     O .rodata	0000000000000004 __compound_literal.3
000000000000a770 l     O .rodata	0000000000000001 __compound_literal.2
000000000000a771 l     O .rodata	0000000000000001 __compound_literal.1
000000000000a772 l     O .rodata	0000000000000001 __compound_literal.0
0000000000000000 l    df *ABS*	0000000000000000 ta_entry.c
000000000000a740 l     O .rodata	000000000000001b __func__.3753
0000000000000000 l    df *ABS*	0000000000000000 ta_aes_perf.c
000000000000d000 l     O .data	0000000000000010 iv
000000000000d010 l     O .data	0000000000000020 aes_key.3860
000000000000d030 l     O .data	0000000000000020 aes_key2.3861
000000000000d150 l     O .bss	0000000000000004 algo
000000000000d158 l     O .bss	0000000000000008 crypto_op
000000000000d160 l     O .bss	0000000000000004 use_iv
0000000000000000 l    df *ABS*	0000000000000000 trace.c
000000000000a788 l     O .rodata	0000000000000005 lvl_strs.3178
0000000000000000 l    df *ABS*	0000000000000000 snprintk.c
000000000000a790 l     O .rodata	0000000000000011 HEXDIGITS
000000000000a7a8 l     O .rodata	0000000000000011 hexdigits
0000000000000000 l    df *ABS*	0000000000000000 memchr.c
0000000000000000 l    df *ABS*	0000000000000000 memcpy.c
0000000000000000 l    df *ABS*	0000000000000000 strlen.c
0000000000000000 l    df *ABS*	0000000000000000 trace_ext.c
0000000000000000 l    df *ABS*	0000000000000000 tee_api.c
0000000000015168 l     O .bss	0000000000000008 tee_api_instance_data
000000000000a7d0 l     O .rodata	000000000000000b __func__.4337
0000000000000000 l    df *ABS*	0000000000000000 tee_api_objects.c
0000000000000000 l    df *ABS*	0000000000000000 tee_api_operations.c
0000000000002664 l     F .text	000000000000021c tee_buffer_update
0000000000000000 l    df *ABS*	0000000000000000 tee_api_panic.c
0000000000000000 l    df *ABS*	0000000000000000 user_ta_entry.c
0000000000004ab0 l     F .text	0000000000000028 ta_header_get_session
0000000000004ad8 l     F .text	0000000000000094 ta_header_remove_session
0000000000017ba0 l     O .bss	0000000000000001 init_done
000000000000d100 l     O .data	0000000000000010 ta_sessions
0000000000000000 l    df *ABS*	0000000000000000 utee_syscalls_a64.o
0000000000000000 l    df *ABS*	0000000000000000 gprof_a64.o
0000000000000000 l    df *ABS*	0000000000000000 tee_api_arith.c
000000000000579c l     F .text	0000000000000028 TEE_BigInt_Panic
00000000000151b8 l     O .bss	0000000000001980 mempool_u32
0000000000016b38 l     O .bss	0000000000000010 mem.4074
0000000000016b48 l     O .bss	0000000000000008 mempool
0000000000000000 l    df *ABS*	0000000000000000 mpa_misc.c
0000000000000000 l    df *ABS*	0000000000000000 mpa_montgomery.c
0000000000000000 l    df *ABS*	0000000000000000 mpa_primetest.c
000000000000b448 l     O .rodata	0000000000000010 const_miller_rabin_proof_limit
000000000000b458 l     O .rodata	000000000000001c proof_a.3550
000000000000b478 l     O .rodata	000000000000000c const_two
000000000000b488 l     O .rodata	00000000000000b8 const_small_prime_factors
0000000000000000 l    df *ABS*	0000000000000000 mpa_conv.c
0000000000000000 l    df *ABS*	0000000000000000 mpa_div.c
0000000000000000 l    df *ABS*	0000000000000000 mpa_gcd.c
0000000000006ad0 l     F .text	0000000000000080 __mpa_divby2
0000000000006b50 l     F .text	000000000000016c __mpa_gcd.part.0
0000000000006cbc l     F .text	0000000000000380 __mpa_egcd
0000000000000000 l    df *ABS*	0000000000000000 mpa_mem_static.c
0000000000000000 l    df *ABS*	0000000000000000 mpa_mul.c
0000000000000000 l    df *ABS*	0000000000000000 mpa_random.c
0000000000000000 l    df *ABS*	0000000000000000 mpa_shift.c
0000000000000000 l    df *ABS*	0000000000000000 mpa_addsub.c
0000000000000000 l    df *ABS*	0000000000000000 mpa_cmp.c
0000000000000000 l    df *ABS*	0000000000000000 mpa_expmod.c
0000000000000000 l    df *ABS*	0000000000000000 mpa_init.c
0000000000000000 l    df *ABS*	0000000000000000 mpa_io.c
0000000000008970 l     F .text	0000000000000044 __mpa_word_to_hexstr
00000000000089b4 l     F .text	0000000000000114 __mpa_mpanum_to_hexstr
0000000000008ac8 l     F .text	000000000000003c __mpa_isspace
000000000000b548 l     O .rodata	000000000000000c __func__.3624
000000000000b558 l     O .rodata	000000000000000c __func__.3638
0000000000016b50 l     O .bss	0000000000001002 buf.3610
0000000000000000 l    df *ABS*	0000000000000000 mpa_modulus.c
0000000000000000 l    df *ABS*	0000000000000000 bget_malloc.c
0000000000009364 l     F .text	0000000000000040 raw_malloc_return_hook.isra.3
00000000000093a4 l     F .text	0000000000000110 create_free_block.constprop.11
0000000000009674 l     F .text	000000000000005c raw_malloc.constprop.15
000000000000b568 l     O .rodata	0000000000000012 __func__.3464
000000000000b580 l     O .rodata	0000000000000005 __func__.3319
000000000000b588 l     O .rodata	0000000000000006 __func__.3334
000000000000b590 l     O .rodata	0000000000000005 __func__.3351
000000000000b598 l     O .rodata	0000000000000006 __func__.3343
000000000000b5a0 l     O .rodata	0000000000000006 __func__.3360
000000000000b5a8 l     O .rodata	0000000000000007 __func__.3370
000000000000b5b0 l     O .rodata	000000000000000d __func__.3500
000000000000b5c0 l     O .rodata	000000000000000c __func__.3474
000000000000b5d0 l     O .rodata	000000000000000b __func__.3485
000000000000b5e0 l     O .rodata	0000000000000010 __func__.3552
000000000000b5f0 l     O .rodata	000000000000000e __func__.3506
000000000000b600 l     O .rodata	0000000000000013 __func__.3411
0000000000017b58 l     O .bss	0000000000000038 mstats
0000000000017b90 l     O .bss	0000000000000008 malloc_pool_len
0000000000017b98 l     O .bss	0000000000000008 malloc_pool
000000000000d110 l     O .data	0000000000000038 malloc_poolset
0000000000000000 l    df *ABS*	0000000000000000 snprintf.c
0000000000000000 l    df *ABS*	0000000000000000 memcmp.c
0000000000000000 l    df *ABS*	0000000000000000 memmove.c
0000000000000000 l    df *ABS*	0000000000000000 memset.c
0000000000000000 l    df *ABS*	0000000000000000 buf_compare_ct.c
0000000000000000 l    df *ABS*	0000000000000000 mempool.c
000000000000b618 l     O .rodata	0000000000000013 __func__.3181
0000000000000000 l    df *ABS*	0000000000000000 assert.c
0000000000000000 l    df *ABS*	0000000000000000 
000000000000bfd8 l     O *ABS*	0000000000000000 _DYNAMIC
000000000000be70 l     O *ABS*	0000000000000000 _GLOBAL_OFFSET_TABLE_
00000000000050b0 g     F .text	000000000000000c utee_se_channel_transmit
0000000000001490 g     F .text	000000000000003c putchar
00000000000088ec g     F .text	000000000000001c mpa_init_static
0000000000001dc8 g     F .text	00000000000000c0 TEE_PopulateTransientObject
0000000000005818 g     F .text	0000000000000054 mpa_copy
00000000000056dc g     F .text	000000000000001c TEE_BigIntConvertToFMM
00000000000055bc g     F .text	000000000000000c TEE_BigIntSquareMod
0000000000005238 g     F .text	0000000000000004 TEE_BigIntShiftRight
0000000000006120 g     F .text	0000000000000074 mpa_get_S32
000000000000589c g     F .text	0000000000000044 mpa_highest_bit_index
0000000000004f78 g     F .text	000000000000000c utee_storage_obj_create
000000000000508c g     F .text	000000000000000c utee_se_session_close
0000000000004d80 g     F .text	000000000000000c utee_return
0000000000003690 g     F .text	0000000000000070 TEE_DigestUpdate
000000000000502c g     F .text	000000000000000c utee_se_service_get_readers
000000000000198c g     F .text	0000000000000008 TEE_Realloc
0000000000006210 g     F .text	0000000000000148 __mpa_div_q_r_internal_word
00000000000033e0 g     F .text	0000000000000190 TEE_SetOperationKey2
0000000000008124 g     F .text	000000000000019c mpa_sub
0000000000001384 g     F .text	00000000000000cc printf
0000000000004d8c g     F .text	000000000000000c utee_log
000000000000b540 g     O .rodata	0000000000000004 NR_STORED_PRIMES
0000000000001e88 g     F .text	0000000000000054 TEE_InitRefAttribute
0000000000001668 g     F .text	00000000000000b4 TEE_InvokeTACommand
0000000000005924 g     F .text	000000000000001c mpa_can_hold
00000000000073f8 g     F .text	0000000000000098 __mpa_abs_mul_word
00000000000040d4 g     F .text	00000000000001bc TEE_AEEncryptFinal
0000000000005cc0 g     F .text	0000000000000088 mpa_montgomery_mul
0000000000001224 g     F .text	0000000000000054 vsnprintk
0000000000005940 g     F .text	000000000000000c mpa_parity
000000000000a518 g     F .text	000000000000004c memmove
0000000000007cac g     F .text	0000000000000020 __mpa_full_adder_ackum
000000000000a418 g     F .text	0000000000000078 snprintf
0000000000005234 g     F .text	0000000000000004 TEE_BigIntCmpS32
0000000000001edc g     F .text	0000000000000050 TEE_InitValueAttribute
0000000000005270 g     F .text	000000000000000c TEE_BigIntAdd
0000000000004db0 g     F .text	000000000000000c utee_get_property_name_to_index
000000000000a778 g     O .rodata	0000000000000008 ta_heap_size
000000000000b544 g     O .rodata	0000000000000004 MAX_TABULATED_PRIME
0000000000001d74 g     F .text	0000000000000054 TEE_ResetTransientObject
0000000000004e34 g     F .text	000000000000000c utee_cryp_state_alloc
0000000000004f3c g     F .text	000000000000000c utee_authenc_enc_final
00000000000073d8 g     F .text	0000000000000020 __mpa_mul_add_word_cum
00000000000037c4 g     F .text	00000000000000a4 TEE_CipherInit
0000000000005288 g     F .text	0000000000000004 TEE_BigIntNeg
00000000000069e0 g     F .text	00000000000000f0 mpa_div
0000000000000020 g       .text	0000000000000000 __text_start
0000000000002398 g     F .text	0000000000000050 TEE_StartPersistentObjectEnumerator
000000000000a7e0 g     O .rodata	000000000000000c const_one
000000000000a3ac g     F .text	000000000000006c malloc_buffer_overlaps_heap
000000000000862c g     F .text	0000000000000018 __mpa_abs_less_than
0000000000005448 g     F .text	00000000000000a8 TEE_BigIntSubMod
0000000000003e2c g     F .text	00000000000000c4 TEE_AEInit
000000000000772c g     F .text	000000000000010c mpa_get_random
0000000000000438 g     F .text	0000000000000240 trace_printf
0000000000005014 g     F .text	000000000000000c utee_se_service_open
0000000000001318 g     F .text	0000000000000020 memcpy
0000000000004e4c g     F .text	000000000000000c utee_cryp_state_free
00000000000057e8 g     F .text	0000000000000030 mpa_wipe
00000000000056f8 g     F .text	0000000000000094 TEE_BigIntConvertFromFMM
0000000000004aa8 g     F .text	0000000000000008 TEE_Panic
00000000000050a4 g     F .text	000000000000000c utee_se_channel_get_select_resp
0000000000003570 g     F .text	0000000000000120 TEE_CopyOperation
0000000000001450 g     F .text	0000000000000040 puts
000000000000578c g     F .text	0000000000000010 TEE_BigIntComputeFMM
0000000000006194 g     F .text	0000000000000014 mpa_set_word
0000000000009c40 g     F .text	0000000000000030 malloc_get_stats
0000000000007998 g     F .text	0000000000000190 mpa_shift_left
0000000000004e94 g     F .text	000000000000000c utee_cipher_final
0000000000007584 g     F .text	00000000000000e4 mpa_mul
0000000000001908 g     F .text	0000000000000028 TEE_GetREETime
00000000000022ec g     F .text	000000000000005c TEE_AllocatePersistentObjectEnumerator
000000000000d050 g     O .data	00000000000000a8 ta_props
0000000000004428 g     F .text	0000000000000144 TEE_AsymmetricEncrypt
0000000000009c70 g     F .text	0000000000000004 malloc
0000000000004ed0 g     F .text	000000000000000c utee_cryp_obj_close
0000000000005050 g     F .text	000000000000000c utee_se_reader_open_session
000000000000202c g     F .text	0000000000000084 TEE_GenerateKey
000000000000a490 g     F .text	0000000000000054 vsnprintf
000000000000d148 g     O .data	0000000000000004 trace_level
0000000000005230 g     F .text	0000000000000004 TEE_BigIntCmp
000000000000a760 g     O .rodata	0000000000000008 ta_num_props
00000000000099f4 g     F .text	00000000000000c8 bgetr
0000000000004f30 g     F .text	000000000000000c utee_authenc_update_payload
000000000000a6a8 g     F .text	0000000000000040 mempool_free
0000000000003868 g     F .text	000000000000015c TEE_CipherUpdate
00000000000051cc g     F .text	0000000000000040 TEE_BigIntConvertToOctetString
0000000000003130 g     F .text	0000000000000148 TEE_GetOperationInfoMultiple
00000000000050c8 g     F .text	000000000000000c utee_cache_operation
0000000000004f18 g     F .text	000000000000000c utee_authenc_init
000000000000523c g     F .text	000000000000001c TEE_BigIntGetBit
000000000000a780 g     O .rodata	0000000000000003 trace_ext_prefix
0000000000007ccc g     F .text	00000000000000f4 __mpa_abs_add
00000000000096d0 g     F .text	0000000000000088 bgetz
00000000000017c0 g     F .text	000000000000000c TEE_GetInstanceData
000000000000180c g     F .text	000000000000003c TEE_Wait
0000000000004fe4 g     F .text	000000000000000c utee_storage_obj_write
00000000000073a4 g     F .text	000000000000001c mpa_free_static_temp_var
0000000000005d48 g     F .text	00000000000003ac mpa_is_prob_prime
00000000000050bc g     F .text	000000000000000c utee_se_channel_close
0000000000007668 g     F .text	00000000000000c4 mpa_mul_word
00000000000019a0 g     F .text	0000000000000008 TEE_CacheFlush
0000000000000028 g     F .text	0000000000000004 TA_DestroyEntryPoint
000000000000a6e8 g     F .text	0000000000000044 _assert_log
0000000000005190 g     F .text	0000000000000014 TEE_BigIntFMMContextSizeInU32
0000000000003d6c g     F .text	00000000000000c0 TEE_MACCompareFinal
0000000000002280 g     F .text	000000000000006c TEE_RenamePersistentObject
0000000000003700 g     F .text	00000000000000c4 TEE_DigestDoFinal
0000000000006358 g     F .text	0000000000000688 __mpa_div_q_r
00000000000050d8 g     F .text	0000000000000058 _TEE_MathAPI_Init
0000000000004fcc g     F .text	000000000000000c utee_storage_next_enum
000000000000d168 g     O .bss	0000000000008000 ta_heap
00000000000055c8 g     F .text	000000000000006c TEE_BigIntInvMod
0000000000000034 g     F .text	0000000000000004 TA_CloseSessionEntryPoint
000000000000456c g     F .text	0000000000000148 TEE_AsymmetricDecrypt
00000000000020b0 g     F .text	0000000000000098 TEE_OpenPersistentObject
0000000000004d98 g     F .text	000000000000000c __utee_panic
0000000000004e40 g     F .text	000000000000000c utee_cryp_state_copy
0000000000000038 g     F .text	0000000000000068 TA_InvokeCommandEntryPoint
0000000000008e28 g     F .text	0000000000000110 mpa_set_oct_str
0000000000005080 g     F .text	000000000000000c utee_se_session_open_channel
000000000000a628 g     F .text	0000000000000080 mempool_alloc
000000000000789c g     F .text	0000000000000098 __mpa_shift_words_left
0000000000004ec4 g     F .text	000000000000000c utee_cryp_obj_alloc
0000000000004e28 g     F .text	000000000000000c utee_set_ta_time
0000000000004eb8 g     F .text	000000000000000c utee_cryp_obj_get_attr
0000000000001fd8 g     F .text	0000000000000054 TEE_CopyObjectAttributes
00000000000059d0 g     F .text	0000000000000090 __mpa_montgomery_sub_ack
0000000000009c88 g     F .text	0000000000000070 calloc
0000000000001930 g     F .text	000000000000005c TEE_Malloc
0000000000004e04 g     F .text	000000000000000c utee_mask_cancellation
0000000000004edc g     F .text	000000000000000c utee_cryp_obj_reset
00000000000017a0 g     F .text	0000000000000014 TEE_CheckMemoryAccessRights
0000000000017ba8 g       .bss	0000000000000000 __gprof_buf_end
00000000000082c0 g     F .text	000000000000002c mpa_neg
000000000000a810 g     O .rodata	0000000000000c38 PRIME_TABLE
000000000000246c g     F .text	0000000000000068 TEE_ReadObjectData
0000000000001b18 g     F .text	00000000000000ac TEE_GetObjectBufferAttribute
000000000000002c g     F .text	0000000000000008 TA_OpenSessionEntryPoint
000000000000703c g     F .text	0000000000000120 mpa_gcd
000000000000586c g     F .text	0000000000000030 mpa_abs
0000000000004fc0 g     F .text	000000000000000c utee_storage_start_enum
0000000000002880 g     F .text	0000000000000044 TEE_FreeOperation
0000000000008b0c g     F .text	0000000000000298 mpa_set_str
0000000000004f90 g     F .text	000000000000000c utee_storage_obj_rename
0000000000015170 g     O .bss	0000000000000004 ta_param_types
00000000000019b0 g     F .text	000000000000004c __utee_from_attr
00000000000056b8 g     F .text	0000000000000024 TEE_BigIntIsProbablePrime
0000000000007394 g     F .text	0000000000000010 mpa_alloc_static_temp_var
0000000000002210 g     F .text	0000000000000044 TEE_CloseAndDeletePersistentObject1
0000000000004da4 g     F .text	000000000000000c utee_get_property
0000000000004290 g     F .text	0000000000000198 TEE_AEDecryptFinal
0000000000005130 g     F .text	0000000000000004 TEE_BigIntInit
00000000000017cc g     F .text	0000000000000008 TEE_MemMove
00000000000051a4 g     F .text	0000000000000028 TEE_BigIntConvertFromOctetString
000000000000d0f8 g     O .data	0000000000000008 _ref__utee_mcount
0000000000003b6c g     F .text	00000000000000a4 TEE_MACInit
00000000000046b4 g     F .text	000000000000013c TEE_AsymmetricSignDigest
00000000000012ec g     F .text	000000000000002c memchr
0000000000001748 g     F .text	000000000000002c TEE_UnmaskCancellation
00000000000019fc g     F .text	0000000000000048 TEE_GetObjectInfo
00000000000091cc g     F .text	0000000000000084 mpa_mul_mod
0000000000004f84 g     F .text	000000000000000c utee_storage_obj_del
0000000000003f84 g     F .text	0000000000000150 TEE_AEUpdate
0000000000004ffc g     F .text	000000000000000c utee_storage_obj_seek
0000000000001d20 g     F .text	0000000000000054 TEE_FreeTransientObject
0000000000005b84 g     F .text	000000000000013c mpa_compute_fmm_context
0000000000004e64 g     F .text	000000000000000c utee_hash_update
0000000000004a84 g     F .text	0000000000000024 rand
00000000000050d4  w    F .text	0000000000000004 __utee_mcount
00000000000030e8 g     F .text	0000000000000048 TEE_GetOperationInfo
000000000000530c g     F .text	0000000000000094 TEE_BigIntMod
0000000000005098 g     F .text	000000000000000c utee_se_channel_select_next
0000000000004dc8 g     F .text	000000000000000c utee_close_ta_session
00000000000052a8 g     F .text	0000000000000064 TEE_BigIntDiv
0000000000009c28 g     F .text	0000000000000018 malloc_reset_stats
0000000000004e88 g     F .text	000000000000000c utee_cipher_update
0000000000001a84 g     F .text	0000000000000044 TEE_RestrictObjectUsage1
0000000000005074 g     F .text	000000000000000c utee_se_session_get_atr
0000000000009cf8 g     F .text	000000000000005c realloc
0000000000007dc0 g     F .text	00000000000000cc __mpa_abs_add_ackum
000000000000a5c0 g     F .text	0000000000000068 mempool_alloc_pool
0000000000004f60 g     F .text	000000000000000c utee_asymm_verify
000000000000528c g     F .text	000000000000000c TEE_BigIntMul
0000000000003278 g     F .text	0000000000000078 TEE_ResetOperation
00000000000061a8 g     F .text	0000000000000018 mpa_get_word
00000000000017dc g     F .text	0000000000000008 TEE_MemFill
000000000000a4e4 g     F .text	0000000000000034 memcmp
000000000000a0fc g     F .text	0000000000000130 malloc_add_pool
0000000000003c10 g     F .text	00000000000000a0 TEE_MACUpdate
0000000000000428 g     F .text	0000000000000010 trace_get_level
0000000000004f0c g     F .text	000000000000000c utee_cryp_random_number_generate
0000000000001ac8 g     F .text	0000000000000050 TEE_RestrictObjectUsage
0000000000005180 g     F .text	0000000000000010 TEE_BigIntFMMSizeInU32
0000000000005134 g     F .text	0000000000000014 TEE_BigIntInitFMM
0000000000004f54 g     F .text	000000000000000c utee_asymm_operate
0000000000001c94 g     F .text	0000000000000028 TEE_CloseObject
0000000000004b6c g     F .text	0000000000000208 __utee_entry
000000000000a740 g       .text	0000000000000000 __text_end
0000000000005634 g     F .text	0000000000000078 TEE_BigIntRelativePrime
0000000000007838 g     F .text	0000000000000064 mpa_get_random_digits
0000000000009abc g     F .text	00000000000000d4 bpool
00000000000060f4 g     F .text	000000000000002c mpa_set_S32
0000000000008908 g     F .text	0000000000000068 mpa_init_static_fmm_context
000000000000171c g     F .text	000000000000002c TEE_GetCancellationFlag
0000000000005020 g     F .text	000000000000000c utee_se_service_close
00000000000018c8 g     F .text	0000000000000040 TEE_SetTAPersistentTime
00000000000082ec g     F .text	000000000000013c mpa_add_word
0000000000005038 g     F .text	000000000000000c utee_se_reader_get_prop
000000000000a564 g     F .text	000000000000001c memset
0000000000001848 g     F .text	0000000000000080 TEE_GetTAPersistentTime
00000000000001ac g     F .text	0000000000000014 cmd_clean_res
0000000000000678 g     F .text	0000000000000004 dhex_dump
0000000000002148 g     F .text	00000000000000c8 TEE_CreatePersistentObject
0000000000001774 g     F .text	000000000000002c TEE_MaskCancellation
0000000000007c88 g     F .text	0000000000000024 __mpa_full_sub
0000000000003ef0 g     F .text	0000000000000094 TEE_AEUpdateAAD
0000000000004fd8 g     F .text	000000000000000c utee_storage_obj_read
0000000000002538 g     F .text	000000000000005c TEE_TruncateObjectData
0000000000004ee8 g     F .text	000000000000000c utee_cryp_obj_populate
0000000000008644 g     F .text	0000000000000068 mpa_cmp
0000000000009250 g     F .text	0000000000000114 mpa_inv_mod
0000000000008428 g     F .text	0000000000000138 mpa_sub_word
00000000000073c0 g     F .text	0000000000000018 __mpa_mul_add_word
0000000000007f90 g     F .text	0000000000000194 mpa_add
0000000000008730 g     F .text	00000000000001bc mpa_exp_mod
0000000000001a44 g     F .text	0000000000000040 TEE_GetObjectInfo1
0000000000007934 g     F .text	0000000000000064 __mpa_shift_words_right
0000000000000404 g     F .text	0000000000000024 trace_set_level
0000000000005068 g     F .text	000000000000000c utee_se_session_is_closed
0000000000004ea0 g     F .text	000000000000000c utee_cryp_obj_get_info
0000000000001bc4 g     F .text	00000000000000d0 TEE_GetObjectValueAttribute
00000000000032f0 g     F .text	00000000000000f0 TEE_SetOperationKey
0000000000004f9c g     F .text	000000000000000c utee_storage_alloc_enum
0000000000004fb4 g     F .text	000000000000000c utee_storage_reset_enum
0000000000004ff0 g     F .text	000000000000000c utee_storage_obj_trunc
00000000000090ac g     F .text	0000000000000018 mpa_mod
0000000000008610 g     F .text	000000000000001c __mpa_abs_greater_than
0000000000005210 g     F .text	0000000000000020 TEE_BigIntConvertToS32
000000000000527c g     F .text	000000000000000c TEE_BigIntSub
0000000000004de0 g     F .text	000000000000000c utee_get_cancellation_flag
0000000000004e58 g     F .text	000000000000000c utee_hash_init
00000000000003fc g     F .text	0000000000000008 tahead_get_trace_level
00000000000014cc g     F .text	0000000000000078 __utee_from_param
0000000000002594 g     F .text	00000000000000d0 TEE_SeekObjectData
000000000000a7f0 g     O .rodata	0000000000000010 Const_1_LShift_Base
0000000000001544 g     F .text	000000000000006c __utee_to_param
0000000000009d54 g     F .text	00000000000003a8 memalign
00000000000039c4 g     F .text	00000000000001a8 TEE_CipherDoFinal
000000000000520c g     F .text	0000000000000004 TEE_BigIntConvertFromS32
0000000000009148 g     F .text	0000000000000084 mpa_sub_mod
0000000000004eac g     F .text	000000000000000c utee_cryp_obj_restrict_usage
000000000000a22c g     F .text	0000000000000180 malloc_buffer_is_within_alloced
0000000000004ef4 g     F .text	000000000000000c utee_cryp_obj_copy
0000000000007b28 g     F .text	0000000000000144 mpa_shift_right
0000000000005148 g     F .text	0000000000000038 TEE_BigIntInitFMMContext
0000000000004f00 g     F .text	000000000000000c utee_cryp_derive_key
0000000000005a60 g     F .text	0000000000000124 __mpa_montgomery_mul
0000000000008f38 g     F .text	0000000000000174 mpa_get_oct_str
00000000000000a0 g     F .text	000000000000010c cmd_process
00000000000086ac g     F .text	0000000000000084 mpa_cmp_short
0000000000004f48 g     F .text	000000000000000c utee_authenc_dec_final
00000000000024d4 g     F .text	0000000000000064 TEE_WriteObjectData
0000000000002370 g     F .text	0000000000000028 TEE_ResetPersistentObjectEnumerator
0000000000008560 g     F .text	00000000000000b0 __mpa_abs_cmp
0000000000005298 g     F .text	0000000000000010 TEE_BigIntSquare
0000000000000020 g     F .text	0000000000000008 TA_CreateEntryPoint
0000000000001278 g     F .text	0000000000000074 snprintk
0000000000005258 g     F .text	0000000000000018 TEE_BigIntGetBitCount
00000000000054f0 g     F .text	00000000000000cc TEE_BigIntMulMod
000000000000491c g     F .text	0000000000000144 TEE_DeriveKey
0000000000015178 g     O .bss	0000000000000040 ta_params
0000000000007490 g     F .text	00000000000000f4 __mpa_abs_mul
00000000000094b4 g     F .text	00000000000001c0 bget
0000000000001cbc g     F .text	0000000000000064 TEE_AllocateTransientObject
0000000000001994 g     F .text	0000000000000004 TEE_Free
0000000000005044 g     F .text	000000000000000c utee_se_reader_get_name
00000000000019a8 g     F .text	0000000000000008 TEE_CacheInvalidate
0000000000004e7c g     F .text	000000000000000c utee_cipher_init
000000000000a72c g     F .text	0000000000000014 _assert_break
00000000000053a0 g     F .text	00000000000000a8 TEE_BigIntAddMod
0000000000004fa8 g     F .text	000000000000000c utee_storage_free_enum
0000000000004f24 g     F .text	000000000000000c utee_authenc_update_aad
00000000000058e0 g     F .text	0000000000000044 mpa_get_bit
00000000000028c4 g     F .text	0000000000000824 TEE_AllocateOperation
0000000000004a60 g     F .text	0000000000000024 TEE_GenerateRandom
00000000000017d4 g     F .text	0000000000000008 TEE_MemCompare
000000000000067c g     F .text	0000000000000ba8 __vsnprintf
0000000000002348 g     F .text	0000000000000028 TEE_FreePersistentObjectEnumerator
0000000000004d74 g     F .text	000000000000000c utee_panic
00000000000015b0 g     F .text	0000000000000090 TEE_OpenTASession
0000000000001354 g     F .text	0000000000000028 trace_ext_puts
000000000000137c g     F .text	0000000000000008 trace_ext_get_thread_id
0000000000002254 g     F .text	000000000000002c TEE_CloseAndDeletePersistentObject
0000000000001998 g     F .text	0000000000000008 TEE_CacheClean
0000000000004dbc g     F .text	000000000000000c utee_open_ta_session
000000000000a580 g     F .text	0000000000000040 buf_compare_ct
00000000000061c0 g     F .text	0000000000000050 __mpa_div_dword
00000000000057c4 g     F .text	0000000000000024 __mpa_set_unused_digits_to_zero
000000000000a800 g     O .rodata	000000000000000c const_largest_deci_base
0000000000008b04 g     F .text	0000000000000008 mpa_get_str_size
0000000000001f2c g     F .text	00000000000000ac TEE_CopyObjectAttributes1
0000000000004e70 g     F .text	000000000000000c utee_hash_final
0000000000001338 g     F .text	000000000000001c strlen
00000000000056ac g     F .text	000000000000000c TEE_BigIntComputeExtendedGcd
000000000000715c g     F .text	00000000000001ec mpa_extended_gcd
00000000000090c4 g     F .text	0000000000000084 mpa_add_mod
0000000000004f6c g     F .text	000000000000000c utee_storage_obj_open
0000000000004dd4 g     F .text	000000000000000c utee_invoke_ta_command
0000000000008da4 g     F .text	0000000000000084 mpa_get_str
0000000000004e10 g     F .text	000000000000000c utee_wait
00000000000017e4 g     F .text	0000000000000028 TEE_GetSystemTime
0000000000000000 g     O .ta_head	0000000000000020 ta_head
0000000000009758 g     F .text	000000000000029c brel
0000000000007348 g     F .text	000000000000004c mpa_alloc_static_temp_var_size
0000000000004e1c g     F .text	000000000000000c utee_get_time
0000000000005958 g     F .text	0000000000000078 __mpa_montgomery_mul_add
00000000000017b4 g     F .text	000000000000000c TEE_SetInstanceData
0000000000004df8 g     F .text	000000000000000c utee_unmask_cancellation
0000000000004dec g     F .text	000000000000000c utee_check_access_rights
000000000000505c g     F .text	000000000000000c utee_se_reader_close_sessions
00000000000023e8 g     F .text	0000000000000084 TEE_GetNextPersistentObject
0000000000005008 g     F .text	000000000000000c utee_cryp_obj_generate_key
000000000000594c g     F .text	000000000000000c mpa_constant_one
0000000000001640 g     F .text	0000000000000028 TEE_CloseTASession
00000000000047f0 g     F .text	000000000000012c TEE_AsymmetricVerifyDigest
0000000000007c6c g     F .text	000000000000001c __mpa_full_adder
0000000000007e8c g     F .text	0000000000000104 __mpa_abs_sub
0000000000017ba8 g       .bss	0000000000000000 __gprof_buf_start
0000000000009c74 g     F .text	0000000000000014 free
00000000000001c0 g     F .text	000000000000023c cmd_prepare_key
0000000000009b90 g     F .text	0000000000000098 bstats
0000000000003cb0 g     F .text	00000000000000bc TEE_MACComputeFinal



Disassembly of section .text:

0000000000000020 <TA_CreateEntryPoint>:
TA_CreateEntryPoint():
/home/lagadanu/Desktop/qemu/out-br/build/optee_test-1.0/ta/aes_perf/ta_entry.c:42
      20:	52800000 	mov	w0, #0x0                   	// #0
      24:	d65f03c0 	ret

0000000000000028 <TA_DestroyEntryPoint>:
TA_DestroyEntryPoint():
/home/lagadanu/Desktop/qemu/out-br/build/optee_test-1.0/ta/aes_perf/ta_entry.c:46
      28:	d65f03c0 	ret

000000000000002c <TA_OpenSessionEntryPoint>:
TA_OpenSessionEntryPoint():
/home/lagadanu/Desktop/qemu/out-br/build/optee_test-1.0/ta/aes_perf/ta_entry.c:58
      2c:	52800000 	mov	w0, #0x0                   	// #0
      30:	d65f03c0 	ret

0000000000000034 <TA_CloseSessionEntryPoint>:
TA_CloseSessionEntryPoint():
/home/lagadanu/Desktop/qemu/out-br/build/optee_test-1.0/ta/aes_perf/ta_entry.c:65
      34:	1400005e 	b	1ac <cmd_clean_res>

0000000000000038 <TA_InvokeCommandEntryPoint>:
TA_InvokeCommandEntryPoint():
/home/lagadanu/Desktop/qemu/out-br/build/optee_test-1.0/ta/aes_perf/ta_entry.c:72
      38:	2a0103e4 	mov	w4, w1
      3c:	2a0203e0 	mov	w0, w2
      40:	aa0303e1 	mov	x1, x3
/home/lagadanu/Desktop/qemu/out-br/build/optee_test-1.0/ta/aes_perf/ta_entry.c:75
      44:	7100049f 	cmp	w4, #0x1
      48:	540000e0 	b.eq	64 <TA_InvokeCommandEntryPoint+0x2c>
      4c:	340000a4 	cbz	w4, 60 <TA_InvokeCommandEntryPoint+0x28>
      50:	7100089f 	cmp	w4, #0x2
      54:	540000c0 	b.eq	6c <TA_InvokeCommandEntryPoint+0x34>
/home/lagadanu/Desktop/qemu/out-br/build/optee_test-1.0/ta/aes_perf/ta_entry.c:90
      58:	129fff20 	mov	w0, #0xffff0006            	// #-65530
      5c:	d65f03c0 	ret
/home/lagadanu/Desktop/qemu/out-br/build/optee_test-1.0/ta/aes_perf/ta_entry.c:77
      60:	14000058 	b	1c0 <cmd_prepare_key>
/home/lagadanu/Desktop/qemu/out-br/build/optee_test-1.0/ta/aes_perf/ta_entry.c:80
      64:	52800002 	mov	w2, #0x0                   	// #0
      68:	1400000e 	b	a0 <cmd_process>
/home/lagadanu/Desktop/qemu/out-br/build/optee_test-1.0/ta/aes_perf/ta_entry.c:72
      6c:	a9bf7bfd 	stp	x29, x30, [sp,#-16]!
/home/lagadanu/Desktop/qemu/out-br/build/optee_test-1.0/ta/aes_perf/ta_entry.c:85
      70:	52800023 	mov	w3, #0x1                   	// #1
      74:	52800022 	mov	w2, #0x1                   	// #1
      78:	52800aa1 	mov	w1, #0x55                  	// #85
/home/lagadanu/Desktop/qemu/out-br/build/optee_test-1.0/ta/aes_perf/ta_entry.c:72
      7c:	910003fd 	mov	x29, sp
/home/lagadanu/Desktop/qemu/out-br/build/optee_test-1.0/ta/aes_perf/ta_entry.c:85
      80:	f0000044 	adrp	x4, b000 <PRIME_TABLE+0x7f0>
      84:	9118c484 	add	x4, x4, #0x631
      88:	d0000040 	adrp	x0, a000 <memalign+0x2ac>
      8c:	911d0000 	add	x0, x0, #0x740
      90:	940000ea 	bl	438 <trace_printf>
/home/lagadanu/Desktop/qemu/out-br/build/optee_test-1.0/ta/aes_perf/ta_entry.c:86
      94:	129ffea0 	mov	w0, #0xffff000a            	// #-65526
/home/lagadanu/Desktop/qemu/out-br/build/optee_test-1.0/ta/aes_perf/ta_entry.c:92
      98:	a8c17bfd 	ldp	x29, x30, [sp],#16
      9c:	d65f03c0 	ret

00000000000000a0 <cmd_process>:
cmd_process():
/home/lagadanu/Desktop/qemu/out-br/build/optee_test-1.0/ta/aes_perf/ta_aes_perf.c:120
      a0:	7105dc1f 	cmp	w0, #0x177
      a4:	54000801 	b.ne	1a4 <cmd_process+0x104>
/home/lagadanu/Desktop/qemu/out-br/build/optee_test-1.0/ta/aes_perf/ta_aes_perf.c:107
      a8:	a9ba7bfd 	stp	x29, x30, [sp,#-96]!
      ac:	12001c42 	and	w2, w2, #0xff
      b0:	910003fd 	mov	x29, sp
      b4:	a90153f3 	stp	x19, x20, [sp,#16]
      b8:	aa0103f3 	mov	x19, x1
      bc:	a9025bf5 	stp	x21, x22, [sp,#32]
      c0:	a90363f7 	stp	x23, x24, [sp,#48]
      c4:	f90023f9 	str	x25, [sp,#64]
/home/lagadanu/Desktop/qemu/out-br/build/optee_test-1.0/ta/aes_perf/ta_aes_perf.c:123
      c8:	34000162 	cbz	w2, f4 <cmd_process+0x54>
is_inbuf_a_secure_memref():
/home/lagadanu/Desktop/qemu/out-br/build/optee_test-1.0/ta/aes_perf/ta_aes_perf.c:63
      cc:	f9400021 	ldr	x1, [x1]
      d0:	528000a0 	mov	w0, #0x5                   	// #5
      d4:	52800022 	mov	w2, #0x1                   	// #1
      d8:	72a40000 	movk	w0, #0x2000, lsl #16
      dc:	940005b1 	bl	17a0 <TEE_CheckMemoryAccessRights>
is_outbuf_a_secure_memref():
/home/lagadanu/Desktop/qemu/out-br/build/optee_test-1.0/ta/aes_perf/ta_aes_perf.c:80
      e0:	f9400a61 	ldr	x1, [x19,#16]
      e4:	528000c0 	mov	w0, #0x6                   	// #6
      e8:	52800022 	mov	w2, #0x1                   	// #1
      ec:	72a40000 	movk	w0, #0x2000, lsl #16
      f0:	940005ac 	bl	17a0 <TEE_CheckMemoryAccessRights>
cmd_process():
/home/lagadanu/Desktop/qemu/out-br/build/optee_test-1.0/ta/aes_perf/ta_aes_perf.c:153
      f4:	b9401a60 	ldr	w0, [x19,#24]
/home/lagadanu/Desktop/qemu/out-br/build/optee_test-1.0/ta/aes_perf/ta_aes_perf.c:156
      f8:	52810201 	mov	w1, #0x810                 	// #2064
/home/lagadanu/Desktop/qemu/out-br/build/optee_test-1.0/ta/aes_perf/ta_aes_perf.c:153
      fc:	b9005fa0 	str	w0, [x29,#92]
/home/lagadanu/Desktop/qemu/out-br/build/optee_test-1.0/ta/aes_perf/ta_aes_perf.c:156
     100:	72a80001 	movk	w1, #0x4000, lsl #16
     104:	b0000060 	adrp	x0, d000 <iv>
/home/lagadanu/Desktop/qemu/out-br/build/optee_test-1.0/ta/aes_perf/ta_aes_perf.c:151
     108:	b9400a76 	ldr	w22, [x19,#8]
/home/lagadanu/Desktop/qemu/out-br/build/optee_test-1.0/ta/aes_perf/ta_aes_perf.c:154
     10c:	b9402278 	ldr	w24, [x19,#32]
     110:	52800014 	mov	w20, #0x0                   	// #0
/home/lagadanu/Desktop/qemu/out-br/build/optee_test-1.0/ta/aes_perf/ta_aes_perf.c:156
     114:	b9415002 	ldr	w2, [x0,#336]
/home/lagadanu/Desktop/qemu/out-br/build/optee_test-1.0/ta/aes_perf/ta_aes_perf.c:158
     118:	910173b9 	add	x25, x29, #0x5c
/home/lagadanu/Desktop/qemu/out-br/build/optee_test-1.0/ta/aes_perf/ta_aes_perf.c:150
     11c:	f9400275 	ldr	x21, [x19]
/home/lagadanu/Desktop/qemu/out-br/build/optee_test-1.0/ta/aes_perf/ta_aes_perf.c:152
     120:	f9400a77 	ldr	x23, [x19,#16]
/home/lagadanu/Desktop/qemu/out-br/build/optee_test-1.0/ta/aes_perf/ta_aes_perf.c:156
     124:	6b01005f 	cmp	w2, w1
/home/lagadanu/Desktop/qemu/out-br/build/optee_test-1.0/ta/aes_perf/ta_aes_perf.c:158
     128:	91054013 	add	x19, x0, #0x150
/home/lagadanu/Desktop/qemu/out-br/build/optee_test-1.0/ta/aes_perf/ta_aes_perf.c:156
     12c:	54000340 	b.eq	194 <cmd_process+0xf4>
/home/lagadanu/Desktop/qemu/out-br/build/optee_test-1.0/ta/aes_perf/ta_aes_perf.c:162
     130:	6b14031f 	cmp	w24, w20
     134:	54000340 	b.eq	19c <cmd_process+0xfc>
/home/lagadanu/Desktop/qemu/out-br/build/optee_test-1.0/ta/aes_perf/ta_aes_perf.c:163
     138:	f9400660 	ldr	x0, [x19,#8]
     13c:	aa1903e4 	mov	x4, x25
     140:	aa1703e3 	mov	x3, x23
     144:	2a1603e2 	mov	w2, w22
     148:	aa1503e1 	mov	x1, x21
     14c:	11000694 	add	w20, w20, #0x1
     150:	94000dc6 	bl	3868 <TEE_CipherUpdate>
/home/lagadanu/Desktop/qemu/out-br/build/optee_test-1.0/ta/aes_perf/ta_aes_perf.c:165
     154:	34fffee0 	cbz	w0, 130 <cmd_process+0x90>
     158:	14000009 	b	17c <cmd_process+0xdc>
/home/lagadanu/Desktop/qemu/out-br/build/optee_test-1.0/ta/aes_perf/ta_aes_perf.c:158
     15c:	f9400660 	ldr	x0, [x19,#8]
     160:	aa1903e4 	mov	x4, x25
     164:	aa1703e3 	mov	x3, x23
     168:	2a1603e2 	mov	w2, w22
     16c:	aa1503e1 	mov	x1, x21
     170:	11000694 	add	w20, w20, #0x1
     174:	94000f84 	bl	3f84 <TEE_AEUpdate>
/home/lagadanu/Desktop/qemu/out-br/build/optee_test-1.0/ta/aes_perf/ta_aes_perf.c:159
     178:	340000e0 	cbz	w0, 194 <cmd_process+0xf4>
/home/lagadanu/Desktop/qemu/out-br/build/optee_test-1.0/ta/aes_perf/ta_aes_perf.c:176
     17c:	a94153f3 	ldp	x19, x20, [sp,#16]
     180:	a9425bf5 	ldp	x21, x22, [sp,#32]
     184:	a94363f7 	ldp	x23, x24, [sp,#48]
     188:	f94023f9 	ldr	x25, [sp,#64]
     18c:	a8c67bfd 	ldp	x29, x30, [sp],#96
     190:	d65f03c0 	ret
/home/lagadanu/Desktop/qemu/out-br/build/optee_test-1.0/ta/aes_perf/ta_aes_perf.c:157
     194:	6b14031f 	cmp	w24, w20
     198:	54fffe21 	b.ne	15c <cmd_process+0xbc>
/home/lagadanu/Desktop/qemu/out-br/build/optee_test-1.0/ta/aes_perf/ta_aes_perf.c:175
     19c:	52800000 	mov	w0, #0x0                   	// #0
     1a0:	17fffff7 	b	17c <cmd_process+0xdc>
/home/lagadanu/Desktop/qemu/out-br/build/optee_test-1.0/ta/aes_perf/ta_aes_perf.c:121
     1a4:	129fff20 	mov	w0, #0xffff0006            	// #-65530
     1a8:	d65f03c0 	ret

00000000000001ac <cmd_clean_res>:
cmd_clean_res():
/home/lagadanu/Desktop/qemu/out-br/build/optee_test-1.0/ta/aes_perf/ta_aes_perf.c:297
     1ac:	b0000060 	adrp	x0, d000 <iv>
     1b0:	f940ac00 	ldr	x0, [x0,#344]
     1b4:	b4000040 	cbz	x0, 1bc <cmd_clean_res+0x10>
/home/lagadanu/Desktop/qemu/out-br/build/optee_test-1.0/ta/aes_perf/ta_aes_perf.c:298
     1b8:	140009b2 	b	2880 <TEE_FreeOperation>
     1bc:	d65f03c0 	ret

00000000000001c0 <cmd_prepare_key>:
cmd_prepare_key():
/home/lagadanu/Desktop/qemu/out-br/build/optee_test-1.0/ta/aes_perf/ta_aes_perf.c:179
     1c0:	a9b87bfd 	stp	x29, x30, [sp,#-128]!
/home/lagadanu/Desktop/qemu/out-br/build/optee_test-1.0/ta/aes_perf/ta_aes_perf.c:210
     1c4:	7100441f 	cmp	w0, #0x11
/home/lagadanu/Desktop/qemu/out-br/build/optee_test-1.0/ta/aes_perf/ta_aes_perf.c:179
     1c8:	910003fd 	mov	x29, sp
     1cc:	a90153f3 	stp	x19, x20, [sp,#16]
/home/lagadanu/Desktop/qemu/out-br/build/optee_test-1.0/ta/aes_perf/ta_aes_perf.c:211
     1d0:	129fff34 	mov	w20, #0xffff0006            	// #-65530
/home/lagadanu/Desktop/qemu/out-br/build/optee_test-1.0/ta/aes_perf/ta_aes_perf.c:179
     1d4:	a9025bf5 	stp	x21, x22, [sp,#32]
     1d8:	a90363f7 	stp	x23, x24, [sp,#48]
     1dc:	f90023f9 	str	x25, [sp,#64]
/home/lagadanu/Desktop/qemu/out-br/build/optee_test-1.0/ta/aes_perf/ta_aes_perf.c:210
     1e0:	54001001 	b.ne	3e0 <cmd_prepare_key+0x220>
/home/lagadanu/Desktop/qemu/out-br/build/optee_test-1.0/ta/aes_perf/ta_aes_perf.c:214
     1e4:	29405420 	ldp	w0, w21, [x1]
/home/lagadanu/Desktop/qemu/out-br/build/optee_test-1.0/ta/aes_perf/ta_aes_perf.c:240
     1e8:	129fff34 	mov	w20, #0xffff0006            	// #-65530
/home/lagadanu/Desktop/qemu/out-br/build/optee_test-1.0/ta/aes_perf/ta_aes_perf.c:217
     1ec:	b9401021 	ldr	w1, [x1,#16]
/home/lagadanu/Desktop/qemu/out-br/build/optee_test-1.0/ta/aes_perf/ta_aes_perf.c:213
     1f0:	7100001f 	cmp	w0, #0x0
     1f4:	1a9f07f6 	cset	w22, ne
/home/lagadanu/Desktop/qemu/out-br/build/optee_test-1.0/ta/aes_perf/ta_aes_perf.c:217
     1f8:	7100103f 	cmp	w1, #0x4
     1fc:	54000f28 	b.hi	3e0 <cmd_prepare_key+0x220>
     200:	f0000040 	adrp	x0, b000 <PRIME_TABLE+0x7f0>
     204:	b0000073 	adrp	x19, d000 <iv>
     208:	9118b000 	add	x0, x0, #0x62c
     20c:	38614800 	ldrb	w0, [x0,w1,uxtw]
     210:	10000061 	adr	x1, 21c <cmd_prepare_key+0x5c>
     214:	8b208820 	add	x0, x1, w0, sxtb #2
     218:	d61f0000 	br	x0
/home/lagadanu/Desktop/qemu/out-br/build/optee_test-1.0/ta/aes_perf/ta_aes_perf.c:219
     21c:	91054260 	add	x0, x19, #0x150
     220:	52800201 	mov	w1, #0x10                  	// #16
     224:	72a20001 	movk	w1, #0x1000, lsl #16
     228:	b9015261 	str	w1, [x19,#336]
/home/lagadanu/Desktop/qemu/out-br/build/optee_test-1.0/ta/aes_perf/ta_aes_perf.c:220
     22c:	b900101f 	str	wzr, [x0,#16]
/home/lagadanu/Desktop/qemu/out-br/build/optee_test-1.0/ta/aes_perf/ta_aes_perf.c:215
     230:	2a1503f4 	mov	w20, w21
/home/lagadanu/Desktop/qemu/out-br/build/optee_test-1.0/ta/aes_perf/ta_aes_perf.c:238
     234:	14000012 	b	27c <cmd_prepare_key+0xbc>
/home/lagadanu/Desktop/qemu/out-br/build/optee_test-1.0/ta/aes_perf/ta_aes_perf.c:223
     238:	91054260 	add	x0, x19, #0x150
     23c:	52802201 	mov	w1, #0x110                 	// #272
/home/lagadanu/Desktop/qemu/out-br/build/optee_test-1.0/ta/aes_perf/ta_aes_perf.c:227
     240:	72a20001 	movk	w1, #0x1000, lsl #16
/home/lagadanu/Desktop/qemu/out-br/build/optee_test-1.0/ta/aes_perf/ta_aes_perf.c:236
     244:	b9015261 	str	w1, [x19,#336]
/home/lagadanu/Desktop/qemu/out-br/build/optee_test-1.0/ta/aes_perf/ta_aes_perf.c:237
     248:	52800021 	mov	w1, #0x1                   	// #1
     24c:	b9001001 	str	w1, [x0,#16]
     250:	17fffff8 	b	230 <cmd_prepare_key+0x70>
/home/lagadanu/Desktop/qemu/out-br/build/optee_test-1.0/ta/aes_perf/ta_aes_perf.c:227
     254:	91054260 	add	x0, x19, #0x150
     258:	52804201 	mov	w1, #0x210                 	// #528
     25c:	17fffff9 	b	240 <cmd_prepare_key+0x80>
/home/lagadanu/Desktop/qemu/out-br/build/optee_test-1.0/ta/aes_perf/ta_aes_perf.c:231
     260:	91054260 	add	x0, x19, #0x150
     264:	52808201 	mov	w1, #0x410                 	// #1040
     268:	72a20001 	movk	w1, #0x1000, lsl #16
/home/lagadanu/Desktop/qemu/out-br/build/optee_test-1.0/ta/aes_perf/ta_aes_perf.c:233
     26c:	531f7ab4 	lsl	w20, w21, #1
/home/lagadanu/Desktop/qemu/out-br/build/optee_test-1.0/ta/aes_perf/ta_aes_perf.c:231
     270:	b9015261 	str	w1, [x19,#336]
/home/lagadanu/Desktop/qemu/out-br/build/optee_test-1.0/ta/aes_perf/ta_aes_perf.c:232
     274:	52800021 	mov	w1, #0x1                   	// #1
     278:	b9001001 	str	w1, [x0,#16]
/home/lagadanu/Desktop/qemu/out-br/build/optee_test-1.0/ta/aes_perf/ta_aes_perf.c:243
     27c:	97ffffcc 	bl	1ac <cmd_clean_res>
/home/lagadanu/Desktop/qemu/out-br/build/optee_test-1.0/ta/aes_perf/ta_aes_perf.c:245
     280:	91054278 	add	x24, x19, #0x150
     284:	b9415261 	ldr	w1, [x19,#336]
     288:	2a1403e3 	mov	w3, w20
     28c:	2a1603e2 	mov	w2, w22
     290:	91002300 	add	x0, x24, #0x8
     294:	9400098c 	bl	28c4 <TEE_AllocateOperation>
     298:	2a0003f4 	mov	w20, w0
/home/lagadanu/Desktop/qemu/out-br/build/optee_test-1.0/ta/aes_perf/ta_aes_perf.c:246
     29c:	35000a20 	cbnz	w0, 3e0 <cmd_prepare_key+0x220>
/home/lagadanu/Desktop/qemu/out-br/build/optee_test-1.0/ta/aes_perf/ta_aes_perf.c:248
     2a0:	52800200 	mov	w0, #0x10                  	// #16
     2a4:	910163a2 	add	x2, x29, #0x58
     2a8:	2a1503e1 	mov	w1, w21
     2ac:	72b40000 	movk	w0, #0xa000, lsl #16
     2b0:	94000683 	bl	1cbc <TEE_AllocateTransientObject>
     2b4:	2a0003f4 	mov	w20, w0
/home/lagadanu/Desktop/qemu/out-br/build/optee_test-1.0/ta/aes_perf/ta_aes_perf.c:249
     2b8:	35000940 	cbnz	w0, 3e0 <cmd_prepare_key+0x220>
/home/lagadanu/Desktop/qemu/out-br/build/optee_test-1.0/ta/aes_perf/ta_aes_perf.c:251
     2bc:	52b80000 	mov	w0, #0xc0000000            	// #-1073741824
/home/lagadanu/Desktop/qemu/out-br/build/optee_test-1.0/ta/aes_perf/ta_aes_perf.c:252
     2c0:	b0000076 	adrp	x22, d000 <iv>
     2c4:	910002d7 	add	x23, x22, #0x0
/home/lagadanu/Desktop/qemu/out-br/build/optee_test-1.0/ta/aes_perf/ta_aes_perf.c:251
     2c8:	b9006ba0 	str	w0, [x29,#104]
/home/lagadanu/Desktop/qemu/out-br/build/optee_test-1.0/ta/aes_perf/ta_aes_perf.c:252
     2cc:	910042e0 	add	x0, x23, #0x10
     2d0:	f9003ba0 	str	x0, [x29,#112]
/home/lagadanu/Desktop/qemu/out-br/build/optee_test-1.0/ta/aes_perf/ta_aes_perf.c:253
     2d4:	53037ea0 	lsr	w0, w21, #3
     2d8:	b9007ba0 	str	w0, [x29,#120]
/home/lagadanu/Desktop/qemu/out-br/build/optee_test-1.0/ta/aes_perf/ta_aes_perf.c:255
     2dc:	f9402fa0 	ldr	x0, [x29,#88]
     2e0:	9101a3b9 	add	x25, x29, #0x68
     2e4:	52800022 	mov	w2, #0x1                   	// #1
     2e8:	aa1903e1 	mov	x1, x25
     2ec:	940006b7 	bl	1dc8 <TEE_PopulateTransientObject>
     2f0:	2a0003f4 	mov	w20, w0
/home/lagadanu/Desktop/qemu/out-br/build/optee_test-1.0/ta/aes_perf/ta_aes_perf.c:256
     2f4:	35000760 	cbnz	w0, 3e0 <cmd_prepare_key+0x220>
/home/lagadanu/Desktop/qemu/out-br/build/optee_test-1.0/ta/aes_perf/ta_aes_perf.c:258
     2f8:	b9415261 	ldr	w1, [x19,#336]
     2fc:	52808200 	mov	w0, #0x410                 	// #1040
     300:	72a20000 	movk	w0, #0x1000, lsl #16
     304:	6b00003f 	cmp	w1, w0
     308:	54000561 	b.ne	3b4 <cmd_prepare_key+0x1f4>
/home/lagadanu/Desktop/qemu/out-br/build/optee_test-1.0/ta/aes_perf/ta_aes_perf.c:259
     30c:	52800200 	mov	w0, #0x10                  	// #16
     310:	910183a2 	add	x2, x29, #0x60
     314:	2a1503e1 	mov	w1, w21
     318:	72b40000 	movk	w0, #0xa000, lsl #16
     31c:	94000668 	bl	1cbc <TEE_AllocateTransientObject>
/home/lagadanu/Desktop/qemu/out-br/build/optee_test-1.0/ta/aes_perf/ta_aes_perf.c:261
     320:	35000520 	cbnz	w0, 3c4 <cmd_prepare_key+0x204>
/home/lagadanu/Desktop/qemu/out-br/build/optee_test-1.0/ta/aes_perf/ta_aes_perf.c:265
     324:	f94033a0 	ldr	x0, [x29,#96]
/home/lagadanu/Desktop/qemu/out-br/build/optee_test-1.0/ta/aes_perf/ta_aes_perf.c:263
     328:	9100c2f7 	add	x23, x23, #0x30
/home/lagadanu/Desktop/qemu/out-br/build/optee_test-1.0/ta/aes_perf/ta_aes_perf.c:265
     32c:	52800022 	mov	w2, #0x1                   	// #1
     330:	aa1903e1 	mov	x1, x25
/home/lagadanu/Desktop/qemu/out-br/build/optee_test-1.0/ta/aes_perf/ta_aes_perf.c:263
     334:	f9003bb7 	str	x23, [x29,#112]
/home/lagadanu/Desktop/qemu/out-br/build/optee_test-1.0/ta/aes_perf/ta_aes_perf.c:265
     338:	940006a4 	bl	1dc8 <TEE_PopulateTransientObject>
/home/lagadanu/Desktop/qemu/out-br/build/optee_test-1.0/ta/aes_perf/ta_aes_perf.c:266
     33c:	35000440 	cbnz	w0, 3c4 <cmd_prepare_key+0x204>
/home/lagadanu/Desktop/qemu/out-br/build/optee_test-1.0/ta/aes_perf/ta_aes_perf.c:268
     340:	f9400700 	ldr	x0, [x24,#8]
     344:	a9458ba1 	ldp	x1, x2, [x29,#88]
     348:	94000c26 	bl	33e0 <TEE_SetOperationKey2>
/home/lagadanu/Desktop/qemu/out-br/build/optee_test-1.0/ta/aes_perf/ta_aes_perf.c:269
     34c:	350003c0 	cbnz	w0, 3c4 <cmd_prepare_key+0x204>
/home/lagadanu/Desktop/qemu/out-br/build/optee_test-1.0/ta/aes_perf/ta_aes_perf.c:271
     350:	f94033a0 	ldr	x0, [x29,#96]
     354:	94000673 	bl	1d20 <TEE_FreeTransientObject>
/home/lagadanu/Desktop/qemu/out-br/build/optee_test-1.0/ta/aes_perf/ta_aes_perf.c:277
     358:	f9402fa0 	ldr	x0, [x29,#88]
     35c:	94000671 	bl	1d20 <TEE_FreeTransientObject>
/home/lagadanu/Desktop/qemu/out-br/build/optee_test-1.0/ta/aes_perf/ta_aes_perf.c:279
     360:	91054260 	add	x0, x19, #0x150
     364:	b9401000 	ldr	w0, [x0,#16]
     368:	35000320 	cbnz	w0, 3cc <cmd_prepare_key+0x20c>
/home/lagadanu/Desktop/qemu/out-br/build/optee_test-1.0/ta/aes_perf/ta_aes_perf.c:284
     36c:	d2800002 	mov	x2, #0x0                   	// #0
/home/lagadanu/Desktop/qemu/out-br/build/optee_test-1.0/ta/aes_perf/ta_aes_perf.c:283
     370:	d2800001 	mov	x1, #0x0                   	// #0
/home/lagadanu/Desktop/qemu/out-br/build/optee_test-1.0/ta/aes_perf/ta_aes_perf.c:287
     374:	b9415264 	ldr	w4, [x19,#336]
     378:	52810203 	mov	w3, #0x810                 	// #2064
     37c:	72a80003 	movk	w3, #0x4000, lsl #16
     380:	91054260 	add	x0, x19, #0x150
     384:	6b03009f 	cmp	w4, w3
     388:	54000281 	b.ne	3d8 <cmd_prepare_key+0x218>
/home/lagadanu/Desktop/qemu/out-br/build/optee_test-1.0/ta/aes_perf/ta_aes_perf.c:288
     38c:	f9400400 	ldr	x0, [x0,#8]
     390:	52800005 	mov	w5, #0x0                   	// #0
     394:	52800004 	mov	w4, #0x0                   	// #0
     398:	52801003 	mov	w3, #0x80                  	// #128
     39c:	94000ea4 	bl	3e2c <TEE_AEInit>
     3a0:	14000009 	b	3c4 <cmd_prepare_key+0x204>
/home/lagadanu/Desktop/qemu/out-br/build/optee_test-1.0/ta/aes_perf/ta_aes_perf.c:236
     3a4:	52810201 	mov	w1, #0x810                 	// #2064
     3a8:	91054260 	add	x0, x19, #0x150
     3ac:	72a80001 	movk	w1, #0x4000, lsl #16
     3b0:	17ffffa5 	b	244 <cmd_prepare_key+0x84>
/home/lagadanu/Desktop/qemu/out-br/build/optee_test-1.0/ta/aes_perf/ta_aes_perf.c:273
     3b4:	f9400700 	ldr	x0, [x24,#8]
     3b8:	f9402fa1 	ldr	x1, [x29,#88]
     3bc:	94000bcd 	bl	32f0 <TEE_SetOperationKey>
/home/lagadanu/Desktop/qemu/out-br/build/optee_test-1.0/ta/aes_perf/ta_aes_perf.c:274
     3c0:	34fffcc0 	cbz	w0, 358 <cmd_prepare_key+0x198>
     3c4:	2a0003f4 	mov	w20, w0
     3c8:	14000006 	b	3e0 <cmd_prepare_key+0x220>
/home/lagadanu/Desktop/qemu/out-br/build/optee_test-1.0/ta/aes_perf/ta_aes_perf.c:281
     3cc:	d2800202 	mov	x2, #0x10                  	// #16
/home/lagadanu/Desktop/qemu/out-br/build/optee_test-1.0/ta/aes_perf/ta_aes_perf.c:280
     3d0:	910002c1 	add	x1, x22, #0x0
     3d4:	17ffffe8 	b	374 <cmd_prepare_key+0x1b4>
/home/lagadanu/Desktop/qemu/out-br/build/optee_test-1.0/ta/aes_perf/ta_aes_perf.c:290
     3d8:	f9400400 	ldr	x0, [x0,#8]
     3dc:	94000cfa 	bl	37c4 <TEE_CipherInit>
/home/lagadanu/Desktop/qemu/out-br/build/optee_test-1.0/ta/aes_perf/ta_aes_perf.c:293
     3e0:	2a1403e0 	mov	w0, w20
     3e4:	f94023f9 	ldr	x25, [sp,#64]
     3e8:	a94153f3 	ldp	x19, x20, [sp,#16]
     3ec:	a9425bf5 	ldp	x21, x22, [sp,#32]
     3f0:	a94363f7 	ldp	x23, x24, [sp,#48]
     3f4:	a8c87bfd 	ldp	x29, x30, [sp],#128
     3f8:	d65f03c0 	ret

00000000000003fc <tahead_get_trace_level>:
tahead_get_trace_level():
/home/lagadanu/Desktop/qemu/optee_os/out/arm/export-ta_arm64/src/user_ta_header.c:107
     3fc:	52800040 	mov	w0, #0x2                   	// #2
     400:	d65f03c0 	ret

0000000000000404 <trace_set_level>:
trace_set_level():
/home/lagadanu/Desktop/qemu/optee_os/lib/libutils/ext/trace.c:26
     404:	51000401 	sub	w1, w0, #0x1
     408:	71000c3f 	cmp	w1, #0x3
     40c:	f0000041 	adrp	x1, b000 <PRIME_TABLE+0x7f0>
     410:	54000088 	b.hi	420 <trace_set_level+0x1c>
/home/lagadanu/Desktop/qemu/optee_os/lib/libutils/ext/trace.c:29
     414:	f9474421 	ldr	x1, [x1,#3720]
     418:	b9000020 	str	w0, [x1]
     41c:	d65f03c0 	ret
     420:	52800080 	mov	w0, #0x4                   	// #4
     424:	17fffffc 	b	414 <trace_set_level+0x10>

0000000000000428 <trace_get_level>:
trace_get_level():
/home/lagadanu/Desktop/qemu/optee_os/lib/libutils/ext/trace.c:35
     428:	f0000040 	adrp	x0, b000 <PRIME_TABLE+0x7f0>
     42c:	f9474400 	ldr	x0, [x0,#3720]
     430:	b9400000 	ldr	w0, [x0]
     434:	d65f03c0 	ret

0000000000000438 <trace_printf>:
trace_printf():
/home/lagadanu/Desktop/qemu/optee_os/lib/libutils/ext/trace.c:97
     438:	d108c3ff 	sub	sp, sp, #0x230
     43c:	a9007bfd 	stp	x29, x30, [sp]
     440:	910003fd 	mov	x29, sp
     444:	f9010fa5 	str	x5, [x29,#536]
     448:	910403a5 	add	x5, x29, #0x100
     44c:	a9046bf9 	stp	x25, x26, [sp,#64]
/home/lagadanu/Desktop/qemu/optee_os/lib/libutils/ext/trace.c:103
     450:	72001c79 	ands	w25, w3, #0xff
/home/lagadanu/Desktop/qemu/optee_os/lib/libutils/ext/trace.c:97
     454:	a90153f3 	stp	x19, x20, [sp,#16]
     458:	a9025bf5 	stp	x21, x22, [sp,#32]
     45c:	a90363f7 	stp	x23, x24, [sp,#48]
     460:	f90113a6 	str	x6, [x29,#544]
     464:	f90117a7 	str	x7, [x29,#552]
     468:	3d8024a0 	str	q0, [x5,#144]
     46c:	3d8028a1 	str	q1, [x5,#160]
     470:	3d802ca2 	str	q2, [x5,#176]
     474:	3d8030a3 	str	q3, [x5,#192]
     478:	3d8034a4 	str	q4, [x5,#208]
     47c:	3d8038a5 	str	q5, [x5,#224]
     480:	3d803ca6 	str	q6, [x5,#240]
     484:	910803a5 	add	x5, x29, #0x200
     488:	3d8000a7 	str	q7, [x5]
/home/lagadanu/Desktop/qemu/optee_os/lib/libutils/ext/trace.c:103
     48c:	540008a0 	b.eq	5a0 <trace_printf+0x168>
/home/lagadanu/Desktop/qemu/optee_os/lib/libutils/ext/trace.c:103 (discriminator 1)
     490:	f0000043 	adrp	x3, b000 <PRIME_TABLE+0x7f0>
     494:	f9474463 	ldr	x3, [x3,#3720]
     498:	b9400063 	ldr	w3, [x3]
     49c:	6b02007f 	cmp	w3, w2
     4a0:	5400072b 	b.lt	584 <trace_printf+0x14c>
trace_level_to_string():
/home/lagadanu/Desktop/qemu/optee_os/lib/libutils/ext/trace.c:52
     4a4:	51000443 	sub	w3, w2, #0x1
     4a8:	71000c7f 	cmp	w3, #0x3
/home/lagadanu/Desktop/qemu/optee_os/lib/libutils/ext/trace.c:55
     4ac:	d0000043 	adrp	x3, a000 <memalign+0x2ac>
/home/lagadanu/Desktop/qemu/optee_os/lib/libutils/ext/trace.c:52
     4b0:	1a9f9045 	csel	w5, w2, wzr, ls
/home/lagadanu/Desktop/qemu/optee_os/lib/libutils/ext/trace.c:55
     4b4:	911e2063 	add	x3, x3, #0x788
     4b8:	3865c863 	ldrb	w3, [x3,w5,sxtw]
trace_printf():
/home/lagadanu/Desktop/qemu/optee_os/lib/libutils/ext/trace.c:107
     4bc:	910243b4 	add	x20, x29, #0x90
     4c0:	2a0203f3 	mov	w19, w2
     4c4:	2a0103f8 	mov	w24, w1
     4c8:	aa0003f6 	mov	x22, x0
     4cc:	f0000042 	adrp	x2, b000 <PRIME_TABLE+0x7f0>
     4d0:	aa0403f7 	mov	x23, x4
     4d4:	911c5842 	add	x2, x2, #0x716
     4d8:	d2802001 	mov	x1, #0x100                 	// #256
     4dc:	aa1403e0 	mov	x0, x20
     4e0:	94000366 	bl	1278 <snprintk>
/home/lagadanu/Desktop/qemu/optee_os/lib/libutils/ext/trace.c:109
     4e4:	37f80500 	tbnz	w0, #31, 584 <trace_printf+0x14c>
/home/lagadanu/Desktop/qemu/optee_os/lib/libutils/ext/trace.c:114
     4e8:	f0000043 	adrp	x3, b000 <PRIME_TABLE+0x7f0>
/home/lagadanu/Desktop/qemu/optee_os/lib/libutils/ext/trace.c:111
     4ec:	93407c15 	sxtw	x21, w0
/home/lagadanu/Desktop/qemu/optee_os/lib/libutils/ext/trace.c:114
     4f0:	d280201a 	mov	x26, #0x100                 	// #256
     4f4:	f0000042 	adrp	x2, b000 <PRIME_TABLE+0x7f0>
     4f8:	f9474c63 	ldr	x3, [x3,#3736]
     4fc:	911c6842 	add	x2, x2, #0x71a
     500:	cb150341 	sub	x1, x26, x21
     504:	8b150280 	add	x0, x20, x21
     508:	9400035c 	bl	1278 <snprintk>
/home/lagadanu/Desktop/qemu/optee_os/lib/libutils/ext/trace.c:116
     50c:	37f803c0 	tbnz	w0, #31, 584 <trace_printf+0x14c>
/home/lagadanu/Desktop/qemu/optee_os/lib/libutils/ext/trace.c:118
     510:	8b20c2b5 	add	x21, x21, w0, sxtw
/home/lagadanu/Desktop/qemu/optee_os/lib/libutils/ext/trace.c:120
     514:	340005d9 	cbz	w25, 5cc <trace_printf+0x194>
/home/lagadanu/Desktop/qemu/optee_os/lib/libutils/ext/trace.c:120 (discriminator 1)
     518:	52800342 	mov	w2, #0x1a                  	// #26
     51c:	1ad32440 	lsr	w0, w2, w19
     520:	36000560 	tbz	w0, #0, 5cc <trace_printf+0x194>
/home/lagadanu/Desktop/qemu/optee_os/lib/libutils/ext/trace.c:122
     524:	8b150299 	add	x25, x20, x21
     528:	cb15035a 	sub	x26, x26, x21
print_thread_id():
/home/lagadanu/Desktop/qemu/optee_os/lib/libutils/ext/trace.c:65
     52c:	94000394 	bl	137c <trace_ext_get_thread_id>
/home/lagadanu/Desktop/qemu/optee_os/lib/libutils/ext/trace.c:67
     530:	37f803c0 	tbnz	w0, #31, 5a8 <trace_printf+0x170>
/home/lagadanu/Desktop/qemu/optee_os/lib/libutils/ext/trace.c:68
     534:	2a0003e4 	mov	w4, w0
     538:	f0000042 	adrp	x2, b000 <PRIME_TABLE+0x7f0>
     53c:	52800023 	mov	w3, #0x1                   	// #1
     540:	911c7842 	add	x2, x2, #0x71e
     544:	aa1a03e1 	mov	x1, x26
     548:	aa1903e0 	mov	x0, x25
     54c:	9400034b 	bl	1278 <snprintk>
trace_printf():
/home/lagadanu/Desktop/qemu/optee_os/lib/libutils/ext/trace.c:129
     550:	37f801a0 	tbnz	w0, #31, 584 <trace_printf+0x14c>
/home/lagadanu/Desktop/qemu/optee_os/lib/libutils/ext/trace.c:131
     554:	8b20c2b3 	add	x19, x21, w0, sxtw
/home/lagadanu/Desktop/qemu/optee_os/lib/libutils/ext/trace.c:133
     558:	b4000476 	cbz	x22, 5e4 <trace_printf+0x1ac>
/home/lagadanu/Desktop/qemu/optee_os/lib/libutils/ext/trace.c:134
     55c:	8b130280 	add	x0, x20, x19
     560:	2a1803e4 	mov	w4, w24
     564:	aa1603e3 	mov	x3, x22
     568:	f0000042 	adrp	x2, b000 <PRIME_TABLE+0x7f0>
     56c:	d2802001 	mov	x1, #0x100                 	// #256
     570:	911ca442 	add	x2, x2, #0x729
     574:	cb130021 	sub	x1, x1, x19
     578:	94000340 	bl	1278 <snprintk>
/home/lagadanu/Desktop/qemu/optee_os/lib/libutils/ext/trace.c:138
     57c:	8b20c273 	add	x19, x19, w0, sxtw
/home/lagadanu/Desktop/qemu/optee_os/lib/libutils/ext/trace.c:136
     580:	36f80320 	tbz	w0, #31, 5e4 <trace_printf+0x1ac>
/home/lagadanu/Desktop/qemu/optee_os/lib/libutils/ext/trace.c:164
     584:	a94153f3 	ldp	x19, x20, [sp,#16]
     588:	a9425bf5 	ldp	x21, x22, [sp,#32]
     58c:	a94363f7 	ldp	x23, x24, [sp,#48]
     590:	a9446bf9 	ldp	x25, x26, [sp,#64]
     594:	a9407bfd 	ldp	x29, x30, [sp]
     598:	9108c3ff 	add	sp, sp, #0x230
     59c:	d65f03c0 	ret
trace_level_to_string():
/home/lagadanu/Desktop/qemu/optee_os/lib/libutils/ext/trace.c:50
     5a0:	528009a3 	mov	w3, #0x4d                  	// #77
     5a4:	17ffffc6 	b	4bc <trace_printf+0x84>
print_thread_id():
/home/lagadanu/Desktop/qemu/optee_os/lib/libutils/ext/trace.c:70
     5a8:	f0000044 	adrp	x4, b000 <PRIME_TABLE+0x7f0>
     5ac:	52800023 	mov	w3, #0x1                   	// #1
     5b0:	911e0c84 	add	x4, x4, #0x783
     5b4:	f0000042 	adrp	x2, b000 <PRIME_TABLE+0x7f0>
     5b8:	aa1a03e1 	mov	x1, x26
     5bc:	911c9042 	add	x2, x2, #0x724
     5c0:	aa1903e0 	mov	x0, x25
     5c4:	9400032d 	bl	1278 <snprintk>
     5c8:	17ffffe2 	b	550 <trace_printf+0x118>
trace_printf():
/home/lagadanu/Desktop/qemu/optee_os/lib/libutils/ext/trace.c:142
     5cc:	f103fabf 	cmp	x21, #0xfe
     5d0:	54fffda8 	b.hi	584 <trace_printf+0x14c>
/home/lagadanu/Desktop/qemu/optee_os/lib/libutils/ext/trace.c:144
     5d4:	910006b3 	add	x19, x21, #0x1
     5d8:	52800400 	mov	w0, #0x20                  	// #32
     5dc:	38356a80 	strb	w0, [x20,x21]
/home/lagadanu/Desktop/qemu/optee_os/lib/libutils/ext/trace.c:145
     5e0:	38336a9f 	strb	wzr, [x20,x19]
/home/lagadanu/Desktop/qemu/optee_os/lib/libutils/ext/trace.c:148
     5e4:	9108c3a0 	add	x0, x29, #0x230
     5e8:	a90703a0 	stp	x0, x0, [x29,#112]
     5ec:	910843a0 	add	x0, x29, #0x210
     5f0:	f90043a0 	str	x0, [x29,#128]
     5f4:	128002e0 	mov	w0, #0xffffffe8            	// #-24
     5f8:	b9008ba0 	str	w0, [x29,#136]
     5fc:	12800fe0 	mov	w0, #0xffffff80            	// #-128
     600:	b9008fa0 	str	w0, [x29,#140]
/home/lagadanu/Desktop/qemu/optee_os/lib/libutils/ext/trace.c:149
     604:	a94707a0 	ldp	x0, x1, [x29,#112]
     608:	a90507a0 	stp	x0, x1, [x29,#80]
     60c:	a94807a0 	ldp	x0, x1, [x29,#128]
     610:	a90607a0 	stp	x0, x1, [x29,#96]
     614:	d2802001 	mov	x1, #0x100                 	// #256
     618:	cb130021 	sub	x1, x1, x19
     61c:	8b130280 	add	x0, x20, x19
     620:	910143a3 	add	x3, x29, #0x50
     624:	aa1703e2 	mov	x2, x23
     628:	940002ff 	bl	1224 <vsnprintk>
/home/lagadanu/Desktop/qemu/optee_os/lib/libutils/ext/trace.c:152
     62c:	7100001f 	cmp	w0, #0x0
     630:	8b20c261 	add	x1, x19, w0, sxtw
     634:	9a93c033 	csel	x19, x1, x19, gt
     638:	d2801fc0 	mov	x0, #0xfe                  	// #254
     63c:	f103fa7f 	cmp	x19, #0xfe
     640:	9a809273 	csel	x19, x19, x0, ls
/home/lagadanu/Desktop/qemu/optee_os/lib/libutils/ext/trace.c:157
     644:	52800140 	mov	w0, #0xa                   	// #10
     648:	38336a80 	strb	w0, [x20,x19]
/home/lagadanu/Desktop/qemu/optee_os/lib/libutils/ext/trace.c:158
     64c:	b4000093 	cbz	x19, 65c <trace_printf+0x224>
/home/lagadanu/Desktop/qemu/optee_os/lib/libutils/ext/trace.c:158 (discriminator 1)
     650:	38736a80 	ldrb	w0, [x20,x19]
     654:	7100281f 	cmp	w0, #0xa
     658:	540000c0 	b.eq	670 <trace_printf+0x238>
/home/lagadanu/Desktop/qemu/optee_os/lib/libutils/ext/trace.c:161
     65c:	91024ba0 	add	x0, x29, #0x92
     660:	3833681f 	strb	wzr, [x0,x19]
/home/lagadanu/Desktop/qemu/optee_os/lib/libutils/ext/trace.c:163
     664:	aa1403e0 	mov	x0, x20
     668:	9400033b 	bl	1354 <trace_ext_puts>
     66c:	17ffffc6 	b	584 <trace_printf+0x14c>
/home/lagadanu/Desktop/qemu/optee_os/lib/libutils/ext/trace.c:159
     670:	d1000673 	sub	x19, x19, #0x1
     674:	17fffff6 	b	64c <trace_printf+0x214>

0000000000000678 <dhex_dump>:
dhex_dump():
/home/lagadanu/Desktop/qemu/optee_os/lib/libutils/ext/trace.c:275
     678:	d65f03c0 	ret

000000000000067c <__vsnprintf>:
__vsnprintf():
/home/lagadanu/Desktop/qemu/optee_os/lib/libutils/ext/snprintk.c:137
     67c:	d103c3ff 	sub	sp, sp, #0xf0
     680:	a9037bfd 	stp	x29, x30, [sp,#48]
     684:	9100c3fd 	add	x29, sp, #0x30
     688:	a90803a1 	stp	x1, x0, [x29,#128]
     68c:	12001c80 	and	w0, w4, #0xff
     690:	b9007fa0 	str	w0, [x29,#124]
/home/lagadanu/Desktop/qemu/optee_os/lib/libutils/ext/snprintk.c:141
     694:	f94047a0 	ldr	x0, [x29,#136]
/home/lagadanu/Desktop/qemu/optee_os/lib/libutils/ext/snprintk.c:137
     698:	a90453f3 	stp	x19, x20, [sp,#64]
     69c:	a90873fb 	stp	x27, x28, [sp,#128]
kprintf():
/home/lagadanu/Desktop/qemu/optee_os/lib/libutils/ext/snprintk.c:267
     6a0:	5280001b 	mov	w27, #0x0                   	// #0
     6a4:	b9401874 	ldr	w20, [x3,#24]
     6a8:	a9407073 	ldp	x19, x28, [x3]
__vsnprintf():
/home/lagadanu/Desktop/qemu/optee_os/lib/libutils/ext/snprintk.c:137
     6ac:	a90663f7 	stp	x23, x24, [sp,#96]
     6b0:	a9076bf9 	stp	x25, x26, [sp,#112]
     6b4:	910263b8 	add	x24, x29, #0x98
     6b8:	a9055bf5 	stp	x21, x22, [sp,#80]
     6bc:	aa0203f9 	mov	x25, x2
/home/lagadanu/Desktop/qemu/optee_os/lib/libutils/ext/snprintk.c:141
     6c0:	8b01001a 	add	x26, x0, x1
     6c4:	aa0003f6 	mov	x22, x0
kprintf():
/home/lagadanu/Desktop/qemu/optee_os/lib/libutils/ext/snprintk.c:269
     6c8:	d2800017 	mov	x23, #0x0                   	// #0
/home/lagadanu/Desktop/qemu/optee_os/lib/libutils/ext/snprintk.c:275
     6cc:	39400320 	ldrb	w0, [x25]
     6d0:	7100941f 	cmp	w0, #0x25
     6d4:	7a401804 	ccmp	w0, #0x0, #0x4, ne
     6d8:	540003c1 	b.ne	750 <__vsnprintf+0xd4>
/home/lagadanu/Desktop/qemu/optee_os/lib/libutils/ext/snprintk.c:279
     6dc:	34005780 	cbz	w0, 11cc <__vsnprintf+0xb50>
/home/lagadanu/Desktop/qemu/optee_os/lib/libutils/ext/snprintk.c:287
     6e0:	12800004 	mov	w4, #0xffffffff            	// #-1
/home/lagadanu/Desktop/qemu/optee_os/lib/libutils/ext/snprintk.c:282
     6e4:	91000722 	add	x2, x25, #0x1
     6e8:	2a1403e0 	mov	w0, w20
/home/lagadanu/Desktop/qemu/optee_os/lib/libutils/ext/snprintk.c:324
     6ec:	2a0403e5 	mov	w5, w4
/home/lagadanu/Desktop/qemu/optee_os/lib/libutils/ext/snprintk.c:288
     6f0:	52800001 	mov	w1, #0x0                   	// #0
/home/lagadanu/Desktop/qemu/optee_os/lib/libutils/ext/snprintk.c:286
     6f4:	5280000a 	mov	w10, #0x0                   	// #0
/home/lagadanu/Desktop/qemu/optee_os/lib/libutils/ext/snprintk.c:284
     6f8:	52800015 	mov	w21, #0x0                   	// #0
/home/lagadanu/Desktop/qemu/optee_os/lib/libutils/ext/snprintk.c:299
     6fc:	52800406 	mov	w6, #0x20                  	// #32
/home/lagadanu/Desktop/qemu/optee_os/lib/libutils/ext/snprintk.c:290
     700:	39400048 	ldrb	w8, [x2]
     704:	91000459 	add	x25, x2, #0x1
/home/lagadanu/Desktop/qemu/optee_os/lib/libutils/ext/snprintk.c:291
     708:	71018d1f 	cmp	w8, #0x63
     70c:	54001b80 	b.eq	a7c <__vsnprintf+0x400>
     710:	5400080c 	b.gt	810 <__vsnprintf+0x194>
     714:	7100c11f 	cmp	w8, #0x30
     718:	54001960 	b.eq	a44 <__vsnprintf+0x3c8>
     71c:	540003cc 	b.gt	794 <__vsnprintf+0x118>
     720:	7100a91f 	cmp	w8, #0x2a
     724:	540012c0 	b.eq	97c <__vsnprintf+0x300>
     728:	5400024c 	b.gt	770 <__vsnprintf+0xf4>
     72c:	7100811f 	cmp	w8, #0x20
     730:	540011c0 	b.eq	968 <__vsnprintf+0x2ec>
     734:	71008d1f 	cmp	w8, #0x23
     738:	540011e0 	b.eq	974 <__vsnprintf+0x2f8>
/home/lagadanu/Desktop/qemu/optee_os/lib/libutils/ext/snprintk.c:541
     73c:	34005488 	cbz	w8, 11cc <__vsnprintf+0xb50>
/home/lagadanu/Desktop/qemu/optee_os/lib/libutils/ext/snprintk.c:545
     740:	910303a3 	add	x3, x29, #0xc0
     744:	2a0003f4 	mov	w20, w0
     748:	381d8c68 	strb	w8, [x3,#-40]!
     74c:	140000d4 	b	a9c <__vsnprintf+0x420>
/home/lagadanu/Desktop/qemu/optee_os/lib/libutils/ext/snprintk.c:276
     750:	1100077b 	add	w27, w27, #0x1
/home/lagadanu/Desktop/qemu/optee_os/lib/libutils/ext/snprintk.c:277
     754:	b40000b6 	cbz	x22, 768 <__vsnprintf+0xec>
     758:	eb16035f 	cmp	x26, x22
     75c:	54000069 	b.ls	768 <__vsnprintf+0xec>
     760:	390002c0 	strb	w0, [x22]
     764:	910006d6 	add	x22, x22, #0x1
/home/lagadanu/Desktop/qemu/optee_os/lib/libutils/ext/snprintk.c:275
     768:	91000739 	add	x25, x25, #0x1
     76c:	17ffffd8 	b	6cc <__vsnprintf+0x50>
/home/lagadanu/Desktop/qemu/optee_os/lib/libutils/ext/snprintk.c:291
     770:	7100b51f 	cmp	w8, #0x2d
     774:	54001120 	b.eq	998 <__vsnprintf+0x31c>
     778:	7100b91f 	cmp	w8, #0x2e
     77c:	54001280 	b.eq	9cc <__vsnprintf+0x350>
     780:	7100ad1f 	cmp	w8, #0x2b
     784:	54fffdc1 	b.ne	73c <__vsnprintf+0xc0>
/home/lagadanu/Desktop/qemu/optee_os/lib/libutils/ext/snprintk.c:319
     788:	2a0803e1 	mov	w1, w8
/home/lagadanu/Desktop/qemu/optee_os/lib/libutils/ext/snprintk.c:322
     78c:	aa1903e2 	mov	x2, x25
     790:	17ffffdc 	b	700 <__vsnprintf+0x84>
/home/lagadanu/Desktop/qemu/optee_os/lib/libutils/ext/snprintk.c:291
     794:	7101111f 	cmp	w8, #0x44
     798:	54001920 	b.eq	abc <__vsnprintf+0x440>
     79c:	5400018c 	b.gt	7cc <__vsnprintf+0x150>
     7a0:	7100e51f 	cmp	w8, #0x39
     7a4:	54fffccc 	b.gt	73c <__vsnprintf+0xc0>
     7a8:	5280000a 	mov	w10, #0x0                   	// #0
/home/lagadanu/Desktop/qemu/optee_os/lib/libutils/ext/snprintk.c:346
     7ac:	5100c108 	sub	w8, w8, #0x30
     7b0:	52800142 	mov	w2, #0xa                   	// #10
     7b4:	1b02214a 	madd	w10, w10, w2, w8
/home/lagadanu/Desktop/qemu/optee_os/lib/libutils/ext/snprintk.c:347
     7b8:	38401728 	ldrb	w8, [x25],#1
/home/lagadanu/Desktop/qemu/optee_os/lib/libutils/ext/snprintk.c:348
     7bc:	5100c102 	sub	w2, w8, #0x30
     7c0:	7100245f 	cmp	w2, #0x9
     7c4:	54ffff49 	b.ls	7ac <__vsnprintf+0x130>
     7c8:	17ffffd0 	b	708 <__vsnprintf+0x8c>
/home/lagadanu/Desktop/qemu/optee_os/lib/libutils/ext/snprintk.c:291
     7cc:	7101551f 	cmp	w8, #0x55
     7d0:	54003c40 	b.eq	f58 <__vsnprintf+0x8dc>
     7d4:	7101611f 	cmp	w8, #0x58
     7d8:	54000ac0 	b.eq	930 <__vsnprintf+0x2b4>
     7dc:	71013d1f 	cmp	w8, #0x4f
     7e0:	54fffae1 	b.ne	73c <__vsnprintf+0xc0>
/home/lagadanu/Desktop/qemu/optee_os/lib/libutils/ext/snprintk.c:408
     7e4:	321c02b5 	orr	w21, w21, #0x10
/home/lagadanu/Desktop/qemu/optee_os/lib/libutils/ext/snprintk.c:411
     7e8:	36382695 	tbz	w21, #7, cb8 <__vsnprintf+0x63c>
     7ec:	37f827e0 	tbnz	w0, #31, ce8 <__vsnprintf+0x66c>
     7f0:	91003e61 	add	x1, x19, #0xf
     7f4:	2a0003f4 	mov	w20, w0
     7f8:	aa1303e0 	mov	x0, x19
     7fc:	927df033 	and	x19, x1, #0xfffffffffffffff8
     800:	f9400005 	ldr	x5, [x0]
/home/lagadanu/Desktop/qemu/optee_os/lib/libutils/ext/snprintk.c:412
     804:	52800000 	mov	w0, #0x0                   	// #0
/home/lagadanu/Desktop/qemu/optee_os/lib/libutils/ext/snprintk.c:482
     808:	52800001 	mov	w1, #0x0                   	// #0
     80c:	140000b8 	b	aec <__vsnprintf+0x470>
/home/lagadanu/Desktop/qemu/optee_os/lib/libutils/ext/snprintk.c:291
     810:	7101bd1f 	cmp	w8, #0x6f
     814:	54fffea0 	b.eq	7e8 <__vsnprintf+0x16c>
     818:	5400024c 	b.gt	860 <__vsnprintf+0x1e4>
     81c:	7101a51f 	cmp	w8, #0x69
     820:	54001500 	b.eq	ac0 <__vsnprintf+0x444>
     824:	540000ec 	b.gt	840 <__vsnprintf+0x1c4>
     828:	7101911f 	cmp	w8, #0x64
     82c:	540014a0 	b.eq	ac0 <__vsnprintf+0x444>
     830:	7101a11f 	cmp	w8, #0x68
     834:	54fff841 	b.ne	73c <__vsnprintf+0xc0>
/home/lagadanu/Desktop/qemu/optee_os/lib/libutils/ext/snprintk.c:352
     838:	321a02b5 	orr	w21, w21, #0x40
     83c:	17ffffd4 	b	78c <__vsnprintf+0x110>
/home/lagadanu/Desktop/qemu/optee_os/lib/libutils/ext/snprintk.c:291
     840:	7101b11f 	cmp	w8, #0x6c
     844:	54001040 	b.eq	a4c <__vsnprintf+0x3d0>
     848:	7101b91f 	cmp	w8, #0x6e
     84c:	54001d40 	b.eq	bf4 <__vsnprintf+0x578>
     850:	7101a91f 	cmp	w8, #0x6a
     854:	54fff741 	b.ne	73c <__vsnprintf+0xc0>
/home/lagadanu/Desktop/qemu/optee_os/lib/libutils/ext/snprintk.c:355
     858:	321902b5 	orr	w21, w21, #0x80
     85c:	17ffffcc 	b	78c <__vsnprintf+0x110>
/home/lagadanu/Desktop/qemu/optee_os/lib/libutils/ext/snprintk.c:291
     860:	7101d11f 	cmp	w8, #0x74
     864:	54001040 	b.eq	a6c <__vsnprintf+0x3f0>
     868:	5400046c 	b.gt	8f4 <__vsnprintf+0x278>
     86c:	7101c51f 	cmp	w8, #0x71
     870:	54000f60 	b.eq	a5c <__vsnprintf+0x3e0>
     874:	540026cb 	b.lt	d4c <__vsnprintf+0x6d0>
     878:	7101cd1f 	cmp	w8, #0x73
     87c:	54fff601 	b.ne	73c <__vsnprintf+0xc0>
/home/lagadanu/Desktop/qemu/optee_os/lib/libutils/ext/snprintk.c:442
     880:	37f83480 	tbnz	w0, #31, f10 <__vsnprintf+0x894>
     884:	91003e61 	add	x1, x19, #0xf
     888:	2a0003f4 	mov	w20, w0
     88c:	aa1303e0 	mov	x0, x19
     890:	927df033 	and	x19, x1, #0xfffffffffffffff8
     894:	f9400003 	ldr	x3, [x0]
/home/lagadanu/Desktop/qemu/optee_os/lib/libutils/ext/snprintk.c:444
     898:	f0000040 	adrp	x0, b000 <PRIME_TABLE+0x7f0>
     89c:	911cc000 	add	x0, x0, #0x730
     8a0:	f100007f 	cmp	x3, #0x0
     8a4:	9a830003 	csel	x3, x0, x3, eq
/home/lagadanu/Desktop/qemu/optee_os/lib/libutils/ext/snprintk.c:445
     8a8:	3100049f 	cmn	w4, #0x1
     8ac:	540033e0 	b.eq	f28 <__vsnprintf+0x8ac>
/home/lagadanu/Desktop/qemu/optee_os/lib/libutils/ext/snprintk.c:451
     8b0:	93407c82 	sxtw	x2, w4
     8b4:	aa0303e0 	mov	x0, x3
     8b8:	290d2ba8 	stp	w8, w10, [x29,#104]
     8bc:	52800001 	mov	w1, #0x0                   	// #0
     8c0:	f9003ba3 	str	x3, [x29,#112]
     8c4:	b9007ba4 	str	w4, [x29,#120]
     8c8:	94000289 	bl	12ec <memchr>
/home/lagadanu/Desktop/qemu/optee_os/lib/libutils/ext/snprintk.c:453
     8cc:	294d2ba8 	ldp	w8, w10, [x29,#104]
     8d0:	b9407ba4 	ldr	w4, [x29,#120]
     8d4:	f9403ba3 	ldr	x3, [x29,#112]
     8d8:	b4000080 	cbz	x0, 8e8 <__vsnprintf+0x26c>
/home/lagadanu/Desktop/qemu/optee_os/lib/libutils/ext/snprintk.c:454
     8dc:	cb030000 	sub	x0, x0, x3
     8e0:	6b00009f 	cmp	w4, w0
     8e4:	1a80d084 	csel	w4, w4, w0, le
/home/lagadanu/Desktop/qemu/optee_os/lib/libutils/ext/snprintk.c:285
     8e8:	52800000 	mov	w0, #0x0                   	// #0
/home/lagadanu/Desktop/qemu/optee_os/lib/libutils/ext/snprintk.c:461
     8ec:	52800001 	mov	w1, #0x0                   	// #0
     8f0:	14000144 	b	e00 <__vsnprintf+0x784>
/home/lagadanu/Desktop/qemu/optee_os/lib/libutils/ext/snprintk.c:291
     8f4:	7101e11f 	cmp	w8, #0x78
     8f8:	540037e0 	b.eq	ff4 <__vsnprintf+0x978>
     8fc:	7101e91f 	cmp	w8, #0x7a
     900:	54000ba0 	b.eq	a74 <__vsnprintf+0x3f8>
     904:	7101d51f 	cmp	w8, #0x75
     908:	54fff1a1 	b.ne	73c <__vsnprintf+0xc0>
/home/lagadanu/Desktop/qemu/optee_os/lib/libutils/ext/snprintk.c:467
     90c:	363832b5 	tbz	w21, #7, f60 <__vsnprintf+0x8e4>
     910:	37f83400 	tbnz	w0, #31, f90 <__vsnprintf+0x914>
     914:	91003e61 	add	x1, x19, #0xf
     918:	2a0003f4 	mov	w20, w0
     91c:	aa1303e0 	mov	x0, x19
     920:	927df033 	and	x19, x1, #0xfffffffffffffff8
     924:	f9400005 	ldr	x5, [x0]
/home/lagadanu/Desktop/qemu/optee_os/lib/libutils/ext/snprintk.c:468
     928:	52800020 	mov	w0, #0x1                   	// #1
     92c:	17ffffb7 	b	808 <__vsnprintf+0x18c>
/home/lagadanu/Desktop/qemu/optee_os/lib/libutils/ext/snprintk.c:471
     930:	d0000057 	adrp	x23, a000 <memalign+0x2ac>
     934:	911e42f7 	add	x23, x23, #0x790
/home/lagadanu/Desktop/qemu/optee_os/lib/libutils/ext/snprintk.c:475
     938:	36383675 	tbz	w21, #7, 1004 <__vsnprintf+0x988>
     93c:	37f837c0 	tbnz	w0, #31, 1034 <__vsnprintf+0x9b8>
     940:	91003e61 	add	x1, x19, #0xf
     944:	2a0003f4 	mov	w20, w0
     948:	aa1303e0 	mov	x0, x19
     94c:	927df033 	and	x19, x1, #0xfffffffffffffff8
     950:	f9400005 	ldr	x5, [x0]
/home/lagadanu/Desktop/qemu/optee_os/lib/libutils/ext/snprintk.c:478
     954:	36000075 	tbz	w21, #0, 960 <__vsnprintf+0x2e4>
     958:	b4000045 	cbz	x5, 960 <__vsnprintf+0x2e4>
/home/lagadanu/Desktop/qemu/optee_os/lib/libutils/ext/snprintk.c:479
     95c:	321f02b5 	orr	w21, w21, #0x2
/home/lagadanu/Desktop/qemu/optee_os/lib/libutils/ext/snprintk.c:476
     960:	52800040 	mov	w0, #0x2                   	// #2
     964:	17ffffa9 	b	808 <__vsnprintf+0x18c>
/home/lagadanu/Desktop/qemu/optee_os/lib/libutils/ext/snprintk.c:299
     968:	7100003f 	cmp	w1, #0x0
     96c:	1a861021 	csel	w1, w1, w6, ne
     970:	17ffff87 	b	78c <__vsnprintf+0x110>
/home/lagadanu/Desktop/qemu/optee_os/lib/libutils/ext/snprintk.c:302
     974:	320002b5 	orr	w21, w21, #0x1
     978:	17ffff85 	b	78c <__vsnprintf+0x110>
/home/lagadanu/Desktop/qemu/optee_os/lib/libutils/ext/snprintk.c:311
     97c:	37f80120 	tbnz	w0, #31, 9a0 <__vsnprintf+0x324>
     980:	91002e63 	add	x3, x19, #0xb
     984:	aa1303e2 	mov	x2, x19
     988:	927df073 	and	x19, x3, #0xfffffffffffffff8
     98c:	b940004a 	ldr	w10, [x2]
     990:	36ffefea 	tbz	w10, #31, 78c <__vsnprintf+0x110>
/home/lagadanu/Desktop/qemu/optee_os/lib/libutils/ext/snprintk.c:313
     994:	4b0a03ea 	neg	w10, w10
/home/lagadanu/Desktop/qemu/optee_os/lib/libutils/ext/snprintk.c:316
     998:	321e02b5 	orr	w21, w21, #0x4
     99c:	17ffff7c 	b	78c <__vsnprintf+0x110>
/home/lagadanu/Desktop/qemu/optee_os/lib/libutils/ext/snprintk.c:311
     9a0:	11002003 	add	w3, w0, #0x8
     9a4:	7100007f 	cmp	w3, #0x0
     9a8:	540000cd 	b.le	9c0 <__vsnprintf+0x344>
     9ac:	91002e67 	add	x7, x19, #0xb
     9b0:	aa1303e2 	mov	x2, x19
     9b4:	2a0303e0 	mov	w0, w3
     9b8:	927df0f3 	and	x19, x7, #0xfffffffffffffff8
     9bc:	17fffff4 	b	98c <__vsnprintf+0x310>
     9c0:	8b20c382 	add	x2, x28, w0, sxtw
     9c4:	2a0303e0 	mov	w0, w3
     9c8:	17fffff1 	b	98c <__vsnprintf+0x310>
/home/lagadanu/Desktop/qemu/optee_os/lib/libutils/ext/snprintk.c:322
     9cc:	39400328 	ldrb	w8, [x25]
     9d0:	91000723 	add	x3, x25, #0x1
     9d4:	7100a91f 	cmp	w8, #0x2a
     9d8:	54000140 	b.eq	a00 <__vsnprintf+0x384>
     9dc:	aa0303f9 	mov	x25, x3
     9e0:	52800004 	mov	w4, #0x0                   	// #0
/home/lagadanu/Desktop/qemu/optee_os/lib/libutils/ext/snprintk.c:328
     9e4:	5100c102 	sub	w2, w8, #0x30
     9e8:	7100245f 	cmp	w2, #0x9
     9ec:	54ffe8e8 	b.hi	708 <__vsnprintf+0x8c>
/home/lagadanu/Desktop/qemu/optee_os/lib/libutils/ext/snprintk.c:329
     9f0:	52800143 	mov	w3, #0xa                   	// #10
/home/lagadanu/Desktop/qemu/optee_os/lib/libutils/ext/snprintk.c:330
     9f4:	38401728 	ldrb	w8, [x25],#1
/home/lagadanu/Desktop/qemu/optee_os/lib/libutils/ext/snprintk.c:329
     9f8:	1b030884 	madd	w4, w4, w3, w2
     9fc:	17fffffa 	b	9e4 <__vsnprintf+0x368>
/home/lagadanu/Desktop/qemu/optee_os/lib/libutils/ext/snprintk.c:323
     a00:	37f80160 	tbnz	w0, #31, a2c <__vsnprintf+0x3b0>
     a04:	91002e64 	add	x4, x19, #0xb
     a08:	2a0003e2 	mov	w2, w0
     a0c:	aa1303e0 	mov	x0, x19
     a10:	927df093 	and	x19, x4, #0xfffffffffffffff8
/home/lagadanu/Desktop/qemu/optee_os/lib/libutils/ext/snprintk.c:324
     a14:	b9400004 	ldr	w4, [x0]
/home/lagadanu/Desktop/qemu/optee_os/lib/libutils/ext/snprintk.c:322
     a18:	aa0303f9 	mov	x25, x3
/home/lagadanu/Desktop/qemu/optee_os/lib/libutils/ext/snprintk.c:324
     a1c:	2a0203e0 	mov	w0, w2
     a20:	7100009f 	cmp	w4, #0x0
     a24:	1a85a084 	csel	w4, w4, w5, ge
     a28:	17ffff59 	b	78c <__vsnprintf+0x110>
/home/lagadanu/Desktop/qemu/optee_os/lib/libutils/ext/snprintk.c:323
     a2c:	11002002 	add	w2, w0, #0x8
     a30:	8b20c380 	add	x0, x28, w0, sxtw
     a34:	7100005f 	cmp	w2, #0x0
     a38:	54fffeed 	b.le	a14 <__vsnprintf+0x398>
     a3c:	91002e64 	add	x4, x19, #0xb
     a40:	17fffff3 	b	a0c <__vsnprintf+0x390>
/home/lagadanu/Desktop/qemu/optee_os/lib/libutils/ext/snprintk.c:340
     a44:	321602b5 	orr	w21, w21, #0x400
     a48:	17ffff51 	b	78c <__vsnprintf+0x110>
/home/lagadanu/Desktop/qemu/optee_os/lib/libutils/ext/snprintk.c:358
     a4c:	39400322 	ldrb	w2, [x25]
     a50:	7101b05f 	cmp	w2, #0x6c
     a54:	54000081 	b.ne	a64 <__vsnprintf+0x3e8>
/home/lagadanu/Desktop/qemu/optee_os/lib/libutils/ext/snprintk.c:359
     a58:	91000739 	add	x25, x25, #0x1
/home/lagadanu/Desktop/qemu/optee_os/lib/libutils/ext/snprintk.c:366
     a5c:	321b02b5 	orr	w21, w21, #0x20
     a60:	17ffff4b 	b	78c <__vsnprintf+0x110>
/home/lagadanu/Desktop/qemu/optee_os/lib/libutils/ext/snprintk.c:362
     a64:	321c02b5 	orr	w21, w21, #0x10
     a68:	17ffff49 	b	78c <__vsnprintf+0x110>
/home/lagadanu/Desktop/qemu/optee_os/lib/libutils/ext/snprintk.c:369
     a6c:	321802b5 	orr	w21, w21, #0x100
     a70:	17ffff47 	b	78c <__vsnprintf+0x110>
/home/lagadanu/Desktop/qemu/optee_os/lib/libutils/ext/snprintk.c:372
     a74:	321702b5 	orr	w21, w21, #0x200
     a78:	17ffff45 	b	78c <__vsnprintf+0x110>
/home/lagadanu/Desktop/qemu/optee_os/lib/libutils/ext/snprintk.c:375
     a7c:	37f80140 	tbnz	w0, #31, aa4 <__vsnprintf+0x428>
     a80:	91002e61 	add	x1, x19, #0xb
     a84:	2a0003f4 	mov	w20, w0
     a88:	aa1303e0 	mov	x0, x19
     a8c:	927df033 	and	x19, x1, #0xfffffffffffffff8
     a90:	910303a3 	add	x3, x29, #0xc0
     a94:	b9400000 	ldr	w0, [x0]
     a98:	381d8c60 	strb	w0, [x3,#-40]!
/home/lagadanu/Desktop/qemu/optee_os/lib/libutils/ext/snprintk.c:546
     a9c:	52800024 	mov	w4, #0x1                   	// #1
     aa0:	17ffff92 	b	8e8 <__vsnprintf+0x26c>
/home/lagadanu/Desktop/qemu/optee_os/lib/libutils/ext/snprintk.c:375
     aa4:	11002014 	add	w20, w0, #0x8
     aa8:	8b20c380 	add	x0, x28, w0, sxtw
     aac:	7100029f 	cmp	w20, #0x0
     ab0:	54ffff0d 	b.le	a90 <__vsnprintf+0x414>
     ab4:	91002e61 	add	x1, x19, #0xb
     ab8:	17fffff4 	b	a88 <__vsnprintf+0x40c>
/home/lagadanu/Desktop/qemu/optee_os/lib/libutils/ext/snprintk.c:380
     abc:	321c02b5 	orr	w21, w21, #0x10
/home/lagadanu/Desktop/qemu/optee_os/lib/libutils/ext/snprintk.c:384
     ac0:	36380515 	tbz	w21, #7, b60 <__vsnprintf+0x4e4>
     ac4:	37f80660 	tbnz	w0, #31, b90 <__vsnprintf+0x514>
     ac8:	91003e62 	add	x2, x19, #0xf
     acc:	2a0003f4 	mov	w20, w0
     ad0:	aa1303e0 	mov	x0, x19
     ad4:	927df053 	and	x19, x2, #0xfffffffffffffff8
     ad8:	f9400005 	ldr	x5, [x0]
/home/lagadanu/Desktop/qemu/optee_os/lib/libutils/ext/snprintk.c:389
     adc:	52800020 	mov	w0, #0x1                   	// #1
/home/lagadanu/Desktop/qemu/optee_os/lib/libutils/ext/snprintk.c:385
     ae0:	b6f80065 	tbz	x5, #63, aec <__vsnprintf+0x470>
/home/lagadanu/Desktop/qemu/optee_os/lib/libutils/ext/snprintk.c:386
     ae4:	cb0503e5 	neg	x5, x5
/home/lagadanu/Desktop/qemu/optee_os/lib/libutils/ext/snprintk.c:387
     ae8:	528005a1 	mov	w1, #0x2d                  	// #45
/home/lagadanu/Desktop/qemu/optee_os/lib/libutils/ext/snprintk.c:489
     aec:	3100049f 	cmn	w4, #0x1
     af0:	12157aa2 	and	w2, w21, #0xfffffbff
     af4:	1a951055 	csel	w21, w2, w21, ne
/home/lagadanu/Desktop/qemu/optee_os/lib/libutils/ext/snprintk.c:497
     af8:	f10000bf 	cmp	x5, #0x0
     afc:	7a400880 	ccmp	w4, #0x0, #0x0, eq
/home/lagadanu/Desktop/qemu/optee_os/lib/libutils/ext/snprintk.c:496
     b00:	91009703 	add	x3, x24, #0x25
/home/lagadanu/Desktop/qemu/optee_os/lib/libutils/ext/snprintk.c:497
     b04:	54000260 	b.eq	b50 <__vsnprintf+0x4d4>
/home/lagadanu/Desktop/qemu/optee_os/lib/libutils/ext/snprintk.c:503
     b08:	7100041f 	cmp	w0, #0x1
     b0c:	54002c60 	b.eq	1098 <__vsnprintf+0xa1c>
     b10:	7100081f 	cmp	w0, #0x2
     b14:	54002e40 	b.eq	10dc <__vsnprintf+0xa60>
     b18:	91009700 	add	x0, x24, #0x25
/home/lagadanu/Desktop/qemu/optee_os/lib/libutils/ext/snprintk.c:506
     b1c:	120008a2 	and	w2, w5, #0x7
     b20:	d1000403 	sub	x3, x0, #0x1
     b24:	1100c042 	add	w2, w2, #0x30
     b28:	381ff002 	sturb	w2, [x0,#-1]
/home/lagadanu/Desktop/qemu/optee_os/lib/libutils/ext/snprintk.c:507
     b2c:	d343fca5 	lsr	x5, x5, #3
/home/lagadanu/Desktop/qemu/optee_os/lib/libutils/ext/snprintk.c:508
     b30:	b5002c45 	cbnz	x5, 10b8 <__vsnprintf+0xa3c>
/home/lagadanu/Desktop/qemu/optee_os/lib/libutils/ext/snprintk.c:510
     b34:	7100c05f 	cmp	w2, #0x30
     b38:	1a9f07e2 	cset	w2, ne
     b3c:	6a0202bf 	tst	w21, w2
     b40:	54000080 	b.eq	b50 <__vsnprintf+0x4d4>
/home/lagadanu/Desktop/qemu/optee_os/lib/libutils/ext/snprintk.c:511
     b44:	52800602 	mov	w2, #0x30                  	// #48
     b48:	381ff062 	sturb	w2, [x3,#-1]
     b4c:	d1000803 	sub	x3, x0, #0x2
/home/lagadanu/Desktop/qemu/optee_os/lib/libutils/ext/snprintk.c:537
     b50:	91009702 	add	x2, x24, #0x25
     b54:	2a0403e0 	mov	w0, w4
     b58:	4b030044 	sub	w4, w2, w3
     b5c:	140000a9 	b	e00 <__vsnprintf+0x784>
/home/lagadanu/Desktop/qemu/optee_os/lib/libutils/ext/snprintk.c:384
     b60:	3747fb35 	tbnz	w21, #8, ac4 <__vsnprintf+0x448>
     b64:	374ffb15 	tbnz	w21, #9, ac4 <__vsnprintf+0x448>
     b68:	372ffaf5 	tbnz	w21, #5, ac4 <__vsnprintf+0x448>
     b6c:	3727fad5 	tbnz	w21, #4, ac4 <__vsnprintf+0x448>
     b70:	36300295 	tbz	w21, #6, bc0 <__vsnprintf+0x544>
     b74:	37f801a0 	tbnz	w0, #31, ba8 <__vsnprintf+0x52c>
     b78:	91002e62 	add	x2, x19, #0xb
     b7c:	2a0003f4 	mov	w20, w0
     b80:	aa1303e0 	mov	x0, x19
     b84:	927df053 	and	x19, x2, #0xfffffffffffffff8
     b88:	79800005 	ldrsh	x5, [x0]
     b8c:	17ffffd4 	b	adc <__vsnprintf+0x460>
     b90:	11002014 	add	w20, w0, #0x8
     b94:	8b20c380 	add	x0, x28, w0, sxtw
     b98:	7100029f 	cmp	w20, #0x0
     b9c:	54fff9ed 	b.le	ad8 <__vsnprintf+0x45c>
     ba0:	91003e62 	add	x2, x19, #0xf
     ba4:	17ffffcb 	b	ad0 <__vsnprintf+0x454>
     ba8:	11002014 	add	w20, w0, #0x8
     bac:	8b20c380 	add	x0, x28, w0, sxtw
     bb0:	7100029f 	cmp	w20, #0x0
     bb4:	54fffead 	b.le	b88 <__vsnprintf+0x50c>
     bb8:	91002e62 	add	x2, x19, #0xb
     bbc:	17fffff1 	b	b80 <__vsnprintf+0x504>
     bc0:	37f800e0 	tbnz	w0, #31, bdc <__vsnprintf+0x560>
     bc4:	91002e62 	add	x2, x19, #0xb
     bc8:	2a0003f4 	mov	w20, w0
     bcc:	aa1303e0 	mov	x0, x19
     bd0:	927df053 	and	x19, x2, #0xfffffffffffffff8
     bd4:	b9800005 	ldrsw	x5, [x0]
     bd8:	17ffffc1 	b	adc <__vsnprintf+0x460>
     bdc:	11002014 	add	w20, w0, #0x8
     be0:	8b20c380 	add	x0, x28, w0, sxtw
     be4:	7100029f 	cmp	w20, #0x0
     be8:	54ffff6d 	b.le	bd4 <__vsnprintf+0x558>
     bec:	91002e62 	add	x2, x19, #0xb
     bf0:	17fffff7 	b	bcc <__vsnprintf+0x550>
/home/lagadanu/Desktop/qemu/optee_os/lib/libutils/ext/snprintk.c:392
     bf4:	36380155 	tbz	w21, #7, c1c <__vsnprintf+0x5a0>
/home/lagadanu/Desktop/qemu/optee_os/lib/libutils/ext/snprintk.c:401
     bf8:	37f802c0 	tbnz	w0, #31, c50 <__vsnprintf+0x5d4>
     bfc:	91003e61 	add	x1, x19, #0xf
     c00:	2a0003f4 	mov	w20, w0
     c04:	aa1303e0 	mov	x0, x19
     c08:	927df033 	and	x19, x1, #0xfffffffffffffff8
     c0c:	f9400000 	ldr	x0, [x0]
     c10:	93407f61 	sxtw	x1, w27
     c14:	f9000001 	str	x1, [x0]
     c18:	17fffead 	b	6cc <__vsnprintf+0x50>
/home/lagadanu/Desktop/qemu/optee_os/lib/libutils/ext/snprintk.c:394
     c1c:	3747fef5 	tbnz	w21, #8, bf8 <__vsnprintf+0x57c>
/home/lagadanu/Desktop/qemu/optee_os/lib/libutils/ext/snprintk.c:396
     c20:	374ffed5 	tbnz	w21, #9, bf8 <__vsnprintf+0x57c>
/home/lagadanu/Desktop/qemu/optee_os/lib/libutils/ext/snprintk.c:398
     c24:	372ffeb5 	tbnz	w21, #5, bf8 <__vsnprintf+0x57c>
/home/lagadanu/Desktop/qemu/optee_os/lib/libutils/ext/snprintk.c:400
     c28:	3727fe95 	tbnz	w21, #4, bf8 <__vsnprintf+0x57c>
/home/lagadanu/Desktop/qemu/optee_os/lib/libutils/ext/snprintk.c:402
     c2c:	363002b5 	tbz	w21, #6, c80 <__vsnprintf+0x604>
/home/lagadanu/Desktop/qemu/optee_os/lib/libutils/ext/snprintk.c:403
     c30:	37f801c0 	tbnz	w0, #31, c68 <__vsnprintf+0x5ec>
     c34:	91003e61 	add	x1, x19, #0xf
     c38:	2a0003f4 	mov	w20, w0
     c3c:	aa1303e0 	mov	x0, x19
     c40:	927df033 	and	x19, x1, #0xfffffffffffffff8
     c44:	f9400000 	ldr	x0, [x0]
     c48:	7900001b 	strh	w27, [x0]
     c4c:	17fffea0 	b	6cc <__vsnprintf+0x50>
/home/lagadanu/Desktop/qemu/optee_os/lib/libutils/ext/snprintk.c:401
     c50:	11002014 	add	w20, w0, #0x8
     c54:	8b20c380 	add	x0, x28, w0, sxtw
     c58:	7100029f 	cmp	w20, #0x0
     c5c:	54fffd8d 	b.le	c0c <__vsnprintf+0x590>
     c60:	91003e61 	add	x1, x19, #0xf
     c64:	17ffffe8 	b	c04 <__vsnprintf+0x588>
/home/lagadanu/Desktop/qemu/optee_os/lib/libutils/ext/snprintk.c:403
     c68:	11002014 	add	w20, w0, #0x8
     c6c:	8b20c380 	add	x0, x28, w0, sxtw
     c70:	7100029f 	cmp	w20, #0x0
     c74:	54fffe8d 	b.le	c44 <__vsnprintf+0x5c8>
     c78:	91003e61 	add	x1, x19, #0xf
     c7c:	17fffff0 	b	c3c <__vsnprintf+0x5c0>
/home/lagadanu/Desktop/qemu/optee_os/lib/libutils/ext/snprintk.c:405
     c80:	37f80100 	tbnz	w0, #31, ca0 <__vsnprintf+0x624>
     c84:	91003e61 	add	x1, x19, #0xf
     c88:	2a0003f4 	mov	w20, w0
     c8c:	aa1303e0 	mov	x0, x19
     c90:	927df033 	and	x19, x1, #0xfffffffffffffff8
     c94:	f9400000 	ldr	x0, [x0]
     c98:	b900001b 	str	w27, [x0]
     c9c:	17fffe8c 	b	6cc <__vsnprintf+0x50>
     ca0:	11002014 	add	w20, w0, #0x8
     ca4:	8b20c380 	add	x0, x28, w0, sxtw
     ca8:	7100029f 	cmp	w20, #0x0
     cac:	54ffff4d 	b.le	c94 <__vsnprintf+0x618>
     cb0:	91003e61 	add	x1, x19, #0xf
     cb4:	17fffff6 	b	c8c <__vsnprintf+0x610>
/home/lagadanu/Desktop/qemu/optee_os/lib/libutils/ext/snprintk.c:411
     cb8:	3747d9b5 	tbnz	w21, #8, 7ec <__vsnprintf+0x170>
     cbc:	374fd995 	tbnz	w21, #9, 7ec <__vsnprintf+0x170>
     cc0:	372fd975 	tbnz	w21, #5, 7ec <__vsnprintf+0x170>
     cc4:	3727d955 	tbnz	w21, #4, 7ec <__vsnprintf+0x170>
     cc8:	36300295 	tbz	w21, #6, d18 <__vsnprintf+0x69c>
     ccc:	37f801a0 	tbnz	w0, #31, d00 <__vsnprintf+0x684>
     cd0:	91002e61 	add	x1, x19, #0xb
     cd4:	2a0003f4 	mov	w20, w0
     cd8:	aa1303e0 	mov	x0, x19
     cdc:	927df033 	and	x19, x1, #0xfffffffffffffff8
     ce0:	79400005 	ldrh	w5, [x0]
     ce4:	17fffec8 	b	804 <__vsnprintf+0x188>
     ce8:	11002014 	add	w20, w0, #0x8
     cec:	8b20c380 	add	x0, x28, w0, sxtw
     cf0:	7100029f 	cmp	w20, #0x0
     cf4:	54ffd86d 	b.le	800 <__vsnprintf+0x184>
     cf8:	91003e61 	add	x1, x19, #0xf
     cfc:	17fffebf 	b	7f8 <__vsnprintf+0x17c>
     d00:	11002014 	add	w20, w0, #0x8
     d04:	8b20c380 	add	x0, x28, w0, sxtw
     d08:	7100029f 	cmp	w20, #0x0
     d0c:	54fffead 	b.le	ce0 <__vsnprintf+0x664>
     d10:	91002e61 	add	x1, x19, #0xb
     d14:	17fffff1 	b	cd8 <__vsnprintf+0x65c>
     d18:	37f800e0 	tbnz	w0, #31, d34 <__vsnprintf+0x6b8>
     d1c:	91002e61 	add	x1, x19, #0xb
     d20:	2a0003f4 	mov	w20, w0
     d24:	aa1303e0 	mov	x0, x19
     d28:	927df033 	and	x19, x1, #0xfffffffffffffff8
     d2c:	b9400005 	ldr	w5, [x0]
     d30:	17fffeb5 	b	804 <__vsnprintf+0x188>
     d34:	11002014 	add	w20, w0, #0x8
     d38:	8b20c380 	add	x0, x28, w0, sxtw
     d3c:	7100029f 	cmp	w20, #0x0
     d40:	54ffff6d 	b.le	d2c <__vsnprintf+0x6b0>
     d44:	91002e61 	add	x1, x19, #0xb
     d48:	17fffff7 	b	d24 <__vsnprintf+0x6a8>
/home/lagadanu/Desktop/qemu/optee_os/lib/libutils/ext/snprintk.c:415
     d4c:	b9407fa1 	ldr	w1, [x29,#124]
     d50:	34000b81 	cbz	w1, ec0 <__vsnprintf+0x844>
     d54:	39400321 	ldrb	w1, [x25]
     d58:	7101543f 	cmp	w1, #0x55
     d5c:	54000b21 	b.ne	ec0 <__vsnprintf+0x844>
     d60:	39400721 	ldrb	w1, [x25,#1]
     d64:	7101b03f 	cmp	w1, #0x6c
     d68:	54000ac1 	b.ne	ec0 <__vsnprintf+0x844>
/home/lagadanu/Desktop/qemu/optee_os/lib/libutils/ext/snprintk.c:420
     d6c:	91000b39 	add	x25, x25, #0x2
/home/lagadanu/Desktop/qemu/optee_os/lib/libutils/ext/snprintk.c:421
     d70:	37f809c0 	tbnz	w0, #31, ea8 <__vsnprintf+0x82c>
     d74:	91003e61 	add	x1, x19, #0xf
     d78:	2a0003f4 	mov	w20, w0
     d7c:	aa1303e0 	mov	x0, x19
     d80:	927df033 	and	x19, x1, #0xfffffffffffffff8
     d84:	f9400000 	ldr	x0, [x0]
uuid2str():
/home/lagadanu/Desktop/qemu/optee_os/lib/libutils/ext/snprintk.c:223
     d88:	f0000042 	adrp	x2, b000 <PRIME_TABLE+0x7f0>
     d8c:	b90073aa 	str	w10, [x29,#112]
     d90:	911cdc42 	add	x2, x2, #0x737
     d94:	b9007ba8 	str	w8, [x29,#120]
     d98:	39403c01 	ldrb	w1, [x0,#15]
     d9c:	79400804 	ldrh	w4, [x0,#4]
     da0:	39402407 	ldrb	w7, [x0,#9]
     da4:	39402006 	ldrb	w6, [x0,#8]
     da8:	79400c05 	ldrh	w5, [x0,#6]
     dac:	b9002be1 	str	w1, [sp,#40]
     db0:	39403801 	ldrb	w1, [x0,#14]
     db4:	b90023e1 	str	w1, [sp,#32]
     db8:	39403401 	ldrb	w1, [x0,#13]
     dbc:	b9001be1 	str	w1, [sp,#24]
     dc0:	39403001 	ldrb	w1, [x0,#12]
     dc4:	b90013e1 	str	w1, [sp,#16]
     dc8:	39402c01 	ldrb	w1, [x0,#11]
     dcc:	b9000be1 	str	w1, [sp,#8]
     dd0:	39402801 	ldrb	w1, [x0,#10]
     dd4:	b90003e1 	str	w1, [sp]
     dd8:	d28004a1 	mov	x1, #0x25                  	// #37
     ddc:	b9400003 	ldr	w3, [x0]
     de0:	aa1803e0 	mov	x0, x24
     de4:	94000125 	bl	1278 <snprintk>
     de8:	2a0003e4 	mov	w4, w0
     dec:	b94073aa 	ldr	w10, [x29,#112]
kprintf():
/home/lagadanu/Desktop/qemu/optee_os/lib/libutils/ext/snprintk.c:423
     df0:	aa1803e3 	mov	x3, x24
     df4:	b9407ba8 	ldr	w8, [x29,#120]
/home/lagadanu/Desktop/qemu/optee_os/lib/libutils/ext/snprintk.c:285
     df8:	52800000 	mov	w0, #0x0                   	// #0
/home/lagadanu/Desktop/qemu/optee_os/lib/libutils/ext/snprintk.c:424
     dfc:	52800001 	mov	w1, #0x0                   	// #0
/home/lagadanu/Desktop/qemu/optee_os/lib/libutils/ext/snprintk.c:565
     e00:	6b04001f 	cmp	w0, w4
     e04:	1a84a006 	csel	w6, w0, w4, ge
/home/lagadanu/Desktop/qemu/optee_os/lib/libutils/ext/snprintk.c:566
     e08:	34001781 	cbz	w1, 10f8 <__vsnprintf+0xa7c>
/home/lagadanu/Desktop/qemu/optee_os/lib/libutils/ext/snprintk.c:567
     e0c:	110004c6 	add	w6, w6, #0x1
/home/lagadanu/Desktop/qemu/optee_os/lib/libutils/ext/snprintk.c:572
     e10:	6b06015f 	cmp	w10, w6
     e14:	1a86a142 	csel	w2, w10, w6, ge
     e18:	0b02037b 	add	w27, w27, w2
/home/lagadanu/Desktop/qemu/optee_os/lib/libutils/ext/snprintk.c:575
     e1c:	52808082 	mov	w2, #0x404                 	// #1028
     e20:	6a0202a2 	ands	w2, w21, w2
     e24:	540000a1 	b.ne	e38 <__vsnprintf+0x7bc>
/home/lagadanu/Desktop/qemu/optee_os/lib/libutils/ext/snprintk.c:576
     e28:	4b060145 	sub	w5, w10, w6
/home/lagadanu/Desktop/qemu/optee_os/lib/libutils/ext/snprintk.c:578
     e2c:	52800407 	mov	w7, #0x20                  	// #32
/home/lagadanu/Desktop/qemu/optee_os/lib/libutils/ext/snprintk.c:577
     e30:	710000bf 	cmp	w5, #0x0
     e34:	540016ac 	b.gt	1108 <__vsnprintf+0xa8c>
/home/lagadanu/Desktop/qemu/optee_os/lib/libutils/ext/snprintk.c:582
     e38:	34001801 	cbz	w1, 1138 <__vsnprintf+0xabc>
/home/lagadanu/Desktop/qemu/optee_os/lib/libutils/ext/snprintk.c:583
     e3c:	b5001756 	cbnz	x22, 1124 <__vsnprintf+0xaa8>
/home/lagadanu/Desktop/qemu/optee_os/lib/libutils/ext/snprintk.c:586
     e40:	d2800016 	mov	x22, #0x0                   	// #0
/home/lagadanu/Desktop/qemu/optee_os/lib/libutils/ext/snprintk.c:590
     e44:	7110005f 	cmp	w2, #0x400
     e48:	540000a1 	b.ne	e5c <__vsnprintf+0x7e0>
/home/lagadanu/Desktop/qemu/optee_os/lib/libutils/ext/snprintk.c:591
     e4c:	4b060141 	sub	w1, w10, w6
/home/lagadanu/Desktop/qemu/optee_os/lib/libutils/ext/snprintk.c:593
     e50:	52800602 	mov	w2, #0x30                  	// #48
/home/lagadanu/Desktop/qemu/optee_os/lib/libutils/ext/snprintk.c:592
     e54:	7100003f 	cmp	w1, #0x0
     e58:	540018ec 	b.gt	1174 <__vsnprintf+0xaf8>
/home/lagadanu/Desktop/qemu/optee_os/lib/libutils/ext/snprintk.c:597
     e5c:	4b040000 	sub	w0, w0, w4
/home/lagadanu/Desktop/qemu/optee_os/lib/libutils/ext/snprintk.c:599
     e60:	52800601 	mov	w1, #0x30                  	// #48
/home/lagadanu/Desktop/qemu/optee_os/lib/libutils/ext/snprintk.c:598
     e64:	7100001f 	cmp	w0, #0x0
     e68:	5400194c 	b.gt	1190 <__vsnprintf+0xb14>
     e6c:	8b244064 	add	x4, x3, w4, uxtw
/home/lagadanu/Desktop/qemu/optee_os/lib/libutils/ext/snprintk.c:602
     e70:	eb04007f 	cmp	x3, x4
     e74:	540019c1 	b.ne	11ac <__vsnprintf+0xb30>
/home/lagadanu/Desktop/qemu/optee_os/lib/libutils/ext/snprintk.c:605
     e78:	3617c2b5 	tbz	w21, #2, 6cc <__vsnprintf+0x50>
/home/lagadanu/Desktop/qemu/optee_os/lib/libutils/ext/snprintk.c:606
     e7c:	4b06014a 	sub	w10, w10, w6
/home/lagadanu/Desktop/qemu/optee_os/lib/libutils/ext/snprintk.c:608
     e80:	52800400 	mov	w0, #0x20                  	// #32
/home/lagadanu/Desktop/qemu/optee_os/lib/libutils/ext/snprintk.c:607
     e84:	7100015f 	cmp	w10, #0x0
     e88:	54ffc22d 	b.le	6cc <__vsnprintf+0x50>
/home/lagadanu/Desktop/qemu/optee_os/lib/libutils/ext/snprintk.c:608
     e8c:	b40000b6 	cbz	x22, ea0 <__vsnprintf+0x824>
     e90:	eb16035f 	cmp	x26, x22
     e94:	54000069 	b.ls	ea0 <__vsnprintf+0x824>
     e98:	390002c0 	strb	w0, [x22]
     e9c:	910006d6 	add	x22, x22, #0x1
     ea0:	5100054a 	sub	w10, w10, #0x1
     ea4:	17fffff8 	b	e84 <__vsnprintf+0x808>
/home/lagadanu/Desktop/qemu/optee_os/lib/libutils/ext/snprintk.c:421
     ea8:	11002014 	add	w20, w0, #0x8
     eac:	8b20c380 	add	x0, x28, w0, sxtw
     eb0:	7100029f 	cmp	w20, #0x0
     eb4:	54fff68d 	b.le	d84 <__vsnprintf+0x708>
     eb8:	91003e61 	add	x1, x19, #0xf
     ebc:	17ffffb0 	b	d7c <__vsnprintf+0x700>
/home/lagadanu/Desktop/qemu/optee_os/lib/libutils/ext/snprintk.c:435
     ec0:	37f801c0 	tbnz	w0, #31, ef8 <__vsnprintf+0x87c>
     ec4:	91003e61 	add	x1, x19, #0xf
     ec8:	2a0003f4 	mov	w20, w0
     ecc:	aa1303e0 	mov	x0, x19
     ed0:	927df033 	and	x19, x1, #0xfffffffffffffff8
/home/lagadanu/Desktop/qemu/optee_os/lib/libutils/ext/snprintk.c:437
     ed4:	d0000057 	adrp	x23, a000 <memalign+0x2ac>
     ed8:	911e42f7 	add	x23, x23, #0x790
/home/lagadanu/Desktop/qemu/optee_os/lib/libutils/ext/snprintk.c:435
     edc:	f9400005 	ldr	x5, [x0]
/home/lagadanu/Desktop/qemu/optee_os/lib/libutils/ext/snprintk.c:438
     ee0:	321f02b5 	orr	w21, w21, #0x2
/home/lagadanu/Desktop/qemu/optee_os/lib/libutils/ext/snprintk.c:437
     ee4:	910062f7 	add	x23, x23, #0x18
/home/lagadanu/Desktop/qemu/optee_os/lib/libutils/ext/snprintk.c:482
     ee8:	52800001 	mov	w1, #0x0                   	// #0
/home/lagadanu/Desktop/qemu/optee_os/lib/libutils/ext/snprintk.c:439
     eec:	52800f08 	mov	w8, #0x78                  	// #120
/home/lagadanu/Desktop/qemu/optee_os/lib/libutils/ext/snprintk.c:436
     ef0:	52800040 	mov	w0, #0x2                   	// #2
     ef4:	17fffefe 	b	aec <__vsnprintf+0x470>
/home/lagadanu/Desktop/qemu/optee_os/lib/libutils/ext/snprintk.c:435
     ef8:	11002014 	add	w20, w0, #0x8
     efc:	8b20c380 	add	x0, x28, w0, sxtw
     f00:	7100029f 	cmp	w20, #0x0
     f04:	54fffe8d 	b.le	ed4 <__vsnprintf+0x858>
     f08:	91003e61 	add	x1, x19, #0xf
     f0c:	17fffff0 	b	ecc <__vsnprintf+0x850>
/home/lagadanu/Desktop/qemu/optee_os/lib/libutils/ext/snprintk.c:442
     f10:	11002014 	add	w20, w0, #0x8
     f14:	8b20c380 	add	x0, x28, w0, sxtw
     f18:	7100029f 	cmp	w20, #0x0
     f1c:	54ffcbcd 	b.le	894 <__vsnprintf+0x218>
     f20:	91003e61 	add	x1, x19, #0xf
     f24:	17fffe5a 	b	88c <__vsnprintf+0x210>
/home/lagadanu/Desktop/qemu/optee_os/lib/libutils/ext/snprintk.c:460
     f28:	aa0303e0 	mov	x0, x3
     f2c:	b9006fa8 	str	w8, [x29,#108]
     f30:	f9003ba3 	str	x3, [x29,#112]
     f34:	b9007baa 	str	w10, [x29,#120]
     f38:	94000100 	bl	1338 <strlen>
/home/lagadanu/Desktop/qemu/optee_os/lib/libutils/ext/snprintk.c:461
     f3c:	52800001 	mov	w1, #0x0                   	// #0
/home/lagadanu/Desktop/qemu/optee_os/lib/libutils/ext/snprintk.c:460
     f40:	2a0003e4 	mov	w4, w0
     f44:	b9406fa8 	ldr	w8, [x29,#108]
/home/lagadanu/Desktop/qemu/optee_os/lib/libutils/ext/snprintk.c:285
     f48:	52800000 	mov	w0, #0x0                   	// #0
     f4c:	b9407baa 	ldr	w10, [x29,#120]
     f50:	f9403ba3 	ldr	x3, [x29,#112]
     f54:	17ffffab 	b	e00 <__vsnprintf+0x784>
/home/lagadanu/Desktop/qemu/optee_os/lib/libutils/ext/snprintk.c:464
     f58:	321c02b5 	orr	w21, w21, #0x10
     f5c:	17fffe6c 	b	90c <__vsnprintf+0x290>
/home/lagadanu/Desktop/qemu/optee_os/lib/libutils/ext/snprintk.c:467
     f60:	3747cd95 	tbnz	w21, #8, 910 <__vsnprintf+0x294>
     f64:	374fcd75 	tbnz	w21, #9, 910 <__vsnprintf+0x294>
     f68:	372fcd55 	tbnz	w21, #5, 910 <__vsnprintf+0x294>
     f6c:	3727cd35 	tbnz	w21, #4, 910 <__vsnprintf+0x294>
     f70:	36300295 	tbz	w21, #6, fc0 <__vsnprintf+0x944>
     f74:	37f801a0 	tbnz	w0, #31, fa8 <__vsnprintf+0x92c>
     f78:	91002e61 	add	x1, x19, #0xb
     f7c:	2a0003f4 	mov	w20, w0
     f80:	aa1303e0 	mov	x0, x19
     f84:	927df033 	and	x19, x1, #0xfffffffffffffff8
     f88:	79400005 	ldrh	w5, [x0]
     f8c:	17fffe67 	b	928 <__vsnprintf+0x2ac>
     f90:	11002014 	add	w20, w0, #0x8
     f94:	8b20c380 	add	x0, x28, w0, sxtw
     f98:	7100029f 	cmp	w20, #0x0
     f9c:	54ffcc4d 	b.le	924 <__vsnprintf+0x2a8>
     fa0:	91003e61 	add	x1, x19, #0xf
     fa4:	17fffe5e 	b	91c <__vsnprintf+0x2a0>
     fa8:	11002014 	add	w20, w0, #0x8
     fac:	8b20c380 	add	x0, x28, w0, sxtw
     fb0:	7100029f 	cmp	w20, #0x0
     fb4:	54fffead 	b.le	f88 <__vsnprintf+0x90c>
     fb8:	91002e61 	add	x1, x19, #0xb
     fbc:	17fffff1 	b	f80 <__vsnprintf+0x904>
     fc0:	37f800e0 	tbnz	w0, #31, fdc <__vsnprintf+0x960>
     fc4:	91002e61 	add	x1, x19, #0xb
     fc8:	2a0003f4 	mov	w20, w0
     fcc:	aa1303e0 	mov	x0, x19
     fd0:	927df033 	and	x19, x1, #0xfffffffffffffff8
     fd4:	b9400005 	ldr	w5, [x0]
     fd8:	17fffe54 	b	928 <__vsnprintf+0x2ac>
     fdc:	11002014 	add	w20, w0, #0x8
     fe0:	8b20c380 	add	x0, x28, w0, sxtw
     fe4:	7100029f 	cmp	w20, #0x0
     fe8:	54ffff6d 	b.le	fd4 <__vsnprintf+0x958>
     fec:	91002e61 	add	x1, x19, #0xb
     ff0:	17fffff7 	b	fcc <__vsnprintf+0x950>
/home/lagadanu/Desktop/qemu/optee_os/lib/libutils/ext/snprintk.c:474
     ff4:	d0000057 	adrp	x23, a000 <memalign+0x2ac>
     ff8:	911e42f7 	add	x23, x23, #0x790
     ffc:	910062f7 	add	x23, x23, #0x18
    1000:	17fffe4e 	b	938 <__vsnprintf+0x2bc>
/home/lagadanu/Desktop/qemu/optee_os/lib/libutils/ext/snprintk.c:475
    1004:	3747c9d5 	tbnz	w21, #8, 93c <__vsnprintf+0x2c0>
    1008:	374fc9b5 	tbnz	w21, #9, 93c <__vsnprintf+0x2c0>
    100c:	372fc995 	tbnz	w21, #5, 93c <__vsnprintf+0x2c0>
    1010:	3727c975 	tbnz	w21, #4, 93c <__vsnprintf+0x2c0>
    1014:	36300295 	tbz	w21, #6, 1064 <__vsnprintf+0x9e8>
    1018:	37f801a0 	tbnz	w0, #31, 104c <__vsnprintf+0x9d0>
    101c:	91002e61 	add	x1, x19, #0xb
    1020:	2a0003f4 	mov	w20, w0
    1024:	aa1303e0 	mov	x0, x19
    1028:	927df033 	and	x19, x1, #0xfffffffffffffff8
    102c:	79400005 	ldrh	w5, [x0]
    1030:	17fffe49 	b	954 <__vsnprintf+0x2d8>
    1034:	11002014 	add	w20, w0, #0x8
    1038:	8b20c380 	add	x0, x28, w0, sxtw
    103c:	7100029f 	cmp	w20, #0x0
    1040:	54ffc88d 	b.le	950 <__vsnprintf+0x2d4>
    1044:	91003e61 	add	x1, x19, #0xf
    1048:	17fffe40 	b	948 <__vsnprintf+0x2cc>
    104c:	11002014 	add	w20, w0, #0x8
    1050:	8b20c380 	add	x0, x28, w0, sxtw
    1054:	7100029f 	cmp	w20, #0x0
    1058:	54fffead 	b.le	102c <__vsnprintf+0x9b0>
    105c:	91002e61 	add	x1, x19, #0xb
    1060:	17fffff1 	b	1024 <__vsnprintf+0x9a8>
    1064:	37f800e0 	tbnz	w0, #31, 1080 <__vsnprintf+0xa04>
    1068:	91002e61 	add	x1, x19, #0xb
    106c:	2a0003f4 	mov	w20, w0
    1070:	aa1303e0 	mov	x0, x19
    1074:	927df033 	and	x19, x1, #0xfffffffffffffff8
    1078:	b9400005 	ldr	w5, [x0]
    107c:	17fffe36 	b	954 <__vsnprintf+0x2d8>
    1080:	11002014 	add	w20, w0, #0x8
    1084:	8b20c380 	add	x0, x28, w0, sxtw
    1088:	7100029f 	cmp	w20, #0x0
    108c:	54ffff6d 	b.le	1078 <__vsnprintf+0x9fc>
    1090:	91002e61 	add	x1, x19, #0xb
    1094:	17fffff7 	b	1070 <__vsnprintf+0x9f4>
/home/lagadanu/Desktop/qemu/optee_os/lib/libutils/ext/snprintk.c:503
    1098:	91009700 	add	x0, x24, #0x25
/home/lagadanu/Desktop/qemu/optee_os/lib/libutils/ext/snprintk.c:517
    109c:	d2800146 	mov	x6, #0xa                   	// #10
/home/lagadanu/Desktop/qemu/optee_os/lib/libutils/ext/snprintk.c:516
    10a0:	f10024bf 	cmp	x5, #0x9
    10a4:	d1000403 	sub	x3, x0, #0x1
    10a8:	540000c8 	b.hi	10c0 <__vsnprintf+0xa44>
/home/lagadanu/Desktop/qemu/optee_os/lib/libutils/ext/snprintk.c:520
    10ac:	1100c0a2 	add	w2, w5, #0x30
    10b0:	381ff002 	sturb	w2, [x0,#-1]
    10b4:	17fffea7 	b	b50 <__vsnprintf+0x4d4>
/home/lagadanu/Desktop/qemu/optee_os/lib/libutils/ext/snprintk.c:508
    10b8:	aa0303e0 	mov	x0, x3
    10bc:	17fffe98 	b	b1c <__vsnprintf+0x4a0>
/home/lagadanu/Desktop/qemu/optee_os/lib/libutils/ext/snprintk.c:517
    10c0:	aa0303e0 	mov	x0, x3
    10c4:	9ac608a3 	udiv	x3, x5, x6
    10c8:	9b069462 	msub	x2, x3, x6, x5
/home/lagadanu/Desktop/qemu/optee_os/lib/libutils/ext/snprintk.c:518
    10cc:	aa0303e5 	mov	x5, x3
/home/lagadanu/Desktop/qemu/optee_os/lib/libutils/ext/snprintk.c:517
    10d0:	1100c042 	add	w2, w2, #0x30
    10d4:	39000002 	strb	w2, [x0]
    10d8:	17fffff2 	b	10a0 <__vsnprintf+0xa24>
/home/lagadanu/Desktop/qemu/optee_os/lib/libutils/ext/snprintk.c:503
    10dc:	91009703 	add	x3, x24, #0x25
/home/lagadanu/Desktop/qemu/optee_os/lib/libutils/ext/snprintk.c:525
    10e0:	92400ca0 	and	x0, x5, #0xf
/home/lagadanu/Desktop/qemu/optee_os/lib/libutils/ext/snprintk.c:526
    10e4:	d344fca5 	lsr	x5, x5, #4
/home/lagadanu/Desktop/qemu/optee_os/lib/libutils/ext/snprintk.c:525
    10e8:	38606ae0 	ldrb	w0, [x23,x0]
    10ec:	381ffc60 	strb	w0, [x3,#-1]!
/home/lagadanu/Desktop/qemu/optee_os/lib/libutils/ext/snprintk.c:527
    10f0:	b5ffff85 	cbnz	x5, 10e0 <__vsnprintf+0xa64>
    10f4:	17fffe97 	b	b50 <__vsnprintf+0x4d4>
/home/lagadanu/Desktop/qemu/optee_os/lib/libutils/ext/snprintk.c:569
    10f8:	110008c2 	add	w2, w6, #0x2
    10fc:	f27f02bf 	tst	x21, #0x2
    1100:	1a861046 	csel	w6, w2, w6, ne
    1104:	17ffff43 	b	e10 <__vsnprintf+0x794>
/home/lagadanu/Desktop/qemu/optee_os/lib/libutils/ext/snprintk.c:578
    1108:	b40000b6 	cbz	x22, 111c <__vsnprintf+0xaa0>
    110c:	eb16035f 	cmp	x26, x22
    1110:	54000069 	b.ls	111c <__vsnprintf+0xaa0>
    1114:	390002c7 	strb	w7, [x22]
    1118:	910006d6 	add	x22, x22, #0x1
    111c:	510004a5 	sub	w5, w5, #0x1
    1120:	17ffff44 	b	e30 <__vsnprintf+0x7b4>
/home/lagadanu/Desktop/qemu/optee_os/lib/libutils/ext/snprintk.c:583
    1124:	eb16035f 	cmp	x26, x22
    1128:	54ffe8e9 	b.ls	e44 <__vsnprintf+0x7c8>
    112c:	390002c1 	strb	w1, [x22]
    1130:	910006d6 	add	x22, x22, #0x1
    1134:	17ffff44 	b	e44 <__vsnprintf+0x7c8>
/home/lagadanu/Desktop/qemu/optee_os/lib/libutils/ext/snprintk.c:584
    1138:	360fe875 	tbz	w21, #1, e44 <__vsnprintf+0x7c8>
/home/lagadanu/Desktop/qemu/optee_os/lib/libutils/ext/snprintk.c:585
    113c:	b4ffe836 	cbz	x22, e40 <__vsnprintf+0x7c4>
    1140:	eb16035f 	cmp	x26, x22
    1144:	54ffe809 	b.ls	e44 <__vsnprintf+0x7c8>
    1148:	52800601 	mov	w1, #0x30                  	// #48
    114c:	390002c1 	strb	w1, [x22]
/home/lagadanu/Desktop/qemu/optee_os/lib/libutils/ext/snprintk.c:586
    1150:	b10006c1 	adds	x1, x22, #0x1
    1154:	54ffe760 	b.eq	e40 <__vsnprintf+0x7c4>
    1158:	eb01035f 	cmp	x26, x1
    115c:	54000089 	b.ls	116c <__vsnprintf+0xaf0>
    1160:	390006c8 	strb	w8, [x22,#1]
    1164:	91000ad6 	add	x22, x22, #0x2
    1168:	17ffff37 	b	e44 <__vsnprintf+0x7c8>
    116c:	aa0103f6 	mov	x22, x1
    1170:	17ffff35 	b	e44 <__vsnprintf+0x7c8>
/home/lagadanu/Desktop/qemu/optee_os/lib/libutils/ext/snprintk.c:593
    1174:	b40000b6 	cbz	x22, 1188 <__vsnprintf+0xb0c>
    1178:	eb16035f 	cmp	x26, x22
    117c:	54000069 	b.ls	1188 <__vsnprintf+0xb0c>
    1180:	390002c2 	strb	w2, [x22]
    1184:	910006d6 	add	x22, x22, #0x1
    1188:	51000421 	sub	w1, w1, #0x1
    118c:	17ffff32 	b	e54 <__vsnprintf+0x7d8>
/home/lagadanu/Desktop/qemu/optee_os/lib/libutils/ext/snprintk.c:599
    1190:	b40000b6 	cbz	x22, 11a4 <__vsnprintf+0xb28>
    1194:	eb16035f 	cmp	x26, x22
    1198:	54000069 	b.ls	11a4 <__vsnprintf+0xb28>
    119c:	390002c1 	strb	w1, [x22]
    11a0:	910006d6 	add	x22, x22, #0x1
    11a4:	51000400 	sub	w0, w0, #0x1
    11a8:	17ffff2f 	b	e64 <__vsnprintf+0x7e8>
/home/lagadanu/Desktop/qemu/optee_os/lib/libutils/ext/snprintk.c:603
    11ac:	b40000d6 	cbz	x22, 11c4 <__vsnprintf+0xb48>
    11b0:	eb16035f 	cmp	x26, x22
    11b4:	54000089 	b.ls	11c4 <__vsnprintf+0xb48>
    11b8:	39400060 	ldrb	w0, [x3]
    11bc:	910006d6 	add	x22, x22, #0x1
    11c0:	381ff2c0 	sturb	w0, [x22,#-1]
/home/lagadanu/Desktop/qemu/optee_os/lib/libutils/ext/snprintk.c:602
    11c4:	91000463 	add	x3, x3, #0x1
    11c8:	17ffff2a 	b	e70 <__vsnprintf+0x7f4>
__vsnprintf():
/home/lagadanu/Desktop/qemu/optee_os/lib/libutils/ext/snprintk.c:143
    11cc:	f94047a0 	ldr	x0, [x29,#136]
    11d0:	f100001f 	cmp	x0, #0x0
    11d4:	f94043a0 	ldr	x0, [x29,#128]
    11d8:	fa401804 	ccmp	x0, #0x0, #0x4, ne
    11dc:	540000c0 	b.eq	11f4 <__vsnprintf+0xb78>
/home/lagadanu/Desktop/qemu/optee_os/lib/libutils/ext/snprintk.c:145
    11e0:	f94043a1 	ldr	x1, [x29,#128]
    11e4:	93407f60 	sxtw	x0, w27
    11e8:	eb00003f 	cmp	x1, x0
    11ec:	54000168 	b.hi	1218 <__vsnprintf+0xb9c>
/home/lagadanu/Desktop/qemu/optee_os/lib/libutils/ext/snprintk.c:146
    11f0:	381ff35f 	sturb	wzr, [x26,#-1]
/home/lagadanu/Desktop/qemu/optee_os/lib/libutils/ext/snprintk.c:151
    11f4:	2a1b03e0 	mov	w0, w27
    11f8:	a94453f3 	ldp	x19, x20, [sp,#64]
    11fc:	a9455bf5 	ldp	x21, x22, [sp,#80]
    1200:	a94663f7 	ldp	x23, x24, [sp,#96]
    1204:	a9476bf9 	ldp	x25, x26, [sp,#112]
    1208:	a94873fb 	ldp	x27, x28, [sp,#128]
    120c:	a9437bfd 	ldp	x29, x30, [sp,#48]
    1210:	9103c3ff 	add	sp, sp, #0xf0
    1214:	d65f03c0 	ret
/home/lagadanu/Desktop/qemu/optee_os/lib/libutils/ext/snprintk.c:148
    1218:	f94047a1 	ldr	x1, [x29,#136]
    121c:	3820683f 	strb	wzr, [x1,x0]
/home/lagadanu/Desktop/qemu/optee_os/lib/libutils/ext/snprintk.c:150
    1220:	17fffff5 	b	11f4 <__vsnprintf+0xb78>

0000000000001224 <vsnprintk>:
vsnprintk():
/home/lagadanu/Desktop/qemu/optee_os/lib/libutils/ext/snprintk.c:129
    1224:	a9bb7bfd 	stp	x29, x30, [sp,#-80]!
    1228:	910003fd 	mov	x29, sp
    122c:	a90153f3 	stp	x19, x20, [sp,#16]
    1230:	aa0003f3 	mov	x19, x0
    1234:	f90013f5 	str	x21, [sp,#32]
    1238:	aa0103f4 	mov	x20, x1
    123c:	aa0203f5 	mov	x21, x2
/home/lagadanu/Desktop/qemu/optee_os/lib/libutils/ext/snprintk.c:130
    1240:	aa0303e1 	mov	x1, x3
    1244:	9100c3a0 	add	x0, x29, #0x30
    1248:	d2800402 	mov	x2, #0x20                  	// #32
    124c:	94000033 	bl	1318 <memcpy>
    1250:	aa0003e3 	mov	x3, x0
    1254:	aa1503e2 	mov	x2, x21
    1258:	aa1403e1 	mov	x1, x20
    125c:	52800024 	mov	w4, #0x1                   	// #1
    1260:	aa1303e0 	mov	x0, x19
    1264:	97fffd06 	bl	67c <__vsnprintf>
/home/lagadanu/Desktop/qemu/optee_os/lib/libutils/ext/snprintk.c:131
    1268:	f94013f5 	ldr	x21, [sp,#32]
    126c:	a94153f3 	ldp	x19, x20, [sp,#16]
    1270:	a8c57bfd 	ldp	x29, x30, [sp],#80
    1274:	d65f03c0 	ret

0000000000001278 <snprintk>:
snprintk():
/home/lagadanu/Desktop/qemu/optee_os/lib/libutils/ext/snprintk.c:112
    1278:	a9b07bfd 	stp	x29, x30, [sp,#-256]!
    127c:	910003fd 	mov	x29, sp
    1280:	a90d93a3 	stp	x3, x4, [x29,#216]
/home/lagadanu/Desktop/qemu/optee_os/lib/libutils/ext/snprintk.c:116
    1284:	910403a3 	add	x3, x29, #0x100
    1288:	a9030fa3 	stp	x3, x3, [x29,#48]
    128c:	910343a3 	add	x3, x29, #0xd0
    1290:	f90023a3 	str	x3, [x29,#64]
    1294:	128004e3 	mov	w3, #0xffffffd8            	// #-40
    1298:	b9004ba3 	str	w3, [x29,#72]
    129c:	12800fe3 	mov	w3, #0xffffff80            	// #-128
    12a0:	b9004fa3 	str	w3, [x29,#76]
/home/lagadanu/Desktop/qemu/optee_os/lib/libutils/ext/snprintk.c:117
    12a4:	910043a3 	add	x3, x29, #0x10
/home/lagadanu/Desktop/qemu/optee_os/lib/libutils/ext/snprintk.c:112
    12a8:	a90e9ba5 	stp	x5, x6, [x29,#232]
/home/lagadanu/Desktop/qemu/optee_os/lib/libutils/ext/snprintk.c:117
    12ac:	a94317a4 	ldp	x4, x5, [x29,#48]
    12b0:	a90117a4 	stp	x4, x5, [x29,#16]
    12b4:	a94417a4 	ldp	x4, x5, [x29,#64]
/home/lagadanu/Desktop/qemu/optee_os/lib/libutils/ext/snprintk.c:112
    12b8:	3d8017a0 	str	q0, [x29,#80]
    12bc:	3d801ba1 	str	q1, [x29,#96]
    12c0:	3d801fa2 	str	q2, [x29,#112]
    12c4:	3d8023a3 	str	q3, [x29,#128]
    12c8:	3d8027a4 	str	q4, [x29,#144]
    12cc:	3d802ba5 	str	q5, [x29,#160]
    12d0:	3d802fa6 	str	q6, [x29,#176]
    12d4:	3d8033a7 	str	q7, [x29,#192]
    12d8:	f9007fa7 	str	x7, [x29,#248]
/home/lagadanu/Desktop/qemu/optee_os/lib/libutils/ext/snprintk.c:117
    12dc:	a90217a4 	stp	x4, x5, [x29,#32]
    12e0:	97ffffd1 	bl	1224 <vsnprintk>
/home/lagadanu/Desktop/qemu/optee_os/lib/libutils/ext/snprintk.c:121
    12e4:	a8d07bfd 	ldp	x29, x30, [sp],#256
    12e8:	d65f03c0 	ret

00000000000012ec <memchr>:
memchr():
/home/lagadanu/Desktop/qemu/optee_os/lib/libutils/isoc/newlib/memchr.c:109
    12ec:	12001c21 	and	w1, w1, #0xff
    12f0:	8b020002 	add	x2, x0, x2
/home/lagadanu/Desktop/qemu/optee_os/lib/libutils/isoc/newlib/memchr.c:153
    12f4:	eb02001f 	cmp	x0, x2
    12f8:	54000061 	b.ne	1304 <memchr+0x18>
/home/lagadanu/Desktop/qemu/optee_os/lib/libutils/isoc/newlib/memchr.c:159
    12fc:	d2800000 	mov	x0, #0x0                   	// #0
/home/lagadanu/Desktop/qemu/optee_os/lib/libutils/isoc/newlib/memchr.c:160
    1300:	d65f03c0 	ret
/home/lagadanu/Desktop/qemu/optee_os/lib/libutils/isoc/newlib/memchr.c:154
    1304:	39400003 	ldrb	w3, [x0]
    1308:	6b01007f 	cmp	w3, w1
    130c:	54ffffa0 	b.eq	1300 <memchr+0x14>
/home/lagadanu/Desktop/qemu/optee_os/lib/libutils/isoc/newlib/memchr.c:156
    1310:	91000400 	add	x0, x0, #0x1
    1314:	17fffff8 	b	12f4 <memchr+0x8>

0000000000001318 <memcpy>:
memcpy():
/home/lagadanu/Desktop/qemu/optee_os/lib/libutils/isoc/newlib/memcpy.c:94
    1318:	d2800003 	mov	x3, #0x0                   	// #0
    131c:	eb03005f 	cmp	x2, x3
    1320:	54000041 	b.ne	1328 <memcpy+0x10>
/home/lagadanu/Desktop/qemu/optee_os/lib/libutils/isoc/newlib/memcpy.c:135
    1324:	d65f03c0 	ret
/home/lagadanu/Desktop/qemu/optee_os/lib/libutils/isoc/newlib/memcpy.c:95
    1328:	38636824 	ldrb	w4, [x1,x3]
    132c:	38236804 	strb	w4, [x0,x3]
    1330:	91000463 	add	x3, x3, #0x1
    1334:	17fffffa 	b	131c <memcpy+0x4>

0000000000001338 <strlen>:
strlen():
/home/lagadanu/Desktop/qemu/optee_os/lib/libutils/isoc/newlib/strlen.c:117
    1338:	aa0003e1 	mov	x1, x0
    133c:	39400022 	ldrb	w2, [x1]
    1340:	35000062 	cbnz	w2, 134c <strlen+0x14>
/home/lagadanu/Desktop/qemu/optee_os/lib/libutils/isoc/newlib/strlen.c:120
    1344:	cb000020 	sub	x0, x1, x0
    1348:	d65f03c0 	ret
/home/lagadanu/Desktop/qemu/optee_os/lib/libutils/isoc/newlib/strlen.c:118
    134c:	91000421 	add	x1, x1, #0x1
    1350:	17fffffb 	b	133c <strlen+0x4>

0000000000001354 <trace_ext_puts>:
trace_ext_puts():
/home/lagadanu/Desktop/qemu/optee_os/lib/libutee/trace_ext.c:17
    1354:	a9be7bfd 	stp	x29, x30, [sp,#-32]!
    1358:	910003fd 	mov	x29, sp
    135c:	f9000bf3 	str	x19, [sp,#16]
    1360:	aa0003f3 	mov	x19, x0
/home/lagadanu/Desktop/qemu/optee_os/lib/libutee/trace_ext.c:18
    1364:	97fffff5 	bl	1338 <strlen>
    1368:	aa0003e1 	mov	x1, x0
    136c:	aa1303e0 	mov	x0, x19
/home/lagadanu/Desktop/qemu/optee_os/lib/libutee/trace_ext.c:19
    1370:	f9400bf3 	ldr	x19, [sp,#16]
    1374:	a8c27bfd 	ldp	x29, x30, [sp],#32
/home/lagadanu/Desktop/qemu/optee_os/lib/libutee/trace_ext.c:18
    1378:	14000e85 	b	4d8c <utee_log>

000000000000137c <trace_ext_get_thread_id>:
trace_ext_get_thread_id():
/home/lagadanu/Desktop/qemu/optee_os/lib/libutee/trace_ext.c:24
    137c:	12800000 	mov	w0, #0xffffffff            	// #-1
    1380:	d65f03c0 	ret

0000000000001384 <printf>:
printf():
/home/lagadanu/Desktop/qemu/optee_os/lib/libutee/trace_ext.c:32
    1384:	d10883ff 	sub	sp, sp, #0x220
    1388:	a9007bfd 	stp	x29, x30, [sp]
    138c:	910003fd 	mov	x29, sp
    1390:	a90153f3 	stp	x19, x20, [sp,#16]
    1394:	aa0003f3 	mov	x19, x0
    1398:	910403a0 	add	x0, x29, #0x100
    139c:	a91e8ba1 	stp	x1, x2, [x29,#488]
    13a0:	a91f93a3 	stp	x3, x4, [x29,#504]
    13a4:	f90107a5 	str	x5, [x29,#520]
    13a8:	f9010ba6 	str	x6, [x29,#528]
    13ac:	f9010fa7 	str	x7, [x29,#536]
    13b0:	3d801800 	str	q0, [x0,#96]
    13b4:	3d801c01 	str	q1, [x0,#112]
    13b8:	3d802002 	str	q2, [x0,#128]
    13bc:	3d802403 	str	q3, [x0,#144]
    13c0:	3d802804 	str	q4, [x0,#160]
    13c4:	3d802c05 	str	q5, [x0,#176]
    13c8:	3d803006 	str	q6, [x0,#192]
    13cc:	3d803407 	str	q7, [x0,#208]
/home/lagadanu/Desktop/qemu/optee_os/lib/libutee/trace_ext.c:37
    13d0:	97fffc16 	bl	428 <trace_get_level>
    13d4:	7100001f 	cmp	w0, #0x0
    13d8:	5400038d 	b.le	1448 <printf+0xc4>
/home/lagadanu/Desktop/qemu/optee_os/lib/libutee/trace_ext.c:40
    13dc:	910883a0 	add	x0, x29, #0x220
    13e0:	a90403a0 	stp	x0, x0, [x29,#64]
    13e4:	910783a0 	add	x0, x29, #0x1e0
    13e8:	f9002ba0 	str	x0, [x29,#80]
    13ec:	128006e0 	mov	w0, #0xffffffc8            	// #-56
    13f0:	b9005ba0 	str	w0, [x29,#88]
    13f4:	12800fe0 	mov	w0, #0xffffff80            	// #-128
    13f8:	b9005fa0 	str	w0, [x29,#92]
/home/lagadanu/Desktop/qemu/optee_os/lib/libutee/trace_ext.c:41
    13fc:	a94407a0 	ldp	x0, x1, [x29,#64]
    1400:	a90207a0 	stp	x0, x1, [x29,#32]
    1404:	a94507a0 	ldp	x0, x1, [x29,#80]
    1408:	910183b4 	add	x20, x29, #0x60
    140c:	a90307a0 	stp	x0, x1, [x29,#48]
    1410:	aa1303e2 	mov	x2, x19
    1414:	910083a3 	add	x3, x29, #0x20
    1418:	d2802001 	mov	x1, #0x100                 	// #256
    141c:	aa1403e0 	mov	x0, x20
    1420:	9400241c 	bl	a490 <vsnprintf>
    1424:	2a0003f3 	mov	w19, w0
/home/lagadanu/Desktop/qemu/optee_os/lib/libutee/trace_ext.c:44
    1428:	37f80060 	tbnz	w0, #31, 1434 <printf+0xb0>
/home/lagadanu/Desktop/qemu/optee_os/lib/libutee/trace_ext.c:47
    142c:	aa1403e0 	mov	x0, x20
    1430:	97ffffc9 	bl	1354 <trace_ext_puts>
/home/lagadanu/Desktop/qemu/optee_os/lib/libutee/trace_ext.c:50
    1434:	2a1303e0 	mov	w0, w19
    1438:	a94153f3 	ldp	x19, x20, [sp,#16]
    143c:	a9407bfd 	ldp	x29, x30, [sp]
    1440:	910883ff 	add	sp, sp, #0x220
    1444:	d65f03c0 	ret
/home/lagadanu/Desktop/qemu/optee_os/lib/libutee/trace_ext.c:38
    1448:	52800013 	mov	w19, #0x0                   	// #0
    144c:	17fffffa 	b	1434 <printf+0xb0>

0000000000001450 <puts>:
puts():
/home/lagadanu/Desktop/qemu/optee_os/lib/libutee/trace_ext.c:53
    1450:	a9be7bfd 	stp	x29, x30, [sp,#-32]!
    1454:	910003fd 	mov	x29, sp
    1458:	f9000bf3 	str	x19, [sp,#16]
    145c:	aa0003f3 	mov	x19, x0
/home/lagadanu/Desktop/qemu/optee_os/lib/libutee/trace_ext.c:54
    1460:	97fffbf2 	bl	428 <trace_get_level>
    1464:	7100001f 	cmp	w0, #0x0
    1468:	540000cd 	b.le	1480 <puts+0x30>
/home/lagadanu/Desktop/qemu/optee_os/lib/libutee/trace_ext.c:55
    146c:	aa1303e0 	mov	x0, x19
    1470:	97ffffb9 	bl	1354 <trace_ext_puts>
/home/lagadanu/Desktop/qemu/optee_os/lib/libutee/trace_ext.c:56
    1474:	d0000040 	adrp	x0, b000 <PRIME_TABLE+0x7f0>
    1478:	911e0800 	add	x0, x0, #0x782
    147c:	97ffffb6 	bl	1354 <trace_ext_puts>
/home/lagadanu/Desktop/qemu/optee_os/lib/libutee/trace_ext.c:59
    1480:	52800020 	mov	w0, #0x1                   	// #1
    1484:	f9400bf3 	ldr	x19, [sp,#16]
    1488:	a8c27bfd 	ldp	x29, x30, [sp],#32
    148c:	d65f03c0 	ret

0000000000001490 <putchar>:
putchar():
/home/lagadanu/Desktop/qemu/optee_os/lib/libutee/trace_ext.c:62
    1490:	a9bd7bfd 	stp	x29, x30, [sp,#-48]!
    1494:	910003fd 	mov	x29, sp
    1498:	f9000bf3 	str	x19, [sp,#16]
    149c:	2a0003f3 	mov	w19, w0
/home/lagadanu/Desktop/qemu/optee_os/lib/libutee/trace_ext.c:63
    14a0:	3900a3a0 	strb	w0, [x29,#40]
    14a4:	3900a7bf 	strb	wzr, [x29,#41]
/home/lagadanu/Desktop/qemu/optee_os/lib/libutee/trace_ext.c:65
    14a8:	97fffbe0 	bl	428 <trace_get_level>
    14ac:	7100001f 	cmp	w0, #0x0
    14b0:	5400006d 	b.le	14bc <putchar+0x2c>
/home/lagadanu/Desktop/qemu/optee_os/lib/libutee/trace_ext.c:66
    14b4:	9100a3a0 	add	x0, x29, #0x28
    14b8:	97ffffa7 	bl	1354 <trace_ext_puts>
/home/lagadanu/Desktop/qemu/optee_os/lib/libutee/trace_ext.c:73
    14bc:	12001e60 	and	w0, w19, #0xff
    14c0:	f9400bf3 	ldr	x19, [sp,#16]
    14c4:	a8c37bfd 	ldp	x29, x30, [sp],#48
    14c8:	d65f03c0 	ret

00000000000014cc <__utee_from_param>:
__utee_from_param():
/home/lagadanu/Desktop/qemu/optee_os/lib/libutee/tee_api.c:25
    14cc:	b0000045 	adrp	x5, a000 <memalign+0x2ac>
    14d0:	911f00a5 	add	x5, x5, #0x7c0
/home/lagadanu/Desktop/qemu/optee_os/lib/libutee/tee_api.c:23
    14d4:	2a0103e3 	mov	w3, w1
    14d8:	52800004 	mov	w4, #0x0                   	// #0
    14dc:	f8008403 	str	x3, [x0],#8
/home/lagadanu/Desktop/qemu/optee_os/lib/libutee/tee_api.c:25
    14e0:	1ac42423 	lsr	w3, w1, w4
    14e4:	12000c63 	and	w3, w3, #0xf
    14e8:	51000463 	sub	w3, w3, #0x1
    14ec:	7100187f 	cmp	w3, #0x6
    14f0:	54000268 	b.hi	153c <__utee_from_param+0x70>
    14f4:	386348a3 	ldrb	w3, [x5,w3,uxtw]
    14f8:	10000066 	adr	x6, 1504 <__utee_from_param+0x38>
    14fc:	8b2388c3 	add	x3, x6, w3, sxtb #2
    1500:	d61f0060 	br	x3
/home/lagadanu/Desktop/qemu/optee_os/lib/libutee/tee_api.c:29
    1504:	b9400043 	ldr	w3, [x2]
    1508:	f9000003 	str	x3, [x0]
/home/lagadanu/Desktop/qemu/optee_os/lib/libutee/tee_api.c:30
    150c:	b9400443 	ldr	w3, [x2,#4]
/home/lagadanu/Desktop/qemu/optee_os/lib/libutee/tee_api.c:36
    1510:	f9000403 	str	x3, [x0,#8]
    1514:	11001084 	add	w4, w4, #0x4
    1518:	91004042 	add	x2, x2, #0x10
    151c:	91004000 	add	x0, x0, #0x10
/home/lagadanu/Desktop/qemu/optee_os/lib/libutee/tee_api.c:24 (discriminator 2)
    1520:	7100409f 	cmp	w4, #0x10
    1524:	54fffde1 	b.ne	14e0 <__utee_from_param+0x14>
/home/lagadanu/Desktop/qemu/optee_os/lib/libutee/tee_api.c:44
    1528:	d65f03c0 	ret
/home/lagadanu/Desktop/qemu/optee_os/lib/libutee/tee_api.c:35
    152c:	f9400043 	ldr	x3, [x2]
    1530:	f9000003 	str	x3, [x0]
/home/lagadanu/Desktop/qemu/optee_os/lib/libutee/tee_api.c:36
    1534:	b9400843 	ldr	w3, [x2,#8]
    1538:	17fffff6 	b	1510 <__utee_from_param+0x44>
/home/lagadanu/Desktop/qemu/optee_os/lib/libutee/tee_api.c:40
    153c:	a9007c1f 	stp	xzr, xzr, [x0]
/home/lagadanu/Desktop/qemu/optee_os/lib/libutee/tee_api.c:41
    1540:	17fffff5 	b	1514 <__utee_from_param+0x48>

0000000000001544 <__utee_to_param>:
__utee_to_param():
/home/lagadanu/Desktop/qemu/optee_os/lib/libutee/tee_api.c:50
    1544:	f8408446 	ldr	x6, [x2],#8
/home/lagadanu/Desktop/qemu/optee_os/lib/libutee/tee_api.c:56
    1548:	b0000045 	adrp	x5, a000 <memalign+0x2ac>
    154c:	911f20a5 	add	x5, x5, #0x7c8
/home/lagadanu/Desktop/qemu/optee_os/lib/libutee/tee_api.c:50
    1550:	52800004 	mov	w4, #0x0                   	// #0
    1554:	2a0603e9 	mov	w9, w6
/home/lagadanu/Desktop/qemu/optee_os/lib/libutee/tee_api.c:56
    1558:	1ac42523 	lsr	w3, w9, w4
    155c:	12000c63 	and	w3, w3, #0xf
    1560:	51000463 	sub	w3, w3, #0x1
    1564:	7100187f 	cmp	w3, #0x6
/home/lagadanu/Desktop/qemu/optee_os/lib/libutee/tee_api.c:54
    1568:	a9401c48 	ldp	x8, x7, [x2]
/home/lagadanu/Desktop/qemu/optee_os/lib/libutee/tee_api.c:56
    156c:	540000c8 	b.hi	1584 <__utee_to_param+0x40>
    1570:	386348a3 	ldrb	w3, [x5,w3,uxtw]
    1574:	1000006a 	adr	x10, 1580 <__utee_to_param+0x3c>
    1578:	8b238943 	add	x3, x10, w3, sxtb #2
    157c:	d61f0060 	br	x3
/home/lagadanu/Desktop/qemu/optee_os/lib/libutee/tee_api.c:61
    1580:	29001c08 	stp	w8, w7, [x0]
    1584:	11001084 	add	w4, w4, #0x4
    1588:	91004042 	add	x2, x2, #0x10
    158c:	91004000 	add	x0, x0, #0x10
/home/lagadanu/Desktop/qemu/optee_os/lib/libutee/tee_api.c:52 (discriminator 2)
    1590:	7100409f 	cmp	w4, #0x10
    1594:	54fffe21 	b.ne	1558 <__utee_to_param+0x14>
/home/lagadanu/Desktop/qemu/optee_os/lib/libutee/tee_api.c:74
    1598:	b4000041 	cbz	x1, 15a0 <__utee_to_param+0x5c>
/home/lagadanu/Desktop/qemu/optee_os/lib/libutee/tee_api.c:75
    159c:	b9000026 	str	w6, [x1]
    15a0:	d65f03c0 	ret
/home/lagadanu/Desktop/qemu/optee_os/lib/libutee/tee_api.c:66
    15a4:	f9000008 	str	x8, [x0]
/home/lagadanu/Desktop/qemu/optee_os/lib/libutee/tee_api.c:67
    15a8:	b9000807 	str	w7, [x0,#8]
/home/lagadanu/Desktop/qemu/optee_os/lib/libutee/tee_api.c:68
    15ac:	17fffff6 	b	1584 <__utee_to_param+0x40>

00000000000015b0 <TEE_OpenTASession>:
TEE_OpenTASession():
/home/lagadanu/Desktop/qemu/optee_os/lib/libutee/tee_api.c:84
    15b0:	a9b77bfd 	stp	x29, x30, [sp,#-144]!
    15b4:	910003fd 	mov	x29, sp
    15b8:	a90153f3 	stp	x19, x20, [sp,#16]
/home/lagadanu/Desktop/qemu/optee_os/lib/libutee/tee_api.c:89
    15bc:	910123b3 	add	x19, x29, #0x48
/home/lagadanu/Desktop/qemu/optee_os/lib/libutee/tee_api.c:84
    15c0:	a9025bf5 	stp	x21, x22, [sp,#32]
    15c4:	aa0303f4 	mov	x20, x3
    15c8:	a90363f7 	stp	x23, x24, [sp,#48]
    15cc:	aa0003f6 	mov	x22, x0
    15d0:	aa0503f8 	mov	x24, x5
    15d4:	2a0103f7 	mov	w23, w1
    15d8:	aa0403f5 	mov	x21, x4
    15dc:	2a0203e1 	mov	w1, w2
/home/lagadanu/Desktop/qemu/optee_os/lib/libutee/tee_api.c:89
    15e0:	aa1303e0 	mov	x0, x19
    15e4:	aa0303e2 	mov	x2, x3
    15e8:	97ffffb9 	bl	14cc <__utee_from_param>
/home/lagadanu/Desktop/qemu/optee_os/lib/libutee/tee_api.c:90
    15ec:	aa1803e4 	mov	x4, x24
    15f0:	910113a3 	add	x3, x29, #0x44
    15f4:	aa1303e2 	mov	x2, x19
    15f8:	2a1703e1 	mov	w1, w23
    15fc:	aa1603e0 	mov	x0, x22
    1600:	94000def 	bl	4dbc <utee_open_ta_session>
/home/lagadanu/Desktop/qemu/optee_os/lib/libutee/tee_api.c:92
    1604:	aa1303e2 	mov	x2, x19
/home/lagadanu/Desktop/qemu/optee_os/lib/libutee/tee_api.c:90
    1608:	2a0003f6 	mov	w22, w0
/home/lagadanu/Desktop/qemu/optee_os/lib/libutee/tee_api.c:92
    160c:	d2800001 	mov	x1, #0x0                   	// #0
    1610:	aa1403e0 	mov	x0, x20
    1614:	97ffffcc 	bl	1544 <__utee_to_param>
/home/lagadanu/Desktop/qemu/optee_os/lib/libutee/tee_api.c:98
    1618:	34000056 	cbz	w22, 1620 <TEE_OpenTASession+0x70>
/home/lagadanu/Desktop/qemu/optee_os/lib/libutee/tee_api.c:99
    161c:	b90047bf 	str	wzr, [x29,#68]
/home/lagadanu/Desktop/qemu/optee_os/lib/libutee/tee_api.c:101
    1620:	b94047a0 	ldr	w0, [x29,#68]
/home/lagadanu/Desktop/qemu/optee_os/lib/libutee/tee_api.c:103
    1624:	a94153f3 	ldp	x19, x20, [sp,#16]
    1628:	a94363f7 	ldp	x23, x24, [sp,#48]
/home/lagadanu/Desktop/qemu/optee_os/lib/libutee/tee_api.c:101
    162c:	f90002a0 	str	x0, [x21]
/home/lagadanu/Desktop/qemu/optee_os/lib/libutee/tee_api.c:103
    1630:	2a1603e0 	mov	w0, w22
    1634:	a9425bf5 	ldp	x21, x22, [sp,#32]
    1638:	a8c97bfd 	ldp	x29, x30, [sp],#144
    163c:	d65f03c0 	ret

0000000000001640 <TEE_CloseTASession>:
TEE_CloseTASession():
/home/lagadanu/Desktop/qemu/optee_os/lib/libutee/tee_api.c:107
    1640:	b4000120 	cbz	x0, 1664 <TEE_CloseTASession+0x24>
/home/lagadanu/Desktop/qemu/optee_os/lib/libutee/tee_api.c:106
    1644:	a9bf7bfd 	stp	x29, x30, [sp,#-16]!
    1648:	910003fd 	mov	x29, sp
/home/lagadanu/Desktop/qemu/optee_os/lib/libutee/tee_api.c:108
    164c:	94000ddf 	bl	4dc8 <utee_close_ta_session>
/home/lagadanu/Desktop/qemu/optee_os/lib/libutee/tee_api.c:110
    1650:	34000060 	cbz	w0, 165c <TEE_CloseTASession+0x1c>
/home/lagadanu/Desktop/qemu/optee_os/lib/libutee/tee_api.c:113
    1654:	a8c17bfd 	ldp	x29, x30, [sp],#16
/home/lagadanu/Desktop/qemu/optee_os/lib/libutee/tee_api.c:111
    1658:	14000d14 	b	4aa8 <TEE_Panic>
/home/lagadanu/Desktop/qemu/optee_os/lib/libutee/tee_api.c:113
    165c:	a8c17bfd 	ldp	x29, x30, [sp],#16
    1660:	d65f03c0 	ret
    1664:	d65f03c0 	ret

0000000000001668 <TEE_InvokeTACommand>:
TEE_InvokeTACommand():
/home/lagadanu/Desktop/qemu/optee_os/lib/libutee/tee_api.c:120
    1668:	a9b77bfd 	stp	x29, x30, [sp,#-144]!
    166c:	910003fd 	mov	x29, sp
    1670:	a90153f3 	stp	x19, x20, [sp,#16]
/home/lagadanu/Desktop/qemu/optee_os/lib/libutee/tee_api.c:125
    1674:	910123b4 	add	x20, x29, #0x48
/home/lagadanu/Desktop/qemu/optee_os/lib/libutee/tee_api.c:120
    1678:	a9025bf5 	stp	x21, x22, [sp,#32]
    167c:	aa0003f3 	mov	x19, x0
    1680:	a90363f7 	stp	x23, x24, [sp,#48]
    1684:	aa0403f6 	mov	x22, x4
    1688:	aa0503f5 	mov	x21, x5
    168c:	2a0103f7 	mov	w23, w1
    1690:	2a0203f8 	mov	w24, w2
/home/lagadanu/Desktop/qemu/optee_os/lib/libutee/tee_api.c:125
    1694:	2a0303e1 	mov	w1, w3
    1698:	aa0403e2 	mov	x2, x4
    169c:	aa1403e0 	mov	x0, x20
    16a0:	97ffff8b 	bl	14cc <__utee_from_param>
/home/lagadanu/Desktop/qemu/optee_os/lib/libutee/tee_api.c:126
    16a4:	910113a4 	add	x4, x29, #0x44
    16a8:	aa1403e3 	mov	x3, x20
    16ac:	2a1803e2 	mov	w2, w24
    16b0:	2a1703e1 	mov	w1, w23
    16b4:	aa1303e0 	mov	x0, x19
    16b8:	94000dc7 	bl	4dd4 <utee_invoke_ta_command>
/home/lagadanu/Desktop/qemu/optee_os/lib/libutee/tee_api.c:129
    16bc:	aa1403e2 	mov	x2, x20
/home/lagadanu/Desktop/qemu/optee_os/lib/libutee/tee_api.c:126
    16c0:	2a0003f3 	mov	w19, w0
/home/lagadanu/Desktop/qemu/optee_os/lib/libutee/tee_api.c:129
    16c4:	d2800001 	mov	x1, #0x0                   	// #0
    16c8:	aa1603e0 	mov	x0, x22
    16cc:	97ffff9e 	bl	1544 <__utee_to_param>
    16d0:	b94047a0 	ldr	w0, [x29,#68]
/home/lagadanu/Desktop/qemu/optee_os/lib/libutee/tee_api.c:131
    16d4:	b4000055 	cbz	x21, 16dc <TEE_InvokeTACommand+0x74>
/home/lagadanu/Desktop/qemu/optee_os/lib/libutee/tee_api.c:132
    16d8:	b90002a0 	str	w0, [x21]
/home/lagadanu/Desktop/qemu/optee_os/lib/libutee/tee_api.c:134
    16dc:	7100101f 	cmp	w0, #0x4
    16e0:	54000120 	b.eq	1704 <TEE_InvokeTACommand+0x9c>
/home/lagadanu/Desktop/qemu/optee_os/lib/libutee/tee_api.c:138
    16e4:	7100027f 	cmp	w19, #0x0
    16e8:	129ffe60 	mov	w0, #0xffff000c            	// #-65524
    16ec:	7a401264 	ccmp	w19, w0, #0x4, ne
    16f0:	1299fb60 	mov	w0, #0xffff3024            	// #-53212
    16f4:	7a401264 	ccmp	w19, w0, #0x4, ne
    16f8:	54000060 	b.eq	1704 <TEE_InvokeTACommand+0x9c>
/home/lagadanu/Desktop/qemu/optee_os/lib/libutee/tee_api.c:140
    16fc:	2a1303e0 	mov	w0, w19
    1700:	94000cea 	bl	4aa8 <TEE_Panic>
/home/lagadanu/Desktop/qemu/optee_os/lib/libutee/tee_api.c:143
    1704:	2a1303e0 	mov	w0, w19
    1708:	a94153f3 	ldp	x19, x20, [sp,#16]
    170c:	a9425bf5 	ldp	x21, x22, [sp,#32]
    1710:	a94363f7 	ldp	x23, x24, [sp,#48]
    1714:	a8c97bfd 	ldp	x29, x30, [sp],#144
    1718:	d65f03c0 	ret

000000000000171c <TEE_GetCancellationFlag>:
TEE_GetCancellationFlag():
/home/lagadanu/Desktop/qemu/optee_os/lib/libutee/tee_api.c:148
    171c:	a9be7bfd 	stp	x29, x30, [sp,#-32]!
    1720:	910003fd 	mov	x29, sp
/home/lagadanu/Desktop/qemu/optee_os/lib/libutee/tee_api.c:150
    1724:	910073a0 	add	x0, x29, #0x1c
    1728:	94000dae 	bl	4de0 <utee_get_cancellation_flag>
/home/lagadanu/Desktop/qemu/optee_os/lib/libutee/tee_api.c:152
    172c:	34000040 	cbz	w0, 1734 <TEE_GetCancellationFlag+0x18>
/home/lagadanu/Desktop/qemu/optee_os/lib/libutee/tee_api.c:153
    1730:	b9001fbf 	str	wzr, [x29,#28]
/home/lagadanu/Desktop/qemu/optee_os/lib/libutee/tee_api.c:154
    1734:	b9401fa0 	ldr	w0, [x29,#28]
/home/lagadanu/Desktop/qemu/optee_os/lib/libutee/tee_api.c:155
    1738:	a8c27bfd 	ldp	x29, x30, [sp],#32
/home/lagadanu/Desktop/qemu/optee_os/lib/libutee/tee_api.c:154
    173c:	7100001f 	cmp	w0, #0x0
/home/lagadanu/Desktop/qemu/optee_os/lib/libutee/tee_api.c:155
    1740:	1a9f07e0 	cset	w0, ne
    1744:	d65f03c0 	ret

0000000000001748 <TEE_UnmaskCancellation>:
TEE_UnmaskCancellation():
/home/lagadanu/Desktop/qemu/optee_os/lib/libutee/tee_api.c:158
    1748:	a9be7bfd 	stp	x29, x30, [sp,#-32]!
    174c:	910003fd 	mov	x29, sp
/home/lagadanu/Desktop/qemu/optee_os/lib/libutee/tee_api.c:160
    1750:	910073a0 	add	x0, x29, #0x1c
    1754:	94000da9 	bl	4df8 <utee_unmask_cancellation>
/home/lagadanu/Desktop/qemu/optee_os/lib/libutee/tee_api.c:162
    1758:	34000040 	cbz	w0, 1760 <TEE_UnmaskCancellation+0x18>
/home/lagadanu/Desktop/qemu/optee_os/lib/libutee/tee_api.c:163
    175c:	94000cd3 	bl	4aa8 <TEE_Panic>
/home/lagadanu/Desktop/qemu/optee_os/lib/libutee/tee_api.c:164
    1760:	b9401fa0 	ldr	w0, [x29,#28]
/home/lagadanu/Desktop/qemu/optee_os/lib/libutee/tee_api.c:165
    1764:	a8c27bfd 	ldp	x29, x30, [sp],#32
/home/lagadanu/Desktop/qemu/optee_os/lib/libutee/tee_api.c:164
    1768:	7100001f 	cmp	w0, #0x0
/home/lagadanu/Desktop/qemu/optee_os/lib/libutee/tee_api.c:165
    176c:	1a9f07e0 	cset	w0, ne
    1770:	d65f03c0 	ret

0000000000001774 <TEE_MaskCancellation>:
TEE_MaskCancellation():
/home/lagadanu/Desktop/qemu/optee_os/lib/libutee/tee_api.c:168
    1774:	a9be7bfd 	stp	x29, x30, [sp,#-32]!
    1778:	910003fd 	mov	x29, sp
/home/lagadanu/Desktop/qemu/optee_os/lib/libutee/tee_api.c:170
    177c:	910073a0 	add	x0, x29, #0x1c
    1780:	94000da1 	bl	4e04 <utee_mask_cancellation>
/home/lagadanu/Desktop/qemu/optee_os/lib/libutee/tee_api.c:172
    1784:	34000040 	cbz	w0, 178c <TEE_MaskCancellation+0x18>
/home/lagadanu/Desktop/qemu/optee_os/lib/libutee/tee_api.c:173
    1788:	94000cc8 	bl	4aa8 <TEE_Panic>
/home/lagadanu/Desktop/qemu/optee_os/lib/libutee/tee_api.c:174
    178c:	b9401fa0 	ldr	w0, [x29,#28]
/home/lagadanu/Desktop/qemu/optee_os/lib/libutee/tee_api.c:175
    1790:	a8c27bfd 	ldp	x29, x30, [sp],#32
/home/lagadanu/Desktop/qemu/optee_os/lib/libutee/tee_api.c:174
    1794:	7100001f 	cmp	w0, #0x0
/home/lagadanu/Desktop/qemu/optee_os/lib/libutee/tee_api.c:175
    1798:	1a9f07e0 	cset	w0, ne
    179c:	d65f03c0 	ret

00000000000017a0 <TEE_CheckMemoryAccessRights>:
TEE_CheckMemoryAccessRights():
/home/lagadanu/Desktop/qemu/optee_os/lib/libutee/tee_api.c:184
    17a0:	34000062 	cbz	w2, 17ac <TEE_CheckMemoryAccessRights+0xc>
/home/lagadanu/Desktop/qemu/optee_os/lib/libutee/tee_api.c:188
    17a4:	2a0203e2 	mov	w2, w2
    17a8:	14000d91 	b	4dec <utee_check_access_rights>
/home/lagadanu/Desktop/qemu/optee_os/lib/libutee/tee_api.c:200
    17ac:	52800000 	mov	w0, #0x0                   	// #0
    17b0:	d65f03c0 	ret

00000000000017b4 <TEE_SetInstanceData>:
TEE_SetInstanceData():
/home/lagadanu/Desktop/qemu/optee_os/lib/libutee/tee_api.c:204
    17b4:	900000a1 	adrp	x1, 15000 <ta_heap+0x7e98>
    17b8:	f900b420 	str	x0, [x1,#360]
    17bc:	d65f03c0 	ret

00000000000017c0 <TEE_GetInstanceData>:
TEE_GetInstanceData():
/home/lagadanu/Desktop/qemu/optee_os/lib/libutee/tee_api.c:210
    17c0:	900000a0 	adrp	x0, 15000 <ta_heap+0x7e98>
    17c4:	f940b400 	ldr	x0, [x0,#360]
    17c8:	d65f03c0 	ret

00000000000017cc <TEE_MemMove>:
TEE_MemMove():
/home/lagadanu/Desktop/qemu/optee_os/lib/libutee/tee_api.c:214
    17cc:	2a0203e2 	mov	w2, w2
    17d0:	14002352 	b	a518 <memmove>

00000000000017d4 <TEE_MemCompare>:
TEE_MemCompare():
/home/lagadanu/Desktop/qemu/optee_os/lib/libutee/tee_api.c:219
    17d4:	2a0203e2 	mov	w2, w2
    17d8:	14002343 	b	a4e4 <memcmp>

00000000000017dc <TEE_MemFill>:
TEE_MemFill():
/home/lagadanu/Desktop/qemu/optee_os/lib/libutee/tee_api.c:224
    17dc:	2a0203e2 	mov	w2, w2
    17e0:	14002361 	b	a564 <memset>

00000000000017e4 <TEE_GetSystemTime>:
TEE_GetSystemTime():
/home/lagadanu/Desktop/qemu/optee_os/lib/libutee/tee_api.c:230
    17e4:	a9bf7bfd 	stp	x29, x30, [sp,#-16]!
/home/lagadanu/Desktop/qemu/optee_os/lib/libutee/tee_api.c:231
    17e8:	aa0003e1 	mov	x1, x0
    17ec:	d2800000 	mov	x0, #0x0                   	// #0
/home/lagadanu/Desktop/qemu/optee_os/lib/libutee/tee_api.c:230
    17f0:	910003fd 	mov	x29, sp
/home/lagadanu/Desktop/qemu/optee_os/lib/libutee/tee_api.c:231
    17f4:	94000d8a 	bl	4e1c <utee_get_time>
/home/lagadanu/Desktop/qemu/optee_os/lib/libutee/tee_api.c:233
    17f8:	34000060 	cbz	w0, 1804 <TEE_GetSystemTime+0x20>
/home/lagadanu/Desktop/qemu/optee_os/lib/libutee/tee_api.c:235
    17fc:	a8c17bfd 	ldp	x29, x30, [sp],#16
/home/lagadanu/Desktop/qemu/optee_os/lib/libutee/tee_api.c:234
    1800:	14000caa 	b	4aa8 <TEE_Panic>
/home/lagadanu/Desktop/qemu/optee_os/lib/libutee/tee_api.c:235
    1804:	a8c17bfd 	ldp	x29, x30, [sp],#16
    1808:	d65f03c0 	ret

000000000000180c <TEE_Wait>:
TEE_Wait():
/home/lagadanu/Desktop/qemu/optee_os/lib/libutee/tee_api.c:238
    180c:	a9be7bfd 	stp	x29, x30, [sp,#-32]!
/home/lagadanu/Desktop/qemu/optee_os/lib/libutee/tee_api.c:239
    1810:	2a0003e0 	mov	w0, w0
/home/lagadanu/Desktop/qemu/optee_os/lib/libutee/tee_api.c:238
    1814:	910003fd 	mov	x29, sp
    1818:	f9000bf3 	str	x19, [sp,#16]
/home/lagadanu/Desktop/qemu/optee_os/lib/libutee/tee_api.c:239
    181c:	94000d7d 	bl	4e10 <utee_wait>
/home/lagadanu/Desktop/qemu/optee_os/lib/libutee/tee_api.c:241
    1820:	7100001f 	cmp	w0, #0x0
    1824:	129fffa1 	mov	w1, #0xffff0002            	// #-65534
/home/lagadanu/Desktop/qemu/optee_os/lib/libutee/tee_api.c:239
    1828:	2a0003f3 	mov	w19, w0
/home/lagadanu/Desktop/qemu/optee_os/lib/libutee/tee_api.c:241
    182c:	7a411004 	ccmp	w0, w1, #0x4, ne
    1830:	54000040 	b.eq	1838 <TEE_Wait+0x2c>
/home/lagadanu/Desktop/qemu/optee_os/lib/libutee/tee_api.c:242
    1834:	94000c9d 	bl	4aa8 <TEE_Panic>
/home/lagadanu/Desktop/qemu/optee_os/lib/libutee/tee_api.c:245
    1838:	2a1303e0 	mov	w0, w19
    183c:	f9400bf3 	ldr	x19, [sp,#16]
    1840:	a8c27bfd 	ldp	x29, x30, [sp],#32
    1844:	d65f03c0 	ret

0000000000001848 <TEE_GetTAPersistentTime>:
TEE_GetTAPersistentTime():
/home/lagadanu/Desktop/qemu/optee_os/lib/libutee/tee_api.c:248
    1848:	a9be7bfd 	stp	x29, x30, [sp,#-32]!
/home/lagadanu/Desktop/qemu/optee_os/lib/libutee/tee_api.c:251
    184c:	aa0003e1 	mov	x1, x0
/home/lagadanu/Desktop/qemu/optee_os/lib/libutee/tee_api.c:248
    1850:	910003fd 	mov	x29, sp
    1854:	a90153f3 	stp	x19, x20, [sp,#16]
    1858:	aa0003f4 	mov	x20, x0
/home/lagadanu/Desktop/qemu/optee_os/lib/libutee/tee_api.c:251
    185c:	d2800020 	mov	x0, #0x1                   	// #1
    1860:	94000d6f 	bl	4e1c <utee_get_time>
/home/lagadanu/Desktop/qemu/optee_os/lib/libutee/tee_api.c:253
    1864:	7100001f 	cmp	w0, #0x0
/home/lagadanu/Desktop/qemu/optee_os/lib/libutee/tee_api.c:251
    1868:	2a0003f3 	mov	w19, w0
/home/lagadanu/Desktop/qemu/optee_os/lib/libutee/tee_api.c:253
    186c:	1a9f07e1 	cset	w1, ne
    1870:	1299fe00 	mov	w0, #0xffff300f            	// #-53233
    1874:	6b00027f 	cmp	w19, w0
    1878:	1a9f07e0 	cset	w0, ne
    187c:	6a00003f 	tst	w1, w0
    1880:	54000040 	b.eq	1888 <TEE_GetTAPersistentTime+0x40>
/home/lagadanu/Desktop/qemu/optee_os/lib/libutee/tee_api.c:255
    1884:	29007e9f 	stp	wzr, wzr, [x20]
/home/lagadanu/Desktop/qemu/optee_os/lib/libutee/tee_api.c:259
    1888:	11402e62 	add	w2, w19, #0xb, lsl #12
    188c:	7100045f 	cmp	w2, #0x1
    1890:	1a9f97e2 	cset	w2, hi
/home/lagadanu/Desktop/qemu/optee_os/lib/libutee/tee_api.c:258
    1894:	6a02003f 	tst	w1, w2
    1898:	54000100 	b.eq	18b8 <TEE_GetTAPersistentTime+0x70>
/home/lagadanu/Desktop/qemu/optee_os/lib/libutee/tee_api.c:261
    189c:	129ffe61 	mov	w1, #0xffff000c            	// #-65524
    18a0:	6b01027f 	cmp	w19, w1
    18a4:	1a9f07e1 	cset	w1, ne
    18a8:	6a01001f 	tst	w0, w1
    18ac:	54000060 	b.eq	18b8 <TEE_GetTAPersistentTime+0x70>
/home/lagadanu/Desktop/qemu/optee_os/lib/libutee/tee_api.c:263
    18b0:	2a1303e0 	mov	w0, w19
    18b4:	94000c7d 	bl	4aa8 <TEE_Panic>
/home/lagadanu/Desktop/qemu/optee_os/lib/libutee/tee_api.c:266
    18b8:	2a1303e0 	mov	w0, w19
    18bc:	a94153f3 	ldp	x19, x20, [sp,#16]
    18c0:	a8c27bfd 	ldp	x29, x30, [sp],#32
    18c4:	d65f03c0 	ret

00000000000018c8 <TEE_SetTAPersistentTime>:
TEE_SetTAPersistentTime():
/home/lagadanu/Desktop/qemu/optee_os/lib/libutee/tee_api.c:269
    18c8:	a9be7bfd 	stp	x29, x30, [sp,#-32]!
    18cc:	910003fd 	mov	x29, sp
    18d0:	f9000bf3 	str	x19, [sp,#16]
/home/lagadanu/Desktop/qemu/optee_os/lib/libutee/tee_api.c:272
    18d4:	94000d55 	bl	4e28 <utee_set_ta_time>
/home/lagadanu/Desktop/qemu/optee_os/lib/libutee/tee_api.c:275
    18d8:	7100001f 	cmp	w0, #0x0
    18dc:	129ffe61 	mov	w1, #0xffff000c            	// #-65524
    18e0:	7a411004 	ccmp	w0, w1, #0x4, ne
/home/lagadanu/Desktop/qemu/optee_os/lib/libutee/tee_api.c:272
    18e4:	2a0003f3 	mov	w19, w0
/home/lagadanu/Desktop/qemu/optee_os/lib/libutee/tee_api.c:275
    18e8:	1299f7c1 	mov	w1, #0xffff3041            	// #-53183
    18ec:	7a411004 	ccmp	w0, w1, #0x4, ne
    18f0:	54000040 	b.eq	18f8 <TEE_SetTAPersistentTime+0x30>
/home/lagadanu/Desktop/qemu/optee_os/lib/libutee/tee_api.c:277
    18f4:	94000c6d 	bl	4aa8 <TEE_Panic>
/home/lagadanu/Desktop/qemu/optee_os/lib/libutee/tee_api.c:280
    18f8:	2a1303e0 	mov	w0, w19
    18fc:	f9400bf3 	ldr	x19, [sp,#16]
    1900:	a8c27bfd 	ldp	x29, x30, [sp],#32
    1904:	d65f03c0 	ret

0000000000001908 <TEE_GetREETime>:
TEE_GetREETime():
/home/lagadanu/Desktop/qemu/optee_os/lib/libutee/tee_api.c:283
    1908:	a9bf7bfd 	stp	x29, x30, [sp,#-16]!
/home/lagadanu/Desktop/qemu/optee_os/lib/libutee/tee_api.c:284
    190c:	aa0003e1 	mov	x1, x0
    1910:	d2800040 	mov	x0, #0x2                   	// #2
/home/lagadanu/Desktop/qemu/optee_os/lib/libutee/tee_api.c:283
    1914:	910003fd 	mov	x29, sp
/home/lagadanu/Desktop/qemu/optee_os/lib/libutee/tee_api.c:284
    1918:	94000d41 	bl	4e1c <utee_get_time>
/home/lagadanu/Desktop/qemu/optee_os/lib/libutee/tee_api.c:286
    191c:	34000060 	cbz	w0, 1928 <TEE_GetREETime+0x20>
/home/lagadanu/Desktop/qemu/optee_os/lib/libutee/tee_api.c:288
    1920:	a8c17bfd 	ldp	x29, x30, [sp],#16
/home/lagadanu/Desktop/qemu/optee_os/lib/libutee/tee_api.c:287
    1924:	14000c61 	b	4aa8 <TEE_Panic>
/home/lagadanu/Desktop/qemu/optee_os/lib/libutee/tee_api.c:288
    1928:	a8c17bfd 	ldp	x29, x30, [sp],#16
    192c:	d65f03c0 	ret

0000000000001930 <TEE_Malloc>:
TEE_Malloc():
/home/lagadanu/Desktop/qemu/optee_os/lib/libutee/tee_api.c:292
    1930:	35000081 	cbnz	w1, 1940 <TEE_Malloc+0x10>
/home/lagadanu/Desktop/qemu/optee_os/lib/libutee/tee_api.c:293
    1934:	2a0003e1 	mov	w1, w0
    1938:	d2800020 	mov	x0, #0x1                   	// #1
    193c:	140020d3 	b	9c88 <calloc>
/home/lagadanu/Desktop/qemu/optee_os/lib/libutee/tee_api.c:294
    1940:	52b00002 	mov	w2, #0x80000000            	// #-2147483648
    1944:	6b02003f 	cmp	w1, w2
    1948:	54000061 	b.ne	1954 <TEE_Malloc+0x24>
/home/lagadanu/Desktop/qemu/optee_os/lib/libutee/tee_api.c:295
    194c:	2a0003e0 	mov	w0, w0
    1950:	140020c8 	b	9c70 <malloc>
/home/lagadanu/Desktop/qemu/optee_os/lib/libutee/tee_api.c:291
    1954:	a9bf7bfd 	stp	x29, x30, [sp,#-16]!
    1958:	2a0103e5 	mov	w5, w1
/home/lagadanu/Desktop/qemu/optee_os/lib/libutee/tee_api.c:297
    195c:	52800023 	mov	w3, #0x1                   	// #1
    1960:	52800022 	mov	w2, #0x1                   	// #1
/home/lagadanu/Desktop/qemu/optee_os/lib/libutee/tee_api.c:291
    1964:	910003fd 	mov	x29, sp
/home/lagadanu/Desktop/qemu/optee_os/lib/libutee/tee_api.c:297
    1968:	52802521 	mov	w1, #0x129                 	// #297
    196c:	d0000044 	adrp	x4, b000 <PRIME_TABLE+0x7f0>
    1970:	b0000040 	adrp	x0, a000 <memalign+0x2ac>
    1974:	911da084 	add	x4, x4, #0x768
    1978:	911f4000 	add	x0, x0, #0x7d0
    197c:	97fffaaf 	bl	438 <trace_printf>
/home/lagadanu/Desktop/qemu/optee_os/lib/libutee/tee_api.c:300
    1980:	d2800000 	mov	x0, #0x0                   	// #0
    1984:	a8c17bfd 	ldp	x29, x30, [sp],#16
    1988:	d65f03c0 	ret

000000000000198c <TEE_Realloc>:
TEE_Realloc():
/home/lagadanu/Desktop/qemu/optee_os/lib/libutee/tee_api.c:304
    198c:	2a0103e1 	mov	w1, w1
    1990:	140020da 	b	9cf8 <realloc>

0000000000001994 <TEE_Free>:
TEE_Free():
/home/lagadanu/Desktop/qemu/optee_os/lib/libutee/tee_api.c:309
    1994:	140020b8 	b	9c74 <free>

0000000000001998 <TEE_CacheClean>:
TEE_CacheClean():
/home/lagadanu/Desktop/qemu/optee_os/lib/libutee/tee_api.c:315
    1998:	d2800002 	mov	x2, #0x0                   	// #0
    199c:	14000dcb 	b	50c8 <utee_cache_operation>

00000000000019a0 <TEE_CacheFlush>:
TEE_CacheFlush():
/home/lagadanu/Desktop/qemu/optee_os/lib/libutee/tee_api.c:319
    19a0:	d2800022 	mov	x2, #0x1                   	// #1
    19a4:	14000dc9 	b	50c8 <utee_cache_operation>

00000000000019a8 <TEE_CacheInvalidate>:
TEE_CacheInvalidate():
/home/lagadanu/Desktop/qemu/optee_os/lib/libutee/tee_api.c:324
    19a8:	d2800042 	mov	x2, #0x2                   	// #2
    19ac:	14000dc7 	b	50c8 <utee_cache_operation>

00000000000019b0 <__utee_from_attr>:
__utee_from_attr():
/home/lagadanu/Desktop/qemu/optee_os/lib/libutee/tee_api_objects.c:19
    19b0:	52800303 	mov	w3, #0x18                  	// #24
    19b4:	9ba30442 	umaddl	x2, w2, w3, x1
/home/lagadanu/Desktop/qemu/optee_os/lib/libutee/tee_api_objects.c:22 (discriminator 1)
    19b8:	eb02003f 	cmp	x1, x2
    19bc:	54000041 	b.ne	19c4 <__utee_from_attr+0x14>
/home/lagadanu/Desktop/qemu/optee_os/lib/libutee/tee_api_objects.c:32
    19c0:	d65f03c0 	ret
/home/lagadanu/Desktop/qemu/optee_os/lib/libutee/tee_api_objects.c:23
    19c4:	b9400023 	ldr	w3, [x1]
    19c8:	b9001003 	str	w3, [x0,#16]
/home/lagadanu/Desktop/qemu/optee_os/lib/libutee/tee_api_objects.c:24
    19cc:	36e80103 	tbz	w3, #29, 19ec <__utee_from_attr+0x3c>
/home/lagadanu/Desktop/qemu/optee_os/lib/libutee/tee_api_objects.c:25
    19d0:	b9400823 	ldr	w3, [x1,#8]
    19d4:	f9000003 	str	x3, [x0]
/home/lagadanu/Desktop/qemu/optee_os/lib/libutee/tee_api_objects.c:26
    19d8:	b9400c23 	ldr	w3, [x1,#12]
/home/lagadanu/Desktop/qemu/optee_os/lib/libutee/tee_api_objects.c:29
    19dc:	f9000403 	str	x3, [x0,#8]
    19e0:	91006021 	add	x1, x1, #0x18
    19e4:	91006000 	add	x0, x0, #0x18
    19e8:	17fffff4 	b	19b8 <__utee_from_attr+0x8>
/home/lagadanu/Desktop/qemu/optee_os/lib/libutee/tee_api_objects.c:28
    19ec:	f9400423 	ldr	x3, [x1,#8]
    19f0:	f9000003 	str	x3, [x0]
/home/lagadanu/Desktop/qemu/optee_os/lib/libutee/tee_api_objects.c:29
    19f4:	b9401023 	ldr	w3, [x1,#16]
    19f8:	17fffff9 	b	19dc <__utee_from_attr+0x2c>

00000000000019fc <TEE_GetObjectInfo>:
TEE_GetObjectInfo():
/home/lagadanu/Desktop/qemu/optee_os/lib/libutee/tee_api_objects.c:42
    19fc:	a9be7bfd 	stp	x29, x30, [sp,#-32]!
    1a00:	910003fd 	mov	x29, sp
    1a04:	f9000bf3 	str	x19, [sp,#16]
    1a08:	aa0103f3 	mov	x19, x1
/home/lagadanu/Desktop/qemu/optee_os/lib/libutee/tee_api_objects.c:45
    1a0c:	94000d25 	bl	4ea0 <utee_cryp_obj_get_info>
/home/lagadanu/Desktop/qemu/optee_os/lib/libutee/tee_api_objects.c:47
    1a10:	34000040 	cbz	w0, 1a18 <TEE_GetObjectInfo+0x1c>
/home/lagadanu/Desktop/qemu/optee_os/lib/libutee/tee_api_objects.c:48
    1a14:	94000c25 	bl	4aa8 <TEE_Panic>
/home/lagadanu/Desktop/qemu/optee_os/lib/libutee/tee_api_objects.c:50
    1a18:	b9400261 	ldr	w1, [x19]
    1a1c:	528017c0 	mov	w0, #0xbe                  	// #190
    1a20:	72b40000 	movk	w0, #0xa000, lsl #16
    1a24:	6b00003f 	cmp	w1, w0
    1a28:	54000081 	b.ne	1a38 <TEE_GetObjectInfo+0x3c>
/home/lagadanu/Desktop/qemu/optee_os/lib/libutee/tee_api_objects.c:52
    1a2c:	2900fe7f 	stp	wzr, wzr, [x19,#4]
/home/lagadanu/Desktop/qemu/optee_os/lib/libutee/tee_api_objects.c:54
    1a30:	2901fe7f 	stp	wzr, wzr, [x19,#12]
/home/lagadanu/Desktop/qemu/optee_os/lib/libutee/tee_api_objects.c:56
    1a34:	2902fe7f 	stp	wzr, wzr, [x19,#20]
/home/lagadanu/Desktop/qemu/optee_os/lib/libutee/tee_api_objects.c:58
    1a38:	f9400bf3 	ldr	x19, [sp,#16]
    1a3c:	a8c27bfd 	ldp	x29, x30, [sp],#32
    1a40:	d65f03c0 	ret

0000000000001a44 <TEE_GetObjectInfo1>:
TEE_GetObjectInfo1():
/home/lagadanu/Desktop/qemu/optee_os/lib/libutee/tee_api_objects.c:61
    1a44:	a9be7bfd 	stp	x29, x30, [sp,#-32]!
    1a48:	910003fd 	mov	x29, sp
    1a4c:	f9000bf3 	str	x19, [sp,#16]
/home/lagadanu/Desktop/qemu/optee_os/lib/libutee/tee_api_objects.c:64
    1a50:	94000d14 	bl	4ea0 <utee_cryp_obj_get_info>
/home/lagadanu/Desktop/qemu/optee_os/lib/libutee/tee_api_objects.c:67
    1a54:	52800021 	mov	w1, #0x1                   	// #1
    1a58:	121e7802 	and	w2, w0, #0xfffffffd
    1a5c:	7100001f 	cmp	w0, #0x0
    1a60:	72be0201 	movk	w1, #0xf010, lsl #16
/home/lagadanu/Desktop/qemu/optee_os/lib/libutee/tee_api_objects.c:64
    1a64:	2a0003f3 	mov	w19, w0
/home/lagadanu/Desktop/qemu/optee_os/lib/libutee/tee_api_objects.c:67
    1a68:	7a411044 	ccmp	w2, w1, #0x4, ne
    1a6c:	54000040 	b.eq	1a74 <TEE_GetObjectInfo1+0x30>
/home/lagadanu/Desktop/qemu/optee_os/lib/libutee/tee_api_objects.c:69
    1a70:	94000c0e 	bl	4aa8 <TEE_Panic>
/home/lagadanu/Desktop/qemu/optee_os/lib/libutee/tee_api_objects.c:72
    1a74:	2a1303e0 	mov	w0, w19
    1a78:	f9400bf3 	ldr	x19, [sp,#16]
    1a7c:	a8c27bfd 	ldp	x29, x30, [sp],#32
    1a80:	d65f03c0 	ret

0000000000001a84 <TEE_RestrictObjectUsage1>:
TEE_RestrictObjectUsage1():
/home/lagadanu/Desktop/qemu/optee_os/lib/libutee/tee_api_objects.c:96
    1a84:	a9be7bfd 	stp	x29, x30, [sp,#-32]!
/home/lagadanu/Desktop/qemu/optee_os/lib/libutee/tee_api_objects.c:99
    1a88:	2a0103e1 	mov	w1, w1
/home/lagadanu/Desktop/qemu/optee_os/lib/libutee/tee_api_objects.c:96
    1a8c:	910003fd 	mov	x29, sp
    1a90:	f9000bf3 	str	x19, [sp,#16]
/home/lagadanu/Desktop/qemu/optee_os/lib/libutee/tee_api_objects.c:99
    1a94:	94000d06 	bl	4eac <utee_cryp_obj_restrict_usage>
/home/lagadanu/Desktop/qemu/optee_os/lib/libutee/tee_api_objects.c:102
    1a98:	52800021 	mov	w1, #0x1                   	// #1
    1a9c:	121e7802 	and	w2, w0, #0xfffffffd
    1aa0:	7100001f 	cmp	w0, #0x0
    1aa4:	72be0201 	movk	w1, #0xf010, lsl #16
/home/lagadanu/Desktop/qemu/optee_os/lib/libutee/tee_api_objects.c:99
    1aa8:	2a0003f3 	mov	w19, w0
/home/lagadanu/Desktop/qemu/optee_os/lib/libutee/tee_api_objects.c:102
    1aac:	7a411044 	ccmp	w2, w1, #0x4, ne
    1ab0:	54000040 	b.eq	1ab8 <TEE_RestrictObjectUsage1+0x34>
/home/lagadanu/Desktop/qemu/optee_os/lib/libutee/tee_api_objects.c:104
    1ab4:	94000bfd 	bl	4aa8 <TEE_Panic>
/home/lagadanu/Desktop/qemu/optee_os/lib/libutee/tee_api_objects.c:107
    1ab8:	2a1303e0 	mov	w0, w19
    1abc:	f9400bf3 	ldr	x19, [sp,#16]
    1ac0:	a8c27bfd 	ldp	x29, x30, [sp],#32
    1ac4:	d65f03c0 	ret

0000000000001ac8 <TEE_RestrictObjectUsage>:
TEE_RestrictObjectUsage():
/home/lagadanu/Desktop/qemu/optee_os/lib/libutee/tee_api_objects.c:81
    1ac8:	a9bc7bfd 	stp	x29, x30, [sp,#-64]!
    1acc:	910003fd 	mov	x29, sp
    1ad0:	a90153f3 	stp	x19, x20, [sp,#16]
    1ad4:	aa0003f3 	mov	x19, x0
    1ad8:	2a0103f4 	mov	w20, w1
/home/lagadanu/Desktop/qemu/optee_os/lib/libutee/tee_api_objects.c:85
    1adc:	910083a1 	add	x1, x29, #0x20
    1ae0:	94000cf0 	bl	4ea0 <utee_cryp_obj_get_info>
/home/lagadanu/Desktop/qemu/optee_os/lib/libutee/tee_api_objects.c:86
    1ae4:	b94023a1 	ldr	w1, [x29,#32]
    1ae8:	528017c0 	mov	w0, #0xbe                  	// #190
    1aec:	72b40000 	movk	w0, #0xa000, lsl #16
    1af0:	6b00003f 	cmp	w1, w0
    1af4:	540000c0 	b.eq	1b0c <TEE_RestrictObjectUsage+0x44>
/home/lagadanu/Desktop/qemu/optee_os/lib/libutee/tee_api_objects.c:89
    1af8:	2a1403e1 	mov	w1, w20
    1afc:	aa1303e0 	mov	x0, x19
    1b00:	97ffffe1 	bl	1a84 <TEE_RestrictObjectUsage1>
/home/lagadanu/Desktop/qemu/optee_os/lib/libutee/tee_api_objects.c:91
    1b04:	34000040 	cbz	w0, 1b0c <TEE_RestrictObjectUsage+0x44>
/home/lagadanu/Desktop/qemu/optee_os/lib/libutee/tee_api_objects.c:92
    1b08:	94000be8 	bl	4aa8 <TEE_Panic>
/home/lagadanu/Desktop/qemu/optee_os/lib/libutee/tee_api_objects.c:93
    1b0c:	a94153f3 	ldp	x19, x20, [sp,#16]
    1b10:	a8c47bfd 	ldp	x29, x30, [sp],#64
    1b14:	d65f03c0 	ret

0000000000001b18 <TEE_GetObjectBufferAttribute>:
TEE_GetObjectBufferAttribute():
/home/lagadanu/Desktop/qemu/optee_os/lib/libutee/tee_api_objects.c:112
    1b18:	a9b97bfd 	stp	x29, x30, [sp,#-112]!
    1b1c:	910003fd 	mov	x29, sp
    1b20:	a90153f3 	stp	x19, x20, [sp,#16]
    1b24:	aa0303f4 	mov	x20, x3
    1b28:	a9025bf5 	stp	x21, x22, [sp,#32]
    1b2c:	aa0003f6 	mov	x22, x0
    1b30:	f9001bf7 	str	x23, [sp,#48]
    1b34:	2a0103f5 	mov	w21, w1
    1b38:	aa0203f7 	mov	x23, x2
/home/lagadanu/Desktop/qemu/optee_os/lib/libutee/tee_api_objects.c:117
    1b3c:	910143a1 	add	x1, x29, #0x50
    1b40:	94000cd8 	bl	4ea0 <utee_cryp_obj_get_info>
    1b44:	2a0003f3 	mov	w19, w0
/home/lagadanu/Desktop/qemu/optee_os/lib/libutee/tee_api_objects.c:118
    1b48:	350001a0 	cbnz	w0, 1b7c <TEE_GetObjectBufferAttribute+0x64>
/home/lagadanu/Desktop/qemu/optee_os/lib/libutee/tee_api_objects.c:123
    1b4c:	129fff33 	mov	w19, #0xffff0006            	// #-65530
/home/lagadanu/Desktop/qemu/optee_os/lib/libutee/tee_api_objects.c:122
    1b50:	37e80175 	tbnz	w21, #29, 1b7c <TEE_GetObjectBufferAttribute+0x64>
/home/lagadanu/Desktop/qemu/optee_os/lib/libutee/tee_api_objects.c:127
    1b54:	9101c3a3 	add	x3, x29, #0x70
    1b58:	b9400280 	ldr	w0, [x20]
/home/lagadanu/Desktop/qemu/optee_os/lib/libutee/tee_api_objects.c:128
    1b5c:	aa1703e2 	mov	x2, x23
    1b60:	2a1503e1 	mov	w1, w21
/home/lagadanu/Desktop/qemu/optee_os/lib/libutee/tee_api_objects.c:127
    1b64:	f81d8c60 	str	x0, [x3,#-40]!
/home/lagadanu/Desktop/qemu/optee_os/lib/libutee/tee_api_objects.c:128
    1b68:	aa1603e0 	mov	x0, x22
    1b6c:	94000cd3 	bl	4eb8 <utee_cryp_obj_get_attr>
    1b70:	2a0003f3 	mov	w19, w0
/home/lagadanu/Desktop/qemu/optee_os/lib/libutee/tee_api_objects.c:130
    1b74:	f94027a0 	ldr	x0, [x29,#72]
    1b78:	b9000280 	str	w0, [x20]
/home/lagadanu/Desktop/qemu/optee_os/lib/libutee/tee_api_objects.c:134
    1b7c:	529fff00 	mov	w0, #0xfff8                	// #65528
    1b80:	0b000260 	add	w0, w19, w0
/home/lagadanu/Desktop/qemu/optee_os/lib/libutee/tee_api_objects.c:133
    1b84:	721c781f 	tst	w0, #0xfffffff7
    1b88:	7a401a64 	ccmp	w19, #0x0, #0x4, ne
    1b8c:	54000100 	b.eq	1bac <TEE_GetObjectBufferAttribute+0x94>
/home/lagadanu/Desktop/qemu/optee_os/lib/libutee/tee_api_objects.c:136
    1b90:	121e7a61 	and	w1, w19, #0xfffffffd
    1b94:	52800020 	mov	w0, #0x1                   	// #1
    1b98:	72be0200 	movk	w0, #0xf010, lsl #16
    1b9c:	6b00003f 	cmp	w1, w0
    1ba0:	54000060 	b.eq	1bac <TEE_GetObjectBufferAttribute+0x94>
/home/lagadanu/Desktop/qemu/optee_os/lib/libutee/tee_api_objects.c:138
    1ba4:	2a1303e0 	mov	w0, w19
    1ba8:	94000bc0 	bl	4aa8 <TEE_Panic>
/home/lagadanu/Desktop/qemu/optee_os/lib/libutee/tee_api_objects.c:141
    1bac:	2a1303e0 	mov	w0, w19
    1bb0:	f9401bf7 	ldr	x23, [sp,#48]
    1bb4:	a94153f3 	ldp	x19, x20, [sp,#16]
    1bb8:	a9425bf5 	ldp	x21, x22, [sp,#32]
    1bbc:	a8c77bfd 	ldp	x29, x30, [sp],#112
    1bc0:	d65f03c0 	ret

0000000000001bc4 <TEE_GetObjectValueAttribute>:
TEE_GetObjectValueAttribute():
/home/lagadanu/Desktop/qemu/optee_os/lib/libutee/tee_api_objects.c:146
    1bc4:	a9b97bfd 	stp	x29, x30, [sp,#-112]!
    1bc8:	910003fd 	mov	x29, sp
    1bcc:	a9025bf5 	stp	x21, x22, [sp,#32]
    1bd0:	2a0103f6 	mov	w22, w1
/home/lagadanu/Desktop/qemu/optee_os/lib/libutee/tee_api_objects.c:150
    1bd4:	d2800101 	mov	x1, #0x8                   	// #8
/home/lagadanu/Desktop/qemu/optee_os/lib/libutee/tee_api_objects.c:146
    1bd8:	a90153f3 	stp	x19, x20, [sp,#16]
/home/lagadanu/Desktop/qemu/optee_os/lib/libutee/tee_api_objects.c:150
    1bdc:	f90027a1 	str	x1, [x29,#72]
/home/lagadanu/Desktop/qemu/optee_os/lib/libutee/tee_api_objects.c:146
    1be0:	aa0203f5 	mov	x21, x2
    1be4:	f9001bf7 	str	x23, [sp,#48]
    1be8:	aa0303f4 	mov	x20, x3
/home/lagadanu/Desktop/qemu/optee_os/lib/libutee/tee_api_objects.c:152
    1bec:	910143a1 	add	x1, x29, #0x50
/home/lagadanu/Desktop/qemu/optee_os/lib/libutee/tee_api_objects.c:146
    1bf0:	aa0003f7 	mov	x23, x0
/home/lagadanu/Desktop/qemu/optee_os/lib/libutee/tee_api_objects.c:152
    1bf4:	94000cab 	bl	4ea0 <utee_cryp_obj_get_info>
    1bf8:	2a0003f3 	mov	w19, w0
/home/lagadanu/Desktop/qemu/optee_os/lib/libutee/tee_api_objects.c:153
    1bfc:	35000120 	cbnz	w0, 1c20 <TEE_GetObjectValueAttribute+0x5c>
/home/lagadanu/Desktop/qemu/optee_os/lib/libutee/tee_api_objects.c:158
    1c00:	129fff33 	mov	w19, #0xffff0006            	// #-65530
/home/lagadanu/Desktop/qemu/optee_os/lib/libutee/tee_api_objects.c:157
    1c04:	36e800f6 	tbz	w22, #29, 1c20 <TEE_GetObjectValueAttribute+0x5c>
/home/lagadanu/Desktop/qemu/optee_os/lib/libutee/tee_api_objects.c:162
    1c08:	910123a3 	add	x3, x29, #0x48
    1c0c:	910103a2 	add	x2, x29, #0x40
    1c10:	2a1603e1 	mov	w1, w22
    1c14:	aa1703e0 	mov	x0, x23
    1c18:	94000ca8 	bl	4eb8 <utee_cryp_obj_get_attr>
    1c1c:	2a0003f3 	mov	w19, w0
/home/lagadanu/Desktop/qemu/optee_os/lib/libutee/tee_api_objects.c:166
    1c20:	7100027f 	cmp	w19, #0x0
    1c24:	129ffee0 	mov	w0, #0xffff0008            	// #-65528
    1c28:	7a401264 	ccmp	w19, w0, #0x4, ne
    1c2c:	54000100 	b.eq	1c4c <TEE_GetObjectValueAttribute+0x88>
/home/lagadanu/Desktop/qemu/optee_os/lib/libutee/tee_api_objects.c:168
    1c30:	121e7a61 	and	w1, w19, #0xfffffffd
    1c34:	52800020 	mov	w0, #0x1                   	// #1
    1c38:	72be0200 	movk	w0, #0xf010, lsl #16
    1c3c:	6b00003f 	cmp	w1, w0
    1c40:	54000060 	b.eq	1c4c <TEE_GetObjectValueAttribute+0x88>
/home/lagadanu/Desktop/qemu/optee_os/lib/libutee/tee_api_objects.c:170
    1c44:	2a1303e0 	mov	w0, w19
    1c48:	94000b98 	bl	4aa8 <TEE_Panic>
/home/lagadanu/Desktop/qemu/optee_os/lib/libutee/tee_api_objects.c:172
    1c4c:	f94027a0 	ldr	x0, [x29,#72]
    1c50:	f100201f 	cmp	x0, #0x8
    1c54:	54000060 	b.eq	1c60 <TEE_GetObjectValueAttribute+0x9c>
/home/lagadanu/Desktop/qemu/optee_os/lib/libutee/tee_api_objects.c:173
    1c58:	52800000 	mov	w0, #0x0                   	// #0
    1c5c:	94000b93 	bl	4aa8 <TEE_Panic>
/home/lagadanu/Desktop/qemu/optee_os/lib/libutee/tee_api_objects.c:175
    1c60:	350000f3 	cbnz	w19, 1c7c <TEE_GetObjectValueAttribute+0xb8>
/home/lagadanu/Desktop/qemu/optee_os/lib/libutee/tee_api_objects.c:176
    1c64:	b4000075 	cbz	x21, 1c70 <TEE_GetObjectValueAttribute+0xac>
/home/lagadanu/Desktop/qemu/optee_os/lib/libutee/tee_api_objects.c:177
    1c68:	b94043a0 	ldr	w0, [x29,#64]
    1c6c:	b90002a0 	str	w0, [x21]
/home/lagadanu/Desktop/qemu/optee_os/lib/libutee/tee_api_objects.c:178
    1c70:	b4000074 	cbz	x20, 1c7c <TEE_GetObjectValueAttribute+0xb8>
/home/lagadanu/Desktop/qemu/optee_os/lib/libutee/tee_api_objects.c:179
    1c74:	b94047a0 	ldr	w0, [x29,#68]
    1c78:	b9000280 	str	w0, [x20]
/home/lagadanu/Desktop/qemu/optee_os/lib/libutee/tee_api_objects.c:183
    1c7c:	2a1303e0 	mov	w0, w19
    1c80:	f9401bf7 	ldr	x23, [sp,#48]
    1c84:	a94153f3 	ldp	x19, x20, [sp,#16]
    1c88:	a9425bf5 	ldp	x21, x22, [sp,#32]
    1c8c:	a8c77bfd 	ldp	x29, x30, [sp],#112
    1c90:	d65f03c0 	ret

0000000000001c94 <TEE_CloseObject>:
TEE_CloseObject():
/home/lagadanu/Desktop/qemu/optee_os/lib/libutee/tee_api_objects.c:189
    1c94:	b4000120 	cbz	x0, 1cb8 <TEE_CloseObject+0x24>
/home/lagadanu/Desktop/qemu/optee_os/lib/libutee/tee_api_objects.c:186
    1c98:	a9bf7bfd 	stp	x29, x30, [sp,#-16]!
    1c9c:	910003fd 	mov	x29, sp
/home/lagadanu/Desktop/qemu/optee_os/lib/libutee/tee_api_objects.c:192
    1ca0:	94000c8c 	bl	4ed0 <utee_cryp_obj_close>
/home/lagadanu/Desktop/qemu/optee_os/lib/libutee/tee_api_objects.c:193
    1ca4:	34000060 	cbz	w0, 1cb0 <TEE_CloseObject+0x1c>
/home/lagadanu/Desktop/qemu/optee_os/lib/libutee/tee_api_objects.c:195
    1ca8:	a8c17bfd 	ldp	x29, x30, [sp],#16
/home/lagadanu/Desktop/qemu/optee_os/lib/libutee/tee_api_objects.c:194
    1cac:	14000b7f 	b	4aa8 <TEE_Panic>
/home/lagadanu/Desktop/qemu/optee_os/lib/libutee/tee_api_objects.c:195
    1cb0:	a8c17bfd 	ldp	x29, x30, [sp],#16
    1cb4:	d65f03c0 	ret
    1cb8:	d65f03c0 	ret

0000000000001cbc <TEE_AllocateTransientObject>:
TEE_AllocateTransientObject():
/home/lagadanu/Desktop/qemu/optee_os/lib/libutee/tee_api_objects.c:202
    1cbc:	a9bd7bfd 	stp	x29, x30, [sp,#-48]!
/home/lagadanu/Desktop/qemu/optee_os/lib/libutee/tee_api_objects.c:206
    1cc0:	2a0103e1 	mov	w1, w1
    1cc4:	2a0003e0 	mov	w0, w0
/home/lagadanu/Desktop/qemu/optee_os/lib/libutee/tee_api_objects.c:202
    1cc8:	910003fd 	mov	x29, sp
    1ccc:	a90153f3 	stp	x19, x20, [sp,#16]
    1cd0:	aa0203f4 	mov	x20, x2
/home/lagadanu/Desktop/qemu/optee_os/lib/libutee/tee_api_objects.c:206
    1cd4:	9100b3a2 	add	x2, x29, #0x2c
    1cd8:	94000c7b 	bl	4ec4 <utee_cryp_obj_alloc>
/home/lagadanu/Desktop/qemu/optee_os/lib/libutee/tee_api_objects.c:208
    1cdc:	7100001f 	cmp	w0, #0x0
    1ce0:	129ffe61 	mov	w1, #0xffff000c            	// #-65524
/home/lagadanu/Desktop/qemu/optee_os/lib/libutee/tee_api_objects.c:206
    1ce4:	2a0003f3 	mov	w19, w0
/home/lagadanu/Desktop/qemu/optee_os/lib/libutee/tee_api_objects.c:208
    1ce8:	7a411004 	ccmp	w0, w1, #0x4, ne
    1cec:	54000120 	b.eq	1d10 <TEE_AllocateTransientObject+0x54>
/home/lagadanu/Desktop/qemu/optee_os/lib/libutee/tee_api_objects.c:209
    1cf0:	129ffea1 	mov	w1, #0xffff000a            	// #-65526
    1cf4:	6b01001f 	cmp	w0, w1
    1cf8:	54000040 	b.eq	1d00 <TEE_AllocateTransientObject+0x44>
/home/lagadanu/Desktop/qemu/optee_os/lib/libutee/tee_api_objects.c:211
    1cfc:	94000b6b 	bl	4aa8 <TEE_Panic>
/home/lagadanu/Desktop/qemu/optee_os/lib/libutee/tee_api_objects.c:217
    1d00:	2a1303e0 	mov	w0, w19
    1d04:	a94153f3 	ldp	x19, x20, [sp,#16]
    1d08:	a8c37bfd 	ldp	x29, x30, [sp],#48
    1d0c:	d65f03c0 	ret
/home/lagadanu/Desktop/qemu/optee_os/lib/libutee/tee_api_objects.c:213
    1d10:	35ffff80 	cbnz	w0, 1d00 <TEE_AllocateTransientObject+0x44>
/home/lagadanu/Desktop/qemu/optee_os/lib/libutee/tee_api_objects.c:214
    1d14:	b9402fa0 	ldr	w0, [x29,#44]
    1d18:	f9000280 	str	x0, [x20]
/home/lagadanu/Desktop/qemu/optee_os/lib/libutee/tee_api_objects.c:216
    1d1c:	17fffff9 	b	1d00 <TEE_AllocateTransientObject+0x44>

0000000000001d20 <TEE_FreeTransientObject>:
TEE_FreeTransientObject():
/home/lagadanu/Desktop/qemu/optee_os/lib/libutee/tee_api_objects.c:224
    1d20:	b4000280 	cbz	x0, 1d70 <TEE_FreeTransientObject+0x50>
/home/lagadanu/Desktop/qemu/optee_os/lib/libutee/tee_api_objects.c:220
    1d24:	a9bc7bfd 	stp	x29, x30, [sp,#-64]!
    1d28:	910003fd 	mov	x29, sp
    1d2c:	f9000bf3 	str	x19, [sp,#16]
/home/lagadanu/Desktop/qemu/optee_os/lib/libutee/tee_api_objects.c:227
    1d30:	910083a1 	add	x1, x29, #0x20
    1d34:	aa0003f3 	mov	x19, x0
    1d38:	94000c5a 	bl	4ea0 <utee_cryp_obj_get_info>
/home/lagadanu/Desktop/qemu/optee_os/lib/libutee/tee_api_objects.c:228
    1d3c:	34000040 	cbz	w0, 1d44 <TEE_FreeTransientObject+0x24>
/home/lagadanu/Desktop/qemu/optee_os/lib/libutee/tee_api_objects.c:229
    1d40:	94000b5a 	bl	4aa8 <TEE_Panic>
/home/lagadanu/Desktop/qemu/optee_os/lib/libutee/tee_api_objects.c:231
    1d44:	b9403ba0 	ldr	w0, [x29,#56]
    1d48:	36800060 	tbz	w0, #16, 1d54 <TEE_FreeTransientObject+0x34>
/home/lagadanu/Desktop/qemu/optee_os/lib/libutee/tee_api_objects.c:232
    1d4c:	52800000 	mov	w0, #0x0                   	// #0
    1d50:	94000b56 	bl	4aa8 <TEE_Panic>
/home/lagadanu/Desktop/qemu/optee_os/lib/libutee/tee_api_objects.c:234
    1d54:	aa1303e0 	mov	x0, x19
    1d58:	94000c5e 	bl	4ed0 <utee_cryp_obj_close>
/home/lagadanu/Desktop/qemu/optee_os/lib/libutee/tee_api_objects.c:235
    1d5c:	34000040 	cbz	w0, 1d64 <TEE_FreeTransientObject+0x44>
/home/lagadanu/Desktop/qemu/optee_os/lib/libutee/tee_api_objects.c:236
    1d60:	94000b52 	bl	4aa8 <TEE_Panic>
/home/lagadanu/Desktop/qemu/optee_os/lib/libutee/tee_api_objects.c:237
    1d64:	f9400bf3 	ldr	x19, [sp,#16]
    1d68:	a8c47bfd 	ldp	x29, x30, [sp],#64
    1d6c:	d65f03c0 	ret
    1d70:	d65f03c0 	ret

0000000000001d74 <TEE_ResetTransientObject>:
TEE_ResetTransientObject():
/home/lagadanu/Desktop/qemu/optee_os/lib/libutee/tee_api_objects.c:244
    1d74:	b4000280 	cbz	x0, 1dc4 <TEE_ResetTransientObject+0x50>
/home/lagadanu/Desktop/qemu/optee_os/lib/libutee/tee_api_objects.c:240
    1d78:	a9bc7bfd 	stp	x29, x30, [sp,#-64]!
    1d7c:	910003fd 	mov	x29, sp
    1d80:	f9000bf3 	str	x19, [sp,#16]
/home/lagadanu/Desktop/qemu/optee_os/lib/libutee/tee_api_objects.c:247
    1d84:	910083a1 	add	x1, x29, #0x20
    1d88:	aa0003f3 	mov	x19, x0
    1d8c:	94000c45 	bl	4ea0 <utee_cryp_obj_get_info>
/home/lagadanu/Desktop/qemu/optee_os/lib/libutee/tee_api_objects.c:248
    1d90:	34000040 	cbz	w0, 1d98 <TEE_ResetTransientObject+0x24>
/home/lagadanu/Desktop/qemu/optee_os/lib/libutee/tee_api_objects.c:249
    1d94:	94000b45 	bl	4aa8 <TEE_Panic>
/home/lagadanu/Desktop/qemu/optee_os/lib/libutee/tee_api_objects.c:251
    1d98:	b9403ba0 	ldr	w0, [x29,#56]
    1d9c:	36800060 	tbz	w0, #16, 1da8 <TEE_ResetTransientObject+0x34>
/home/lagadanu/Desktop/qemu/optee_os/lib/libutee/tee_api_objects.c:252
    1da0:	52800000 	mov	w0, #0x0                   	// #0
    1da4:	94000b41 	bl	4aa8 <TEE_Panic>
/home/lagadanu/Desktop/qemu/optee_os/lib/libutee/tee_api_objects.c:254
    1da8:	aa1303e0 	mov	x0, x19
    1dac:	94000c4c 	bl	4edc <utee_cryp_obj_reset>
/home/lagadanu/Desktop/qemu/optee_os/lib/libutee/tee_api_objects.c:255
    1db0:	34000040 	cbz	w0, 1db8 <TEE_ResetTransientObject+0x44>
/home/lagadanu/Desktop/qemu/optee_os/lib/libutee/tee_api_objects.c:256
    1db4:	94000b3d 	bl	4aa8 <TEE_Panic>
/home/lagadanu/Desktop/qemu/optee_os/lib/libutee/tee_api_objects.c:257
    1db8:	f9400bf3 	ldr	x19, [sp,#16]
    1dbc:	a8c47bfd 	ldp	x29, x30, [sp],#64
    1dc0:	d65f03c0 	ret
    1dc4:	d65f03c0 	ret

0000000000001dc8 <TEE_PopulateTransientObject>:
TEE_PopulateTransientObject():
/home/lagadanu/Desktop/qemu/optee_os/lib/libutee/tee_api_objects.c:262
    1dc8:	a9ba7bfd 	stp	x29, x30, [sp,#-96]!
    1dcc:	910003fd 	mov	x29, sp
    1dd0:	a9025bf5 	stp	x21, x22, [sp,#32]
    1dd4:	2a0203f6 	mov	w22, w2
    1dd8:	f9001bf7 	str	x23, [sp,#48]
    1ddc:	aa0103f7 	mov	x23, x1
/home/lagadanu/Desktop/qemu/optee_os/lib/libutee/tee_api_objects.c:265
    1de0:	52800301 	mov	w1, #0x18                  	// #24
/home/lagadanu/Desktop/qemu/optee_os/lib/libutee/tee_api_objects.c:262
    1de4:	a90153f3 	stp	x19, x20, [sp,#16]
    1de8:	aa0003f5 	mov	x21, x0
    1dec:	aa1603f3 	mov	x19, x22
/home/lagadanu/Desktop/qemu/optee_os/lib/libutee/tee_api_objects.c:265
    1df0:	9ba17ec1 	umull	x1, w22, w1
    1df4:	91005821 	add	x1, x1, #0x16
    1df8:	927c8421 	and	x1, x1, #0x3ffffffff0
    1dfc:	cb2163ff 	sub	sp, sp, x1
/home/lagadanu/Desktop/qemu/optee_os/lib/libutee/tee_api_objects.c:267
    1e00:	910103a1 	add	x1, x29, #0x40
/home/lagadanu/Desktop/qemu/optee_os/lib/libutee/tee_api_objects.c:265
    1e04:	910003f4 	mov	x20, sp
/home/lagadanu/Desktop/qemu/optee_os/lib/libutee/tee_api_objects.c:267
    1e08:	94000c26 	bl	4ea0 <utee_cryp_obj_get_info>
/home/lagadanu/Desktop/qemu/optee_os/lib/libutee/tee_api_objects.c:268
    1e0c:	34000040 	cbz	w0, 1e14 <TEE_PopulateTransientObject+0x4c>
/home/lagadanu/Desktop/qemu/optee_os/lib/libutee/tee_api_objects.c:269
    1e10:	94000b26 	bl	4aa8 <TEE_Panic>
/home/lagadanu/Desktop/qemu/optee_os/lib/libutee/tee_api_objects.c:272
    1e14:	b9405ba0 	ldr	w0, [x29,#88]
    1e18:	36800060 	tbz	w0, #16, 1e24 <TEE_PopulateTransientObject+0x5c>
/home/lagadanu/Desktop/qemu/optee_os/lib/libutee/tee_api_objects.c:273
    1e1c:	52800000 	mov	w0, #0x0                   	// #0
    1e20:	94000b22 	bl	4aa8 <TEE_Panic>
/home/lagadanu/Desktop/qemu/optee_os/lib/libutee/tee_api_objects.c:276
    1e24:	b9405ba0 	ldr	w0, [x29,#88]
    1e28:	36880060 	tbz	w0, #17, 1e34 <TEE_PopulateTransientObject+0x6c>
/home/lagadanu/Desktop/qemu/optee_os/lib/libutee/tee_api_objects.c:277
    1e2c:	52800000 	mov	w0, #0x0                   	// #0
    1e30:	94000b1e 	bl	4aa8 <TEE_Panic>
/home/lagadanu/Desktop/qemu/optee_os/lib/libutee/tee_api_objects.c:279
    1e34:	2a1303e2 	mov	w2, w19
    1e38:	aa1703e1 	mov	x1, x23
    1e3c:	aa1403e0 	mov	x0, x20
    1e40:	97fffedc 	bl	19b0 <__utee_from_attr>
/home/lagadanu/Desktop/qemu/optee_os/lib/libutee/tee_api_objects.c:280
    1e44:	aa1403e1 	mov	x1, x20
    1e48:	aa1603e2 	mov	x2, x22
    1e4c:	aa1503e0 	mov	x0, x21
    1e50:	94000c26 	bl	4ee8 <utee_cryp_obj_populate>
/home/lagadanu/Desktop/qemu/optee_os/lib/libutee/tee_api_objects.c:281
    1e54:	7100001f 	cmp	w0, #0x0
    1e58:	129fff21 	mov	w1, #0xffff0006            	// #-65530
/home/lagadanu/Desktop/qemu/optee_os/lib/libutee/tee_api_objects.c:280
    1e5c:	2a0003f3 	mov	w19, w0
/home/lagadanu/Desktop/qemu/optee_os/lib/libutee/tee_api_objects.c:281
    1e60:	7a411004 	ccmp	w0, w1, #0x4, ne
    1e64:	54000040 	b.eq	1e6c <TEE_PopulateTransientObject+0xa4>
/home/lagadanu/Desktop/qemu/optee_os/lib/libutee/tee_api_objects.c:282
    1e68:	94000b10 	bl	4aa8 <TEE_Panic>
/home/lagadanu/Desktop/qemu/optee_os/lib/libutee/tee_api_objects.c:284
    1e6c:	910003bf 	mov	sp, x29
    1e70:	2a1303e0 	mov	w0, w19
    1e74:	f9401bf7 	ldr	x23, [sp,#48]
    1e78:	a94153f3 	ldp	x19, x20, [sp,#16]
    1e7c:	a9425bf5 	ldp	x21, x22, [sp,#32]
    1e80:	a8c67bfd 	ldp	x29, x30, [sp],#96
    1e84:	d65f03c0 	ret

0000000000001e88 <TEE_InitRefAttribute>:
TEE_InitRefAttribute():
/home/lagadanu/Desktop/qemu/optee_os/lib/libutee/tee_api_objects.c:288
    1e88:	a9bd7bfd 	stp	x29, x30, [sp,#-48]!
    1e8c:	910003fd 	mov	x29, sp
    1e90:	a90153f3 	stp	x19, x20, [sp,#16]
    1e94:	aa0003f3 	mov	x19, x0
    1e98:	a9025bf5 	stp	x21, x22, [sp,#32]
    1e9c:	2a0103f4 	mov	w20, w1
    1ea0:	aa0203f6 	mov	x22, x2
    1ea4:	2a0303f5 	mov	w21, w3
/home/lagadanu/Desktop/qemu/optee_os/lib/libutee/tee_api_objects.c:289
    1ea8:	b5000060 	cbnz	x0, 1eb4 <TEE_InitRefAttribute+0x2c>
/home/lagadanu/Desktop/qemu/optee_os/lib/libutee/tee_api_objects.c:290
    1eac:	52800000 	mov	w0, #0x0                   	// #0
    1eb0:	94000afe 	bl	4aa8 <TEE_Panic>
/home/lagadanu/Desktop/qemu/optee_os/lib/libutee/tee_api_objects.c:291
    1eb4:	36e80074 	tbz	w20, #29, 1ec0 <TEE_InitRefAttribute+0x38>
/home/lagadanu/Desktop/qemu/optee_os/lib/libutee/tee_api_objects.c:292
    1eb8:	52800000 	mov	w0, #0x0                   	// #0
    1ebc:	94000afb 	bl	4aa8 <TEE_Panic>
/home/lagadanu/Desktop/qemu/optee_os/lib/libutee/tee_api_objects.c:294
    1ec0:	f9000676 	str	x22, [x19,#8]
/home/lagadanu/Desktop/qemu/optee_os/lib/libutee/tee_api_objects.c:295
    1ec4:	b9001275 	str	w21, [x19,#16]
/home/lagadanu/Desktop/qemu/optee_os/lib/libutee/tee_api_objects.c:293
    1ec8:	b9000274 	str	w20, [x19]
/home/lagadanu/Desktop/qemu/optee_os/lib/libutee/tee_api_objects.c:296
    1ecc:	a9425bf5 	ldp	x21, x22, [sp,#32]
    1ed0:	a94153f3 	ldp	x19, x20, [sp,#16]
    1ed4:	a8c37bfd 	ldp	x29, x30, [sp],#48
    1ed8:	d65f03c0 	ret

0000000000001edc <TEE_InitValueAttribute>:
TEE_InitValueAttribute():
/home/lagadanu/Desktop/qemu/optee_os/lib/libutee/tee_api_objects.c:300
    1edc:	a9bd7bfd 	stp	x29, x30, [sp,#-48]!
    1ee0:	910003fd 	mov	x29, sp
    1ee4:	a90153f3 	stp	x19, x20, [sp,#16]
    1ee8:	aa0003f3 	mov	x19, x0
    1eec:	a9025bf5 	stp	x21, x22, [sp,#32]
    1ef0:	2a0103f4 	mov	w20, w1
    1ef4:	2a0203f6 	mov	w22, w2
    1ef8:	2a0303f5 	mov	w21, w3
/home/lagadanu/Desktop/qemu/optee_os/lib/libutee/tee_api_objects.c:301
    1efc:	b5000060 	cbnz	x0, 1f08 <TEE_InitValueAttribute+0x2c>
/home/lagadanu/Desktop/qemu/optee_os/lib/libutee/tee_api_objects.c:302
    1f00:	52800000 	mov	w0, #0x0                   	// #0
    1f04:	94000ae9 	bl	4aa8 <TEE_Panic>
/home/lagadanu/Desktop/qemu/optee_os/lib/libutee/tee_api_objects.c:303
    1f08:	37e80074 	tbnz	w20, #29, 1f14 <TEE_InitValueAttribute+0x38>
/home/lagadanu/Desktop/qemu/optee_os/lib/libutee/tee_api_objects.c:304
    1f0c:	52800000 	mov	w0, #0x0                   	// #0
    1f10:	94000ae6 	bl	4aa8 <TEE_Panic>
/home/lagadanu/Desktop/qemu/optee_os/lib/libutee/tee_api_objects.c:307
    1f14:	29015676 	stp	w22, w21, [x19,#8]
/home/lagadanu/Desktop/qemu/optee_os/lib/libutee/tee_api_objects.c:305
    1f18:	b9000274 	str	w20, [x19]
/home/lagadanu/Desktop/qemu/optee_os/lib/libutee/tee_api_objects.c:308
    1f1c:	a9425bf5 	ldp	x21, x22, [sp,#32]
    1f20:	a94153f3 	ldp	x19, x20, [sp,#16]
    1f24:	a8c37bfd 	ldp	x29, x30, [sp],#48
    1f28:	d65f03c0 	ret

0000000000001f2c <TEE_CopyObjectAttributes1>:
TEE_CopyObjectAttributes1():
/home/lagadanu/Desktop/qemu/optee_os/lib/libutee/tee_api_objects.c:333
    1f2c:	a9b97bfd 	stp	x29, x30, [sp,#-112]!
    1f30:	910003fd 	mov	x29, sp
    1f34:	a90153f3 	stp	x19, x20, [sp,#16]
    1f38:	aa0103f4 	mov	x20, x1
    1f3c:	f90013f5 	str	x21, [sp,#32]
/home/lagadanu/Desktop/qemu/optee_os/lib/libutee/tee_api_objects.c:338
    1f40:	9100c3a1 	add	x1, x29, #0x30
/home/lagadanu/Desktop/qemu/optee_os/lib/libutee/tee_api_objects.c:333
    1f44:	aa0003f5 	mov	x21, x0
/home/lagadanu/Desktop/qemu/optee_os/lib/libutee/tee_api_objects.c:338
    1f48:	94000bd6 	bl	4ea0 <utee_cryp_obj_get_info>
    1f4c:	2a0003f3 	mov	w19, w0
/home/lagadanu/Desktop/qemu/optee_os/lib/libutee/tee_api_objects.c:339
    1f50:	350002a0 	cbnz	w0, 1fa4 <TEE_CopyObjectAttributes1+0x78>
/home/lagadanu/Desktop/qemu/optee_os/lib/libutee/tee_api_objects.c:342
    1f54:	910143a1 	add	x1, x29, #0x50
    1f58:	aa1403e0 	mov	x0, x20
    1f5c:	94000bd1 	bl	4ea0 <utee_cryp_obj_get_info>
    1f60:	2a0003f3 	mov	w19, w0
/home/lagadanu/Desktop/qemu/optee_os/lib/libutee/tee_api_objects.c:343
    1f64:	35000200 	cbnz	w0, 1fa4 <TEE_CopyObjectAttributes1+0x78>
/home/lagadanu/Desktop/qemu/optee_os/lib/libutee/tee_api_objects.c:346
    1f68:	b9406ba1 	ldr	w1, [x29,#104]
    1f6c:	37880041 	tbnz	w1, #17, 1f74 <TEE_CopyObjectAttributes1+0x48>
/home/lagadanu/Desktop/qemu/optee_os/lib/libutee/tee_api_objects.c:347
    1f70:	94000ace 	bl	4aa8 <TEE_Panic>
/home/lagadanu/Desktop/qemu/optee_os/lib/libutee/tee_api_objects.c:349
    1f74:	b9404ba0 	ldr	w0, [x29,#72]
    1f78:	36800060 	tbz	w0, #16, 1f84 <TEE_CopyObjectAttributes1+0x58>
/home/lagadanu/Desktop/qemu/optee_os/lib/libutee/tee_api_objects.c:350
    1f7c:	52800000 	mov	w0, #0x0                   	// #0
    1f80:	94000aca 	bl	4aa8 <TEE_Panic>
/home/lagadanu/Desktop/qemu/optee_os/lib/libutee/tee_api_objects.c:352
    1f84:	b9404ba0 	ldr	w0, [x29,#72]
    1f88:	36880060 	tbz	w0, #17, 1f94 <TEE_CopyObjectAttributes1+0x68>
/home/lagadanu/Desktop/qemu/optee_os/lib/libutee/tee_api_objects.c:353
    1f8c:	52800000 	mov	w0, #0x0                   	// #0
    1f90:	94000ac6 	bl	4aa8 <TEE_Panic>
/home/lagadanu/Desktop/qemu/optee_os/lib/libutee/tee_api_objects.c:355
    1f94:	aa1403e1 	mov	x1, x20
    1f98:	aa1503e0 	mov	x0, x21
    1f9c:	94000bd6 	bl	4ef4 <utee_cryp_obj_copy>
    1fa0:	2a0003f3 	mov	w19, w0
/home/lagadanu/Desktop/qemu/optee_os/lib/libutee/tee_api_objects.c:360
    1fa4:	121e7a60 	and	w0, w19, #0xfffffffd
    1fa8:	7100027f 	cmp	w19, #0x0
    1fac:	52800021 	mov	w1, #0x1                   	// #1
    1fb0:	72be0201 	movk	w1, #0xf010, lsl #16
    1fb4:	7a411004 	ccmp	w0, w1, #0x4, ne
    1fb8:	54000060 	b.eq	1fc4 <TEE_CopyObjectAttributes1+0x98>
/home/lagadanu/Desktop/qemu/optee_os/lib/libutee/tee_api_objects.c:362
    1fbc:	2a1303e0 	mov	w0, w19
    1fc0:	94000aba 	bl	4aa8 <TEE_Panic>
/home/lagadanu/Desktop/qemu/optee_os/lib/libutee/tee_api_objects.c:365
    1fc4:	2a1303e0 	mov	w0, w19
    1fc8:	f94013f5 	ldr	x21, [sp,#32]
    1fcc:	a94153f3 	ldp	x19, x20, [sp,#16]
    1fd0:	a8c77bfd 	ldp	x29, x30, [sp],#112
    1fd4:	d65f03c0 	ret

0000000000001fd8 <TEE_CopyObjectAttributes>:
TEE_CopyObjectAttributes():
/home/lagadanu/Desktop/qemu/optee_os/lib/libutee/tee_api_objects.c:318
    1fd8:	a9bc7bfd 	stp	x29, x30, [sp,#-64]!
    1fdc:	910003fd 	mov	x29, sp
    1fe0:	a90153f3 	stp	x19, x20, [sp,#16]
    1fe4:	aa0103f3 	mov	x19, x1
    1fe8:	aa0003f4 	mov	x20, x0
/home/lagadanu/Desktop/qemu/optee_os/lib/libutee/tee_api_objects.c:322
    1fec:	910083a1 	add	x1, x29, #0x20
    1ff0:	aa1303e0 	mov	x0, x19
    1ff4:	94000bab 	bl	4ea0 <utee_cryp_obj_get_info>
/home/lagadanu/Desktop/qemu/optee_os/lib/libutee/tee_api_objects.c:323
    1ff8:	b94023a1 	ldr	w1, [x29,#32]
    1ffc:	528017c0 	mov	w0, #0xbe                  	// #190
    2000:	72b40000 	movk	w0, #0xa000, lsl #16
    2004:	6b00003f 	cmp	w1, w0
    2008:	540000c0 	b.eq	2020 <TEE_CopyObjectAttributes+0x48>
/home/lagadanu/Desktop/qemu/optee_os/lib/libutee/tee_api_objects.c:326
    200c:	aa1303e1 	mov	x1, x19
    2010:	aa1403e0 	mov	x0, x20
    2014:	97ffffc6 	bl	1f2c <TEE_CopyObjectAttributes1>
/home/lagadanu/Desktop/qemu/optee_os/lib/libutee/tee_api_objects.c:327
    2018:	34000040 	cbz	w0, 2020 <TEE_CopyObjectAttributes+0x48>
/home/lagadanu/Desktop/qemu/optee_os/lib/libutee/tee_api_objects.c:328
    201c:	94000aa3 	bl	4aa8 <TEE_Panic>
/home/lagadanu/Desktop/qemu/optee_os/lib/libutee/tee_api_objects.c:329
    2020:	a94153f3 	ldp	x19, x20, [sp,#16]
    2024:	a8c47bfd 	ldp	x29, x30, [sp],#64
    2028:	d65f03c0 	ret

000000000000202c <TEE_GenerateKey>:
TEE_GenerateKey():
/home/lagadanu/Desktop/qemu/optee_os/lib/libutee/tee_api_objects.c:369
    202c:	a9bd7bfd 	stp	x29, x30, [sp,#-48]!
    2030:	910003fd 	mov	x29, sp
    2034:	a9025bf5 	stp	x21, x22, [sp,#32]
    2038:	aa0003f5 	mov	x21, x0
/home/lagadanu/Desktop/qemu/optee_os/lib/libutee/tee_api_objects.c:371
    203c:	52800300 	mov	w0, #0x18                  	// #24
/home/lagadanu/Desktop/qemu/optee_os/lib/libutee/tee_api_objects.c:369
    2040:	a90153f3 	stp	x19, x20, [sp,#16]
    2044:	2a0103f6 	mov	w22, w1
    2048:	2a0303f3 	mov	w19, w3
/home/lagadanu/Desktop/qemu/optee_os/lib/libutee/tee_api_objects.c:371
    204c:	9ba07c60 	umull	x0, w3, w0
/home/lagadanu/Desktop/qemu/optee_os/lib/libutee/tee_api_objects.c:369
    2050:	aa0203e1 	mov	x1, x2
/home/lagadanu/Desktop/qemu/optee_os/lib/libutee/tee_api_objects.c:373
    2054:	2a0303e2 	mov	w2, w3
/home/lagadanu/Desktop/qemu/optee_os/lib/libutee/tee_api_objects.c:371
    2058:	91005800 	add	x0, x0, #0x16
    205c:	927c8400 	and	x0, x0, #0x3ffffffff0
    2060:	cb2063ff 	sub	sp, sp, x0
/home/lagadanu/Desktop/qemu/optee_os/lib/libutee/tee_api_objects.c:373
    2064:	910003e0 	mov	x0, sp
    2068:	97fffe52 	bl	19b0 <__utee_from_attr>
/home/lagadanu/Desktop/qemu/optee_os/lib/libutee/tee_api_objects.c:374
    206c:	2a1303e3 	mov	w3, w19
    2070:	2a1603e1 	mov	w1, w22
    2074:	910003e2 	mov	x2, sp
    2078:	aa1503e0 	mov	x0, x21
    207c:	94000be3 	bl	5008 <utee_cryp_obj_generate_key>
/home/lagadanu/Desktop/qemu/optee_os/lib/libutee/tee_api_objects.c:377
    2080:	7100001f 	cmp	w0, #0x0
    2084:	129fff21 	mov	w1, #0xffff0006            	// #-65530
/home/lagadanu/Desktop/qemu/optee_os/lib/libutee/tee_api_objects.c:374
    2088:	2a0003f3 	mov	w19, w0
/home/lagadanu/Desktop/qemu/optee_os/lib/libutee/tee_api_objects.c:377
    208c:	7a411004 	ccmp	w0, w1, #0x4, ne
    2090:	54000040 	b.eq	2098 <TEE_GenerateKey+0x6c>
/home/lagadanu/Desktop/qemu/optee_os/lib/libutee/tee_api_objects.c:378
    2094:	94000a85 	bl	4aa8 <TEE_Panic>
/home/lagadanu/Desktop/qemu/optee_os/lib/libutee/tee_api_objects.c:381
    2098:	910003bf 	mov	sp, x29
    209c:	2a1303e0 	mov	w0, w19
    20a0:	a94153f3 	ldp	x19, x20, [sp,#16]
    20a4:	a9425bf5 	ldp	x21, x22, [sp,#32]
    20a8:	a8c37bfd 	ldp	x29, x30, [sp],#48
    20ac:	d65f03c0 	ret

00000000000020b0 <TEE_OpenPersistentObject>:
TEE_OpenPersistentObject():
/home/lagadanu/Desktop/qemu/optee_os/lib/libutee/tee_api_objects.c:388
    20b0:	a9bd7bfd 	stp	x29, x30, [sp,#-48]!
    20b4:	910003fd 	mov	x29, sp
    20b8:	a90153f3 	stp	x19, x20, [sp,#16]
/home/lagadanu/Desktop/qemu/optee_os/lib/libutee/tee_api_objects.c:393
    20bc:	129ffef3 	mov	w19, #0xffff0008            	// #-65528
/home/lagadanu/Desktop/qemu/optee_os/lib/libutee/tee_api_objects.c:392
    20c0:	b40001e1 	cbz	x1, 20fc <TEE_OpenPersistentObject+0x4c>
/home/lagadanu/Desktop/qemu/optee_os/lib/libutee/tee_api_objects.c:402
    20c4:	7101005f 	cmp	w2, #0x40
    20c8:	aa0403f4 	mov	x20, x4
/home/lagadanu/Desktop/qemu/optee_os/lib/libutee/tee_api_objects.c:403
    20cc:	129fff33 	mov	w19, #0xffff0006            	// #-65530
/home/lagadanu/Desktop/qemu/optee_os/lib/libutee/tee_api_objects.c:402
    20d0:	fa409884 	ccmp	x4, #0x0, #0x4, ls
    20d4:	54000140 	b.eq	20fc <TEE_OpenPersistentObject+0x4c>
/home/lagadanu/Desktop/qemu/optee_os/lib/libutee/tee_api_objects.c:407
    20d8:	9100b3a4 	add	x4, x29, #0x2c
    20dc:	2a0303e3 	mov	w3, w3
    20e0:	2a0203e2 	mov	w2, w2
    20e4:	2a0003e0 	mov	w0, w0
    20e8:	94000ba1 	bl	4f6c <utee_storage_obj_open>
    20ec:	2a0003f3 	mov	w19, w0
/home/lagadanu/Desktop/qemu/optee_os/lib/libutee/tee_api_objects.c:409
    20f0:	35000060 	cbnz	w0, 20fc <TEE_OpenPersistentObject+0x4c>
/home/lagadanu/Desktop/qemu/optee_os/lib/libutee/tee_api_objects.c:410
    20f4:	b9402fa0 	ldr	w0, [x29,#44]
    20f8:	f9000280 	str	x0, [x20]
/home/lagadanu/Desktop/qemu/optee_os/lib/libutee/tee_api_objects.c:414
    20fc:	121d7a60 	and	w0, w19, #0xfffffffb
/home/lagadanu/Desktop/qemu/optee_os/lib/libutee/tee_api_objects.c:413
    2100:	7100027f 	cmp	w19, #0x0
    2104:	129ffee1 	mov	w1, #0xffff0008            	// #-65528
    2108:	7a411004 	ccmp	w0, w1, #0x4, ne
    210c:	54000160 	b.eq	2138 <TEE_OpenPersistentObject+0x88>
/home/lagadanu/Desktop/qemu/optee_os/lib/libutee/tee_api_objects.c:415
    2110:	129fff80 	mov	w0, #0xffff0003            	// #-65533
    2114:	6b00027f 	cmp	w19, w0
    2118:	54000100 	b.eq	2138 <TEE_OpenPersistentObject+0x88>
/home/lagadanu/Desktop/qemu/optee_os/lib/libutee/tee_api_objects.c:417
    211c:	121e7a61 	and	w1, w19, #0xfffffffd
    2120:	52800020 	mov	w0, #0x1                   	// #1
    2124:	72be0200 	movk	w0, #0xf010, lsl #16
    2128:	6b00003f 	cmp	w1, w0
    212c:	54000060 	b.eq	2138 <TEE_OpenPersistentObject+0x88>
/home/lagadanu/Desktop/qemu/optee_os/lib/libutee/tee_api_objects.c:419
    2130:	2a1303e0 	mov	w0, w19
    2134:	94000a5d 	bl	4aa8 <TEE_Panic>
/home/lagadanu/Desktop/qemu/optee_os/lib/libutee/tee_api_objects.c:422
    2138:	2a1303e0 	mov	w0, w19
    213c:	a94153f3 	ldp	x19, x20, [sp,#16]
    2140:	a8c37bfd 	ldp	x29, x30, [sp],#48
    2144:	d65f03c0 	ret

0000000000002148 <TEE_CreatePersistentObject>:
TEE_CreatePersistentObject():
/home/lagadanu/Desktop/qemu/optee_os/lib/libutee/tee_api_objects.c:430
    2148:	a9bd7bfd 	stp	x29, x30, [sp,#-48]!
    214c:	910003fd 	mov	x29, sp
    2150:	f9000bf3 	str	x19, [sp,#16]
    2154:	aa0703f3 	mov	x19, x7
/home/lagadanu/Desktop/qemu/optee_os/lib/libutee/tee_api_objects.c:434
    2158:	b4000501 	cbz	x1, 21f8 <TEE_CreatePersistentObject+0xb0>
/home/lagadanu/Desktop/qemu/optee_os/lib/libutee/tee_api_objects.c:439
    215c:	7101005f 	cmp	w2, #0x40
    2160:	54000528 	b.hi	2204 <TEE_CreatePersistentObject+0xbc>
/home/lagadanu/Desktop/qemu/optee_os/lib/libutee/tee_api_objects.c:444
    2164:	9100b3a7 	add	x7, x29, #0x2c
    2168:	2a0603e6 	mov	w6, w6
    216c:	2a0303e3 	mov	w3, w3
    2170:	2a0203e2 	mov	w2, w2
    2174:	2a0003e0 	mov	w0, w0
    2178:	94000b80 	bl	4f78 <utee_storage_obj_create>
/home/lagadanu/Desktop/qemu/optee_os/lib/libutee/tee_api_objects.c:447
    217c:	35000380 	cbnz	w0, 21ec <TEE_CreatePersistentObject+0xa4>
    2180:	b9402fa1 	ldr	w1, [x29,#44]
/home/lagadanu/Desktop/qemu/optee_os/lib/libutee/tee_api_objects.c:448
    2184:	b40000b3 	cbz	x19, 2198 <TEE_CreatePersistentObject+0x50>
/home/lagadanu/Desktop/qemu/optee_os/lib/libutee/tee_api_objects.c:449
    2188:	f9000261 	str	x1, [x19]
/home/lagadanu/Desktop/qemu/optee_os/lib/libutee/tee_api_objects.c:468
    218c:	f9400bf3 	ldr	x19, [sp,#16]
    2190:	a8c37bfd 	ldp	x29, x30, [sp],#48
    2194:	d65f03c0 	ret
/home/lagadanu/Desktop/qemu/optee_os/lib/libutee/tee_api_objects.c:451
    2198:	aa0103e0 	mov	x0, x1
    219c:	94000b4d 	bl	4ed0 <utee_cryp_obj_close>
/home/lagadanu/Desktop/qemu/optee_os/lib/libutee/tee_api_objects.c:452
    21a0:	34ffff60 	cbz	w0, 218c <TEE_CreatePersistentObject+0x44>
/home/lagadanu/Desktop/qemu/optee_os/lib/libutee/tee_api_objects.c:458
    21a4:	129ffee1 	mov	w1, #0xffff0008            	// #-65528
    21a8:	6b01001f 	cmp	w0, w1
    21ac:	129fff81 	mov	w1, #0xffff0003            	// #-65533
    21b0:	7a411004 	ccmp	w0, w1, #0x4, ne
    21b4:	54fffec0 	b.eq	218c <TEE_CreatePersistentObject+0x44>
/home/lagadanu/Desktop/qemu/optee_os/lib/libutee/tee_api_objects.c:460
    21b8:	129ffe61 	mov	w1, #0xffff000c            	// #-65524
    21bc:	6b01001f 	cmp	w0, w1
    21c0:	1299f7c1 	mov	w1, #0xffff3041            	// #-53183
    21c4:	7a411004 	ccmp	w0, w1, #0x4, ne
    21c8:	54fffe20 	b.eq	218c <TEE_CreatePersistentObject+0x44>
/home/lagadanu/Desktop/qemu/optee_os/lib/libutee/tee_api_objects.c:462
    21cc:	121e7802 	and	w2, w0, #0xfffffffd
    21d0:	52800021 	mov	w1, #0x1                   	// #1
    21d4:	72be0201 	movk	w1, #0xf010, lsl #16
    21d8:	6b01005f 	cmp	w2, w1
    21dc:	54fffd80 	b.eq	218c <TEE_CreatePersistentObject+0x44>
/home/lagadanu/Desktop/qemu/optee_os/lib/libutee/tee_api_objects.c:465
    21e0:	94000a32 	bl	4aa8 <TEE_Panic>
/home/lagadanu/Desktop/qemu/optee_os/lib/libutee/tee_api_objects.c:467
    21e4:	52800000 	mov	w0, #0x0                   	// #0
    21e8:	17ffffe9 	b	218c <TEE_CreatePersistentObject+0x44>
/home/lagadanu/Desktop/qemu/optee_os/lib/libutee/tee_api_objects.c:456
    21ec:	b4fffdd3 	cbz	x19, 21a4 <TEE_CreatePersistentObject+0x5c>
/home/lagadanu/Desktop/qemu/optee_os/lib/libutee/tee_api_objects.c:457
    21f0:	f900027f 	str	xzr, [x19]
    21f4:	17ffffec 	b	21a4 <TEE_CreatePersistentObject+0x5c>
/home/lagadanu/Desktop/qemu/optee_os/lib/libutee/tee_api_objects.c:435
    21f8:	129ffee0 	mov	w0, #0xffff0008            	// #-65528
/home/lagadanu/Desktop/qemu/optee_os/lib/libutee/tee_api_objects.c:456
    21fc:	b5ffffa7 	cbnz	x7, 21f0 <TEE_CreatePersistentObject+0xa8>
    2200:	17ffffe3 	b	218c <TEE_CreatePersistentObject+0x44>
/home/lagadanu/Desktop/qemu/optee_os/lib/libutee/tee_api_objects.c:440
    2204:	129fff20 	mov	w0, #0xffff0006            	// #-65530
/home/lagadanu/Desktop/qemu/optee_os/lib/libutee/tee_api_objects.c:456
    2208:	b5ffff47 	cbnz	x7, 21f0 <TEE_CreatePersistentObject+0xa8>
    220c:	17ffffeb 	b	21b8 <TEE_CreatePersistentObject+0x70>

0000000000002210 <TEE_CloseAndDeletePersistentObject1>:
TEE_CloseAndDeletePersistentObject1():
/home/lagadanu/Desktop/qemu/optee_os/lib/libutee/tee_api_objects.c:490
    2210:	a9be7bfd 	stp	x29, x30, [sp,#-32]!
    2214:	910003fd 	mov	x29, sp
    2218:	a90153f3 	stp	x19, x20, [sp,#16]
    221c:	52800074 	mov	w20, #0x3                   	// #3
    2220:	72be0214 	movk	w20, #0xf010, lsl #16
/home/lagadanu/Desktop/qemu/optee_os/lib/libutee/tee_api_objects.c:494
    2224:	2a1403f3 	mov	w19, w20
/home/lagadanu/Desktop/qemu/optee_os/lib/libutee/tee_api_objects.c:493
    2228:	b40000e0 	cbz	x0, 2244 <TEE_CloseAndDeletePersistentObject1+0x34>
/home/lagadanu/Desktop/qemu/optee_os/lib/libutee/tee_api_objects.c:496
    222c:	94000b56 	bl	4f84 <utee_storage_obj_del>
/home/lagadanu/Desktop/qemu/optee_os/lib/libutee/tee_api_objects.c:498
    2230:	7100001f 	cmp	w0, #0x0
/home/lagadanu/Desktop/qemu/optee_os/lib/libutee/tee_api_objects.c:496
    2234:	2a0003f3 	mov	w19, w0
/home/lagadanu/Desktop/qemu/optee_os/lib/libutee/tee_api_objects.c:498
    2238:	7a541004 	ccmp	w0, w20, #0x4, ne
    223c:	54000040 	b.eq	2244 <TEE_CloseAndDeletePersistentObject1+0x34>
/home/lagadanu/Desktop/qemu/optee_os/lib/libutee/tee_api_objects.c:499
    2240:	94000a1a 	bl	4aa8 <TEE_Panic>
/home/lagadanu/Desktop/qemu/optee_os/lib/libutee/tee_api_objects.c:502
    2244:	2a1303e0 	mov	w0, w19
    2248:	a94153f3 	ldp	x19, x20, [sp,#16]
    224c:	a8c27bfd 	ldp	x29, x30, [sp],#32
    2250:	d65f03c0 	ret

0000000000002254 <TEE_CloseAndDeletePersistentObject>:
TEE_CloseAndDeletePersistentObject():
/home/lagadanu/Desktop/qemu/optee_os/lib/libutee/tee_api_objects.c:480
    2254:	b4000140 	cbz	x0, 227c <TEE_CloseAndDeletePersistentObject+0x28>
/home/lagadanu/Desktop/qemu/optee_os/lib/libutee/tee_api_objects.c:477
    2258:	a9bf7bfd 	stp	x29, x30, [sp,#-16]!
    225c:	910003fd 	mov	x29, sp
/home/lagadanu/Desktop/qemu/optee_os/lib/libutee/tee_api_objects.c:483
    2260:	97ffffec 	bl	2210 <TEE_CloseAndDeletePersistentObject1>
/home/lagadanu/Desktop/qemu/optee_os/lib/libutee/tee_api_objects.c:485
    2264:	34000080 	cbz	w0, 2274 <TEE_CloseAndDeletePersistentObject+0x20>
/home/lagadanu/Desktop/qemu/optee_os/lib/libutee/tee_api_objects.c:487
    2268:	a8c17bfd 	ldp	x29, x30, [sp],#16
/home/lagadanu/Desktop/qemu/optee_os/lib/libutee/tee_api_objects.c:486
    226c:	52800000 	mov	w0, #0x0                   	// #0
    2270:	14000a0e 	b	4aa8 <TEE_Panic>
/home/lagadanu/Desktop/qemu/optee_os/lib/libutee/tee_api_objects.c:487
    2274:	a8c17bfd 	ldp	x29, x30, [sp],#16
    2278:	d65f03c0 	ret
    227c:	d65f03c0 	ret

0000000000002280 <TEE_RenamePersistentObject>:
TEE_RenamePersistentObject():
/home/lagadanu/Desktop/qemu/optee_os/lib/libutee/tee_api_objects.c:508
    2280:	a9be7bfd 	stp	x29, x30, [sp,#-32]!
    2284:	910003fd 	mov	x29, sp
    2288:	f9000bf3 	str	x19, [sp,#16]
/home/lagadanu/Desktop/qemu/optee_os/lib/libutee/tee_api_objects.c:512
    228c:	129ffef3 	mov	w19, #0xffff0008            	// #-65528
/home/lagadanu/Desktop/qemu/optee_os/lib/libutee/tee_api_objects.c:511
    2290:	b4000100 	cbz	x0, 22b0 <TEE_RenamePersistentObject+0x30>
/home/lagadanu/Desktop/qemu/optee_os/lib/libutee/tee_api_objects.c:521
    2294:	7101005f 	cmp	w2, #0x40
/home/lagadanu/Desktop/qemu/optee_os/lib/libutee/tee_api_objects.c:522
    2298:	129fff33 	mov	w19, #0xffff0006            	// #-65530
/home/lagadanu/Desktop/qemu/optee_os/lib/libutee/tee_api_objects.c:521
    229c:	fa409824 	ccmp	x1, #0x0, #0x4, ls
    22a0:	54000080 	b.eq	22b0 <TEE_RenamePersistentObject+0x30>
/home/lagadanu/Desktop/qemu/optee_os/lib/libutee/tee_api_objects.c:526
    22a4:	2a0203e2 	mov	w2, w2
    22a8:	94000b3a 	bl	4f90 <utee_storage_obj_rename>
    22ac:	2a0003f3 	mov	w19, w0
/home/lagadanu/Desktop/qemu/optee_os/lib/libutee/tee_api_objects.c:530
    22b0:	7100027f 	cmp	w19, #0x0
    22b4:	129fff80 	mov	w0, #0xffff0003            	// #-65533
    22b8:	7a401264 	ccmp	w19, w0, #0x4, ne
    22bc:	54000100 	b.eq	22dc <TEE_RenamePersistentObject+0x5c>
/home/lagadanu/Desktop/qemu/optee_os/lib/libutee/tee_api_objects.c:532
    22c0:	121e7a61 	and	w1, w19, #0xfffffffd
    22c4:	52800020 	mov	w0, #0x1                   	// #1
    22c8:	72be0200 	movk	w0, #0xf010, lsl #16
    22cc:	6b00003f 	cmp	w1, w0
    22d0:	54000060 	b.eq	22dc <TEE_RenamePersistentObject+0x5c>
/home/lagadanu/Desktop/qemu/optee_os/lib/libutee/tee_api_objects.c:534
    22d4:	2a1303e0 	mov	w0, w19
    22d8:	940009f4 	bl	4aa8 <TEE_Panic>
/home/lagadanu/Desktop/qemu/optee_os/lib/libutee/tee_api_objects.c:537
    22dc:	2a1303e0 	mov	w0, w19
    22e0:	f9400bf3 	ldr	x19, [sp,#16]
    22e4:	a8c27bfd 	ldp	x29, x30, [sp],#32
    22e8:	d65f03c0 	ret

00000000000022ec <TEE_AllocatePersistentObjectEnumerator>:
TEE_AllocatePersistentObjectEnumerator():
/home/lagadanu/Desktop/qemu/optee_os/lib/libutee/tee_api_objects.c:541
    22ec:	a9bd7bfd 	stp	x29, x30, [sp,#-48]!
    22f0:	910003fd 	mov	x29, sp
    22f4:	a90153f3 	stp	x19, x20, [sp,#16]
/home/lagadanu/Desktop/qemu/optee_os/lib/libutee/tee_api_objects.c:546
    22f8:	129fff33 	mov	w19, #0xffff0006            	// #-65530
/home/lagadanu/Desktop/qemu/optee_os/lib/libutee/tee_api_objects.c:545
    22fc:	b40001e0 	cbz	x0, 2338 <TEE_AllocatePersistentObjectEnumerator+0x4c>
    2300:	aa0003f4 	mov	x20, x0
/home/lagadanu/Desktop/qemu/optee_os/lib/libutee/tee_api_objects.c:548
    2304:	9100b3a0 	add	x0, x29, #0x2c
    2308:	94000b25 	bl	4f9c <utee_storage_alloc_enum>
    230c:	2a0003f3 	mov	w19, w0
/home/lagadanu/Desktop/qemu/optee_os/lib/libutee/tee_api_objects.c:550
    2310:	34000040 	cbz	w0, 2318 <TEE_AllocatePersistentObjectEnumerator+0x2c>
/home/lagadanu/Desktop/qemu/optee_os/lib/libutee/tee_api_objects.c:551
    2314:	b9002fbf 	str	wzr, [x29,#44]
/home/lagadanu/Desktop/qemu/optee_os/lib/libutee/tee_api_objects.c:553
    2318:	b9402fa0 	ldr	w0, [x29,#44]
/home/lagadanu/Desktop/qemu/optee_os/lib/libutee/tee_api_objects.c:555
    231c:	7100027f 	cmp	w19, #0x0
/home/lagadanu/Desktop/qemu/optee_os/lib/libutee/tee_api_objects.c:553
    2320:	f9000280 	str	x0, [x20]
/home/lagadanu/Desktop/qemu/optee_os/lib/libutee/tee_api_objects.c:555
    2324:	129fff80 	mov	w0, #0xffff0003            	// #-65533
    2328:	7a401264 	ccmp	w19, w0, #0x4, ne
    232c:	54000060 	b.eq	2338 <TEE_AllocatePersistentObjectEnumerator+0x4c>
/home/lagadanu/Desktop/qemu/optee_os/lib/libutee/tee_api_objects.c:557
    2330:	2a1303e0 	mov	w0, w19
    2334:	940009dd 	bl	4aa8 <TEE_Panic>
/home/lagadanu/Desktop/qemu/optee_os/lib/libutee/tee_api_objects.c:560
    2338:	2a1303e0 	mov	w0, w19
    233c:	a94153f3 	ldp	x19, x20, [sp,#16]
    2340:	a8c37bfd 	ldp	x29, x30, [sp],#48
    2344:	d65f03c0 	ret

0000000000002348 <TEE_FreePersistentObjectEnumerator>:
TEE_FreePersistentObjectEnumerator():
/home/lagadanu/Desktop/qemu/optee_os/lib/libutee/tee_api_objects.c:566
    2348:	b4000120 	cbz	x0, 236c <TEE_FreePersistentObjectEnumerator+0x24>
/home/lagadanu/Desktop/qemu/optee_os/lib/libutee/tee_api_objects.c:563
    234c:	a9bf7bfd 	stp	x29, x30, [sp,#-16]!
    2350:	910003fd 	mov	x29, sp
/home/lagadanu/Desktop/qemu/optee_os/lib/libutee/tee_api_objects.c:569
    2354:	94000b15 	bl	4fa8 <utee_storage_free_enum>
/home/lagadanu/Desktop/qemu/optee_os/lib/libutee/tee_api_objects.c:571
    2358:	34000060 	cbz	w0, 2364 <TEE_FreePersistentObjectEnumerator+0x1c>
/home/lagadanu/Desktop/qemu/optee_os/lib/libutee/tee_api_objects.c:573
    235c:	a8c17bfd 	ldp	x29, x30, [sp],#16
/home/lagadanu/Desktop/qemu/optee_os/lib/libutee/tee_api_objects.c:572
    2360:	140009d2 	b	4aa8 <TEE_Panic>
/home/lagadanu/Desktop/qemu/optee_os/lib/libutee/tee_api_objects.c:573
    2364:	a8c17bfd 	ldp	x29, x30, [sp],#16
    2368:	d65f03c0 	ret
    236c:	d65f03c0 	ret

0000000000002370 <TEE_ResetPersistentObjectEnumerator>:
TEE_ResetPersistentObjectEnumerator():
/home/lagadanu/Desktop/qemu/optee_os/lib/libutee/tee_api_objects.c:579
    2370:	b4000120 	cbz	x0, 2394 <TEE_ResetPersistentObjectEnumerator+0x24>
/home/lagadanu/Desktop/qemu/optee_os/lib/libutee/tee_api_objects.c:576
    2374:	a9bf7bfd 	stp	x29, x30, [sp,#-16]!
    2378:	910003fd 	mov	x29, sp
/home/lagadanu/Desktop/qemu/optee_os/lib/libutee/tee_api_objects.c:582
    237c:	94000b0e 	bl	4fb4 <utee_storage_reset_enum>
/home/lagadanu/Desktop/qemu/optee_os/lib/libutee/tee_api_objects.c:584
    2380:	34000060 	cbz	w0, 238c <TEE_ResetPersistentObjectEnumerator+0x1c>
/home/lagadanu/Desktop/qemu/optee_os/lib/libutee/tee_api_objects.c:586
    2384:	a8c17bfd 	ldp	x29, x30, [sp],#16
/home/lagadanu/Desktop/qemu/optee_os/lib/libutee/tee_api_objects.c:585
    2388:	140009c8 	b	4aa8 <TEE_Panic>
/home/lagadanu/Desktop/qemu/optee_os/lib/libutee/tee_api_objects.c:586
    238c:	a8c17bfd 	ldp	x29, x30, [sp],#16
    2390:	d65f03c0 	ret
    2394:	d65f03c0 	ret

0000000000002398 <TEE_StartPersistentObjectEnumerator>:
TEE_StartPersistentObjectEnumerator():
/home/lagadanu/Desktop/qemu/optee_os/lib/libutee/tee_api_objects.c:591
    2398:	a9be7bfd 	stp	x29, x30, [sp,#-32]!
/home/lagadanu/Desktop/qemu/optee_os/lib/libutee/tee_api_objects.c:594
    239c:	2a0103e1 	mov	w1, w1
/home/lagadanu/Desktop/qemu/optee_os/lib/libutee/tee_api_objects.c:591
    23a0:	910003fd 	mov	x29, sp
    23a4:	f9000bf3 	str	x19, [sp,#16]
/home/lagadanu/Desktop/qemu/optee_os/lib/libutee/tee_api_objects.c:594
    23a8:	94000b06 	bl	4fc0 <utee_storage_start_enum>
/home/lagadanu/Desktop/qemu/optee_os/lib/libutee/tee_api_objects.c:597
    23ac:	7100001f 	cmp	w0, #0x0
    23b0:	129ffee1 	mov	w1, #0xffff0008            	// #-65528
/home/lagadanu/Desktop/qemu/optee_os/lib/libutee/tee_api_objects.c:594
    23b4:	2a0003f3 	mov	w19, w0
/home/lagadanu/Desktop/qemu/optee_os/lib/libutee/tee_api_objects.c:597
    23b8:	7a411004 	ccmp	w0, w1, #0x4, ne
    23bc:	540000e0 	b.eq	23d8 <TEE_StartPersistentObjectEnumerator+0x40>
/home/lagadanu/Desktop/qemu/optee_os/lib/libutee/tee_api_objects.c:599
    23c0:	121e7802 	and	w2, w0, #0xfffffffd
    23c4:	52800021 	mov	w1, #0x1                   	// #1
    23c8:	72be0201 	movk	w1, #0xf010, lsl #16
    23cc:	6b01005f 	cmp	w2, w1
    23d0:	54000040 	b.eq	23d8 <TEE_StartPersistentObjectEnumerator+0x40>
/home/lagadanu/Desktop/qemu/optee_os/lib/libutee/tee_api_objects.c:601
    23d4:	940009b5 	bl	4aa8 <TEE_Panic>
/home/lagadanu/Desktop/qemu/optee_os/lib/libutee/tee_api_objects.c:604
    23d8:	2a1303e0 	mov	w0, w19
    23dc:	f9400bf3 	ldr	x19, [sp,#16]
    23e0:	a8c27bfd 	ldp	x29, x30, [sp],#32
    23e4:	d65f03c0 	ret

00000000000023e8 <TEE_GetNextPersistentObject>:
TEE_GetNextPersistentObject():
/home/lagadanu/Desktop/qemu/optee_os/lib/libutee/tee_api_objects.c:609
    23e8:	a9bb7bfd 	stp	x29, x30, [sp,#-80]!
/home/lagadanu/Desktop/qemu/optee_os/lib/libutee/tee_api_objects.c:620
    23ec:	f100005f 	cmp	x2, #0x0
    23f0:	fa401864 	ccmp	x3, #0x0, #0x4, ne
/home/lagadanu/Desktop/qemu/optee_os/lib/libutee/tee_api_objects.c:609
    23f4:	910003fd 	mov	x29, sp
    23f8:	a90153f3 	stp	x19, x20, [sp,#16]
    23fc:	129fff33 	mov	w19, #0xffff0006            	// #-65530
/home/lagadanu/Desktop/qemu/optee_os/lib/libutee/tee_api_objects.c:620
    2400:	54000180 	b.eq	2430 <TEE_GetNextPersistentObject+0x48>
    2404:	aa0303f4 	mov	x20, x3
/home/lagadanu/Desktop/qemu/optee_os/lib/libutee/tee_api_objects.c:629
    2408:	910143a3 	add	x3, x29, #0x50
/home/lagadanu/Desktop/qemu/optee_os/lib/libutee/tee_api_objects.c:628
    240c:	f100003f 	cmp	x1, #0x0
/home/lagadanu/Desktop/qemu/optee_os/lib/libutee/tee_api_objects.c:629
    2410:	b9400284 	ldr	w4, [x20]
    2414:	f81d8c64 	str	x4, [x3,#-40]!
/home/lagadanu/Desktop/qemu/optee_os/lib/libutee/tee_api_objects.c:630
    2418:	9100c3a4 	add	x4, x29, #0x30
    241c:	9a810081 	csel	x1, x4, x1, eq
    2420:	94000aeb 	bl	4fcc <utee_storage_next_enum>
    2424:	2a0003f3 	mov	w19, w0
/home/lagadanu/Desktop/qemu/optee_os/lib/libutee/tee_api_objects.c:632
    2428:	f94017a0 	ldr	x0, [x29,#40]
    242c:	b9000280 	str	w0, [x20]
/home/lagadanu/Desktop/qemu/optee_os/lib/libutee/tee_api_objects.c:635
    2430:	7100027f 	cmp	w19, #0x0
    2434:	129ffee0 	mov	w0, #0xffff0008            	// #-65528
    2438:	7a401264 	ccmp	w19, w0, #0x4, ne
    243c:	54000100 	b.eq	245c <TEE_GetNextPersistentObject+0x74>
/home/lagadanu/Desktop/qemu/optee_os/lib/libutee/tee_api_objects.c:637
    2440:	121e7a61 	and	w1, w19, #0xfffffffd
    2444:	52800020 	mov	w0, #0x1                   	// #1
    2448:	72be0200 	movk	w0, #0xf010, lsl #16
    244c:	6b00003f 	cmp	w1, w0
    2450:	54000060 	b.eq	245c <TEE_GetNextPersistentObject+0x74>
/home/lagadanu/Desktop/qemu/optee_os/lib/libutee/tee_api_objects.c:639
    2454:	2a1303e0 	mov	w0, w19
    2458:	94000994 	bl	4aa8 <TEE_Panic>
/home/lagadanu/Desktop/qemu/optee_os/lib/libutee/tee_api_objects.c:642
    245c:	2a1303e0 	mov	w0, w19
    2460:	a94153f3 	ldp	x19, x20, [sp,#16]
    2464:	a8c57bfd 	ldp	x29, x30, [sp],#80
    2468:	d65f03c0 	ret

000000000000246c <TEE_ReadObjectData>:
TEE_ReadObjectData():
/home/lagadanu/Desktop/qemu/optee_os/lib/libutee/tee_api_objects.c:648
    246c:	a9bd7bfd 	stp	x29, x30, [sp,#-48]!
    2470:	910003fd 	mov	x29, sp
    2474:	a90153f3 	stp	x19, x20, [sp,#16]
    2478:	129fff33 	mov	w19, #0xffff0006            	// #-65530
/home/lagadanu/Desktop/qemu/optee_os/lib/libutee/tee_api_objects.c:652
    247c:	b4000140 	cbz	x0, 24a4 <TEE_ReadObjectData+0x38>
    2480:	aa0303f4 	mov	x20, x3
/home/lagadanu/Desktop/qemu/optee_os/lib/libutee/tee_api_objects.c:657
    2484:	9100c3a3 	add	x3, x29, #0x30
/home/lagadanu/Desktop/qemu/optee_os/lib/libutee/tee_api_objects.c:658
    2488:	2a0203e2 	mov	w2, w2
/home/lagadanu/Desktop/qemu/optee_os/lib/libutee/tee_api_objects.c:657
    248c:	b9400284 	ldr	w4, [x20]
    2490:	f81f8c64 	str	x4, [x3,#-8]!
/home/lagadanu/Desktop/qemu/optee_os/lib/libutee/tee_api_objects.c:658
    2494:	94000ad1 	bl	4fd8 <utee_storage_obj_read>
    2498:	2a0003f3 	mov	w19, w0
/home/lagadanu/Desktop/qemu/optee_os/lib/libutee/tee_api_objects.c:660
    249c:	f94017a0 	ldr	x0, [x29,#40]
    24a0:	b9000280 	str	w0, [x20]
/home/lagadanu/Desktop/qemu/optee_os/lib/libutee/tee_api_objects.c:664
    24a4:	121e7a60 	and	w0, w19, #0xfffffffd
    24a8:	7100027f 	cmp	w19, #0x0
    24ac:	52800021 	mov	w1, #0x1                   	// #1
    24b0:	72be0201 	movk	w1, #0xf010, lsl #16
    24b4:	7a411004 	ccmp	w0, w1, #0x4, ne
    24b8:	54000060 	b.eq	24c4 <TEE_ReadObjectData+0x58>
/home/lagadanu/Desktop/qemu/optee_os/lib/libutee/tee_api_objects.c:666
    24bc:	2a1303e0 	mov	w0, w19
    24c0:	9400097a 	bl	4aa8 <TEE_Panic>
/home/lagadanu/Desktop/qemu/optee_os/lib/libutee/tee_api_objects.c:669
    24c4:	2a1303e0 	mov	w0, w19
    24c8:	a94153f3 	ldp	x19, x20, [sp,#16]
    24cc:	a8c37bfd 	ldp	x29, x30, [sp],#48
    24d0:	d65f03c0 	ret

00000000000024d4 <TEE_WriteObjectData>:
TEE_WriteObjectData():
/home/lagadanu/Desktop/qemu/optee_os/lib/libutee/tee_api_objects.c:673
    24d4:	a9be7bfd 	stp	x29, x30, [sp,#-32]!
    24d8:	910003fd 	mov	x29, sp
    24dc:	f9000bf3 	str	x19, [sp,#16]
    24e0:	129fff33 	mov	w19, #0xffff0006            	// #-65530
/home/lagadanu/Desktop/qemu/optee_os/lib/libutee/tee_api_objects.c:676
    24e4:	b4000080 	cbz	x0, 24f4 <TEE_WriteObjectData+0x20>
/home/lagadanu/Desktop/qemu/optee_os/lib/libutee/tee_api_objects.c:686
    24e8:	2a0203e2 	mov	w2, w2
    24ec:	94000abe 	bl	4fe4 <utee_storage_obj_write>
    24f0:	2a0003f3 	mov	w19, w0
/home/lagadanu/Desktop/qemu/optee_os/lib/libutee/tee_api_objects.c:689
    24f4:	7100027f 	cmp	w19, #0x0
    24f8:	1299f7c0 	mov	w0, #0xffff3041            	// #-53183
    24fc:	7a401264 	ccmp	w19, w0, #0x4, ne
    2500:	54000140 	b.eq	2528 <TEE_WriteObjectData+0x54>
/home/lagadanu/Desktop/qemu/optee_os/lib/libutee/tee_api_objects.c:692
    2504:	121e7a61 	and	w1, w19, #0xfffffffd
    2508:	52800020 	mov	w0, #0x1                   	// #1
    250c:	72be0200 	movk	w0, #0xf010, lsl #16
    2510:	6b00003f 	cmp	w1, w0
    2514:	1299fe00 	mov	w0, #0xffff300f            	// #-53233
    2518:	7a401264 	ccmp	w19, w0, #0x4, ne
    251c:	54000060 	b.eq	2528 <TEE_WriteObjectData+0x54>
/home/lagadanu/Desktop/qemu/optee_os/lib/libutee/tee_api_objects.c:694
    2520:	2a1303e0 	mov	w0, w19
    2524:	94000961 	bl	4aa8 <TEE_Panic>
/home/lagadanu/Desktop/qemu/optee_os/lib/libutee/tee_api_objects.c:697
    2528:	2a1303e0 	mov	w0, w19
    252c:	f9400bf3 	ldr	x19, [sp,#16]
    2530:	a8c27bfd 	ldp	x29, x30, [sp],#32
    2534:	d65f03c0 	ret

0000000000002538 <TEE_TruncateObjectData>:
TEE_TruncateObjectData():
/home/lagadanu/Desktop/qemu/optee_os/lib/libutee/tee_api_objects.c:700
    2538:	a9be7bfd 	stp	x29, x30, [sp,#-32]!
    253c:	910003fd 	mov	x29, sp
    2540:	f9000bf3 	str	x19, [sp,#16]
    2544:	129fff33 	mov	w19, #0xffff0006            	// #-65530
/home/lagadanu/Desktop/qemu/optee_os/lib/libutee/tee_api_objects.c:703
    2548:	b4000080 	cbz	x0, 2558 <TEE_TruncateObjectData+0x20>
/home/lagadanu/Desktop/qemu/optee_os/lib/libutee/tee_api_objects.c:708
    254c:	2a0103e1 	mov	w1, w1
    2550:	94000aa8 	bl	4ff0 <utee_storage_obj_trunc>
    2554:	2a0003f3 	mov	w19, w0
/home/lagadanu/Desktop/qemu/optee_os/lib/libutee/tee_api_objects.c:711
    2558:	7100027f 	cmp	w19, #0x0
    255c:	1299f7c0 	mov	w0, #0xffff3041            	// #-53183
    2560:	7a401264 	ccmp	w19, w0, #0x4, ne
    2564:	54000100 	b.eq	2584 <TEE_TruncateObjectData+0x4c>
/home/lagadanu/Desktop/qemu/optee_os/lib/libutee/tee_api_objects.c:713
    2568:	121e7a61 	and	w1, w19, #0xfffffffd
    256c:	52800020 	mov	w0, #0x1                   	// #1
    2570:	72be0200 	movk	w0, #0xf010, lsl #16
    2574:	6b00003f 	cmp	w1, w0
    2578:	54000060 	b.eq	2584 <TEE_TruncateObjectData+0x4c>
/home/lagadanu/Desktop/qemu/optee_os/lib/libutee/tee_api_objects.c:715
    257c:	2a1303e0 	mov	w0, w19
    2580:	9400094a 	bl	4aa8 <TEE_Panic>
/home/lagadanu/Desktop/qemu/optee_os/lib/libutee/tee_api_objects.c:718
    2584:	2a1303e0 	mov	w0, w19
    2588:	f9400bf3 	ldr	x19, [sp,#16]
    258c:	a8c27bfd 	ldp	x29, x30, [sp],#32
    2590:	d65f03c0 	ret

0000000000002594 <TEE_SeekObjectData>:
TEE_SeekObjectData():
/home/lagadanu/Desktop/qemu/optee_os/lib/libutee/tee_api_objects.c:722
    2594:	a9bb7bfd 	stp	x29, x30, [sp,#-80]!
    2598:	910003fd 	mov	x29, sp
    259c:	a90153f3 	stp	x19, x20, [sp,#16]
/home/lagadanu/Desktop/qemu/optee_os/lib/libutee/tee_api_objects.c:727
    25a0:	129fff33 	mov	w19, #0xffff0006            	// #-65530
/home/lagadanu/Desktop/qemu/optee_os/lib/libutee/tee_api_objects.c:722
    25a4:	a9025bf5 	stp	x21, x22, [sp,#32]
/home/lagadanu/Desktop/qemu/optee_os/lib/libutee/tee_api_objects.c:726
    25a8:	b40003e0 	cbz	x0, 2624 <TEE_SeekObjectData+0x90>
    25ac:	aa0003f6 	mov	x22, x0
    25b0:	2a0103f4 	mov	w20, w1
    25b4:	2a0203f5 	mov	w21, w2
/home/lagadanu/Desktop/qemu/optee_os/lib/libutee/tee_api_objects.c:731
    25b8:	9100c3a1 	add	x1, x29, #0x30
    25bc:	94000a39 	bl	4ea0 <utee_cryp_obj_get_info>
    25c0:	2a0003f3 	mov	w19, w0
/home/lagadanu/Desktop/qemu/optee_os/lib/libutee/tee_api_objects.c:732
    25c4:	35000300 	cbnz	w0, 2624 <TEE_SeekObjectData+0x90>
/home/lagadanu/Desktop/qemu/optee_os/lib/libutee/tee_api_objects.c:735
    25c8:	710006bf 	cmp	w21, #0x1
    25cc:	540000c0 	b.eq	25e4 <TEE_SeekObjectData+0x50>
    25d0:	34000115 	cbz	w21, 25f0 <TEE_SeekObjectData+0x5c>
    25d4:	71000abf 	cmp	w21, #0x2
    25d8:	54000180 	b.eq	2608 <TEE_SeekObjectData+0x74>
/home/lagadanu/Desktop/qemu/optee_os/lib/libutee/tee_api_objects.c:761
    25dc:	129ffef3 	mov	w19, #0xffff0008            	// #-65528
    25e0:	14000011 	b	2624 <TEE_SeekObjectData+0x90>
/home/lagadanu/Desktop/qemu/optee_os/lib/libutee/tee_api_objects.c:746
    25e4:	b94047a0 	ldr	w0, [x29,#68]
/home/lagadanu/Desktop/qemu/optee_os/lib/libutee/tee_api_objects.c:743
    25e8:	7100029f 	cmp	w20, #0x0
    25ec:	5400014c 	b.gt	2614 <TEE_SeekObjectData+0x80>
/home/lagadanu/Desktop/qemu/optee_os/lib/libutee/tee_api_objects.c:765
    25f0:	2a1503e2 	mov	w2, w21
    25f4:	2a1403e1 	mov	w1, w20
    25f8:	aa1603e0 	mov	x0, x22
    25fc:	94000a80 	bl	4ffc <utee_storage_obj_seek>
    2600:	2a0003f3 	mov	w19, w0
    2604:	14000008 	b	2624 <TEE_SeekObjectData+0x90>
/home/lagadanu/Desktop/qemu/optee_os/lib/libutee/tee_api_objects.c:753
    2608:	7100029f 	cmp	w20, #0x0
    260c:	54ffff2d 	b.le	25f0 <TEE_SeekObjectData+0x5c>
/home/lagadanu/Desktop/qemu/optee_os/lib/libutee/tee_api_objects.c:755 (discriminator 1)
    2610:	b94043a0 	ldr	w0, [x29,#64]
    2614:	0b000281 	add	w1, w20, w0
/home/lagadanu/Desktop/qemu/optee_os/lib/libutee/tee_api_objects.c:748 (discriminator 1)
    2618:	1299fe13 	mov	w19, #0xffff300f            	// #-53233
/home/lagadanu/Desktop/qemu/optee_os/lib/libutee/tee_api_objects.c:753 (discriminator 1)
    261c:	6b01001f 	cmp	w0, w1
    2620:	54fffe89 	b.ls	25f0 <TEE_SeekObjectData+0x5c>
/home/lagadanu/Desktop/qemu/optee_os/lib/libutee/tee_api_objects.c:768
    2624:	7100027f 	cmp	w19, #0x0
    2628:	1299fe00 	mov	w0, #0xffff300f            	// #-53233
    262c:	7a401264 	ccmp	w19, w0, #0x4, ne
    2630:	54000100 	b.eq	2650 <TEE_SeekObjectData+0xbc>
/home/lagadanu/Desktop/qemu/optee_os/lib/libutee/tee_api_objects.c:770
    2634:	121e7a61 	and	w1, w19, #0xfffffffd
    2638:	52800020 	mov	w0, #0x1                   	// #1
    263c:	72be0200 	movk	w0, #0xf010, lsl #16
    2640:	6b00003f 	cmp	w1, w0
    2644:	54000060 	b.eq	2650 <TEE_SeekObjectData+0xbc>
/home/lagadanu/Desktop/qemu/optee_os/lib/libutee/tee_api_objects.c:772
    2648:	2a1303e0 	mov	w0, w19
    264c:	94000917 	bl	4aa8 <TEE_Panic>
/home/lagadanu/Desktop/qemu/optee_os/lib/libutee/tee_api_objects.c:775
    2650:	2a1303e0 	mov	w0, w19
    2654:	a94153f3 	ldp	x19, x20, [sp,#16]
    2658:	a9425bf5 	ldp	x21, x22, [sp,#32]
    265c:	a8c57bfd 	ldp	x29, x30, [sp],#80
    2660:	d65f03c0 	ret

0000000000002664 <tee_buffer_update>:
tee_buffer_update():
/home/lagadanu/Desktop/qemu/optee_os/lib/libutee/tee_api_operations.c:845
    2664:	a9b87bfd 	stp	x29, x30, [sp,#-128]!
    2668:	910003fd 	mov	x29, sp
    266c:	a90153f3 	stp	x19, x20, [sp,#16]
    2670:	aa0003f3 	mov	x19, x0
    2674:	a9025bf5 	stp	x21, x22, [sp,#32]
    2678:	a9046bf9 	stp	x25, x26, [sp,#64]
    267c:	aa0303f9 	mov	x25, x3
    2680:	a90363f7 	stp	x23, x24, [sp,#48]
    2684:	a90573fb 	stp	x27, x28, [sp,#80]
    2688:	f90037a5 	str	x5, [x29,#104]
/home/lagadanu/Desktop/qemu/optee_os/lib/libutee/tee_api_operations.c:850
    268c:	f94000b6 	ldr	x22, [x5]
/home/lagadanu/Desktop/qemu/optee_os/lib/libutee/tee_api_operations.c:857
    2690:	b5000202 	cbnz	x2, 26d0 <tee_buffer_update+0x6c>
/home/lagadanu/Desktop/qemu/optee_os/lib/libutee/tee_api_operations.c:858
    2694:	b5000183 	cbnz	x3, 26c4 <tee_buffer_update+0x60>
/home/lagadanu/Desktop/qemu/optee_os/lib/libutee/tee_api_operations.c:851
    2698:	d2800017 	mov	x23, #0x0                   	// #0
/home/lagadanu/Desktop/qemu/optee_os/lib/libutee/tee_api_operations.c:933
    269c:	f94037a0 	ldr	x0, [x29,#104]
/home/lagadanu/Desktop/qemu/optee_os/lib/libutee/tee_api_operations.c:935
    26a0:	a94153f3 	ldp	x19, x20, [sp,#16]
    26a4:	a9425bf5 	ldp	x21, x22, [sp,#32]
    26a8:	a9446bf9 	ldp	x25, x26, [sp,#64]
    26ac:	a94573fb 	ldp	x27, x28, [sp,#80]
/home/lagadanu/Desktop/qemu/optee_os/lib/libutee/tee_api_operations.c:933
    26b0:	f9000017 	str	x23, [x0]
/home/lagadanu/Desktop/qemu/optee_os/lib/libutee/tee_api_operations.c:935
    26b4:	a94363f7 	ldp	x23, x24, [sp,#48]
    26b8:	52800000 	mov	w0, #0x0                   	// #0
    26bc:	a8c87bfd 	ldp	x29, x30, [sp],#128
    26c0:	d65f03c0 	ret
/home/lagadanu/Desktop/qemu/optee_os/lib/libutee/tee_api_operations.c:859
    26c4:	52800000 	mov	w0, #0x0                   	// #0
    26c8:	940008f8 	bl	4aa8 <TEE_Panic>
    26cc:	17fffff3 	b	2698 <tee_buffer_update+0x34>
/home/lagadanu/Desktop/qemu/optee_os/lib/libutee/tee_api_operations.c:863
    26d0:	39410000 	ldrb	w0, [x0,#64]
    26d4:	aa0103f8 	mov	x24, x1
    26d8:	aa0203f5 	mov	x21, x2
    26dc:	aa0403fb 	mov	x27, x4
    26e0:	f940267a 	ldr	x26, [x19,#72]
    26e4:	34000860 	cbz	w0, 27f0 <tee_buffer_update+0x18c>
/home/lagadanu/Desktop/qemu/optee_os/lib/libutee/tee_api_operations.c:864
    26e8:	d37ffb54 	lsl	x20, x26, #1
/home/lagadanu/Desktop/qemu/optee_os/lib/libutee/tee_api_operations.c:865
    26ec:	d280003c 	mov	x28, #0x1                   	// #1
/home/lagadanu/Desktop/qemu/optee_os/lib/libutee/tee_api_operations.c:871
    26f0:	f9402a60 	ldr	x0, [x19,#80]
    26f4:	b4000260 	cbz	x0, 2740 <tee_buffer_update+0xdc>
/home/lagadanu/Desktop/qemu/optee_os/lib/libutee/tee_api_operations.c:873
    26f8:	eb1a001f 	cmp	x0, x26
    26fc:	54000802 	b.cs	27fc <tee_buffer_update+0x198>
/home/lagadanu/Desktop/qemu/optee_os/lib/libutee/tee_api_operations.c:874
    2700:	cb00035a 	sub	x26, x26, x0
/home/lagadanu/Desktop/qemu/optee_os/lib/libutee/tee_api_operations.c:877
    2704:	f9401e63 	ldr	x3, [x19,#56]
/home/lagadanu/Desktop/qemu/optee_os/lib/libutee/tee_api_operations.c:876
    2708:	eb19035f 	cmp	x26, x25
    270c:	9a99935a 	csel	x26, x26, x25, ls
/home/lagadanu/Desktop/qemu/optee_os/lib/libutee/tee_api_operations.c:877
    2710:	aa1503e1 	mov	x1, x21
    2714:	aa1a03e2 	mov	x2, x26
    2718:	8b000060 	add	x0, x3, x0
    271c:	97fffaff 	bl	1318 <memcpy>
/home/lagadanu/Desktop/qemu/optee_os/lib/libutee/tee_api_operations.c:878
    2720:	a9448262 	ldp	x2, x0, [x19,#72]
    2724:	8b000340 	add	x0, x26, x0
    2728:	f9002a60 	str	x0, [x19,#80]
/home/lagadanu/Desktop/qemu/optee_os/lib/libutee/tee_api_operations.c:881
    272c:	9ac20801 	udiv	x1, x0, x2
    2730:	9b028020 	msub	x0, x1, x2, x0
    2734:	b5fffb20 	cbnz	x0, 2698 <tee_buffer_update+0x34>
/home/lagadanu/Desktop/qemu/optee_os/lib/libutee/tee_api_operations.c:879
    2738:	8b1a02b5 	add	x21, x21, x26
/home/lagadanu/Desktop/qemu/optee_os/lib/libutee/tee_api_operations.c:880
    273c:	cb1a0339 	sub	x25, x25, x26
/home/lagadanu/Desktop/qemu/optee_os/lib/libutee/tee_api_operations.c:886
    2740:	f9402a77 	ldr	x23, [x19,#80]
    2744:	8b1c029c 	add	x28, x20, x28
    2748:	b4000617 	cbz	x23, 2808 <tee_buffer_update+0x1a4>
/home/lagadanu/Desktop/qemu/optee_os/lib/libutee/tee_api_operations.c:887 (discriminator 1)
    274c:	8b170320 	add	x0, x25, x23
/home/lagadanu/Desktop/qemu/optee_os/lib/libutee/tee_api_operations.c:886 (discriminator 1)
    2750:	eb1c001f 	cmp	x0, x28
    2754:	54000583 	b.cc	2804 <tee_buffer_update+0x1a0>
/home/lagadanu/Desktop/qemu/optee_os/lib/libutee/tee_api_operations.c:888
    2758:	f9402661 	ldr	x1, [x19,#72]
    275c:	cb14001a 	sub	x26, x0, x20
/home/lagadanu/Desktop/qemu/optee_os/lib/libutee/tee_api_operations.c:891
    2760:	910203a4 	add	x4, x29, #0x80
/home/lagadanu/Desktop/qemu/optee_os/lib/libutee/tee_api_operations.c:892
    2764:	aa1b03e3 	mov	x3, x27
/home/lagadanu/Desktop/qemu/optee_os/lib/libutee/tee_api_operations.c:888
    2768:	d1000420 	sub	x0, x1, #0x1
    276c:	cb0103e1 	neg	x1, x1
    2770:	8b00035a 	add	x26, x26, x0
/home/lagadanu/Desktop/qemu/optee_os/lib/libutee/tee_api_operations.c:892
    2774:	b9405a60 	ldr	w0, [x19,#88]
/home/lagadanu/Desktop/qemu/optee_os/lib/libutee/tee_api_operations.c:888
    2778:	8a01035a 	and	x26, x26, x1
/home/lagadanu/Desktop/qemu/optee_os/lib/libutee/tee_api_operations.c:892
    277c:	f9401e61 	ldr	x1, [x19,#56]
/home/lagadanu/Desktop/qemu/optee_os/lib/libutee/tee_api_operations.c:890
    2780:	eb17035f 	cmp	x26, x23
/home/lagadanu/Desktop/qemu/optee_os/lib/libutee/tee_api_operations.c:891
    2784:	f81f8c96 	str	x22, [x4,#-8]!
/home/lagadanu/Desktop/qemu/optee_os/lib/libutee/tee_api_operations.c:890
    2788:	9a97935a 	csel	x26, x26, x23, ls
/home/lagadanu/Desktop/qemu/optee_os/lib/libutee/tee_api_operations.c:892
    278c:	aa1a03e2 	mov	x2, x26
    2790:	d63f0300 	blr	x24
/home/lagadanu/Desktop/qemu/optee_os/lib/libutee/tee_api_operations.c:893
    2794:	34000040 	cbz	w0, 279c <tee_buffer_update+0x138>
/home/lagadanu/Desktop/qemu/optee_os/lib/libutee/tee_api_operations.c:894
    2798:	940008c4 	bl	4aa8 <TEE_Panic>
/home/lagadanu/Desktop/qemu/optee_os/lib/libutee/tee_api_operations.c:898
    279c:	f9402a60 	ldr	x0, [x19,#80]
/home/lagadanu/Desktop/qemu/optee_os/lib/libutee/tee_api_operations.c:895
    27a0:	f9403fb7 	ldr	x23, [x29,#120]
/home/lagadanu/Desktop/qemu/optee_os/lib/libutee/tee_api_operations.c:898
    27a4:	cb1a0000 	sub	x0, x0, x26
    27a8:	f9002a60 	str	x0, [x19,#80]
/home/lagadanu/Desktop/qemu/optee_os/lib/libutee/tee_api_operations.c:895
    27ac:	8b17037b 	add	x27, x27, x23
/home/lagadanu/Desktop/qemu/optee_os/lib/libutee/tee_api_operations.c:896
    27b0:	cb1702d6 	sub	x22, x22, x23
/home/lagadanu/Desktop/qemu/optee_os/lib/libutee/tee_api_operations.c:899
    27b4:	b40002a0 	cbz	x0, 2808 <tee_buffer_update+0x1a4>
/home/lagadanu/Desktop/qemu/optee_os/lib/libutee/tee_api_operations.c:903
    27b8:	f9401e60 	ldr	x0, [x19,#56]
    27bc:	cb1a0282 	sub	x2, x20, x26
    27c0:	8b1a0001 	add	x1, x0, x26
    27c4:	97fffad5 	bl	1318 <memcpy>
/home/lagadanu/Desktop/qemu/optee_os/lib/libutee/tee_api_operations.c:929
    27c8:	f9401e63 	ldr	x3, [x19,#56]
    27cc:	aa1903e2 	mov	x2, x25
    27d0:	f9402a60 	ldr	x0, [x19,#80]
    27d4:	aa1503e1 	mov	x1, x21
    27d8:	8b000060 	add	x0, x3, x0
    27dc:	97fffacf 	bl	1318 <memcpy>
/home/lagadanu/Desktop/qemu/optee_os/lib/libutee/tee_api_operations.c:930
    27e0:	f9402a60 	ldr	x0, [x19,#80]
    27e4:	8b190019 	add	x25, x0, x25
    27e8:	f9002a79 	str	x25, [x19,#80]
    27ec:	17ffffac 	b	269c <tee_buffer_update+0x38>
/home/lagadanu/Desktop/qemu/optee_os/lib/libutee/tee_api_operations.c:867
    27f0:	aa1a03f4 	mov	x20, x26
/home/lagadanu/Desktop/qemu/optee_os/lib/libutee/tee_api_operations.c:868
    27f4:	d280001c 	mov	x28, #0x0                   	// #0
    27f8:	17ffffbe 	b	26f0 <tee_buffer_update+0x8c>
/home/lagadanu/Desktop/qemu/optee_os/lib/libutee/tee_api_operations.c:876
    27fc:	cb00029a 	sub	x26, x20, x0
    2800:	17ffffc1 	b	2704 <tee_buffer_update+0xa0>
/home/lagadanu/Desktop/qemu/optee_os/lib/libutee/tee_api_operations.c:851
    2804:	d2800017 	mov	x23, #0x0                   	// #0
/home/lagadanu/Desktop/qemu/optee_os/lib/libutee/tee_api_operations.c:910
    2808:	eb1c033f 	cmp	x25, x28
    280c:	54fffde3 	b.cc	27c8 <tee_buffer_update+0x164>
/home/lagadanu/Desktop/qemu/optee_os/lib/libutee/tee_api_operations.c:912
    2810:	52806200 	mov	w0, #0x310                 	// #784
    2814:	b9400261 	ldr	w1, [x19]
    2818:	72a20000 	movk	w0, #0x1000, lsl #16
    281c:	6b00003f 	cmp	w1, w0
    2820:	f9402660 	ldr	x0, [x19,#72]
    2824:	54000281 	b.ne	2874 <tee_buffer_update+0x210>
/home/lagadanu/Desktop/qemu/optee_os/lib/libutee/tee_api_operations.c:913
    2828:	cb140334 	sub	x20, x25, x20
    282c:	d1000401 	sub	x1, x0, #0x1
    2830:	8b010294 	add	x20, x20, x1
/home/lagadanu/Desktop/qemu/optee_os/lib/libutee/tee_api_operations.c:915
    2834:	cb0003e0 	neg	x0, x0
/home/lagadanu/Desktop/qemu/optee_os/lib/libutee/tee_api_operations.c:917
    2838:	910203a4 	add	x4, x29, #0x80
/home/lagadanu/Desktop/qemu/optee_os/lib/libutee/tee_api_operations.c:915
    283c:	8a000294 	and	x20, x20, x0
/home/lagadanu/Desktop/qemu/optee_os/lib/libutee/tee_api_operations.c:918
    2840:	b9405a60 	ldr	w0, [x19,#88]
    2844:	aa1b03e3 	mov	x3, x27
    2848:	aa1403e2 	mov	x2, x20
/home/lagadanu/Desktop/qemu/optee_os/lib/libutee/tee_api_operations.c:917
    284c:	f81f8c96 	str	x22, [x4,#-8]!
/home/lagadanu/Desktop/qemu/optee_os/lib/libutee/tee_api_operations.c:918
    2850:	aa1503e1 	mov	x1, x21
    2854:	d63f0300 	blr	x24
/home/lagadanu/Desktop/qemu/optee_os/lib/libutee/tee_api_operations.c:919
    2858:	34000040 	cbz	w0, 2860 <tee_buffer_update+0x1fc>
/home/lagadanu/Desktop/qemu/optee_os/lib/libutee/tee_api_operations.c:920
    285c:	94000893 	bl	4aa8 <TEE_Panic>
/home/lagadanu/Desktop/qemu/optee_os/lib/libutee/tee_api_operations.c:925
    2860:	f9403fa0 	ldr	x0, [x29,#120]
/home/lagadanu/Desktop/qemu/optee_os/lib/libutee/tee_api_operations.c:921
    2864:	8b1402b5 	add	x21, x21, x20
/home/lagadanu/Desktop/qemu/optee_os/lib/libutee/tee_api_operations.c:922
    2868:	cb140339 	sub	x25, x25, x20
/home/lagadanu/Desktop/qemu/optee_os/lib/libutee/tee_api_operations.c:925
    286c:	8b0002f7 	add	x23, x23, x0
    2870:	17ffffd6 	b	27c8 <tee_buffer_update+0x164>
/home/lagadanu/Desktop/qemu/optee_os/lib/libutee/tee_api_operations.c:915
    2874:	cb140014 	sub	x20, x0, x20
    2878:	8b190294 	add	x20, x20, x25
    287c:	17ffffee 	b	2834 <tee_buffer_update+0x1d0>

0000000000002880 <TEE_FreeOperation>:
TEE_FreeOperation():
/home/lagadanu/Desktop/qemu/optee_os/lib/libutee/tee_api_operations.c:344
    2880:	a9be7bfd 	stp	x29, x30, [sp,#-32]!
    2884:	910003fd 	mov	x29, sp
    2888:	f9000bf3 	str	x19, [sp,#16]
    288c:	aa0003f3 	mov	x19, x0
/home/lagadanu/Desktop/qemu/optee_os/lib/libutee/tee_api_operations.c:347
    2890:	b5000060 	cbnz	x0, 289c <TEE_FreeOperation+0x1c>
/home/lagadanu/Desktop/qemu/optee_os/lib/libutee/tee_api_operations.c:348
    2894:	52800000 	mov	w0, #0x0                   	// #0
    2898:	94000884 	bl	4aa8 <TEE_Panic>
/home/lagadanu/Desktop/qemu/optee_os/lib/libutee/tee_api_operations.c:355
    289c:	b9405a60 	ldr	w0, [x19,#88]
    28a0:	9400096b 	bl	4e4c <utee_cryp_state_free>
/home/lagadanu/Desktop/qemu/optee_os/lib/libutee/tee_api_operations.c:356
    28a4:	34000040 	cbz	w0, 28ac <TEE_FreeOperation+0x2c>
/home/lagadanu/Desktop/qemu/optee_os/lib/libutee/tee_api_operations.c:357
    28a8:	94000880 	bl	4aa8 <TEE_Panic>
/home/lagadanu/Desktop/qemu/optee_os/lib/libutee/tee_api_operations.c:359
    28ac:	f9401e60 	ldr	x0, [x19,#56]
    28b0:	97fffc39 	bl	1994 <TEE_Free>
/home/lagadanu/Desktop/qemu/optee_os/lib/libutee/tee_api_operations.c:360
    28b4:	aa1303e0 	mov	x0, x19
/home/lagadanu/Desktop/qemu/optee_os/lib/libutee/tee_api_operations.c:361
    28b8:	f9400bf3 	ldr	x19, [sp,#16]
    28bc:	a8c27bfd 	ldp	x29, x30, [sp],#32
/home/lagadanu/Desktop/qemu/optee_os/lib/libutee/tee_api_operations.c:360
    28c0:	17fffc35 	b	1994 <TEE_Free>

00000000000028c4 <TEE_AllocateOperation>:
TEE_AllocateOperation():
/home/lagadanu/Desktop/qemu/optee_os/lib/libutee/tee_api_operations.c:37
    28c4:	a9b97bfd 	stp	x29, x30, [sp,#-112]!
    28c8:	910003fd 	mov	x29, sp
    28cc:	a90363f7 	stp	x23, x24, [sp,#48]
    28d0:	2a0203f8 	mov	w24, w2
    28d4:	a90153f3 	stp	x19, x20, [sp,#16]
    28d8:	2a0303f7 	mov	w23, w3
    28dc:	a9025bf5 	stp	x21, x22, [sp,#32]
    28e0:	2a0103f3 	mov	w19, w1
    28e4:	a9046bf9 	stp	x25, x26, [sp,#64]
    28e8:	a90573fb 	stp	x27, x28, [sp,#80]
    28ec:	f90037a0 	str	x0, [x29,#104]
/home/lagadanu/Desktop/qemu/optee_os/lib/libutee/tee_api_operations.c:46
    28f0:	b5000040 	cbnz	x0, 28f8 <TEE_AllocateOperation+0x34>
/home/lagadanu/Desktop/qemu/optee_os/lib/libutee/tee_api_operations.c:47
    28f4:	9400086d 	bl	4aa8 <TEE_Panic>
/home/lagadanu/Desktop/qemu/optee_os/lib/libutee/tee_api_operations.c:49
    28f8:	52808200 	mov	w0, #0x410                 	// #1040
    28fc:	72a20000 	movk	w0, #0x1000, lsl #16
    2900:	6b00027f 	cmp	w19, w0
    2904:	54002cc0 	b.eq	2e9c <TEE_AllocateOperation+0x5d8>
/home/lagadanu/Desktop/qemu/optee_os/lib/libutee/tee_api_operations.c:53
    2908:	52882620 	mov	w0, #0x4131                	// #16689
    290c:	72ae0000 	movk	w0, #0x7000, lsl #16
    2910:	6b00027f 	cmp	w19, w0
    2914:	54000e60 	b.eq	2ae0 <TEE_AllocateOperation+0x21c>
    2918:	540007c8 	b.hi	2a10 <TEE_AllocateOperation+0x14c>
    291c:	52842620 	mov	w0, #0x2131                	// #8497
    2920:	72ae0000 	movk	w0, #0x7000, lsl #16
    2924:	6b00027f 	cmp	w19, w0
    2928:	54000aa0 	b.eq	2a7c <TEE_AllocateOperation+0x1b8>
    292c:	54000568 	b.hi	29d8 <TEE_AllocateOperation+0x114>
    2930:	52820820 	mov	w0, #0x1041                	// #4161
    2934:	72ae0000 	movk	w0, #0x7000, lsl #16
    2938:	6b00027f 	cmp	w19, w0
    293c:	54000840 	b.eq	2a44 <TEE_AllocateOperation+0x180>
    2940:	11400400 	add	w0, w0, #0x1, lsl #12
    2944:	6b00027f 	cmp	w19, w0
    2948:	54000d40 	b.eq	2af0 <TEE_AllocateOperation+0x22c>
/home/lagadanu/Desktop/qemu/optee_os/lib/libutee/tee_api_operations.c:108
    294c:	52842620 	mov	w0, #0x2131                	// #8497
    2950:	72ae0000 	movk	w0, #0x7000, lsl #16
    2954:	6b00027f 	cmp	w19, w0
    2958:	540009e0 	b.eq	2a94 <TEE_AllocateOperation+0x1d0>
    295c:	54001ae8 	b.hi	2cb8 <TEE_AllocateOperation+0x3f4>
    2960:	5280a260 	mov	w0, #0x513                 	// #1299
    2964:	72a60000 	movk	w0, #0x3000, lsl #16
    2968:	6b00027f 	cmp	w19, w0
    296c:	54001000 	b.eq	2b6c <TEE_AllocateOperation+0x2a8>
    2970:	54001208 	b.hi	2bb0 <TEE_AllocateOperation+0x2ec>
    2974:	52806200 	mov	w0, #0x310                 	// #784
    2978:	72a20000 	movk	w0, #0x1000, lsl #16
    297c:	6b00027f 	cmp	w19, w0
    2980:	54002a80 	b.eq	2ed0 <TEE_AllocateOperation+0x60c>
    2984:	52802220 	mov	w0, #0x111                 	// #273
    2988:	54000dc8 	b.hi	2b40 <TEE_AllocateOperation+0x27c>
    298c:	72a20000 	movk	w0, #0x1000, lsl #16
    2990:	6b00027f 	cmp	w19, w0
    2994:	54000c08 	b.hi	2b14 <TEE_AllocateOperation+0x250>
    2998:	52802200 	mov	w0, #0x110                 	// #272
    299c:	72a20000 	movk	w0, #0x1000, lsl #16
    29a0:	6b00027f 	cmp	w19, w0
    29a4:	540029a2 	b.cs	2ed8 <TEE_AllocateOperation+0x614>
    29a8:	52800200 	mov	w0, #0x10                  	// #16
    29ac:	72a20000 	movk	w0, #0x1000, lsl #16
    29b0:	6b00027f 	cmp	w19, w0
    29b4:	540000e3 	b.cc	29d0 <TEE_AllocateOperation+0x10c>
    29b8:	11000400 	add	w0, w0, #0x1
    29bc:	6b00027f 	cmp	w19, w0
    29c0:	540028c9 	b.ls	2ed8 <TEE_AllocateOperation+0x614>
    29c4:	11000800 	add	w0, w0, #0x2
    29c8:	6b00027f 	cmp	w19, w0
    29cc:	54002860 	b.eq	2ed8 <TEE_AllocateOperation+0x614>
/home/lagadanu/Desktop/qemu/optee_os/lib/libutee/tee_api_operations.c:247
    29d0:	129ffeb4 	mov	w20, #0xffff000a            	// #-65526
    29d4:	1400003b 	b	2ac0 <TEE_AllocateOperation+0x1fc>
/home/lagadanu/Desktop/qemu/optee_os/lib/libutee/tee_api_operations.c:53
    29d8:	52862620 	mov	w0, #0x3131                	// #12593
    29dc:	72ae0000 	movk	w0, #0x7000, lsl #16
    29e0:	6b00027f 	cmp	w19, w0
    29e4:	54000680 	b.eq	2ab4 <TEE_AllocateOperation+0x1f0>
    29e8:	113c4000 	add	w0, w0, #0xf10
    29ec:	6b00027f 	cmp	w19, w0
    29f0:	54000860 	b.eq	2afc <TEE_AllocateOperation+0x238>
    29f4:	52860820 	mov	w0, #0x3041                	// #12353
    29f8:	72ae0000 	movk	w0, #0x7000, lsl #16
    29fc:	6b00027f 	cmp	w19, w0
    2a00:	54fffa61 	b.ne	294c <TEE_AllocateOperation+0x88>
/home/lagadanu/Desktop/qemu/optee_os/lib/libutee/tee_api_operations.c:58
    2a04:	129ffeb4 	mov	w20, #0xffff000a            	// #-65526
/home/lagadanu/Desktop/qemu/optee_os/lib/libutee/tee_api_operations.c:87
    2a08:	710402ff 	cmp	w23, #0x100
    2a0c:	14000010 	b	2a4c <TEE_AllocateOperation+0x188>
/home/lagadanu/Desktop/qemu/optee_os/lib/libutee/tee_api_operations.c:53
    2a10:	52840840 	mov	w0, #0x2042                	// #8258
    2a14:	72b00000 	movk	w0, #0x8000, lsl #16
    2a18:	6b00027f 	cmp	w19, w0
    2a1c:	540006a0 	b.eq	2af0 <TEE_AllocateOperation+0x22c>
    2a20:	540001a8 	b.hi	2a54 <TEE_AllocateOperation+0x190>
    2a24:	528a0820 	mov	w0, #0x5041                	// #20545
    2a28:	72ae0000 	movk	w0, #0x7000, lsl #16
    2a2c:	6b00027f 	cmp	w19, w0
    2a30:	540006c0 	b.eq	2b08 <TEE_AllocateOperation+0x244>
    2a34:	52820840 	mov	w0, #0x1042                	// #4162
    2a38:	72b00000 	movk	w0, #0x8000, lsl #16
    2a3c:	6b00027f 	cmp	w19, w0
    2a40:	54fff861 	b.ne	294c <TEE_AllocateOperation+0x88>
/home/lagadanu/Desktop/qemu/optee_os/lib/libutee/tee_api_operations.c:75
    2a44:	710302ff 	cmp	w23, #0xc0
/home/lagadanu/Desktop/qemu/optee_os/lib/libutee/tee_api_operations.c:58
    2a48:	129ffeb4 	mov	w20, #0xffff000a            	// #-65526
/home/lagadanu/Desktop/qemu/optee_os/lib/libutee/tee_api_operations.c:99
    2a4c:	540003a1 	b.ne	2ac0 <TEE_AllocateOperation+0x1fc>
    2a50:	17ffffbf 	b	294c <TEE_AllocateOperation+0x88>
/home/lagadanu/Desktop/qemu/optee_os/lib/libutee/tee_api_operations.c:53
    2a54:	52880840 	mov	w0, #0x4042                	// #16450
    2a58:	72b00000 	movk	w0, #0x8000, lsl #16
    2a5c:	6b00027f 	cmp	w19, w0
    2a60:	540004e0 	b.eq	2afc <TEE_AllocateOperation+0x238>
    2a64:	11400400 	add	w0, w0, #0x1, lsl #12
    2a68:	6b00027f 	cmp	w19, w0
    2a6c:	540004e0 	b.eq	2b08 <TEE_AllocateOperation+0x244>
    2a70:	52860840 	mov	w0, #0x3042                	// #12354
    2a74:	72b00000 	movk	w0, #0x8000, lsl #16
    2a78:	17ffffe1 	b	29fc <TEE_AllocateOperation+0x138>
/home/lagadanu/Desktop/qemu/optee_os/lib/libutee/tee_api_operations.c:57
    2a7c:	510802e0 	sub	w0, w23, #0x200
/home/lagadanu/Desktop/qemu/optee_os/lib/libutee/tee_api_operations.c:58
    2a80:	129ffeb4 	mov	w20, #0xffff000a            	// #-65526
/home/lagadanu/Desktop/qemu/optee_os/lib/libutee/tee_api_operations.c:57
    2a84:	7108001f 	cmp	w0, #0x200
    2a88:	540001c8 	b.hi	2ac0 <TEE_AllocateOperation+0x1fc>
/home/lagadanu/Desktop/qemu/optee_os/lib/libutee/tee_api_operations.c:59
    2a8c:	f24016ff 	tst	x23, #0x3f
    2a90:	54000181 	b.ne	2ac0 <TEE_AllocateOperation+0x1fc>
/home/lagadanu/Desktop/qemu/optee_os/lib/libutee/tee_api_operations.c:154
    2a94:	71000b1f 	cmp	w24, #0x2
    2a98:	540029c0 	b.eq	2fd0 <TEE_AllocateOperation+0x70c>
/home/lagadanu/Desktop/qemu/optee_os/lib/libutee/tee_api_operations.c:157
    2a9c:	71000f1f 	cmp	w24, #0x3
    2aa0:	54fff981 	b.ne	29d0 <TEE_AllocateOperation+0x10c>
/home/lagadanu/Desktop/qemu/optee_os/lib/libutee/tee_api_operations.c:44
    2aa4:	52800019 	mov	w25, #0x0                   	// #0
/home/lagadanu/Desktop/qemu/optee_os/lib/libutee/tee_api_operations.c:43
    2aa8:	5280001a 	mov	w26, #0x0                   	// #0
/home/lagadanu/Desktop/qemu/optee_os/lib/libutee/tee_api_operations.c:158
    2aac:	52800403 	mov	w3, #0x20                  	// #32
    2ab0:	140000d6 	b	2e08 <TEE_AllocateOperation+0x544>
/home/lagadanu/Desktop/qemu/optee_os/lib/libutee/tee_api_operations.c:64
    2ab4:	712002ff 	cmp	w23, #0x800
/home/lagadanu/Desktop/qemu/optee_os/lib/libutee/tee_api_operations.c:58
    2ab8:	129ffeb4 	mov	w20, #0xffff000a            	// #-65526
/home/lagadanu/Desktop/qemu/optee_os/lib/libutee/tee_api_operations.c:69
    2abc:	54fffec0 	b.eq	2a94 <TEE_AllocateOperation+0x1d0>
/home/lagadanu/Desktop/qemu/optee_os/lib/libutee/tee_api_operations.c:341
    2ac0:	2a1403e0 	mov	w0, w20
    2ac4:	a94153f3 	ldp	x19, x20, [sp,#16]
    2ac8:	a9425bf5 	ldp	x21, x22, [sp,#32]
    2acc:	a94363f7 	ldp	x23, x24, [sp,#48]
    2ad0:	a9446bf9 	ldp	x25, x26, [sp,#64]
    2ad4:	a94573fb 	ldp	x27, x28, [sp,#80]
    2ad8:	a8c77bfd 	ldp	x29, x30, [sp],#112
    2adc:	d65f03c0 	ret
/home/lagadanu/Desktop/qemu/optee_os/lib/libutee/tee_api_operations.c:69
    2ae0:	12157ae0 	and	w0, w23, #0xfffffbff
/home/lagadanu/Desktop/qemu/optee_os/lib/libutee/tee_api_operations.c:58
    2ae4:	129ffeb4 	mov	w20, #0xffff000a            	// #-65526
/home/lagadanu/Desktop/qemu/optee_os/lib/libutee/tee_api_operations.c:69
    2ae8:	7120001f 	cmp	w0, #0x800
    2aec:	17fffff4 	b	2abc <TEE_AllocateOperation+0x1f8>
/home/lagadanu/Desktop/qemu/optee_os/lib/libutee/tee_api_operations.c:58
    2af0:	129ffeb4 	mov	w20, #0xffff000a            	// #-65526
/home/lagadanu/Desktop/qemu/optee_os/lib/libutee/tee_api_operations.c:81
    2af4:	710382ff 	cmp	w23, #0xe0
    2af8:	17ffffd5 	b	2a4c <TEE_AllocateOperation+0x188>
/home/lagadanu/Desktop/qemu/optee_os/lib/libutee/tee_api_operations.c:58
    2afc:	129ffeb4 	mov	w20, #0xffff000a            	// #-65526
/home/lagadanu/Desktop/qemu/optee_os/lib/libutee/tee_api_operations.c:93
    2b00:	710602ff 	cmp	w23, #0x180
    2b04:	17ffffd2 	b	2a4c <TEE_AllocateOperation+0x188>
/home/lagadanu/Desktop/qemu/optee_os/lib/libutee/tee_api_operations.c:58
    2b08:	129ffeb4 	mov	w20, #0xffff000a            	// #-65526
/home/lagadanu/Desktop/qemu/optee_os/lib/libutee/tee_api_operations.c:99
    2b0c:	710826ff 	cmp	w23, #0x209
    2b10:	17ffffcf 	b	2a4c <TEE_AllocateOperation+0x188>
/home/lagadanu/Desktop/qemu/optee_os/lib/libutee/tee_api_operations.c:108
    2b14:	52802260 	mov	w0, #0x113                 	// #275
    2b18:	72a20000 	movk	w0, #0x1000, lsl #16
    2b1c:	6b00027f 	cmp	w19, w0
    2b20:	54001dc0 	b.eq	2ed8 <TEE_AllocateOperation+0x614>
    2b24:	1103f400 	add	w0, w0, #0xfd
    2b28:	6b00027f 	cmp	w19, w0
    2b2c:	54fff521 	b.ne	29d0 <TEE_AllocateOperation+0x10c>
    2b30:	5280001c 	mov	w28, #0x0                   	// #0
/home/lagadanu/Desktop/qemu/optee_os/lib/libutee/tee_api_operations.c:44
    2b34:	52800019 	mov	w25, #0x0                   	// #0
/home/lagadanu/Desktop/qemu/optee_os/lib/libutee/tee_api_operations.c:41
    2b38:	d2800036 	mov	x22, #0x1                   	// #1
    2b3c:	140000df 	b	2eb8 <TEE_AllocateOperation+0x5f4>
/home/lagadanu/Desktop/qemu/optee_os/lib/libutee/tee_api_operations.c:108
    2b40:	72a60000 	movk	w0, #0x3000, lsl #16
    2b44:	6b00027f 	cmp	w19, w0
    2b48:	54000208 	b.hi	2b88 <TEE_AllocateOperation+0x2c4>
    2b4c:	52802200 	mov	w0, #0x110                 	// #272
    2b50:	72a60000 	movk	w0, #0x3000, lsl #16
    2b54:	6b00027f 	cmp	w19, w0
    2b58:	540000a2 	b.cs	2b6c <TEE_AllocateOperation+0x2a8>
    2b5c:	12a60000 	mov	w0, #0xcfffffff            	// #-805306369
    2b60:	0b000260 	add	w0, w19, w0
    2b64:	7100141f 	cmp	w0, #0x5
    2b68:	54fff348 	b.hi	29d0 <TEE_AllocateOperation+0x10c>
/home/lagadanu/Desktop/qemu/optee_os/lib/libutee/tee_api_operations.c:58
    2b6c:	129ffeb4 	mov	w20, #0xffff000a            	// #-65526
/home/lagadanu/Desktop/qemu/optee_os/lib/libutee/tee_api_operations.c:241
    2b70:	7100131f 	cmp	w24, #0x4
    2b74:	54fffa61 	b.ne	2ac0 <TEE_AllocateOperation+0x1fc>
/home/lagadanu/Desktop/qemu/optee_os/lib/libutee/tee_api_operations.c:44
    2b78:	52800019 	mov	w25, #0x0                   	// #0
/home/lagadanu/Desktop/qemu/optee_os/lib/libutee/tee_api_operations.c:43
    2b7c:	5280001a 	mov	w26, #0x0                   	// #0
/home/lagadanu/Desktop/qemu/optee_os/lib/libutee/tee_api_operations.c:243
    2b80:	52800103 	mov	w3, #0x8                   	// #8
    2b84:	140000a1 	b	2e08 <TEE_AllocateOperation+0x544>
/home/lagadanu/Desktop/qemu/optee_os/lib/libutee/tee_api_operations.c:108
    2b88:	52802260 	mov	w0, #0x113                 	// #275
    2b8c:	72a60000 	movk	w0, #0x3000, lsl #16
    2b90:	6b00027f 	cmp	w19, w0
    2b94:	54fffec0 	b.eq	2b6c <TEE_AllocateOperation+0x2a8>
    2b98:	54fff1c3 	b.cc	29d0 <TEE_AllocateOperation+0x10c>
    2b9c:	529f5e00 	mov	w0, #0xfaf0                	// #64240
    2ba0:	72b9ffe0 	movk	w0, #0xcfff, lsl #16
    2ba4:	0b000260 	add	w0, w19, w0
    2ba8:	7100041f 	cmp	w0, #0x1
    2bac:	17ffffef 	b	2b68 <TEE_AllocateOperation+0x2a4>
    2bb0:	52804600 	mov	w0, #0x230                 	// #560
    2bb4:	72ac0420 	movk	w0, #0x6021, lsl #16
    2bb8:	6b00027f 	cmp	w19, w0
    2bbc:	540003a0 	b.eq	2c30 <TEE_AllocateOperation+0x36c>
    2bc0:	54000468 	b.hi	2c4c <TEE_AllocateOperation+0x388>
    2bc4:	528000c0 	mov	w0, #0x6                   	// #6
    2bc8:	72aa0000 	movk	w0, #0x5000, lsl #16
    2bcc:	6b00027f 	cmp	w19, w0
    2bd0:	54000228 	b.hi	2c14 <TEE_AllocateOperation+0x350>
    2bd4:	52800020 	mov	w0, #0x1                   	// #1
    2bd8:	72aa0000 	movk	w0, #0x5000, lsl #16
    2bdc:	6b00027f 	cmp	w19, w0
    2be0:	54001902 	b.cs	2f00 <TEE_AllocateOperation+0x63c>
    2be4:	5280e200 	mov	w0, #0x710                 	// #1808
    2be8:	72a80000 	movk	w0, #0x4000, lsl #16
    2bec:	6b00027f 	cmp	w19, w0
    2bf0:	54001740 	b.eq	2ed8 <TEE_AllocateOperation+0x614>
    2bf4:	11040000 	add	w0, w0, #0x100
    2bf8:	6b00027f 	cmp	w19, w0
    2bfc:	54fff9a0 	b.eq	2b30 <TEE_AllocateOperation+0x26c>
    2c00:	5280c200 	mov	w0, #0x610                 	// #1552
    2c04:	72a60000 	movk	w0, #0x3000, lsl #16
    2c08:	6b00027f 	cmp	w19, w0
    2c0c:	54ffee21 	b.ne	29d0 <TEE_AllocateOperation+0x10c>
    2c10:	17ffffd7 	b	2b6c <TEE_AllocateOperation+0x2a8>
    2c14:	52800600 	mov	w0, #0x30                  	// #48
    2c18:	72ac0000 	movk	w0, #0x6000, lsl #16
    2c1c:	6b00027f 	cmp	w19, w0
    2c20:	54001620 	b.eq	2ee4 <TEE_AllocateOperation+0x620>
    2c24:	11040000 	add	w0, w0, #0x100
    2c28:	6b00027f 	cmp	w19, w0
    2c2c:	54ffed21 	b.ne	29d0 <TEE_AllocateOperation+0x10c>
/home/lagadanu/Desktop/qemu/optee_os/lib/libutee/tee_api_operations.c:170
    2c30:	34001d98 	cbz	w24, 2fe0 <TEE_AllocateOperation+0x71c>
/home/lagadanu/Desktop/qemu/optee_os/lib/libutee/tee_api_operations.c:172
    2c34:	7100071f 	cmp	w24, #0x1
    2c38:	54ffecc1 	b.ne	29d0 <TEE_AllocateOperation+0x10c>
/home/lagadanu/Desktop/qemu/optee_os/lib/libutee/tee_api_operations.c:44
    2c3c:	52800019 	mov	w25, #0x0                   	// #0
/home/lagadanu/Desktop/qemu/optee_os/lib/libutee/tee_api_operations.c:173
    2c40:	2a1803fa 	mov	w26, w24
/home/lagadanu/Desktop/qemu/optee_os/lib/libutee/tee_api_operations.c:174
    2c44:	52800083 	mov	w3, #0x4                   	// #4
    2c48:	14000070 	b	2e08 <TEE_AllocateOperation+0x544>
/home/lagadanu/Desktop/qemu/optee_os/lib/libutee/tee_api_operations.c:108
    2c4c:	52804600 	mov	w0, #0x230                 	// #560
    2c50:	72ac0c20 	movk	w0, #0x6061, lsl #16
    2c54:	6b00027f 	cmp	w19, w0
    2c58:	54fffec0 	b.eq	2c30 <TEE_AllocateOperation+0x36c>
    2c5c:	54000168 	b.hi	2c88 <TEE_AllocateOperation+0x3c4>
    2c60:	52804600 	mov	w0, #0x230                 	// #560
    2c64:	72ac0820 	movk	w0, #0x6041, lsl #16
    2c68:	6b00027f 	cmp	w19, w0
    2c6c:	54fffe20 	b.eq	2c30 <TEE_AllocateOperation+0x36c>
    2c70:	11440000 	add	w0, w0, #0x100, lsl #12
    2c74:	6b00027f 	cmp	w19, w0
    2c78:	54fffdc0 	b.eq	2c30 <TEE_AllocateOperation+0x36c>
    2c7c:	52804600 	mov	w0, #0x230                 	// #560
    2c80:	72ac0620 	movk	w0, #0x6031, lsl #16
    2c84:	17ffffe9 	b	2c28 <TEE_AllocateOperation+0x364>
    2c88:	52830600 	mov	w0, #0x1830                	// #6192
    2c8c:	72ae0000 	movk	w0, #0x7000, lsl #16
    2c90:	6b00027f 	cmp	w19, w0
    2c94:	54fff000 	b.eq	2a94 <TEE_AllocateOperation+0x1d0>
    2c98:	11204400 	add	w0, w0, #0x811
    2c9c:	6b00027f 	cmp	w19, w0
    2ca0:	54ffefa0 	b.eq	2a94 <TEE_AllocateOperation+0x1d0>
    2ca4:	52820820 	mov	w0, #0x1041                	// #4161
    2ca8:	72ae0000 	movk	w0, #0x7000, lsl #16
    2cac:	6b00027f 	cmp	w19, w0
    2cb0:	54ffe901 	b.ne	29d0 <TEE_AllocateOperation+0x10c>
    2cb4:	17ffff78 	b	2a94 <TEE_AllocateOperation+0x1d0>
    2cb8:	52800640 	mov	w0, #0x32                  	// #50
    2cbc:	72b00000 	movk	w0, #0x8000, lsl #16
    2cc0:	6b00027f 	cmp	w19, w0
    2cc4:	54000960 	b.eq	2df0 <TEE_AllocateOperation+0x52c>
    2cc8:	540006c8 	b.hi	2da0 <TEE_AllocateOperation+0x4dc>
    2ccc:	528a0820 	mov	w0, #0x5041                	// #20545
    2cd0:	72ae0000 	movk	w0, #0x7000, lsl #16
    2cd4:	6b00027f 	cmp	w19, w0
    2cd8:	54ffede0 	b.eq	2a94 <TEE_AllocateOperation+0x1d0>
    2cdc:	54000308 	b.hi	2d3c <TEE_AllocateOperation+0x478>
    2ce0:	52870600 	mov	w0, #0x3830                	// #14384
    2ce4:	72ae0000 	movk	w0, #0x7000, lsl #16
    2ce8:	6b00027f 	cmp	w19, w0
    2cec:	54ffed40 	b.eq	2a94 <TEE_AllocateOperation+0x1d0>
    2cf0:	54000148 	b.hi	2d18 <TEE_AllocateOperation+0x454>
    2cf4:	52860820 	mov	w0, #0x3041                	// #12353
    2cf8:	72ae0000 	movk	w0, #0x7000, lsl #16
    2cfc:	6b00027f 	cmp	w19, w0
    2d00:	54ffeca0 	b.eq	2a94 <TEE_AllocateOperation+0x1d0>
    2d04:	1103c000 	add	w0, w0, #0xf0
    2d08:	6b00027f 	cmp	w19, w0
    2d0c:	54ffec40 	b.eq	2a94 <TEE_AllocateOperation+0x1d0>
    2d10:	52850600 	mov	w0, #0x2830                	// #10288
    2d14:	17ffffe5 	b	2ca8 <TEE_AllocateOperation+0x3e4>
    2d18:	52882620 	mov	w0, #0x4131                	// #16689
    2d1c:	72ae0000 	movk	w0, #0x7000, lsl #16
    2d20:	6b00027f 	cmp	w19, w0
    2d24:	54ffeb80 	b.eq	2a94 <TEE_AllocateOperation+0x1d0>
    2d28:	111bfc00 	add	w0, w0, #0x6ff
    2d2c:	6b00027f 	cmp	w19, w0
    2d30:	54ffeb20 	b.eq	2a94 <TEE_AllocateOperation+0x1d0>
    2d34:	52880820 	mov	w0, #0x4041                	// #16449
    2d38:	17ffffdc 	b	2ca8 <TEE_AllocateOperation+0x3e4>
    2d3c:	52872600 	mov	w0, #0x3930                	// #14640
    2d40:	72ae0620 	movk	w0, #0x7031, lsl #16
    2d44:	6b00027f 	cmp	w19, w0
    2d48:	54ffea60 	b.eq	2a94 <TEE_AllocateOperation+0x1d0>
    2d4c:	54000168 	b.hi	2d78 <TEE_AllocateOperation+0x4b4>
    2d50:	528d0600 	mov	w0, #0x6830                	// #26672
    2d54:	72ae0000 	movk	w0, #0x7000, lsl #16
    2d58:	6b00027f 	cmp	w19, w0
    2d5c:	54ffe9c0 	b.eq	2a94 <TEE_AllocateOperation+0x1d0>
    2d60:	52852600 	mov	w0, #0x2930                	// #10544
    2d64:	72ae0420 	movk	w0, #0x7021, lsl #16
    2d68:	6b00027f 	cmp	w19, w0
    2d6c:	54ffe940 	b.eq	2a94 <TEE_AllocateOperation+0x1d0>
    2d70:	528b0600 	mov	w0, #0x5830                	// #22576
    2d74:	17ffffcd 	b	2ca8 <TEE_AllocateOperation+0x3e4>
    2d78:	528b2600 	mov	w0, #0x5930                	// #22832
    2d7c:	72ae0a20 	movk	w0, #0x7051, lsl #16
    2d80:	6b00027f 	cmp	w19, w0
    2d84:	54ffe880 	b.eq	2a94 <TEE_AllocateOperation+0x1d0>
    2d88:	11440400 	add	w0, w0, #0x101, lsl #12
    2d8c:	6b00027f 	cmp	w19, w0
    2d90:	54ffe820 	b.eq	2a94 <TEE_AllocateOperation+0x1d0>
    2d94:	52892600 	mov	w0, #0x4930                	// #18736
    2d98:	72ae0820 	movk	w0, #0x7041, lsl #16
    2d9c:	17ffffc4 	b	2cac <TEE_AllocateOperation+0x3e8>
    2da0:	52861820 	mov	w0, #0x30c1                	// #12481
    2da4:	72b00000 	movk	w0, #0x8000, lsl #16
    2da8:	6b00027f 	cmp	w19, w0
    2dac:	54000468 	b.hi	2e38 <TEE_AllocateOperation+0x574>
    2db0:	52861800 	mov	w0, #0x30c0                	// #12480
    2db4:	72b00000 	movk	w0, #0x8000, lsl #16
    2db8:	6b00027f 	cmp	w19, w0
    2dbc:	540001a2 	b.cs	2df0 <TEE_AllocateOperation+0x52c>
    2dc0:	52840840 	mov	w0, #0x2042                	// #8258
    2dc4:	72b00000 	movk	w0, #0x8000, lsl #16
    2dc8:	6b00027f 	cmp	w19, w0
    2dcc:	54000120 	b.eq	2df0 <TEE_AllocateOperation+0x52c>
    2dd0:	54000228 	b.hi	2e14 <TEE_AllocateOperation+0x550>
    2dd4:	52820840 	mov	w0, #0x1042                	// #4162
    2dd8:	72b00000 	movk	w0, #0x8000, lsl #16
    2ddc:	6b00027f 	cmp	w19, w0
    2de0:	54000080 	b.eq	2df0 <TEE_AllocateOperation+0x52c>
    2de4:	1101f800 	add	w0, w0, #0x7e
    2de8:	6b00027f 	cmp	w19, w0
    2dec:	54ffdf21 	b.ne	29d0 <TEE_AllocateOperation+0x10c>
/home/lagadanu/Desktop/qemu/optee_os/lib/libutee/tee_api_operations.c:58
    2df0:	129ffeb4 	mov	w20, #0xffff000a            	// #-65526
/home/lagadanu/Desktop/qemu/optee_os/lib/libutee/tee_api_operations.c:209
    2df4:	71001b1f 	cmp	w24, #0x6
    2df8:	54ffe641 	b.ne	2ac0 <TEE_AllocateOperation+0x1fc>
/home/lagadanu/Desktop/qemu/optee_os/lib/libutee/tee_api_operations.c:44
    2dfc:	52800019 	mov	w25, #0x0                   	// #0
/home/lagadanu/Desktop/qemu/optee_os/lib/libutee/tee_api_operations.c:211
    2e00:	5280003a 	mov	w26, #0x1                   	// #1
/home/lagadanu/Desktop/qemu/optee_os/lib/libutee/tee_api_operations.c:212
    2e04:	52800803 	mov	w3, #0x40                  	// #64
/home/lagadanu/Desktop/qemu/optee_os/lib/libutee/tee_api_operations.c:41
    2e08:	d2800036 	mov	x22, #0x1                   	// #1
    2e0c:	5280001c 	mov	w28, #0x0                   	// #0
    2e10:	14000044 	b	2f20 <TEE_AllocateOperation+0x65c>
/home/lagadanu/Desktop/qemu/optee_os/lib/libutee/tee_api_operations.c:108
    2e14:	52841800 	mov	w0, #0x20c0                	// #8384
    2e18:	72b00000 	movk	w0, #0x8000, lsl #16
    2e1c:	6b00027f 	cmp	w19, w0
    2e20:	54ffdd83 	b.cc	29d0 <TEE_AllocateOperation+0x10c>
    2e24:	11000800 	add	w0, w0, #0x2
    2e28:	6b00027f 	cmp	w19, w0
    2e2c:	54fffe29 	b.ls	2df0 <TEE_AllocateOperation+0x52c>
    2e30:	113e0000 	add	w0, w0, #0xf80
    2e34:	17ffffed 	b	2de8 <TEE_AllocateOperation+0x524>
    2e38:	528a0840 	mov	w0, #0x5042                	// #20546
    2e3c:	72b00000 	movk	w0, #0x8000, lsl #16
    2e40:	6b00027f 	cmp	w19, w0
    2e44:	54fffd60 	b.eq	2df0 <TEE_AllocateOperation+0x52c>
    2e48:	54000188 	b.hi	2e78 <TEE_AllocateOperation+0x5b4>
    2e4c:	52880840 	mov	w0, #0x4042                	// #16450
    2e50:	72b00000 	movk	w0, #0x8000, lsl #16
    2e54:	6b00027f 	cmp	w19, w0
    2e58:	54fffcc0 	b.eq	2df0 <TEE_AllocateOperation+0x52c>
    2e5c:	5297e800 	mov	w0, #0xbf40                	// #48960
    2e60:	54ffdb83 	b.cc	29d0 <TEE_AllocateOperation+0x10c>
    2e64:	72afffe0 	movk	w0, #0x7fff, lsl #16
    2e68:	0b000260 	add	w0, w19, w0
    2e6c:	7100041f 	cmp	w0, #0x1
    2e70:	54fffc09 	b.ls	2df0 <TEE_AllocateOperation+0x52c>
    2e74:	17fffed7 	b	29d0 <TEE_AllocateOperation+0x10c>
    2e78:	528a1800 	mov	w0, #0x50c0                	// #20672
    2e7c:	72b00000 	movk	w0, #0x8000, lsl #16
    2e80:	6b00027f 	cmp	w19, w0
    2e84:	54ffda63 	b.cc	29d0 <TEE_AllocateOperation+0x10c>
    2e88:	11000400 	add	w0, w0, #0x1
    2e8c:	6b00027f 	cmp	w19, w0
    2e90:	54fffb09 	b.ls	2df0 <TEE_AllocateOperation+0x52c>
    2e94:	5293e800 	mov	w0, #0x9f40                	// #40768
    2e98:	17fffff3 	b	2e64 <TEE_AllocateOperation+0x5a0>
/home/lagadanu/Desktop/qemu/optee_os/lib/libutee/tee_api_operations.c:50
    2e9c:	52a0011c 	mov	w28, #0x80000               	// #524288
/home/lagadanu/Desktop/qemu/optee_os/lib/libutee/tee_api_operations.c:111
    2ea0:	52800039 	mov	w25, #0x1                   	// #1
/home/lagadanu/Desktop/qemu/optee_os/lib/libutee/tee_api_operations.c:120
    2ea4:	12001e60 	and	w0, w19, #0xff
/home/lagadanu/Desktop/qemu/optee_os/lib/libutee/tee_api_operations.c:123
    2ea8:	d2800216 	mov	x22, #0x10                  	// #16
    2eac:	7100401f 	cmp	w0, #0x10
    2eb0:	d2800100 	mov	x0, #0x8                   	// #8
    2eb4:	9a8002d6 	csel	x22, x22, x0, eq
/home/lagadanu/Desktop/qemu/optee_os/lib/libutee/tee_api_operations.c:127
    2eb8:	34000878 	cbz	w24, 2fc4 <TEE_AllocateOperation+0x700>
/home/lagadanu/Desktop/qemu/optee_os/lib/libutee/tee_api_operations.c:129
    2ebc:	7100071f 	cmp	w24, #0x1
    2ec0:	54ffd881 	b.ne	29d0 <TEE_AllocateOperation+0x10c>
/home/lagadanu/Desktop/qemu/optee_os/lib/libutee/tee_api_operations.c:43
    2ec4:	5280001a 	mov	w26, #0x0                   	// #0
/home/lagadanu/Desktop/qemu/optee_os/lib/libutee/tee_api_operations.c:130
    2ec8:	52800083 	mov	w3, #0x4                   	// #4
    2ecc:	14000015 	b	2f20 <TEE_AllocateOperation+0x65c>
/home/lagadanu/Desktop/qemu/optee_os/lib/libutee/tee_api_operations.c:108
    2ed0:	5280001c 	mov	w28, #0x0                   	// #0
    2ed4:	17fffff3 	b	2ea0 <TEE_AllocateOperation+0x5dc>
    2ed8:	5280001c 	mov	w28, #0x0                   	// #0
/home/lagadanu/Desktop/qemu/optee_os/lib/libutee/tee_api_operations.c:44
    2edc:	52800019 	mov	w25, #0x0                   	// #0
    2ee0:	17fffff1 	b	2ea4 <TEE_AllocateOperation+0x5e0>
/home/lagadanu/Desktop/qemu/optee_os/lib/libutee/tee_api_operations.c:181
    2ee4:	340008b8 	cbz	w24, 2ff8 <TEE_AllocateOperation+0x734>
/home/lagadanu/Desktop/qemu/optee_os/lib/libutee/tee_api_operations.c:183
    2ee8:	7100071f 	cmp	w24, #0x1
    2eec:	54ffd721 	b.ne	29d0 <TEE_AllocateOperation+0x10c>
/home/lagadanu/Desktop/qemu/optee_os/lib/libutee/tee_api_operations.c:44
    2ef0:	52800019 	mov	w25, #0x0                   	// #0
/home/lagadanu/Desktop/qemu/optee_os/lib/libutee/tee_api_operations.c:184
    2ef4:	5280003a 	mov	w26, #0x1                   	// #1
/home/lagadanu/Desktop/qemu/optee_os/lib/libutee/tee_api_operations.c:185
    2ef8:	52800283 	mov	w3, #0x14                  	// #20
    2efc:	17ffffc3 	b	2e08 <TEE_AllocateOperation+0x544>
/home/lagadanu/Desktop/qemu/optee_os/lib/libutee/tee_api_operations.c:58
    2f00:	129ffeb4 	mov	w20, #0xffff000a            	// #-65526
/home/lagadanu/Desktop/qemu/optee_os/lib/libutee/tee_api_operations.c:221
    2f04:	7100171f 	cmp	w24, #0x5
    2f08:	54ffddc1 	b.ne	2ac0 <TEE_AllocateOperation+0x1fc>
/home/lagadanu/Desktop/qemu/optee_os/lib/libutee/tee_api_operations.c:44
    2f0c:	52800019 	mov	w25, #0x0                   	// #0
/home/lagadanu/Desktop/qemu/optee_os/lib/libutee/tee_api_operations.c:43
    2f10:	5280001a 	mov	w26, #0x0                   	// #0
/home/lagadanu/Desktop/qemu/optee_os/lib/libutee/tee_api_operations.c:225
    2f14:	52800003 	mov	w3, #0x0                   	// #0
/home/lagadanu/Desktop/qemu/optee_os/lib/libutee/tee_api_operations.c:41
    2f18:	d2800036 	mov	x22, #0x1                   	// #1
/home/lagadanu/Desktop/qemu/optee_os/lib/libutee/tee_api_operations.c:224
    2f1c:	52a0009c 	mov	w28, #0x40000               	// #262144
/home/lagadanu/Desktop/qemu/optee_os/lib/libutee/tee_api_operations.c:250
    2f20:	52800001 	mov	w1, #0x0                   	// #0
    2f24:	52800c00 	mov	w0, #0x60                  	// #96
    2f28:	b90067a3 	str	w3, [x29,#100]
/home/lagadanu/Desktop/qemu/optee_os/lib/libutee/tee_api_operations.c:252
    2f2c:	129ffe74 	mov	w20, #0xffff000c            	// #-65524
/home/lagadanu/Desktop/qemu/optee_os/lib/libutee/tee_api_operations.c:250
    2f30:	97fffa80 	bl	1930 <TEE_Malloc>
    2f34:	aa0003f5 	mov	x21, x0
/home/lagadanu/Desktop/qemu/optee_os/lib/libutee/tee_api_operations.c:251
    2f38:	b4ffdc40 	cbz	x0, 2ac0 <TEE_AllocateOperation+0x1fc>
/home/lagadanu/Desktop/qemu/optee_os/lib/libutee/tee_api_operations.c:258
    2f3c:	b94067a3 	ldr	w3, [x29,#100]
/home/lagadanu/Desktop/qemu/optee_os/lib/libutee/tee_api_operations.c:255
    2f40:	531c7e7b 	lsr	w27, w19, #28
/home/lagadanu/Desktop/qemu/optee_os/lib/libutee/tee_api_operations.c:256
    2f44:	b9000818 	str	w24, [x0,#8]
/home/lagadanu/Desktop/qemu/optee_os/lib/libutee/tee_api_operations.c:261
    2f48:	f10006df 	cmp	x22, #0x1
/home/lagadanu/Desktop/qemu/optee_os/lib/libutee/tee_api_operations.c:255
    2f4c:	29006c13 	stp	w19, w27, [x0]
/home/lagadanu/Desktop/qemu/optee_os/lib/libutee/tee_api_operations.c:257
    2f50:	b9001017 	str	w23, [x0,#16]
/home/lagadanu/Desktop/qemu/optee_os/lib/libutee/tee_api_operations.c:259
    2f54:	29037003 	stp	w3, w28, [x0,#24]
/home/lagadanu/Desktop/qemu/optee_os/lib/libutee/tee_api_operations.c:261
    2f58:	540005a1 	b.ne	300c <TEE_AllocateOperation+0x748>
/home/lagadanu/Desktop/qemu/optee_os/lib/libutee/tee_api_operations.c:275
    2f5c:	390102b9 	strb	w25, [x21,#64]
/home/lagadanu/Desktop/qemu/optee_os/lib/libutee/tee_api_operations.c:277
    2f60:	7100177f 	cmp	w27, #0x5
/home/lagadanu/Desktop/qemu/optee_os/lib/libutee/tee_api_operations.c:274
    2f64:	f90026b6 	str	x22, [x21,#72]
/home/lagadanu/Desktop/qemu/optee_os/lib/libutee/tee_api_operations.c:277
    2f68:	54000641 	b.ne	3030 <TEE_AllocateOperation+0x76c>
/home/lagadanu/Desktop/qemu/optee_os/lib/libutee/tee_api_operations.c:301
    2f6c:	a9420ea2 	ldp	x2, x3, [x21,#32]
    2f70:	910162a4 	add	x4, x21, #0x58
    2f74:	2a1803e1 	mov	w1, w24
    2f78:	2a1303e0 	mov	w0, w19
    2f7c:	940007ae 	bl	4e34 <utee_cryp_state_alloc>
/home/lagadanu/Desktop/qemu/optee_os/lib/libutee/tee_api_operations.c:303
    2f80:	35000b00 	cbnz	w0, 30e0 <TEE_AllocateOperation+0x81c>
/home/lagadanu/Desktop/qemu/optee_os/lib/libutee/tee_api_operations.c:311
    2f84:	7100177f 	cmp	w27, #0x5
    2f88:	54000141 	b.ne	2fb0 <TEE_AllocateOperation+0x6ec>
/home/lagadanu/Desktop/qemu/optee_os/lib/libutee/tee_api_operations.c:312
    2f8c:	b9405aa0 	ldr	w0, [x21,#88]
    2f90:	d2800002 	mov	x2, #0x0                   	// #0
    2f94:	d2800001 	mov	x1, #0x0                   	// #0
    2f98:	940007b0 	bl	4e58 <utee_hash_init>
    2f9c:	2a0003f4 	mov	w20, w0
/home/lagadanu/Desktop/qemu/optee_os/lib/libutee/tee_api_operations.c:313
    2fa0:	35000780 	cbnz	w0, 3090 <TEE_AllocateOperation+0x7cc>
/home/lagadanu/Desktop/qemu/optee_os/lib/libutee/tee_api_operations.c:316
    2fa4:	b9401ea0 	ldr	w0, [x21,#28]
    2fa8:	320f0000 	orr	w0, w0, #0x20000
    2fac:	b9001ea0 	str	w0, [x21,#28]
/home/lagadanu/Desktop/qemu/optee_os/lib/libutee/tee_api_operations.c:321
    2fb0:	f94037a0 	ldr	x0, [x29,#104]
    2fb4:	52800014 	mov	w20, #0x0                   	// #0
/home/lagadanu/Desktop/qemu/optee_os/lib/libutee/tee_api_operations.c:319
    2fb8:	b90032bf 	str	wzr, [x21,#48]
/home/lagadanu/Desktop/qemu/optee_os/lib/libutee/tee_api_operations.c:321
    2fbc:	f9000015 	str	x21, [x0]
    2fc0:	17fffec0 	b	2ac0 <TEE_AllocateOperation+0x1fc>
/home/lagadanu/Desktop/qemu/optee_os/lib/libutee/tee_api_operations.c:43
    2fc4:	5280001a 	mov	w26, #0x0                   	// #0
/home/lagadanu/Desktop/qemu/optee_os/lib/libutee/tee_api_operations.c:128
    2fc8:	52800043 	mov	w3, #0x2                   	// #2
    2fcc:	17ffffd5 	b	2f20 <TEE_AllocateOperation+0x65c>
/home/lagadanu/Desktop/qemu/optee_os/lib/libutee/tee_api_operations.c:44
    2fd0:	52800019 	mov	w25, #0x0                   	// #0
/home/lagadanu/Desktop/qemu/optee_os/lib/libutee/tee_api_operations.c:155
    2fd4:	5280003a 	mov	w26, #0x1                   	// #1
/home/lagadanu/Desktop/qemu/optee_os/lib/libutee/tee_api_operations.c:156
    2fd8:	52800203 	mov	w3, #0x10                  	// #16
    2fdc:	17ffff8b 	b	2e08 <TEE_AllocateOperation+0x544>
    2fe0:	5280001c 	mov	w28, #0x0                   	// #0
/home/lagadanu/Desktop/qemu/optee_os/lib/libutee/tee_api_operations.c:44
    2fe4:	52800019 	mov	w25, #0x0                   	// #0
/home/lagadanu/Desktop/qemu/optee_os/lib/libutee/tee_api_operations.c:43
    2fe8:	5280001a 	mov	w26, #0x0                   	// #0
/home/lagadanu/Desktop/qemu/optee_os/lib/libutee/tee_api_operations.c:171
    2fec:	52800043 	mov	w3, #0x2                   	// #2
/home/lagadanu/Desktop/qemu/optee_os/lib/libutee/tee_api_operations.c:41
    2ff0:	d2800036 	mov	x22, #0x1                   	// #1
    2ff4:	17ffffcb 	b	2f20 <TEE_AllocateOperation+0x65c>
    2ff8:	5280001c 	mov	w28, #0x0                   	// #0
/home/lagadanu/Desktop/qemu/optee_os/lib/libutee/tee_api_operations.c:44
    2ffc:	52800019 	mov	w25, #0x0                   	// #0
/home/lagadanu/Desktop/qemu/optee_os/lib/libutee/tee_api_operations.c:43
    3000:	5280001a 	mov	w26, #0x0                   	// #0
/home/lagadanu/Desktop/qemu/optee_os/lib/libutee/tee_api_operations.c:182
    3004:	52800443 	mov	w3, #0x22                  	// #34
    3008:	17fffffa 	b	2ff0 <TEE_AllocateOperation+0x72c>
/home/lagadanu/Desktop/qemu/optee_os/lib/libutee/tee_api_operations.c:265
    300c:	7100033f 	cmp	w25, #0x0
    3010:	d37ffac0 	lsl	x0, x22, #1
/home/lagadanu/Desktop/qemu/optee_os/lib/libutee/tee_api_operations.c:267
    3014:	52b00001 	mov	w1, #0x80000000            	// #-2147483648
    3018:	9a961000 	csel	x0, x0, x22, ne
    301c:	97fffa45 	bl	1930 <TEE_Malloc>
    3020:	f9001ea0 	str	x0, [x21,#56]
/home/lagadanu/Desktop/qemu/optee_os/lib/libutee/tee_api_operations.c:269
    3024:	b5fff9c0 	cbnz	x0, 2f5c <TEE_AllocateOperation+0x698>
/home/lagadanu/Desktop/qemu/optee_os/lib/libutee/tee_api_operations.c:270
    3028:	129ffe74 	mov	w20, #0xffff000c            	// #-65524
    302c:	14000019 	b	3090 <TEE_AllocateOperation+0x7cc>
/home/lagadanu/Desktop/qemu/optee_os/lib/libutee/tee_api_operations.c:279
    3030:	7100035f 	cmp	w26, #0x0
    3034:	52b40001 	mov	w1, #0xa0000000            	// #-1610612736
    3038:	52b42000 	mov	w0, #0xa1000000            	// #-1593835520
    303c:	1a811000 	csel	w0, w0, w1, ne
/home/lagadanu/Desktop/qemu/optee_os/lib/libutee/tee_api_operations.c:286
    3040:	b9401ea1 	ldr	w1, [x21,#28]
/home/lagadanu/Desktop/qemu/optee_os/lib/libutee/tee_api_operations.c:279
    3044:	12001e76 	and	w22, w19, #0xff
    3048:	2a160016 	orr	w22, w0, w22
/home/lagadanu/Desktop/qemu/optee_os/lib/libutee/tee_api_operations.c:287
    304c:	53017ee0 	lsr	w0, w23, #1
/home/lagadanu/Desktop/qemu/optee_os/lib/libutee/tee_api_operations.c:289
    3050:	910082a2 	add	x2, x21, #0x20
/home/lagadanu/Desktop/qemu/optee_os/lib/libutee/tee_api_operations.c:287
    3054:	f26d003f 	tst	x1, #0x80000
    3058:	1a971017 	csel	w23, w0, w23, ne
/home/lagadanu/Desktop/qemu/optee_os/lib/libutee/tee_api_operations.c:289
    305c:	2a1603e0 	mov	w0, w22
    3060:	2a1703e1 	mov	w1, w23
    3064:	97fffb16 	bl	1cbc <TEE_AllocateTransientObject>
    3068:	2a0003f4 	mov	w20, w0
/home/lagadanu/Desktop/qemu/optee_os/lib/libutee/tee_api_operations.c:290
    306c:	35000120 	cbnz	w0, 3090 <TEE_AllocateOperation+0x7cc>
/home/lagadanu/Desktop/qemu/optee_os/lib/libutee/tee_api_operations.c:293
    3070:	b9401ea0 	ldr	w0, [x21,#28]
    3074:	369ff7c0 	tbz	w0, #19, 2f6c <TEE_AllocateOperation+0x6a8>
/home/lagadanu/Desktop/qemu/optee_os/lib/libutee/tee_api_operations.c:294
    3078:	9100a2a2 	add	x2, x21, #0x28
    307c:	2a1703e1 	mov	w1, w23
    3080:	2a1603e0 	mov	w0, w22
    3084:	97fffb0e 	bl	1cbc <TEE_AllocateTransientObject>
    3088:	2a0003f4 	mov	w20, w0
/home/lagadanu/Desktop/qemu/optee_os/lib/libutee/tee_api_operations.c:296
    308c:	34fff700 	cbz	w0, 2f6c <TEE_AllocateOperation+0x6a8>
/home/lagadanu/Desktop/qemu/optee_os/lib/libutee/tee_api_operations.c:326
    3090:	529ffec0 	mov	w0, #0xfff6                	// #65526
    3094:	0b000280 	add	w0, w20, w0
/home/lagadanu/Desktop/qemu/optee_os/lib/libutee/tee_api_operations.c:325
    3098:	721e781f 	tst	w0, #0xfffffffd
    309c:	54000060 	b.eq	30a8 <TEE_AllocateOperation+0x7e4>
/home/lagadanu/Desktop/qemu/optee_os/lib/libutee/tee_api_operations.c:327
    30a0:	2a1403e0 	mov	w0, w20
    30a4:	94000681 	bl	4aa8 <TEE_Panic>
/home/lagadanu/Desktop/qemu/optee_os/lib/libutee/tee_api_operations.c:329
    30a8:	b9405aa0 	ldr	w0, [x21,#88]
    30ac:	34000080 	cbz	w0, 30bc <TEE_AllocateOperation+0x7f8>
/home/lagadanu/Desktop/qemu/optee_os/lib/libutee/tee_api_operations.c:330
    30b0:	aa1503e0 	mov	x0, x21
    30b4:	97fffdf3 	bl	2880 <TEE_FreeOperation>
    30b8:	17fffe82 	b	2ac0 <TEE_AllocateOperation+0x1fc>
/home/lagadanu/Desktop/qemu/optee_os/lib/libutee/tee_api_operations.c:332
    30bc:	f9401ea0 	ldr	x0, [x21,#56]
    30c0:	97fffa35 	bl	1994 <TEE_Free>
/home/lagadanu/Desktop/qemu/optee_os/lib/libutee/tee_api_operations.c:333
    30c4:	f94012a0 	ldr	x0, [x21,#32]
    30c8:	97fffb16 	bl	1d20 <TEE_FreeTransientObject>
/home/lagadanu/Desktop/qemu/optee_os/lib/libutee/tee_api_operations.c:334
    30cc:	f94016a0 	ldr	x0, [x21,#40]
    30d0:	97fffb14 	bl	1d20 <TEE_FreeTransientObject>
/home/lagadanu/Desktop/qemu/optee_os/lib/libutee/tee_api_operations.c:335
    30d4:	aa1503e0 	mov	x0, x21
    30d8:	97fffa2f 	bl	1994 <TEE_Free>
    30dc:	17fffe79 	b	2ac0 <TEE_AllocateOperation+0x1fc>
    30e0:	2a0003f4 	mov	w20, w0
    30e4:	17ffffeb 	b	3090 <TEE_AllocateOperation+0x7cc>

00000000000030e8 <TEE_GetOperationInfo>:
TEE_GetOperationInfo():
/home/lagadanu/Desktop/qemu/optee_os/lib/libutee/tee_api_operations.c:365
    30e8:	a9be7bfd 	stp	x29, x30, [sp,#-32]!
    30ec:	910003fd 	mov	x29, sp
    30f0:	a90153f3 	stp	x19, x20, [sp,#16]
    30f4:	aa0003f4 	mov	x20, x0
    30f8:	aa0103f3 	mov	x19, x1
/home/lagadanu/Desktop/qemu/optee_os/lib/libutee/tee_api_operations.c:366
    30fc:	b5000060 	cbnz	x0, 3108 <TEE_GetOperationInfo+0x20>
/home/lagadanu/Desktop/qemu/optee_os/lib/libutee/tee_api_operations.c:367
    3100:	52800000 	mov	w0, #0x0                   	// #0
    3104:	94000669 	bl	4aa8 <TEE_Panic>
/home/lagadanu/Desktop/qemu/optee_os/lib/libutee/tee_api_operations.c:369
    3108:	b5000073 	cbnz	x19, 3114 <TEE_GetOperationInfo+0x2c>
/home/lagadanu/Desktop/qemu/optee_os/lib/libutee/tee_api_operations.c:370
    310c:	52800000 	mov	w0, #0x0                   	// #0
    3110:	94000666 	bl	4aa8 <TEE_Panic>
/home/lagadanu/Desktop/qemu/optee_os/lib/libutee/tee_api_operations.c:372
    3114:	aa1403e1 	mov	x1, x20
    3118:	d2800402 	mov	x2, #0x20                  	// #32
    311c:	aa1303e0 	mov	x0, x19
    3120:	97fff87e 	bl	1318 <memcpy>
/home/lagadanu/Desktop/qemu/optee_os/lib/libutee/tee_api_operations.c:373
    3124:	a94153f3 	ldp	x19, x20, [sp,#16]
    3128:	a8c27bfd 	ldp	x29, x30, [sp],#32
    312c:	d65f03c0 	ret

0000000000003130 <TEE_GetOperationInfoMultiple>:
TEE_GetOperationInfoMultiple():
/home/lagadanu/Desktop/qemu/optee_os/lib/libutee/tee_api_operations.c:378
    3130:	a9b97bfd 	stp	x29, x30, [sp,#-112]!
/home/lagadanu/Desktop/qemu/optee_os/lib/libutee/tee_api_operations.c:395
    3134:	f100005f 	cmp	x2, #0x0
    3138:	fa401824 	ccmp	x1, #0x0, #0x4, ne
/home/lagadanu/Desktop/qemu/optee_os/lib/libutee/tee_api_operations.c:378
    313c:	910003fd 	mov	x29, sp
    3140:	a9025bf5 	stp	x21, x22, [sp,#32]
/home/lagadanu/Desktop/qemu/optee_os/lib/libutee/tee_api_operations.c:395
    3144:	fa401804 	ccmp	x0, #0x0, #0x4, ne
/home/lagadanu/Desktop/qemu/optee_os/lib/libutee/tee_api_operations.c:378
    3148:	a90153f3 	stp	x19, x20, [sp,#16]
/home/lagadanu/Desktop/qemu/optee_os/lib/libutee/tee_api_operations.c:396
    314c:	129fff35 	mov	w21, #0xffff0006            	// #-65530
/home/lagadanu/Desktop/qemu/optee_os/lib/libutee/tee_api_operations.c:395
    3150:	540004a0 	b.eq	31e4 <TEE_GetOperationInfoMultiple+0xb4>
/home/lagadanu/Desktop/qemu/optee_os/lib/libutee/tee_api_operations.c:400
    3154:	b9400056 	ldr	w22, [x2]
    3158:	d10082d6 	sub	x22, x22, #0x20
    315c:	d343fed6 	lsr	x22, x22, #3
/home/lagadanu/Desktop/qemu/optee_os/lib/libutee/tee_api_operations.c:403
    3160:	71000adf 	cmp	w22, #0x2
    3164:	54000408 	b.hi	31e4 <TEE_GetOperationInfoMultiple+0xb4>
    3168:	aa0003f4 	mov	x20, x0
/home/lagadanu/Desktop/qemu/optee_os/lib/libutee/tee_api_operations.c:409
    316c:	b9401c00 	ldr	w0, [x0,#28]
/home/lagadanu/Desktop/qemu/optee_os/lib/libutee/tee_api_operations.c:412
    3170:	129ffdf5 	mov	w21, #0xffff0010            	// #-65520
/home/lagadanu/Desktop/qemu/optee_os/lib/libutee/tee_api_operations.c:410
    3174:	f26d001f 	tst	x0, #0x80000
    3178:	7a421ac4 	ccmp	w22, #0x2, #0x4, ne
    317c:	54000341 	b.ne	31e4 <TEE_GetOperationInfoMultiple+0xb4>
/home/lagadanu/Desktop/qemu/optee_os/lib/libutee/tee_api_operations.c:417
    3180:	92407ec2 	and	x2, x22, #0xffffffff
    3184:	aa0103f3 	mov	x19, x1
    3188:	91008020 	add	x0, x1, #0x20
/home/lagadanu/Desktop/qemu/optee_os/lib/libutee/tee_api_operations.c:410
    318c:	d2800001 	mov	x1, #0x0                   	// #0
/home/lagadanu/Desktop/qemu/optee_os/lib/libutee/tee_api_operations.c:417 (discriminator 1)
    3190:	eb02003f 	cmp	x1, x2
    3194:	540003e3 	b.cc	3210 <TEE_GetOperationInfoMultiple+0xe0>
/home/lagadanu/Desktop/qemu/optee_os/lib/libutee/tee_api_operations.c:422
    3198:	71000adf 	cmp	w22, #0x2
    319c:	54000421 	b.ne	3220 <TEE_GetOperationInfoMultiple+0xf0>
/home/lagadanu/Desktop/qemu/optee_os/lib/libutee/tee_api_operations.c:423
    31a0:	f9401680 	ldr	x0, [x20,#40]
    31a4:	910143a1 	add	x1, x29, #0x50
    31a8:	97fffa27 	bl	1a44 <TEE_GetObjectInfo1>
    31ac:	2a0003f5 	mov	w21, w0
/home/lagadanu/Desktop/qemu/optee_os/lib/libutee/tee_api_operations.c:425
    31b0:	350001a0 	cbnz	w0, 31e4 <TEE_GetOperationInfoMultiple+0xb4>
/home/lagadanu/Desktop/qemu/optee_os/lib/libutee/tee_api_operations.c:428
    31b4:	b94057a0 	ldr	w0, [x29,#84]
    31b8:	b9002a60 	str	w0, [x19,#40]
/home/lagadanu/Desktop/qemu/optee_os/lib/libutee/tee_api_operations.c:430
    31bc:	b9401a80 	ldr	w0, [x20,#24]
    31c0:	b9002e60 	str	w0, [x19,#44]
/home/lagadanu/Desktop/qemu/optee_os/lib/libutee/tee_api_operations.c:435
    31c4:	f9401280 	ldr	x0, [x20,#32]
    31c8:	9100c3a1 	add	x1, x29, #0x30
    31cc:	97fffa1e 	bl	1a44 <TEE_GetObjectInfo1>
    31d0:	2a0003f5 	mov	w21, w0
/home/lagadanu/Desktop/qemu/optee_os/lib/libutee/tee_api_operations.c:437
    31d4:	34000480 	cbz	w0, 3264 <TEE_GetOperationInfoMultiple+0x134>
/home/lagadanu/Desktop/qemu/optee_os/lib/libutee/tee_api_operations.c:438
    31d8:	71000adf 	cmp	w22, #0x2
    31dc:	54000041 	b.ne	31e4 <TEE_GetOperationInfoMultiple+0xb4>
/home/lagadanu/Desktop/qemu/optee_os/lib/libutee/tee_api_operations.c:442
    31e0:	29057e7f 	stp	wzr, wzr, [x19,#40]
/home/lagadanu/Desktop/qemu/optee_os/lib/libutee/tee_api_operations.c:464
    31e4:	710002bf 	cmp	w21, #0x0
    31e8:	129ffde0 	mov	w0, #0xffff0010            	// #-65520
    31ec:	7a4012a4 	ccmp	w21, w0, #0x4, ne
    31f0:	54000060 	b.eq	31fc <TEE_GetOperationInfoMultiple+0xcc>
/home/lagadanu/Desktop/qemu/optee_os/lib/libutee/tee_api_operations.c:466
    31f4:	2a1503e0 	mov	w0, w21
    31f8:	9400062c 	bl	4aa8 <TEE_Panic>
/home/lagadanu/Desktop/qemu/optee_os/lib/libutee/tee_api_operations.c:469
    31fc:	2a1503e0 	mov	w0, w21
    3200:	a94153f3 	ldp	x19, x20, [sp,#16]
    3204:	a9425bf5 	ldp	x21, x22, [sp,#32]
    3208:	a8c77bfd 	ldp	x29, x30, [sp],#112
    320c:	d65f03c0 	ret
/home/lagadanu/Desktop/qemu/optee_os/lib/libutee/tee_api_operations.c:419 (discriminator 3)
    3210:	29007c1f 	stp	wzr, wzr, [x0]
/home/lagadanu/Desktop/qemu/optee_os/lib/libutee/tee_api_operations.c:417 (discriminator 3)
    3214:	91000421 	add	x1, x1, #0x1
    3218:	91002000 	add	x0, x0, #0x8
    321c:	17ffffdd 	b	3190 <TEE_GetOperationInfoMultiple+0x60>
/home/lagadanu/Desktop/qemu/optee_os/lib/libutee/tee_api_operations.c:434
    3220:	35fffd36 	cbnz	w22, 31c4 <TEE_GetOperationInfoMultiple+0x94>
/home/lagadanu/Desktop/qemu/optee_os/lib/libutee/tee_api_operations.c:454
    3224:	b9400280 	ldr	w0, [x20]
/home/lagadanu/Desktop/qemu/optee_os/lib/libutee/tee_api_operations.c:461
    3228:	52800015 	mov	w21, #0x0                   	// #0
/home/lagadanu/Desktop/qemu/optee_os/lib/libutee/tee_api_operations.c:454
    322c:	b9000260 	str	w0, [x19]
/home/lagadanu/Desktop/qemu/optee_os/lib/libutee/tee_api_operations.c:455
    3230:	b9400680 	ldr	w0, [x20,#4]
    3234:	b9000660 	str	w0, [x19,#4]
/home/lagadanu/Desktop/qemu/optee_os/lib/libutee/tee_api_operations.c:456
    3238:	b9400a80 	ldr	w0, [x20,#8]
    323c:	b9000a60 	str	w0, [x19,#8]
/home/lagadanu/Desktop/qemu/optee_os/lib/libutee/tee_api_operations.c:457
    3240:	b9400e80 	ldr	w0, [x20,#12]
    3244:	b9000e60 	str	w0, [x19,#12]
/home/lagadanu/Desktop/qemu/optee_os/lib/libutee/tee_api_operations.c:458
    3248:	b9401280 	ldr	w0, [x20,#16]
    324c:	b9001260 	str	w0, [x19,#16]
/home/lagadanu/Desktop/qemu/optee_os/lib/libutee/tee_api_operations.c:459
    3250:	b9401e80 	ldr	w0, [x20,#28]
    3254:	b9001660 	str	w0, [x19,#20]
/home/lagadanu/Desktop/qemu/optee_os/lib/libutee/tee_api_operations.c:460
    3258:	b9403280 	ldr	w0, [x20,#48]
/home/lagadanu/Desktop/qemu/optee_os/lib/libutee/tee_api_operations.c:461
    325c:	29035a60 	stp	w0, w22, [x19,#24]
    3260:	17ffffe1 	b	31e4 <TEE_GetOperationInfoMultiple+0xb4>
/home/lagadanu/Desktop/qemu/optee_os/lib/libutee/tee_api_operations.c:447
    3264:	b94037a0 	ldr	w0, [x29,#52]
    3268:	b9002260 	str	w0, [x19,#32]
/home/lagadanu/Desktop/qemu/optee_os/lib/libutee/tee_api_operations.c:449
    326c:	b9401a80 	ldr	w0, [x20,#24]
    3270:	b9002660 	str	w0, [x19,#36]
    3274:	17ffffec 	b	3224 <TEE_GetOperationInfoMultiple+0xf4>

0000000000003278 <TEE_ResetOperation>:
TEE_ResetOperation():
/home/lagadanu/Desktop/qemu/optee_os/lib/libutee/tee_api_operations.c:472
    3278:	a9be7bfd 	stp	x29, x30, [sp,#-32]!
    327c:	910003fd 	mov	x29, sp
    3280:	f9000bf3 	str	x19, [sp,#16]
    3284:	aa0003f3 	mov	x19, x0
/home/lagadanu/Desktop/qemu/optee_os/lib/libutee/tee_api_operations.c:475
    3288:	b5000060 	cbnz	x0, 3294 <TEE_ResetOperation+0x1c>
/home/lagadanu/Desktop/qemu/optee_os/lib/libutee/tee_api_operations.c:476
    328c:	52800000 	mov	w0, #0x0                   	// #0
    3290:	94000606 	bl	4aa8 <TEE_Panic>
/home/lagadanu/Desktop/qemu/optee_os/lib/libutee/tee_api_operations.c:478
    3294:	b9401e60 	ldr	w0, [x19,#28]
    3298:	37900060 	tbnz	w0, #18, 32a4 <TEE_ResetOperation+0x2c>
/home/lagadanu/Desktop/qemu/optee_os/lib/libutee/tee_api_operations.c:479
    329c:	52800000 	mov	w0, #0x0                   	// #0
    32a0:	94000602 	bl	4aa8 <TEE_Panic>
/home/lagadanu/Desktop/qemu/optee_os/lib/libutee/tee_api_operations.c:483
    32a4:	b9400660 	ldr	w0, [x19,#4]
/home/lagadanu/Desktop/qemu/optee_os/lib/libutee/tee_api_operations.c:481
    32a8:	b900327f 	str	wzr, [x19,#48]
/home/lagadanu/Desktop/qemu/optee_os/lib/libutee/tee_api_operations.c:483
    32ac:	7100141f 	cmp	w0, #0x5
    32b0:	540001a1 	b.ne	32e4 <TEE_ResetOperation+0x6c>
/home/lagadanu/Desktop/qemu/optee_os/lib/libutee/tee_api_operations.c:484
    32b4:	b9405a60 	ldr	w0, [x19,#88]
    32b8:	d2800002 	mov	x2, #0x0                   	// #0
    32bc:	d2800001 	mov	x1, #0x0                   	// #0
    32c0:	940006e6 	bl	4e58 <utee_hash_init>
/home/lagadanu/Desktop/qemu/optee_os/lib/libutee/tee_api_operations.c:485
    32c4:	34000040 	cbz	w0, 32cc <TEE_ResetOperation+0x54>
/home/lagadanu/Desktop/qemu/optee_os/lib/libutee/tee_api_operations.c:486
    32c8:	940005f8 	bl	4aa8 <TEE_Panic>
/home/lagadanu/Desktop/qemu/optee_os/lib/libutee/tee_api_operations.c:487
    32cc:	b9401e60 	ldr	w0, [x19,#28]
    32d0:	320f0000 	orr	w0, w0, #0x20000
/home/lagadanu/Desktop/qemu/optee_os/lib/libutee/tee_api_operations.c:489
    32d4:	b9001e60 	str	w0, [x19,#28]
/home/lagadanu/Desktop/qemu/optee_os/lib/libutee/tee_api_operations.c:491
    32d8:	f9400bf3 	ldr	x19, [sp,#16]
    32dc:	a8c27bfd 	ldp	x29, x30, [sp],#32
    32e0:	d65f03c0 	ret
/home/lagadanu/Desktop/qemu/optee_os/lib/libutee/tee_api_operations.c:489
    32e4:	b9401e60 	ldr	w0, [x19,#28]
    32e8:	120e7800 	and	w0, w0, #0xfffdffff
    32ec:	17fffffa 	b	32d4 <TEE_ResetOperation+0x5c>

00000000000032f0 <TEE_SetOperationKey>:
TEE_SetOperationKey():
/home/lagadanu/Desktop/qemu/optee_os/lib/libutee/tee_api_operations.c:495
    32f0:	a9bb7bfd 	stp	x29, x30, [sp,#-80]!
    32f4:	910003fd 	mov	x29, sp
    32f8:	a90153f3 	stp	x19, x20, [sp,#16]
    32fc:	a9025bf5 	stp	x21, x22, [sp,#32]
/home/lagadanu/Desktop/qemu/optee_os/lib/libutee/tee_api_operations.c:500
    3300:	b50001e0 	cbnz	x0, 333c <TEE_SetOperationKey+0x4c>
/home/lagadanu/Desktop/qemu/optee_os/lib/libutee/tee_api_operations.c:513
    3304:	129fff34 	mov	w20, #0xffff0006            	// #-65530
/home/lagadanu/Desktop/qemu/optee_os/lib/libutee/tee_api_operations.c:562
    3308:	121e7a80 	and	w0, w20, #0xfffffffd
    330c:	7100029f 	cmp	w20, #0x0
    3310:	52800021 	mov	w1, #0x1                   	// #1
    3314:	72be0201 	movk	w1, #0xf010, lsl #16
    3318:	7a411004 	ccmp	w0, w1, #0x4, ne
    331c:	54000060 	b.eq	3328 <TEE_SetOperationKey+0x38>
/home/lagadanu/Desktop/qemu/optee_os/lib/libutee/tee_api_operations.c:564
    3320:	2a1403e0 	mov	w0, w20
    3324:	940005e1 	bl	4aa8 <TEE_Panic>
/home/lagadanu/Desktop/qemu/optee_os/lib/libutee/tee_api_operations.c:567
    3328:	2a1403e0 	mov	w0, w20
    332c:	a94153f3 	ldp	x19, x20, [sp,#16]
    3330:	a9425bf5 	ldp	x21, x22, [sp,#32]
    3334:	a8c57bfd 	ldp	x29, x30, [sp],#80
    3338:	d65f03c0 	ret
    333c:	aa0003f3 	mov	x19, x0
/home/lagadanu/Desktop/qemu/optee_os/lib/libutee/tee_api_operations.c:505
    3340:	b9403000 	ldr	w0, [x0,#48]
    3344:	35fffe00 	cbnz	w0, 3304 <TEE_SetOperationKey+0x14>
    3348:	aa0103f5 	mov	x21, x1
/home/lagadanu/Desktop/qemu/optee_os/lib/libutee/tee_api_operations.c:510
    334c:	b5000081 	cbnz	x1, 335c <TEE_SetOperationKey+0x6c>
/home/lagadanu/Desktop/qemu/optee_os/lib/libutee/tee_api_operations.c:512
    3350:	f9401260 	ldr	x0, [x19,#32]
    3354:	97fffa88 	bl	1d74 <TEE_ResetTransientObject>
    3358:	17ffffeb 	b	3304 <TEE_SetOperationKey+0x14>
/home/lagadanu/Desktop/qemu/optee_os/lib/libutee/tee_api_operations.c:518
    335c:	b9400660 	ldr	w0, [x19,#4]
    3360:	7100141f 	cmp	w0, #0x5
    3364:	54fffd00 	b.eq	3304 <TEE_SetOperationKey+0x14>
/home/lagadanu/Desktop/qemu/optee_os/lib/libutee/tee_api_operations.c:524
    3368:	b9401e60 	ldr	w0, [x19,#28]
    336c:	379ffcc0 	tbnz	w0, #19, 3304 <TEE_SetOperationKey+0x14>
/home/lagadanu/Desktop/qemu/optee_os/lib/libutee/tee_api_operations.c:530
    3370:	9100c3a1 	add	x1, x29, #0x30
    3374:	aa1503e0 	mov	x0, x21
    3378:	97fff9b3 	bl	1a44 <TEE_GetObjectInfo1>
    337c:	2a0003f4 	mov	w20, w0
/home/lagadanu/Desktop/qemu/optee_os/lib/libutee/tee_api_operations.c:532
    3380:	35fffc40 	cbnz	w0, 3308 <TEE_SetOperationKey+0x18>
/home/lagadanu/Desktop/qemu/optee_os/lib/libutee/tee_api_operations.c:536
    3384:	b9401a60 	ldr	w0, [x19,#24]
    3388:	b9403fa1 	ldr	w1, [x29,#60]
    338c:	6a21001f 	bics	wzr, w0, w1
    3390:	54fffba1 	b.ne	3304 <TEE_SetOperationKey+0x14>
/home/lagadanu/Desktop/qemu/optee_os/lib/libutee/tee_api_operations.c:542
    3394:	b9401260 	ldr	w0, [x19,#16]
    3398:	b94037b6 	ldr	w22, [x29,#52]
    339c:	6b16001f 	cmp	w0, w22
    33a0:	54fffb23 	b.cc	3304 <TEE_SetOperationKey+0x14>
/home/lagadanu/Desktop/qemu/optee_os/lib/libutee/tee_api_operations.c:549
    33a4:	f9401260 	ldr	x0, [x19,#32]
    33a8:	97fffa73 	bl	1d74 <TEE_ResetTransientObject>
/home/lagadanu/Desktop/qemu/optee_os/lib/libutee/tee_api_operations.c:550
    33ac:	b9401e60 	ldr	w0, [x19,#28]
/home/lagadanu/Desktop/qemu/optee_os/lib/libutee/tee_api_operations.c:552
    33b0:	aa1503e1 	mov	x1, x21
/home/lagadanu/Desktop/qemu/optee_os/lib/libutee/tee_api_operations.c:550
    33b4:	120d7800 	and	w0, w0, #0xfffbffff
    33b8:	b9001e60 	str	w0, [x19,#28]
/home/lagadanu/Desktop/qemu/optee_os/lib/libutee/tee_api_operations.c:552
    33bc:	f9401260 	ldr	x0, [x19,#32]
    33c0:	97fffadb 	bl	1f2c <TEE_CopyObjectAttributes1>
    33c4:	2a0003f4 	mov	w20, w0
/home/lagadanu/Desktop/qemu/optee_os/lib/libutee/tee_api_operations.c:553
    33c8:	35fffa00 	cbnz	w0, 3308 <TEE_SetOperationKey+0x18>
/home/lagadanu/Desktop/qemu/optee_os/lib/libutee/tee_api_operations.c:556
    33cc:	b9401e60 	ldr	w0, [x19,#28]
/home/lagadanu/Desktop/qemu/optee_os/lib/libutee/tee_api_operations.c:558
    33d0:	b9001676 	str	w22, [x19,#20]
/home/lagadanu/Desktop/qemu/optee_os/lib/libutee/tee_api_operations.c:556
    33d4:	320e0000 	orr	w0, w0, #0x40000
    33d8:	b9001e60 	str	w0, [x19,#28]
    33dc:	17ffffcb 	b	3308 <TEE_SetOperationKey+0x18>

00000000000033e0 <TEE_SetOperationKey2>:
TEE_SetOperationKey2():
/home/lagadanu/Desktop/qemu/optee_os/lib/libutee/tee_api_operations.c:571
    33e0:	a9b87bfd 	stp	x29, x30, [sp,#-128]!
    33e4:	910003fd 	mov	x29, sp
    33e8:	a90153f3 	stp	x19, x20, [sp,#16]
    33ec:	a9025bf5 	stp	x21, x22, [sp,#32]
    33f0:	f9001bf7 	str	x23, [sp,#48]
/home/lagadanu/Desktop/qemu/optee_os/lib/libutee/tee_api_operations.c:577
    33f4:	b50001e0 	cbnz	x0, 3430 <TEE_SetOperationKey2+0x50>
/home/lagadanu/Desktop/qemu/optee_os/lib/libutee/tee_api_operations.c:598
    33f8:	129fff34 	mov	w20, #0xffff0006            	// #-65530
/home/lagadanu/Desktop/qemu/optee_os/lib/libutee/tee_api_operations.c:685
    33fc:	12be0200 	mov	w0, #0xfefffff             	// #267386879
/home/lagadanu/Desktop/qemu/optee_os/lib/libutee/tee_api_operations.c:684
    3400:	7100029f 	cmp	w20, #0x0
/home/lagadanu/Desktop/qemu/optee_os/lib/libutee/tee_api_operations.c:685
    3404:	0b000280 	add	w0, w20, w0
/home/lagadanu/Desktop/qemu/optee_os/lib/libutee/tee_api_operations.c:684
    3408:	7a431800 	ccmp	w0, #0x3, #0x0, ne
    340c:	54000069 	b.ls	3418 <TEE_SetOperationKey2+0x38>
/home/lagadanu/Desktop/qemu/optee_os/lib/libutee/tee_api_operations.c:689
    3410:	2a1403e0 	mov	w0, w20
    3414:	940005a5 	bl	4aa8 <TEE_Panic>
/home/lagadanu/Desktop/qemu/optee_os/lib/libutee/tee_api_operations.c:692
    3418:	2a1403e0 	mov	w0, w20
    341c:	f9401bf7 	ldr	x23, [sp,#48]
    3420:	a94153f3 	ldp	x19, x20, [sp,#16]
    3424:	a9425bf5 	ldp	x21, x22, [sp,#32]
    3428:	a8c87bfd 	ldp	x29, x30, [sp],#128
    342c:	d65f03c0 	ret
    3430:	aa0003f3 	mov	x19, x0
/home/lagadanu/Desktop/qemu/optee_os/lib/libutee/tee_api_operations.c:582
    3434:	b9403000 	ldr	w0, [x0,#48]
    3438:	35fffe00 	cbnz	w0, 33f8 <TEE_SetOperationKey2+0x18>
/home/lagadanu/Desktop/qemu/optee_os/lib/libutee/tee_api_operations.c:591
    343c:	f100003f 	cmp	x1, #0x0
    3440:	aa0103f6 	mov	x22, x1
    3444:	aa0203f5 	mov	x21, x2
    3448:	fa401844 	ccmp	x2, #0x0, #0x4, ne
    344c:	54000121 	b.ne	3470 <TEE_SetOperationKey2+0x90>
/home/lagadanu/Desktop/qemu/optee_os/lib/libutee/tee_api_operations.c:593
    3450:	b4000081 	cbz	x1, 3460 <TEE_SetOperationKey2+0x80>
/home/lagadanu/Desktop/qemu/optee_os/lib/libutee/tee_api_operations.c:597
    3454:	f9401660 	ldr	x0, [x19,#40]
    3458:	97fffa47 	bl	1d74 <TEE_ResetTransientObject>
    345c:	17ffffe7 	b	33f8 <TEE_SetOperationKey2+0x18>
/home/lagadanu/Desktop/qemu/optee_os/lib/libutee/tee_api_operations.c:594
    3460:	f9401260 	ldr	x0, [x19,#32]
    3464:	97fffa44 	bl	1d74 <TEE_ResetTransientObject>
/home/lagadanu/Desktop/qemu/optee_os/lib/libutee/tee_api_operations.c:596
    3468:	b5fffc95 	cbnz	x21, 33f8 <TEE_SetOperationKey2+0x18>
    346c:	17fffffa 	b	3454 <TEE_SetOperationKey2+0x74>
/home/lagadanu/Desktop/qemu/optee_os/lib/libutee/tee_api_operations.c:603
    3470:	b9400660 	ldr	w0, [x19,#4]
    3474:	7100141f 	cmp	w0, #0x5
    3478:	54fffc00 	b.eq	33f8 <TEE_SetOperationKey2+0x18>
/home/lagadanu/Desktop/qemu/optee_os/lib/libutee/tee_api_operations.c:609
    347c:	b9401e60 	ldr	w0, [x19,#28]
    3480:	369ffbc0 	tbz	w0, #19, 33f8 <TEE_SetOperationKey2+0x18>
/home/lagadanu/Desktop/qemu/optee_os/lib/libutee/tee_api_operations.c:615
    3484:	910103a1 	add	x1, x29, #0x40
    3488:	aa1603e0 	mov	x0, x22
    348c:	97fff96e 	bl	1a44 <TEE_GetObjectInfo1>
    3490:	2a0003f4 	mov	w20, w0
/home/lagadanu/Desktop/qemu/optee_os/lib/libutee/tee_api_operations.c:617
    3494:	35fffb40 	cbnz	w0, 33fc <TEE_SetOperationKey2+0x1c>
/home/lagadanu/Desktop/qemu/optee_os/lib/libutee/tee_api_operations.c:621
    3498:	b9401a60 	ldr	w0, [x19,#24]
    349c:	b9404fa1 	ldr	w1, [x29,#76]
    34a0:	6a21001f 	bics	wzr, w0, w1
    34a4:	54fffaa1 	b.ne	33f8 <TEE_SetOperationKey2+0x18>
/home/lagadanu/Desktop/qemu/optee_os/lib/libutee/tee_api_operations.c:627
    34a8:	910183a1 	add	x1, x29, #0x60
    34ac:	aa1503e0 	mov	x0, x21
    34b0:	97fff965 	bl	1a44 <TEE_GetObjectInfo1>
    34b4:	2a0003f4 	mov	w20, w0
/home/lagadanu/Desktop/qemu/optee_os/lib/libutee/tee_api_operations.c:629
    34b8:	34000100 	cbz	w0, 34d8 <TEE_SetOperationKey2+0xf8>
/home/lagadanu/Desktop/qemu/optee_os/lib/libutee/tee_api_operations.c:630
    34bc:	52800020 	mov	w0, #0x1                   	// #1
    34c0:	72be0200 	movk	w0, #0xf010, lsl #16
    34c4:	6b00029f 	cmp	w20, w0
    34c8:	54fff9a1 	b.ne	33fc <TEE_SetOperationKey2+0x1c>
/home/lagadanu/Desktop/qemu/optee_os/lib/libutee/tee_api_operations.c:631
    34cc:	52800054 	mov	w20, #0x2                   	// #2
    34d0:	72be0214 	movk	w20, #0xf010, lsl #16
    34d4:	17ffffca 	b	33fc <TEE_SetOperationKey2+0x1c>
/home/lagadanu/Desktop/qemu/optee_os/lib/libutee/tee_api_operations.c:636
    34d8:	b9401a60 	ldr	w0, [x19,#24]
    34dc:	b9406fa1 	ldr	w1, [x29,#108]
    34e0:	6a21001f 	bics	wzr, w0, w1
    34e4:	54fff8a1 	b.ne	33f8 <TEE_SetOperationKey2+0x18>
/home/lagadanu/Desktop/qemu/optee_os/lib/libutee/tee_api_operations.c:646
    34e8:	b9400261 	ldr	w1, [x19]
    34ec:	52808200 	mov	w0, #0x410                 	// #1040
    34f0:	72a20000 	movk	w0, #0x1000, lsl #16
    34f4:	b94047b7 	ldr	w23, [x29,#68]
    34f8:	6b00003f 	cmp	w1, w0
    34fc:	54000081 	b.ne	350c <TEE_SetOperationKey2+0x12c>
/home/lagadanu/Desktop/qemu/optee_os/lib/libutee/tee_api_operations.c:646 (discriminator 1)
    3500:	b94067a0 	ldr	w0, [x29,#100]
    3504:	6b0002ff 	cmp	w23, w0
    3508:	54fff781 	b.ne	33f8 <TEE_SetOperationKey2+0x18>
/home/lagadanu/Desktop/qemu/optee_os/lib/libutee/tee_api_operations.c:653
    350c:	b9401260 	ldr	w0, [x19,#16]
    3510:	6b17001f 	cmp	w0, w23
    3514:	54fff723 	b.cc	33f8 <TEE_SetOperationKey2+0x18>
/home/lagadanu/Desktop/qemu/optee_os/lib/libutee/tee_api_operations.c:664
    3518:	f9401260 	ldr	x0, [x19,#32]
    351c:	97fffa16 	bl	1d74 <TEE_ResetTransientObject>
/home/lagadanu/Desktop/qemu/optee_os/lib/libutee/tee_api_operations.c:665
    3520:	f9401660 	ldr	x0, [x19,#40]
    3524:	97fffa14 	bl	1d74 <TEE_ResetTransientObject>
/home/lagadanu/Desktop/qemu/optee_os/lib/libutee/tee_api_operations.c:666
    3528:	b9401e60 	ldr	w0, [x19,#28]
/home/lagadanu/Desktop/qemu/optee_os/lib/libutee/tee_api_operations.c:668
    352c:	aa1603e1 	mov	x1, x22
/home/lagadanu/Desktop/qemu/optee_os/lib/libutee/tee_api_operations.c:666
    3530:	120d7800 	and	w0, w0, #0xfffbffff
    3534:	b9001e60 	str	w0, [x19,#28]
/home/lagadanu/Desktop/qemu/optee_os/lib/libutee/tee_api_operations.c:668
    3538:	f9401260 	ldr	x0, [x19,#32]
    353c:	97fffa7c 	bl	1f2c <TEE_CopyObjectAttributes1>
    3540:	2a0003f4 	mov	w20, w0
/home/lagadanu/Desktop/qemu/optee_os/lib/libutee/tee_api_operations.c:669
    3544:	35fff5c0 	cbnz	w0, 33fc <TEE_SetOperationKey2+0x1c>
/home/lagadanu/Desktop/qemu/optee_os/lib/libutee/tee_api_operations.c:672
    3548:	f9401660 	ldr	x0, [x19,#40]
    354c:	aa1503e1 	mov	x1, x21
    3550:	97fffa77 	bl	1f2c <TEE_CopyObjectAttributes1>
    3554:	2a0003f4 	mov	w20, w0
/home/lagadanu/Desktop/qemu/optee_os/lib/libutee/tee_api_operations.c:673
    3558:	35fffb20 	cbnz	w0, 34bc <TEE_SetOperationKey2+0xdc>
/home/lagadanu/Desktop/qemu/optee_os/lib/libutee/tee_api_operations.c:679
    355c:	b9401e60 	ldr	w0, [x19,#28]
/home/lagadanu/Desktop/qemu/optee_os/lib/libutee/tee_api_operations.c:681
    3560:	b9001677 	str	w23, [x19,#20]
/home/lagadanu/Desktop/qemu/optee_os/lib/libutee/tee_api_operations.c:679
    3564:	320e0000 	orr	w0, w0, #0x40000
    3568:	b9001e60 	str	w0, [x19,#28]
    356c:	17ffffa4 	b	33fc <TEE_SetOperationKey2+0x1c>

0000000000003570 <TEE_CopyOperation>:
TEE_CopyOperation():
/home/lagadanu/Desktop/qemu/optee_os/lib/libutee/tee_api_operations.c:695
    3570:	a9be7bfd 	stp	x29, x30, [sp,#-32]!
/home/lagadanu/Desktop/qemu/optee_os/lib/libutee/tee_api_operations.c:698
    3574:	f100001f 	cmp	x0, #0x0
    3578:	fa401824 	ccmp	x1, #0x0, #0x4, ne
/home/lagadanu/Desktop/qemu/optee_os/lib/libutee/tee_api_operations.c:695
    357c:	910003fd 	mov	x29, sp
    3580:	a90153f3 	stp	x19, x20, [sp,#16]
    3584:	aa0003f4 	mov	x20, x0
    3588:	aa0103f3 	mov	x19, x1
/home/lagadanu/Desktop/qemu/optee_os/lib/libutee/tee_api_operations.c:698
    358c:	54000061 	b.ne	3598 <TEE_CopyOperation+0x28>
/home/lagadanu/Desktop/qemu/optee_os/lib/libutee/tee_api_operations.c:699
    3590:	52800000 	mov	w0, #0x0                   	// #0
    3594:	94000545 	bl	4aa8 <TEE_Panic>
/home/lagadanu/Desktop/qemu/optee_os/lib/libutee/tee_api_operations.c:700
    3598:	b9400260 	ldr	w0, [x19]
    359c:	b9400281 	ldr	w1, [x20]
    35a0:	6b00003f 	cmp	w1, w0
    35a4:	54000060 	b.eq	35b0 <TEE_CopyOperation+0x40>
/home/lagadanu/Desktop/qemu/optee_os/lib/libutee/tee_api_operations.c:701
    35a8:	52800000 	mov	w0, #0x0                   	// #0
    35ac:	9400053f 	bl	4aa8 <TEE_Panic>
/home/lagadanu/Desktop/qemu/optee_os/lib/libutee/tee_api_operations.c:702
    35b0:	b9400660 	ldr	w0, [x19,#4]
    35b4:	7100141f 	cmp	w0, #0x5
    35b8:	540000e0 	b.eq	35d4 <TEE_CopyOperation+0x64>
/home/lagadanu/Desktop/qemu/optee_os/lib/libutee/tee_api_operations.c:706
    35bc:	b9401e60 	ldr	w0, [x19,#28]
    35c0:	369004e0 	tbz	w0, #18, 365c <TEE_CopyOperation+0xec>
/home/lagadanu/Desktop/qemu/optee_os/lib/libutee/tee_api_operations.c:708
    35c4:	a9420a61 	ldp	x1, x2, [x19,#32]
/home/lagadanu/Desktop/qemu/optee_os/lib/libutee/tee_api_operations.c:711
    35c8:	37980500 	tbnz	w0, #19, 3668 <TEE_CopyOperation+0xf8>
/home/lagadanu/Desktop/qemu/optee_os/lib/libutee/tee_api_operations.c:713
    35cc:	aa1403e0 	mov	x0, x20
    35d0:	97ffff48 	bl	32f0 <TEE_SetOperationKey>
/home/lagadanu/Desktop/qemu/optee_os/lib/libutee/tee_api_operations.c:718
    35d4:	b9401e60 	ldr	w0, [x19,#28]
    35d8:	b9001e80 	str	w0, [x20,#28]
/home/lagadanu/Desktop/qemu/optee_os/lib/libutee/tee_api_operations.c:719
    35dc:	b9401660 	ldr	w0, [x19,#20]
    35e0:	b9001680 	str	w0, [x20,#20]
/home/lagadanu/Desktop/qemu/optee_os/lib/libutee/tee_api_operations.c:720
    35e4:	b9403260 	ldr	w0, [x19,#48]
/home/lagadanu/Desktop/qemu/optee_os/lib/libutee/tee_api_operations.c:722
    35e8:	39410281 	ldrb	w1, [x20,#64]
/home/lagadanu/Desktop/qemu/optee_os/lib/libutee/tee_api_operations.c:720
    35ec:	b9003280 	str	w0, [x20,#48]
/home/lagadanu/Desktop/qemu/optee_os/lib/libutee/tee_api_operations.c:722
    35f0:	39410260 	ldrb	w0, [x19,#64]
    35f4:	6b00003f 	cmp	w1, w0
    35f8:	540000a1 	b.ne	360c <TEE_CopyOperation+0x9c>
/home/lagadanu/Desktop/qemu/optee_os/lib/libutee/tee_api_operations.c:722 (discriminator 1)
    35fc:	f9402660 	ldr	x0, [x19,#72]
    3600:	f9402681 	ldr	x1, [x20,#72]
    3604:	eb00003f 	cmp	x1, x0
    3608:	54000060 	b.eq	3614 <TEE_CopyOperation+0xa4>
/home/lagadanu/Desktop/qemu/optee_os/lib/libutee/tee_api_operations.c:724
    360c:	52800000 	mov	w0, #0x0                   	// #0
    3610:	94000526 	bl	4aa8 <TEE_Panic>
/home/lagadanu/Desktop/qemu/optee_os/lib/libutee/tee_api_operations.c:726
    3614:	f9401e81 	ldr	x1, [x20,#56]
    3618:	f9401e60 	ldr	x0, [x19,#56]
    361c:	b40002c1 	cbz	x1, 3674 <TEE_CopyOperation+0x104>
/home/lagadanu/Desktop/qemu/optee_os/lib/libutee/tee_api_operations.c:727
    3620:	b5000040 	cbnz	x0, 3628 <TEE_CopyOperation+0xb8>
/home/lagadanu/Desktop/qemu/optee_os/lib/libutee/tee_api_operations.c:728
    3624:	94000521 	bl	4aa8 <TEE_Panic>
/home/lagadanu/Desktop/qemu/optee_os/lib/libutee/tee_api_operations.c:730
    3628:	f9401e61 	ldr	x1, [x19,#56]
    362c:	f9402a62 	ldr	x2, [x19,#80]
    3630:	f9401e80 	ldr	x0, [x20,#56]
    3634:	97fff739 	bl	1318 <memcpy>
/home/lagadanu/Desktop/qemu/optee_os/lib/libutee/tee_api_operations.c:731
    3638:	f9402a60 	ldr	x0, [x19,#80]
    363c:	f9002a80 	str	x0, [x20,#80]
/home/lagadanu/Desktop/qemu/optee_os/lib/libutee/tee_api_operations.c:736
    3640:	b9405a61 	ldr	w1, [x19,#88]
    3644:	b9405a80 	ldr	w0, [x20,#88]
    3648:	940005fe 	bl	4e40 <utee_cryp_state_copy>
/home/lagadanu/Desktop/qemu/optee_os/lib/libutee/tee_api_operations.c:737
    364c:	340001c0 	cbz	w0, 3684 <TEE_CopyOperation+0x114>
/home/lagadanu/Desktop/qemu/optee_os/lib/libutee/tee_api_operations.c:739
    3650:	a94153f3 	ldp	x19, x20, [sp,#16]
    3654:	a8c27bfd 	ldp	x29, x30, [sp],#32
/home/lagadanu/Desktop/qemu/optee_os/lib/libutee/tee_api_operations.c:738
    3658:	14000514 	b	4aa8 <TEE_Panic>
/home/lagadanu/Desktop/qemu/optee_os/lib/libutee/tee_api_operations.c:704
    365c:	d2800002 	mov	x2, #0x0                   	// #0
/home/lagadanu/Desktop/qemu/optee_os/lib/libutee/tee_api_operations.c:703
    3660:	d2800001 	mov	x1, #0x0                   	// #0
    3664:	17ffffd9 	b	35c8 <TEE_CopyOperation+0x58>
/home/lagadanu/Desktop/qemu/optee_os/lib/libutee/tee_api_operations.c:715
    3668:	aa1403e0 	mov	x0, x20
    366c:	97ffff5d 	bl	33e0 <TEE_SetOperationKey2>
    3670:	17ffffd9 	b	35d4 <TEE_CopyOperation+0x64>
/home/lagadanu/Desktop/qemu/optee_os/lib/libutee/tee_api_operations.c:732
    3674:	b4fffe60 	cbz	x0, 3640 <TEE_CopyOperation+0xd0>
/home/lagadanu/Desktop/qemu/optee_os/lib/libutee/tee_api_operations.c:733
    3678:	52800000 	mov	w0, #0x0                   	// #0
    367c:	9400050b 	bl	4aa8 <TEE_Panic>
    3680:	17fffff0 	b	3640 <TEE_CopyOperation+0xd0>
/home/lagadanu/Desktop/qemu/optee_os/lib/libutee/tee_api_operations.c:739
    3684:	a94153f3 	ldp	x19, x20, [sp,#16]
    3688:	a8c27bfd 	ldp	x29, x30, [sp],#32
    368c:	d65f03c0 	ret

0000000000003690 <TEE_DigestUpdate>:
TEE_DigestUpdate():
/home/lagadanu/Desktop/qemu/optee_os/lib/libutee/tee_api_operations.c:761
    3690:	a9bd7bfd 	stp	x29, x30, [sp,#-48]!
    3694:	910003fd 	mov	x29, sp
    3698:	a90153f3 	stp	x19, x20, [sp,#16]
    369c:	aa0003f3 	mov	x19, x0
    36a0:	f90013f5 	str	x21, [sp,#32]
    36a4:	aa0103f4 	mov	x20, x1
    36a8:	2a0203f5 	mov	w21, w2
/home/lagadanu/Desktop/qemu/optee_os/lib/libutee/tee_api_operations.c:764
    36ac:	b4000080 	cbz	x0, 36bc <TEE_DigestUpdate+0x2c>
/home/lagadanu/Desktop/qemu/optee_os/lib/libutee/tee_api_operations.c:764 (discriminator 1)
    36b0:	b9400400 	ldr	w0, [x0,#4]
    36b4:	7100141f 	cmp	w0, #0x5
    36b8:	54000060 	b.eq	36c4 <TEE_DigestUpdate+0x34>
/home/lagadanu/Desktop/qemu/optee_os/lib/libutee/tee_api_operations.c:766
    36bc:	52800000 	mov	w0, #0x0                   	// #0
    36c0:	940004fa 	bl	4aa8 <TEE_Panic>
/home/lagadanu/Desktop/qemu/optee_os/lib/libutee/tee_api_operations.c:768
    36c4:	52800020 	mov	w0, #0x1                   	// #1
    36c8:	b9003260 	str	w0, [x19,#48]
/home/lagadanu/Desktop/qemu/optee_os/lib/libutee/tee_api_operations.c:770
    36cc:	b9405a60 	ldr	w0, [x19,#88]
    36d0:	2a1503e2 	mov	w2, w21
    36d4:	aa1403e1 	mov	x1, x20
    36d8:	940005e3 	bl	4e64 <utee_hash_update>
/home/lagadanu/Desktop/qemu/optee_os/lib/libutee/tee_api_operations.c:771
    36dc:	340000a0 	cbz	w0, 36f0 <TEE_DigestUpdate+0x60>
/home/lagadanu/Desktop/qemu/optee_os/lib/libutee/tee_api_operations.c:773
    36e0:	a94153f3 	ldp	x19, x20, [sp,#16]
    36e4:	f94013f5 	ldr	x21, [sp,#32]
    36e8:	a8c37bfd 	ldp	x29, x30, [sp],#48
/home/lagadanu/Desktop/qemu/optee_os/lib/libutee/tee_api_operations.c:772
    36ec:	140004ef 	b	4aa8 <TEE_Panic>
/home/lagadanu/Desktop/qemu/optee_os/lib/libutee/tee_api_operations.c:773
    36f0:	a94153f3 	ldp	x19, x20, [sp,#16]
    36f4:	f94013f5 	ldr	x21, [sp,#32]
    36f8:	a8c37bfd 	ldp	x29, x30, [sp],#48
    36fc:	d65f03c0 	ret

0000000000003700 <TEE_DigestDoFinal>:
TEE_DigestDoFinal():
/home/lagadanu/Desktop/qemu/optee_os/lib/libutee/tee_api_operations.c:777
    3700:	a9bc7bfd 	stp	x29, x30, [sp,#-64]!
    3704:	910003fd 	mov	x29, sp
    3708:	a90153f3 	stp	x19, x20, [sp,#16]
    370c:	aa0003f3 	mov	x19, x0
    3710:	f90013f5 	str	x21, [sp,#32]
/home/lagadanu/Desktop/qemu/optee_os/lib/libutee/tee_api_operations.c:786
    3714:	129fff34 	mov	w20, #0xffff0006            	// #-65530
/home/lagadanu/Desktop/qemu/optee_os/lib/libutee/tee_api_operations.c:781
    3718:	b4000400 	cbz	x0, 3798 <TEE_DigestDoFinal+0x98>
/home/lagadanu/Desktop/qemu/optee_os/lib/libutee/tee_api_operations.c:782 (discriminator 1)
    371c:	f100003f 	cmp	x1, #0x0
/home/lagadanu/Desktop/qemu/optee_os/lib/libutee/tee_api_operations.c:781 (discriminator 1)
    3720:	7a400844 	ccmp	w2, #0x0, #0x4, eq
    3724:	540003a1 	b.ne	3798 <TEE_DigestDoFinal+0x98>
/home/lagadanu/Desktop/qemu/optee_os/lib/libutee/tee_api_operations.c:783
    3728:	f100007f 	cmp	x3, #0x0
    372c:	aa0403f5 	mov	x21, x4
    3730:	fa401884 	ccmp	x4, #0x0, #0x4, ne
    3734:	54000320 	b.eq	3798 <TEE_DigestDoFinal+0x98>
/home/lagadanu/Desktop/qemu/optee_os/lib/libutee/tee_api_operations.c:784
    3738:	b9400660 	ldr	w0, [x19,#4]
    373c:	7100141f 	cmp	w0, #0x5
    3740:	540002c1 	b.ne	3798 <TEE_DigestDoFinal+0x98>
/home/lagadanu/Desktop/qemu/optee_os/lib/libutee/tee_api_operations.c:790
    3744:	910103a4 	add	x4, x29, #0x40
    3748:	b94002a0 	ldr	w0, [x21]
/home/lagadanu/Desktop/qemu/optee_os/lib/libutee/tee_api_operations.c:791
    374c:	2a0203e2 	mov	w2, w2
/home/lagadanu/Desktop/qemu/optee_os/lib/libutee/tee_api_operations.c:790
    3750:	f81f8c80 	str	x0, [x4,#-8]!
/home/lagadanu/Desktop/qemu/optee_os/lib/libutee/tee_api_operations.c:791
    3754:	b9405a60 	ldr	w0, [x19,#88]
    3758:	940005c6 	bl	4e70 <utee_hash_final>
    375c:	2a0003f4 	mov	w20, w0
/home/lagadanu/Desktop/qemu/optee_os/lib/libutee/tee_api_operations.c:792
    3760:	f9401fa0 	ldr	x0, [x29,#56]
    3764:	b90002a0 	str	w0, [x21]
/home/lagadanu/Desktop/qemu/optee_os/lib/libutee/tee_api_operations.c:793
    3768:	35000194 	cbnz	w20, 3798 <TEE_DigestDoFinal+0x98>
init_hash_operation():
/home/lagadanu/Desktop/qemu/optee_os/lib/libutee/tee_api_operations.c:752
    376c:	b9405a60 	ldr	w0, [x19,#88]
    3770:	d2800002 	mov	x2, #0x0                   	// #0
    3774:	d2800001 	mov	x1, #0x0                   	// #0
    3778:	940005b8 	bl	4e58 <utee_hash_init>
/home/lagadanu/Desktop/qemu/optee_os/lib/libutee/tee_api_operations.c:753
    377c:	34000040 	cbz	w0, 3784 <TEE_DigestDoFinal+0x84>
/home/lagadanu/Desktop/qemu/optee_os/lib/libutee/tee_api_operations.c:754
    3780:	940004ca 	bl	4aa8 <TEE_Panic>
/home/lagadanu/Desktop/qemu/optee_os/lib/libutee/tee_api_operations.c:756
    3784:	b9401e60 	ldr	w0, [x19,#28]
TEE_DigestDoFinal():
/home/lagadanu/Desktop/qemu/optee_os/lib/libutee/tee_api_operations.c:799
    3788:	b900327f 	str	wzr, [x19,#48]
init_hash_operation():
/home/lagadanu/Desktop/qemu/optee_os/lib/libutee/tee_api_operations.c:756
    378c:	320f0000 	orr	w0, w0, #0x20000
/home/lagadanu/Desktop/qemu/optee_os/lib/libutee/tee_api_operations.c:755
    3790:	f9002a7f 	str	xzr, [x19,#80]
/home/lagadanu/Desktop/qemu/optee_os/lib/libutee/tee_api_operations.c:756
    3794:	b9001e60 	str	w0, [x19,#28]
TEE_DigestDoFinal():
/home/lagadanu/Desktop/qemu/optee_os/lib/libutee/tee_api_operations.c:802
    3798:	7100029f 	cmp	w20, #0x0
    379c:	129ffde0 	mov	w0, #0xffff0010            	// #-65520
    37a0:	7a401284 	ccmp	w20, w0, #0x4, ne
    37a4:	54000060 	b.eq	37b0 <TEE_DigestDoFinal+0xb0>
/home/lagadanu/Desktop/qemu/optee_os/lib/libutee/tee_api_operations.c:804
    37a8:	2a1403e0 	mov	w0, w20
    37ac:	940004bf 	bl	4aa8 <TEE_Panic>
/home/lagadanu/Desktop/qemu/optee_os/lib/libutee/tee_api_operations.c:807
    37b0:	2a1403e0 	mov	w0, w20
    37b4:	f94013f5 	ldr	x21, [sp,#32]
    37b8:	a94153f3 	ldp	x19, x20, [sp,#16]
    37bc:	a8c47bfd 	ldp	x29, x30, [sp],#64
    37c0:	d65f03c0 	ret

00000000000037c4 <TEE_CipherInit>:
TEE_CipherInit():
/home/lagadanu/Desktop/qemu/optee_os/lib/libutee/tee_api_operations.c:813
    37c4:	a9bd7bfd 	stp	x29, x30, [sp,#-48]!
    37c8:	910003fd 	mov	x29, sp
    37cc:	a90153f3 	stp	x19, x20, [sp,#16]
    37d0:	aa0003f3 	mov	x19, x0
    37d4:	f90013f5 	str	x21, [sp,#32]
    37d8:	aa0103f4 	mov	x20, x1
    37dc:	2a0203f5 	mov	w21, w2
/home/lagadanu/Desktop/qemu/optee_os/lib/libutee/tee_api_operations.c:816
    37e0:	b5000060 	cbnz	x0, 37ec <TEE_CipherInit+0x28>
/home/lagadanu/Desktop/qemu/optee_os/lib/libutee/tee_api_operations.c:817
    37e4:	52800000 	mov	w0, #0x0                   	// #0
    37e8:	940004b0 	bl	4aa8 <TEE_Panic>
/home/lagadanu/Desktop/qemu/optee_os/lib/libutee/tee_api_operations.c:819
    37ec:	b9400660 	ldr	w0, [x19,#4]
    37f0:	7100041f 	cmp	w0, #0x1
    37f4:	54000060 	b.eq	3800 <TEE_CipherInit+0x3c>
/home/lagadanu/Desktop/qemu/optee_os/lib/libutee/tee_api_operations.c:820
    37f8:	52800000 	mov	w0, #0x0                   	// #0
    37fc:	940004ab 	bl	4aa8 <TEE_Panic>
/home/lagadanu/Desktop/qemu/optee_os/lib/libutee/tee_api_operations.c:822
    3800:	b9401e60 	ldr	w0, [x19,#28]
    3804:	36900060 	tbz	w0, #18, 3810 <TEE_CipherInit+0x4c>
/home/lagadanu/Desktop/qemu/optee_os/lib/libutee/tee_api_operations.c:822 (discriminator 1)
    3808:	f9401260 	ldr	x0, [x19,#32]
    380c:	b5000060 	cbnz	x0, 3818 <TEE_CipherInit+0x54>
/home/lagadanu/Desktop/qemu/optee_os/lib/libutee/tee_api_operations.c:824
    3810:	52800000 	mov	w0, #0x0                   	// #0
    3814:	940004a5 	bl	4aa8 <TEE_Panic>
/home/lagadanu/Desktop/qemu/optee_os/lib/libutee/tee_api_operations.c:826
    3818:	b9403260 	ldr	w0, [x19,#48]
    381c:	34000060 	cbz	w0, 3828 <TEE_CipherInit+0x64>
/home/lagadanu/Desktop/qemu/optee_os/lib/libutee/tee_api_operations.c:827
    3820:	aa1303e0 	mov	x0, x19
    3824:	97fffe95 	bl	3278 <TEE_ResetOperation>
/home/lagadanu/Desktop/qemu/optee_os/lib/libutee/tee_api_operations.c:829
    3828:	52800020 	mov	w0, #0x1                   	// #1
    382c:	b9003260 	str	w0, [x19,#48]
/home/lagadanu/Desktop/qemu/optee_os/lib/libutee/tee_api_operations.c:831
    3830:	b9405a60 	ldr	w0, [x19,#88]
    3834:	2a1503e2 	mov	w2, w21
    3838:	aa1403e1 	mov	x1, x20
    383c:	94000590 	bl	4e7c <utee_cipher_init>
/home/lagadanu/Desktop/qemu/optee_os/lib/libutee/tee_api_operations.c:832
    3840:	34000040 	cbz	w0, 3848 <TEE_CipherInit+0x84>
/home/lagadanu/Desktop/qemu/optee_os/lib/libutee/tee_api_operations.c:833
    3844:	94000499 	bl	4aa8 <TEE_Panic>
/home/lagadanu/Desktop/qemu/optee_os/lib/libutee/tee_api_operations.c:836
    3848:	b9401e60 	ldr	w0, [x19,#28]
/home/lagadanu/Desktop/qemu/optee_os/lib/libutee/tee_api_operations.c:837
    384c:	f94013f5 	ldr	x21, [sp,#32]
/home/lagadanu/Desktop/qemu/optee_os/lib/libutee/tee_api_operations.c:836
    3850:	320f0000 	orr	w0, w0, #0x20000
/home/lagadanu/Desktop/qemu/optee_os/lib/libutee/tee_api_operations.c:835
    3854:	f9002a7f 	str	xzr, [x19,#80]
/home/lagadanu/Desktop/qemu/optee_os/lib/libutee/tee_api_operations.c:836
    3858:	b9001e60 	str	w0, [x19,#28]
/home/lagadanu/Desktop/qemu/optee_os/lib/libutee/tee_api_operations.c:837
    385c:	a94153f3 	ldp	x19, x20, [sp,#16]
    3860:	a8c37bfd 	ldp	x29, x30, [sp],#48
    3864:	d65f03c0 	ret

0000000000003868 <TEE_CipherUpdate>:
TEE_CipherUpdate():
/home/lagadanu/Desktop/qemu/optee_os/lib/libutee/tee_api_operations.c:939
    3868:	a9bd7bfd 	stp	x29, x30, [sp,#-48]!
    386c:	910003fd 	mov	x29, sp
    3870:	a90153f3 	stp	x19, x20, [sp,#16]
/home/lagadanu/Desktop/qemu/optee_os/lib/libutee/tee_api_operations.c:948
    3874:	129fff33 	mov	w19, #0xffff0006            	// #-65530
/home/lagadanu/Desktop/qemu/optee_os/lib/libutee/tee_api_operations.c:944
    3878:	b40003c0 	cbz	x0, 38f0 <TEE_CipherUpdate+0x88>
/home/lagadanu/Desktop/qemu/optee_os/lib/libutee/tee_api_operations.c:945 (discriminator 1)
    387c:	f100003f 	cmp	x1, #0x0
    3880:	aa0403f4 	mov	x20, x4
    3884:	1a9f17e5 	cset	w5, eq
    3888:	7100005f 	cmp	w2, #0x0
    388c:	2a0203e6 	mov	w6, w2
    3890:	1a9f07e2 	cset	w2, ne
    3894:	f100029f 	cmp	x20, #0x0
    3898:	0a0200a4 	and	w4, w5, w2
    389c:	1a9f17e2 	cset	w2, eq
    38a0:	2a040042 	orr	w2, w2, w4
    38a4:	35000262 	cbnz	w2, 38f0 <TEE_CipherUpdate+0x88>
/home/lagadanu/Desktop/qemu/optee_os/lib/libutee/tee_api_operations.c:946
    38a8:	b5000063 	cbnz	x3, 38b4 <TEE_CipherUpdate+0x4c>
/home/lagadanu/Desktop/qemu/optee_os/lib/libutee/tee_api_operations.c:947
    38ac:	b9400282 	ldr	w2, [x20]
    38b0:	35000202 	cbnz	w2, 38f0 <TEE_CipherUpdate+0x88>
/home/lagadanu/Desktop/qemu/optee_os/lib/libutee/tee_api_operations.c:952
    38b4:	b9400402 	ldr	w2, [x0,#4]
/home/lagadanu/Desktop/qemu/optee_os/lib/libutee/tee_api_operations.c:948
    38b8:	129fff33 	mov	w19, #0xffff0006            	// #-65530
/home/lagadanu/Desktop/qemu/optee_os/lib/libutee/tee_api_operations.c:952
    38bc:	7100045f 	cmp	w2, #0x1
    38c0:	54000181 	b.ne	38f0 <TEE_CipherUpdate+0x88>
/home/lagadanu/Desktop/qemu/optee_os/lib/libutee/tee_api_operations.c:957
    38c4:	b9401c02 	ldr	w2, [x0,#28]
    38c8:	36880142 	tbz	w2, #17, 38f0 <TEE_CipherUpdate+0x88>
/home/lagadanu/Desktop/qemu/optee_os/lib/libutee/tee_api_operations.c:962
    38cc:	b9403002 	ldr	w2, [x0,#48]
    38d0:	7100045f 	cmp	w2, #0x1
    38d4:	540000e1 	b.ne	38f0 <TEE_CipherUpdate+0x88>
/home/lagadanu/Desktop/qemu/optee_os/lib/libutee/tee_api_operations.c:967
    38d8:	710000df 	cmp	w6, #0x0
    38dc:	1a9f17e2 	cset	w2, eq
    38e0:	6a0200bf 	tst	w5, w2
    38e4:	540001a0 	b.eq	3918 <TEE_CipherUpdate+0xb0>
/home/lagadanu/Desktop/qemu/optee_os/lib/libutee/tee_api_operations.c:969
    38e8:	52800013 	mov	w19, #0x0                   	// #0
/home/lagadanu/Desktop/qemu/optee_os/lib/libutee/tee_api_operations.c:968
    38ec:	b900029f 	str	wzr, [x20]
/home/lagadanu/Desktop/qemu/optee_os/lib/libutee/tee_api_operations.c:1013
    38f0:	7100027f 	cmp	w19, #0x0
    38f4:	129ffde0 	mov	w0, #0xffff0010            	// #-65520
    38f8:	7a401264 	ccmp	w19, w0, #0x4, ne
    38fc:	54000060 	b.eq	3908 <TEE_CipherUpdate+0xa0>
/home/lagadanu/Desktop/qemu/optee_os/lib/libutee/tee_api_operations.c:1015
    3900:	2a1303e0 	mov	w0, w19
    3904:	94000469 	bl	4aa8 <TEE_Panic>
/home/lagadanu/Desktop/qemu/optee_os/lib/libutee/tee_api_operations.c:1018
    3908:	2a1303e0 	mov	w0, w19
    390c:	a94153f3 	ldp	x19, x20, [sp,#16]
    3910:	a8c37bfd 	ldp	x29, x30, [sp],#48
    3914:	d65f03c0 	ret
/home/lagadanu/Desktop/qemu/optee_os/lib/libutee/tee_api_operations.c:974
    3918:	f9402405 	ldr	x5, [x0,#72]
    391c:	2a0603e2 	mov	w2, w6
/home/lagadanu/Desktop/qemu/optee_os/lib/libutee/tee_api_operations.c:978
    3920:	aa0203e4 	mov	x4, x2
/home/lagadanu/Desktop/qemu/optee_os/lib/libutee/tee_api_operations.c:974
    3924:	f10004bf 	cmp	x5, #0x1
    3928:	540000a9 	b.ls	393c <TEE_CipherUpdate+0xd4>
/home/lagadanu/Desktop/qemu/optee_os/lib/libutee/tee_api_operations.c:975
    392c:	f9402804 	ldr	x4, [x0,#80]
    3930:	8b040044 	add	x4, x2, x4
    3934:	9ac50884 	udiv	x4, x4, x5
    3938:	9b057c84 	mul	x4, x4, x5
/home/lagadanu/Desktop/qemu/optee_os/lib/libutee/tee_api_operations.c:980
    393c:	39410007 	ldrb	w7, [x0,#64]
    3940:	340000a7 	cbz	w7, 3954 <TEE_CipherUpdate+0xec>
/home/lagadanu/Desktop/qemu/optee_os/lib/libutee/tee_api_operations.c:981
    3944:	d37ff8a7 	lsl	x7, x5, #1
/home/lagadanu/Desktop/qemu/optee_os/lib/libutee/tee_api_operations.c:982
    3948:	cb070088 	sub	x8, x4, x7
    394c:	eb07009f 	cmp	x4, x7
    3950:	9a9f8104 	csel	x4, x8, xzr, hi
/home/lagadanu/Desktop/qemu/optee_os/lib/libutee/tee_api_operations.c:991
    3954:	b9400287 	ldr	w7, [x20]
    3958:	eb07009f 	cmp	x4, x7
    395c:	54000089 	b.ls	396c <TEE_CipherUpdate+0x104>
/home/lagadanu/Desktop/qemu/optee_os/lib/libutee/tee_api_operations.c:993
    3960:	129ffdf3 	mov	w19, #0xffff0010            	// #-65520
/home/lagadanu/Desktop/qemu/optee_os/lib/libutee/tee_api_operations.c:992
    3964:	b9000284 	str	w4, [x20]
/home/lagadanu/Desktop/qemu/optee_os/lib/libutee/tee_api_operations.c:994
    3968:	17ffffe2 	b	38f0 <TEE_CipherUpdate+0x88>
/home/lagadanu/Desktop/qemu/optee_os/lib/libutee/tee_api_operations.c:997
    396c:	f90017a7 	str	x7, [x29,#40]
/home/lagadanu/Desktop/qemu/optee_os/lib/libutee/tee_api_operations.c:998
    3970:	f10004bf 	cmp	x5, #0x1
    3974:	54000189 	b.ls	39a4 <TEE_CipherUpdate+0x13c>
/home/lagadanu/Desktop/qemu/optee_os/lib/libutee/tee_api_operations.c:999
    3978:	aa0303e4 	mov	x4, x3
    397c:	aa0203e3 	mov	x3, x2
    3980:	aa0103e2 	mov	x2, x1
    3984:	90000041 	adrp	x1, b000 <PRIME_TABLE+0x7f0>
    3988:	9100a3a5 	add	x5, x29, #0x28
    398c:	f9475821 	ldr	x1, [x1,#3760]
    3990:	97fffb35 	bl	2664 <tee_buffer_update>
/home/lagadanu/Desktop/qemu/optee_os/lib/libutee/tee_api_operations.c:1003
    3994:	2a0003f3 	mov	w19, w0
/home/lagadanu/Desktop/qemu/optee_os/lib/libutee/tee_api_operations.c:1010
    3998:	f94017a0 	ldr	x0, [x29,#40]
    399c:	b9000280 	str	w0, [x20]
    39a0:	17ffffd4 	b	38f0 <TEE_CipherUpdate+0x88>
/home/lagadanu/Desktop/qemu/optee_os/lib/libutee/tee_api_operations.c:1002
    39a4:	340000a6 	cbz	w6, 39b8 <TEE_CipherUpdate+0x150>
/home/lagadanu/Desktop/qemu/optee_os/lib/libutee/tee_api_operations.c:1003
    39a8:	b9405800 	ldr	w0, [x0,#88]
    39ac:	9100a3a4 	add	x4, x29, #0x28
    39b0:	94000536 	bl	4e88 <utee_cipher_update>
    39b4:	17fffff8 	b	3994 <TEE_CipherUpdate+0x12c>
/home/lagadanu/Desktop/qemu/optee_os/lib/libutee/tee_api_operations.c:1006
    39b8:	52800013 	mov	w19, #0x0                   	// #0
/home/lagadanu/Desktop/qemu/optee_os/lib/libutee/tee_api_operations.c:1007
    39bc:	f90017bf 	str	xzr, [x29,#40]
    39c0:	17fffff6 	b	3998 <TEE_CipherUpdate+0x130>

00000000000039c4 <TEE_CipherDoFinal>:
TEE_CipherDoFinal():
/home/lagadanu/Desktop/qemu/optee_os/lib/libutee/tee_api_operations.c:1023
    39c4:	a9bb7bfd 	stp	x29, x30, [sp,#-80]!
    39c8:	910003fd 	mov	x29, sp
    39cc:	a90153f3 	stp	x19, x20, [sp,#16]
/home/lagadanu/Desktop/qemu/optee_os/lib/libutee/tee_api_operations.c:1034
    39d0:	129fff34 	mov	w20, #0xffff0006            	// #-65530
/home/lagadanu/Desktop/qemu/optee_os/lib/libutee/tee_api_operations.c:1023
    39d4:	a9025bf5 	stp	x21, x22, [sp,#32]
    39d8:	a90363f7 	stp	x23, x24, [sp,#48]
/home/lagadanu/Desktop/qemu/optee_os/lib/libutee/tee_api_operations.c:1030
    39dc:	b40005e0 	cbz	x0, 3a98 <TEE_CipherDoFinal+0xd4>
/home/lagadanu/Desktop/qemu/optee_os/lib/libutee/tee_api_operations.c:1031 (discriminator 1)
    39e0:	f100003f 	cmp	x1, #0x0
    39e4:	aa0403f5 	mov	x21, x4
    39e8:	7a400844 	ccmp	w2, #0x0, #0x4, eq
    39ec:	fa400884 	ccmp	x4, #0x0, #0x4, eq
    39f0:	54000540 	b.eq	3a98 <TEE_CipherDoFinal+0xd4>
    39f4:	aa0003f3 	mov	x19, x0
    39f8:	aa0303f8 	mov	x24, x3
/home/lagadanu/Desktop/qemu/optee_os/lib/libutee/tee_api_operations.c:1032
    39fc:	b5000063 	cbnz	x3, 3a08 <TEE_CipherDoFinal+0x44>
/home/lagadanu/Desktop/qemu/optee_os/lib/libutee/tee_api_operations.c:1033
    3a00:	b9400080 	ldr	w0, [x4]
    3a04:	350004a0 	cbnz	w0, 3a98 <TEE_CipherDoFinal+0xd4>
/home/lagadanu/Desktop/qemu/optee_os/lib/libutee/tee_api_operations.c:1038
    3a08:	b9400660 	ldr	w0, [x19,#4]
/home/lagadanu/Desktop/qemu/optee_os/lib/libutee/tee_api_operations.c:1034
    3a0c:	129fff34 	mov	w20, #0xffff0006            	// #-65530
/home/lagadanu/Desktop/qemu/optee_os/lib/libutee/tee_api_operations.c:1038
    3a10:	7100041f 	cmp	w0, #0x1
    3a14:	54000421 	b.ne	3a98 <TEE_CipherDoFinal+0xd4>
/home/lagadanu/Desktop/qemu/optee_os/lib/libutee/tee_api_operations.c:1043
    3a18:	b9401e60 	ldr	w0, [x19,#28]
    3a1c:	368803e0 	tbz	w0, #17, 3a98 <TEE_CipherDoFinal+0xd4>
/home/lagadanu/Desktop/qemu/optee_os/lib/libutee/tee_api_operations.c:1048
    3a20:	b9403260 	ldr	w0, [x19,#48]
    3a24:	7100041f 	cmp	w0, #0x1
    3a28:	54000381 	b.ne	3a98 <TEE_CipherDoFinal+0xd4>
/home/lagadanu/Desktop/qemu/optee_os/lib/libutee/tee_api_operations.c:1057
    3a2c:	b9400260 	ldr	w0, [x19]
    3a30:	529ffe03 	mov	w3, #0xfff0                	// #65520
    3a34:	72bdffe3 	movk	w3, #0xefff, lsl #16
    3a38:	2a0203e2 	mov	w2, w2
    3a3c:	12177800 	and	w0, w0, #0xfffffeff
    3a40:	0b030003 	add	w3, w0, w3
/home/lagadanu/Desktop/qemu/optee_os/lib/libutee/tee_api_operations.c:1061
    3a44:	7100047f 	cmp	w3, #0x1
    3a48:	52800263 	mov	w3, #0x13                  	// #19
    3a4c:	72a20003 	movk	w3, #0x1000, lsl #16
    3a50:	7a438004 	ccmp	w0, w3, #0x4, hi
    3a54:	f9402663 	ldr	x3, [x19,#72]
    3a58:	540000c1 	b.ne	3a70 <TEE_CipherDoFinal+0xac>
/home/lagadanu/Desktop/qemu/optee_os/lib/libutee/tee_api_operations.c:1063
    3a5c:	f9402a60 	ldr	x0, [x19,#80]
    3a60:	8b000040 	add	x0, x2, x0
    3a64:	9ac30804 	udiv	x4, x0, x3
    3a68:	9b038080 	msub	x0, x4, x3, x0
    3a6c:	b5000160 	cbnz	x0, 3a98 <TEE_CipherDoFinal+0xd4>
/home/lagadanu/Desktop/qemu/optee_os/lib/libutee/tee_api_operations.c:1078
    3a70:	aa0203e0 	mov	x0, x2
/home/lagadanu/Desktop/qemu/optee_os/lib/libutee/tee_api_operations.c:1075
    3a74:	f100047f 	cmp	x3, #0x1
    3a78:	54000069 	b.ls	3a84 <TEE_CipherDoFinal+0xc0>
/home/lagadanu/Desktop/qemu/optee_os/lib/libutee/tee_api_operations.c:1076
    3a7c:	f9402a60 	ldr	x0, [x19,#80]
    3a80:	8b000040 	add	x0, x2, x0
/home/lagadanu/Desktop/qemu/optee_os/lib/libutee/tee_api_operations.c:1080
    3a84:	b94002a4 	ldr	w4, [x21]
    3a88:	eb04001f 	cmp	x0, x4
    3a8c:	540001e9 	b.ls	3ac8 <TEE_CipherDoFinal+0x104>
/home/lagadanu/Desktop/qemu/optee_os/lib/libutee/tee_api_operations.c:1082
    3a90:	129ffdf4 	mov	w20, #0xffff0010            	// #-65520
/home/lagadanu/Desktop/qemu/optee_os/lib/libutee/tee_api_operations.c:1081
    3a94:	b90002a0 	str	w0, [x21]
/home/lagadanu/Desktop/qemu/optee_os/lib/libutee/tee_api_operations.c:1114
    3a98:	7100029f 	cmp	w20, #0x0
    3a9c:	129ffde0 	mov	w0, #0xffff0010            	// #-65520
    3aa0:	7a401284 	ccmp	w20, w0, #0x4, ne
    3aa4:	54000060 	b.eq	3ab0 <TEE_CipherDoFinal+0xec>
/home/lagadanu/Desktop/qemu/optee_os/lib/libutee/tee_api_operations.c:1116
    3aa8:	2a1403e0 	mov	w0, w20
    3aac:	940003ff 	bl	4aa8 <TEE_Panic>
/home/lagadanu/Desktop/qemu/optee_os/lib/libutee/tee_api_operations.c:1119
    3ab0:	2a1403e0 	mov	w0, w20
    3ab4:	a94153f3 	ldp	x19, x20, [sp,#16]
    3ab8:	a9425bf5 	ldp	x21, x22, [sp,#32]
    3abc:	a94363f7 	ldp	x23, x24, [sp,#48]
    3ac0:	a8c57bfd 	ldp	x29, x30, [sp],#80
    3ac4:	d65f03c0 	ret
/home/lagadanu/Desktop/qemu/optee_os/lib/libutee/tee_api_operations.c:1086
    3ac8:	910143b7 	add	x23, x29, #0x50
/home/lagadanu/Desktop/qemu/optee_os/lib/libutee/tee_api_operations.c:1087
    3acc:	f100047f 	cmp	x3, #0x1
/home/lagadanu/Desktop/qemu/optee_os/lib/libutee/tee_api_operations.c:1086
    3ad0:	f81f8ee4 	str	x4, [x23,#-8]!
/home/lagadanu/Desktop/qemu/optee_os/lib/libutee/tee_api_operations.c:1087
    3ad4:	540003e9 	b.ls	3b50 <TEE_CipherDoFinal+0x18c>
/home/lagadanu/Desktop/qemu/optee_os/lib/libutee/tee_api_operations.c:1088
    3ad8:	aa0203e3 	mov	x3, x2
    3adc:	aa0103e2 	mov	x2, x1
    3ae0:	90000041 	adrp	x1, b000 <PRIME_TABLE+0x7f0>
    3ae4:	aa1703e5 	mov	x5, x23
    3ae8:	aa1803e4 	mov	x4, x24
    3aec:	aa1303e0 	mov	x0, x19
    3af0:	f9475821 	ldr	x1, [x1,#3760]
    3af4:	97fffadc 	bl	2664 <tee_buffer_update>
    3af8:	2a0003f4 	mov	w20, w0
/home/lagadanu/Desktop/qemu/optee_os/lib/libutee/tee_api_operations.c:1090
    3afc:	35fffce0 	cbnz	w0, 3a98 <TEE_CipherDoFinal+0xd4>
/home/lagadanu/Desktop/qemu/optee_os/lib/libutee/tee_api_operations.c:1093
    3b00:	f94027b6 	ldr	x22, [x29,#72]
/home/lagadanu/Desktop/qemu/optee_os/lib/libutee/tee_api_operations.c:1097
    3b04:	aa1703e4 	mov	x4, x23
/home/lagadanu/Desktop/qemu/optee_os/lib/libutee/tee_api_operations.c:1096
    3b08:	b94002a0 	ldr	w0, [x21]
/home/lagadanu/Desktop/qemu/optee_os/lib/libutee/tee_api_operations.c:1097
    3b0c:	f9401e61 	ldr	x1, [x19,#56]
    3b10:	8b160303 	add	x3, x24, x22
/home/lagadanu/Desktop/qemu/optee_os/lib/libutee/tee_api_operations.c:1096
    3b14:	cb160000 	sub	x0, x0, x22
/home/lagadanu/Desktop/qemu/optee_os/lib/libutee/tee_api_operations.c:1097
    3b18:	f9402a62 	ldr	x2, [x19,#80]
/home/lagadanu/Desktop/qemu/optee_os/lib/libutee/tee_api_operations.c:1096
    3b1c:	f90027a0 	str	x0, [x29,#72]
/home/lagadanu/Desktop/qemu/optee_os/lib/libutee/tee_api_operations.c:1097
    3b20:	b9405a60 	ldr	w0, [x19,#88]
    3b24:	940004dc 	bl	4e94 <utee_cipher_final>
    3b28:	2a0003f4 	mov	w20, w0
/home/lagadanu/Desktop/qemu/optee_os/lib/libutee/tee_api_operations.c:1103
    3b2c:	35fffb74 	cbnz	w20, 3a98 <TEE_CipherDoFinal+0xd4>
/home/lagadanu/Desktop/qemu/optee_os/lib/libutee/tee_api_operations.c:1106
    3b30:	f94027a0 	ldr	x0, [x29,#72]
    3b34:	8b0002d6 	add	x22, x22, x0
/home/lagadanu/Desktop/qemu/optee_os/lib/libutee/tee_api_operations.c:1107
    3b38:	b90002b6 	str	w22, [x21]
/home/lagadanu/Desktop/qemu/optee_os/lib/libutee/tee_api_operations.c:1111
    3b3c:	b900327f 	str	wzr, [x19,#48]
/home/lagadanu/Desktop/qemu/optee_os/lib/libutee/tee_api_operations.c:1109
    3b40:	b9401e60 	ldr	w0, [x19,#28]
    3b44:	120e7800 	and	w0, w0, #0xfffdffff
    3b48:	b9001e60 	str	w0, [x19,#28]
    3b4c:	17ffffd3 	b	3a98 <TEE_CipherDoFinal+0xd4>
/home/lagadanu/Desktop/qemu/optee_os/lib/libutee/tee_api_operations.c:1100
    3b50:	b9405a60 	ldr	w0, [x19,#88]
    3b54:	aa1703e4 	mov	x4, x23
    3b58:	aa1803e3 	mov	x3, x24
/home/lagadanu/Desktop/qemu/optee_os/lib/libutee/tee_api_operations.c:1026
    3b5c:	d2800016 	mov	x22, #0x0                   	// #0
/home/lagadanu/Desktop/qemu/optee_os/lib/libutee/tee_api_operations.c:1100
    3b60:	940004cd 	bl	4e94 <utee_cipher_final>
    3b64:	2a0003f4 	mov	w20, w0
    3b68:	17fffff1 	b	3b2c <TEE_CipherDoFinal+0x168>

0000000000003b6c <TEE_MACInit>:
TEE_MACInit():
/home/lagadanu/Desktop/qemu/optee_os/lib/libutee/tee_api_operations.c:1124
    3b6c:	a9bd7bfd 	stp	x29, x30, [sp,#-48]!
    3b70:	910003fd 	mov	x29, sp
    3b74:	a90153f3 	stp	x19, x20, [sp,#16]
    3b78:	aa0003f3 	mov	x19, x0
    3b7c:	f90013f5 	str	x21, [sp,#32]
    3b80:	aa0103f4 	mov	x20, x1
    3b84:	2a0203f5 	mov	w21, w2
/home/lagadanu/Desktop/qemu/optee_os/lib/libutee/tee_api_operations.c:1125
    3b88:	b5000060 	cbnz	x0, 3b94 <TEE_MACInit+0x28>
/home/lagadanu/Desktop/qemu/optee_os/lib/libutee/tee_api_operations.c:1126
    3b8c:	52800000 	mov	w0, #0x0                   	// #0
    3b90:	940003c6 	bl	4aa8 <TEE_Panic>
/home/lagadanu/Desktop/qemu/optee_os/lib/libutee/tee_api_operations.c:1128
    3b94:	b9400660 	ldr	w0, [x19,#4]
    3b98:	71000c1f 	cmp	w0, #0x3
    3b9c:	54000060 	b.eq	3ba8 <TEE_MACInit+0x3c>
/home/lagadanu/Desktop/qemu/optee_os/lib/libutee/tee_api_operations.c:1129
    3ba0:	52800000 	mov	w0, #0x0                   	// #0
    3ba4:	940003c1 	bl	4aa8 <TEE_Panic>
/home/lagadanu/Desktop/qemu/optee_os/lib/libutee/tee_api_operations.c:1131
    3ba8:	b9401e60 	ldr	w0, [x19,#28]
    3bac:	36900060 	tbz	w0, #18, 3bb8 <TEE_MACInit+0x4c>
/home/lagadanu/Desktop/qemu/optee_os/lib/libutee/tee_api_operations.c:1131 (discriminator 1)
    3bb0:	f9401260 	ldr	x0, [x19,#32]
    3bb4:	b5000060 	cbnz	x0, 3bc0 <TEE_MACInit+0x54>
/home/lagadanu/Desktop/qemu/optee_os/lib/libutee/tee_api_operations.c:1133
    3bb8:	52800000 	mov	w0, #0x0                   	// #0
    3bbc:	940003bb 	bl	4aa8 <TEE_Panic>
/home/lagadanu/Desktop/qemu/optee_os/lib/libutee/tee_api_operations.c:1135
    3bc0:	b9403260 	ldr	w0, [x19,#48]
    3bc4:	34000060 	cbz	w0, 3bd0 <TEE_MACInit+0x64>
/home/lagadanu/Desktop/qemu/optee_os/lib/libutee/tee_api_operations.c:1136
    3bc8:	aa1303e0 	mov	x0, x19
    3bcc:	97fffdab 	bl	3278 <TEE_ResetOperation>
/home/lagadanu/Desktop/qemu/optee_os/lib/libutee/tee_api_operations.c:1138
    3bd0:	52800020 	mov	w0, #0x1                   	// #1
    3bd4:	b9003260 	str	w0, [x19,#48]
init_hash_operation():
/home/lagadanu/Desktop/qemu/optee_os/lib/libutee/tee_api_operations.c:752
    3bd8:	b9405a60 	ldr	w0, [x19,#88]
    3bdc:	2a1503e2 	mov	w2, w21
    3be0:	aa1403e1 	mov	x1, x20
    3be4:	9400049d 	bl	4e58 <utee_hash_init>
/home/lagadanu/Desktop/qemu/optee_os/lib/libutee/tee_api_operations.c:753
    3be8:	34000040 	cbz	w0, 3bf0 <TEE_MACInit+0x84>
/home/lagadanu/Desktop/qemu/optee_os/lib/libutee/tee_api_operations.c:754
    3bec:	940003af 	bl	4aa8 <TEE_Panic>
/home/lagadanu/Desktop/qemu/optee_os/lib/libutee/tee_api_operations.c:756
    3bf0:	b9401e60 	ldr	w0, [x19,#28]
TEE_MACInit():
/home/lagadanu/Desktop/qemu/optee_os/lib/libutee/tee_api_operations.c:1141
    3bf4:	f94013f5 	ldr	x21, [sp,#32]
init_hash_operation():
/home/lagadanu/Desktop/qemu/optee_os/lib/libutee/tee_api_operations.c:756
    3bf8:	320f0000 	orr	w0, w0, #0x20000
/home/lagadanu/Desktop/qemu/optee_os/lib/libutee/tee_api_operations.c:755
    3bfc:	f9002a7f 	str	xzr, [x19,#80]
/home/lagadanu/Desktop/qemu/optee_os/lib/libutee/tee_api_operations.c:756
    3c00:	b9001e60 	str	w0, [x19,#28]
TEE_MACInit():
/home/lagadanu/Desktop/qemu/optee_os/lib/libutee/tee_api_operations.c:1141
    3c04:	a94153f3 	ldp	x19, x20, [sp,#16]
    3c08:	a8c37bfd 	ldp	x29, x30, [sp],#48
    3c0c:	d65f03c0 	ret

0000000000003c10 <TEE_MACUpdate>:
TEE_MACUpdate():
/home/lagadanu/Desktop/qemu/optee_os/lib/libutee/tee_api_operations.c:1145
    3c10:	a9bd7bfd 	stp	x29, x30, [sp,#-48]!
    3c14:	910003fd 	mov	x29, sp
    3c18:	a90153f3 	stp	x19, x20, [sp,#16]
    3c1c:	aa0003f3 	mov	x19, x0
    3c20:	f90013f5 	str	x21, [sp,#32]
    3c24:	aa0103f4 	mov	x20, x1
    3c28:	2a0203f5 	mov	w21, w2
/home/lagadanu/Desktop/qemu/optee_os/lib/libutee/tee_api_operations.c:1148
    3c2c:	b4000080 	cbz	x0, 3c3c <TEE_MACUpdate+0x2c>
/home/lagadanu/Desktop/qemu/optee_os/lib/libutee/tee_api_operations.c:1148 (discriminator 1)
    3c30:	f100003f 	cmp	x1, #0x0
    3c34:	7a400844 	ccmp	w2, #0x0, #0x4, eq
    3c38:	54000060 	b.eq	3c44 <TEE_MACUpdate+0x34>
/home/lagadanu/Desktop/qemu/optee_os/lib/libutee/tee_api_operations.c:1149
    3c3c:	52800000 	mov	w0, #0x0                   	// #0
    3c40:	9400039a 	bl	4aa8 <TEE_Panic>
/home/lagadanu/Desktop/qemu/optee_os/lib/libutee/tee_api_operations.c:1151
    3c44:	b9400660 	ldr	w0, [x19,#4]
    3c48:	71000c1f 	cmp	w0, #0x3
    3c4c:	54000060 	b.eq	3c58 <TEE_MACUpdate+0x48>
/home/lagadanu/Desktop/qemu/optee_os/lib/libutee/tee_api_operations.c:1152
    3c50:	52800000 	mov	w0, #0x0                   	// #0
    3c54:	94000395 	bl	4aa8 <TEE_Panic>
/home/lagadanu/Desktop/qemu/optee_os/lib/libutee/tee_api_operations.c:1154
    3c58:	b9401e60 	ldr	w0, [x19,#28]
    3c5c:	37880060 	tbnz	w0, #17, 3c68 <TEE_MACUpdate+0x58>
/home/lagadanu/Desktop/qemu/optee_os/lib/libutee/tee_api_operations.c:1155
    3c60:	52800000 	mov	w0, #0x0                   	// #0
    3c64:	94000391 	bl	4aa8 <TEE_Panic>
/home/lagadanu/Desktop/qemu/optee_os/lib/libutee/tee_api_operations.c:1157
    3c68:	b9403260 	ldr	w0, [x19,#48]
    3c6c:	7100041f 	cmp	w0, #0x1
    3c70:	54000060 	b.eq	3c7c <TEE_MACUpdate+0x6c>
/home/lagadanu/Desktop/qemu/optee_os/lib/libutee/tee_api_operations.c:1158
    3c74:	52800000 	mov	w0, #0x0                   	// #0
    3c78:	9400038c 	bl	4aa8 <TEE_Panic>
/home/lagadanu/Desktop/qemu/optee_os/lib/libutee/tee_api_operations.c:1160
    3c7c:	b9405a60 	ldr	w0, [x19,#88]
    3c80:	2a1503e2 	mov	w2, w21
    3c84:	aa1403e1 	mov	x1, x20
    3c88:	94000477 	bl	4e64 <utee_hash_update>
/home/lagadanu/Desktop/qemu/optee_os/lib/libutee/tee_api_operations.c:1161
    3c8c:	340000a0 	cbz	w0, 3ca0 <TEE_MACUpdate+0x90>
/home/lagadanu/Desktop/qemu/optee_os/lib/libutee/tee_api_operations.c:1163
    3c90:	a94153f3 	ldp	x19, x20, [sp,#16]
    3c94:	f94013f5 	ldr	x21, [sp,#32]
    3c98:	a8c37bfd 	ldp	x29, x30, [sp],#48
/home/lagadanu/Desktop/qemu/optee_os/lib/libutee/tee_api_operations.c:1162
    3c9c:	14000383 	b	4aa8 <TEE_Panic>
/home/lagadanu/Desktop/qemu/optee_os/lib/libutee/tee_api_operations.c:1163
    3ca0:	a94153f3 	ldp	x19, x20, [sp,#16]
    3ca4:	f94013f5 	ldr	x21, [sp,#32]
    3ca8:	a8c37bfd 	ldp	x29, x30, [sp],#48
    3cac:	d65f03c0 	ret

0000000000003cb0 <TEE_MACComputeFinal>:
TEE_MACComputeFinal():
/home/lagadanu/Desktop/qemu/optee_os/lib/libutee/tee_api_operations.c:1168
    3cb0:	a9bc7bfd 	stp	x29, x30, [sp,#-64]!
    3cb4:	910003fd 	mov	x29, sp
    3cb8:	a90153f3 	stp	x19, x20, [sp,#16]
    3cbc:	aa0003f3 	mov	x19, x0
    3cc0:	f90013f5 	str	x21, [sp,#32]
/home/lagadanu/Desktop/qemu/optee_os/lib/libutee/tee_api_operations.c:1176
    3cc4:	129fff34 	mov	w20, #0xffff0006            	// #-65530
/home/lagadanu/Desktop/qemu/optee_os/lib/libutee/tee_api_operations.c:1172
    3cc8:	b40003c0 	cbz	x0, 3d40 <TEE_MACComputeFinal+0x90>
/home/lagadanu/Desktop/qemu/optee_os/lib/libutee/tee_api_operations.c:1173 (discriminator 1)
    3ccc:	f100003f 	cmp	x1, #0x0
/home/lagadanu/Desktop/qemu/optee_os/lib/libutee/tee_api_operations.c:1172 (discriminator 1)
    3cd0:	7a400844 	ccmp	w2, #0x0, #0x4, eq
    3cd4:	54000361 	b.ne	3d40 <TEE_MACComputeFinal+0x90>
/home/lagadanu/Desktop/qemu/optee_os/lib/libutee/tee_api_operations.c:1174
    3cd8:	f100007f 	cmp	x3, #0x0
    3cdc:	aa0403f5 	mov	x21, x4
    3ce0:	fa401884 	ccmp	x4, #0x0, #0x4, ne
    3ce4:	540002e0 	b.eq	3d40 <TEE_MACComputeFinal+0x90>
/home/lagadanu/Desktop/qemu/optee_os/lib/libutee/tee_api_operations.c:1180
    3ce8:	b9400660 	ldr	w0, [x19,#4]
    3cec:	71000c1f 	cmp	w0, #0x3
    3cf0:	54000281 	b.ne	3d40 <TEE_MACComputeFinal+0x90>
/home/lagadanu/Desktop/qemu/optee_os/lib/libutee/tee_api_operations.c:1185
    3cf4:	b9401e60 	ldr	w0, [x19,#28]
    3cf8:	36880240 	tbz	w0, #17, 3d40 <TEE_MACComputeFinal+0x90>
/home/lagadanu/Desktop/qemu/optee_os/lib/libutee/tee_api_operations.c:1190
    3cfc:	b9403260 	ldr	w0, [x19,#48]
    3d00:	7100041f 	cmp	w0, #0x1
    3d04:	540001e1 	b.ne	3d40 <TEE_MACComputeFinal+0x90>
/home/lagadanu/Desktop/qemu/optee_os/lib/libutee/tee_api_operations.c:1195
    3d08:	910103a4 	add	x4, x29, #0x40
    3d0c:	b94002a0 	ldr	w0, [x21]
/home/lagadanu/Desktop/qemu/optee_os/lib/libutee/tee_api_operations.c:1196
    3d10:	2a0203e2 	mov	w2, w2
/home/lagadanu/Desktop/qemu/optee_os/lib/libutee/tee_api_operations.c:1195
    3d14:	f81f8c80 	str	x0, [x4,#-8]!
/home/lagadanu/Desktop/qemu/optee_os/lib/libutee/tee_api_operations.c:1196
    3d18:	b9405a60 	ldr	w0, [x19,#88]
    3d1c:	94000455 	bl	4e70 <utee_hash_final>
    3d20:	2a0003f4 	mov	w20, w0
/home/lagadanu/Desktop/qemu/optee_os/lib/libutee/tee_api_operations.c:1197
    3d24:	f9401fa0 	ldr	x0, [x29,#56]
    3d28:	b90002a0 	str	w0, [x21]
/home/lagadanu/Desktop/qemu/optee_os/lib/libutee/tee_api_operations.c:1198
    3d2c:	350000b4 	cbnz	w20, 3d40 <TEE_MACComputeFinal+0x90>
/home/lagadanu/Desktop/qemu/optee_os/lib/libutee/tee_api_operations.c:1201
    3d30:	b9401e60 	ldr	w0, [x19,#28]
/home/lagadanu/Desktop/qemu/optee_os/lib/libutee/tee_api_operations.c:1203
    3d34:	b900327f 	str	wzr, [x19,#48]
/home/lagadanu/Desktop/qemu/optee_os/lib/libutee/tee_api_operations.c:1201
    3d38:	120e7800 	and	w0, w0, #0xfffdffff
    3d3c:	b9001e60 	str	w0, [x19,#28]
/home/lagadanu/Desktop/qemu/optee_os/lib/libutee/tee_api_operations.c:1206
    3d40:	7100029f 	cmp	w20, #0x0
    3d44:	129ffde0 	mov	w0, #0xffff0010            	// #-65520
    3d48:	7a401284 	ccmp	w20, w0, #0x4, ne
    3d4c:	54000060 	b.eq	3d58 <TEE_MACComputeFinal+0xa8>
/home/lagadanu/Desktop/qemu/optee_os/lib/libutee/tee_api_operations.c:1208
    3d50:	2a1403e0 	mov	w0, w20
    3d54:	94000355 	bl	4aa8 <TEE_Panic>
/home/lagadanu/Desktop/qemu/optee_os/lib/libutee/tee_api_operations.c:1211
    3d58:	2a1403e0 	mov	w0, w20
    3d5c:	f94013f5 	ldr	x21, [sp,#32]
    3d60:	a94153f3 	ldp	x19, x20, [sp,#16]
    3d64:	a8c47bfd 	ldp	x29, x30, [sp],#64
    3d68:	d65f03c0 	ret

0000000000003d6c <TEE_MACCompareFinal>:
TEE_MACCompareFinal():
/home/lagadanu/Desktop/qemu/optee_os/lib/libutee/tee_api_operations.c:1216
    3d6c:	a9b77bfd 	stp	x29, x30, [sp,#-144]!
    3d70:	910003fd 	mov	x29, sp
    3d74:	a9025bf5 	stp	x21, x22, [sp,#32]
    3d78:	aa0303f6 	mov	x22, x3
/home/lagadanu/Desktop/qemu/optee_os/lib/libutee/tee_api_operations.c:1219
    3d7c:	52800803 	mov	w3, #0x40                  	// #64
/home/lagadanu/Desktop/qemu/optee_os/lib/libutee/tee_api_operations.c:1216
    3d80:	a90153f3 	stp	x19, x20, [sp,#16]
/home/lagadanu/Desktop/qemu/optee_os/lib/libutee/tee_api_operations.c:1219
    3d84:	b9004fa3 	str	w3, [x29,#76]
/home/lagadanu/Desktop/qemu/optee_os/lib/libutee/tee_api_operations.c:1222
    3d88:	129fff33 	mov	w19, #0xffff0006            	// #-65530
/home/lagadanu/Desktop/qemu/optee_os/lib/libutee/tee_api_operations.c:1221
    3d8c:	b9400403 	ldr	w3, [x0,#4]
/home/lagadanu/Desktop/qemu/optee_os/lib/libutee/tee_api_operations.c:1216
    3d90:	f9001bf7 	str	x23, [sp,#48]
/home/lagadanu/Desktop/qemu/optee_os/lib/libutee/tee_api_operations.c:1221
    3d94:	71000c7f 	cmp	w3, #0x3
    3d98:	54000241 	b.ne	3de0 <TEE_MACCompareFinal+0x74>
/home/lagadanu/Desktop/qemu/optee_os/lib/libutee/tee_api_operations.c:1226
    3d9c:	b9401c03 	ldr	w3, [x0,#28]
    3da0:	aa0003f4 	mov	x20, x0
    3da4:	368801e3 	tbz	w3, #17, 3de0 <TEE_MACCompareFinal+0x74>
/home/lagadanu/Desktop/qemu/optee_os/lib/libutee/tee_api_operations.c:1231
    3da8:	b9403003 	ldr	w3, [x0,#48]
    3dac:	7100047f 	cmp	w3, #0x1
    3db0:	54000181 	b.ne	3de0 <TEE_MACCompareFinal+0x74>
/home/lagadanu/Desktop/qemu/optee_os/lib/libutee/tee_api_operations.c:1236
    3db4:	910143b5 	add	x21, x29, #0x50
    3db8:	2a0403f7 	mov	w23, w4
    3dbc:	aa1503e3 	mov	x3, x21
    3dc0:	910133a4 	add	x4, x29, #0x4c
    3dc4:	97ffffbb 	bl	3cb0 <TEE_MACComputeFinal>
    3dc8:	2a0003f3 	mov	w19, w0
/home/lagadanu/Desktop/qemu/optee_os/lib/libutee/tee_api_operations.c:1238
    3dcc:	350000a0 	cbnz	w0, 3de0 <TEE_MACCompareFinal+0x74>
/home/lagadanu/Desktop/qemu/optee_os/lib/libutee/tee_api_operations.c:1241
    3dd0:	b9404fa2 	ldr	w2, [x29,#76]
    3dd4:	6b17005f 	cmp	w2, w23
    3dd8:	540001c0 	b.eq	3e10 <TEE_MACCompareFinal+0xa4>
/home/lagadanu/Desktop/qemu/optee_os/lib/libutee/tee_api_operations.c:1242
    3ddc:	1299f1d3 	mov	w19, #0xffff3071            	// #-53135
/home/lagadanu/Desktop/qemu/optee_os/lib/libutee/tee_api_operations.c:1254
    3de0:	7100027f 	cmp	w19, #0x0
    3de4:	1299f1c0 	mov	w0, #0xffff3071            	// #-53135
    3de8:	7a401264 	ccmp	w19, w0, #0x4, ne
    3dec:	54000060 	b.eq	3df8 <TEE_MACCompareFinal+0x8c>
/home/lagadanu/Desktop/qemu/optee_os/lib/libutee/tee_api_operations.c:1256
    3df0:	2a1303e0 	mov	w0, w19
    3df4:	9400032d 	bl	4aa8 <TEE_Panic>
/home/lagadanu/Desktop/qemu/optee_os/lib/libutee/tee_api_operations.c:1259
    3df8:	2a1303e0 	mov	w0, w19
    3dfc:	f9401bf7 	ldr	x23, [sp,#48]
    3e00:	a94153f3 	ldp	x19, x20, [sp,#16]
    3e04:	a9425bf5 	ldp	x21, x22, [sp,#32]
    3e08:	a8c97bfd 	ldp	x29, x30, [sp],#144
    3e0c:	d65f03c0 	ret
/home/lagadanu/Desktop/qemu/optee_os/lib/libutee/tee_api_operations.c:1246
    3e10:	2a0203e2 	mov	w2, w2
    3e14:	aa1503e1 	mov	x1, x21
    3e18:	aa1603e0 	mov	x0, x22
    3e1c:	940019d9 	bl	a580 <buf_compare_ct>
    3e20:	35fffde0 	cbnz	w0, 3ddc <TEE_MACCompareFinal+0x70>
/home/lagadanu/Desktop/qemu/optee_os/lib/libutee/tee_api_operations.c:1251
    3e24:	b900329f 	str	wzr, [x20,#48]
    3e28:	17ffffee 	b	3de0 <TEE_MACCompareFinal+0x74>

0000000000003e2c <TEE_AEInit>:
TEE_AEInit():
/home/lagadanu/Desktop/qemu/optee_os/lib/libutee/tee_api_operations.c:1266
    3e2c:	a9bd7bfd 	stp	x29, x30, [sp,#-48]!
/home/lagadanu/Desktop/qemu/optee_os/lib/libutee/tee_api_operations.c:1269
    3e30:	f100001f 	cmp	x0, #0x0
    3e34:	fa401824 	ccmp	x1, #0x0, #0x4, ne
/home/lagadanu/Desktop/qemu/optee_os/lib/libutee/tee_api_operations.c:1266
    3e38:	910003fd 	mov	x29, sp
    3e3c:	a90153f3 	stp	x19, x20, [sp,#16]
/home/lagadanu/Desktop/qemu/optee_os/lib/libutee/tee_api_operations.c:1270
    3e40:	129fff34 	mov	w20, #0xffff0006            	// #-65530
/home/lagadanu/Desktop/qemu/optee_os/lib/libutee/tee_api_operations.c:1266
    3e44:	f90013f5 	str	x21, [sp,#32]
/home/lagadanu/Desktop/qemu/optee_os/lib/libutee/tee_api_operations.c:1269
    3e48:	540003e0 	b.eq	3ec4 <TEE_AEInit+0x98>
    3e4c:	aa0003f3 	mov	x19, x0
/home/lagadanu/Desktop/qemu/optee_os/lib/libutee/tee_api_operations.c:1274
    3e50:	b9400400 	ldr	w0, [x0,#4]
    3e54:	7100101f 	cmp	w0, #0x4
    3e58:	54000361 	b.ne	3ec4 <TEE_AEInit+0x98>
/home/lagadanu/Desktop/qemu/optee_os/lib/libutee/tee_api_operations.c:1279
    3e5c:	b9403260 	ldr	w0, [x19,#48]
    3e60:	35000320 	cbnz	w0, 3ec4 <TEE_AEInit+0x98>
/home/lagadanu/Desktop/qemu/optee_os/lib/libutee/tee_api_operations.c:1290
    3e64:	b9400266 	ldr	w6, [x19]
    3e68:	52810200 	mov	w0, #0x810                 	// #2064
    3e6c:	72a80000 	movk	w0, #0x4000, lsl #16
    3e70:	6b0000df 	cmp	w6, w0
    3e74:	540000e1 	b.ne	3e90 <TEE_AEInit+0x64>
/home/lagadanu/Desktop/qemu/optee_os/lib/libutee/tee_api_operations.c:1294
    3e78:	51018060 	sub	w0, w3, #0x60
/home/lagadanu/Desktop/qemu/optee_os/lib/libutee/tee_api_operations.c:1295
    3e7c:	129ffeb4 	mov	w20, #0xffff000a            	// #-65526
/home/lagadanu/Desktop/qemu/optee_os/lib/libutee/tee_api_operations.c:1294
    3e80:	7100801f 	cmp	w0, #0x20
    3e84:	54000208 	b.hi	3ec4 <TEE_AEInit+0x98>
/home/lagadanu/Desktop/qemu/optee_os/lib/libutee/tee_api_operations.c:1294 (discriminator 1)
    3e88:	f240087f 	tst	x3, #0x7
    3e8c:	540001c1 	b.ne	3ec4 <TEE_AEInit+0x98>
/home/lagadanu/Desktop/qemu/optee_os/lib/libutee/tee_api_operations.c:1300
    3e90:	b9405a60 	ldr	w0, [x19,#88]
/home/lagadanu/Desktop/qemu/optee_os/lib/libutee/tee_api_operations.c:1301
    3e94:	53037c75 	lsr	w21, w3, #3
/home/lagadanu/Desktop/qemu/optee_os/lib/libutee/tee_api_operations.c:1300
    3e98:	2a0503e5 	mov	w5, w5
    3e9c:	2a0403e4 	mov	w4, w4
    3ea0:	924072a3 	and	x3, x21, #0x1fffffff
    3ea4:	2a0203e2 	mov	w2, w2
    3ea8:	9400041c 	bl	4f18 <utee_authenc_init>
    3eac:	2a0003f4 	mov	w20, w0
/home/lagadanu/Desktop/qemu/optee_os/lib/libutee/tee_api_operations.c:1302
    3eb0:	350000a0 	cbnz	w0, 3ec4 <TEE_AEInit+0x98>
/home/lagadanu/Desktop/qemu/optee_os/lib/libutee/tee_api_operations.c:1306
    3eb4:	b9401e60 	ldr	w0, [x19,#28]
/home/lagadanu/Desktop/qemu/optee_os/lib/libutee/tee_api_operations.c:1305
    3eb8:	b9005e75 	str	w21, [x19,#92]
/home/lagadanu/Desktop/qemu/optee_os/lib/libutee/tee_api_operations.c:1306
    3ebc:	320f0000 	orr	w0, w0, #0x20000
    3ec0:	b9001e60 	str	w0, [x19,#28]
/home/lagadanu/Desktop/qemu/optee_os/lib/libutee/tee_api_operations.c:1309
    3ec4:	7100029f 	cmp	w20, #0x0
    3ec8:	129ffea0 	mov	w0, #0xffff000a            	// #-65526
    3ecc:	7a401284 	ccmp	w20, w0, #0x4, ne
    3ed0:	54000060 	b.eq	3edc <TEE_AEInit+0xb0>
/home/lagadanu/Desktop/qemu/optee_os/lib/libutee/tee_api_operations.c:1311
    3ed4:	2a1403e0 	mov	w0, w20
    3ed8:	940002f4 	bl	4aa8 <TEE_Panic>
/home/lagadanu/Desktop/qemu/optee_os/lib/libutee/tee_api_operations.c:1314
    3edc:	2a1403e0 	mov	w0, w20
    3ee0:	f94013f5 	ldr	x21, [sp,#32]
    3ee4:	a94153f3 	ldp	x19, x20, [sp,#16]
    3ee8:	a8c37bfd 	ldp	x29, x30, [sp],#48
    3eec:	d65f03c0 	ret

0000000000003ef0 <TEE_AEUpdateAAD>:
TEE_AEUpdateAAD():
/home/lagadanu/Desktop/qemu/optee_os/lib/libutee/tee_api_operations.c:1318
    3ef0:	a9bd7bfd 	stp	x29, x30, [sp,#-48]!
    3ef4:	910003fd 	mov	x29, sp
    3ef8:	a90153f3 	stp	x19, x20, [sp,#16]
    3efc:	aa0003f3 	mov	x19, x0
    3f00:	f90013f5 	str	x21, [sp,#32]
    3f04:	aa0103f4 	mov	x20, x1
    3f08:	2a0203f5 	mov	w21, w2
/home/lagadanu/Desktop/qemu/optee_os/lib/libutee/tee_api_operations.c:1321
    3f0c:	b4000080 	cbz	x0, 3f1c <TEE_AEUpdateAAD+0x2c>
/home/lagadanu/Desktop/qemu/optee_os/lib/libutee/tee_api_operations.c:1322 (discriminator 1)
    3f10:	f100003f 	cmp	x1, #0x0
/home/lagadanu/Desktop/qemu/optee_os/lib/libutee/tee_api_operations.c:1321 (discriminator 1)
    3f14:	7a400844 	ccmp	w2, #0x0, #0x4, eq
    3f18:	54000060 	b.eq	3f24 <TEE_AEUpdateAAD+0x34>
/home/lagadanu/Desktop/qemu/optee_os/lib/libutee/tee_api_operations.c:1323
    3f1c:	52800000 	mov	w0, #0x0                   	// #0
    3f20:	940002e2 	bl	4aa8 <TEE_Panic>
/home/lagadanu/Desktop/qemu/optee_os/lib/libutee/tee_api_operations.c:1325
    3f24:	b9400660 	ldr	w0, [x19,#4]
    3f28:	7100101f 	cmp	w0, #0x4
    3f2c:	54000060 	b.eq	3f38 <TEE_AEUpdateAAD+0x48>
/home/lagadanu/Desktop/qemu/optee_os/lib/libutee/tee_api_operations.c:1326
    3f30:	52800000 	mov	w0, #0x0                   	// #0
    3f34:	940002dd 	bl	4aa8 <TEE_Panic>
/home/lagadanu/Desktop/qemu/optee_os/lib/libutee/tee_api_operations.c:1328
    3f38:	b9401e60 	ldr	w0, [x19,#28]
    3f3c:	37880060 	tbnz	w0, #17, 3f48 <TEE_AEUpdateAAD+0x58>
/home/lagadanu/Desktop/qemu/optee_os/lib/libutee/tee_api_operations.c:1329
    3f40:	52800000 	mov	w0, #0x0                   	// #0
    3f44:	940002d9 	bl	4aa8 <TEE_Panic>
/home/lagadanu/Desktop/qemu/optee_os/lib/libutee/tee_api_operations.c:1331
    3f48:	b9405a60 	ldr	w0, [x19,#88]
    3f4c:	aa1403e1 	mov	x1, x20
    3f50:	2a1503e2 	mov	w2, w21
    3f54:	940003f4 	bl	4f24 <utee_authenc_update_aad>
/home/lagadanu/Desktop/qemu/optee_os/lib/libutee/tee_api_operations.c:1333
    3f58:	52800021 	mov	w1, #0x1                   	// #1
    3f5c:	b9003261 	str	w1, [x19,#48]
/home/lagadanu/Desktop/qemu/optee_os/lib/libutee/tee_api_operations.c:1335
    3f60:	340000a0 	cbz	w0, 3f74 <TEE_AEUpdateAAD+0x84>
/home/lagadanu/Desktop/qemu/optee_os/lib/libutee/tee_api_operations.c:1337
    3f64:	a94153f3 	ldp	x19, x20, [sp,#16]
    3f68:	f94013f5 	ldr	x21, [sp,#32]
    3f6c:	a8c37bfd 	ldp	x29, x30, [sp],#48
/home/lagadanu/Desktop/qemu/optee_os/lib/libutee/tee_api_operations.c:1336
    3f70:	140002ce 	b	4aa8 <TEE_Panic>
/home/lagadanu/Desktop/qemu/optee_os/lib/libutee/tee_api_operations.c:1337
    3f74:	a94153f3 	ldp	x19, x20, [sp,#16]
    3f78:	f94013f5 	ldr	x21, [sp,#32]
    3f7c:	a8c37bfd 	ldp	x29, x30, [sp],#48
    3f80:	d65f03c0 	ret

0000000000003f84 <TEE_AEUpdate>:
TEE_AEUpdate():
/home/lagadanu/Desktop/qemu/optee_os/lib/libutee/tee_api_operations.c:1341
    3f84:	a9bc7bfd 	stp	x29, x30, [sp,#-64]!
    3f88:	910003fd 	mov	x29, sp
    3f8c:	a90153f3 	stp	x19, x20, [sp,#16]
/home/lagadanu/Desktop/qemu/optee_os/lib/libutee/tee_api_operations.c:1350
    3f90:	129fff33 	mov	w19, #0xffff0006            	// #-65530
/home/lagadanu/Desktop/qemu/optee_os/lib/libutee/tee_api_operations.c:1341
    3f94:	f90013f5 	str	x21, [sp,#32]
/home/lagadanu/Desktop/qemu/optee_os/lib/libutee/tee_api_operations.c:1346
    3f98:	b4000560 	cbz	x0, 4044 <TEE_AEUpdate+0xc0>
/home/lagadanu/Desktop/qemu/optee_os/lib/libutee/tee_api_operations.c:1347 (discriminator 1)
    3f9c:	f100003f 	cmp	x1, #0x0
    3fa0:	aa0403f5 	mov	x21, x4
    3fa4:	1a9f17e4 	cset	w4, eq
    3fa8:	7100005f 	cmp	w2, #0x0
    3fac:	aa0003f4 	mov	x20, x0
    3fb0:	1a9f07e0 	cset	w0, ne
    3fb4:	f10002bf 	cmp	x21, #0x0
    3fb8:	2a0203e5 	mov	w5, w2
    3fbc:	0a000082 	and	w2, w4, w0
    3fc0:	1a9f17e0 	cset	w0, eq
    3fc4:	2a020000 	orr	w0, w0, w2
    3fc8:	350003e0 	cbnz	w0, 4044 <TEE_AEUpdate+0xc0>
/home/lagadanu/Desktop/qemu/optee_os/lib/libutee/tee_api_operations.c:1348
    3fcc:	b5000063 	cbnz	x3, 3fd8 <TEE_AEUpdate+0x54>
/home/lagadanu/Desktop/qemu/optee_os/lib/libutee/tee_api_operations.c:1349
    3fd0:	b94002a0 	ldr	w0, [x21]
    3fd4:	35000380 	cbnz	w0, 4044 <TEE_AEUpdate+0xc0>
/home/lagadanu/Desktop/qemu/optee_os/lib/libutee/tee_api_operations.c:1354
    3fd8:	b9400680 	ldr	w0, [x20,#4]
/home/lagadanu/Desktop/qemu/optee_os/lib/libutee/tee_api_operations.c:1350
    3fdc:	129fff33 	mov	w19, #0xffff0006            	// #-65530
/home/lagadanu/Desktop/qemu/optee_os/lib/libutee/tee_api_operations.c:1354
    3fe0:	7100101f 	cmp	w0, #0x4
    3fe4:	54000301 	b.ne	4044 <TEE_AEUpdate+0xc0>
/home/lagadanu/Desktop/qemu/optee_os/lib/libutee/tee_api_operations.c:1359
    3fe8:	b9401e80 	ldr	w0, [x20,#28]
    3fec:	368802c0 	tbz	w0, #17, 4044 <TEE_AEUpdate+0xc0>
/home/lagadanu/Desktop/qemu/optee_os/lib/libutee/tee_api_operations.c:1364
    3ff0:	710000bf 	cmp	w5, #0x0
    3ff4:	1a9f17e0 	cset	w0, eq
    3ff8:	6a00009f 	tst	w4, w0
    3ffc:	54000080 	b.eq	400c <TEE_AEUpdate+0x88>
/home/lagadanu/Desktop/qemu/optee_os/lib/libutee/tee_api_operations.c:1365
    4000:	b90002bf 	str	wzr, [x21]
/home/lagadanu/Desktop/qemu/optee_os/lib/libutee/tee_api_operations.c:1407
    4004:	52800013 	mov	w19, #0x0                   	// #0
    4008:	1400000f 	b	4044 <TEE_AEUpdate+0xc0>
/home/lagadanu/Desktop/qemu/optee_os/lib/libutee/tee_api_operations.c:1375
    400c:	f9402684 	ldr	x4, [x20,#72]
    4010:	2a0503e2 	mov	w2, w5
/home/lagadanu/Desktop/qemu/optee_os/lib/libutee/tee_api_operations.c:1379
    4014:	aa0203e0 	mov	x0, x2
/home/lagadanu/Desktop/qemu/optee_os/lib/libutee/tee_api_operations.c:1375
    4018:	f100049f 	cmp	x4, #0x1
    401c:	540000a9 	b.ls	4030 <TEE_AEUpdate+0xac>
/home/lagadanu/Desktop/qemu/optee_os/lib/libutee/tee_api_operations.c:1376
    4020:	f9402a80 	ldr	x0, [x20,#80]
    4024:	cb0403e6 	neg	x6, x4
    4028:	8b000040 	add	x0, x2, x0
    402c:	8a060000 	and	x0, x0, x6
/home/lagadanu/Desktop/qemu/optee_os/lib/libutee/tee_api_operations.c:1382
    4030:	b94002a6 	ldr	w6, [x21]
    4034:	eb06001f 	cmp	x0, x6
    4038:	540001c9 	b.ls	4070 <TEE_AEUpdate+0xec>
/home/lagadanu/Desktop/qemu/optee_os/lib/libutee/tee_api_operations.c:1384
    403c:	129ffdf3 	mov	w19, #0xffff0010            	// #-65520
/home/lagadanu/Desktop/qemu/optee_os/lib/libutee/tee_api_operations.c:1383
    4040:	b90002a0 	str	w0, [x21]
/home/lagadanu/Desktop/qemu/optee_os/lib/libutee/tee_api_operations.c:1410
    4044:	7100027f 	cmp	w19, #0x0
    4048:	129ffde0 	mov	w0, #0xffff0010            	// #-65520
    404c:	7a401264 	ccmp	w19, w0, #0x4, ne
    4050:	54000060 	b.eq	405c <TEE_AEUpdate+0xd8>
/home/lagadanu/Desktop/qemu/optee_os/lib/libutee/tee_api_operations.c:1412
    4054:	2a1303e0 	mov	w0, w19
    4058:	94000294 	bl	4aa8 <TEE_Panic>
/home/lagadanu/Desktop/qemu/optee_os/lib/libutee/tee_api_operations.c:1415
    405c:	2a1303e0 	mov	w0, w19
    4060:	f94013f5 	ldr	x21, [sp,#32]
    4064:	a94153f3 	ldp	x19, x20, [sp,#16]
    4068:	a8c47bfd 	ldp	x29, x30, [sp],#64
    406c:	d65f03c0 	ret
/home/lagadanu/Desktop/qemu/optee_os/lib/libutee/tee_api_operations.c:1388
    4070:	f9001fa6 	str	x6, [x29,#56]
/home/lagadanu/Desktop/qemu/optee_os/lib/libutee/tee_api_operations.c:1389
    4074:	f100049f 	cmp	x4, #0x1
    4078:	54000209 	b.ls	40b8 <TEE_AEUpdate+0x134>
/home/lagadanu/Desktop/qemu/optee_os/lib/libutee/tee_api_operations.c:1390
    407c:	aa0303e4 	mov	x4, x3
    4080:	aa0203e3 	mov	x3, x2
    4084:	aa0103e2 	mov	x2, x1
    4088:	f0000021 	adrp	x1, b000 <PRIME_TABLE+0x7f0>
    408c:	9100e3a5 	add	x5, x29, #0x38
    4090:	aa1403e0 	mov	x0, x20
    4094:	f9474821 	ldr	x1, [x1,#3728]
    4098:	97fff973 	bl	2664 <tee_buffer_update>
/home/lagadanu/Desktop/qemu/optee_os/lib/libutee/tee_api_operations.c:1394
    409c:	2a0003f3 	mov	w19, w0
/home/lagadanu/Desktop/qemu/optee_os/lib/libutee/tee_api_operations.c:1402
    40a0:	35fffd20 	cbnz	w0, 4044 <TEE_AEUpdate+0xc0>
/home/lagadanu/Desktop/qemu/optee_os/lib/libutee/tee_api_operations.c:1405
    40a4:	f9401fa0 	ldr	x0, [x29,#56]
    40a8:	b90002a0 	str	w0, [x21]
/home/lagadanu/Desktop/qemu/optee_os/lib/libutee/tee_api_operations.c:1407
    40ac:	52800020 	mov	w0, #0x1                   	// #1
    40b0:	b9003280 	str	w0, [x20,#48]
    40b4:	17ffffd4 	b	4004 <TEE_AEUpdate+0x80>
/home/lagadanu/Desktop/qemu/optee_os/lib/libutee/tee_api_operations.c:1393
    40b8:	340000a5 	cbz	w5, 40cc <TEE_AEUpdate+0x148>
/home/lagadanu/Desktop/qemu/optee_os/lib/libutee/tee_api_operations.c:1394
    40bc:	b9405a80 	ldr	w0, [x20,#88]
    40c0:	9100e3a4 	add	x4, x29, #0x38
    40c4:	9400039b 	bl	4f30 <utee_authenc_update_payload>
    40c8:	17fffff5 	b	409c <TEE_AEUpdate+0x118>
/home/lagadanu/Desktop/qemu/optee_os/lib/libutee/tee_api_operations.c:1398
    40cc:	f9001fbf 	str	xzr, [x29,#56]
    40d0:	17fffff5 	b	40a4 <TEE_AEUpdate+0x120>

00000000000040d4 <TEE_AEEncryptFinal>:
TEE_AEEncryptFinal():
/home/lagadanu/Desktop/qemu/optee_os/lib/libutee/tee_api_operations.c:1421
    40d4:	a9ba7bfd 	stp	x29, x30, [sp,#-96]!
    40d8:	910003fd 	mov	x29, sp
    40dc:	a90153f3 	stp	x19, x20, [sp,#16]
/home/lagadanu/Desktop/qemu/optee_os/lib/libutee/tee_api_operations.c:1434
    40e0:	129fff33 	mov	w19, #0xffff0006            	// #-65530
/home/lagadanu/Desktop/qemu/optee_os/lib/libutee/tee_api_operations.c:1421
    40e4:	a9025bf5 	stp	x21, x22, [sp,#32]
    40e8:	a90363f7 	stp	x23, x24, [sp,#48]
    40ec:	a9046bf9 	stp	x25, x26, [sp,#64]
/home/lagadanu/Desktop/qemu/optee_os/lib/libutee/tee_api_operations.c:1429
    40f0:	b40004c0 	cbz	x0, 4188 <TEE_AEEncryptFinal+0xb4>
/home/lagadanu/Desktop/qemu/optee_os/lib/libutee/tee_api_operations.c:1430 (discriminator 1)
    40f4:	f100003f 	cmp	x1, #0x0
    40f8:	aa0403f5 	mov	x21, x4
    40fc:	7a400844 	ccmp	w2, #0x0, #0x4, eq
    4100:	fa400884 	ccmp	x4, #0x0, #0x4, eq
    4104:	54000420 	b.eq	4188 <TEE_AEEncryptFinal+0xb4>
    4108:	aa0003f4 	mov	x20, x0
    410c:	aa0303f9 	mov	x25, x3
    4110:	aa0503fa 	mov	x26, x5
    4114:	aa0603f8 	mov	x24, x6
/home/lagadanu/Desktop/qemu/optee_os/lib/libutee/tee_api_operations.c:1431
    4118:	b5000063 	cbnz	x3, 4124 <TEE_AEEncryptFinal+0x50>
/home/lagadanu/Desktop/qemu/optee_os/lib/libutee/tee_api_operations.c:1432
    411c:	b9400080 	ldr	w0, [x4]
    4120:	35000340 	cbnz	w0, 4188 <TEE_AEEncryptFinal+0xb4>
/home/lagadanu/Desktop/qemu/optee_os/lib/libutee/tee_api_operations.c:1433
    4124:	f100035f 	cmp	x26, #0x0
/home/lagadanu/Desktop/qemu/optee_os/lib/libutee/tee_api_operations.c:1434
    4128:	129fff33 	mov	w19, #0xffff0006            	// #-65530
/home/lagadanu/Desktop/qemu/optee_os/lib/libutee/tee_api_operations.c:1433
    412c:	fa401b04 	ccmp	x24, #0x0, #0x4, ne
    4130:	540002c0 	b.eq	4188 <TEE_AEEncryptFinal+0xb4>
/home/lagadanu/Desktop/qemu/optee_os/lib/libutee/tee_api_operations.c:1438
    4134:	b9400680 	ldr	w0, [x20,#4]
    4138:	7100101f 	cmp	w0, #0x4
    413c:	54000261 	b.ne	4188 <TEE_AEEncryptFinal+0xb4>
/home/lagadanu/Desktop/qemu/optee_os/lib/libutee/tee_api_operations.c:1443
    4140:	b9401e80 	ldr	w0, [x20,#28]
    4144:	36880220 	tbz	w0, #17, 4188 <TEE_AEEncryptFinal+0xb4>
/home/lagadanu/Desktop/qemu/optee_os/lib/libutee/tee_api_operations.c:1458
    4148:	f9402a80 	ldr	x0, [x20,#80]
    414c:	2a0203e2 	mov	w2, w2
/home/lagadanu/Desktop/qemu/optee_os/lib/libutee/tee_api_operations.c:1459
    4150:	b94002a3 	ldr	w3, [x21]
/home/lagadanu/Desktop/qemu/optee_os/lib/libutee/tee_api_operations.c:1456
    4154:	52bffff3 	mov	w19, #0xffff0000            	// #-65536
/home/lagadanu/Desktop/qemu/optee_os/lib/libutee/tee_api_operations.c:1458
    4158:	8b000040 	add	x0, x2, x0
/home/lagadanu/Desktop/qemu/optee_os/lib/libutee/tee_api_operations.c:1459
    415c:	eb03001f 	cmp	x0, x3
    4160:	54000069 	b.ls	416c <TEE_AEEncryptFinal+0x98>
/home/lagadanu/Desktop/qemu/optee_os/lib/libutee/tee_api_operations.c:1461
    4164:	129ffdf3 	mov	w19, #0xffff0010            	// #-65520
/home/lagadanu/Desktop/qemu/optee_os/lib/libutee/tee_api_operations.c:1460
    4168:	b90002a0 	str	w0, [x21]
/home/lagadanu/Desktop/qemu/optee_os/lib/libutee/tee_api_operations.c:1464
    416c:	b9405e84 	ldr	w4, [x20,#92]
    4170:	129ffde3 	mov	w3, #0xffff0010            	// #-65520
    4174:	b9400300 	ldr	w0, [x24]
    4178:	6b04001f 	cmp	w0, w4
    417c:	54000202 	b.cs	41bc <TEE_AEEncryptFinal+0xe8>
/home/lagadanu/Desktop/qemu/optee_os/lib/libutee/tee_api_operations.c:1465
    4180:	2a0303f3 	mov	w19, w3
    4184:	b9000304 	str	w4, [x24]
/home/lagadanu/Desktop/qemu/optee_os/lib/libutee/tee_api_operations.c:1505
    4188:	7100027f 	cmp	w19, #0x0
    418c:	129ffde0 	mov	w0, #0xffff0010            	// #-65520
    4190:	7a401264 	ccmp	w19, w0, #0x4, ne
    4194:	54000060 	b.eq	41a0 <TEE_AEEncryptFinal+0xcc>
/home/lagadanu/Desktop/qemu/optee_os/lib/libutee/tee_api_operations.c:1507
    4198:	2a1303e0 	mov	w0, w19
    419c:	94000243 	bl	4aa8 <TEE_Panic>
/home/lagadanu/Desktop/qemu/optee_os/lib/libutee/tee_api_operations.c:1510
    41a0:	2a1303e0 	mov	w0, w19
    41a4:	a94153f3 	ldp	x19, x20, [sp,#16]
    41a8:	a9425bf5 	ldp	x21, x22, [sp,#32]
    41ac:	a94363f7 	ldp	x23, x24, [sp,#48]
    41b0:	a9446bf9 	ldp	x25, x26, [sp,#64]
    41b4:	a8c67bfd 	ldp	x29, x30, [sp],#96
    41b8:	d65f03c0 	ret
/home/lagadanu/Desktop/qemu/optee_os/lib/libutee/tee_api_operations.c:1469
    41bc:	6b03027f 	cmp	w19, w3
    41c0:	54fffe40 	b.eq	4188 <TEE_AEEncryptFinal+0xb4>
/home/lagadanu/Desktop/qemu/optee_os/lib/libutee/tee_api_operations.c:1473
    41c4:	910183b7 	add	x23, x29, #0x60
/home/lagadanu/Desktop/qemu/optee_os/lib/libutee/tee_api_operations.c:1472
    41c8:	2a0003e0 	mov	w0, w0
    41cc:	f9002fa0 	str	x0, [x29,#88]
/home/lagadanu/Desktop/qemu/optee_os/lib/libutee/tee_api_operations.c:1473
    41d0:	b94002a0 	ldr	w0, [x21]
    41d4:	f81f0ee0 	str	x0, [x23,#-16]!
/home/lagadanu/Desktop/qemu/optee_os/lib/libutee/tee_api_operations.c:1474
    41d8:	f9402680 	ldr	x0, [x20,#72]
    41dc:	f100041f 	cmp	x0, #0x1
    41e0:	54000469 	b.ls	426c <TEE_AEEncryptFinal+0x198>
/home/lagadanu/Desktop/qemu/optee_os/lib/libutee/tee_api_operations.c:1475
    41e4:	aa0203e3 	mov	x3, x2
    41e8:	aa0103e2 	mov	x2, x1
    41ec:	f0000021 	adrp	x1, b000 <PRIME_TABLE+0x7f0>
    41f0:	aa1703e5 	mov	x5, x23
    41f4:	aa1903e4 	mov	x4, x25
    41f8:	aa1403e0 	mov	x0, x20
    41fc:	f9474821 	ldr	x1, [x1,#3728]
    4200:	97fff919 	bl	2664 <tee_buffer_update>
    4204:	2a0003f3 	mov	w19, w0
/home/lagadanu/Desktop/qemu/optee_os/lib/libutee/tee_api_operations.c:1477
    4208:	35fffc00 	cbnz	w0, 4188 <TEE_AEEncryptFinal+0xb4>
/home/lagadanu/Desktop/qemu/optee_os/lib/libutee/tee_api_operations.c:1480
    420c:	f9402bb6 	ldr	x22, [x29,#80]
/home/lagadanu/Desktop/qemu/optee_os/lib/libutee/tee_api_operations.c:1484
    4210:	910163a6 	add	x6, x29, #0x58
/home/lagadanu/Desktop/qemu/optee_os/lib/libutee/tee_api_operations.c:1483
    4214:	b94002a0 	ldr	w0, [x21]
/home/lagadanu/Desktop/qemu/optee_os/lib/libutee/tee_api_operations.c:1484
    4218:	aa1a03e5 	mov	x5, x26
    421c:	f9401e81 	ldr	x1, [x20,#56]
    4220:	aa1703e4 	mov	x4, x23
/home/lagadanu/Desktop/qemu/optee_os/lib/libutee/tee_api_operations.c:1483
    4224:	cb160000 	sub	x0, x0, x22
/home/lagadanu/Desktop/qemu/optee_os/lib/libutee/tee_api_operations.c:1484
    4228:	f9402a82 	ldr	x2, [x20,#80]
/home/lagadanu/Desktop/qemu/optee_os/lib/libutee/tee_api_operations.c:1483
    422c:	f9002ba0 	str	x0, [x29,#80]
/home/lagadanu/Desktop/qemu/optee_os/lib/libutee/tee_api_operations.c:1484
    4230:	8b160323 	add	x3, x25, x22
    4234:	b9405a80 	ldr	w0, [x20,#88]
    4238:	94000341 	bl	4f3c <utee_authenc_enc_final>
    423c:	2a0003f3 	mov	w19, w0
/home/lagadanu/Desktop/qemu/optee_os/lib/libutee/tee_api_operations.c:1493
    4240:	f9402fa0 	ldr	x0, [x29,#88]
    4244:	b9000300 	str	w0, [x24]
/home/lagadanu/Desktop/qemu/optee_os/lib/libutee/tee_api_operations.c:1494
    4248:	35fffa13 	cbnz	w19, 4188 <TEE_AEEncryptFinal+0xb4>
/home/lagadanu/Desktop/qemu/optee_os/lib/libutee/tee_api_operations.c:1497
    424c:	f9402ba0 	ldr	x0, [x29,#80]
    4250:	8b0002d6 	add	x22, x22, x0
/home/lagadanu/Desktop/qemu/optee_os/lib/libutee/tee_api_operations.c:1498
    4254:	b90002b6 	str	w22, [x21]
/home/lagadanu/Desktop/qemu/optee_os/lib/libutee/tee_api_operations.c:1502
    4258:	b900329f 	str	wzr, [x20,#48]
/home/lagadanu/Desktop/qemu/optee_os/lib/libutee/tee_api_operations.c:1500
    425c:	b9401e80 	ldr	w0, [x20,#28]
    4260:	120e7800 	and	w0, w0, #0xfffdffff
    4264:	b9001e80 	str	w0, [x20,#28]
    4268:	17ffffc8 	b	4188 <TEE_AEEncryptFinal+0xb4>
/home/lagadanu/Desktop/qemu/optee_os/lib/libutee/tee_api_operations.c:1489
    426c:	b9405a80 	ldr	w0, [x20,#88]
    4270:	910163a6 	add	x6, x29, #0x58
    4274:	aa1a03e5 	mov	x5, x26
    4278:	aa1703e4 	mov	x4, x23
    427c:	aa1903e3 	mov	x3, x25
/home/lagadanu/Desktop/qemu/optee_os/lib/libutee/tee_api_operations.c:1424
    4280:	d2800016 	mov	x22, #0x0                   	// #0
/home/lagadanu/Desktop/qemu/optee_os/lib/libutee/tee_api_operations.c:1489
    4284:	9400032e 	bl	4f3c <utee_authenc_enc_final>
    4288:	2a0003f3 	mov	w19, w0
    428c:	17ffffed 	b	4240 <TEE_AEEncryptFinal+0x16c>

0000000000004290 <TEE_AEDecryptFinal>:
TEE_AEDecryptFinal():
/home/lagadanu/Desktop/qemu/optee_os/lib/libutee/tee_api_operations.c:1516
    4290:	a9ba7bfd 	stp	x29, x30, [sp,#-96]!
    4294:	910003fd 	mov	x29, sp
    4298:	a90153f3 	stp	x19, x20, [sp,#16]
/home/lagadanu/Desktop/qemu/optee_os/lib/libutee/tee_api_operations.c:1528
    429c:	129fff33 	mov	w19, #0xffff0006            	// #-65530
/home/lagadanu/Desktop/qemu/optee_os/lib/libutee/tee_api_operations.c:1516
    42a0:	a9025bf5 	stp	x21, x22, [sp,#32]
    42a4:	a90363f7 	stp	x23, x24, [sp,#48]
    42a8:	a9046bf9 	stp	x25, x26, [sp,#64]
/home/lagadanu/Desktop/qemu/optee_os/lib/libutee/tee_api_operations.c:1523
    42ac:	b40003c0 	cbz	x0, 4324 <TEE_AEDecryptFinal+0x94>
/home/lagadanu/Desktop/qemu/optee_os/lib/libutee/tee_api_operations.c:1524 (discriminator 1)
    42b0:	f100003f 	cmp	x1, #0x0
    42b4:	aa0403f5 	mov	x21, x4
    42b8:	7a400844 	ccmp	w2, #0x0, #0x4, eq
    42bc:	fa400884 	ccmp	x4, #0x0, #0x4, eq
    42c0:	54000320 	b.eq	4324 <TEE_AEDecryptFinal+0x94>
    42c4:	aa0003f4 	mov	x20, x0
    42c8:	aa0303f9 	mov	x25, x3
    42cc:	aa0503fa 	mov	x26, x5
    42d0:	2a0603f8 	mov	w24, w6
/home/lagadanu/Desktop/qemu/optee_os/lib/libutee/tee_api_operations.c:1525
    42d4:	b5000063 	cbnz	x3, 42e0 <TEE_AEDecryptFinal+0x50>
/home/lagadanu/Desktop/qemu/optee_os/lib/libutee/tee_api_operations.c:1526
    42d8:	b9400080 	ldr	w0, [x4]
    42dc:	35000240 	cbnz	w0, 4324 <TEE_AEDecryptFinal+0x94>
/home/lagadanu/Desktop/qemu/optee_os/lib/libutee/tee_api_operations.c:1527 (discriminator 1)
    42e0:	f100035f 	cmp	x26, #0x0
/home/lagadanu/Desktop/qemu/optee_os/lib/libutee/tee_api_operations.c:1528 (discriminator 1)
    42e4:	129fff33 	mov	w19, #0xffff0006            	// #-65530
/home/lagadanu/Desktop/qemu/optee_os/lib/libutee/tee_api_operations.c:1526 (discriminator 1)
    42e8:	7a400b04 	ccmp	w24, #0x0, #0x4, eq
    42ec:	540001c1 	b.ne	4324 <TEE_AEDecryptFinal+0x94>
/home/lagadanu/Desktop/qemu/optee_os/lib/libutee/tee_api_operations.c:1532
    42f0:	b9400680 	ldr	w0, [x20,#4]
    42f4:	7100101f 	cmp	w0, #0x4
    42f8:	54000161 	b.ne	4324 <TEE_AEDecryptFinal+0x94>
/home/lagadanu/Desktop/qemu/optee_os/lib/libutee/tee_api_operations.c:1537
    42fc:	b9401e80 	ldr	w0, [x20,#28]
    4300:	36880120 	tbz	w0, #17, 4324 <TEE_AEDecryptFinal+0x94>
/home/lagadanu/Desktop/qemu/optee_os/lib/libutee/tee_api_operations.c:1547
    4304:	f9402a80 	ldr	x0, [x20,#80]
    4308:	2a0203e2 	mov	w2, w2
/home/lagadanu/Desktop/qemu/optee_os/lib/libutee/tee_api_operations.c:1548
    430c:	b94002a3 	ldr	w3, [x21]
/home/lagadanu/Desktop/qemu/optee_os/lib/libutee/tee_api_operations.c:1547
    4310:	8b000040 	add	x0, x2, x0
/home/lagadanu/Desktop/qemu/optee_os/lib/libutee/tee_api_operations.c:1548
    4314:	eb03001f 	cmp	x0, x3
    4318:	54000249 	b.ls	4360 <TEE_AEDecryptFinal+0xd0>
/home/lagadanu/Desktop/qemu/optee_os/lib/libutee/tee_api_operations.c:1550
    431c:	129ffdf3 	mov	w19, #0xffff0010            	// #-65520
/home/lagadanu/Desktop/qemu/optee_os/lib/libutee/tee_api_operations.c:1549
    4320:	b90002a0 	str	w0, [x21]
/home/lagadanu/Desktop/qemu/optee_os/lib/libutee/tee_api_operations.c:1590
    4324:	7100027f 	cmp	w19, #0x0
    4328:	129ffde0 	mov	w0, #0xffff0010            	// #-65520
    432c:	7a401264 	ccmp	w19, w0, #0x4, ne
    4330:	1299f1c0 	mov	w0, #0xffff3071            	// #-53135
    4334:	7a401264 	ccmp	w19, w0, #0x4, ne
    4338:	54000060 	b.eq	4344 <TEE_AEDecryptFinal+0xb4>
/home/lagadanu/Desktop/qemu/optee_os/lib/libutee/tee_api_operations.c:1592
    433c:	2a1303e0 	mov	w0, w19
    4340:	940001da 	bl	4aa8 <TEE_Panic>
/home/lagadanu/Desktop/qemu/optee_os/lib/libutee/tee_api_operations.c:1595
    4344:	2a1303e0 	mov	w0, w19
    4348:	a94153f3 	ldp	x19, x20, [sp,#16]
    434c:	a9425bf5 	ldp	x21, x22, [sp,#32]
    4350:	a94363f7 	ldp	x23, x24, [sp,#48]
    4354:	a9446bf9 	ldp	x25, x26, [sp,#64]
    4358:	a8c67bfd 	ldp	x29, x30, [sp],#96
    435c:	d65f03c0 	ret
/home/lagadanu/Desktop/qemu/optee_os/lib/libutee/tee_api_operations.c:1554
    4360:	910183b7 	add	x23, x29, #0x60
/home/lagadanu/Desktop/qemu/optee_os/lib/libutee/tee_api_operations.c:1555
    4364:	f9402680 	ldr	x0, [x20,#72]
    4368:	f100041f 	cmp	x0, #0x1
/home/lagadanu/Desktop/qemu/optee_os/lib/libutee/tee_api_operations.c:1554
    436c:	f81f8ee3 	str	x3, [x23,#-8]!
/home/lagadanu/Desktop/qemu/optee_os/lib/libutee/tee_api_operations.c:1555
    4370:	540004a9 	b.ls	4404 <TEE_AEDecryptFinal+0x174>
/home/lagadanu/Desktop/qemu/optee_os/lib/libutee/tee_api_operations.c:1556
    4374:	aa0203e3 	mov	x3, x2
    4378:	aa0103e2 	mov	x2, x1
    437c:	f0000021 	adrp	x1, b000 <PRIME_TABLE+0x7f0>
    4380:	aa1703e5 	mov	x5, x23
    4384:	aa1903e4 	mov	x4, x25
    4388:	aa1403e0 	mov	x0, x20
    438c:	f9474821 	ldr	x1, [x1,#3728]
    4390:	97fff8b5 	bl	2664 <tee_buffer_update>
    4394:	2a0003f3 	mov	w19, w0
/home/lagadanu/Desktop/qemu/optee_os/lib/libutee/tee_api_operations.c:1558
    4398:	35fffc60 	cbnz	w0, 4324 <TEE_AEDecryptFinal+0x94>
/home/lagadanu/Desktop/qemu/optee_os/lib/libutee/tee_api_operations.c:1561
    439c:	f9402fb6 	ldr	x22, [x29,#88]
/home/lagadanu/Desktop/qemu/optee_os/lib/libutee/tee_api_operations.c:1565
    43a0:	2a1803e6 	mov	w6, w24
/home/lagadanu/Desktop/qemu/optee_os/lib/libutee/tee_api_operations.c:1564
    43a4:	b94002a0 	ldr	w0, [x21]
/home/lagadanu/Desktop/qemu/optee_os/lib/libutee/tee_api_operations.c:1565
    43a8:	aa1a03e5 	mov	x5, x26
    43ac:	f9401e81 	ldr	x1, [x20,#56]
    43b0:	aa1703e4 	mov	x4, x23
/home/lagadanu/Desktop/qemu/optee_os/lib/libutee/tee_api_operations.c:1564
    43b4:	cb160000 	sub	x0, x0, x22
/home/lagadanu/Desktop/qemu/optee_os/lib/libutee/tee_api_operations.c:1565
    43b8:	f9402a82 	ldr	x2, [x20,#80]
/home/lagadanu/Desktop/qemu/optee_os/lib/libutee/tee_api_operations.c:1564
    43bc:	f9002fa0 	str	x0, [x29,#88]
/home/lagadanu/Desktop/qemu/optee_os/lib/libutee/tee_api_operations.c:1565
    43c0:	8b160323 	add	x3, x25, x22
    43c4:	b9405a80 	ldr	w0, [x20,#88]
    43c8:	940002e0 	bl	4f48 <utee_authenc_dec_final>
    43cc:	2a0003f3 	mov	w19, w0
/home/lagadanu/Desktop/qemu/optee_os/lib/libutee/tee_api_operations.c:1574
    43d0:	35fffab3 	cbnz	w19, 4324 <TEE_AEDecryptFinal+0x94>
/home/lagadanu/Desktop/qemu/optee_os/lib/libutee/tee_api_operations.c:1578
    43d4:	b9405e80 	ldr	w0, [x20,#92]
/home/lagadanu/Desktop/qemu/optee_os/lib/libutee/tee_api_operations.c:1579
    43d8:	1299f1d3 	mov	w19, #0xffff3071            	// #-53135
    43dc:	6b00031f 	cmp	w24, w0
/home/lagadanu/Desktop/qemu/optee_os/lib/libutee/tee_api_operations.c:1581
    43e0:	f9402fa0 	ldr	x0, [x29,#88]
/home/lagadanu/Desktop/qemu/optee_os/lib/libutee/tee_api_operations.c:1579
    43e4:	1a9303f3 	csel	w19, wzr, w19, eq
/home/lagadanu/Desktop/qemu/optee_os/lib/libutee/tee_api_operations.c:1581
    43e8:	8b0002d6 	add	x22, x22, x0
/home/lagadanu/Desktop/qemu/optee_os/lib/libutee/tee_api_operations.c:1582
    43ec:	b90002b6 	str	w22, [x21]
/home/lagadanu/Desktop/qemu/optee_os/lib/libutee/tee_api_operations.c:1586
    43f0:	b900329f 	str	wzr, [x20,#48]
/home/lagadanu/Desktop/qemu/optee_os/lib/libutee/tee_api_operations.c:1584
    43f4:	b9401e80 	ldr	w0, [x20,#28]
    43f8:	120e7800 	and	w0, w0, #0xfffdffff
    43fc:	b9001e80 	str	w0, [x20,#28]
    4400:	17ffffc9 	b	4324 <TEE_AEDecryptFinal+0x94>
/home/lagadanu/Desktop/qemu/optee_os/lib/libutee/tee_api_operations.c:1570
    4404:	b9405a80 	ldr	w0, [x20,#88]
    4408:	2a1803e6 	mov	w6, w24
    440c:	aa1a03e5 	mov	x5, x26
    4410:	aa1703e4 	mov	x4, x23
    4414:	aa1903e3 	mov	x3, x25
/home/lagadanu/Desktop/qemu/optee_os/lib/libutee/tee_api_operations.c:1519
    4418:	d2800016 	mov	x22, #0x0                   	// #0
/home/lagadanu/Desktop/qemu/optee_os/lib/libutee/tee_api_operations.c:1570
    441c:	940002cb 	bl	4f48 <utee_authenc_dec_final>
    4420:	2a0003f3 	mov	w19, w0
    4424:	17ffffeb 	b	43d0 <TEE_AEDecryptFinal+0x140>

0000000000004428 <TEE_AsymmetricEncrypt>:
TEE_AsymmetricEncrypt():
/home/lagadanu/Desktop/qemu/optee_os/lib/libutee/tee_api_operations.c:1604
    4428:	a9b97bfd 	stp	x29, x30, [sp,#-112]!
    442c:	910003fd 	mov	x29, sp
    4430:	a9046bf9 	stp	x25, x26, [sp,#64]
    4434:	2a0203fa 	mov	w26, w2
    4438:	a90153f3 	stp	x19, x20, [sp,#16]
    443c:	aa0003f3 	mov	x19, x0
/home/lagadanu/Desktop/qemu/optee_os/lib/libutee/tee_api_operations.c:1606
    4440:	52800300 	mov	w0, #0x18                  	// #24
/home/lagadanu/Desktop/qemu/optee_os/lib/libutee/tee_api_operations.c:1604
    4444:	a9025bf5 	stp	x21, x22, [sp,#32]
    4448:	a90363f7 	stp	x23, x24, [sp,#48]
    444c:	aa0103f9 	mov	x25, x1
/home/lagadanu/Desktop/qemu/optee_os/lib/libutee/tee_api_operations.c:1606
    4450:	9ba07f40 	umull	x0, w26, w0
/home/lagadanu/Desktop/qemu/optee_os/lib/libutee/tee_api_operations.c:1604
    4454:	f9002bfb 	str	x27, [sp,#80]
    4458:	aa1a03f5 	mov	x21, x26
    445c:	aa0303f6 	mov	x22, x3
/home/lagadanu/Desktop/qemu/optee_os/lib/libutee/tee_api_operations.c:1606
    4460:	91005800 	add	x0, x0, #0x16
/home/lagadanu/Desktop/qemu/optee_os/lib/libutee/tee_api_operations.c:1604
    4464:	2a0403f7 	mov	w23, w4
/home/lagadanu/Desktop/qemu/optee_os/lib/libutee/tee_api_operations.c:1606
    4468:	927c8400 	and	x0, x0, #0x3ffffffff0
/home/lagadanu/Desktop/qemu/optee_os/lib/libutee/tee_api_operations.c:1604
    446c:	aa0503f8 	mov	x24, x5
/home/lagadanu/Desktop/qemu/optee_os/lib/libutee/tee_api_operations.c:1606
    4470:	cb2063ff 	sub	sp, sp, x0
/home/lagadanu/Desktop/qemu/optee_os/lib/libutee/tee_api_operations.c:1604
    4474:	aa0603f4 	mov	x20, x6
/home/lagadanu/Desktop/qemu/optee_os/lib/libutee/tee_api_operations.c:1606
    4478:	910003fb 	mov	x27, sp
/home/lagadanu/Desktop/qemu/optee_os/lib/libutee/tee_api_operations.c:1609
    447c:	b4000113 	cbz	x19, 449c <TEE_AsymmetricEncrypt+0x74>
/home/lagadanu/Desktop/qemu/optee_os/lib/libutee/tee_api_operations.c:1609 (discriminator 1)
    4480:	f100007f 	cmp	x3, #0x0
    4484:	7a400884 	ccmp	w4, #0x0, #0x4, eq
    4488:	fa4008c4 	ccmp	x6, #0x0, #0x4, eq
    448c:	54000080 	b.eq	449c <TEE_AsymmetricEncrypt+0x74>
/home/lagadanu/Desktop/qemu/optee_os/lib/libutee/tee_api_operations.c:1610
    4490:	b50000a5 	cbnz	x5, 44a4 <TEE_AsymmetricEncrypt+0x7c>
/home/lagadanu/Desktop/qemu/optee_os/lib/libutee/tee_api_operations.c:1610 (discriminator 1)
    4494:	b94000c0 	ldr	w0, [x6]
    4498:	34000060 	cbz	w0, 44a4 <TEE_AsymmetricEncrypt+0x7c>
/home/lagadanu/Desktop/qemu/optee_os/lib/libutee/tee_api_operations.c:1611
    449c:	52800000 	mov	w0, #0x0                   	// #0
    44a0:	94000182 	bl	4aa8 <TEE_Panic>
/home/lagadanu/Desktop/qemu/optee_os/lib/libutee/tee_api_operations.c:1612
    44a4:	f100033f 	cmp	x25, #0x0
    44a8:	7a400aa4 	ccmp	w21, #0x0, #0x4, eq
    44ac:	54000060 	b.eq	44b8 <TEE_AsymmetricEncrypt+0x90>
/home/lagadanu/Desktop/qemu/optee_os/lib/libutee/tee_api_operations.c:1613
    44b0:	52800000 	mov	w0, #0x0                   	// #0
    44b4:	9400017d 	bl	4aa8 <TEE_Panic>
/home/lagadanu/Desktop/qemu/optee_os/lib/libutee/tee_api_operations.c:1614
    44b8:	f9401260 	ldr	x0, [x19,#32]
    44bc:	b5000040 	cbnz	x0, 44c4 <TEE_AsymmetricEncrypt+0x9c>
/home/lagadanu/Desktop/qemu/optee_os/lib/libutee/tee_api_operations.c:1615
    44c0:	9400017a 	bl	4aa8 <TEE_Panic>
/home/lagadanu/Desktop/qemu/optee_os/lib/libutee/tee_api_operations.c:1616
    44c4:	b9400660 	ldr	w0, [x19,#4]
    44c8:	7100181f 	cmp	w0, #0x6
    44cc:	54000060 	b.eq	44d8 <TEE_AsymmetricEncrypt+0xb0>
/home/lagadanu/Desktop/qemu/optee_os/lib/libutee/tee_api_operations.c:1617
    44d0:	52800000 	mov	w0, #0x0                   	// #0
    44d4:	94000175 	bl	4aa8 <TEE_Panic>
/home/lagadanu/Desktop/qemu/optee_os/lib/libutee/tee_api_operations.c:1618
    44d8:	b9400a60 	ldr	w0, [x19,#8]
    44dc:	34000060 	cbz	w0, 44e8 <TEE_AsymmetricEncrypt+0xc0>
/home/lagadanu/Desktop/qemu/optee_os/lib/libutee/tee_api_operations.c:1619
    44e0:	52800000 	mov	w0, #0x0                   	// #0
    44e4:	94000171 	bl	4aa8 <TEE_Panic>
/home/lagadanu/Desktop/qemu/optee_os/lib/libutee/tee_api_operations.c:1621
    44e8:	2a1503e2 	mov	w2, w21
    44ec:	aa1903e1 	mov	x1, x25
    44f0:	aa1b03e0 	mov	x0, x27
    44f4:	97fff52f 	bl	19b0 <__utee_from_attr>
/home/lagadanu/Desktop/qemu/optee_os/lib/libutee/tee_api_operations.c:1622
    44f8:	9101c3a6 	add	x6, x29, #0x70
    44fc:	b9400280 	ldr	w0, [x20]
/home/lagadanu/Desktop/qemu/optee_os/lib/libutee/tee_api_operations.c:1623
    4500:	aa1b03e1 	mov	x1, x27
    4504:	aa1803e5 	mov	x5, x24
    4508:	2a1703e4 	mov	w4, w23
    450c:	aa1603e3 	mov	x3, x22
/home/lagadanu/Desktop/qemu/optee_os/lib/libutee/tee_api_operations.c:1622
    4510:	f81f8cc0 	str	x0, [x6,#-8]!
/home/lagadanu/Desktop/qemu/optee_os/lib/libutee/tee_api_operations.c:1623
    4514:	aa1a03e2 	mov	x2, x26
    4518:	b9405a60 	ldr	w0, [x19,#88]
    451c:	9400028e 	bl	4f54 <utee_asymm_operate>
/home/lagadanu/Desktop/qemu/optee_os/lib/libutee/tee_api_operations.c:1628
    4520:	7100001f 	cmp	w0, #0x0
/home/lagadanu/Desktop/qemu/optee_os/lib/libutee/tee_api_operations.c:1625
    4524:	f94037a1 	ldr	x1, [x29,#104]
/home/lagadanu/Desktop/qemu/optee_os/lib/libutee/tee_api_operations.c:1623
    4528:	2a0003f3 	mov	w19, w0
/home/lagadanu/Desktop/qemu/optee_os/lib/libutee/tee_api_operations.c:1625
    452c:	b9000281 	str	w1, [x20]
/home/lagadanu/Desktop/qemu/optee_os/lib/libutee/tee_api_operations.c:1628
    4530:	129ffde1 	mov	w1, #0xffff0010            	// #-65520
    4534:	7a411004 	ccmp	w0, w1, #0x4, ne
    4538:	129fff21 	mov	w1, #0xffff0006            	// #-65530
    453c:	7a411004 	ccmp	w0, w1, #0x4, ne
    4540:	54000040 	b.eq	4548 <TEE_AsymmetricEncrypt+0x120>
/home/lagadanu/Desktop/qemu/optee_os/lib/libutee/tee_api_operations.c:1630
    4544:	94000159 	bl	4aa8 <TEE_Panic>
/home/lagadanu/Desktop/qemu/optee_os/lib/libutee/tee_api_operations.c:1633
    4548:	910003bf 	mov	sp, x29
    454c:	2a1303e0 	mov	w0, w19
    4550:	f9402bfb 	ldr	x27, [sp,#80]
    4554:	a94153f3 	ldp	x19, x20, [sp,#16]
    4558:	a9425bf5 	ldp	x21, x22, [sp,#32]
    455c:	a94363f7 	ldp	x23, x24, [sp,#48]
    4560:	a9446bf9 	ldp	x25, x26, [sp,#64]
    4564:	a8c77bfd 	ldp	x29, x30, [sp],#112
    4568:	d65f03c0 	ret

000000000000456c <TEE_AsymmetricDecrypt>:
TEE_AsymmetricDecrypt():
/home/lagadanu/Desktop/qemu/optee_os/lib/libutee/tee_api_operations.c:1640
    456c:	a9b97bfd 	stp	x29, x30, [sp,#-112]!
    4570:	910003fd 	mov	x29, sp
    4574:	a9046bf9 	stp	x25, x26, [sp,#64]
    4578:	2a0203fa 	mov	w26, w2
    457c:	a90153f3 	stp	x19, x20, [sp,#16]
    4580:	aa0003f3 	mov	x19, x0
/home/lagadanu/Desktop/qemu/optee_os/lib/libutee/tee_api_operations.c:1642
    4584:	52800300 	mov	w0, #0x18                  	// #24
/home/lagadanu/Desktop/qemu/optee_os/lib/libutee/tee_api_operations.c:1640
    4588:	a9025bf5 	stp	x21, x22, [sp,#32]
    458c:	a90363f7 	stp	x23, x24, [sp,#48]
    4590:	aa0103f9 	mov	x25, x1
/home/lagadanu/Desktop/qemu/optee_os/lib/libutee/tee_api_operations.c:1642
    4594:	9ba07f40 	umull	x0, w26, w0
/home/lagadanu/Desktop/qemu/optee_os/lib/libutee/tee_api_operations.c:1640
    4598:	f9002bfb 	str	x27, [sp,#80]
    459c:	aa1a03f5 	mov	x21, x26
    45a0:	aa0303f6 	mov	x22, x3
/home/lagadanu/Desktop/qemu/optee_os/lib/libutee/tee_api_operations.c:1642
    45a4:	91005800 	add	x0, x0, #0x16
/home/lagadanu/Desktop/qemu/optee_os/lib/libutee/tee_api_operations.c:1640
    45a8:	2a0403f7 	mov	w23, w4
/home/lagadanu/Desktop/qemu/optee_os/lib/libutee/tee_api_operations.c:1642
    45ac:	927c8400 	and	x0, x0, #0x3ffffffff0
/home/lagadanu/Desktop/qemu/optee_os/lib/libutee/tee_api_operations.c:1640
    45b0:	aa0503f8 	mov	x24, x5
/home/lagadanu/Desktop/qemu/optee_os/lib/libutee/tee_api_operations.c:1642
    45b4:	cb2063ff 	sub	sp, sp, x0
/home/lagadanu/Desktop/qemu/optee_os/lib/libutee/tee_api_operations.c:1640
    45b8:	aa0603f4 	mov	x20, x6
/home/lagadanu/Desktop/qemu/optee_os/lib/libutee/tee_api_operations.c:1642
    45bc:	910003fb 	mov	x27, sp
/home/lagadanu/Desktop/qemu/optee_os/lib/libutee/tee_api_operations.c:1645
    45c0:	b4000113 	cbz	x19, 45e0 <TEE_AsymmetricDecrypt+0x74>
/home/lagadanu/Desktop/qemu/optee_os/lib/libutee/tee_api_operations.c:1645 (discriminator 1)
    45c4:	f100007f 	cmp	x3, #0x0
    45c8:	7a400884 	ccmp	w4, #0x0, #0x4, eq
    45cc:	fa4008c4 	ccmp	x6, #0x0, #0x4, eq
    45d0:	54000080 	b.eq	45e0 <TEE_AsymmetricDecrypt+0x74>
/home/lagadanu/Desktop/qemu/optee_os/lib/libutee/tee_api_operations.c:1646
    45d4:	b50000a5 	cbnz	x5, 45e8 <TEE_AsymmetricDecrypt+0x7c>
/home/lagadanu/Desktop/qemu/optee_os/lib/libutee/tee_api_operations.c:1646 (discriminator 1)
    45d8:	b94000c0 	ldr	w0, [x6]
    45dc:	34000060 	cbz	w0, 45e8 <TEE_AsymmetricDecrypt+0x7c>
/home/lagadanu/Desktop/qemu/optee_os/lib/libutee/tee_api_operations.c:1647
    45e0:	52800000 	mov	w0, #0x0                   	// #0
    45e4:	94000131 	bl	4aa8 <TEE_Panic>
/home/lagadanu/Desktop/qemu/optee_os/lib/libutee/tee_api_operations.c:1648
    45e8:	f100033f 	cmp	x25, #0x0
    45ec:	7a400aa4 	ccmp	w21, #0x0, #0x4, eq
    45f0:	54000060 	b.eq	45fc <TEE_AsymmetricDecrypt+0x90>
/home/lagadanu/Desktop/qemu/optee_os/lib/libutee/tee_api_operations.c:1649
    45f4:	52800000 	mov	w0, #0x0                   	// #0
    45f8:	9400012c 	bl	4aa8 <TEE_Panic>
/home/lagadanu/Desktop/qemu/optee_os/lib/libutee/tee_api_operations.c:1650
    45fc:	f9401260 	ldr	x0, [x19,#32]
    4600:	b5000040 	cbnz	x0, 4608 <TEE_AsymmetricDecrypt+0x9c>
/home/lagadanu/Desktop/qemu/optee_os/lib/libutee/tee_api_operations.c:1651
    4604:	94000129 	bl	4aa8 <TEE_Panic>
/home/lagadanu/Desktop/qemu/optee_os/lib/libutee/tee_api_operations.c:1652
    4608:	b9400660 	ldr	w0, [x19,#4]
    460c:	7100181f 	cmp	w0, #0x6
    4610:	54000060 	b.eq	461c <TEE_AsymmetricDecrypt+0xb0>
/home/lagadanu/Desktop/qemu/optee_os/lib/libutee/tee_api_operations.c:1653
    4614:	52800000 	mov	w0, #0x0                   	// #0
    4618:	94000124 	bl	4aa8 <TEE_Panic>
/home/lagadanu/Desktop/qemu/optee_os/lib/libutee/tee_api_operations.c:1654
    461c:	b9400a60 	ldr	w0, [x19,#8]
    4620:	7100041f 	cmp	w0, #0x1
    4624:	54000060 	b.eq	4630 <TEE_AsymmetricDecrypt+0xc4>
/home/lagadanu/Desktop/qemu/optee_os/lib/libutee/tee_api_operations.c:1655
    4628:	52800000 	mov	w0, #0x0                   	// #0
    462c:	9400011f 	bl	4aa8 <TEE_Panic>
/home/lagadanu/Desktop/qemu/optee_os/lib/libutee/tee_api_operations.c:1657
    4630:	2a1503e2 	mov	w2, w21
    4634:	aa1903e1 	mov	x1, x25
    4638:	aa1b03e0 	mov	x0, x27
    463c:	97fff4dd 	bl	19b0 <__utee_from_attr>
/home/lagadanu/Desktop/qemu/optee_os/lib/libutee/tee_api_operations.c:1658
    4640:	9101c3a6 	add	x6, x29, #0x70
    4644:	b9400280 	ldr	w0, [x20]
/home/lagadanu/Desktop/qemu/optee_os/lib/libutee/tee_api_operations.c:1659
    4648:	aa1b03e1 	mov	x1, x27
    464c:	aa1803e5 	mov	x5, x24
    4650:	2a1703e4 	mov	w4, w23
    4654:	aa1603e3 	mov	x3, x22
/home/lagadanu/Desktop/qemu/optee_os/lib/libutee/tee_api_operations.c:1658
    4658:	f81f8cc0 	str	x0, [x6,#-8]!
/home/lagadanu/Desktop/qemu/optee_os/lib/libutee/tee_api_operations.c:1659
    465c:	aa1a03e2 	mov	x2, x26
    4660:	b9405a60 	ldr	w0, [x19,#88]
    4664:	9400023c 	bl	4f54 <utee_asymm_operate>
/home/lagadanu/Desktop/qemu/optee_os/lib/libutee/tee_api_operations.c:1664
    4668:	7100001f 	cmp	w0, #0x0
/home/lagadanu/Desktop/qemu/optee_os/lib/libutee/tee_api_operations.c:1661
    466c:	f94037a1 	ldr	x1, [x29,#104]
/home/lagadanu/Desktop/qemu/optee_os/lib/libutee/tee_api_operations.c:1659
    4670:	2a0003f3 	mov	w19, w0
/home/lagadanu/Desktop/qemu/optee_os/lib/libutee/tee_api_operations.c:1661
    4674:	b9000281 	str	w1, [x20]
/home/lagadanu/Desktop/qemu/optee_os/lib/libutee/tee_api_operations.c:1664
    4678:	129ffde1 	mov	w1, #0xffff0010            	// #-65520
    467c:	7a411004 	ccmp	w0, w1, #0x4, ne
    4680:	129fff21 	mov	w1, #0xffff0006            	// #-65530
    4684:	7a411004 	ccmp	w0, w1, #0x4, ne
    4688:	54000040 	b.eq	4690 <TEE_AsymmetricDecrypt+0x124>
/home/lagadanu/Desktop/qemu/optee_os/lib/libutee/tee_api_operations.c:1666
    468c:	94000107 	bl	4aa8 <TEE_Panic>
/home/lagadanu/Desktop/qemu/optee_os/lib/libutee/tee_api_operations.c:1669
    4690:	910003bf 	mov	sp, x29
    4694:	2a1303e0 	mov	w0, w19
    4698:	f9402bfb 	ldr	x27, [sp,#80]
    469c:	a94153f3 	ldp	x19, x20, [sp,#16]
    46a0:	a9425bf5 	ldp	x21, x22, [sp,#32]
    46a4:	a94363f7 	ldp	x23, x24, [sp,#48]
    46a8:	a9446bf9 	ldp	x25, x26, [sp,#64]
    46ac:	a8c77bfd 	ldp	x29, x30, [sp],#112
    46b0:	d65f03c0 	ret

00000000000046b4 <TEE_AsymmetricSignDigest>:
TEE_AsymmetricSignDigest():
/home/lagadanu/Desktop/qemu/optee_os/lib/libutee/tee_api_operations.c:1676
    46b4:	a9b97bfd 	stp	x29, x30, [sp,#-112]!
    46b8:	910003fd 	mov	x29, sp
    46bc:	a9046bf9 	stp	x25, x26, [sp,#64]
    46c0:	2a0203fa 	mov	w26, w2
    46c4:	a90153f3 	stp	x19, x20, [sp,#16]
    46c8:	aa0003f3 	mov	x19, x0
/home/lagadanu/Desktop/qemu/optee_os/lib/libutee/tee_api_operations.c:1678
    46cc:	52800300 	mov	w0, #0x18                  	// #24
/home/lagadanu/Desktop/qemu/optee_os/lib/libutee/tee_api_operations.c:1676
    46d0:	a9025bf5 	stp	x21, x22, [sp,#32]
    46d4:	a90363f7 	stp	x23, x24, [sp,#48]
    46d8:	aa0103f9 	mov	x25, x1
/home/lagadanu/Desktop/qemu/optee_os/lib/libutee/tee_api_operations.c:1678
    46dc:	9ba07f40 	umull	x0, w26, w0
/home/lagadanu/Desktop/qemu/optee_os/lib/libutee/tee_api_operations.c:1676
    46e0:	f9002bfb 	str	x27, [sp,#80]
    46e4:	aa1a03f4 	mov	x20, x26
    46e8:	aa0303f6 	mov	x22, x3
/home/lagadanu/Desktop/qemu/optee_os/lib/libutee/tee_api_operations.c:1678
    46ec:	91005800 	add	x0, x0, #0x16
/home/lagadanu/Desktop/qemu/optee_os/lib/libutee/tee_api_operations.c:1676
    46f0:	2a0403f7 	mov	w23, w4
/home/lagadanu/Desktop/qemu/optee_os/lib/libutee/tee_api_operations.c:1678
    46f4:	927c8400 	and	x0, x0, #0x3ffffffff0
/home/lagadanu/Desktop/qemu/optee_os/lib/libutee/tee_api_operations.c:1676
    46f8:	aa0503f8 	mov	x24, x5
/home/lagadanu/Desktop/qemu/optee_os/lib/libutee/tee_api_operations.c:1678
    46fc:	cb2063ff 	sub	sp, sp, x0
/home/lagadanu/Desktop/qemu/optee_os/lib/libutee/tee_api_operations.c:1676
    4700:	aa0603f5 	mov	x21, x6
/home/lagadanu/Desktop/qemu/optee_os/lib/libutee/tee_api_operations.c:1678
    4704:	910003fb 	mov	x27, sp
/home/lagadanu/Desktop/qemu/optee_os/lib/libutee/tee_api_operations.c:1681
    4708:	b40000f3 	cbz	x19, 4724 <TEE_AsymmetricSignDigest+0x70>
/home/lagadanu/Desktop/qemu/optee_os/lib/libutee/tee_api_operations.c:1682 (discriminator 1)
    470c:	f100007f 	cmp	x3, #0x0
/home/lagadanu/Desktop/qemu/optee_os/lib/libutee/tee_api_operations.c:1681 (discriminator 1)
    4710:	7a400884 	ccmp	w4, #0x0, #0x4, eq
    4714:	54000081 	b.ne	4724 <TEE_AsymmetricSignDigest+0x70>
/home/lagadanu/Desktop/qemu/optee_os/lib/libutee/tee_api_operations.c:1683
    4718:	f10000bf 	cmp	x5, #0x0
    471c:	fa4018c4 	ccmp	x6, #0x0, #0x4, ne
    4720:	54000061 	b.ne	472c <TEE_AsymmetricSignDigest+0x78>
/home/lagadanu/Desktop/qemu/optee_os/lib/libutee/tee_api_operations.c:1684
    4724:	52800000 	mov	w0, #0x0                   	// #0
    4728:	940000e0 	bl	4aa8 <TEE_Panic>
/home/lagadanu/Desktop/qemu/optee_os/lib/libutee/tee_api_operations.c:1685
    472c:	f100033f 	cmp	x25, #0x0
    4730:	7a400a84 	ccmp	w20, #0x0, #0x4, eq
    4734:	54000060 	b.eq	4740 <TEE_AsymmetricSignDigest+0x8c>
/home/lagadanu/Desktop/qemu/optee_os/lib/libutee/tee_api_operations.c:1686
    4738:	52800000 	mov	w0, #0x0                   	// #0
    473c:	940000db 	bl	4aa8 <TEE_Panic>
/home/lagadanu/Desktop/qemu/optee_os/lib/libutee/tee_api_operations.c:1687
    4740:	f9401260 	ldr	x0, [x19,#32]
    4744:	b5000040 	cbnz	x0, 474c <TEE_AsymmetricSignDigest+0x98>
/home/lagadanu/Desktop/qemu/optee_os/lib/libutee/tee_api_operations.c:1688
    4748:	940000d8 	bl	4aa8 <TEE_Panic>
/home/lagadanu/Desktop/qemu/optee_os/lib/libutee/tee_api_operations.c:1689
    474c:	b9400660 	ldr	w0, [x19,#4]
    4750:	71001c1f 	cmp	w0, #0x7
    4754:	54000060 	b.eq	4760 <TEE_AsymmetricSignDigest+0xac>
/home/lagadanu/Desktop/qemu/optee_os/lib/libutee/tee_api_operations.c:1691
    4758:	52800000 	mov	w0, #0x0                   	// #0
    475c:	940000d3 	bl	4aa8 <TEE_Panic>
/home/lagadanu/Desktop/qemu/optee_os/lib/libutee/tee_api_operations.c:1692
    4760:	b9400a60 	ldr	w0, [x19,#8]
    4764:	7100081f 	cmp	w0, #0x2
    4768:	54000060 	b.eq	4774 <TEE_AsymmetricSignDigest+0xc0>
/home/lagadanu/Desktop/qemu/optee_os/lib/libutee/tee_api_operations.c:1693
    476c:	52800000 	mov	w0, #0x0                   	// #0
    4770:	940000ce 	bl	4aa8 <TEE_Panic>
/home/lagadanu/Desktop/qemu/optee_os/lib/libutee/tee_api_operations.c:1695
    4774:	2a1403e2 	mov	w2, w20
    4778:	aa1903e1 	mov	x1, x25
    477c:	aa1b03e0 	mov	x0, x27
    4780:	97fff48c 	bl	19b0 <__utee_from_attr>
/home/lagadanu/Desktop/qemu/optee_os/lib/libutee/tee_api_operations.c:1696
    4784:	9101c3a6 	add	x6, x29, #0x70
    4788:	b94002a0 	ldr	w0, [x21]
/home/lagadanu/Desktop/qemu/optee_os/lib/libutee/tee_api_operations.c:1697
    478c:	aa1b03e1 	mov	x1, x27
    4790:	aa1803e5 	mov	x5, x24
    4794:	2a1703e4 	mov	w4, w23
    4798:	aa1603e3 	mov	x3, x22
/home/lagadanu/Desktop/qemu/optee_os/lib/libutee/tee_api_operations.c:1696
    479c:	f81f8cc0 	str	x0, [x6,#-8]!
/home/lagadanu/Desktop/qemu/optee_os/lib/libutee/tee_api_operations.c:1697
    47a0:	aa1a03e2 	mov	x2, x26
    47a4:	b9405a60 	ldr	w0, [x19,#88]
    47a8:	940001eb 	bl	4f54 <utee_asymm_operate>
/home/lagadanu/Desktop/qemu/optee_os/lib/libutee/tee_api_operations.c:1701
    47ac:	7100001f 	cmp	w0, #0x0
/home/lagadanu/Desktop/qemu/optee_os/lib/libutee/tee_api_operations.c:1699
    47b0:	f94037a1 	ldr	x1, [x29,#104]
/home/lagadanu/Desktop/qemu/optee_os/lib/libutee/tee_api_operations.c:1697
    47b4:	2a0003f3 	mov	w19, w0
/home/lagadanu/Desktop/qemu/optee_os/lib/libutee/tee_api_operations.c:1699
    47b8:	b90002a1 	str	w1, [x21]
/home/lagadanu/Desktop/qemu/optee_os/lib/libutee/tee_api_operations.c:1701
    47bc:	129ffde1 	mov	w1, #0xffff0010            	// #-65520
    47c0:	7a411004 	ccmp	w0, w1, #0x4, ne
    47c4:	54000040 	b.eq	47cc <TEE_AsymmetricSignDigest+0x118>
/home/lagadanu/Desktop/qemu/optee_os/lib/libutee/tee_api_operations.c:1702
    47c8:	940000b8 	bl	4aa8 <TEE_Panic>
/home/lagadanu/Desktop/qemu/optee_os/lib/libutee/tee_api_operations.c:1705
    47cc:	910003bf 	mov	sp, x29
    47d0:	2a1303e0 	mov	w0, w19
    47d4:	f9402bfb 	ldr	x27, [sp,#80]
    47d8:	a94153f3 	ldp	x19, x20, [sp,#16]
    47dc:	a9425bf5 	ldp	x21, x22, [sp,#32]
    47e0:	a94363f7 	ldp	x23, x24, [sp,#48]
    47e4:	a9446bf9 	ldp	x25, x26, [sp,#64]
    47e8:	a8c77bfd 	ldp	x29, x30, [sp],#112
    47ec:	d65f03c0 	ret

00000000000047f0 <TEE_AsymmetricVerifyDigest>:
TEE_AsymmetricVerifyDigest():
/home/lagadanu/Desktop/qemu/optee_os/lib/libutee/tee_api_operations.c:1713
    47f0:	a9ba7bfd 	stp	x29, x30, [sp,#-96]!
    47f4:	910003fd 	mov	x29, sp
    47f8:	a9046bf9 	stp	x25, x26, [sp,#64]
    47fc:	2a0203fa 	mov	w26, w2
    4800:	a90153f3 	stp	x19, x20, [sp,#16]
    4804:	aa0003f3 	mov	x19, x0
/home/lagadanu/Desktop/qemu/optee_os/lib/libutee/tee_api_operations.c:1715
    4808:	52800300 	mov	w0, #0x18                  	// #24
/home/lagadanu/Desktop/qemu/optee_os/lib/libutee/tee_api_operations.c:1713
    480c:	a9025bf5 	stp	x21, x22, [sp,#32]
    4810:	a90363f7 	stp	x23, x24, [sp,#48]
    4814:	aa0103f9 	mov	x25, x1
/home/lagadanu/Desktop/qemu/optee_os/lib/libutee/tee_api_operations.c:1715
    4818:	9ba07f40 	umull	x0, w26, w0
/home/lagadanu/Desktop/qemu/optee_os/lib/libutee/tee_api_operations.c:1713
    481c:	f9002bfb 	str	x27, [sp,#80]
    4820:	aa1a03f4 	mov	x20, x26
    4824:	aa0303f5 	mov	x21, x3
/home/lagadanu/Desktop/qemu/optee_os/lib/libutee/tee_api_operations.c:1715
    4828:	91005800 	add	x0, x0, #0x16
/home/lagadanu/Desktop/qemu/optee_os/lib/libutee/tee_api_operations.c:1713
    482c:	2a0403f6 	mov	w22, w4
/home/lagadanu/Desktop/qemu/optee_os/lib/libutee/tee_api_operations.c:1715
    4830:	927c8400 	and	x0, x0, #0x3ffffffff0
/home/lagadanu/Desktop/qemu/optee_os/lib/libutee/tee_api_operations.c:1713
    4834:	aa0503f7 	mov	x23, x5
/home/lagadanu/Desktop/qemu/optee_os/lib/libutee/tee_api_operations.c:1715
    4838:	cb2063ff 	sub	sp, sp, x0
/home/lagadanu/Desktop/qemu/optee_os/lib/libutee/tee_api_operations.c:1713
    483c:	2a0603f8 	mov	w24, w6
/home/lagadanu/Desktop/qemu/optee_os/lib/libutee/tee_api_operations.c:1715
    4840:	910003fb 	mov	x27, sp
/home/lagadanu/Desktop/qemu/optee_os/lib/libutee/tee_api_operations.c:1717
    4844:	b40000f3 	cbz	x19, 4860 <TEE_AsymmetricVerifyDigest+0x70>
/home/lagadanu/Desktop/qemu/optee_os/lib/libutee/tee_api_operations.c:1718 (discriminator 1)
    4848:	f100007f 	cmp	x3, #0x0
/home/lagadanu/Desktop/qemu/optee_os/lib/libutee/tee_api_operations.c:1717 (discriminator 1)
    484c:	7a400884 	ccmp	w4, #0x0, #0x4, eq
    4850:	54000081 	b.ne	4860 <TEE_AsymmetricVerifyDigest+0x70>
/home/lagadanu/Desktop/qemu/optee_os/lib/libutee/tee_api_operations.c:1719
    4854:	f10000bf 	cmp	x5, #0x0
/home/lagadanu/Desktop/qemu/optee_os/lib/libutee/tee_api_operations.c:1718
    4858:	7a4008c4 	ccmp	w6, #0x0, #0x4, eq
    485c:	54000060 	b.eq	4868 <TEE_AsymmetricVerifyDigest+0x78>
/home/lagadanu/Desktop/qemu/optee_os/lib/libutee/tee_api_operations.c:1720
    4860:	52800000 	mov	w0, #0x0                   	// #0
    4864:	94000091 	bl	4aa8 <TEE_Panic>
/home/lagadanu/Desktop/qemu/optee_os/lib/libutee/tee_api_operations.c:1721
    4868:	f100033f 	cmp	x25, #0x0
    486c:	7a400a84 	ccmp	w20, #0x0, #0x4, eq
    4870:	54000060 	b.eq	487c <TEE_AsymmetricVerifyDigest+0x8c>
/home/lagadanu/Desktop/qemu/optee_os/lib/libutee/tee_api_operations.c:1722
    4874:	52800000 	mov	w0, #0x0                   	// #0
    4878:	9400008c 	bl	4aa8 <TEE_Panic>
/home/lagadanu/Desktop/qemu/optee_os/lib/libutee/tee_api_operations.c:1723
    487c:	f9401260 	ldr	x0, [x19,#32]
    4880:	b5000040 	cbnz	x0, 4888 <TEE_AsymmetricVerifyDigest+0x98>
/home/lagadanu/Desktop/qemu/optee_os/lib/libutee/tee_api_operations.c:1724
    4884:	94000089 	bl	4aa8 <TEE_Panic>
/home/lagadanu/Desktop/qemu/optee_os/lib/libutee/tee_api_operations.c:1725
    4888:	b9400660 	ldr	w0, [x19,#4]
    488c:	71001c1f 	cmp	w0, #0x7
    4890:	54000060 	b.eq	489c <TEE_AsymmetricVerifyDigest+0xac>
/home/lagadanu/Desktop/qemu/optee_os/lib/libutee/tee_api_operations.c:1727
    4894:	52800000 	mov	w0, #0x0                   	// #0
    4898:	94000084 	bl	4aa8 <TEE_Panic>
/home/lagadanu/Desktop/qemu/optee_os/lib/libutee/tee_api_operations.c:1728
    489c:	b9400a60 	ldr	w0, [x19,#8]
    48a0:	71000c1f 	cmp	w0, #0x3
    48a4:	54000060 	b.eq	48b0 <TEE_AsymmetricVerifyDigest+0xc0>
/home/lagadanu/Desktop/qemu/optee_os/lib/libutee/tee_api_operations.c:1729
    48a8:	52800000 	mov	w0, #0x0                   	// #0
    48ac:	9400007f 	bl	4aa8 <TEE_Panic>
/home/lagadanu/Desktop/qemu/optee_os/lib/libutee/tee_api_operations.c:1731
    48b0:	2a1403e2 	mov	w2, w20
    48b4:	aa1903e1 	mov	x1, x25
    48b8:	aa1b03e0 	mov	x0, x27
    48bc:	97fff43d 	bl	19b0 <__utee_from_attr>
/home/lagadanu/Desktop/qemu/optee_os/lib/libutee/tee_api_operations.c:1732
    48c0:	b9405a60 	ldr	w0, [x19,#88]
    48c4:	aa1b03e1 	mov	x1, x27
    48c8:	2a1803e6 	mov	w6, w24
    48cc:	aa1703e5 	mov	x5, x23
    48d0:	2a1603e4 	mov	w4, w22
    48d4:	aa1503e3 	mov	x3, x21
    48d8:	aa1a03e2 	mov	x2, x26
    48dc:	940001a1 	bl	4f60 <utee_asymm_verify>
/home/lagadanu/Desktop/qemu/optee_os/lib/libutee/tee_api_operations.c:1735
    48e0:	7100001f 	cmp	w0, #0x0
    48e4:	1299f1a1 	mov	w1, #0xffff3072            	// #-53134
/home/lagadanu/Desktop/qemu/optee_os/lib/libutee/tee_api_operations.c:1732
    48e8:	2a0003f3 	mov	w19, w0
/home/lagadanu/Desktop/qemu/optee_os/lib/libutee/tee_api_operations.c:1735
    48ec:	7a411004 	ccmp	w0, w1, #0x4, ne
    48f0:	54000040 	b.eq	48f8 <TEE_AsymmetricVerifyDigest+0x108>
/home/lagadanu/Desktop/qemu/optee_os/lib/libutee/tee_api_operations.c:1736
    48f4:	9400006d 	bl	4aa8 <TEE_Panic>
/home/lagadanu/Desktop/qemu/optee_os/lib/libutee/tee_api_operations.c:1739
    48f8:	910003bf 	mov	sp, x29
    48fc:	2a1303e0 	mov	w0, w19
    4900:	f9402bfb 	ldr	x27, [sp,#80]
    4904:	a94153f3 	ldp	x19, x20, [sp,#16]
    4908:	a9425bf5 	ldp	x21, x22, [sp,#32]
    490c:	a94363f7 	ldp	x23, x24, [sp,#48]
    4910:	a9446bf9 	ldp	x25, x26, [sp,#64]
    4914:	a8c67bfd 	ldp	x29, x30, [sp],#96
    4918:	d65f03c0 	ret

000000000000491c <TEE_DeriveKey>:
TEE_DeriveKey():
/home/lagadanu/Desktop/qemu/optee_os/lib/libutee/tee_api_operations.c:1746
    491c:	a9ba7bfd 	stp	x29, x30, [sp,#-96]!
    4920:	910003fd 	mov	x29, sp
    4924:	a90363f7 	stp	x23, x24, [sp,#48]
    4928:	2a0203f7 	mov	w23, w2
    492c:	a90153f3 	stp	x19, x20, [sp,#16]
    4930:	aa0003f3 	mov	x19, x0
/home/lagadanu/Desktop/qemu/optee_os/lib/libutee/tee_api_operations.c:1749
    4934:	52800300 	mov	w0, #0x18                  	// #24
/home/lagadanu/Desktop/qemu/optee_os/lib/libutee/tee_api_operations.c:1746
    4938:	a9025bf5 	stp	x21, x22, [sp,#32]
/home/lagadanu/Desktop/qemu/optee_os/lib/libutee/tee_api_operations.c:1751
    493c:	f100027f 	cmp	x19, #0x0
/home/lagadanu/Desktop/qemu/optee_os/lib/libutee/tee_api_operations.c:1746
    4940:	aa0103f6 	mov	x22, x1
/home/lagadanu/Desktop/qemu/optee_os/lib/libutee/tee_api_operations.c:1749
    4944:	9ba07ee0 	umull	x0, w23, w0
/home/lagadanu/Desktop/qemu/optee_os/lib/libutee/tee_api_operations.c:1746
    4948:	aa1703f4 	mov	x20, x23
    494c:	aa0303f5 	mov	x21, x3
/home/lagadanu/Desktop/qemu/optee_os/lib/libutee/tee_api_operations.c:1751
    4950:	fa401864 	ccmp	x3, #0x0, #0x4, ne
/home/lagadanu/Desktop/qemu/optee_os/lib/libutee/tee_api_operations.c:1749
    4954:	91005800 	add	x0, x0, #0x16
    4958:	927c8400 	and	x0, x0, #0x3ffffffff0
    495c:	cb2063ff 	sub	sp, sp, x0
    4960:	910003f8 	mov	x24, sp
/home/lagadanu/Desktop/qemu/optee_os/lib/libutee/tee_api_operations.c:1751
    4964:	54000061 	b.ne	4970 <TEE_DeriveKey+0x54>
/home/lagadanu/Desktop/qemu/optee_os/lib/libutee/tee_api_operations.c:1752
    4968:	52800000 	mov	w0, #0x0                   	// #0
    496c:	9400004f 	bl	4aa8 <TEE_Panic>
/home/lagadanu/Desktop/qemu/optee_os/lib/libutee/tee_api_operations.c:1753
    4970:	f10002df 	cmp	x22, #0x0
    4974:	7a400a84 	ccmp	w20, #0x0, #0x4, eq
    4978:	54000060 	b.eq	4984 <TEE_DeriveKey+0x68>
/home/lagadanu/Desktop/qemu/optee_os/lib/libutee/tee_api_operations.c:1754
    497c:	52800000 	mov	w0, #0x0                   	// #0
    4980:	9400004a 	bl	4aa8 <TEE_Panic>
/home/lagadanu/Desktop/qemu/optee_os/lib/libutee/tee_api_operations.c:1755
    4984:	b9400260 	ldr	w0, [x19]
    4988:	531c7c00 	lsr	w0, w0, #28
    498c:	7100201f 	cmp	w0, #0x8
    4990:	54000060 	b.eq	499c <TEE_DeriveKey+0x80>
/home/lagadanu/Desktop/qemu/optee_os/lib/libutee/tee_api_operations.c:1757
    4994:	52800000 	mov	w0, #0x0                   	// #0
    4998:	94000044 	bl	4aa8 <TEE_Panic>
/home/lagadanu/Desktop/qemu/optee_os/lib/libutee/tee_api_operations.c:1759
    499c:	b9400660 	ldr	w0, [x19,#4]
    49a0:	7100201f 	cmp	w0, #0x8
    49a4:	54000060 	b.eq	49b0 <TEE_DeriveKey+0x94>
/home/lagadanu/Desktop/qemu/optee_os/lib/libutee/tee_api_operations.c:1760
    49a8:	52800000 	mov	w0, #0x0                   	// #0
    49ac:	9400003f 	bl	4aa8 <TEE_Panic>
/home/lagadanu/Desktop/qemu/optee_os/lib/libutee/tee_api_operations.c:1761
    49b0:	f9401260 	ldr	x0, [x19,#32]
    49b4:	b5000040 	cbnz	x0, 49bc <TEE_DeriveKey+0xa0>
/home/lagadanu/Desktop/qemu/optee_os/lib/libutee/tee_api_operations.c:1762
    49b8:	9400003c 	bl	4aa8 <TEE_Panic>
/home/lagadanu/Desktop/qemu/optee_os/lib/libutee/tee_api_operations.c:1763
    49bc:	b9400a60 	ldr	w0, [x19,#8]
    49c0:	7100181f 	cmp	w0, #0x6
    49c4:	54000060 	b.eq	49d0 <TEE_DeriveKey+0xb4>
/home/lagadanu/Desktop/qemu/optee_os/lib/libutee/tee_api_operations.c:1764
    49c8:	52800000 	mov	w0, #0x0                   	// #0
    49cc:	94000037 	bl	4aa8 <TEE_Panic>
/home/lagadanu/Desktop/qemu/optee_os/lib/libutee/tee_api_operations.c:1765
    49d0:	b9401e60 	ldr	w0, [x19,#28]
    49d4:	37900060 	tbnz	w0, #18, 49e0 <TEE_DeriveKey+0xc4>
/home/lagadanu/Desktop/qemu/optee_os/lib/libutee/tee_api_operations.c:1766
    49d8:	52800000 	mov	w0, #0x0                   	// #0
    49dc:	94000033 	bl	4aa8 <TEE_Panic>
/home/lagadanu/Desktop/qemu/optee_os/lib/libutee/tee_api_operations.c:1768
    49e0:	910103a1 	add	x1, x29, #0x40
    49e4:	aa1503e0 	mov	x0, x21
    49e8:	9400012e 	bl	4ea0 <utee_cryp_obj_get_info>
/home/lagadanu/Desktop/qemu/optee_os/lib/libutee/tee_api_operations.c:1769
    49ec:	34000040 	cbz	w0, 49f4 <TEE_DeriveKey+0xd8>
/home/lagadanu/Desktop/qemu/optee_os/lib/libutee/tee_api_operations.c:1770
    49f0:	9400002e 	bl	4aa8 <TEE_Panic>
/home/lagadanu/Desktop/qemu/optee_os/lib/libutee/tee_api_operations.c:1772
    49f4:	b94043a1 	ldr	w1, [x29,#64]
    49f8:	52b40000 	mov	w0, #0xa0000000            	// #-1610612736
    49fc:	6b00003f 	cmp	w1, w0
    4a00:	54000060 	b.eq	4a0c <TEE_DeriveKey+0xf0>
/home/lagadanu/Desktop/qemu/optee_os/lib/libutee/tee_api_operations.c:1773
    4a04:	52800000 	mov	w0, #0x0                   	// #0
    4a08:	94000028 	bl	4aa8 <TEE_Panic>
/home/lagadanu/Desktop/qemu/optee_os/lib/libutee/tee_api_operations.c:1774
    4a0c:	b9405ba0 	ldr	w0, [x29,#88]
    4a10:	36880060 	tbz	w0, #17, 4a1c <TEE_DeriveKey+0x100>
/home/lagadanu/Desktop/qemu/optee_os/lib/libutee/tee_api_operations.c:1775
    4a14:	52800000 	mov	w0, #0x0                   	// #0
    4a18:	94000024 	bl	4aa8 <TEE_Panic>
/home/lagadanu/Desktop/qemu/optee_os/lib/libutee/tee_api_operations.c:1777
    4a1c:	2a1403e2 	mov	w2, w20
    4a20:	aa1603e1 	mov	x1, x22
    4a24:	aa1803e0 	mov	x0, x24
    4a28:	97fff3e2 	bl	19b0 <__utee_from_attr>
/home/lagadanu/Desktop/qemu/optee_os/lib/libutee/tee_api_operations.c:1778
    4a2c:	b9405a60 	ldr	w0, [x19,#88]
    4a30:	aa1503e3 	mov	x3, x21
    4a34:	aa1703e2 	mov	x2, x23
    4a38:	aa1803e1 	mov	x1, x24
    4a3c:	94000131 	bl	4f00 <utee_cryp_derive_key>
/home/lagadanu/Desktop/qemu/optee_os/lib/libutee/tee_api_operations.c:1780
    4a40:	34000040 	cbz	w0, 4a48 <TEE_DeriveKey+0x12c>
/home/lagadanu/Desktop/qemu/optee_os/lib/libutee/tee_api_operations.c:1781
    4a44:	94000019 	bl	4aa8 <TEE_Panic>
/home/lagadanu/Desktop/qemu/optee_os/lib/libutee/tee_api_operations.c:1782
    4a48:	910003bf 	mov	sp, x29
    4a4c:	a94153f3 	ldp	x19, x20, [sp,#16]
    4a50:	a9425bf5 	ldp	x21, x22, [sp,#32]
    4a54:	a94363f7 	ldp	x23, x24, [sp,#48]
    4a58:	a8c67bfd 	ldp	x29, x30, [sp],#96
    4a5c:	d65f03c0 	ret

0000000000004a60 <TEE_GenerateRandom>:
TEE_GenerateRandom():
/home/lagadanu/Desktop/qemu/optee_os/lib/libutee/tee_api_operations.c:1787
    4a60:	a9bf7bfd 	stp	x29, x30, [sp,#-16]!
/home/lagadanu/Desktop/qemu/optee_os/lib/libutee/tee_api_operations.c:1790
    4a64:	2a0103e1 	mov	w1, w1
/home/lagadanu/Desktop/qemu/optee_os/lib/libutee/tee_api_operations.c:1787
    4a68:	910003fd 	mov	x29, sp
/home/lagadanu/Desktop/qemu/optee_os/lib/libutee/tee_api_operations.c:1790
    4a6c:	94000128 	bl	4f0c <utee_cryp_random_number_generate>
/home/lagadanu/Desktop/qemu/optee_os/lib/libutee/tee_api_operations.c:1791
    4a70:	34000060 	cbz	w0, 4a7c <TEE_GenerateRandom+0x1c>
/home/lagadanu/Desktop/qemu/optee_os/lib/libutee/tee_api_operations.c:1793
    4a74:	a8c17bfd 	ldp	x29, x30, [sp],#16
/home/lagadanu/Desktop/qemu/optee_os/lib/libutee/tee_api_operations.c:1792
    4a78:	1400000c 	b	4aa8 <TEE_Panic>
/home/lagadanu/Desktop/qemu/optee_os/lib/libutee/tee_api_operations.c:1793
    4a7c:	a8c17bfd 	ldp	x29, x30, [sp],#16
    4a80:	d65f03c0 	ret

0000000000004a84 <rand>:
rand():
/home/lagadanu/Desktop/qemu/optee_os/lib/libutee/tee_api_operations.c:1796
    4a84:	a9be7bfd 	stp	x29, x30, [sp,#-32]!
/home/lagadanu/Desktop/qemu/optee_os/lib/libutee/tee_api_operations.c:1799
    4a88:	52800081 	mov	w1, #0x4                   	// #4
/home/lagadanu/Desktop/qemu/optee_os/lib/libutee/tee_api_operations.c:1796
    4a8c:	910003fd 	mov	x29, sp
/home/lagadanu/Desktop/qemu/optee_os/lib/libutee/tee_api_operations.c:1799
    4a90:	910073a0 	add	x0, x29, #0x1c
    4a94:	97fffff3 	bl	4a60 <TEE_GenerateRandom>
/home/lagadanu/Desktop/qemu/optee_os/lib/libutee/tee_api_operations.c:1806
    4a98:	b9401fa0 	ldr	w0, [x29,#28]
    4a9c:	a8c27bfd 	ldp	x29, x30, [sp],#32
    4aa0:	12007800 	and	w0, w0, #0x7fffffff
    4aa4:	d65f03c0 	ret

0000000000004aa8 <TEE_Panic>:
TEE_Panic():
/home/lagadanu/Desktop/qemu/optee_os/lib/libutee/tee_api_panic.c:12
    4aa8:	2a0003e0 	mov	w0, w0
    4aac:	140000b2 	b	4d74 <utee_panic>

0000000000004ab0 <ta_header_get_session>:
ta_header_get_session():
/home/lagadanu/Desktop/qemu/optee_os/lib/libutee/arch/arm/user_ta_entry.c:78
    4ab0:	2a0003e1 	mov	w1, w0
/home/lagadanu/Desktop/qemu/optee_os/lib/libutee/arch/arm/user_ta_entry.c:81
    4ab4:	b0000040 	adrp	x0, d000 <iv>
    4ab8:	f9408000 	ldr	x0, [x0,#256]
/home/lagadanu/Desktop/qemu/optee_os/lib/libutee/arch/arm/user_ta_entry.c:81 (discriminator 1)
    4abc:	b5000040 	cbnz	x0, 4ac4 <ta_header_get_session+0x14>
/home/lagadanu/Desktop/qemu/optee_os/lib/libutee/arch/arm/user_ta_entry.c:86
    4ac0:	d65f03c0 	ret
/home/lagadanu/Desktop/qemu/optee_os/lib/libutee/arch/arm/user_ta_entry.c:82
    4ac4:	b9400002 	ldr	w2, [x0]
    4ac8:	6b01005f 	cmp	w2, w1
    4acc:	54ffffa0 	b.eq	4ac0 <ta_header_get_session+0x10>
/home/lagadanu/Desktop/qemu/optee_os/lib/libutee/arch/arm/user_ta_entry.c:81 (discriminator 2)
    4ad0:	f9400800 	ldr	x0, [x0,#16]
    4ad4:	17fffffa 	b	4abc <ta_header_get_session+0xc>

0000000000004ad8 <ta_header_remove_session>:
ta_header_remove_session():
/home/lagadanu/Desktop/qemu/optee_os/lib/libutee/arch/arm/user_ta_entry.c:115
    4ad8:	a9be7bfd 	stp	x29, x30, [sp,#-32]!
    4adc:	2a0003e2 	mov	w2, w0
    4ae0:	910003fd 	mov	x29, sp
    4ae4:	f9000bf3 	str	x19, [sp,#16]
/home/lagadanu/Desktop/qemu/optee_os/lib/libutee/arch/arm/user_ta_entry.c:119
    4ae8:	b0000053 	adrp	x19, d000 <iv>
    4aec:	f9408260 	ldr	x0, [x19,#256]
/home/lagadanu/Desktop/qemu/optee_os/lib/libutee/arch/arm/user_ta_entry.c:119 (discriminator 1)
    4af0:	b5000080 	cbnz	x0, 4b00 <ta_header_remove_session+0x28>
/home/lagadanu/Desktop/qemu/optee_os/lib/libutee/arch/arm/user_ta_entry.c:133
    4af4:	f9400bf3 	ldr	x19, [sp,#16]
    4af8:	a8c27bfd 	ldp	x29, x30, [sp],#32
    4afc:	d65f03c0 	ret
/home/lagadanu/Desktop/qemu/optee_os/lib/libutee/arch/arm/user_ta_entry.c:120
    4b00:	b9400001 	ldr	w1, [x0]
    4b04:	6b02003f 	cmp	w1, w2
    4b08:	f9400801 	ldr	x1, [x0,#16]
    4b0c:	540002c1 	b.ne	4b64 <ta_header_remove_session+0x8c>
    4b10:	f9400c02 	ldr	x2, [x0,#24]
/home/lagadanu/Desktop/qemu/optee_os/lib/libutee/arch/arm/user_ta_entry.c:121
    4b14:	b4000221 	cbz	x1, 4b58 <ta_header_remove_session+0x80>
/home/lagadanu/Desktop/qemu/optee_os/lib/libutee/arch/arm/user_ta_entry.c:121 (discriminator 1)
    4b18:	f9000c22 	str	x2, [x1,#24]
/home/lagadanu/Desktop/qemu/optee_os/lib/libutee/arch/arm/user_ta_entry.c:121 (discriminator 4)
    4b1c:	f9400c02 	ldr	x2, [x0,#24]
    4b20:	f9000041 	str	x1, [x2]
/home/lagadanu/Desktop/qemu/optee_os/lib/libutee/arch/arm/user_ta_entry.c:122 (discriminator 4)
    4b24:	97fff39c 	bl	1994 <TEE_Free>
/home/lagadanu/Desktop/qemu/optee_os/lib/libutee/arch/arm/user_ta_entry.c:125 (discriminator 4)
    4b28:	f0000020 	adrp	x0, b000 <PRIME_TABLE+0x7f0>
/home/lagadanu/Desktop/qemu/optee_os/lib/libutee/arch/arm/user_ta_entry.c:127 (discriminator 4)
    4b2c:	f9408261 	ldr	x1, [x19,#256]
/home/lagadanu/Desktop/qemu/optee_os/lib/libutee/arch/arm/user_ta_entry.c:125 (discriminator 4)
    4b30:	52800282 	mov	w2, #0x14                  	// #20
    4b34:	f9476400 	ldr	x0, [x0,#3784]
/home/lagadanu/Desktop/qemu/optee_os/lib/libutee/arch/arm/user_ta_entry.c:127 (discriminator 4)
    4b38:	f100003f 	cmp	x1, #0x0
/home/lagadanu/Desktop/qemu/optee_os/lib/libutee/arch/arm/user_ta_entry.c:125 (discriminator 4)
    4b3c:	b9401400 	ldr	w0, [x0,#20]
    4b40:	0a020000 	and	w0, w0, w2
/home/lagadanu/Desktop/qemu/optee_os/lib/libutee/arch/arm/user_ta_entry.c:127 (discriminator 4)
    4b44:	7a420004 	ccmp	w0, w2, #0x4, eq
    4b48:	54fffd60 	b.eq	4af4 <ta_header_remove_session+0x1c>
/home/lagadanu/Desktop/qemu/optee_os/lib/libutee/arch/arm/user_ta_entry.c:133
    4b4c:	f9400bf3 	ldr	x19, [sp,#16]
    4b50:	a8c27bfd 	ldp	x29, x30, [sp],#32
uninit_instance():
/home/lagadanu/Desktop/qemu/optee_os/lib/libutee/arch/arm/user_ta_entry.c:63
    4b54:	17ffed35 	b	28 <TA_DestroyEntryPoint>
ta_header_remove_session():
/home/lagadanu/Desktop/qemu/optee_os/lib/libutee/arch/arm/user_ta_entry.c:121 (discriminator 2)
    4b58:	91040263 	add	x3, x19, #0x100
    4b5c:	f9000462 	str	x2, [x3,#8]
    4b60:	17ffffef 	b	4b1c <ta_header_remove_session+0x44>
/home/lagadanu/Desktop/qemu/optee_os/lib/libutee/arch/arm/user_ta_entry.c:119 (discriminator 2)
    4b64:	aa0103e0 	mov	x0, x1
    4b68:	17ffffe2 	b	4af0 <ta_header_remove_session+0x18>

0000000000004b6c <__utee_entry>:
__utee_entry():
/home/lagadanu/Desktop/qemu/optee_os/lib/libutee/arch/arm/user_ta_entry.c:200
    4b6c:	a9b77bfd 	stp	x29, x30, [sp,#-144]!
/home/lagadanu/Desktop/qemu/optee_os/lib/libutee/arch/arm/user_ta_entry.c:211
    4b70:	f100041f 	cmp	x0, #0x1
/home/lagadanu/Desktop/qemu/optee_os/lib/libutee/arch/arm/user_ta_entry.c:200
    4b74:	910003fd 	mov	x29, sp
    4b78:	a90153f3 	stp	x19, x20, [sp,#16]
    4b7c:	aa0103f4 	mov	x20, x1
    4b80:	a9025bf5 	stp	x21, x22, [sp,#32]
    4b84:	f9001bf7 	str	x23, [sp,#48]
/home/lagadanu/Desktop/qemu/optee_os/lib/libutee/arch/arm/user_ta_entry.c:211
    4b88:	54000a60 	b.eq	4cd4 <__utee_entry+0x168>
    4b8c:	aa0203f6 	mov	x22, x2
    4b90:	b40000e0 	cbz	x0, 4bac <__utee_entry+0x40>
    4b94:	f100081f 	cmp	x0, #0x2
    4b98:	54000b20 	b.eq	4cfc <__utee_entry+0x190>
/home/lagadanu/Desktop/qemu/optee_os/lib/libutee/arch/arm/user_ta_entry.c:223
    4b9c:	52800000 	mov	w0, #0x0                   	// #0
/home/lagadanu/Desktop/qemu/optee_os/lib/libutee/arch/arm/user_ta_entry.c:222
    4ba0:	12800013 	mov	w19, #0xffffffff            	// #-1
/home/lagadanu/Desktop/qemu/optee_os/lib/libutee/arch/arm/user_ta_entry.c:223
    4ba4:	97ffffc1 	bl	4aa8 <TEE_Panic>
/home/lagadanu/Desktop/qemu/optee_os/lib/libutee/arch/arm/user_ta_entry.c:224
    4ba8:	1400000c 	b	4bd8 <__utee_entry+0x6c>
ta_header_add_session():
/home/lagadanu/Desktop/qemu/optee_os/lib/libutee/arch/arm/user_ta_entry.c:90
    4bac:	2a0103e0 	mov	w0, w1
    4bb0:	97ffffc0 	bl	4ab0 <ta_header_get_session>
/home/lagadanu/Desktop/qemu/optee_os/lib/libutee/arch/arm/user_ta_entry.c:93
    4bb4:	b5000520 	cbnz	x0, 4c58 <__utee_entry+0xec>
/home/lagadanu/Desktop/qemu/optee_os/lib/libutee/arch/arm/user_ta_entry.c:96
    4bb8:	f0000080 	adrp	x0, 17000 <buf.3610+0x4b0>
    4bbc:	396e8001 	ldrb	w1, [x0,#2976]
    4bc0:	340001e1 	cbz	w1, 4bfc <__utee_entry+0x90>
/home/lagadanu/Desktop/qemu/optee_os/lib/libutee/arch/arm/user_ta_entry.c:103
    4bc4:	52b00001 	mov	w1, #0x80000000            	// #-2147483648
    4bc8:	52800400 	mov	w0, #0x20                  	// #32
/home/lagadanu/Desktop/qemu/optee_os/lib/libutee/arch/arm/user_ta_entry.c:106
    4bcc:	129ffe73 	mov	w19, #0xffff000c            	// #-65524
/home/lagadanu/Desktop/qemu/optee_os/lib/libutee/arch/arm/user_ta_entry.c:103
    4bd0:	97fff358 	bl	1930 <TEE_Malloc>
/home/lagadanu/Desktop/qemu/optee_os/lib/libutee/arch/arm/user_ta_entry.c:105
    4bd4:	b5000300 	cbnz	x0, 4c34 <__utee_entry+0xc8>
ta_header_save_params():
/home/lagadanu/Desktop/qemu/optee_os/lib/libutee/arch/arm/user_ta_entry.c:69
    4bd8:	f0000020 	adrp	x0, b000 <PRIME_TABLE+0x7f0>
/home/lagadanu/Desktop/qemu/optee_os/lib/libutee/arch/arm/user_ta_entry.c:74
    4bdc:	d2800802 	mov	x2, #0x40                  	// #64
/home/lagadanu/Desktop/qemu/optee_os/lib/libutee/arch/arm/user_ta_entry.c:69
    4be0:	f9475401 	ldr	x1, [x0,#3752]
/home/lagadanu/Desktop/qemu/optee_os/lib/libutee/arch/arm/user_ta_entry.c:74
    4be4:	f9476000 	ldr	x0, [x0,#3776]
/home/lagadanu/Desktop/qemu/optee_os/lib/libutee/arch/arm/user_ta_entry.c:69
    4be8:	b900003f 	str	wzr, [x1]
/home/lagadanu/Desktop/qemu/optee_os/lib/libutee/arch/arm/user_ta_entry.c:74
    4bec:	52800001 	mov	w1, #0x0                   	// #0
    4bf0:	9400165d 	bl	a564 <memset>
__utee_entry():
/home/lagadanu/Desktop/qemu/optee_os/lib/libutee/arch/arm/user_ta_entry.c:227
    4bf4:	2a1303e0 	mov	w0, w19
    4bf8:	94000062 	bl	4d80 <utee_return>
ta_header_add_session():
/home/lagadanu/Desktop/qemu/optee_os/lib/libutee/arch/arm/user_ta_entry.c:97
    4bfc:	52800021 	mov	w1, #0x1                   	// #1
    4c00:	392e8001 	strb	w1, [x0,#2976]
init_instance():
/home/lagadanu/Desktop/qemu/optee_os/lib/libutee/arch/arm/user_ta_entry.c:53
    4c04:	97ffedfe 	bl	3fc <tahead_get_trace_level>
    4c08:	97ffedff 	bl	404 <trace_set_level>
/home/lagadanu/Desktop/qemu/optee_os/lib/libutee/arch/arm/user_ta_entry.c:55
    4c0c:	f0000020 	adrp	x0, b000 <PRIME_TABLE+0x7f0>
    4c10:	f9473c01 	ldr	x1, [x0,#3704]
    4c14:	f9475000 	ldr	x0, [x0,#3744]
    4c18:	f9400021 	ldr	x1, [x1]
    4c1c:	94001538 	bl	a0fc <malloc_add_pool>
/home/lagadanu/Desktop/qemu/optee_os/lib/libutee/arch/arm/user_ta_entry.c:56
    4c20:	9400012e 	bl	50d8 <_TEE_MathAPI_Init>
/home/lagadanu/Desktop/qemu/optee_os/lib/libutee/arch/arm/user_ta_entry.c:57
    4c24:	97ffecff 	bl	20 <TA_CreateEntryPoint>
    4c28:	2a0003f3 	mov	w19, w0
ta_header_add_session():
/home/lagadanu/Desktop/qemu/optee_os/lib/libutee/arch/arm/user_ta_entry.c:99
    4c2c:	34fffcc0 	cbz	w0, 4bc4 <__utee_entry+0x58>
    4c30:	17ffffea 	b	4bd8 <__utee_entry+0x6c>
/home/lagadanu/Desktop/qemu/optee_os/lib/libutee/arch/arm/user_ta_entry.c:109
    4c34:	b0000041 	adrp	x1, d000 <iv>
    4c38:	91040021 	add	x1, x1, #0x100
    4c3c:	f9400422 	ldr	x2, [x1,#8]
    4c40:	f9000c02 	str	x2, [x0,#24]
/home/lagadanu/Desktop/qemu/optee_os/lib/libutee/arch/arm/user_ta_entry.c:107
    4c44:	b9000014 	str	w20, [x0]
/home/lagadanu/Desktop/qemu/optee_os/lib/libutee/arch/arm/user_ta_entry.c:109
    4c48:	a900fc1f 	stp	xzr, xzr, [x0,#8]
    4c4c:	f9000040 	str	x0, [x2]
    4c50:	91004000 	add	x0, x0, #0x10
    4c54:	f9000420 	str	x0, [x1,#8]
entry_open_session():
/home/lagadanu/Desktop/qemu/optee_os/lib/libutee/arch/arm/user_ta_entry.c:147
    4c58:	2a1403e0 	mov	w0, w20
/home/lagadanu/Desktop/qemu/optee_os/lib/libutee/arch/arm/user_ta_entry.c:149
    4c5c:	129fff13 	mov	w19, #0xffff0007            	// #-65529
/home/lagadanu/Desktop/qemu/optee_os/lib/libutee/arch/arm/user_ta_entry.c:147
    4c60:	97ffff94 	bl	4ab0 <ta_header_get_session>
    4c64:	aa0003f7 	mov	x23, x0
/home/lagadanu/Desktop/qemu/optee_os/lib/libutee/arch/arm/user_ta_entry.c:148
    4c68:	b4fffb80 	cbz	x0, 4bd8 <__utee_entry+0x6c>
/home/lagadanu/Desktop/qemu/optee_os/lib/libutee/arch/arm/user_ta_entry.c:151
    4c6c:	910143b5 	add	x21, x29, #0x50
    4c70:	aa1603e2 	mov	x2, x22
    4c74:	910133a1 	add	x1, x29, #0x4c
    4c78:	aa1503e0 	mov	x0, x21
    4c7c:	97fff232 	bl	1544 <__utee_to_param>
/home/lagadanu/Desktop/qemu/optee_os/lib/libutee/arch/arm/user_ta_entry.c:152
    4c80:	b9404fb3 	ldr	w19, [x29,#76]
ta_header_save_params():
/home/lagadanu/Desktop/qemu/optee_os/lib/libutee/arch/arm/user_ta_entry.c:69
    4c84:	f0000020 	adrp	x0, b000 <PRIME_TABLE+0x7f0>
/home/lagadanu/Desktop/qemu/optee_os/lib/libutee/arch/arm/user_ta_entry.c:72
    4c88:	d2800802 	mov	x2, #0x40                  	// #64
/home/lagadanu/Desktop/qemu/optee_os/lib/libutee/arch/arm/user_ta_entry.c:69
    4c8c:	f9475401 	ldr	x1, [x0,#3752]
/home/lagadanu/Desktop/qemu/optee_os/lib/libutee/arch/arm/user_ta_entry.c:72
    4c90:	f9476000 	ldr	x0, [x0,#3776]
/home/lagadanu/Desktop/qemu/optee_os/lib/libutee/arch/arm/user_ta_entry.c:69
    4c94:	b9000033 	str	w19, [x1]
/home/lagadanu/Desktop/qemu/optee_os/lib/libutee/arch/arm/user_ta_entry.c:72
    4c98:	aa1503e1 	mov	x1, x21
    4c9c:	97fff19f 	bl	1318 <memcpy>
entry_open_session():
/home/lagadanu/Desktop/qemu/optee_os/lib/libutee/arch/arm/user_ta_entry.c:154
    4ca0:	910022e2 	add	x2, x23, #0x8
    4ca4:	aa1503e1 	mov	x1, x21
    4ca8:	2a1303e0 	mov	w0, w19
    4cac:	97ffece0 	bl	2c <TA_OpenSessionEntryPoint>
/home/lagadanu/Desktop/qemu/optee_os/lib/libutee/arch/arm/user_ta_entry.c:157
    4cb0:	b9404fa1 	ldr	w1, [x29,#76]
/home/lagadanu/Desktop/qemu/optee_os/lib/libutee/arch/arm/user_ta_entry.c:154
    4cb4:	2a0003f3 	mov	w19, w0
/home/lagadanu/Desktop/qemu/optee_os/lib/libutee/arch/arm/user_ta_entry.c:157
    4cb8:	aa1503e2 	mov	x2, x21
    4cbc:	aa1603e0 	mov	x0, x22
    4cc0:	97fff203 	bl	14cc <__utee_from_param>
/home/lagadanu/Desktop/qemu/optee_os/lib/libutee/arch/arm/user_ta_entry.c:159
    4cc4:	34fff8b3 	cbz	w19, 4bd8 <__utee_entry+0x6c>
/home/lagadanu/Desktop/qemu/optee_os/lib/libutee/arch/arm/user_ta_entry.c:160
    4cc8:	2a1403e0 	mov	w0, w20
    4ccc:	97ffff83 	bl	4ad8 <ta_header_remove_session>
    4cd0:	17ffffc2 	b	4bd8 <__utee_entry+0x6c>
entry_close_session():
/home/lagadanu/Desktop/qemu/optee_os/lib/libutee/arch/arm/user_ta_entry.c:166
    4cd4:	2a0103e0 	mov	w0, w1
/home/lagadanu/Desktop/qemu/optee_os/lib/libutee/arch/arm/user_ta_entry.c:169
    4cd8:	129fff13 	mov	w19, #0xffff0007            	// #-65529
/home/lagadanu/Desktop/qemu/optee_os/lib/libutee/arch/arm/user_ta_entry.c:166
    4cdc:	97ffff75 	bl	4ab0 <ta_header_get_session>
/home/lagadanu/Desktop/qemu/optee_os/lib/libutee/arch/arm/user_ta_entry.c:168
    4ce0:	b4fff7c0 	cbz	x0, 4bd8 <__utee_entry+0x6c>
/home/lagadanu/Desktop/qemu/optee_os/lib/libutee/arch/arm/user_ta_entry.c:171
    4ce4:	f9400400 	ldr	x0, [x0,#8]
/home/lagadanu/Desktop/qemu/optee_os/lib/libutee/arch/arm/user_ta_entry.c:174
    4ce8:	52800013 	mov	w19, #0x0                   	// #0
/home/lagadanu/Desktop/qemu/optee_os/lib/libutee/arch/arm/user_ta_entry.c:171
    4cec:	97ffecd2 	bl	34 <TA_CloseSessionEntryPoint>
/home/lagadanu/Desktop/qemu/optee_os/lib/libutee/arch/arm/user_ta_entry.c:173
    4cf0:	2a1403e0 	mov	w0, w20
    4cf4:	97ffff79 	bl	4ad8 <ta_header_remove_session>
    4cf8:	17ffffb8 	b	4bd8 <__utee_entry+0x6c>
entry_invoke_command():
/home/lagadanu/Desktop/qemu/optee_os/lib/libutee/arch/arm/user_ta_entry.c:183
    4cfc:	2a0103e0 	mov	w0, w1
/home/lagadanu/Desktop/qemu/optee_os/lib/libutee/arch/arm/user_ta_entry.c:186
    4d00:	129fff13 	mov	w19, #0xffff0007            	// #-65529
/home/lagadanu/Desktop/qemu/optee_os/lib/libutee/arch/arm/user_ta_entry.c:183
    4d04:	97ffff6b 	bl	4ab0 <ta_header_get_session>
    4d08:	aa0003f5 	mov	x21, x0
/home/lagadanu/Desktop/qemu/optee_os/lib/libutee/arch/arm/user_ta_entry.c:185
    4d0c:	b4fff660 	cbz	x0, 4bd8 <__utee_entry+0x6c>
/home/lagadanu/Desktop/qemu/optee_os/lib/libutee/arch/arm/user_ta_entry.c:188
    4d10:	910143b4 	add	x20, x29, #0x50
    4d14:	aa0303f7 	mov	x23, x3
    4d18:	aa1603e2 	mov	x2, x22
    4d1c:	910133a1 	add	x1, x29, #0x4c
    4d20:	aa1403e0 	mov	x0, x20
    4d24:	97fff208 	bl	1544 <__utee_to_param>
ta_header_save_params():
/home/lagadanu/Desktop/qemu/optee_os/lib/libutee/arch/arm/user_ta_entry.c:69
    4d28:	f0000020 	adrp	x0, b000 <PRIME_TABLE+0x7f0>
entry_invoke_command():
/home/lagadanu/Desktop/qemu/optee_os/lib/libutee/arch/arm/user_ta_entry.c:189
    4d2c:	b9404fb3 	ldr	w19, [x29,#76]
ta_header_save_params():
/home/lagadanu/Desktop/qemu/optee_os/lib/libutee/arch/arm/user_ta_entry.c:72
    4d30:	d2800802 	mov	x2, #0x40                  	// #64
/home/lagadanu/Desktop/qemu/optee_os/lib/libutee/arch/arm/user_ta_entry.c:69
    4d34:	f9475401 	ldr	x1, [x0,#3752]
/home/lagadanu/Desktop/qemu/optee_os/lib/libutee/arch/arm/user_ta_entry.c:72
    4d38:	f9476000 	ldr	x0, [x0,#3776]
/home/lagadanu/Desktop/qemu/optee_os/lib/libutee/arch/arm/user_ta_entry.c:69
    4d3c:	b9000033 	str	w19, [x1]
/home/lagadanu/Desktop/qemu/optee_os/lib/libutee/arch/arm/user_ta_entry.c:72
    4d40:	aa1403e1 	mov	x1, x20
    4d44:	97fff175 	bl	1318 <memcpy>
entry_invoke_command():
/home/lagadanu/Desktop/qemu/optee_os/lib/libutee/arch/arm/user_ta_entry.c:191
    4d48:	f94006a0 	ldr	x0, [x21,#8]
    4d4c:	2a1303e2 	mov	w2, w19
    4d50:	2a1703e1 	mov	w1, w23
    4d54:	aa1403e3 	mov	x3, x20
    4d58:	97ffecb8 	bl	38 <TA_InvokeCommandEntryPoint>
    4d5c:	2a0003f3 	mov	w19, w0
/home/lagadanu/Desktop/qemu/optee_os/lib/libutee/arch/arm/user_ta_entry.c:194
    4d60:	b9404fa1 	ldr	w1, [x29,#76]
    4d64:	aa1403e2 	mov	x2, x20
    4d68:	aa1603e0 	mov	x0, x22
    4d6c:	97fff1d8 	bl	14cc <__utee_from_param>
    4d70:	17ffff9a 	b	4bd8 <__utee_entry+0x6c>

0000000000004d74 <utee_panic>:
utee_panic():
/home/lagadanu/Desktop/qemu/optee_os/lib/libutee/arch/arm/utee_syscalls_a64.S:24
    4d74:	a9bf7bfd 	stp	x29, x30, [sp,#-16]!
/home/lagadanu/Desktop/qemu/optee_os/lib/libutee/arch/arm/utee_syscalls_a64.S:25
    4d78:	910003e1 	mov	x1, sp
/home/lagadanu/Desktop/qemu/optee_os/lib/libutee/arch/arm/utee_syscalls_a64.S:26
    4d7c:	94000007 	bl	4d98 <__utee_panic>

0000000000004d80 <utee_return>:
utee_return():
/home/lagadanu/Desktop/qemu/optee_os/lib/libutee/arch/arm/utee_syscalls_asm.S:8
    4d80:	d2800008 	mov	x8, #0x0                   	// #0
    4d84:	d4000001 	svc	#0x0
    4d88:	d65f03c0 	ret

0000000000004d8c <utee_log>:
utee_log():
/home/lagadanu/Desktop/qemu/optee_os/lib/libutee/arch/arm/utee_syscalls_asm.S:10
    4d8c:	d2800028 	mov	x8, #0x1                   	// #1
    4d90:	d4000001 	svc	#0x0
    4d94:	d65f03c0 	ret

0000000000004d98 <__utee_panic>:
__utee_panic():
/home/lagadanu/Desktop/qemu/optee_os/lib/libutee/arch/arm/utee_syscalls_asm.S:12
    4d98:	d2800048 	mov	x8, #0x2                   	// #2
    4d9c:	d4000001 	svc	#0x0
    4da0:	d65f03c0 	ret

0000000000004da4 <utee_get_property>:
utee_get_property():
/home/lagadanu/Desktop/qemu/optee_os/lib/libutee/arch/arm/utee_syscalls_asm.S:14
    4da4:	d2800068 	mov	x8, #0x3                   	// #3
    4da8:	d4000001 	svc	#0x0
    4dac:	d65f03c0 	ret

0000000000004db0 <utee_get_property_name_to_index>:
utee_get_property_name_to_index():
/home/lagadanu/Desktop/qemu/optee_os/lib/libutee/arch/arm/utee_syscalls_asm.S:16
    4db0:	d2800088 	mov	x8, #0x4                   	// #4
    4db4:	d4000001 	svc	#0x0
    4db8:	d65f03c0 	ret

0000000000004dbc <utee_open_ta_session>:
utee_open_ta_session():
/home/lagadanu/Desktop/qemu/optee_os/lib/libutee/arch/arm/utee_syscalls_asm.S:19
    4dbc:	d28000a8 	mov	x8, #0x5                   	// #5
    4dc0:	d4000001 	svc	#0x0
    4dc4:	d65f03c0 	ret

0000000000004dc8 <utee_close_ta_session>:
utee_close_ta_session():
/home/lagadanu/Desktop/qemu/optee_os/lib/libutee/arch/arm/utee_syscalls_asm.S:21
    4dc8:	d28000c8 	mov	x8, #0x6                   	// #6
    4dcc:	d4000001 	svc	#0x0
    4dd0:	d65f03c0 	ret

0000000000004dd4 <utee_invoke_ta_command>:
utee_invoke_ta_command():
/home/lagadanu/Desktop/qemu/optee_os/lib/libutee/arch/arm/utee_syscalls_asm.S:23
    4dd4:	d28000e8 	mov	x8, #0x7                   	// #7
    4dd8:	d4000001 	svc	#0x0
    4ddc:	d65f03c0 	ret

0000000000004de0 <utee_get_cancellation_flag>:
utee_get_cancellation_flag():
/home/lagadanu/Desktop/qemu/optee_os/lib/libutee/arch/arm/utee_syscalls_asm.S:25
    4de0:	d2800128 	mov	x8, #0x9                   	// #9
    4de4:	d4000001 	svc	#0x0
    4de8:	d65f03c0 	ret

0000000000004dec <utee_check_access_rights>:
utee_check_access_rights():
/home/lagadanu/Desktop/qemu/optee_os/lib/libutee/arch/arm/utee_syscalls_asm.S:28
    4dec:	d2800108 	mov	x8, #0x8                   	// #8
    4df0:	d4000001 	svc	#0x0
    4df4:	d65f03c0 	ret

0000000000004df8 <utee_unmask_cancellation>:
utee_unmask_cancellation():
/home/lagadanu/Desktop/qemu/optee_os/lib/libutee/arch/arm/utee_syscalls_asm.S:30
    4df8:	d2800148 	mov	x8, #0xa                   	// #10
    4dfc:	d4000001 	svc	#0x0
    4e00:	d65f03c0 	ret

0000000000004e04 <utee_mask_cancellation>:
utee_mask_cancellation():
/home/lagadanu/Desktop/qemu/optee_os/lib/libutee/arch/arm/utee_syscalls_asm.S:32
    4e04:	d2800168 	mov	x8, #0xb                   	// #11
    4e08:	d4000001 	svc	#0x0
    4e0c:	d65f03c0 	ret

0000000000004e10 <utee_wait>:
utee_wait():
/home/lagadanu/Desktop/qemu/optee_os/lib/libutee/arch/arm/utee_syscalls_asm.S:34
    4e10:	d2800188 	mov	x8, #0xc                   	// #12
    4e14:	d4000001 	svc	#0x0
    4e18:	d65f03c0 	ret

0000000000004e1c <utee_get_time>:
utee_get_time():
/home/lagadanu/Desktop/qemu/optee_os/lib/libutee/arch/arm/utee_syscalls_asm.S:36
    4e1c:	d28001a8 	mov	x8, #0xd                   	// #13
    4e20:	d4000001 	svc	#0x0
    4e24:	d65f03c0 	ret

0000000000004e28 <utee_set_ta_time>:
utee_set_ta_time():
/home/lagadanu/Desktop/qemu/optee_os/lib/libutee/arch/arm/utee_syscalls_asm.S:38
    4e28:	d28001c8 	mov	x8, #0xe                   	// #14
    4e2c:	d4000001 	svc	#0x0
    4e30:	d65f03c0 	ret

0000000000004e34 <utee_cryp_state_alloc>:
utee_cryp_state_alloc():
/home/lagadanu/Desktop/qemu/optee_os/lib/libutee/arch/arm/utee_syscalls_asm.S:40
    4e34:	d28001e8 	mov	x8, #0xf                   	// #15
    4e38:	d4000001 	svc	#0x0
    4e3c:	d65f03c0 	ret

0000000000004e40 <utee_cryp_state_copy>:
utee_cryp_state_copy():
/home/lagadanu/Desktop/qemu/optee_os/lib/libutee/arch/arm/utee_syscalls_asm.S:42
    4e40:	d2800208 	mov	x8, #0x10                  	// #16
    4e44:	d4000001 	svc	#0x0
    4e48:	d65f03c0 	ret

0000000000004e4c <utee_cryp_state_free>:
utee_cryp_state_free():
/home/lagadanu/Desktop/qemu/optee_os/lib/libutee/arch/arm/utee_syscalls_asm.S:44
    4e4c:	d2800228 	mov	x8, #0x11                  	// #17
    4e50:	d4000001 	svc	#0x0
    4e54:	d65f03c0 	ret

0000000000004e58 <utee_hash_init>:
utee_hash_init():
/home/lagadanu/Desktop/qemu/optee_os/lib/libutee/arch/arm/utee_syscalls_asm.S:46
    4e58:	d2800248 	mov	x8, #0x12                  	// #18
    4e5c:	d4000001 	svc	#0x0
    4e60:	d65f03c0 	ret

0000000000004e64 <utee_hash_update>:
utee_hash_update():
/home/lagadanu/Desktop/qemu/optee_os/lib/libutee/arch/arm/utee_syscalls_asm.S:48
    4e64:	d2800268 	mov	x8, #0x13                  	// #19
    4e68:	d4000001 	svc	#0x0
    4e6c:	d65f03c0 	ret

0000000000004e70 <utee_hash_final>:
utee_hash_final():
/home/lagadanu/Desktop/qemu/optee_os/lib/libutee/arch/arm/utee_syscalls_asm.S:50
    4e70:	d2800288 	mov	x8, #0x14                  	// #20
    4e74:	d4000001 	svc	#0x0
    4e78:	d65f03c0 	ret

0000000000004e7c <utee_cipher_init>:
utee_cipher_init():
/home/lagadanu/Desktop/qemu/optee_os/lib/libutee/arch/arm/utee_syscalls_asm.S:52
    4e7c:	d28002a8 	mov	x8, #0x15                  	// #21
    4e80:	d4000001 	svc	#0x0
    4e84:	d65f03c0 	ret

0000000000004e88 <utee_cipher_update>:
utee_cipher_update():
/home/lagadanu/Desktop/qemu/optee_os/lib/libutee/arch/arm/utee_syscalls_asm.S:54
    4e88:	d28002c8 	mov	x8, #0x16                  	// #22
    4e8c:	d4000001 	svc	#0x0
    4e90:	d65f03c0 	ret

0000000000004e94 <utee_cipher_final>:
utee_cipher_final():
/home/lagadanu/Desktop/qemu/optee_os/lib/libutee/arch/arm/utee_syscalls_asm.S:56
    4e94:	d28002e8 	mov	x8, #0x17                  	// #23
    4e98:	d4000001 	svc	#0x0
    4e9c:	d65f03c0 	ret

0000000000004ea0 <utee_cryp_obj_get_info>:
utee_cryp_obj_get_info():
/home/lagadanu/Desktop/qemu/optee_os/lib/libutee/arch/arm/utee_syscalls_asm.S:58
    4ea0:	d2800308 	mov	x8, #0x18                  	// #24
    4ea4:	d4000001 	svc	#0x0
    4ea8:	d65f03c0 	ret

0000000000004eac <utee_cryp_obj_restrict_usage>:
utee_cryp_obj_restrict_usage():
/home/lagadanu/Desktop/qemu/optee_os/lib/libutee/arch/arm/utee_syscalls_asm.S:60
    4eac:	d2800328 	mov	x8, #0x19                  	// #25
    4eb0:	d4000001 	svc	#0x0
    4eb4:	d65f03c0 	ret

0000000000004eb8 <utee_cryp_obj_get_attr>:
utee_cryp_obj_get_attr():
/home/lagadanu/Desktop/qemu/optee_os/lib/libutee/arch/arm/utee_syscalls_asm.S:63
    4eb8:	d2800348 	mov	x8, #0x1a                  	// #26
    4ebc:	d4000001 	svc	#0x0
    4ec0:	d65f03c0 	ret

0000000000004ec4 <utee_cryp_obj_alloc>:
utee_cryp_obj_alloc():
/home/lagadanu/Desktop/qemu/optee_os/lib/libutee/arch/arm/utee_syscalls_asm.S:65
    4ec4:	d2800368 	mov	x8, #0x1b                  	// #27
    4ec8:	d4000001 	svc	#0x0
    4ecc:	d65f03c0 	ret

0000000000004ed0 <utee_cryp_obj_close>:
utee_cryp_obj_close():
/home/lagadanu/Desktop/qemu/optee_os/lib/libutee/arch/arm/utee_syscalls_asm.S:67
    4ed0:	d2800388 	mov	x8, #0x1c                  	// #28
    4ed4:	d4000001 	svc	#0x0
    4ed8:	d65f03c0 	ret

0000000000004edc <utee_cryp_obj_reset>:
utee_cryp_obj_reset():
/home/lagadanu/Desktop/qemu/optee_os/lib/libutee/arch/arm/utee_syscalls_asm.S:69
    4edc:	d28003a8 	mov	x8, #0x1d                  	// #29
    4ee0:	d4000001 	svc	#0x0
    4ee4:	d65f03c0 	ret

0000000000004ee8 <utee_cryp_obj_populate>:
utee_cryp_obj_populate():
/home/lagadanu/Desktop/qemu/optee_os/lib/libutee/arch/arm/utee_syscalls_asm.S:71
    4ee8:	d28003c8 	mov	x8, #0x1e                  	// #30
    4eec:	d4000001 	svc	#0x0
    4ef0:	d65f03c0 	ret

0000000000004ef4 <utee_cryp_obj_copy>:
utee_cryp_obj_copy():
/home/lagadanu/Desktop/qemu/optee_os/lib/libutee/arch/arm/utee_syscalls_asm.S:73
    4ef4:	d28003e8 	mov	x8, #0x1f                  	// #31
    4ef8:	d4000001 	svc	#0x0
    4efc:	d65f03c0 	ret

0000000000004f00 <utee_cryp_derive_key>:
utee_cryp_derive_key():
/home/lagadanu/Desktop/qemu/optee_os/lib/libutee/arch/arm/utee_syscalls_asm.S:75
    4f00:	d2800408 	mov	x8, #0x20                  	// #32
    4f04:	d4000001 	svc	#0x0
    4f08:	d65f03c0 	ret

0000000000004f0c <utee_cryp_random_number_generate>:
utee_cryp_random_number_generate():
/home/lagadanu/Desktop/qemu/optee_os/lib/libutee/arch/arm/utee_syscalls_asm.S:77
    4f0c:	d2800428 	mov	x8, #0x21                  	// #33
    4f10:	d4000001 	svc	#0x0
    4f14:	d65f03c0 	ret

0000000000004f18 <utee_authenc_init>:
utee_authenc_init():
/home/lagadanu/Desktop/qemu/optee_os/lib/libutee/arch/arm/utee_syscalls_asm.S:80
    4f18:	d2800448 	mov	x8, #0x22                  	// #34
    4f1c:	d4000001 	svc	#0x0
    4f20:	d65f03c0 	ret

0000000000004f24 <utee_authenc_update_aad>:
utee_authenc_update_aad():
/home/lagadanu/Desktop/qemu/optee_os/lib/libutee/arch/arm/utee_syscalls_asm.S:82
    4f24:	d2800468 	mov	x8, #0x23                  	// #35
    4f28:	d4000001 	svc	#0x0
    4f2c:	d65f03c0 	ret

0000000000004f30 <utee_authenc_update_payload>:
utee_authenc_update_payload():
/home/lagadanu/Desktop/qemu/optee_os/lib/libutee/arch/arm/utee_syscalls_asm.S:84
    4f30:	d2800488 	mov	x8, #0x24                  	// #36
    4f34:	d4000001 	svc	#0x0
    4f38:	d65f03c0 	ret

0000000000004f3c <utee_authenc_enc_final>:
utee_authenc_enc_final():
/home/lagadanu/Desktop/qemu/optee_os/lib/libutee/arch/arm/utee_syscalls_asm.S:87
    4f3c:	d28004a8 	mov	x8, #0x25                  	// #37
    4f40:	d4000001 	svc	#0x0
    4f44:	d65f03c0 	ret

0000000000004f48 <utee_authenc_dec_final>:
utee_authenc_dec_final():
/home/lagadanu/Desktop/qemu/optee_os/lib/libutee/arch/arm/utee_syscalls_asm.S:89
    4f48:	d28004c8 	mov	x8, #0x26                  	// #38
    4f4c:	d4000001 	svc	#0x0
    4f50:	d65f03c0 	ret

0000000000004f54 <utee_asymm_operate>:
utee_asymm_operate():
/home/lagadanu/Desktop/qemu/optee_os/lib/libutee/arch/arm/utee_syscalls_asm.S:91
    4f54:	d28004e8 	mov	x8, #0x27                  	// #39
    4f58:	d4000001 	svc	#0x0
    4f5c:	d65f03c0 	ret

0000000000004f60 <utee_asymm_verify>:
utee_asymm_verify():
/home/lagadanu/Desktop/qemu/optee_os/lib/libutee/arch/arm/utee_syscalls_asm.S:93
    4f60:	d2800508 	mov	x8, #0x28                  	// #40
    4f64:	d4000001 	svc	#0x0
    4f68:	d65f03c0 	ret

0000000000004f6c <utee_storage_obj_open>:
utee_storage_obj_open():
/home/lagadanu/Desktop/qemu/optee_os/lib/libutee/arch/arm/utee_syscalls_asm.S:95
    4f6c:	d2800528 	mov	x8, #0x29                  	// #41
    4f70:	d4000001 	svc	#0x0
    4f74:	d65f03c0 	ret

0000000000004f78 <utee_storage_obj_create>:
utee_storage_obj_create():
/home/lagadanu/Desktop/qemu/optee_os/lib/libutee/arch/arm/utee_syscalls_asm.S:97
    4f78:	d2800548 	mov	x8, #0x2a                  	// #42
    4f7c:	d4000001 	svc	#0x0
    4f80:	d65f03c0 	ret

0000000000004f84 <utee_storage_obj_del>:
utee_storage_obj_del():
/home/lagadanu/Desktop/qemu/optee_os/lib/libutee/arch/arm/utee_syscalls_asm.S:99
    4f84:	d2800568 	mov	x8, #0x2b                  	// #43
    4f88:	d4000001 	svc	#0x0
    4f8c:	d65f03c0 	ret

0000000000004f90 <utee_storage_obj_rename>:
utee_storage_obj_rename():
/home/lagadanu/Desktop/qemu/optee_os/lib/libutee/arch/arm/utee_syscalls_asm.S:101
    4f90:	d2800588 	mov	x8, #0x2c                  	// #44
    4f94:	d4000001 	svc	#0x0
    4f98:	d65f03c0 	ret

0000000000004f9c <utee_storage_alloc_enum>:
utee_storage_alloc_enum():
/home/lagadanu/Desktop/qemu/optee_os/lib/libutee/arch/arm/utee_syscalls_asm.S:103
    4f9c:	d28005a8 	mov	x8, #0x2d                  	// #45
    4fa0:	d4000001 	svc	#0x0
    4fa4:	d65f03c0 	ret

0000000000004fa8 <utee_storage_free_enum>:
utee_storage_free_enum():
/home/lagadanu/Desktop/qemu/optee_os/lib/libutee/arch/arm/utee_syscalls_asm.S:105
    4fa8:	d28005c8 	mov	x8, #0x2e                  	// #46
    4fac:	d4000001 	svc	#0x0
    4fb0:	d65f03c0 	ret

0000000000004fb4 <utee_storage_reset_enum>:
utee_storage_reset_enum():
/home/lagadanu/Desktop/qemu/optee_os/lib/libutee/arch/arm/utee_syscalls_asm.S:107
    4fb4:	d28005e8 	mov	x8, #0x2f                  	// #47
    4fb8:	d4000001 	svc	#0x0
    4fbc:	d65f03c0 	ret

0000000000004fc0 <utee_storage_start_enum>:
utee_storage_start_enum():
/home/lagadanu/Desktop/qemu/optee_os/lib/libutee/arch/arm/utee_syscalls_asm.S:109
    4fc0:	d2800608 	mov	x8, #0x30                  	// #48
    4fc4:	d4000001 	svc	#0x0
    4fc8:	d65f03c0 	ret

0000000000004fcc <utee_storage_next_enum>:
utee_storage_next_enum():
/home/lagadanu/Desktop/qemu/optee_os/lib/libutee/arch/arm/utee_syscalls_asm.S:111
    4fcc:	d2800628 	mov	x8, #0x31                  	// #49
    4fd0:	d4000001 	svc	#0x0
    4fd4:	d65f03c0 	ret

0000000000004fd8 <utee_storage_obj_read>:
utee_storage_obj_read():
/home/lagadanu/Desktop/qemu/optee_os/lib/libutee/arch/arm/utee_syscalls_asm.S:113
    4fd8:	d2800648 	mov	x8, #0x32                  	// #50
    4fdc:	d4000001 	svc	#0x0
    4fe0:	d65f03c0 	ret

0000000000004fe4 <utee_storage_obj_write>:
utee_storage_obj_write():
/home/lagadanu/Desktop/qemu/optee_os/lib/libutee/arch/arm/utee_syscalls_asm.S:115
    4fe4:	d2800668 	mov	x8, #0x33                  	// #51
    4fe8:	d4000001 	svc	#0x0
    4fec:	d65f03c0 	ret

0000000000004ff0 <utee_storage_obj_trunc>:
utee_storage_obj_trunc():
/home/lagadanu/Desktop/qemu/optee_os/lib/libutee/arch/arm/utee_syscalls_asm.S:117
    4ff0:	d2800688 	mov	x8, #0x34                  	// #52
    4ff4:	d4000001 	svc	#0x0
    4ff8:	d65f03c0 	ret

0000000000004ffc <utee_storage_obj_seek>:
utee_storage_obj_seek():
/home/lagadanu/Desktop/qemu/optee_os/lib/libutee/arch/arm/utee_syscalls_asm.S:119
    4ffc:	d28006a8 	mov	x8, #0x35                  	// #53
    5000:	d4000001 	svc	#0x0
    5004:	d65f03c0 	ret

0000000000005008 <utee_cryp_obj_generate_key>:
utee_cryp_obj_generate_key():
/home/lagadanu/Desktop/qemu/optee_os/lib/libutee/arch/arm/utee_syscalls_asm.S:121
    5008:	d28006c8 	mov	x8, #0x36                  	// #54
    500c:	d4000001 	svc	#0x0
    5010:	d65f03c0 	ret

0000000000005014 <utee_se_service_open>:
utee_se_service_open():
/home/lagadanu/Desktop/qemu/optee_os/lib/libutee/arch/arm/utee_syscalls_asm.S:124
    5014:	d28006e8 	mov	x8, #0x37                  	// #55
    5018:	d4000001 	svc	#0x0
    501c:	d65f03c0 	ret

0000000000005020 <utee_se_service_close>:
utee_se_service_close():
/home/lagadanu/Desktop/qemu/optee_os/lib/libutee/arch/arm/utee_syscalls_asm.S:126
    5020:	d2800708 	mov	x8, #0x38                  	// #56
    5024:	d4000001 	svc	#0x0
    5028:	d65f03c0 	ret

000000000000502c <utee_se_service_get_readers>:
utee_se_service_get_readers():
/home/lagadanu/Desktop/qemu/optee_os/lib/libutee/arch/arm/utee_syscalls_asm.S:128
    502c:	d2800728 	mov	x8, #0x39                  	// #57
    5030:	d4000001 	svc	#0x0
    5034:	d65f03c0 	ret

0000000000005038 <utee_se_reader_get_prop>:
utee_se_reader_get_prop():
/home/lagadanu/Desktop/qemu/optee_os/lib/libutee/arch/arm/utee_syscalls_asm.S:131
    5038:	d2800748 	mov	x8, #0x3a                  	// #58
    503c:	d4000001 	svc	#0x0
    5040:	d65f03c0 	ret

0000000000005044 <utee_se_reader_get_name>:
utee_se_reader_get_name():
/home/lagadanu/Desktop/qemu/optee_os/lib/libutee/arch/arm/utee_syscalls_asm.S:134
    5044:	d2800768 	mov	x8, #0x3b                  	// #59
    5048:	d4000001 	svc	#0x0
    504c:	d65f03c0 	ret

0000000000005050 <utee_se_reader_open_session>:
utee_se_reader_open_session():
/home/lagadanu/Desktop/qemu/optee_os/lib/libutee/arch/arm/utee_syscalls_asm.S:137
    5050:	d2800788 	mov	x8, #0x3c                  	// #60
    5054:	d4000001 	svc	#0x0
    5058:	d65f03c0 	ret

000000000000505c <utee_se_reader_close_sessions>:
utee_se_reader_close_sessions():
/home/lagadanu/Desktop/qemu/optee_os/lib/libutee/arch/arm/utee_syscalls_asm.S:140
    505c:	d28007a8 	mov	x8, #0x3d                  	// #61
    5060:	d4000001 	svc	#0x0
    5064:	d65f03c0 	ret

0000000000005068 <utee_se_session_is_closed>:
utee_se_session_is_closed():
/home/lagadanu/Desktop/qemu/optee_os/lib/libutee/arch/arm/utee_syscalls_asm.S:143
    5068:	d28007c8 	mov	x8, #0x3e                  	// #62
    506c:	d4000001 	svc	#0x0
    5070:	d65f03c0 	ret

0000000000005074 <utee_se_session_get_atr>:
utee_se_session_get_atr():
/home/lagadanu/Desktop/qemu/optee_os/lib/libutee/arch/arm/utee_syscalls_asm.S:146
    5074:	d28007e8 	mov	x8, #0x3f                  	// #63
    5078:	d4000001 	svc	#0x0
    507c:	d65f03c0 	ret

0000000000005080 <utee_se_session_open_channel>:
utee_se_session_open_channel():
/home/lagadanu/Desktop/qemu/optee_os/lib/libutee/arch/arm/utee_syscalls_asm.S:149
    5080:	d2800808 	mov	x8, #0x40                  	// #64
    5084:	d4000001 	svc	#0x0
    5088:	d65f03c0 	ret

000000000000508c <utee_se_session_close>:
utee_se_session_close():
/home/lagadanu/Desktop/qemu/optee_os/lib/libutee/arch/arm/utee_syscalls_asm.S:152
    508c:	d2800828 	mov	x8, #0x41                  	// #65
    5090:	d4000001 	svc	#0x0
    5094:	d65f03c0 	ret

0000000000005098 <utee_se_channel_select_next>:
utee_se_channel_select_next():
/home/lagadanu/Desktop/qemu/optee_os/lib/libutee/arch/arm/utee_syscalls_asm.S:155
    5098:	d2800848 	mov	x8, #0x42                  	// #66
    509c:	d4000001 	svc	#0x0
    50a0:	d65f03c0 	ret

00000000000050a4 <utee_se_channel_get_select_resp>:
utee_se_channel_get_select_resp():
/home/lagadanu/Desktop/qemu/optee_os/lib/libutee/arch/arm/utee_syscalls_asm.S:158
    50a4:	d2800868 	mov	x8, #0x43                  	// #67
    50a8:	d4000001 	svc	#0x0
    50ac:	d65f03c0 	ret

00000000000050b0 <utee_se_channel_transmit>:
utee_se_channel_transmit():
/home/lagadanu/Desktop/qemu/optee_os/lib/libutee/arch/arm/utee_syscalls_asm.S:161
    50b0:	d2800888 	mov	x8, #0x44                  	// #68
    50b4:	d4000001 	svc	#0x0
    50b8:	d65f03c0 	ret

00000000000050bc <utee_se_channel_close>:
utee_se_channel_close():
/home/lagadanu/Desktop/qemu/optee_os/lib/libutee/arch/arm/utee_syscalls_asm.S:164
    50bc:	d28008a8 	mov	x8, #0x45                  	// #69
    50c0:	d4000001 	svc	#0x0
    50c4:	d65f03c0 	ret

00000000000050c8 <utee_cache_operation>:
utee_cache_operation():
/home/lagadanu/Desktop/qemu/optee_os/lib/libutee/arch/arm/utee_syscalls_asm.S:167
    50c8:	d28008c8 	mov	x8, #0x46                  	// #70
    50cc:	d4000001 	svc	#0x0
    50d0:	d65f03c0 	ret

00000000000050d4 <__utee_mcount>:
__utee_mcount():
/home/lagadanu/Desktop/qemu/optee_os/lib/libutee/arch/arm/gprof/gprof_a64.S:52
    50d4:	d65f03c0 	ret

00000000000050d8 <_TEE_MathAPI_Init>:
_TEE_MathAPI_Init():
/home/lagadanu/Desktop/qemu/optee_os/lib/libutee/tee_api_arith.c:50
    50d8:	a9be7bfd 	stp	x29, x30, [sp,#-32]!
/home/lagadanu/Desktop/qemu/optee_os/lib/libutee/tee_api_arith.c:53
    50dc:	d2800002 	mov	x2, #0x0                   	// #0
    50e0:	d2833001 	mov	x1, #0x1980                	// #6528
    50e4:	90000080 	adrp	x0, 15000 <ta_heap+0x7e98>
/home/lagadanu/Desktop/qemu/optee_os/lib/libutee/tee_api_arith.c:50
    50e8:	910003fd 	mov	x29, sp
    50ec:	f9000bf3 	str	x19, [sp,#16]
/home/lagadanu/Desktop/qemu/optee_os/lib/libutee/tee_api_arith.c:53
    50f0:	9106e000 	add	x0, x0, #0x1b8
    50f4:	94001533 	bl	a5c0 <mempool_alloc_pool>
    50f8:	b0000081 	adrp	x1, 16000 <mempool_u32+0xe48>
    50fc:	910ae022 	add	x2, x1, #0x2b8
    5100:	aa0103f3 	mov	x19, x1
    5104:	f9044040 	str	x0, [x2,#2176]
/home/lagadanu/Desktop/qemu/optee_os/lib/libutee/tee_api_arith.c:54
    5108:	b5000040 	cbnz	x0, 5110 <_TEE_MathAPI_Init+0x38>
/home/lagadanu/Desktop/qemu/optee_os/lib/libutee/tee_api_arith.c:55
    510c:	97fffe67 	bl	4aa8 <TEE_Panic>
/home/lagadanu/Desktop/qemu/optee_os/lib/libutee/tee_api_arith.c:61
    5110:	910ae260 	add	x0, x19, #0x2b8
    5114:	52820002 	mov	w2, #0x1000                	// #4096
/home/lagadanu/Desktop/qemu/optee_os/lib/libutee/tee_api_arith.c:63
    5118:	f9400bf3 	ldr	x19, [sp,#16]
/home/lagadanu/Desktop/qemu/optee_os/lib/libutee/tee_api_arith.c:61
    511c:	91220001 	add	x1, x0, #0x880
    5120:	b9088802 	str	w2, [x0,#2184]
/home/lagadanu/Desktop/qemu/optee_os/lib/libutee/tee_api_arith.c:62
    5124:	f9044801 	str	x1, [x0,#2192]
/home/lagadanu/Desktop/qemu/optee_os/lib/libutee/tee_api_arith.c:63
    5128:	a8c27bfd 	ldp	x29, x30, [sp],#32
    512c:	d65f03c0 	ret

0000000000005130 <TEE_BigIntInit>:
TEE_BigIntInit():
/home/lagadanu/Desktop/qemu/optee_os/lib/libutee/tee_api_arith.c:70
    5130:	14000def 	b	88ec <mpa_init_static>

0000000000005134 <TEE_BigIntInitFMM>:
TEE_BigIntInitFMM():
/home/lagadanu/Desktop/qemu/optee_os/lib/libutee/tee_api_arith.c:80
    5134:	531e7421 	lsl	w1, w1, #2
    5138:	51002021 	sub	w1, w1, #0x8
    513c:	d3427c21 	ubfx	x1, x1, #2, #30
/home/lagadanu/Desktop/qemu/optee_os/lib/libutee/tee_api_arith.c:81
    5140:	29007c01 	stp	w1, wzr, [x0]
    5144:	d65f03c0 	ret

0000000000005148 <TEE_BigIntInitFMMContext>:
TEE_BigIntInitFMMContext():
/home/lagadanu/Desktop/qemu/optee_os/lib/libutee/tee_api_arith.c:89
    5148:	a9be7bfd 	stp	x29, x30, [sp,#-32]!
    514c:	910003fd 	mov	x29, sp
    5150:	a90153f3 	stp	x19, x20, [sp,#16]
    5154:	aa0003f3 	mov	x19, x0
    5158:	aa0203f4 	mov	x20, x2
/home/lagadanu/Desktop/qemu/optee_os/lib/libutee/tee_api_arith.c:93
    515c:	94000deb 	bl	8908 <mpa_init_static_fmm_context>
/home/lagadanu/Desktop/qemu/optee_os/lib/libutee/tee_api_arith.c:94
    5160:	b0000080 	adrp	x0, 16000 <mempool_u32+0xe48>
    5164:	91004263 	add	x3, x19, #0x10
    5168:	a9400a61 	ldp	x1, x2, [x19]
    516c:	f945a404 	ldr	x4, [x0,#2888]
    5170:	aa1403e0 	mov	x0, x20
/home/lagadanu/Desktop/qemu/optee_os/lib/libutee/tee_api_arith.c:97
    5174:	a94153f3 	ldp	x19, x20, [sp,#16]
    5178:	a8c27bfd 	ldp	x29, x30, [sp],#32
/home/lagadanu/Desktop/qemu/optee_os/lib/libutee/tee_api_arith.c:94
    517c:	14000282 	b	5b84 <mpa_compute_fmm_context>

0000000000005180 <TEE_BigIntFMMSizeInU32>:
TEE_BigIntFMMSizeInU32():
/home/lagadanu/Desktop/qemu/optee_os/lib/libutee/tee_api_arith.c:108
    5180:	11007c00 	add	w0, w0, #0x1f
    5184:	53057c00 	lsr	w0, w0, #5
/home/lagadanu/Desktop/qemu/optee_os/lib/libutee/tee_api_arith.c:109
    5188:	11000c00 	add	w0, w0, #0x3
    518c:	d65f03c0 	ret

0000000000005190 <TEE_BigIntFMMContextSizeInU32>:
TEE_BigIntFMMContextSizeInU32():
/home/lagadanu/Desktop/qemu/optee_os/lib/libutee/tee_api_arith.c:116
    5190:	11007c00 	add	w0, w0, #0x1f
    5194:	53057c00 	lsr	w0, w0, #5
    5198:	11001c00 	add	w0, w0, #0x7
/home/lagadanu/Desktop/qemu/optee_os/lib/libutee/tee_api_arith.c:117
    519c:	531f7800 	lsl	w0, w0, #1
    51a0:	d65f03c0 	ret

00000000000051a4 <TEE_BigIntConvertFromOctetString>:
TEE_BigIntConvertFromOctetString():
/home/lagadanu/Desktop/qemu/optee_os/lib/libutee/tee_api_arith.c:130
    51a4:	a9bf7bfd 	stp	x29, x30, [sp,#-16]!
/home/lagadanu/Desktop/qemu/optee_os/lib/libutee/tee_api_arith.c:135
    51a8:	531f7c63 	lsr	w3, w3, #31
    51ac:	2a0203e2 	mov	w2, w2
/home/lagadanu/Desktop/qemu/optee_os/lib/libutee/tee_api_arith.c:130
    51b0:	910003fd 	mov	x29, sp
/home/lagadanu/Desktop/qemu/optee_os/lib/libutee/tee_api_arith.c:135
    51b4:	94000f1d 	bl	8e28 <mpa_set_oct_str>
/home/lagadanu/Desktop/qemu/optee_os/lib/libutee/tee_api_arith.c:136
    51b8:	7100001f 	cmp	w0, #0x0
/home/lagadanu/Desktop/qemu/optee_os/lib/libutee/tee_api_arith.c:145
    51bc:	a8c17bfd 	ldp	x29, x30, [sp],#16
    51c0:	1299fe00 	mov	w0, #0xffff300f            	// #-53233
    51c4:	1a9f1000 	csel	w0, w0, wzr, ne
    51c8:	d65f03c0 	ret

00000000000051cc <TEE_BigIntConvertToOctetString>:
TEE_BigIntConvertToOctetString():
/home/lagadanu/Desktop/qemu/optee_os/lib/libutee/tee_api_arith.c:153
    51cc:	a9bd7bfd 	stp	x29, x30, [sp,#-48]!
    51d0:	910003fd 	mov	x29, sp
    51d4:	f9000bf3 	str	x19, [sp,#16]
    51d8:	aa0103f3 	mov	x19, x1
/home/lagadanu/Desktop/qemu/optee_os/lib/libutee/tee_api_arith.c:155
    51dc:	9100c3a1 	add	x1, x29, #0x30
    51e0:	b9400263 	ldr	w3, [x19]
    51e4:	f81f8c23 	str	x3, [x1,#-8]!
/home/lagadanu/Desktop/qemu/optee_os/lib/libutee/tee_api_arith.c:158
    51e8:	94000f54 	bl	8f38 <mpa_get_oct_str>
/home/lagadanu/Desktop/qemu/optee_os/lib/libutee/tee_api_arith.c:159
    51ec:	7100001f 	cmp	w0, #0x0
/home/lagadanu/Desktop/qemu/optee_os/lib/libutee/tee_api_arith.c:163
    51f0:	f94017a0 	ldr	x0, [x29,#40]
    51f4:	b9000260 	str	w0, [x19]
/home/lagadanu/Desktop/qemu/optee_os/lib/libutee/tee_api_arith.c:170
    51f8:	f9400bf3 	ldr	x19, [sp,#16]
    51fc:	129ffde0 	mov	w0, #0xffff0010            	// #-65520
    5200:	1a9f1000 	csel	w0, w0, wzr, ne
    5204:	a8c37bfd 	ldp	x29, x30, [sp],#48
    5208:	d65f03c0 	ret

000000000000520c <TEE_BigIntConvertFromS32>:
TEE_BigIntConvertFromS32():
/home/lagadanu/Desktop/qemu/optee_os/lib/libutee/tee_api_arith.c:180
    520c:	140003ba 	b	60f4 <mpa_set_S32>

0000000000005210 <TEE_BigIntConvertToS32>:
TEE_BigIntConvertToS32():
/home/lagadanu/Desktop/qemu/optee_os/lib/libutee/tee_api_arith.c:190
    5210:	a9bf7bfd 	stp	x29, x30, [sp,#-16]!
    5214:	910003fd 	mov	x29, sp
/home/lagadanu/Desktop/qemu/optee_os/lib/libutee/tee_api_arith.c:194
    5218:	940003c2 	bl	6120 <mpa_get_S32>
/home/lagadanu/Desktop/qemu/optee_os/lib/libutee/tee_api_arith.c:195
    521c:	7100001f 	cmp	w0, #0x0
/home/lagadanu/Desktop/qemu/optee_os/lib/libutee/tee_api_arith.c:204
    5220:	a8c17bfd 	ldp	x29, x30, [sp],#16
    5224:	1299fe00 	mov	w0, #0xffff300f            	// #-53233
    5228:	1a9f1000 	csel	w0, w0, wzr, ne
    522c:	d65f03c0 	ret

0000000000005230 <TEE_BigIntCmp>:
TEE_BigIntCmp():
/home/lagadanu/Desktop/qemu/optee_os/lib/libutee/tee_api_arith.c:218
    5230:	14000d05 	b	8644 <mpa_cmp>

0000000000005234 <TEE_BigIntCmpS32>:
TEE_BigIntCmpS32():
/home/lagadanu/Desktop/qemu/optee_os/lib/libutee/tee_api_arith.c:228
    5234:	14000d1e 	b	86ac <mpa_cmp_short>

0000000000005238 <TEE_BigIntShiftRight>:
TEE_BigIntShiftRight():
/home/lagadanu/Desktop/qemu/optee_os/lib/libutee/tee_api_arith.c:240
    5238:	14000a3c 	b	7b28 <mpa_shift_right>

000000000000523c <TEE_BigIntGetBit>:
TEE_BigIntGetBit():
/home/lagadanu/Desktop/qemu/optee_os/lib/libutee/tee_api_arith.c:247
    523c:	a9bf7bfd 	stp	x29, x30, [sp,#-16]!
    5240:	910003fd 	mov	x29, sp
/home/lagadanu/Desktop/qemu/optee_os/lib/libutee/tee_api_arith.c:250
    5244:	940001a7 	bl	58e0 <mpa_get_bit>
    5248:	7100001f 	cmp	w0, #0x0
/home/lagadanu/Desktop/qemu/optee_os/lib/libutee/tee_api_arith.c:251
    524c:	1a9f07e0 	cset	w0, ne
    5250:	a8c17bfd 	ldp	x29, x30, [sp],#16
    5254:	d65f03c0 	ret

0000000000005258 <TEE_BigIntGetBitCount>:
TEE_BigIntGetBitCount():
/home/lagadanu/Desktop/qemu/optee_os/lib/libutee/tee_api_arith.c:257
    5258:	a9bf7bfd 	stp	x29, x30, [sp,#-16]!
    525c:	910003fd 	mov	x29, sp
/home/lagadanu/Desktop/qemu/optee_os/lib/libutee/tee_api_arith.c:260
    5260:	9400018f 	bl	589c <mpa_highest_bit_index>
/home/lagadanu/Desktop/qemu/optee_os/lib/libutee/tee_api_arith.c:261
    5264:	11000400 	add	w0, w0, #0x1
    5268:	a8c17bfd 	ldp	x29, x30, [sp],#16
    526c:	d65f03c0 	ret

0000000000005270 <TEE_BigIntAdd>:
TEE_BigIntAdd():
/home/lagadanu/Desktop/qemu/optee_os/lib/libutee/tee_api_arith.c:277
    5270:	b0000083 	adrp	x3, 16000 <mempool_u32+0xe48>
    5274:	f945a463 	ldr	x3, [x3,#2888]
    5278:	14000b46 	b	7f90 <mpa_add>

000000000000527c <TEE_BigIntSub>:
TEE_BigIntSub():
/home/lagadanu/Desktop/qemu/optee_os/lib/libutee/tee_api_arith.c:290
    527c:	b0000083 	adrp	x3, 16000 <mempool_u32+0xe48>
    5280:	f945a463 	ldr	x3, [x3,#2888]
    5284:	14000ba8 	b	8124 <mpa_sub>

0000000000005288 <TEE_BigIntNeg>:
TEE_BigIntNeg():
/home/lagadanu/Desktop/qemu/optee_os/lib/libutee/tee_api_arith.c:301
    5288:	14000c0e 	b	82c0 <mpa_neg>

000000000000528c <TEE_BigIntMul>:
TEE_BigIntMul():
/home/lagadanu/Desktop/qemu/optee_os/lib/libutee/tee_api_arith.c:314
    528c:	b0000083 	adrp	x3, 16000 <mempool_u32+0xe48>
    5290:	f945a463 	ldr	x3, [x3,#2888]
    5294:	140008bc 	b	7584 <mpa_mul>

0000000000005298 <TEE_BigIntSquare>:
TEE_BigIntSquare():
/home/lagadanu/Desktop/qemu/optee_os/lib/libutee/tee_api_arith.c:325
    5298:	b0000082 	adrp	x2, 16000 <mempool_u32+0xe48>
    529c:	f945a443 	ldr	x3, [x2,#2888]
    52a0:	aa0103e2 	mov	x2, x1
    52a4:	140008b8 	b	7584 <mpa_mul>

00000000000052a8 <TEE_BigIntDiv>:
TEE_BigIntDiv():
/home/lagadanu/Desktop/qemu/optee_os/lib/libutee/tee_api_arith.c:333
    52a8:	a9bd7bfd 	stp	x29, x30, [sp,#-48]!
    52ac:	910003fd 	mov	x29, sp
    52b0:	a90153f3 	stp	x19, x20, [sp,#16]
    52b4:	aa0003f4 	mov	x20, x0
    52b8:	a9025bf5 	stp	x21, x22, [sp,#32]
    52bc:	aa0303f3 	mov	x19, x3
    52c0:	aa0103f5 	mov	x21, x1
    52c4:	aa0203f6 	mov	x22, x2
TEE_BigIntCmpS32():
/home/lagadanu/Desktop/qemu/optee_os/lib/libutee/tee_api_arith.c:228
    52c8:	52800001 	mov	w1, #0x0                   	// #0
    52cc:	aa0303e0 	mov	x0, x3
    52d0:	94000cf7 	bl	86ac <mpa_cmp_short>
TEE_BigIntDiv():
/home/lagadanu/Desktop/qemu/optee_os/lib/libutee/tee_api_arith.c:339
    52d4:	35000080 	cbnz	w0, 52e4 <TEE_BigIntDiv+0x3c>
/home/lagadanu/Desktop/qemu/optee_os/lib/libutee/tee_api_arith.c:340
    52d8:	d0000020 	adrp	x0, b000 <PRIME_TABLE+0x7f0>
    52dc:	911e1000 	add	x0, x0, #0x784
    52e0:	9400012f 	bl	579c <TEE_BigInt_Panic>
/home/lagadanu/Desktop/qemu/optee_os/lib/libutee/tee_api_arith.c:342
    52e4:	b0000080 	adrp	x0, 16000 <mempool_u32+0xe48>
    52e8:	aa1303e3 	mov	x3, x19
    52ec:	aa1603e2 	mov	x2, x22
    52f0:	aa1503e1 	mov	x1, x21
    52f4:	f945a404 	ldr	x4, [x0,#2888]
    52f8:	aa1403e0 	mov	x0, x20
/home/lagadanu/Desktop/qemu/optee_os/lib/libutee/tee_api_arith.c:343
    52fc:	a9425bf5 	ldp	x21, x22, [sp,#32]
    5300:	a94153f3 	ldp	x19, x20, [sp,#16]
    5304:	a8c37bfd 	ldp	x29, x30, [sp],#48
/home/lagadanu/Desktop/qemu/optee_os/lib/libutee/tee_api_arith.c:342
    5308:	140005b6 	b	69e0 <mpa_div>

000000000000530c <TEE_BigIntMod>:
TEE_BigIntMod():
/home/lagadanu/Desktop/qemu/optee_os/lib/libutee/tee_api_arith.c:354
    530c:	a9bd7bfd 	stp	x29, x30, [sp,#-48]!
    5310:	910003fd 	mov	x29, sp
    5314:	a9025bf5 	stp	x21, x22, [sp,#32]
    5318:	aa0103f6 	mov	x22, x1
    531c:	a90153f3 	stp	x19, x20, [sp,#16]
    5320:	aa0203f5 	mov	x21, x2
    5324:	aa0003f4 	mov	x20, x0
TEE_BigIntCmpS32():
/home/lagadanu/Desktop/qemu/optee_os/lib/libutee/tee_api_arith.c:228
    5328:	52800041 	mov	w1, #0x2                   	// #2
    532c:	aa0203e0 	mov	x0, x2
    5330:	94000cdf 	bl	86ac <mpa_cmp_short>
TEE_BigIntMod():
/home/lagadanu/Desktop/qemu/optee_os/lib/libutee/tee_api_arith.c:359
    5334:	36f80080 	tbz	w0, #31, 5344 <TEE_BigIntMod+0x38>
/home/lagadanu/Desktop/qemu/optee_os/lib/libutee/tee_api_arith.c:360
    5338:	d0000020 	adrp	x0, b000 <PRIME_TABLE+0x7f0>
    533c:	911e5000 	add	x0, x0, #0x794
    5340:	94000117 	bl	579c <TEE_BigInt_Panic>
/home/lagadanu/Desktop/qemu/optee_os/lib/libutee/tee_api_arith.c:362
    5344:	b0000093 	adrp	x19, 16000 <mempool_u32+0xe48>
    5348:	910ae273 	add	x19, x19, #0x2b8
    534c:	aa1503e2 	mov	x2, x21
    5350:	aa1603e1 	mov	x1, x22
    5354:	aa1403e0 	mov	x0, x20
    5358:	f9444a63 	ldr	x3, [x19,#2192]
    535c:	94000f54 	bl	90ac <mpa_mod>
/home/lagadanu/Desktop/qemu/optee_os/lib/libutee/tee_api_arith.c:364
    5360:	52800001 	mov	w1, #0x0                   	// #0
    5364:	aa1403e0 	mov	x0, x20
    5368:	94000cd1 	bl	86ac <mpa_cmp_short>
    536c:	36f80120 	tbz	w0, #31, 5390 <TEE_BigIntMod+0x84>
/home/lagadanu/Desktop/qemu/optee_os/lib/libutee/tee_api_arith.c:365
    5370:	aa1503e2 	mov	x2, x21
    5374:	aa1403e1 	mov	x1, x20
    5378:	aa1403e0 	mov	x0, x20
    537c:	f9444a63 	ldr	x3, [x19,#2192]
/home/lagadanu/Desktop/qemu/optee_os/lib/libutee/tee_api_arith.c:366
    5380:	a9425bf5 	ldp	x21, x22, [sp,#32]
    5384:	a94153f3 	ldp	x19, x20, [sp,#16]
    5388:	a8c37bfd 	ldp	x29, x30, [sp],#48
/home/lagadanu/Desktop/qemu/optee_os/lib/libutee/tee_api_arith.c:365
    538c:	14000b01 	b	7f90 <mpa_add>
/home/lagadanu/Desktop/qemu/optee_os/lib/libutee/tee_api_arith.c:366
    5390:	a94153f3 	ldp	x19, x20, [sp,#16]
    5394:	a9425bf5 	ldp	x21, x22, [sp,#32]
    5398:	a8c37bfd 	ldp	x29, x30, [sp],#48
    539c:	d65f03c0 	ret

00000000000053a0 <TEE_BigIntAddMod>:
TEE_BigIntAddMod():
/home/lagadanu/Desktop/qemu/optee_os/lib/libutee/tee_api_arith.c:373
    53a0:	a9bc7bfd 	stp	x29, x30, [sp,#-64]!
    53a4:	910003fd 	mov	x29, sp
    53a8:	a9025bf5 	stp	x21, x22, [sp,#32]
    53ac:	aa0103f6 	mov	x22, x1
    53b0:	a90153f3 	stp	x19, x20, [sp,#16]
    53b4:	aa0303f5 	mov	x21, x3
    53b8:	f9001bf7 	str	x23, [sp,#48]
    53bc:	aa0003f4 	mov	x20, x0
TEE_BigIntCmpS32():
/home/lagadanu/Desktop/qemu/optee_os/lib/libutee/tee_api_arith.c:228
    53c0:	52800041 	mov	w1, #0x2                   	// #2
    53c4:	aa0303e0 	mov	x0, x3
TEE_BigIntAddMod():
/home/lagadanu/Desktop/qemu/optee_os/lib/libutee/tee_api_arith.c:373
    53c8:	aa0203f7 	mov	x23, x2
TEE_BigIntCmpS32():
/home/lagadanu/Desktop/qemu/optee_os/lib/libutee/tee_api_arith.c:228
    53cc:	94000cb8 	bl	86ac <mpa_cmp_short>
TEE_BigIntAddMod():
/home/lagadanu/Desktop/qemu/optee_os/lib/libutee/tee_api_arith.c:379
    53d0:	36f80080 	tbz	w0, #31, 53e0 <TEE_BigIntAddMod+0x40>
/home/lagadanu/Desktop/qemu/optee_os/lib/libutee/tee_api_arith.c:380
    53d4:	d0000020 	adrp	x0, b000 <PRIME_TABLE+0x7f0>
    53d8:	911e5000 	add	x0, x0, #0x794
    53dc:	940000f0 	bl	579c <TEE_BigInt_Panic>
/home/lagadanu/Desktop/qemu/optee_os/lib/libutee/tee_api_arith.c:382
    53e0:	b0000093 	adrp	x19, 16000 <mempool_u32+0xe48>
    53e4:	910ae273 	add	x19, x19, #0x2b8
    53e8:	aa1503e3 	mov	x3, x21
    53ec:	aa1703e2 	mov	x2, x23
    53f0:	aa1603e1 	mov	x1, x22
    53f4:	aa1403e0 	mov	x0, x20
    53f8:	f9444a64 	ldr	x4, [x19,#2192]
    53fc:	94000f32 	bl	90c4 <mpa_add_mod>
/home/lagadanu/Desktop/qemu/optee_os/lib/libutee/tee_api_arith.c:383
    5400:	52800001 	mov	w1, #0x0                   	// #0
    5404:	aa1403e0 	mov	x0, x20
    5408:	94000ca9 	bl	86ac <mpa_cmp_short>
    540c:	36f80140 	tbz	w0, #31, 5434 <TEE_BigIntAddMod+0x94>
/home/lagadanu/Desktop/qemu/optee_os/lib/libutee/tee_api_arith.c:384
    5410:	aa1503e2 	mov	x2, x21
    5414:	aa1403e1 	mov	x1, x20
    5418:	aa1403e0 	mov	x0, x20
    541c:	f9444a63 	ldr	x3, [x19,#2192]
/home/lagadanu/Desktop/qemu/optee_os/lib/libutee/tee_api_arith.c:385
    5420:	a9425bf5 	ldp	x21, x22, [sp,#32]
    5424:	a94153f3 	ldp	x19, x20, [sp,#16]
    5428:	f9401bf7 	ldr	x23, [sp,#48]
    542c:	a8c47bfd 	ldp	x29, x30, [sp],#64
/home/lagadanu/Desktop/qemu/optee_os/lib/libutee/tee_api_arith.c:384
    5430:	14000ad8 	b	7f90 <mpa_add>
/home/lagadanu/Desktop/qemu/optee_os/lib/libutee/tee_api_arith.c:385
    5434:	a94153f3 	ldp	x19, x20, [sp,#16]
    5438:	a9425bf5 	ldp	x21, x22, [sp,#32]
    543c:	f9401bf7 	ldr	x23, [sp,#48]
    5440:	a8c47bfd 	ldp	x29, x30, [sp],#64
    5444:	d65f03c0 	ret

0000000000005448 <TEE_BigIntSubMod>:
TEE_BigIntSubMod():
/home/lagadanu/Desktop/qemu/optee_os/lib/libutee/tee_api_arith.c:392
    5448:	a9bc7bfd 	stp	x29, x30, [sp,#-64]!
    544c:	910003fd 	mov	x29, sp
    5450:	a9025bf5 	stp	x21, x22, [sp,#32]
    5454:	aa0103f6 	mov	x22, x1
    5458:	a90153f3 	stp	x19, x20, [sp,#16]
    545c:	aa0303f5 	mov	x21, x3
    5460:	f9001bf7 	str	x23, [sp,#48]
    5464:	aa0003f4 	mov	x20, x0
TEE_BigIntCmpS32():
/home/lagadanu/Desktop/qemu/optee_os/lib/libutee/tee_api_arith.c:228
    5468:	52800041 	mov	w1, #0x2                   	// #2
    546c:	aa0303e0 	mov	x0, x3
TEE_BigIntSubMod():
/home/lagadanu/Desktop/qemu/optee_os/lib/libutee/tee_api_arith.c:392
    5470:	aa0203f7 	mov	x23, x2
TEE_BigIntCmpS32():
/home/lagadanu/Desktop/qemu/optee_os/lib/libutee/tee_api_arith.c:228
    5474:	94000c8e 	bl	86ac <mpa_cmp_short>
TEE_BigIntSubMod():
/home/lagadanu/Desktop/qemu/optee_os/lib/libutee/tee_api_arith.c:398
    5478:	36f80080 	tbz	w0, #31, 5488 <TEE_BigIntSubMod+0x40>
/home/lagadanu/Desktop/qemu/optee_os/lib/libutee/tee_api_arith.c:399
    547c:	d0000020 	adrp	x0, b000 <PRIME_TABLE+0x7f0>
    5480:	911e5000 	add	x0, x0, #0x794
    5484:	940000c6 	bl	579c <TEE_BigInt_Panic>
/home/lagadanu/Desktop/qemu/optee_os/lib/libutee/tee_api_arith.c:401
    5488:	b0000093 	adrp	x19, 16000 <mempool_u32+0xe48>
    548c:	910ae273 	add	x19, x19, #0x2b8
    5490:	aa1503e3 	mov	x3, x21
    5494:	aa1703e2 	mov	x2, x23
    5498:	aa1603e1 	mov	x1, x22
    549c:	aa1403e0 	mov	x0, x20
    54a0:	f9444a64 	ldr	x4, [x19,#2192]
    54a4:	94000f29 	bl	9148 <mpa_sub_mod>
/home/lagadanu/Desktop/qemu/optee_os/lib/libutee/tee_api_arith.c:402
    54a8:	52800001 	mov	w1, #0x0                   	// #0
    54ac:	aa1403e0 	mov	x0, x20
    54b0:	94000c7f 	bl	86ac <mpa_cmp_short>
    54b4:	36f80140 	tbz	w0, #31, 54dc <TEE_BigIntSubMod+0x94>
/home/lagadanu/Desktop/qemu/optee_os/lib/libutee/tee_api_arith.c:403
    54b8:	aa1503e2 	mov	x2, x21
    54bc:	aa1403e1 	mov	x1, x20
    54c0:	aa1403e0 	mov	x0, x20
    54c4:	f9444a63 	ldr	x3, [x19,#2192]
/home/lagadanu/Desktop/qemu/optee_os/lib/libutee/tee_api_arith.c:404
    54c8:	a9425bf5 	ldp	x21, x22, [sp,#32]
    54cc:	a94153f3 	ldp	x19, x20, [sp,#16]
    54d0:	f9401bf7 	ldr	x23, [sp,#48]
    54d4:	a8c47bfd 	ldp	x29, x30, [sp],#64
/home/lagadanu/Desktop/qemu/optee_os/lib/libutee/tee_api_arith.c:403
    54d8:	14000aae 	b	7f90 <mpa_add>
/home/lagadanu/Desktop/qemu/optee_os/lib/libutee/tee_api_arith.c:404
    54dc:	a94153f3 	ldp	x19, x20, [sp,#16]
    54e0:	a9425bf5 	ldp	x21, x22, [sp,#32]
    54e4:	f9401bf7 	ldr	x23, [sp,#48]
    54e8:	a8c47bfd 	ldp	x29, x30, [sp],#64
    54ec:	d65f03c0 	ret

00000000000054f0 <TEE_BigIntMulMod>:
TEE_BigIntMulMod():
/home/lagadanu/Desktop/qemu/optee_os/lib/libutee/tee_api_arith.c:411
    54f0:	a9ba7bfd 	stp	x29, x30, [sp,#-96]!
    54f4:	910003fd 	mov	x29, sp
    54f8:	a90363f7 	stp	x23, x24, [sp,#48]
    54fc:	aa0003f7 	mov	x23, x0
    5500:	a90153f3 	stp	x19, x20, [sp,#16]
    5504:	aa0103f8 	mov	x24, x1
    5508:	f90023f9 	str	x25, [sp,#64]
    550c:	aa0303f4 	mov	x20, x3
    5510:	a9025bf5 	stp	x21, x22, [sp,#32]
TEE_BigIntCmpS32():
/home/lagadanu/Desktop/qemu/optee_os/lib/libutee/tee_api_arith.c:228
    5514:	52800041 	mov	w1, #0x2                   	// #2
    5518:	aa0303e0 	mov	x0, x3
TEE_BigIntMulMod():
/home/lagadanu/Desktop/qemu/optee_os/lib/libutee/tee_api_arith.c:411
    551c:	aa0203f9 	mov	x25, x2
TEE_BigIntCmpS32():
/home/lagadanu/Desktop/qemu/optee_os/lib/libutee/tee_api_arith.c:228
    5520:	94000c63 	bl	86ac <mpa_cmp_short>
TEE_BigIntMulMod():
/home/lagadanu/Desktop/qemu/optee_os/lib/libutee/tee_api_arith.c:418
    5524:	36f80080 	tbz	w0, #31, 5534 <TEE_BigIntMulMod+0x44>
/home/lagadanu/Desktop/qemu/optee_os/lib/libutee/tee_api_arith.c:419
    5528:	d0000020 	adrp	x0, b000 <PRIME_TABLE+0x7f0>
    552c:	911e5000 	add	x0, x0, #0x794
    5530:	9400009b 	bl	579c <TEE_BigInt_Panic>
/home/lagadanu/Desktop/qemu/optee_os/lib/libutee/tee_api_arith.c:429
    5534:	b0000093 	adrp	x19, 16000 <mempool_u32+0xe48>
    5538:	910ae275 	add	x21, x19, #0x2b8
    553c:	910163b6 	add	x22, x29, #0x58
    5540:	aa1603e0 	mov	x0, x22
    5544:	f9444aa1 	ldr	x1, [x21,#2192]
    5548:	94000793 	bl	7394 <mpa_alloc_static_temp_var>
/home/lagadanu/Desktop/qemu/optee_os/lib/libutee/tee_api_arith.c:430
    554c:	f9402fa0 	ldr	x0, [x29,#88]
    5550:	aa1803e1 	mov	x1, x24
    5554:	f9444aa4 	ldr	x4, [x21,#2192]
    5558:	aa1403e3 	mov	x3, x20
    555c:	aa1903e2 	mov	x2, x25
    5560:	94000f1b 	bl	91cc <mpa_mul_mod>
/home/lagadanu/Desktop/qemu/optee_os/lib/libutee/tee_api_arith.c:431
    5564:	f9402fa0 	ldr	x0, [x29,#88]
    5568:	52800001 	mov	w1, #0x0                   	// #0
    556c:	94000c50 	bl	86ac <mpa_cmp_short>
    5570:	36f800c0 	tbz	w0, #31, 5588 <TEE_BigIntMulMod+0x98>
/home/lagadanu/Desktop/qemu/optee_os/lib/libutee/tee_api_arith.c:432
    5574:	f9402fa1 	ldr	x1, [x29,#88]
    5578:	aa1403e2 	mov	x2, x20
    557c:	f9444aa3 	ldr	x3, [x21,#2192]
    5580:	aa0103e0 	mov	x0, x1
    5584:	94000a83 	bl	7f90 <mpa_add>
/home/lagadanu/Desktop/qemu/optee_os/lib/libutee/tee_api_arith.c:433
    5588:	f9402fa1 	ldr	x1, [x29,#88]
/home/lagadanu/Desktop/qemu/optee_os/lib/libutee/tee_api_arith.c:434
    558c:	910ae273 	add	x19, x19, #0x2b8
/home/lagadanu/Desktop/qemu/optee_os/lib/libutee/tee_api_arith.c:433
    5590:	aa1703e0 	mov	x0, x23
    5594:	940000a1 	bl	5818 <mpa_copy>
/home/lagadanu/Desktop/qemu/optee_os/lib/libutee/tee_api_arith.c:434
    5598:	f9444a61 	ldr	x1, [x19,#2192]
    559c:	aa1603e0 	mov	x0, x22
    55a0:	94000781 	bl	73a4 <mpa_free_static_temp_var>
/home/lagadanu/Desktop/qemu/optee_os/lib/libutee/tee_api_arith.c:435
    55a4:	f94023f9 	ldr	x25, [sp,#64]
    55a8:	a94153f3 	ldp	x19, x20, [sp,#16]
    55ac:	a9425bf5 	ldp	x21, x22, [sp,#32]
    55b0:	a94363f7 	ldp	x23, x24, [sp,#48]
    55b4:	a8c67bfd 	ldp	x29, x30, [sp],#96
    55b8:	d65f03c0 	ret

00000000000055bc <TEE_BigIntSquareMod>:
TEE_BigIntSquareMod():
/home/lagadanu/Desktop/qemu/optee_os/lib/libutee/tee_api_arith.c:443
    55bc:	aa0203e3 	mov	x3, x2
    55c0:	aa0103e2 	mov	x2, x1
    55c4:	17ffffcb 	b	54f0 <TEE_BigIntMulMod>

00000000000055c8 <TEE_BigIntInvMod>:
TEE_BigIntInvMod():
/home/lagadanu/Desktop/qemu/optee_os/lib/libutee/tee_api_arith.c:451
    55c8:	a9bd7bfd 	stp	x29, x30, [sp,#-48]!
    55cc:	910003fd 	mov	x29, sp
    55d0:	a90153f3 	stp	x19, x20, [sp,#16]
    55d4:	aa0103f3 	mov	x19, x1
    55d8:	f90013f5 	str	x21, [sp,#32]
    55dc:	aa0203f4 	mov	x20, x2
    55e0:	aa0003f5 	mov	x21, x0
TEE_BigIntCmpS32():
/home/lagadanu/Desktop/qemu/optee_os/lib/libutee/tee_api_arith.c:228
    55e4:	52800041 	mov	w1, #0x2                   	// #2
    55e8:	aa0203e0 	mov	x0, x2
    55ec:	94000c30 	bl	86ac <mpa_cmp_short>
TEE_BigIntInvMod():
/home/lagadanu/Desktop/qemu/optee_os/lib/libutee/tee_api_arith.c:456
    55f0:	36f80080 	tbz	w0, #31, 5600 <TEE_BigIntInvMod+0x38>
/home/lagadanu/Desktop/qemu/optee_os/lib/libutee/tee_api_arith.c:457
    55f4:	d0000020 	adrp	x0, b000 <PRIME_TABLE+0x7f0>
    55f8:	911ea400 	add	x0, x0, #0x7a9
    55fc:	94000068 	bl	579c <TEE_BigInt_Panic>
TEE_BigIntCmpS32():
/home/lagadanu/Desktop/qemu/optee_os/lib/libutee/tee_api_arith.c:228
    5600:	52800001 	mov	w1, #0x0                   	// #0
    5604:	aa1303e0 	mov	x0, x19
    5608:	94000c29 	bl	86ac <mpa_cmp_short>
TEE_BigIntInvMod():
/home/lagadanu/Desktop/qemu/optee_os/lib/libutee/tee_api_arith.c:456
    560c:	34ffff40 	cbz	w0, 55f4 <TEE_BigIntInvMod+0x2c>
/home/lagadanu/Desktop/qemu/optee_os/lib/libutee/tee_api_arith.c:459
    5610:	b0000080 	adrp	x0, 16000 <mempool_u32+0xe48>
    5614:	aa1403e2 	mov	x2, x20
    5618:	aa1303e1 	mov	x1, x19
    561c:	f945a403 	ldr	x3, [x0,#2888]
    5620:	aa1503e0 	mov	x0, x21
/home/lagadanu/Desktop/qemu/optee_os/lib/libutee/tee_api_arith.c:460
    5624:	a94153f3 	ldp	x19, x20, [sp,#16]
    5628:	f94013f5 	ldr	x21, [sp,#32]
    562c:	a8c37bfd 	ldp	x29, x30, [sp],#48
/home/lagadanu/Desktop/qemu/optee_os/lib/libutee/tee_api_arith.c:459
    5630:	14000f08 	b	9250 <mpa_inv_mod>

0000000000005634 <TEE_BigIntRelativePrime>:
TEE_BigIntRelativePrime():
/home/lagadanu/Desktop/qemu/optee_os/lib/libutee/tee_api_arith.c:470
    5634:	a9bc7bfd 	stp	x29, x30, [sp,#-64]!
    5638:	910003fd 	mov	x29, sp
    563c:	a90153f3 	stp	x19, x20, [sp,#16]
/home/lagadanu/Desktop/qemu/optee_os/lib/libutee/tee_api_arith.c:476
    5640:	b0000093 	adrp	x19, 16000 <mempool_u32+0xe48>
    5644:	910ae273 	add	x19, x19, #0x2b8
/home/lagadanu/Desktop/qemu/optee_os/lib/libutee/tee_api_arith.c:470
    5648:	a9025bf5 	stp	x21, x22, [sp,#32]
    564c:	aa0103f6 	mov	x22, x1
/home/lagadanu/Desktop/qemu/optee_os/lib/libutee/tee_api_arith.c:476
    5650:	9100e3b4 	add	x20, x29, #0x38
/home/lagadanu/Desktop/qemu/optee_os/lib/libutee/tee_api_arith.c:470
    5654:	aa0003f5 	mov	x21, x0
/home/lagadanu/Desktop/qemu/optee_os/lib/libutee/tee_api_arith.c:476
    5658:	aa1403e0 	mov	x0, x20
    565c:	f9444a61 	ldr	x1, [x19,#2192]
    5660:	9400074d 	bl	7394 <mpa_alloc_static_temp_var>
/home/lagadanu/Desktop/qemu/optee_os/lib/libutee/tee_api_arith.c:478
    5664:	f9444a63 	ldr	x3, [x19,#2192]
    5668:	aa1603e2 	mov	x2, x22
    566c:	f9401fa0 	ldr	x0, [x29,#56]
    5670:	aa1503e1 	mov	x1, x21
    5674:	94000672 	bl	703c <mpa_gcd>
/home/lagadanu/Desktop/qemu/optee_os/lib/libutee/tee_api_arith.c:479
    5678:	f9401fa0 	ldr	x0, [x29,#56]
    567c:	52800021 	mov	w1, #0x1                   	// #1
    5680:	94000c0b 	bl	86ac <mpa_cmp_short>
    5684:	2a0003f5 	mov	w21, w0
/home/lagadanu/Desktop/qemu/optee_os/lib/libutee/tee_api_arith.c:481
    5688:	f9444a61 	ldr	x1, [x19,#2192]
    568c:	aa1403e0 	mov	x0, x20
    5690:	94000745 	bl	73a4 <mpa_free_static_temp_var>
/home/lagadanu/Desktop/qemu/optee_os/lib/libutee/tee_api_arith.c:483
    5694:	710002bf 	cmp	w21, #0x0
/home/lagadanu/Desktop/qemu/optee_os/lib/libutee/tee_api_arith.c:484
    5698:	a94153f3 	ldp	x19, x20, [sp,#16]
    569c:	1a9f17e0 	cset	w0, eq
    56a0:	a9425bf5 	ldp	x21, x22, [sp,#32]
    56a4:	a8c47bfd 	ldp	x29, x30, [sp],#64
    56a8:	d65f03c0 	ret

00000000000056ac <TEE_BigIntComputeExtendedGcd>:
TEE_BigIntComputeExtendedGcd():
/home/lagadanu/Desktop/qemu/optee_os/lib/libutee/tee_api_arith.c:499
    56ac:	b0000085 	adrp	x5, 16000 <mempool_u32+0xe48>
    56b0:	f945a4a5 	ldr	x5, [x5,#2888]
    56b4:	140006aa 	b	715c <mpa_extended_gcd>

00000000000056b8 <TEE_BigIntIsProbablePrime>:
TEE_BigIntIsProbablePrime():
/home/lagadanu/Desktop/qemu/optee_os/lib/libutee/tee_api_arith.c:507
    56b8:	7104003f 	cmp	w1, #0x100
    56bc:	52802002 	mov	w2, #0x100                 	// #256
    56c0:	1a829021 	csel	w1, w1, w2, ls
/home/lagadanu/Desktop/qemu/optee_os/lib/libutee/tee_api_arith.c:516
    56c4:	b0000082 	adrp	x2, 16000 <mempool_u32+0xe48>
    56c8:	7101403f 	cmp	w1, #0x50
    56cc:	52800a03 	mov	w3, #0x50                  	// #80
    56d0:	f945a442 	ldr	x2, [x2,#2888]
    56d4:	1a832021 	csel	w1, w1, w3, cs
    56d8:	1400019c 	b	5d48 <mpa_is_prob_prime>

00000000000056dc <TEE_BigIntConvertToFMM>:
TEE_BigIntConvertToFMM():
/home/lagadanu/Desktop/qemu/optee_os/lib/libutee/tee_api_arith.c:530
    56dc:	aa0303e6 	mov	x6, x3
/home/lagadanu/Desktop/qemu/optee_os/lib/libutee/tee_api_arith.c:537
    56e0:	b0000083 	adrp	x3, 16000 <mempool_u32+0xe48>
    56e4:	f945a465 	ldr	x5, [x3,#2888]
    56e8:	aa0203e3 	mov	x3, x2
    56ec:	b94010c4 	ldr	w4, [x6,#16]
    56f0:	f94004c2 	ldr	x2, [x6,#8]
    56f4:	14000173 	b	5cc0 <mpa_montgomery_mul>

00000000000056f8 <TEE_BigIntConvertFromFMM>:
TEE_BigIntConvertFromFMM():
/home/lagadanu/Desktop/qemu/optee_os/lib/libutee/tee_api_arith.c:548
    56f8:	a9ba7bfd 	stp	x29, x30, [sp,#-96]!
    56fc:	910003fd 	mov	x29, sp
    5700:	a90153f3 	stp	x19, x20, [sp,#16]
/home/lagadanu/Desktop/qemu/optee_os/lib/libutee/tee_api_arith.c:560
    5704:	b0000093 	adrp	x19, 16000 <mempool_u32+0xe48>
    5708:	910ae273 	add	x19, x19, #0x2b8
/home/lagadanu/Desktop/qemu/optee_os/lib/libutee/tee_api_arith.c:548
    570c:	a90363f7 	stp	x23, x24, [sp,#48]
    5710:	aa0103f7 	mov	x23, x1
/home/lagadanu/Desktop/qemu/optee_os/lib/libutee/tee_api_arith.c:560
    5714:	910163b4 	add	x20, x29, #0x58
/home/lagadanu/Desktop/qemu/optee_os/lib/libutee/tee_api_arith.c:548
    5718:	f90023f9 	str	x25, [sp,#64]
    571c:	aa0303f9 	mov	x25, x3
/home/lagadanu/Desktop/qemu/optee_os/lib/libutee/tee_api_arith.c:560
    5720:	f9444a61 	ldr	x1, [x19,#2192]
/home/lagadanu/Desktop/qemu/optee_os/lib/libutee/tee_api_arith.c:548
    5724:	aa0203f8 	mov	x24, x2
    5728:	a9025bf5 	stp	x21, x22, [sp,#32]
    572c:	aa0003f5 	mov	x21, x0
/home/lagadanu/Desktop/qemu/optee_os/lib/libutee/tee_api_arith.c:560
    5730:	aa1403e0 	mov	x0, x20
    5734:	94000718 	bl	7394 <mpa_alloc_static_temp_var>
/home/lagadanu/Desktop/qemu/optee_os/lib/libutee/tee_api_arith.c:563
    5738:	f9402fb6 	ldr	x22, [x29,#88]
    573c:	94000084 	bl	594c <mpa_constant_one>
    5740:	aa0003e1 	mov	x1, x0
    5744:	b9401324 	ldr	w4, [x25,#16]
    5748:	aa1803e3 	mov	x3, x24
    574c:	f9444a65 	ldr	x5, [x19,#2192]
    5750:	aa1703e2 	mov	x2, x23
    5754:	aa1603e0 	mov	x0, x22
    5758:	9400015a 	bl	5cc0 <mpa_montgomery_mul>
/home/lagadanu/Desktop/qemu/optee_os/lib/libutee/tee_api_arith.c:566
    575c:	f9402fa1 	ldr	x1, [x29,#88]
    5760:	aa1503e0 	mov	x0, x21
    5764:	9400002d 	bl	5818 <mpa_copy>
/home/lagadanu/Desktop/qemu/optee_os/lib/libutee/tee_api_arith.c:567
    5768:	f9444a61 	ldr	x1, [x19,#2192]
    576c:	aa1403e0 	mov	x0, x20
    5770:	9400070d 	bl	73a4 <mpa_free_static_temp_var>
/home/lagadanu/Desktop/qemu/optee_os/lib/libutee/tee_api_arith.c:568
    5774:	f94023f9 	ldr	x25, [sp,#64]
    5778:	a94153f3 	ldp	x19, x20, [sp,#16]
    577c:	a9425bf5 	ldp	x21, x22, [sp,#32]
    5780:	a94363f7 	ldp	x23, x24, [sp,#48]
    5784:	a8c67bfd 	ldp	x29, x30, [sp],#96
    5788:	d65f03c0 	ret

000000000000578c <TEE_BigIntComputeFMM>:
TEE_BigIntComputeFMM():
/home/lagadanu/Desktop/qemu/optee_os/lib/libutee/tee_api_arith.c:585
    578c:	b0000085 	adrp	x5, 16000 <mempool_u32+0xe48>
    5790:	b9401084 	ldr	w4, [x4,#16]
    5794:	f945a4a5 	ldr	x5, [x5,#2888]
    5798:	1400014a 	b	5cc0 <mpa_montgomery_mul>

000000000000579c <TEE_BigInt_Panic>:
TEE_BigInt_Panic():
/home/lagadanu/Desktop/qemu/optee_os/lib/libutee/tee_api_arith.c:35
    579c:	a9bf7bfd 	stp	x29, x30, [sp,#-16]!
/home/lagadanu/Desktop/qemu/optee_os/lib/libutee/tee_api_arith.c:36
    57a0:	aa0003e1 	mov	x1, x0
    57a4:	d0000020 	adrp	x0, b000 <PRIME_TABLE+0x7f0>
    57a8:	911de400 	add	x0, x0, #0x779
/home/lagadanu/Desktop/qemu/optee_os/lib/libutee/tee_api_arith.c:35
    57ac:	910003fd 	mov	x29, sp
/home/lagadanu/Desktop/qemu/optee_os/lib/libutee/tee_api_arith.c:36
    57b0:	97ffeef5 	bl	1384 <printf>
/home/lagadanu/Desktop/qemu/optee_os/lib/libutee/tee_api_arith.c:37
    57b4:	528c24e0 	mov	w0, #0x6127                	// #24871
    57b8:	72a01620 	movk	w0, #0xb1, lsl #16
    57bc:	97fffcbb 	bl	4aa8 <TEE_Panic>
    57c0:	14000000 	b	57c0 <TEE_BigInt_Panic+0x24>

00000000000057c4 <__mpa_set_unused_digits_to_zero>:
__mpa_set_unused_digits_to_zero():
    57c4:	b9400401 	ldr	w1, [x0,#4]
/home/lagadanu/Desktop/qemu/optee_os/lib/libmpa/mpa_misc.c:38
    57c8:	b8408402 	ldr	w2, [x0],#8
/home/lagadanu/Desktop/qemu/optee_os/lib/libmpa/mpa_misc.c:37
    57cc:	7100003f 	cmp	w1, #0x0
    57d0:	5a81a423 	cneg	w3, w1, lt
/home/lagadanu/Desktop/qemu/optee_os/lib/libmpa/mpa_misc.c:38
    57d4:	52800001 	mov	w1, #0x0                   	// #0
    57d8:	4b030042 	sub	w2, w2, w3
    57dc:	8b23c800 	add	x0, x0, w3, sxtw #2
    57e0:	d37e7442 	ubfiz	x2, x2, #2, #30
    57e4:	14001360 	b	a564 <memset>

00000000000057e8 <mpa_wipe>:
mpa_wipe():
/home/lagadanu/Desktop/qemu/optee_os/lib/libmpa/mpa_misc.c:55
    57e8:	a9be7bfd 	stp	x29, x30, [sp,#-32]!
/home/lagadanu/Desktop/qemu/optee_os/lib/libmpa/mpa_misc.c:56
    57ec:	52800001 	mov	w1, #0x0                   	// #0
/home/lagadanu/Desktop/qemu/optee_os/lib/libmpa/mpa_misc.c:55
    57f0:	910003fd 	mov	x29, sp
    57f4:	f9000bf3 	str	x19, [sp,#16]
    57f8:	aa0003f3 	mov	x19, x0
/home/lagadanu/Desktop/qemu/optee_os/lib/libmpa/mpa_misc.c:56
    57fc:	b8408402 	ldr	w2, [x0],#8
    5800:	d37e7442 	ubfiz	x2, x2, #2, #30
    5804:	94001358 	bl	a564 <memset>
/home/lagadanu/Desktop/qemu/optee_os/lib/libmpa/mpa_misc.c:57
    5808:	b900067f 	str	wzr, [x19,#4]
/home/lagadanu/Desktop/qemu/optee_os/lib/libmpa/mpa_misc.c:58
    580c:	f9400bf3 	ldr	x19, [sp,#16]
    5810:	a8c27bfd 	ldp	x29, x30, [sp],#32
    5814:	d65f03c0 	ret

0000000000005818 <mpa_copy>:
mpa_copy():
/home/lagadanu/Desktop/qemu/optee_os/lib/libmpa/mpa_misc.c:71
    5818:	eb01001f 	cmp	x0, x1
    581c:	54000260 	b.eq	5868 <mpa_copy+0x50>
/home/lagadanu/Desktop/qemu/optee_os/lib/libmpa/mpa_misc.c:70
    5820:	a9be7bfd 	stp	x29, x30, [sp,#-32]!
    5824:	910003fd 	mov	x29, sp
    5828:	a90153f3 	stp	x19, x20, [sp,#16]
    582c:	aa0103f3 	mov	x19, x1
    5830:	aa0003f4 	mov	x20, x0
/home/lagadanu/Desktop/qemu/optee_os/lib/libmpa/mpa_misc.c:74
    5834:	91002021 	add	x1, x1, #0x8
    5838:	91002000 	add	x0, x0, #0x8
    583c:	b9400662 	ldr	w2, [x19,#4]
    5840:	7100005f 	cmp	w2, #0x0
    5844:	5a82a442 	cneg	w2, w2, lt
    5848:	531e7442 	lsl	w2, w2, #2
    584c:	93407c42 	sxtw	x2, w2
    5850:	97ffeeb2 	bl	1318 <memcpy>
/home/lagadanu/Desktop/qemu/optee_os/lib/libmpa/mpa_misc.c:75
    5854:	b9400660 	ldr	w0, [x19,#4]
    5858:	b9000680 	str	w0, [x20,#4]
/home/lagadanu/Desktop/qemu/optee_os/lib/libmpa/mpa_misc.c:76
    585c:	a94153f3 	ldp	x19, x20, [sp,#16]
    5860:	a8c27bfd 	ldp	x29, x30, [sp],#32
    5864:	d65f03c0 	ret
    5868:	d65f03c0 	ret

000000000000586c <mpa_abs>:
mpa_abs():
/home/lagadanu/Desktop/qemu/optee_os/lib/libmpa/mpa_misc.c:84
    586c:	a9be7bfd 	stp	x29, x30, [sp,#-32]!
    5870:	910003fd 	mov	x29, sp
    5874:	f9000bf3 	str	x19, [sp,#16]
    5878:	aa0003f3 	mov	x19, x0
/home/lagadanu/Desktop/qemu/optee_os/lib/libmpa/mpa_misc.c:85
    587c:	97ffffe7 	bl	5818 <mpa_copy>
/home/lagadanu/Desktop/qemu/optee_os/lib/libmpa/mpa_misc.c:86
    5880:	b9400660 	ldr	w0, [x19,#4]
    5884:	36f80060 	tbz	w0, #31, 5890 <mpa_abs+0x24>
/home/lagadanu/Desktop/qemu/optee_os/lib/libmpa/mpa_misc.c:86 (discriminator 1)
    5888:	4b0003e0 	neg	w0, w0
    588c:	b9000660 	str	w0, [x19,#4]
/home/lagadanu/Desktop/qemu/optee_os/lib/libmpa/mpa_misc.c:87
    5890:	f9400bf3 	ldr	x19, [sp,#16]
    5894:	a8c27bfd 	ldp	x29, x30, [sp],#32
    5898:	d65f03c0 	ret

000000000000589c <mpa_highest_bit_index>:
mpa_highest_bit_index():
/home/lagadanu/Desktop/qemu/optee_os/lib/libmpa/mpa_misc.c:101
    589c:	b9400401 	ldr	w1, [x0,#4]
    58a0:	7100003f 	cmp	w1, #0x0
    58a4:	540001a0 	b.eq	58d8 <mpa_highest_bit_index+0x3c>
/home/lagadanu/Desktop/qemu/optee_os/lib/libmpa/mpa_misc.c:104
    58a8:	5a81a421 	cneg	w1, w1, lt
    58ac:	51000421 	sub	w1, w1, #0x1
    58b0:	8b21c800 	add	x0, x0, w1, sxtw #2
    58b4:	b9400802 	ldr	w2, [x0,#8]
/home/lagadanu/Desktop/qemu/optee_os/lib/libmpa/mpa_misc.c:106
    58b8:	52800000 	mov	w0, #0x0                   	// #0
/home/lagadanu/Desktop/qemu/optee_os/lib/libmpa/mpa_misc.c:107
    58bc:	53017c42 	lsr	w2, w2, #1
/home/lagadanu/Desktop/qemu/optee_os/lib/libmpa/mpa_misc.c:108
    58c0:	34000082 	cbz	w2, 58d0 <mpa_highest_bit_index+0x34>
/home/lagadanu/Desktop/qemu/optee_os/lib/libmpa/mpa_misc.c:106 (discriminator 2)
    58c4:	11000400 	add	w0, w0, #0x1
    58c8:	7100801f 	cmp	w0, #0x20
    58cc:	54ffff81 	b.ne	58bc <mpa_highest_bit_index+0x20>
/home/lagadanu/Desktop/qemu/optee_os/lib/libmpa/mpa_misc.c:111
    58d0:	0b011400 	add	w0, w0, w1, lsl #5
    58d4:	d65f03c0 	ret
/home/lagadanu/Desktop/qemu/optee_os/lib/libmpa/mpa_misc.c:102
    58d8:	12800000 	mov	w0, #0xffffffff            	// #-1
/home/lagadanu/Desktop/qemu/optee_os/lib/libmpa/mpa_misc.c:112
    58dc:	d65f03c0 	ret

00000000000058e0 <mpa_get_bit>:
mpa_get_bit():
/home/lagadanu/Desktop/qemu/optee_os/lib/libmpa/mpa_misc.c:131
    58e0:	b9400402 	ldr	w2, [x0,#4]
/home/lagadanu/Desktop/qemu/optee_os/lib/libmpa/mpa_misc.c:128
    58e4:	53057c23 	lsr	w3, w1, #5
/home/lagadanu/Desktop/qemu/optee_os/lib/libmpa/mpa_misc.c:131
    58e8:	7100005f 	cmp	w2, #0x0
    58ec:	5a82a442 	cneg	w2, w2, lt
    58f0:	6b02007f 	cmp	w3, w2
    58f4:	54000148 	b.hi	591c <mpa_get_bit+0x3c>
/home/lagadanu/Desktop/qemu/optee_os/lib/libmpa/mpa_misc.c:134
    58f8:	d37e6863 	ubfiz	x3, x3, #2, #27
/home/lagadanu/Desktop/qemu/optee_os/lib/libmpa/mpa_misc.c:133
    58fc:	12001021 	and	w1, w1, #0x1f
/home/lagadanu/Desktop/qemu/optee_os/lib/libmpa/mpa_misc.c:134
    5900:	8b030000 	add	x0, x0, x3
/home/lagadanu/Desktop/qemu/optee_os/lib/libmpa/mpa_misc.c:133
    5904:	d2800022 	mov	x2, #0x1                   	// #1
    5908:	9ac12041 	lsl	x1, x2, x1
/home/lagadanu/Desktop/qemu/optee_os/lib/libmpa/mpa_misc.c:134
    590c:	b9400800 	ldr	w0, [x0,#8]
    5910:	ea00003f 	tst	x1, x0
    5914:	1a9f07e0 	cset	w0, ne
    5918:	d65f03c0 	ret
    591c:	52800000 	mov	w0, #0x0                   	// #0
/home/lagadanu/Desktop/qemu/optee_os/lib/libmpa/mpa_misc.c:135
    5920:	d65f03c0 	ret

0000000000005924 <mpa_can_hold>:
mpa_can_hold():
/home/lagadanu/Desktop/qemu/optee_os/lib/libmpa/mpa_misc.c:145
    5924:	b9400421 	ldr	w1, [x1,#4]
    5928:	b9400000 	ldr	w0, [x0]
    592c:	7100003f 	cmp	w1, #0x0
    5930:	5a81a421 	cneg	w1, w1, lt
    5934:	6b01001f 	cmp	w0, w1
/home/lagadanu/Desktop/qemu/optee_os/lib/libmpa/mpa_misc.c:146
    5938:	1a9f37e0 	cset	w0, cs
    593c:	d65f03c0 	ret

0000000000005940 <mpa_parity>:
mpa_parity():
/home/lagadanu/Desktop/qemu/optee_os/lib/libmpa/mpa_misc.c:156
    5940:	b9400800 	ldr	w0, [x0,#8]
/home/lagadanu/Desktop/qemu/optee_os/lib/libmpa/mpa_misc.c:157
    5944:	12000000 	and	w0, w0, #0x1
    5948:	d65f03c0 	ret

000000000000594c <mpa_constant_one>:
mpa_constant_one():
/home/lagadanu/Desktop/qemu/optee_os/lib/libmpa/mpa_misc.c:167
    594c:	b0000020 	adrp	x0, a000 <memalign+0x2ac>
    5950:	911f8000 	add	x0, x0, #0x7e0
    5954:	d65f03c0 	ret

0000000000005958 <__mpa_montgomery_mul_add>:
__mpa_montgomery_mul_add():
/home/lagadanu/Desktop/qemu/optee_os/lib/libmpa/mpa_montgomery.c:34
    5958:	34000222 	cbz	w2, 599c <__mpa_montgomery_mul_add+0x44>
/home/lagadanu/Desktop/qemu/optee_os/lib/libmpa/mpa_montgomery.c:36
    595c:	91002007 	add	x7, x0, #0x8
    5960:	d2800025 	mov	x5, #0x1                   	// #1
/home/lagadanu/Desktop/qemu/optee_os/lib/libmpa/mpa_montgomery.c:37
    5964:	aa0703e3 	mov	x3, x7
/home/lagadanu/Desktop/qemu/optee_os/lib/libmpa/mpa_montgomery.c:38
    5968:	52800004 	mov	w4, #0x0                   	// #0
/home/lagadanu/Desktop/qemu/optee_os/lib/libmpa/mpa_montgomery.c:39
    596c:	b9400428 	ldr	w8, [x1,#4]
    5970:	510004a6 	sub	w6, w5, #0x1
    5974:	910004a5 	add	x5, x5, #0x1
    5978:	6b0800df 	cmp	w6, w8
    597c:	5400012b 	b.lt	59a0 <__mpa_montgomery_mul_add+0x48>
/home/lagadanu/Desktop/qemu/optee_os/lib/libmpa/mpa_montgomery.c:46
    5980:	350001e4 	cbnz	w4, 59bc <__mpa_montgomery_mul_add+0x64>
/home/lagadanu/Desktop/qemu/optee_os/lib/libmpa/mpa_montgomery.c:51
    5984:	cb070063 	sub	x3, x3, x7
/home/lagadanu/Desktop/qemu/optee_os/lib/libmpa/mpa_montgomery.c:52
    5988:	b9400401 	ldr	w1, [x0,#4]
/home/lagadanu/Desktop/qemu/optee_os/lib/libmpa/mpa_montgomery.c:51
    598c:	9342fc63 	asr	x3, x3, #2
/home/lagadanu/Desktop/qemu/optee_os/lib/libmpa/mpa_montgomery.c:52
    5990:	6b01007f 	cmp	w3, w1
    5994:	5400004d 	b.le	599c <__mpa_montgomery_mul_add+0x44>
/home/lagadanu/Desktop/qemu/optee_os/lib/libmpa/mpa_montgomery.c:53
    5998:	b9000403 	str	w3, [x0,#4]
    599c:	d65f03c0 	ret
/home/lagadanu/Desktop/qemu/optee_os/lib/libmpa/mpa_montgomery.c:40
    59a0:	b9400066 	ldr	w6, [x3]
    59a4:	8b2440c4 	add	x4, x6, w4, uxtw
    59a8:	b8657826 	ldr	w6, [x1,x5,lsl #2]
    59ac:	9ba210c4 	umaddl	x4, w6, w2, x4
/home/lagadanu/Desktop/qemu/optee_os/lib/libmpa/mpa_montgomery.c:43
    59b0:	b8004464 	str	w4, [x3],#4
/home/lagadanu/Desktop/qemu/optee_os/lib/libmpa/mpa_montgomery.c:44
    59b4:	d360fc84 	lsr	x4, x4, #32
    59b8:	17ffffed 	b	596c <__mpa_montgomery_mul_add+0x14>
/home/lagadanu/Desktop/qemu/optee_os/lib/libmpa/mpa_montgomery.c:47
    59bc:	b9400061 	ldr	w1, [x3]
    59c0:	8b244024 	add	x4, x1, w4, uxtw
/home/lagadanu/Desktop/qemu/optee_os/lib/libmpa/mpa_montgomery.c:48
    59c4:	b8004464 	str	w4, [x3],#4
/home/lagadanu/Desktop/qemu/optee_os/lib/libmpa/mpa_montgomery.c:49
    59c8:	d360fc84 	lsr	x4, x4, #32
    59cc:	17ffffed 	b	5980 <__mpa_montgomery_mul_add+0x28>

00000000000059d0 <__mpa_montgomery_sub_ack>:
__mpa_montgomery_sub_ack():
/home/lagadanu/Desktop/qemu/optee_os/lib/libmpa/mpa_montgomery.c:75
    59d0:	91002002 	add	x2, x0, #0x8
/home/lagadanu/Desktop/qemu/optee_os/lib/libmpa/mpa_montgomery.c:78
    59d4:	d2800026 	mov	x6, #0x1                   	// #1
/home/lagadanu/Desktop/qemu/optee_os/lib/libmpa/mpa_montgomery.c:76
    59d8:	52800004 	mov	w4, #0x0                   	// #0
/home/lagadanu/Desktop/qemu/optee_os/lib/libmpa/mpa_montgomery.c:78
    59dc:	b9400423 	ldr	w3, [x1,#4]
    59e0:	510004c5 	sub	w5, w6, #0x1
    59e4:	910004c6 	add	x6, x6, #0x1
    59e8:	6b05007f 	cmp	w3, w5
    59ec:	540000cc 	b.gt	5a04 <__mpa_montgomery_sub_ack+0x34>
/home/lagadanu/Desktop/qemu/optee_os/lib/libmpa/mpa_montgomery.c:87
    59f0:	350001a4 	cbnz	w4, 5a24 <__mpa_montgomery_sub_ack+0x54>
/home/lagadanu/Desktop/qemu/optee_os/lib/libmpa/mpa_montgomery.c:93
    59f4:	b9400401 	ldr	w1, [x0,#4]
    59f8:	6b0100bf 	cmp	w5, w1
    59fc:	5400026a 	b.ge	5a48 <__mpa_montgomery_sub_ack+0x78>
    5a00:	d65f03c0 	ret
/home/lagadanu/Desktop/qemu/optee_os/lib/libmpa/mpa_montgomery.c:79
    5a04:	b8667825 	ldr	w5, [x1,x6,lsl #2]
    5a08:	b9400043 	ldr	w3, [x2]
    5a0c:	cb050063 	sub	x3, x3, x5
    5a10:	cb244063 	sub	x3, x3, w4, uxtw
/home/lagadanu/Desktop/qemu/optee_os/lib/libmpa/mpa_montgomery.c:81
    5a14:	b8004443 	str	w3, [x2],#4
/home/lagadanu/Desktop/qemu/optee_os/lib/libmpa/mpa_montgomery.c:82
    5a18:	d360fc63 	lsr	x3, x3, #32
    5a1c:	4b0303e4 	neg	w4, w3
    5a20:	17ffffef 	b	59dc <__mpa_montgomery_sub_ack+0xc>
/home/lagadanu/Desktop/qemu/optee_os/lib/libmpa/mpa_montgomery.c:88
    5a24:	b9400041 	ldr	w1, [x2]
/home/lagadanu/Desktop/qemu/optee_os/lib/libmpa/mpa_montgomery.c:91
    5a28:	110004a5 	add	w5, w5, #0x1
/home/lagadanu/Desktop/qemu/optee_os/lib/libmpa/mpa_montgomery.c:88
    5a2c:	cb244023 	sub	x3, x1, w4, uxtw
/home/lagadanu/Desktop/qemu/optee_os/lib/libmpa/mpa_montgomery.c:89
    5a30:	b8004443 	str	w3, [x2],#4
/home/lagadanu/Desktop/qemu/optee_os/lib/libmpa/mpa_montgomery.c:90
    5a34:	d360fc63 	lsr	x3, x3, #32
    5a38:	4b0303e4 	neg	w4, w3
    5a3c:	17ffffed 	b	59f0 <__mpa_montgomery_sub_ack+0x20>
/home/lagadanu/Desktop/qemu/optee_os/lib/libmpa/mpa_montgomery.c:96
    5a40:	51000421 	sub	w1, w1, #0x1
    5a44:	b9000401 	str	w1, [x0,#4]
/home/lagadanu/Desktop/qemu/optee_os/lib/libmpa/mpa_montgomery.c:95
    5a48:	b9400401 	ldr	w1, [x0,#4]
    5a4c:	7100003f 	cmp	w1, #0x0
    5a50:	5400006d 	b.le	5a5c <__mpa_montgomery_sub_ack+0x8c>
/home/lagadanu/Desktop/qemu/optee_os/lib/libmpa/mpa_montgomery.c:95 (discriminator 1)
    5a54:	b85fcc43 	ldr	w3, [x2,#-4]!
    5a58:	34ffff43 	cbz	w3, 5a40 <__mpa_montgomery_sub_ack+0x70>
    5a5c:	d65f03c0 	ret

0000000000005a60 <__mpa_montgomery_mul>:
__mpa_montgomery_mul():
/home/lagadanu/Desktop/qemu/optee_os/lib/libmpa/mpa_montgomery.c:115
    5a60:	a9bb7bfd 	stp	x29, x30, [sp,#-80]!
    5a64:	910003fd 	mov	x29, sp
    5a68:	a90363f7 	stp	x23, x24, [sp,#48]
    5a6c:	aa0103f7 	mov	x23, x1
    5a70:	a9046bf9 	stp	x25, x26, [sp,#64]
    5a74:	910022f9 	add	x25, x23, #0x8
/home/lagadanu/Desktop/qemu/optee_os/lib/libmpa/mpa_montgomery.c:122
    5a78:	52800018 	mov	w24, #0x0                   	// #0
/home/lagadanu/Desktop/qemu/optee_os/lib/libmpa/mpa_montgomery.c:115
    5a7c:	a90153f3 	stp	x19, x20, [sp,#16]
    5a80:	a9025bf5 	stp	x21, x22, [sp,#32]
    5a84:	aa0003f3 	mov	x19, x0
    5a88:	aa0203f6 	mov	x22, x2
    5a8c:	aa0303f4 	mov	x20, x3
    5a90:	2a0403f5 	mov	w21, w4
/home/lagadanu/Desktop/qemu/optee_os/lib/libmpa/mpa_montgomery.c:120
    5a94:	97ffff55 	bl	57e8 <mpa_wipe>
/home/lagadanu/Desktop/qemu/optee_os/lib/libmpa/mpa_montgomery.c:122 (discriminator 1)
    5a98:	b9400680 	ldr	w0, [x20,#4]
    5a9c:	6b00031f 	cmp	w24, w0
    5aa0:	540001ab 	b.lt	5ad4 <__mpa_montgomery_mul+0x74>
/home/lagadanu/Desktop/qemu/optee_os/lib/libmpa/mpa_montgomery.c:139
    5aa4:	aa1403e1 	mov	x1, x20
    5aa8:	aa1303e0 	mov	x0, x19
    5aac:	94000aad 	bl	8560 <__mpa_abs_cmp>
    5ab0:	37f805e0 	tbnz	w0, #31, 5b6c <__mpa_montgomery_mul+0x10c>
/home/lagadanu/Desktop/qemu/optee_os/lib/libmpa/mpa_montgomery.c:140
    5ab4:	aa1403e1 	mov	x1, x20
    5ab8:	aa1303e0 	mov	x0, x19
/home/lagadanu/Desktop/qemu/optee_os/lib/libmpa/mpa_montgomery.c:141
    5abc:	a9425bf5 	ldp	x21, x22, [sp,#32]
    5ac0:	a94153f3 	ldp	x19, x20, [sp,#16]
    5ac4:	a94363f7 	ldp	x23, x24, [sp,#48]
    5ac8:	a9446bf9 	ldp	x25, x26, [sp,#64]
    5acc:	a8c57bfd 	ldp	x29, x30, [sp],#80
/home/lagadanu/Desktop/qemu/optee_os/lib/libmpa/mpa_montgomery.c:140
    5ad0:	17ffffc0 	b	59d0 <__mpa_montgomery_sub_ack>
/home/lagadanu/Desktop/qemu/optee_os/lib/libmpa/mpa_montgomery.c:124
    5ad4:	b94006e1 	ldr	w1, [x23,#4]
    5ad8:	52800002 	mov	w2, #0x0                   	// #0
/home/lagadanu/Desktop/qemu/optee_os/lib/libmpa/mpa_montgomery.c:123
    5adc:	b9400a69 	ldr	w9, [x19,#8]
/home/lagadanu/Desktop/qemu/optee_os/lib/libmpa/mpa_montgomery.c:124
    5ae0:	7100003f 	cmp	w1, #0x0
    5ae4:	5a81a421 	cneg	w1, w1, lt
    5ae8:	6b01031f 	cmp	w24, w1
    5aec:	5400004a 	b.ge	5af4 <__mpa_montgomery_mul+0x94>
/home/lagadanu/Desktop/qemu/optee_os/lib/libmpa/mpa_montgomery.c:124 (discriminator 1)
    5af0:	b9400322 	ldr	w2, [x25]
/home/lagadanu/Desktop/qemu/optee_os/lib/libmpa/mpa_montgomery.c:125
    5af4:	b94006c1 	ldr	w1, [x22,#4]
    5af8:	52800000 	mov	w0, #0x0                   	// #0
    5afc:	34000041 	cbz	w1, 5b04 <__mpa_montgomery_mul+0xa4>
/home/lagadanu/Desktop/qemu/optee_os/lib/libmpa/mpa_montgomery.c:125 (discriminator 1)
    5b00:	b9400ac0 	ldr	w0, [x22,#8]
/home/lagadanu/Desktop/qemu/optee_os/lib/libmpa/mpa_montgomery.c:123
    5b04:	1b002440 	madd	w0, w2, w0, w9
/home/lagadanu/Desktop/qemu/optee_os/lib/libmpa/mpa_montgomery.c:127
    5b08:	aa1603e1 	mov	x1, x22
/home/lagadanu/Desktop/qemu/optee_os/lib/libmpa/mpa_montgomery.c:123
    5b0c:	1b157c1a 	mul	w26, w0, w21
/home/lagadanu/Desktop/qemu/optee_os/lib/libmpa/mpa_montgomery.c:127
    5b10:	aa1303e0 	mov	x0, x19
    5b14:	97ffff91 	bl	5958 <__mpa_montgomery_mul_add>
/home/lagadanu/Desktop/qemu/optee_os/lib/libmpa/mpa_montgomery.c:129
    5b18:	2a1a03e2 	mov	w2, w26
    5b1c:	aa1403e1 	mov	x1, x20
    5b20:	aa1303e0 	mov	x0, x19
    5b24:	97ffff8d 	bl	5958 <__mpa_montgomery_mul_add>
/home/lagadanu/Desktop/qemu/optee_os/lib/libmpa/mpa_montgomery.c:132
    5b28:	b9400660 	ldr	w0, [x19,#4]
    5b2c:	91002261 	add	x1, x19, #0x8
/home/lagadanu/Desktop/qemu/optee_os/lib/libmpa/mpa_montgomery.c:133
    5b30:	52800002 	mov	w2, #0x0                   	// #0
/home/lagadanu/Desktop/qemu/optee_os/lib/libmpa/mpa_montgomery.c:132
    5b34:	51000400 	sub	w0, w0, #0x1
    5b38:	b9000660 	str	w0, [x19,#4]
    5b3c:	91001021 	add	x1, x1, #0x4
/home/lagadanu/Desktop/qemu/optee_os/lib/libmpa/mpa_montgomery.c:133 (discriminator 1)
    5b40:	6b00005f 	cmp	w2, w0
    5b44:	540000cb 	b.lt	5b5c <__mpa_montgomery_mul+0xfc>
/home/lagadanu/Desktop/qemu/optee_os/lib/libmpa/mpa_montgomery.c:135 (discriminator 2)
    5b48:	8b20ca60 	add	x0, x19, w0, sxtw #2
/home/lagadanu/Desktop/qemu/optee_os/lib/libmpa/mpa_montgomery.c:122 (discriminator 2)
    5b4c:	11000718 	add	w24, w24, #0x1
    5b50:	91001339 	add	x25, x25, #0x4
/home/lagadanu/Desktop/qemu/optee_os/lib/libmpa/mpa_montgomery.c:135 (discriminator 2)
    5b54:	b900081f 	str	wzr, [x0,#8]
    5b58:	17ffffd0 	b	5a98 <__mpa_montgomery_mul+0x38>
/home/lagadanu/Desktop/qemu/optee_os/lib/libmpa/mpa_montgomery.c:134 (discriminator 3)
    5b5c:	b9400023 	ldr	w3, [x1]
    5b60:	11000442 	add	w2, w2, #0x1
    5b64:	b81fc023 	stur	w3, [x1,#-4]
    5b68:	17fffff5 	b	5b3c <__mpa_montgomery_mul+0xdc>
/home/lagadanu/Desktop/qemu/optee_os/lib/libmpa/mpa_montgomery.c:141
    5b6c:	a94153f3 	ldp	x19, x20, [sp,#16]
    5b70:	a9425bf5 	ldp	x21, x22, [sp,#32]
    5b74:	a94363f7 	ldp	x23, x24, [sp,#48]
    5b78:	a9446bf9 	ldp	x25, x26, [sp,#64]
    5b7c:	a8c57bfd 	ldp	x29, x30, [sp],#80
    5b80:	d65f03c0 	ret

0000000000005b84 <mpa_compute_fmm_context>:
mpa_compute_fmm_context():
/home/lagadanu/Desktop/qemu/optee_os/lib/libmpa/mpa_montgomery.c:157
    5b84:	a9ba7bfd 	stp	x29, x30, [sp,#-96]!
    5b88:	910003fd 	mov	x29, sp
    5b8c:	a90363f7 	stp	x23, x24, [sp,#48]
    5b90:	aa0203f8 	mov	x24, x2
/home/lagadanu/Desktop/qemu/optee_os/lib/libmpa/mpa_montgomery.c:171
    5b94:	b9400402 	ldr	w2, [x0,#4]
/home/lagadanu/Desktop/qemu/optee_os/lib/libmpa/mpa_montgomery.c:157
    5b98:	aa0303f7 	mov	x23, x3
    5b9c:	a90153f3 	stp	x19, x20, [sp,#16]
    5ba0:	aa0103f4 	mov	x20, x1
/home/lagadanu/Desktop/qemu/optee_os/lib/libmpa/mpa_montgomery.c:171
    5ba4:	7100005f 	cmp	w2, #0x0
/home/lagadanu/Desktop/qemu/optee_os/lib/libmpa/mpa_montgomery.c:157
    5ba8:	aa0403f3 	mov	x19, x4
    5bac:	a9025bf5 	stp	x21, x22, [sp,#32]
/home/lagadanu/Desktop/qemu/optee_os/lib/libmpa/mpa_montgomery.c:172
    5bb0:	52800021 	mov	w1, #0x1                   	// #1
/home/lagadanu/Desktop/qemu/optee_os/lib/libmpa/mpa_montgomery.c:171
    5bb4:	5a82a455 	cneg	w21, w2, lt
/home/lagadanu/Desktop/qemu/optee_os/lib/libmpa/mpa_montgomery.c:157
    5bb8:	aa0003f6 	mov	x22, x0
/home/lagadanu/Desktop/qemu/optee_os/lib/libmpa/mpa_montgomery.c:172
    5bbc:	aa1403e0 	mov	x0, x20
    5bc0:	94000175 	bl	6194 <mpa_set_word>
/home/lagadanu/Desktop/qemu/optee_os/lib/libmpa/mpa_montgomery.c:173
    5bc4:	531b6aa2 	lsl	w2, w21, #5
    5bc8:	aa1403e1 	mov	x1, x20
    5bcc:	aa1403e0 	mov	x0, x20
    5bd0:	94000772 	bl	7998 <mpa_shift_left>
/home/lagadanu/Desktop/qemu/optee_os/lib/libmpa/mpa_montgomery.c:174
    5bd4:	aa1603e2 	mov	x2, x22
    5bd8:	aa1403e1 	mov	x1, x20
    5bdc:	aa1403e0 	mov	x0, x20
    5be0:	aa1303e3 	mov	x3, x19
    5be4:	94000d32 	bl	90ac <mpa_mod>
/home/lagadanu/Desktop/qemu/optee_os/lib/libmpa/mpa_montgomery.c:180
    5be8:	52800035 	mov	w21, #0x1                   	// #1
/home/lagadanu/Desktop/qemu/optee_os/lib/libmpa/mpa_montgomery.c:177
    5bec:	aa1603e3 	mov	x3, x22
    5bf0:	aa1403e2 	mov	x2, x20
    5bf4:	aa1303e4 	mov	x4, x19
    5bf8:	aa1403e1 	mov	x1, x20
    5bfc:	aa1803e0 	mov	x0, x24
    5c00:	94000d73 	bl	91cc <mpa_mul_mod>
/home/lagadanu/Desktop/qemu/optee_os/lib/libmpa/mpa_montgomery.c:182
    5c04:	b9400ac0 	ldr	w0, [x22,#8]
/home/lagadanu/Desktop/qemu/optee_os/lib/libmpa/mpa_montgomery.c:184
    5c08:	910103b6 	add	x22, x29, #0x40
    5c0c:	aa1303e1 	mov	x1, x19
/home/lagadanu/Desktop/qemu/optee_os/lib/libmpa/mpa_montgomery.c:181
    5c10:	290a57b5 	stp	w21, w21, [x29,#80]
/home/lagadanu/Desktop/qemu/optee_os/lib/libmpa/mpa_montgomery.c:182
    5c14:	b9005ba0 	str	w0, [x29,#88]
/home/lagadanu/Desktop/qemu/optee_os/lib/libmpa/mpa_montgomery.c:185
    5c18:	910123b8 	add	x24, x29, #0x48
/home/lagadanu/Desktop/qemu/optee_os/lib/libmpa/mpa_montgomery.c:184
    5c1c:	aa1603e0 	mov	x0, x22
    5c20:	940005dd 	bl	7394 <mpa_alloc_static_temp_var>
/home/lagadanu/Desktop/qemu/optee_os/lib/libmpa/mpa_montgomery.c:185
    5c24:	aa1303e1 	mov	x1, x19
    5c28:	aa1803e0 	mov	x0, x24
    5c2c:	940005da 	bl	7394 <mpa_alloc_static_temp_var>
/home/lagadanu/Desktop/qemu/optee_os/lib/libmpa/mpa_montgomery.c:187
    5c30:	d0000034 	adrp	x20, b000 <PRIME_TABLE+0x7f0>
    5c34:	a94403a1 	ldp	x1, x0, [x29,#64]
    5c38:	aa1303e5 	mov	x5, x19
    5c3c:	f9475e94 	ldr	x20, [x20,#3768]
    5c40:	910143a3 	add	x3, x29, #0x50
    5c44:	d2800002 	mov	x2, #0x0                   	// #0
    5c48:	aa1403e4 	mov	x4, x20
    5c4c:	94000544 	bl	715c <mpa_extended_gcd>
/home/lagadanu/Desktop/qemu/optee_os/lib/libmpa/mpa_montgomery.c:189
    5c50:	f94027a0 	ldr	x0, [x29,#72]
    5c54:	2a1503e1 	mov	w1, w21
    5c58:	94000a95 	bl	86ac <mpa_cmp_short>
    5c5c:	2a0003f5 	mov	w21, w0
/home/lagadanu/Desktop/qemu/optee_os/lib/libmpa/mpa_montgomery.c:191
    5c60:	35000160 	cbnz	w0, 5c8c <mpa_compute_fmm_context+0x108>
/home/lagadanu/Desktop/qemu/optee_os/lib/libmpa/mpa_montgomery.c:207
    5c64:	f94023a1 	ldr	x1, [x29,#64]
    5c68:	b9400420 	ldr	w0, [x1,#4]
    5c6c:	37f800a0 	tbnz	w0, #31, 5c80 <mpa_compute_fmm_context+0xfc>
/home/lagadanu/Desktop/qemu/optee_os/lib/libmpa/mpa_montgomery.c:208
    5c70:	aa1303e3 	mov	x3, x19
    5c74:	aa1403e2 	mov	x2, x20
    5c78:	aa0103e0 	mov	x0, x1
    5c7c:	9400092a 	bl	8124 <mpa_sub>
/home/lagadanu/Desktop/qemu/optee_os/lib/libmpa/mpa_montgomery.c:212
    5c80:	f94023a0 	ldr	x0, [x29,#64]
    5c84:	b9400800 	ldr	w0, [x0,#8]
    5c88:	b90002e0 	str	w0, [x23]
/home/lagadanu/Desktop/qemu/optee_os/lib/libmpa/mpa_montgomery.c:216
    5c8c:	aa1303e1 	mov	x1, x19
    5c90:	aa1803e0 	mov	x0, x24
    5c94:	940005c4 	bl	73a4 <mpa_free_static_temp_var>
/home/lagadanu/Desktop/qemu/optee_os/lib/libmpa/mpa_montgomery.c:217
    5c98:	aa1303e1 	mov	x1, x19
    5c9c:	aa1603e0 	mov	x0, x22
    5ca0:	940005c1 	bl	73a4 <mpa_free_static_temp_var>
/home/lagadanu/Desktop/qemu/optee_os/lib/libmpa/mpa_montgomery.c:219
    5ca4:	710002bf 	cmp	w21, #0x0
/home/lagadanu/Desktop/qemu/optee_os/lib/libmpa/mpa_montgomery.c:222
    5ca8:	a94153f3 	ldp	x19, x20, [sp,#16]
    5cac:	5a9f03e0 	csetm	w0, ne
    5cb0:	a9425bf5 	ldp	x21, x22, [sp,#32]
    5cb4:	a94363f7 	ldp	x23, x24, [sp,#48]
    5cb8:	a8c67bfd 	ldp	x29, x30, [sp],#96
    5cbc:	d65f03c0 	ret

0000000000005cc0 <mpa_montgomery_mul>:
mpa_montgomery_mul():
/home/lagadanu/Desktop/qemu/optee_os/lib/libmpa/mpa_montgomery.c:235
    5cc0:	a9ba7bfd 	stp	x29, x30, [sp,#-96]!
    5cc4:	910003fd 	mov	x29, sp
    5cc8:	a90153f3 	stp	x19, x20, [sp,#16]
/home/lagadanu/Desktop/qemu/optee_os/lib/libmpa/mpa_montgomery.c:238
    5ccc:	910163b3 	add	x19, x29, #0x58
/home/lagadanu/Desktop/qemu/optee_os/lib/libmpa/mpa_montgomery.c:235
    5cd0:	aa0503f4 	mov	x20, x5
    5cd4:	a9025bf5 	stp	x21, x22, [sp,#32]
    5cd8:	a90363f7 	stp	x23, x24, [sp,#48]
    5cdc:	aa0003f5 	mov	x21, x0
    5ce0:	f90023f9 	str	x25, [sp,#64]
    5ce4:	aa0103f6 	mov	x22, x1
    5ce8:	aa0203f7 	mov	x23, x2
/home/lagadanu/Desktop/qemu/optee_os/lib/libmpa/mpa_montgomery.c:238
    5cec:	aa0503e1 	mov	x1, x5
/home/lagadanu/Desktop/qemu/optee_os/lib/libmpa/mpa_montgomery.c:235
    5cf0:	aa0303f8 	mov	x24, x3
    5cf4:	2a0403f9 	mov	w25, w4
/home/lagadanu/Desktop/qemu/optee_os/lib/libmpa/mpa_montgomery.c:238
    5cf8:	aa1303e0 	mov	x0, x19
    5cfc:	940005a6 	bl	7394 <mpa_alloc_static_temp_var>
/home/lagadanu/Desktop/qemu/optee_os/lib/libmpa/mpa_montgomery.c:240
    5d00:	f9402fa0 	ldr	x0, [x29,#88]
    5d04:	2a1903e4 	mov	w4, w25
    5d08:	aa1803e3 	mov	x3, x24
    5d0c:	aa1703e2 	mov	x2, x23
    5d10:	aa1603e1 	mov	x1, x22
    5d14:	97ffff53 	bl	5a60 <__mpa_montgomery_mul>
/home/lagadanu/Desktop/qemu/optee_os/lib/libmpa/mpa_montgomery.c:242
    5d18:	f9402fa1 	ldr	x1, [x29,#88]
    5d1c:	aa1503e0 	mov	x0, x21
    5d20:	97fffebe 	bl	5818 <mpa_copy>
/home/lagadanu/Desktop/qemu/optee_os/lib/libmpa/mpa_montgomery.c:243
    5d24:	aa1403e1 	mov	x1, x20
    5d28:	aa1303e0 	mov	x0, x19
    5d2c:	9400059e 	bl	73a4 <mpa_free_static_temp_var>
/home/lagadanu/Desktop/qemu/optee_os/lib/libmpa/mpa_montgomery.c:244
    5d30:	f94023f9 	ldr	x25, [sp,#64]
    5d34:	a94153f3 	ldp	x19, x20, [sp,#16]
    5d38:	a9425bf5 	ldp	x21, x22, [sp,#32]
    5d3c:	a94363f7 	ldp	x23, x24, [sp,#48]
    5d40:	a8c67bfd 	ldp	x29, x30, [sp],#96
    5d44:	d65f03c0 	ret

0000000000005d48 <mpa_is_prob_prime>:
mpa_is_prob_prime():
/home/lagadanu/Desktop/qemu/optee_os/lib/libmpa/mpa_primetest.c:67
    5d48:	a9b37bfd 	stp	x29, x30, [sp,#-208]!
    5d4c:	910003fd 	mov	x29, sp
    5d50:	a9025bf5 	stp	x21, x22, [sp,#32]
    5d54:	2a0103f6 	mov	w22, w1
is_small_prime():
/home/lagadanu/Desktop/qemu/optee_os/lib/libmpa/mpa_primetest.c:114
    5d58:	b9400401 	ldr	w1, [x0,#4]
mpa_is_prob_prime():
/home/lagadanu/Desktop/qemu/optee_os/lib/libmpa/mpa_primetest.c:67
    5d5c:	a90153f3 	stp	x19, x20, [sp,#16]
    5d60:	aa0003f4 	mov	x20, x0
is_small_prime():
/home/lagadanu/Desktop/qemu/optee_os/lib/libmpa/mpa_primetest.c:114
    5d64:	7100003f 	cmp	w1, #0x0
mpa_is_prob_prime():
/home/lagadanu/Desktop/qemu/optee_os/lib/libmpa/mpa_primetest.c:67
    5d68:	a90363f7 	stp	x23, x24, [sp,#48]
    5d6c:	a9046bf9 	stp	x25, x26, [sp,#64]
is_small_prime():
/home/lagadanu/Desktop/qemu/optee_os/lib/libmpa/mpa_primetest.c:114
    5d70:	5a81a421 	cneg	w1, w1, lt
mpa_is_prob_prime():
/home/lagadanu/Desktop/qemu/optee_os/lib/libmpa/mpa_primetest.c:67
    5d74:	a90573fb 	stp	x27, x28, [sp,#80]
    5d78:	aa0203f3 	mov	x19, x2
is_small_prime():
/home/lagadanu/Desktop/qemu/optee_os/lib/libmpa/mpa_primetest.c:114
    5d7c:	7100043f 	cmp	w1, #0x1
    5d80:	5400018d 	b.le	5db0 <mpa_is_prob_prime+0x68>
/home/lagadanu/Desktop/qemu/optee_os/lib/libmpa/mpa_primetest.c:115
    5d84:	97fffeef 	bl	5940 <mpa_parity>
    5d88:	35000d80 	cbnz	w0, 5f38 <mpa_is_prob_prime+0x1f0>
    5d8c:	52800019 	mov	w25, #0x0                   	// #0
mpa_is_prob_prime():
/home/lagadanu/Desktop/qemu/optee_os/lib/libmpa/mpa_primetest.c:85
    5d90:	2a1903e0 	mov	w0, w25
    5d94:	a94153f3 	ldp	x19, x20, [sp,#16]
    5d98:	a9425bf5 	ldp	x21, x22, [sp,#32]
    5d9c:	a94363f7 	ldp	x23, x24, [sp,#48]
    5da0:	a9446bf9 	ldp	x25, x26, [sp,#64]
    5da4:	a94573fb 	ldp	x27, x28, [sp,#80]
    5da8:	a8cd7bfd 	ldp	x29, x30, [sp],#208
    5dac:	d65f03c0 	ret
is_small_prime():
/home/lagadanu/Desktop/qemu/optee_os/lib/libmpa/mpa_primetest.c:117
    5db0:	940000fe 	bl	61a8 <mpa_get_word>
    5db4:	2a0003f5 	mov	w21, w0
/home/lagadanu/Desktop/qemu/optee_os/lib/libmpa/mpa_primetest.c:118
    5db8:	32000000 	orr	w0, w0, #0x1
    5dbc:	7100041f 	cmp	w0, #0x1
    5dc0:	54fffe60 	b.eq	5d8c <mpa_is_prob_prime+0x44>
/home/lagadanu/Desktop/qemu/optee_os/lib/libmpa/mpa_primetest.c:121
    5dc4:	52800039 	mov	w25, #0x1                   	// #1
/home/lagadanu/Desktop/qemu/optee_os/lib/libmpa/mpa_primetest.c:120
    5dc8:	71000abf 	cmp	w21, #0x2
    5dcc:	54fffe20 	b.eq	5d90 <mpa_is_prob_prime+0x48>
/home/lagadanu/Desktop/qemu/optee_os/lib/libmpa/mpa_primetest.c:122
    5dd0:	3607fdf5 	tbz	w21, #0, 5d8c <mpa_is_prob_prime+0x44>
/home/lagadanu/Desktop/qemu/optee_os/lib/libmpa/mpa_primetest.c:126
    5dd4:	529869e1 	mov	w1, #0xc34f                	// #49999
    5dd8:	aa1403e0 	mov	x0, x20
    5ddc:	94000a34 	bl	86ac <mpa_cmp_short>
    5de0:	7100001f 	cmp	w0, #0x0
    5de4:	54000aac 	b.gt	5f38 <mpa_is_prob_prime+0x1f0>
/home/lagadanu/Desktop/qemu/optee_os/lib/libmpa/mpa_primetest.c:128
    5de8:	51000eb5 	sub	w21, w21, #0x3
check_table():
/home/lagadanu/Desktop/qemu/optee_os/lib/libmpa/mpa_primetest.c:95
    5dec:	b0000020 	adrp	x0, a000 <memalign+0x2ac>
    5df0:	91204000 	add	x0, x0, #0x810
    5df4:	d3467ea1 	ubfx	x1, x21, #6, #26
    5df8:	d34116b5 	ubfx	x21, x21, #1, #5
    5dfc:	b8617802 	ldr	w2, [x0,x1,lsl #2]
    5e00:	1ad52440 	lsr	w0, w2, w21
    5e04:	0a190019 	and	w25, w0, w25
    5e08:	17ffffe2 	b	5d90 <mpa_is_prob_prime+0x48>
primality_test_miller_rabin():
/home/lagadanu/Desktop/qemu/optee_os/lib/libmpa/mpa_primetest.c:206
    5e0c:	f94057a1 	ldr	x1, [x29,#168]
    5e10:	52800022 	mov	w2, #0x1                   	// #1
/home/lagadanu/Desktop/qemu/optee_os/lib/libmpa/mpa_primetest.c:207
    5e14:	11000718 	add	w24, w24, #0x1
/home/lagadanu/Desktop/qemu/optee_os/lib/libmpa/mpa_primetest.c:206
    5e18:	aa0103e0 	mov	x0, x1
    5e1c:	94000743 	bl	7b28 <mpa_shift_right>
    5e20:	1400008e 	b	6058 <mpa_is_prob_prime+0x310>
/home/lagadanu/Desktop/qemu/optee_os/lib/libmpa/mpa_primetest.c:212
    5e24:	36f803b7 	tbz	w23, #31, 5e98 <mpa_is_prob_prime+0x150>
/home/lagadanu/Desktop/qemu/optee_os/lib/libmpa/mpa_primetest.c:213
    5e28:	f9403ba0 	ldr	x0, [x29,#112]
/home/lagadanu/Desktop/qemu/optee_os/lib/libmpa/mpa_primetest.c:215
    5e2c:	52800039 	mov	w25, #0x1                   	// #1
/home/lagadanu/Desktop/qemu/optee_os/lib/libmpa/mpa_primetest.c:213
    5e30:	91312000 	add	x0, x0, #0xc48
    5e34:	b8767801 	ldr	w1, [x0,x22,lsl #2]
    5e38:	f94053a0 	ldr	x0, [x29,#160]
    5e3c:	940000ae 	bl	60f4 <mpa_set_S32>
/home/lagadanu/Desktop/qemu/optee_os/lib/libmpa/mpa_primetest.c:214
    5e40:	f94053a1 	ldr	x1, [x29,#160]
    5e44:	aa1403e0 	mov	x0, x20
    5e48:	940009ff 	bl	8644 <mpa_cmp>
    5e4c:	34000220 	cbz	w0, 5e90 <mpa_is_prob_prime+0x148>
/home/lagadanu/Desktop/qemu/optee_os/lib/libmpa/mpa_primetest.c:232
    5e50:	b9409fa6 	ldr	w6, [x29,#156]
    5e54:	aa1303e7 	mov	x7, x19
    5e58:	a94a0ba1 	ldp	x1, x2, [x29,#160]
    5e5c:	aa1403e3 	mov	x3, x20
    5e60:	a94b93a0 	ldp	x0, x4, [x29,#184]
/home/lagadanu/Desktop/qemu/optee_os/lib/libmpa/mpa_primetest.c:233
    5e64:	52800019 	mov	w25, #0x0                   	// #0
/home/lagadanu/Desktop/qemu/optee_os/lib/libmpa/mpa_primetest.c:232
    5e68:	f94067a5 	ldr	x5, [x29,#200]
    5e6c:	94000a31 	bl	8730 <mpa_exp_mod>
/home/lagadanu/Desktop/qemu/optee_os/lib/libmpa/mpa_primetest.c:236
    5e70:	f9405fa0 	ldr	x0, [x29,#184]
    5e74:	52800021 	mov	w1, #0x1                   	// #1
    5e78:	94000a0d 	bl	86ac <mpa_cmp_short>
/home/lagadanu/Desktop/qemu/optee_os/lib/libmpa/mpa_primetest.c:237
    5e7c:	7100001f 	cmp	w0, #0x0
/home/lagadanu/Desktop/qemu/optee_os/lib/libmpa/mpa_primetest.c:236
    5e80:	2a0003e2 	mov	w2, w0
/home/lagadanu/Desktop/qemu/optee_os/lib/libmpa/mpa_primetest.c:237
    5e84:	7a400b24 	ccmp	w25, #0x0, #0x4, eq
    5e88:	540002ed 	b.le	5ee4 <mpa_is_prob_prime+0x19c>
/home/lagadanu/Desktop/qemu/optee_os/lib/libmpa/mpa_primetest.c:238
    5e8c:	52800019 	mov	w25, #0x0                   	// #0
    5e90:	910006d6 	add	x22, x22, #0x1
    5e94:	1400007b 	b	6080 <mpa_is_prob_prime+0x338>
/home/lagadanu/Desktop/qemu/optee_os/lib/libmpa/mpa_primetest.c:224
    5e98:	f9405ba1 	ldr	x1, [x29,#176]
    5e9c:	aa1303e3 	mov	x3, x19
    5ea0:	52800022 	mov	w2, #0x1                   	// #1
    5ea4:	aa0103e0 	mov	x0, x1
    5ea8:	94000960 	bl	8428 <mpa_sub_word>
/home/lagadanu/Desktop/qemu/optee_os/lib/libmpa/mpa_primetest.c:226
    5eac:	f94053a0 	ldr	x0, [x29,#160]
    5eb0:	f9405ba1 	ldr	x1, [x29,#176]
    5eb4:	9400061e 	bl	772c <mpa_get_random>
/home/lagadanu/Desktop/qemu/optee_os/lib/libmpa/mpa_primetest.c:227
    5eb8:	f9405ba1 	ldr	x1, [x29,#176]
    5ebc:	aa1303e3 	mov	x3, x19
    5ec0:	52800022 	mov	w2, #0x1                   	// #1
    5ec4:	aa0103e0 	mov	x0, x1
    5ec8:	94000909 	bl	82ec <mpa_add_word>
/home/lagadanu/Desktop/qemu/optee_os/lib/libmpa/mpa_primetest.c:229
    5ecc:	f94053a1 	ldr	x1, [x29,#160]
    5ed0:	aa1303e3 	mov	x3, x19
    5ed4:	52800042 	mov	w2, #0x2                   	// #2
    5ed8:	aa0103e0 	mov	x0, x1
    5edc:	94000904 	bl	82ec <mpa_add_word>
    5ee0:	17ffffdc 	b	5e50 <mpa_is_prob_prime+0x108>
/home/lagadanu/Desktop/qemu/optee_os/lib/libmpa/mpa_primetest.c:242
    5ee4:	a94b03a1 	ldp	x1, x0, [x29,#176]
    5ee8:	b90067a2 	str	w2, [x29,#100]
    5eec:	940009d6 	bl	8644 <mpa_cmp>
    5ef0:	34000200 	cbz	w0, 5f30 <mpa_is_prob_prime+0x1e8>
/home/lagadanu/Desktop/qemu/optee_os/lib/libmpa/mpa_primetest.c:243
    5ef4:	b94067a2 	ldr	w2, [x29,#100]
    5ef8:	2a190042 	orr	w2, w2, w25
/home/lagadanu/Desktop/qemu/optee_os/lib/libmpa/mpa_primetest.c:242
    5efc:	340001a2 	cbz	w2, 5f30 <mpa_is_prob_prime+0x1e8>
/home/lagadanu/Desktop/qemu/optee_os/lib/libmpa/mpa_primetest.c:248
    5f00:	11000739 	add	w25, w25, #0x1
/home/lagadanu/Desktop/qemu/optee_os/lib/libmpa/mpa_primetest.c:249
    5f04:	6b19031f 	cmp	w24, w25
    5f08:	54fffc2d 	b.le	5e8c <mpa_is_prob_prime+0x144>
/home/lagadanu/Desktop/qemu/optee_os/lib/libmpa/mpa_primetest.c:250
    5f0c:	a94b93a1 	ldp	x1, x4, [x29,#184]
    5f10:	aa1303e7 	mov	x7, x19
    5f14:	b9409fa6 	ldr	w6, [x29,#156]
    5f18:	aa1403e3 	mov	x3, x20
    5f1c:	f94037a2 	ldr	x2, [x29,#104]
    5f20:	aa0103e0 	mov	x0, x1
    5f24:	f94067a5 	ldr	x5, [x29,#200]
    5f28:	94000a02 	bl	8730 <mpa_exp_mod>
    5f2c:	17ffffd1 	b	5e70 <mpa_is_prob_prime+0x128>
/home/lagadanu/Desktop/qemu/optee_os/lib/libmpa/mpa_primetest.c:242
    5f30:	12800019 	mov	w25, #0xffffffff            	// #-1
    5f34:	17ffffd7 	b	5e90 <mpa_is_prob_prime+0x148>
has_small_factors():
/home/lagadanu/Desktop/qemu/optee_os/lib/libmpa/mpa_primetest.c:148
    5f38:	910323b5 	add	x21, x29, #0xc8
    5f3c:	aa1303e1 	mov	x1, x19
    5f40:	aa1503e0 	mov	x0, x21
    5f44:	94000514 	bl	7394 <mpa_alloc_static_temp_var>
/home/lagadanu/Desktop/qemu/optee_os/lib/libmpa/mpa_primetest.c:149
    5f48:	f94067a0 	ldr	x0, [x29,#200]
    5f4c:	b0000038 	adrp	x24, a000 <memalign+0x2ac>
    5f50:	91204317 	add	x23, x24, #0x810
    5f54:	aa1303e3 	mov	x3, x19
    5f58:	9131e2e2 	add	x2, x23, #0xc78
    5f5c:	aa1403e1 	mov	x1, x20
    5f60:	94000437 	bl	703c <mpa_gcd>
/home/lagadanu/Desktop/qemu/optee_os/lib/libmpa/mpa_primetest.c:150
    5f64:	f94067a0 	ldr	x0, [x29,#200]
    5f68:	52800021 	mov	w1, #0x1                   	// #1
    5f6c:	940009d0 	bl	86ac <mpa_cmp_short>
    5f70:	2a0003f9 	mov	w25, w0
/home/lagadanu/Desktop/qemu/optee_os/lib/libmpa/mpa_primetest.c:151
    5f74:	aa1303e1 	mov	x1, x19
    5f78:	aa1503e0 	mov	x0, x21
    5f7c:	9400050a 	bl	73a4 <mpa_free_static_temp_var>
    5f80:	f9003bb8 	str	x24, [x29,#112]
mpa_is_prob_prime():
/home/lagadanu/Desktop/qemu/optee_os/lib/libmpa/mpa_primetest.c:76
    5f84:	35fff059 	cbnz	w25, 5d8c <mpa_is_prob_prime+0x44>
primality_test_miller_rabin():
/home/lagadanu/Desktop/qemu/optee_os/lib/libmpa/mpa_primetest.c:180
    5f88:	910303a0 	add	x0, x29, #0xc0
    5f8c:	aa1303e1 	mov	x1, x19
    5f90:	f90043a0 	str	x0, [x29,#128]
    5f94:	94000500 	bl	7394 <mpa_alloc_static_temp_var>
/home/lagadanu/Desktop/qemu/optee_os/lib/libmpa/mpa_primetest.c:181
    5f98:	aa1303e1 	mov	x1, x19
    5f9c:	aa1503e0 	mov	x0, x21
    5fa0:	940004fd 	bl	7394 <mpa_alloc_static_temp_var>
/home/lagadanu/Desktop/qemu/optee_os/lib/libmpa/mpa_primetest.c:184
    5fa4:	52800019 	mov	w25, #0x0                   	// #0
/home/lagadanu/Desktop/qemu/optee_os/lib/libmpa/mpa_primetest.c:183
    5fa8:	a94c0ba1 	ldp	x1, x2, [x29,#192]
    5fac:	aa1303e4 	mov	x4, x19
    5fb0:	910273a3 	add	x3, x29, #0x9c
    5fb4:	aa1403e0 	mov	x0, x20
    5fb8:	97fffef3 	bl	5b84 <mpa_compute_fmm_context>
    5fbc:	3100041f 	cmn	w0, #0x1
    5fc0:	540008c0 	b.eq	60d8 <mpa_is_prob_prime+0x390>
/home/lagadanu/Desktop/qemu/optee_os/lib/libmpa/mpa_primetest.c:188
    5fc4:	910283bc 	add	x28, x29, #0xa0
    5fc8:	aa1303e1 	mov	x1, x19
    5fcc:	aa1c03e0 	mov	x0, x28
/home/lagadanu/Desktop/qemu/optee_os/lib/libmpa/mpa_primetest.c:189
    5fd0:	9102a3bb 	add	x27, x29, #0xa8
/home/lagadanu/Desktop/qemu/optee_os/lib/libmpa/mpa_primetest.c:188
    5fd4:	940004f0 	bl	7394 <mpa_alloc_static_temp_var>
/home/lagadanu/Desktop/qemu/optee_os/lib/libmpa/mpa_primetest.c:190
    5fd8:	9102c3ba 	add	x26, x29, #0xb0
/home/lagadanu/Desktop/qemu/optee_os/lib/libmpa/mpa_primetest.c:189
    5fdc:	aa1303e1 	mov	x1, x19
    5fe0:	aa1b03e0 	mov	x0, x27
    5fe4:	940004ec 	bl	7394 <mpa_alloc_static_temp_var>
/home/lagadanu/Desktop/qemu/optee_os/lib/libmpa/mpa_primetest.c:190
    5fe8:	aa1303e1 	mov	x1, x19
    5fec:	aa1a03e0 	mov	x0, x26
    5ff0:	940004e9 	bl	7394 <mpa_alloc_static_temp_var>
/home/lagadanu/Desktop/qemu/optee_os/lib/libmpa/mpa_primetest.c:191
    5ff4:	9102e3a0 	add	x0, x29, #0xb8
    5ff8:	aa1303e1 	mov	x1, x19
    5ffc:	f9003fa0 	str	x0, [x29,#120]
    6000:	940004e5 	bl	7394 <mpa_alloc_static_temp_var>
/home/lagadanu/Desktop/qemu/optee_os/lib/libmpa/mpa_primetest.c:194
    6004:	9130e2e1 	add	x1, x23, #0xc38
    6008:	aa1403e0 	mov	x0, x20
    600c:	9400098e 	bl	8644 <mpa_cmp>
    6010:	2a0003f7 	mov	w23, w0
/home/lagadanu/Desktop/qemu/optee_os/lib/libmpa/mpa_primetest.c:193
    6014:	531f7c00 	lsr	w0, w0, #31
    6018:	b9008ba0 	str	w0, [x29,#136]
/home/lagadanu/Desktop/qemu/optee_os/lib/libmpa/mpa_primetest.c:197
    601c:	528000e0 	mov	w0, #0x7                   	// #7
    6020:	b9008fa0 	str	w0, [x29,#140]
/home/lagadanu/Desktop/qemu/optee_os/lib/libmpa/mpa_primetest.c:196
    6024:	37f800b7 	tbnz	w23, #31, 6038 <mpa_is_prob_prime+0x2f0>
/home/lagadanu/Desktop/qemu/optee_os/lib/libmpa/mpa_primetest.c:199
    6028:	110006d6 	add	w22, w22, #0x1
    602c:	52800040 	mov	w0, #0x2                   	// #2
    6030:	1ac00ec0 	sdiv	w0, w22, w0
    6034:	b9008fa0 	str	w0, [x29,#140]
/home/lagadanu/Desktop/qemu/optee_os/lib/libmpa/mpa_primetest.c:201
    6038:	f9405ba0 	ldr	x0, [x29,#176]
    603c:	aa1403e1 	mov	x1, x20
    6040:	aa1303e3 	mov	x3, x19
    6044:	52800022 	mov	w2, #0x1                   	// #1
/home/lagadanu/Desktop/qemu/optee_os/lib/libmpa/mpa_primetest.c:203
    6048:	52800018 	mov	w24, #0x0                   	// #0
/home/lagadanu/Desktop/qemu/optee_os/lib/libmpa/mpa_primetest.c:201
    604c:	940008f7 	bl	8428 <mpa_sub_word>
/home/lagadanu/Desktop/qemu/optee_os/lib/libmpa/mpa_primetest.c:202
    6050:	a94a87a0 	ldp	x0, x1, [x29,#168]
    6054:	97fffdf1 	bl	5818 <mpa_copy>
/home/lagadanu/Desktop/qemu/optee_os/lib/libmpa/mpa_primetest.c:205
    6058:	f94057a0 	ldr	x0, [x29,#168]
    605c:	97fffe39 	bl	5940 <mpa_parity>
    6060:	34ffed60 	cbz	w0, 5e0c <mpa_is_prob_prime+0xc4>
/home/lagadanu/Desktop/qemu/optee_os/lib/libmpa/mpa_primetest.c:250
    6064:	f9403ba0 	ldr	x0, [x29,#112]
/home/lagadanu/Desktop/qemu/optee_os/lib/libmpa/mpa_primetest.c:205
    6068:	d2800016 	mov	x22, #0x0                   	// #0
    606c:	12800019 	mov	w25, #0xffffffff            	// #-1
/home/lagadanu/Desktop/qemu/optee_os/lib/libmpa/mpa_primetest.c:250
    6070:	91204000 	add	x0, x0, #0x810
    6074:	f9003ba0 	str	x0, [x29,#112]
    6078:	9131a000 	add	x0, x0, #0xc68
    607c:	f90037a0 	str	x0, [x29,#104]
/home/lagadanu/Desktop/qemu/optee_os/lib/libmpa/mpa_primetest.c:211
    6080:	b9408fa1 	ldr	w1, [x29,#140]
    6084:	3100073f 	cmn	w25, #0x1
    6088:	1a9f17e0 	cset	w0, eq
    608c:	6b16003f 	cmp	w1, w22
    6090:	1a9fd7e1 	cset	w1, gt
    6094:	6a01001f 	tst	w0, w1
    6098:	54ffec61 	b.ne	5e24 <mpa_is_prob_prime+0xdc>
/home/lagadanu/Desktop/qemu/optee_os/lib/libmpa/mpa_primetest.c:258
    609c:	b9408ba1 	ldr	w1, [x29,#136]
    60a0:	6a00003f 	tst	w1, w0
/home/lagadanu/Desktop/qemu/optee_os/lib/libmpa/mpa_primetest.c:260
    60a4:	aa1303e1 	mov	x1, x19
/home/lagadanu/Desktop/qemu/optee_os/lib/libmpa/mpa_primetest.c:258
    60a8:	1a9f0739 	csinc	w25, w25, wzr, eq
/home/lagadanu/Desktop/qemu/optee_os/lib/libmpa/mpa_primetest.c:260
    60ac:	aa1c03e0 	mov	x0, x28
    60b0:	940004bd 	bl	73a4 <mpa_free_static_temp_var>
/home/lagadanu/Desktop/qemu/optee_os/lib/libmpa/mpa_primetest.c:261
    60b4:	aa1303e1 	mov	x1, x19
    60b8:	aa1b03e0 	mov	x0, x27
    60bc:	940004ba 	bl	73a4 <mpa_free_static_temp_var>
/home/lagadanu/Desktop/qemu/optee_os/lib/libmpa/mpa_primetest.c:262
    60c0:	aa1303e1 	mov	x1, x19
    60c4:	aa1a03e0 	mov	x0, x26
    60c8:	940004b7 	bl	73a4 <mpa_free_static_temp_var>
/home/lagadanu/Desktop/qemu/optee_os/lib/libmpa/mpa_primetest.c:263
    60cc:	f9403fa0 	ldr	x0, [x29,#120]
    60d0:	aa1303e1 	mov	x1, x19
    60d4:	940004b4 	bl	73a4 <mpa_free_static_temp_var>
/home/lagadanu/Desktop/qemu/optee_os/lib/libmpa/mpa_primetest.c:265
    60d8:	f94043a0 	ldr	x0, [x29,#128]
    60dc:	aa1303e1 	mov	x1, x19
    60e0:	940004b1 	bl	73a4 <mpa_free_static_temp_var>
/home/lagadanu/Desktop/qemu/optee_os/lib/libmpa/mpa_primetest.c:266
    60e4:	aa1303e1 	mov	x1, x19
    60e8:	aa1503e0 	mov	x0, x21
    60ec:	940004ae 	bl	73a4 <mpa_free_static_temp_var>
    60f0:	17ffff28 	b	5d90 <mpa_is_prob_prime+0x48>

00000000000060f4 <mpa_set_S32>:
mpa_set_S32():
/home/lagadanu/Desktop/qemu/optee_os/lib/libmpa/mpa_conv.c:15
    60f4:	7100003f 	cmp	w1, #0x0
    60f8:	54000100 	b.eq	6118 <mpa_set_S32+0x24>
/home/lagadanu/Desktop/qemu/optee_os/lib/libmpa/mpa_conv.c:16
    60fc:	52800022 	mov	w2, #0x1                   	// #1
    6100:	5a82a442 	cneg	w2, w2, lt
    6104:	b9000402 	str	w2, [x0,#4]
/home/lagadanu/Desktop/qemu/optee_os/lib/libmpa/mpa_conv.c:19
    6108:	7100003f 	cmp	w1, #0x0
    610c:	5a81a421 	cneg	w1, w1, lt
    6110:	b9000801 	str	w1, [x0,#8]
    6114:	d65f03c0 	ret
/home/lagadanu/Desktop/qemu/optee_os/lib/libmpa/mpa_conv.c:18
    6118:	b900041f 	str	wzr, [x0,#4]
    611c:	17fffffb 	b	6108 <mpa_set_S32+0x14>

0000000000006120 <mpa_get_S32>:
mpa_get_S32():
/home/lagadanu/Desktop/qemu/optee_os/lib/libmpa/mpa_conv.c:35
    6120:	b9400422 	ldr	w2, [x1,#4]
/home/lagadanu/Desktop/qemu/optee_os/lib/libmpa/mpa_conv.c:33
    6124:	aa0003e4 	mov	x4, x0
/home/lagadanu/Desktop/qemu/optee_os/lib/libmpa/mpa_conv.c:35
    6128:	7100005f 	cmp	w2, #0x0
    612c:	5a82a440 	cneg	w0, w2, lt
    6130:	7100041f 	cmp	w0, #0x1
    6134:	540002cc 	b.gt	618c <mpa_get_S32+0x6c>
/home/lagadanu/Desktop/qemu/optee_os/lib/libmpa/mpa_conv.c:37
    6138:	b9400823 	ldr	w3, [x1,#8]
    613c:	52b00000 	mov	w0, #0x80000000            	// #-2147483648
    6140:	7100005f 	cmp	w2, #0x0
    6144:	7a40b060 	ccmp	w3, w0, #0x0, lt
/home/lagadanu/Desktop/qemu/optee_os/lib/libmpa/mpa_conv.c:36
    6148:	12800000 	mov	w0, #0xffffffff            	// #-1
/home/lagadanu/Desktop/qemu/optee_os/lib/libmpa/mpa_conv.c:37
    614c:	54000088 	b.hi	615c <mpa_get_S32+0x3c>
/home/lagadanu/Desktop/qemu/optee_os/lib/libmpa/mpa_conv.c:39
    6150:	36f80083 	tbz	w3, #31, 6160 <mpa_get_S32+0x40>
/home/lagadanu/Desktop/qemu/optee_os/lib/libmpa/mpa_conv.c:42 (discriminator 1)
    6154:	2a0003e1 	mov	w1, w0
/home/lagadanu/Desktop/qemu/optee_os/lib/libmpa/mpa_conv.c:39 (discriminator 1)
    6158:	37f800c2 	tbnz	w2, #31, 6170 <mpa_get_S32+0x50>
/home/lagadanu/Desktop/qemu/optee_os/lib/libmpa/mpa_conv.c:48
    615c:	d65f03c0 	ret
/home/lagadanu/Desktop/qemu/optee_os/lib/libmpa/mpa_conv.c:42
    6160:	34000102 	cbz	w2, 6180 <mpa_get_S32+0x60>
/home/lagadanu/Desktop/qemu/optee_os/lib/libmpa/mpa_conv.c:42 (discriminator 4)
    6164:	12800001 	mov	w1, #0xffffffff            	// #-1
    6168:	6b01005f 	cmp	w2, w1
    616c:	5a81d421 	cneg	w1, w1, gt
/home/lagadanu/Desktop/qemu/optee_os/lib/libmpa/mpa_conv.c:42 (discriminator 8)
    6170:	1b037c21 	mul	w1, w1, w3
/home/lagadanu/Desktop/qemu/optee_os/lib/libmpa/mpa_conv.c:43 (discriminator 8)
    6174:	52800000 	mov	w0, #0x0                   	// #0
/home/lagadanu/Desktop/qemu/optee_os/lib/libmpa/mpa_conv.c:42 (discriminator 8)
    6178:	b9000081 	str	w1, [x4]
/home/lagadanu/Desktop/qemu/optee_os/lib/libmpa/mpa_conv.c:43 (discriminator 8)
    617c:	d65f03c0 	ret
/home/lagadanu/Desktop/qemu/optee_os/lib/libmpa/mpa_conv.c:42
    6180:	52800003 	mov	w3, #0x0                   	// #0
    6184:	52800021 	mov	w1, #0x1                   	// #1
    6188:	17fffffa 	b	6170 <mpa_get_S32+0x50>
/home/lagadanu/Desktop/qemu/optee_os/lib/libmpa/mpa_conv.c:36
    618c:	12800000 	mov	w0, #0xffffffff            	// #-1
    6190:	17fffff3 	b	615c <mpa_get_S32+0x3c>

0000000000006194 <mpa_set_word>:
mpa_set_word():
/home/lagadanu/Desktop/qemu/optee_os/lib/libmpa/mpa_conv.c:58
    6194:	7100003f 	cmp	w1, #0x0
/home/lagadanu/Desktop/qemu/optee_os/lib/libmpa/mpa_conv.c:57
    6198:	b9000801 	str	w1, [x0,#8]
/home/lagadanu/Desktop/qemu/optee_os/lib/libmpa/mpa_conv.c:58
    619c:	1a9f07e1 	cset	w1, ne
    61a0:	b9000401 	str	w1, [x0,#4]
    61a4:	d65f03c0 	ret

00000000000061a8 <mpa_get_word>:
mpa_get_word():
/home/lagadanu/Desktop/qemu/optee_os/lib/libmpa/mpa_conv.c:69
    61a8:	b9400401 	ldr	w1, [x0,#4]
    61ac:	34000061 	cbz	w1, 61b8 <mpa_get_word+0x10>
/home/lagadanu/Desktop/qemu/optee_os/lib/libmpa/mpa_conv.c:69 (discriminator 1)
    61b0:	b9400800 	ldr	w0, [x0,#8]
    61b4:	d65f03c0 	ret
/home/lagadanu/Desktop/qemu/optee_os/lib/libmpa/mpa_conv.c:69
    61b8:	52800000 	mov	w0, #0x0                   	// #0
/home/lagadanu/Desktop/qemu/optee_os/lib/libmpa/mpa_conv.c:70
    61bc:	d65f03c0 	ret

00000000000061c0 <__mpa_div_dword>:
__mpa_div_dword():
/home/lagadanu/Desktop/qemu/optee_os/lib/libmpa/mpa_div.c:59
    61c0:	2a0003e0 	mov	w0, w0
__mpa_soft_div():
/home/lagadanu/Desktop/qemu/optee_os/lib/libmpa/mpa_div.c:24
    61c4:	2a0203e2 	mov	w2, w2
__mpa_div_dword():
/home/lagadanu/Desktop/qemu/optee_os/lib/libmpa/mpa_div.c:59
    61c8:	8b018001 	add	x1, x0, x1, lsl #32
__mpa_soft_div():
/home/lagadanu/Desktop/qemu/optee_os/lib/libmpa/mpa_div.c:23
    61cc:	d2800024 	mov	x4, #0x1                   	// #1
/home/lagadanu/Desktop/qemu/optee_os/lib/libmpa/mpa_div.c:26
    61d0:	b6f800c2 	tbz	x2, #63, 61e8 <__mpa_div_dword+0x28>
    61d4:	d2800000 	mov	x0, #0x0                   	// #0
/home/lagadanu/Desktop/qemu/optee_os/lib/libmpa/mpa_div.c:31
    61d8:	b50000e4 	cbnz	x4, 61f4 <__mpa_div_dword+0x34>
/home/lagadanu/Desktop/qemu/optee_os/lib/libmpa/mpa_div.c:40
    61dc:	b4000043 	cbz	x3, 61e4 <__mpa_div_dword+0x24>
/home/lagadanu/Desktop/qemu/optee_os/lib/libmpa/mpa_div.c:41
    61e0:	b9000061 	str	w1, [x3]
__mpa_div_dword():
/home/lagadanu/Desktop/qemu/optee_os/lib/libmpa/mpa_div.c:67
    61e4:	d65f03c0 	ret
__mpa_soft_div():
/home/lagadanu/Desktop/qemu/optee_os/lib/libmpa/mpa_div.c:27
    61e8:	d37ff842 	lsl	x2, x2, #1
/home/lagadanu/Desktop/qemu/optee_os/lib/libmpa/mpa_div.c:28
    61ec:	d37ff884 	lsl	x4, x4, #1
    61f0:	17fffff8 	b	61d0 <__mpa_div_dword+0x10>
/home/lagadanu/Desktop/qemu/optee_os/lib/libmpa/mpa_div.c:32
    61f4:	eb02003f 	cmp	x1, x2
    61f8:	54000063 	b.cc	6204 <__mpa_div_dword+0x44>
/home/lagadanu/Desktop/qemu/optee_os/lib/libmpa/mpa_div.c:33
    61fc:	cb020021 	sub	x1, x1, x2
/home/lagadanu/Desktop/qemu/optee_os/lib/libmpa/mpa_div.c:34
    6200:	8b040000 	add	x0, x0, x4
/home/lagadanu/Desktop/qemu/optee_os/lib/libmpa/mpa_div.c:36
    6204:	d341fc42 	lsr	x2, x2, #1
/home/lagadanu/Desktop/qemu/optee_os/lib/libmpa/mpa_div.c:37
    6208:	d341fc84 	lsr	x4, x4, #1
    620c:	17fffff3 	b	61d8 <__mpa_div_dword+0x18>

0000000000006210 <__mpa_div_q_r_internal_word>:
__mpa_div_q_r_internal_word():
/home/lagadanu/Desktop/qemu/optee_os/lib/libmpa/mpa_div.c:247
    6210:	a9ba7bfd 	stp	x29, x30, [sp,#-96]!
    6214:	910003fd 	mov	x29, sp
    6218:	a9025bf5 	stp	x21, x22, [sp,#32]
    621c:	aa0103f5 	mov	x21, x1
/home/lagadanu/Desktop/qemu/optee_os/lib/libmpa/mpa_div.c:255
    6220:	b9400441 	ldr	w1, [x2,#4]
/home/lagadanu/Desktop/qemu/optee_os/lib/libmpa/mpa_div.c:247
    6224:	aa0203f6 	mov	x22, x2
    6228:	a90153f3 	stp	x19, x20, [sp,#16]
    622c:	2a0303f4 	mov	w20, w3
/home/lagadanu/Desktop/qemu/optee_os/lib/libmpa/mpa_div.c:255
    6230:	7100003f 	cmp	w1, #0x0
/home/lagadanu/Desktop/qemu/optee_os/lib/libmpa/mpa_div.c:247
    6234:	a90363f7 	stp	x23, x24, [sp,#48]
    6238:	a9046bf9 	stp	x25, x26, [sp,#64]
/home/lagadanu/Desktop/qemu/optee_os/lib/libmpa/mpa_div.c:255
    623c:	5a81a421 	cneg	w1, w1, lt
    6240:	7100043f 	cmp	w1, #0x1
    6244:	540001e1 	b.ne	6280 <__mpa_div_q_r_internal_word+0x70>
/home/lagadanu/Desktop/qemu/optee_os/lib/libmpa/mpa_div.c:256
    6248:	b9400841 	ldr	w1, [x2,#8]
    624c:	1ac30821 	udiv	w1, w1, w3
    6250:	97ffffd1 	bl	6194 <mpa_set_word>
/home/lagadanu/Desktop/qemu/optee_os/lib/libmpa/mpa_div.c:257
    6254:	b9400ac0 	ldr	w0, [x22,#8]
    6258:	1ad40801 	udiv	w1, w0, w20
    625c:	1b148021 	msub	w1, w1, w20, w0
    6260:	aa1503e0 	mov	x0, x21
    6264:	97ffffcc 	bl	6194 <mpa_set_word>
/home/lagadanu/Desktop/qemu/optee_os/lib/libmpa/mpa_div.c:279
    6268:	a94153f3 	ldp	x19, x20, [sp,#16]
    626c:	a9425bf5 	ldp	x21, x22, [sp,#32]
    6270:	a94363f7 	ldp	x23, x24, [sp,#48]
    6274:	a9446bf9 	ldp	x25, x26, [sp,#64]
    6278:	a8c67bfd 	ldp	x29, x30, [sp],#96
    627c:	d65f03c0 	ret
/home/lagadanu/Desktop/qemu/optee_os/lib/libmpa/mpa_div.c:260
    6280:	aa0203e1 	mov	x1, x2
    6284:	aa0003f3 	mov	x19, x0
    6288:	aa1503e0 	mov	x0, x21
    628c:	97fffd63 	bl	5818 <mpa_copy>
/home/lagadanu/Desktop/qemu/optee_os/lib/libmpa/mpa_div.c:261
    6290:	52800001 	mov	w1, #0x0                   	// #0
    6294:	aa1303e0 	mov	x0, x19
    6298:	97ffffbf 	bl	6194 <mpa_set_word>
/home/lagadanu/Desktop/qemu/optee_os/lib/libmpa/mpa_div.c:267
    629c:	910173ba 	add	x26, x29, #0x5c
/home/lagadanu/Desktop/qemu/optee_os/lib/libmpa/mpa_div.c:263
    62a0:	b94006a1 	ldr	w1, [x21,#4]
    62a4:	7100003f 	cmp	w1, #0x0
    62a8:	5a81a421 	cneg	w1, w1, lt
    62ac:	51000422 	sub	w2, w1, #0x1
/home/lagadanu/Desktop/qemu/optee_os/lib/libmpa/mpa_div.c:265
    62b0:	93407c42 	sxtw	x2, w2
    62b4:	8b020aa0 	add	x0, x21, x2, lsl #2
    62b8:	91000843 	add	x3, x2, #0x2
    62bc:	d37ef477 	lsl	x23, x3, #2
    62c0:	cb21c063 	sub	x3, x3, w1, sxtw
    62c4:	51000821 	sub	w1, w1, #0x2
    62c8:	d37ef478 	lsl	x24, x3, #2
    62cc:	937e7c21 	sbfiz	x1, x1, #2, #32
    62d0:	b9400800 	ldr	w0, [x0,#8]
    62d4:	cb020821 	sub	x1, x1, x2, lsl #2
    62d8:	8b0102b9 	add	x25, x21, x1
/home/lagadanu/Desktop/qemu/optee_os/lib/libmpa/mpa_div.c:264
    62dc:	52800001 	mov	w1, #0x0                   	// #0
/home/lagadanu/Desktop/qemu/optee_os/lib/libmpa/mpa_div.c:266
    62e0:	eb1802ff 	cmp	x23, x24
    62e4:	54000281 	b.ne	6334 <__mpa_div_q_r_internal_word+0x124>
/home/lagadanu/Desktop/qemu/optee_os/lib/libmpa/mpa_div.c:274
    62e8:	b9400aa0 	ldr	w0, [x21,#8]
    62ec:	7100001f 	cmp	w0, #0x0
    62f0:	1a9f07e0 	cset	w0, ne
    62f4:	b90006a0 	str	w0, [x21,#4]
/home/lagadanu/Desktop/qemu/optee_os/lib/libmpa/mpa_div.c:275
    62f8:	b94006c0 	ldr	w0, [x22,#4]
    62fc:	7100001f 	cmp	w0, #0x0
    6300:	5a80a400 	cneg	w0, w0, lt
    6304:	51000400 	sub	w0, w0, #0x1
    6308:	93407c00 	sxtw	x0, w0
    630c:	2a0003e1 	mov	w1, w0
/home/lagadanu/Desktop/qemu/optee_os/lib/libmpa/mpa_div.c:276
    6310:	3100041f 	cmn	w0, #0x1
    6314:	540000a0 	b.eq	6328 <__mpa_div_q_r_internal_word+0x118>
    6318:	d1000400 	sub	x0, x0, #0x1
/home/lagadanu/Desktop/qemu/optee_os/lib/libmpa/mpa_div.c:276 (discriminator 1)
    631c:	8b000a62 	add	x2, x19, x0, lsl #2
    6320:	b9400c42 	ldr	w2, [x2,#12]
    6324:	34ffff42 	cbz	w2, 630c <__mpa_div_q_r_internal_word+0xfc>
/home/lagadanu/Desktop/qemu/optee_os/lib/libmpa/mpa_div.c:278
    6328:	11000420 	add	w0, w1, #0x1
    632c:	b9000660 	str	w0, [x19,#4]
    6330:	17ffffce 	b	6268 <__mpa_div_q_r_internal_word+0x58>
/home/lagadanu/Desktop/qemu/optee_os/lib/libmpa/mpa_div.c:267
    6334:	aa1a03e3 	mov	x3, x26
    6338:	2a1403e2 	mov	w2, w20
    633c:	97ffffa1 	bl	61c0 <__mpa_div_dword>
/home/lagadanu/Desktop/qemu/optee_os/lib/libmpa/mpa_div.c:268
    6340:	b8376a60 	str	w0, [x19,x23]
/home/lagadanu/Desktop/qemu/optee_os/lib/libmpa/mpa_div.c:269
    6344:	b9405fa1 	ldr	w1, [x29,#92]
    6348:	b8376aa1 	str	w1, [x21,x23]
/home/lagadanu/Desktop/qemu/optee_os/lib/libmpa/mpa_div.c:271
    634c:	b8776b20 	ldr	w0, [x25,x23]
    6350:	d10012f7 	sub	x23, x23, #0x4
    6354:	17ffffe3 	b	62e0 <__mpa_div_q_r_internal_word+0xd0>

0000000000006358 <__mpa_div_q_r>:
__mpa_div_q_r():
/home/lagadanu/Desktop/qemu/optee_os/lib/libmpa/mpa_div.c:302
    6358:	a9b07bfd 	stp	x29, x30, [sp,#-256]!
    635c:	910003fd 	mov	x29, sp
    6360:	a90363f7 	stp	x23, x24, [sp,#48]
    6364:	aa0103f8 	mov	x24, x1
/home/lagadanu/Desktop/qemu/optee_os/lib/libmpa/mpa_div.c:306
    6368:	b9400441 	ldr	w1, [x2,#4]
/home/lagadanu/Desktop/qemu/optee_os/lib/libmpa/mpa_div.c:302
    636c:	a90153f3 	stp	x19, x20, [sp,#16]
    6370:	a9025bf5 	stp	x21, x22, [sp,#32]
    6374:	a9046bf9 	stp	x25, x26, [sp,#64]
    6378:	a90573fb 	stp	x27, x28, [sp,#80]
/home/lagadanu/Desktop/qemu/optee_os/lib/libmpa/mpa_div.c:306
    637c:	35000181 	cbnz	w1, 63ac <__mpa_div_q_r+0x54>
/home/lagadanu/Desktop/qemu/optee_os/lib/libmpa/mpa_div.c:322
    6380:	97ffff85 	bl	6194 <mpa_set_word>
/home/lagadanu/Desktop/qemu/optee_os/lib/libmpa/mpa_div.c:323
    6384:	52800001 	mov	w1, #0x0                   	// #0
    6388:	aa1803e0 	mov	x0, x24
    638c:	97ffff82 	bl	6194 <mpa_set_word>
/home/lagadanu/Desktop/qemu/optee_os/lib/libmpa/mpa_div.c:338
    6390:	a94153f3 	ldp	x19, x20, [sp,#16]
    6394:	a9425bf5 	ldp	x21, x22, [sp,#32]
    6398:	a94363f7 	ldp	x23, x24, [sp,#48]
    639c:	a9446bf9 	ldp	x25, x26, [sp,#64]
    63a0:	a94573fb 	ldp	x27, x28, [sp,#80]
    63a4:	a8d07bfd 	ldp	x29, x30, [sp],#256
    63a8:	d65f03c0 	ret
    63ac:	aa0003f3 	mov	x19, x0
/home/lagadanu/Desktop/qemu/optee_os/lib/libmpa/mpa_div.c:311
    63b0:	b9400460 	ldr	w0, [x3,#4]
    63b4:	aa0303f4 	mov	x20, x3
    63b8:	34fffec0 	cbz	w0, 6390 <__mpa_div_q_r+0x38>
    63bc:	aa0203fa 	mov	x26, x2
    63c0:	aa0403f7 	mov	x23, x4
/home/lagadanu/Desktop/qemu/optee_os/lib/libmpa/mpa_div.c:318
    63c4:	36f82ee1 	tbz	w1, #31, 69a0 <__mpa_div_q_r+0x648>
/home/lagadanu/Desktop/qemu/optee_os/lib/libmpa/mpa_div.c:319
    63c8:	7100001f 	cmp	w0, #0x0
    63cc:	12800001 	mov	w1, #0xffffffff            	// #-1
    63d0:	5a81a420 	cneg	w0, w1, lt
    63d4:	14000176 	b	69ac <__mpa_div_q_r+0x654>
/home/lagadanu/Desktop/qemu/optee_os/lib/libmpa/mpa_div.c:326
    63d8:	54002d6d 	b.le	6984 <__mpa_div_q_r+0x62c>
/home/lagadanu/Desktop/qemu/optee_os/lib/libmpa/mpa_div.c:327
    63dc:	b9400680 	ldr	w0, [x20,#4]
    63e0:	7100001f 	cmp	w0, #0x0
    63e4:	5a80a400 	cneg	w0, w0, lt
    63e8:	7100041f 	cmp	w0, #0x1
    63ec:	54002c0d 	b.le	696c <__mpa_div_q_r+0x614>
__mpa_div_q_r_internal():
/home/lagadanu/Desktop/qemu/optee_os/lib/libmpa/mpa_div.c:103
    63f0:	9103a3a0 	add	x0, x29, #0xe8
    63f4:	aa1703e1 	mov	x1, x23
    63f8:	f9005fa0 	str	x0, [x29,#184]
    63fc:	940003e6 	bl	7394 <mpa_alloc_static_temp_var>
/home/lagadanu/Desktop/qemu/optee_os/lib/libmpa/mpa_div.c:104
    6400:	9103c3a0 	add	x0, x29, #0xf0
    6404:	aa1703e1 	mov	x1, x23
    6408:	f9005ba0 	str	x0, [x29,#176]
    640c:	940003e2 	bl	7394 <mpa_alloc_static_temp_var>
/home/lagadanu/Desktop/qemu/optee_os/lib/libmpa/mpa_div.c:105
    6410:	f9407ba0 	ldr	x0, [x29,#240]
    6414:	aa1403e1 	mov	x1, x20
    6418:	97fffd00 	bl	5818 <mpa_copy>
/home/lagadanu/Desktop/qemu/optee_os/lib/libmpa/mpa_div.c:112
    641c:	9103e3a0 	add	x0, x29, #0xf8
    6420:	aa1703e1 	mov	x1, x23
    6424:	f90057a0 	str	x0, [x29,#168]
    6428:	940003db 	bl	7394 <mpa_alloc_static_temp_var>
/home/lagadanu/Desktop/qemu/optee_os/lib/libmpa/mpa_div.c:113
    642c:	f9407fa0 	ldr	x0, [x29,#248]
    6430:	aa1a03e1 	mov	x1, x26
    6434:	97fffcf9 	bl	5818 <mpa_copy>
/home/lagadanu/Desktop/qemu/optee_os/lib/libmpa/mpa_div.c:114
    6438:	f9407fa1 	ldr	x1, [x29,#248]
    643c:	b9400420 	ldr	w0, [x1,#4]
    6440:	36f80060 	tbz	w0, #31, 644c <__mpa_div_q_r+0xf4>
    6444:	4b0003e0 	neg	w0, w0
    6448:	b9000420 	str	w0, [x1,#4]
/home/lagadanu/Desktop/qemu/optee_os/lib/libmpa/mpa_div.c:115
    644c:	f9407ba2 	ldr	x2, [x29,#240]
    6450:	b9400440 	ldr	w0, [x2,#4]
    6454:	36f80060 	tbz	w0, #31, 6460 <__mpa_div_q_r+0x108>
    6458:	4b0003e0 	neg	w0, w0
    645c:	b9000440 	str	w0, [x2,#4]
/home/lagadanu/Desktop/qemu/optee_os/lib/libmpa/mpa_div.c:121
    6460:	b9400440 	ldr	w0, [x2,#4]
/home/lagadanu/Desktop/qemu/optee_os/lib/libmpa/mpa_div.c:120
    6464:	52800019 	mov	w25, #0x0                   	// #0
/home/lagadanu/Desktop/qemu/optee_os/lib/libmpa/mpa_div.c:121
    6468:	7100001f 	cmp	w0, #0x0
    646c:	5a80a400 	cneg	w0, w0, lt
    6470:	51000400 	sub	w0, w0, #0x1
    6474:	8b20c840 	add	x0, x2, w0, sxtw #2
    6478:	52800002 	mov	w2, #0x0                   	// #0
    647c:	b9400800 	ldr	w0, [x0,#8]
    6480:	b900d7a0 	str	w0, [x29,#212]
/home/lagadanu/Desktop/qemu/optee_os/lib/libmpa/mpa_div.c:122
    6484:	36f80fc0 	tbz	w0, #31, 667c <__mpa_div_q_r+0x324>
    6488:	34000042 	cbz	w2, 6490 <__mpa_div_q_r+0x138>
    648c:	b900d7a0 	str	w0, [x29,#212]
/home/lagadanu/Desktop/qemu/optee_os/lib/libmpa/mpa_div.c:126
    6490:	34000119 	cbz	w25, 64b0 <__mpa_div_q_r+0x158>
/home/lagadanu/Desktop/qemu/optee_os/lib/libmpa/mpa_div.c:127
    6494:	aa0103e0 	mov	x0, x1
    6498:	2a1903e2 	mov	w2, w25
    649c:	9400053f 	bl	7998 <mpa_shift_left>
/home/lagadanu/Desktop/qemu/optee_os/lib/libmpa/mpa_div.c:128
    64a0:	f9407ba1 	ldr	x1, [x29,#240]
    64a4:	2a1903e2 	mov	w2, w25
    64a8:	aa0103e0 	mov	x0, x1
    64ac:	9400053b 	bl	7998 <mpa_shift_left>
/home/lagadanu/Desktop/qemu/optee_os/lib/libmpa/mpa_div.c:131
    64b0:	f9407fa0 	ldr	x0, [x29,#248]
    64b4:	b9400416 	ldr	w22, [x0,#4]
/home/lagadanu/Desktop/qemu/optee_os/lib/libmpa/mpa_div.c:132
    64b8:	f9407ba0 	ldr	x0, [x29,#240]
    64bc:	b9400400 	ldr	w0, [x0,#4]
    64c0:	b900cfa0 	str	w0, [x29,#204]
/home/lagadanu/Desktop/qemu/optee_os/lib/libmpa/mpa_div.c:133
    64c4:	2a0003e0 	mov	w0, w0
    64c8:	4b0002c0 	sub	w0, w22, w0
    64cc:	b900cba0 	str	w0, [x29,#200]
/home/lagadanu/Desktop/qemu/optee_os/lib/libmpa/mpa_div.c:135
    64d0:	aa1303e0 	mov	x0, x19
    64d4:	97fffcc5 	bl	57e8 <mpa_wipe>
/home/lagadanu/Desktop/qemu/optee_os/lib/libmpa/mpa_div.c:141
    64d8:	b940cba1 	ldr	w1, [x29,#200]
    64dc:	f9407ba0 	ldr	x0, [x29,#240]
    64e0:	940004ef 	bl	789c <__mpa_shift_words_left>
/home/lagadanu/Desktop/qemu/optee_os/lib/libmpa/mpa_div.c:147
    64e4:	a94f07a2 	ldp	x2, x1, [x29,#240]
/home/lagadanu/Desktop/qemu/optee_os/lib/libmpa/mpa_div.c:144
    64e8:	52800025 	mov	w5, #0x1                   	// #1
/home/lagadanu/Desktop/qemu/optee_os/lib/libmpa/mpa_div.c:143
    64ec:	b9400444 	ldr	w4, [x2,#4]
    64f0:	7100009f 	cmp	w4, #0x0
    64f4:	5a84a484 	cneg	w4, w4, lt
    64f8:	51000483 	sub	w3, w4, #0x1
    64fc:	2a0403e0 	mov	w0, w4
    6500:	93407c63 	sxtw	x3, w3
    6504:	91000863 	add	x3, x3, #0x2
    6508:	d37ef463 	lsl	x3, x3, #2
/home/lagadanu/Desktop/qemu/optee_os/lib/libmpa/mpa_div.c:145
    650c:	7100001f 	cmp	w0, #0x0
    6510:	1a9fd7e6 	cset	w6, gt
    6514:	6a0500df 	tst	w6, w5
    6518:	54000ba1 	b.ne	668c <__mpa_div_q_r+0x334>
/home/lagadanu/Desktop/qemu/optee_os/lib/libmpa/mpa_div.c:149
    651c:	350002a5 	cbnz	w5, 6570 <__mpa_div_q_r+0x218>
    6520:	b9400423 	ldr	w3, [x1,#4]
    6524:	7100007f 	cmp	w3, #0x0
    6528:	5a83a463 	cneg	w3, w3, lt
    652c:	6b03001f 	cmp	w0, w3
    6530:	5400250a 	b.ge	69d0 <__mpa_div_q_r+0x678>
    6534:	8b20c823 	add	x3, x1, w0, sxtw #2
    6538:	6b00009f 	cmp	w4, w0
    653c:	b9400863 	ldr	w3, [x3,#8]
    6540:	5400006d 	b.le	654c <__mpa_div_q_r+0x1f4>
    6544:	8b20c840 	add	x0, x2, w0, sxtw #2
    6548:	b9400805 	ldr	w5, [x0,#8]
    654c:	6b0300bf 	cmp	w5, w3
    6550:	54000102 	b.cs	6570 <__mpa_div_q_r+0x218>
/home/lagadanu/Desktop/qemu/optee_os/lib/libmpa/mpa_div.c:150
    6554:	b940cba0 	ldr	w0, [x29,#200]
    6558:	52800023 	mov	w3, #0x1                   	// #1
    655c:	8b20ca60 	add	x0, x19, w0, sxtw #2
    6560:	b9000803 	str	w3, [x0,#8]
/home/lagadanu/Desktop/qemu/optee_os/lib/libmpa/mpa_div.c:151
    6564:	aa1703e3 	mov	x3, x23
    6568:	aa0103e0 	mov	x0, x1
    656c:	940006ee 	bl	8124 <mpa_sub>
/home/lagadanu/Desktop/qemu/optee_os/lib/libmpa/mpa_div.c:155
    6570:	f9407fa0 	ldr	x0, [x29,#248]
    6574:	510006d6 	sub	w22, w22, #0x1
    6578:	b9400415 	ldr	w21, [x0,#4]
    657c:	b940cfa0 	ldr	w0, [x29,#204]
    6580:	510006b4 	sub	w20, w21, #0x1
    6584:	51000ab5 	sub	w21, w21, #0x2
    6588:	93407e9b 	sxtw	x27, w20
    658c:	4b000294 	sub	w20, w20, w0
/home/lagadanu/Desktop/qemu/optee_os/lib/libmpa/mpa_div.c:173
    6590:	910353a0 	add	x0, x29, #0xd4
    6594:	f9003ba0 	str	x0, [x29,#112]
    6598:	910363a0 	add	x0, x29, #0xd8
    659c:	8b34ca74 	add	x20, x19, w20, sxtw #2
    65a0:	f90053a0 	str	x0, [x29,#160]
/home/lagadanu/Desktop/qemu/optee_os/lib/libmpa/mpa_div.c:180
    65a4:	910373a0 	add	x0, x29, #0xdc
    65a8:	93407eb5 	sxtw	x21, w21
    65ac:	f9004fa0 	str	x0, [x29,#152]
    65b0:	91002294 	add	x20, x20, #0x8
    65b4:	910383a0 	add	x0, x29, #0xe0
    65b8:	f90037a0 	str	x0, [x29,#104]
/home/lagadanu/Desktop/qemu/optee_os/lib/libmpa/mpa_div.c:184
    65bc:	910393a0 	add	x0, x29, #0xe4
    65c0:	f9004ba0 	str	x0, [x29,#144]
/home/lagadanu/Desktop/qemu/optee_os/lib/libmpa/mpa_div.c:156
    65c4:	b940cfa0 	ldr	w0, [x29,#204]
    65c8:	2a1b03fc 	mov	w28, w27
    65cc:	6b1b001f 	cmp	w0, w27
    65d0:	540007ed 	b.le	66cc <__mpa_div_q_r+0x374>
    65d4:	b980cba0 	ldrsw	x0, [x29,#200]
    65d8:	2a0003e1 	mov	w1, w0
/home/lagadanu/Desktop/qemu/optee_os/lib/libmpa/mpa_div.c:217
    65dc:	36f81be0 	tbz	w0, #31, 6958 <__mpa_div_q_r+0x600>
/home/lagadanu/Desktop/qemu/optee_os/lib/libmpa/mpa_div.c:219
    65e0:	11000421 	add	w1, w1, #0x1
    65e4:	b9000661 	str	w1, [x19,#4]
/home/lagadanu/Desktop/qemu/optee_os/lib/libmpa/mpa_div.c:223
    65e8:	f9407fa1 	ldr	x1, [x29,#248]
    65ec:	2a1903e2 	mov	w2, w25
    65f0:	aa0103e0 	mov	x0, x1
    65f4:	9400054d 	bl	7b28 <mpa_shift_right>
/home/lagadanu/Desktop/qemu/optee_os/lib/libmpa/mpa_div.c:224
    65f8:	f9407fa1 	ldr	x1, [x29,#248]
    65fc:	aa1803e0 	mov	x0, x24
    6600:	97fffc86 	bl	5818 <mpa_copy>
/home/lagadanu/Desktop/qemu/optee_os/lib/libmpa/mpa_div.c:229
    6604:	f9405fa0 	ldr	x0, [x29,#184]
    6608:	aa1703e1 	mov	x1, x23
    660c:	94000366 	bl	73a4 <mpa_free_static_temp_var>
/home/lagadanu/Desktop/qemu/optee_os/lib/libmpa/mpa_div.c:230
    6610:	f9405ba0 	ldr	x0, [x29,#176]
    6614:	aa1703e1 	mov	x1, x23
    6618:	94000363 	bl	73a4 <mpa_free_static_temp_var>
/home/lagadanu/Desktop/qemu/optee_os/lib/libmpa/mpa_div.c:231
    661c:	f94057a0 	ldr	x0, [x29,#168]
    6620:	aa1703e1 	mov	x1, x23
    6624:	94000360 	bl	73a4 <mpa_free_static_temp_var>
__mpa_div_q_r():
/home/lagadanu/Desktop/qemu/optee_os/lib/libmpa/mpa_div.c:336
    6628:	b9400660 	ldr	w0, [x19,#4]
    662c:	12800001 	mov	w1, #0xffffffff            	// #-1
    6630:	b940c3a2 	ldr	w2, [x29,#192]
    6634:	6b01001f 	cmp	w0, w1
    6638:	5a81d421 	cneg	w1, w1, gt
    663c:	6b01005f 	cmp	w2, w1
    6640:	54000060 	b.eq	664c <__mpa_div_q_r+0x2f4>
/home/lagadanu/Desktop/qemu/optee_os/lib/libmpa/mpa_div.c:336 (discriminator 5)
    6644:	4b0003e0 	neg	w0, w0
    6648:	b9000660 	str	w0, [x19,#4]
/home/lagadanu/Desktop/qemu/optee_os/lib/libmpa/mpa_div.c:337
    664c:	b9400701 	ldr	w1, [x24,#4]
    6650:	12800000 	mov	w0, #0xffffffff            	// #-1
    6654:	b9400743 	ldr	w3, [x26,#4]
    6658:	6b00003f 	cmp	w1, w0
    665c:	5a80d402 	cneg	w2, w0, gt
    6660:	6b00007f 	cmp	w3, w0
    6664:	5a80d400 	cneg	w0, w0, gt
    6668:	6b00005f 	cmp	w2, w0
    666c:	54ffe920 	b.eq	6390 <__mpa_div_q_r+0x38>
/home/lagadanu/Desktop/qemu/optee_os/lib/libmpa/mpa_div.c:337 (discriminator 9)
    6670:	4b0103e1 	neg	w1, w1
    6674:	b9000701 	str	w1, [x24,#4]
    6678:	17ffff46 	b	6390 <__mpa_div_q_r+0x38>
__mpa_div_q_r_internal():
/home/lagadanu/Desktop/qemu/optee_os/lib/libmpa/mpa_div.c:123
    667c:	11000739 	add	w25, w25, #0x1
/home/lagadanu/Desktop/qemu/optee_os/lib/libmpa/mpa_div.c:124
    6680:	531f7800 	lsl	w0, w0, #1
    6684:	52800022 	mov	w2, #0x1                   	// #1
    6688:	17ffff7f 	b	6484 <__mpa_div_q_r+0x12c>
/home/lagadanu/Desktop/qemu/optee_os/lib/libmpa/mpa_div.c:147
    668c:	b9400425 	ldr	w5, [x1,#4]
/home/lagadanu/Desktop/qemu/optee_os/lib/libmpa/mpa_div.c:146
    6690:	51000400 	sub	w0, w0, #0x1
/home/lagadanu/Desktop/qemu/optee_os/lib/libmpa/mpa_div.c:147
    6694:	52800006 	mov	w6, #0x0                   	// #0
    6698:	710000bf 	cmp	w5, #0x0
    669c:	5a85a4a5 	cneg	w5, w5, lt
    66a0:	6b05001f 	cmp	w0, w5
    66a4:	5400004a 	b.ge	66ac <__mpa_div_q_r+0x354>
    66a8:	b8636826 	ldr	w6, [x1,x3]
    66ac:	52800005 	mov	w5, #0x0                   	// #0
    66b0:	6b00009f 	cmp	w4, w0
    66b4:	5400004d 	b.le	66bc <__mpa_div_q_r+0x364>
    66b8:	b8636845 	ldr	w5, [x2,x3]
    66bc:	6b0500df 	cmp	w6, w5
    66c0:	d1001063 	sub	x3, x3, #0x4
    66c4:	1a9f17e5 	cset	w5, eq
    66c8:	17ffff91 	b	650c <__mpa_div_q_r+0x1b4>
/home/lagadanu/Desktop/qemu/optee_os/lib/libmpa/mpa_div.c:157
    66cc:	f9407fa5 	ldr	x5, [x29,#248]
    66d0:	52800001 	mov	w1, #0x0                   	// #0
    66d4:	b94004a0 	ldr	w0, [x5,#4]
    66d8:	7100001f 	cmp	w0, #0x0
    66dc:	5a80a403 	cneg	w3, w0, lt
    66e0:	6b1b007f 	cmp	w3, w27
    66e4:	5400006d 	b.le	66f0 <__mpa_div_q_r+0x398>
    66e8:	8b3cc8a0 	add	x0, x5, w28, sxtw #2
    66ec:	b9400801 	ldr	w1, [x0,#8]
/home/lagadanu/Desktop/qemu/optee_os/lib/libmpa/mpa_div.c:158
    66f0:	f9407ba6 	ldr	x6, [x29,#240]
    66f4:	110006c0 	add	w0, w22, #0x1
    66f8:	b9008fa0 	str	w0, [x29,#140]
    66fc:	110006c4 	add	w4, w22, #0x1
    6700:	52800002 	mov	w2, #0x0                   	// #0
    6704:	b94004c0 	ldr	w0, [x6,#4]
    6708:	7100001f 	cmp	w0, #0x0
    670c:	5a80a400 	cneg	w0, w0, lt
    6710:	6b04001f 	cmp	w0, w4
    6714:	5400006b 	b.lt	6720 <__mpa_div_q_r+0x3c8>
    6718:	8b36c8c6 	add	x6, x6, w22, sxtw #2
    671c:	b94008c2 	ldr	w2, [x6,#8]
    6720:	b940cfa0 	ldr	w0, [x29,#204]
/home/lagadanu/Desktop/qemu/optee_os/lib/libmpa/mpa_div.c:157
    6724:	6b02003f 	cmp	w1, w2
    6728:	4b000360 	sub	w0, w27, w0
    672c:	b900c7a0 	str	w0, [x29,#196]
    6730:	54000561 	b.ne	67dc <__mpa_div_q_r+0x484>
/home/lagadanu/Desktop/qemu/optee_os/lib/libmpa/mpa_div.c:159
    6734:	8b20ca60 	add	x0, x19, w0, sxtw #2
    6738:	12800001 	mov	w1, #0xffffffff            	// #-1
    673c:	b9000801 	str	w1, [x0,#8]
/home/lagadanu/Desktop/qemu/optee_os/lib/libmpa/mpa_div.c:195
    6740:	510006a0 	sub	w0, w21, #0x1
    6744:	937e7c00 	sbfiz	x0, x0, #2, #32
    6748:	f90043a0 	str	x0, [x29,#128]
/home/lagadanu/Desktop/qemu/optee_os/lib/libmpa/mpa_div.c:180
    674c:	510006c0 	sub	w0, w22, #0x1
    6750:	93407c00 	sxtw	x0, w0
    6754:	f9003fa0 	str	x0, [x29,#120]
/home/lagadanu/Desktop/qemu/optee_os/lib/libmpa/mpa_div.c:174
    6758:	f9407ba3 	ldr	x3, [x29,#240]
/home/lagadanu/Desktop/qemu/optee_os/lib/libmpa/mpa_div.c:173
    675c:	b9408fa4 	ldr	w4, [x29,#140]
/home/lagadanu/Desktop/qemu/optee_os/lib/libmpa/mpa_div.c:170
    6760:	b900d7bf 	str	wzr, [x29,#212]
/home/lagadanu/Desktop/qemu/optee_os/lib/libmpa/mpa_div.c:171
    6764:	b900dfbf 	str	wzr, [x29,#220]
/home/lagadanu/Desktop/qemu/optee_os/lib/libmpa/mpa_div.c:174
    6768:	b9400461 	ldr	w1, [x3,#4]
/home/lagadanu/Desktop/qemu/optee_os/lib/libmpa/mpa_div.c:172
    676c:	b900e7bf 	str	wzr, [x29,#228]
/home/lagadanu/Desktop/qemu/optee_os/lib/libmpa/mpa_div.c:174
    6770:	7100003f 	cmp	w1, #0x0
/home/lagadanu/Desktop/qemu/optee_os/lib/libmpa/mpa_div.c:173
    6774:	b9400280 	ldr	w0, [x20]
/home/lagadanu/Desktop/qemu/optee_os/lib/libmpa/mpa_div.c:174
    6778:	5a81a422 	cneg	w2, w1, lt
/home/lagadanu/Desktop/qemu/optee_os/lib/libmpa/mpa_div.c:173
    677c:	52800001 	mov	w1, #0x0                   	// #0
    6780:	6b04005f 	cmp	w2, w4
    6784:	5400006b 	b.lt	6790 <__mpa_div_q_r+0x438>
    6788:	8b36c863 	add	x3, x3, w22, sxtw #2
    678c:	b9400861 	ldr	w1, [x3,#8]
    6790:	f94053a2 	ldr	x2, [x29,#160]
    6794:	f9403ba3 	ldr	x3, [x29,#112]
    6798:	9400030a 	bl	73c0 <__mpa_mul_add_word>
/home/lagadanu/Desktop/qemu/optee_os/lib/libmpa/mpa_div.c:177
    679c:	f9407fa1 	ldr	x1, [x29,#248]
    67a0:	52800002 	mov	w2, #0x0                   	// #0
    67a4:	b9400420 	ldr	w0, [x1,#4]
    67a8:	7100001f 	cmp	w0, #0x0
    67ac:	5a80a400 	cneg	w0, w0, lt
    67b0:	6b00039f 	cmp	w28, w0
    67b4:	5400006a 	b.ge	67c0 <__mpa_div_q_r+0x468>
    67b8:	8b3cc821 	add	x1, x1, w28, sxtw #2
    67bc:	b9400822 	ldr	w2, [x1,#8]
    67c0:	b940d7a0 	ldr	w0, [x29,#212]
    67c4:	6b02001f 	cmp	w0, w2
    67c8:	54000209 	b.ls	6808 <__mpa_div_q_r+0x4b0>
/home/lagadanu/Desktop/qemu/optee_os/lib/libmpa/mpa_div.c:199
    67cc:	b9400280 	ldr	w0, [x20]
    67d0:	51000400 	sub	w0, w0, #0x1
    67d4:	b9000280 	str	w0, [x20]
    67d8:	17ffffe0 	b	6758 <__mpa_div_q_r+0x400>
/home/lagadanu/Desktop/qemu/optee_os/lib/libmpa/mpa_div.c:162
    67dc:	52800000 	mov	w0, #0x0                   	// #0
    67e0:	6b1c007f 	cmp	w3, w28
    67e4:	5400006b 	b.lt	67f0 <__mpa_div_q_r+0x498>
    67e8:	8b35c8a5 	add	x5, x5, w21, sxtw #2
    67ec:	b94008a0 	ldr	w0, [x5,#8]
    67f0:	d2800003 	mov	x3, #0x0                   	// #0
    67f4:	97fffe73 	bl	61c0 <__mpa_div_dword>
/home/lagadanu/Desktop/qemu/optee_os/lib/libmpa/mpa_div.c:161
    67f8:	b940c7a1 	ldr	w1, [x29,#196]
    67fc:	8b21ca61 	add	x1, x19, w1, sxtw #2
    6800:	b9000820 	str	w0, [x1,#8]
    6804:	17ffffcf 	b	6740 <__mpa_div_q_r+0x3e8>
/home/lagadanu/Desktop/qemu/optee_os/lib/libmpa/mpa_div.c:181
    6808:	f9407ba3 	ldr	x3, [x29,#240]
/home/lagadanu/Desktop/qemu/optee_os/lib/libmpa/mpa_div.c:180
    680c:	b9400280 	ldr	w0, [x20]
/home/lagadanu/Desktop/qemu/optee_os/lib/libmpa/mpa_div.c:181
    6810:	b9400461 	ldr	w1, [x3,#4]
    6814:	7100003f 	cmp	w1, #0x0
    6818:	5a81a422 	cneg	w2, w1, lt
/home/lagadanu/Desktop/qemu/optee_os/lib/libmpa/mpa_div.c:180
    681c:	52800001 	mov	w1, #0x0                   	// #0
    6820:	6b0202df 	cmp	w22, w2
    6824:	5400008c 	b.gt	6834 <__mpa_div_q_r+0x4dc>
    6828:	f9403fa1 	ldr	x1, [x29,#120]
    682c:	8b010863 	add	x3, x3, x1, lsl #2
    6830:	b9400861 	ldr	w1, [x3,#8]
    6834:	f94037a2 	ldr	x2, [x29,#104]
    6838:	f9404fa3 	ldr	x3, [x29,#152]
    683c:	940002e1 	bl	73c0 <__mpa_mul_add_word>
/home/lagadanu/Desktop/qemu/optee_os/lib/libmpa/mpa_div.c:184
    6840:	295b07a0 	ldp	w0, w1, [x29,#216]
    6844:	a9490ba3 	ldp	x3, x2, [x29,#144]
    6848:	94000509 	bl	7c6c <__mpa_full_adder>
/home/lagadanu/Desktop/qemu/optee_os/lib/libmpa/mpa_div.c:185
    684c:	b900dbbf 	str	wzr, [x29,#216]
/home/lagadanu/Desktop/qemu/optee_os/lib/libmpa/mpa_div.c:186
    6850:	f9404ba2 	ldr	x2, [x29,#144]
    6854:	b940d7a0 	ldr	w0, [x29,#212]
    6858:	b940e7a1 	ldr	w1, [x29,#228]
    685c:	f94053a3 	ldr	x3, [x29,#160]
    6860:	94000503 	bl	7c6c <__mpa_full_adder>
/home/lagadanu/Desktop/qemu/optee_os/lib/libmpa/mpa_div.c:187
    6864:	b940dba2 	ldr	w2, [x29,#216]
    6868:	35fffb22 	cbnz	w2, 67cc <__mpa_div_q_r+0x474>
    686c:	f9407fa1 	ldr	x1, [x29,#248]
    6870:	52800003 	mov	w3, #0x0                   	// #0
    6874:	b9400420 	ldr	w0, [x1,#4]
    6878:	7100001f 	cmp	w0, #0x0
    687c:	5a80a400 	cneg	w0, w0, lt
    6880:	6b00039f 	cmp	w28, w0
    6884:	5400006a 	b.ge	6890 <__mpa_div_q_r+0x538>
    6888:	8b3cc823 	add	x3, x1, w28, sxtw #2
    688c:	b9400863 	ldr	w3, [x3,#8]
    6890:	b940e7a5 	ldr	w5, [x29,#228]
    6894:	6b0300bf 	cmp	w5, w3
    6898:	54fff9a8 	b.hi	67cc <__mpa_div_q_r+0x474>
/home/lagadanu/Desktop/qemu/optee_os/lib/libmpa/mpa_div.c:189
    689c:	54000243 	b.cc	68e4 <__mpa_div_q_r+0x58c>
/home/lagadanu/Desktop/qemu/optee_os/lib/libmpa/mpa_div.c:191
    68a0:	52800003 	mov	w3, #0x0                   	// #0
    68a4:	6b00039f 	cmp	w28, w0
    68a8:	5400006c 	b.gt	68b4 <__mpa_div_q_r+0x55c>
    68ac:	8b35c823 	add	x3, x1, w21, sxtw #2
    68b0:	b9400863 	ldr	w3, [x3,#8]
    68b4:	b940dfa5 	ldr	w5, [x29,#220]
    68b8:	6b0300bf 	cmp	w5, w3
    68bc:	54fff888 	b.hi	67cc <__mpa_div_q_r+0x474>
/home/lagadanu/Desktop/qemu/optee_os/lib/libmpa/mpa_div.c:193
    68c0:	54000123 	b.cc	68e4 <__mpa_div_q_r+0x58c>
/home/lagadanu/Desktop/qemu/optee_os/lib/libmpa/mpa_div.c:195
    68c4:	6b15001f 	cmp	w0, w21
    68c8:	5400008b 	b.lt	68d8 <__mpa_div_q_r+0x580>
    68cc:	f94043a0 	ldr	x0, [x29,#128]
    68d0:	8b000021 	add	x1, x1, x0
    68d4:	b9400822 	ldr	w2, [x1,#8]
    68d8:	b940e3a0 	ldr	w0, [x29,#224]
    68dc:	6b02001f 	cmp	w0, w2
    68e0:	54fff768 	b.hi	67cc <__mpa_div_q_r+0x474>
/home/lagadanu/Desktop/qemu/optee_os/lib/libmpa/mpa_div.c:203
    68e4:	f9407ba0 	ldr	x0, [x29,#240]
    68e8:	52800021 	mov	w1, #0x1                   	// #1
    68ec:	94000412 	bl	7934 <__mpa_shift_words_right>
    68f0:	b940c7a0 	ldr	w0, [x29,#196]
/home/lagadanu/Desktop/qemu/optee_os/lib/libmpa/mpa_div.c:205
    68f4:	aa1703e3 	mov	x3, x23
    68f8:	8b20ca7c 	add	x28, x19, w0, sxtw #2
    68fc:	a94e87a0 	ldp	x0, x1, [x29,#232]
    6900:	b9400b82 	ldr	w2, [x28,#8]
    6904:	94000359 	bl	7668 <mpa_mul_word>
/home/lagadanu/Desktop/qemu/optee_os/lib/libmpa/mpa_div.c:206
    6908:	f9407fa1 	ldr	x1, [x29,#248]
    690c:	aa1703e3 	mov	x3, x23
    6910:	f94077a2 	ldr	x2, [x29,#232]
    6914:	aa0103e0 	mov	x0, x1
    6918:	94000603 	bl	8124 <mpa_sub>
/home/lagadanu/Desktop/qemu/optee_os/lib/libmpa/mpa_div.c:207
    691c:	f9407fa1 	ldr	x1, [x29,#248]
    6920:	b9400420 	ldr	w0, [x1,#4]
    6924:	36f80100 	tbz	w0, #31, 6944 <__mpa_div_q_r+0x5ec>
/home/lagadanu/Desktop/qemu/optee_os/lib/libmpa/mpa_div.c:208
    6928:	f9407ba2 	ldr	x2, [x29,#240]
    692c:	aa0103e0 	mov	x0, x1
    6930:	aa1703e3 	mov	x3, x23
    6934:	94000597 	bl	7f90 <mpa_add>
/home/lagadanu/Desktop/qemu/optee_os/lib/libmpa/mpa_div.c:209
    6938:	b9400b80 	ldr	w0, [x28,#8]
    693c:	51000400 	sub	w0, w0, #0x1
    6940:	b9000b80 	str	w0, [x28,#8]
    6944:	d100077b 	sub	x27, x27, #0x1
    6948:	d10006b5 	sub	x21, x21, #0x1
    694c:	d1001294 	sub	x20, x20, #0x4
    6950:	510006d6 	sub	w22, w22, #0x1
    6954:	17ffff1c 	b	65c4 <__mpa_div_q_r+0x26c>
    6958:	d1000400 	sub	x0, x0, #0x1
/home/lagadanu/Desktop/qemu/optee_os/lib/libmpa/mpa_div.c:217
    695c:	8b000a62 	add	x2, x19, x0, lsl #2
    6960:	b9400c42 	ldr	w2, [x2,#12]
    6964:	34ffe3a2 	cbz	w2, 65d8 <__mpa_div_q_r+0x280>
    6968:	17ffff1e 	b	65e0 <__mpa_div_q_r+0x288>
__mpa_div_q_r():
/home/lagadanu/Desktop/qemu/optee_os/lib/libmpa/mpa_div.c:330
    696c:	b9400a83 	ldr	w3, [x20,#8]
    6970:	aa1a03e2 	mov	x2, x26
    6974:	aa1803e1 	mov	x1, x24
    6978:	aa1303e0 	mov	x0, x19
    697c:	97fffe25 	bl	6210 <__mpa_div_q_r_internal_word>
    6980:	17ffff2a 	b	6628 <__mpa_div_q_r+0x2d0>
/home/lagadanu/Desktop/qemu/optee_os/lib/libmpa/mpa_div.c:332
    6984:	aa1303e0 	mov	x0, x19
    6988:	52800001 	mov	w1, #0x0                   	// #0
    698c:	97fffe02 	bl	6194 <mpa_set_word>
/home/lagadanu/Desktop/qemu/optee_os/lib/libmpa/mpa_div.c:333
    6990:	aa1a03e1 	mov	x1, x26
    6994:	aa1803e0 	mov	x0, x24
    6998:	97fffba0 	bl	5818 <mpa_copy>
/home/lagadanu/Desktop/qemu/optee_os/lib/libmpa/mpa_div.c:334
    699c:	17fffe7d 	b	6390 <__mpa_div_q_r+0x38>
/home/lagadanu/Desktop/qemu/optee_os/lib/libmpa/mpa_div.c:319
    69a0:	12800001 	mov	w1, #0xffffffff            	// #-1
    69a4:	6b01001f 	cmp	w0, w1
    69a8:	5a81d420 	cneg	w0, w1, gt
    69ac:	b900c3a0 	str	w0, [x29,#192]
/home/lagadanu/Desktop/qemu/optee_os/lib/libmpa/mpa_div.c:320
    69b0:	aa1403e1 	mov	x1, x20
    69b4:	aa1a03e0 	mov	x0, x26
    69b8:	940006ea 	bl	8560 <__mpa_abs_cmp>
/home/lagadanu/Desktop/qemu/optee_os/lib/libmpa/mpa_div.c:321
    69bc:	7100001f 	cmp	w0, #0x0
    69c0:	54ffd0c1 	b.ne	63d8 <__mpa_div_q_r+0x80>
/home/lagadanu/Desktop/qemu/optee_os/lib/libmpa/mpa_div.c:322
    69c4:	52800021 	mov	w1, #0x1                   	// #1
    69c8:	aa1303e0 	mov	x0, x19
    69cc:	17fffe6d 	b	6380 <__mpa_div_q_r+0x28>
__mpa_div_q_r_internal():
/home/lagadanu/Desktop/qemu/optee_os/lib/libmpa/mpa_div.c:149
    69d0:	6b00009f 	cmp	w4, w0
    69d4:	54ffdced 	b.le	6570 <__mpa_div_q_r+0x218>
    69d8:	52800003 	mov	w3, #0x0                   	// #0
    69dc:	17fffeda 	b	6544 <__mpa_div_q_r+0x1ec>

00000000000069e0 <mpa_div>:
mpa_div():
/home/lagadanu/Desktop/qemu/optee_os/lib/libmpa/mpa_div.c:357
    69e0:	a9ba7bfd 	stp	x29, x30, [sp,#-96]!
/home/lagadanu/Desktop/qemu/optee_os/lib/libmpa/mpa_div.c:364
    69e4:	eb02001f 	cmp	x0, x2
    69e8:	fa431004 	ccmp	x0, x3, #0x4, ne
/home/lagadanu/Desktop/qemu/optee_os/lib/libmpa/mpa_div.c:357
    69ec:	910003fd 	mov	x29, sp
    69f0:	a90153f3 	stp	x19, x20, [sp,#16]
/home/lagadanu/Desktop/qemu/optee_os/lib/libmpa/mpa_div.c:364
    69f4:	fa401804 	ccmp	x0, #0x0, #0x4, ne
/home/lagadanu/Desktop/qemu/optee_os/lib/libmpa/mpa_div.c:357
    69f8:	a9025bf5 	stp	x21, x22, [sp,#32]
    69fc:	aa0003f4 	mov	x20, x0
    6a00:	a90363f7 	stp	x23, x24, [sp,#48]
    6a04:	aa0103f3 	mov	x19, x1
    6a08:	f90023f9 	str	x25, [sp,#64]
    6a0c:	aa0203f6 	mov	x22, x2
    6a10:	aa0303f7 	mov	x23, x3
    6a14:	aa0403f5 	mov	x21, x4
/home/lagadanu/Desktop/qemu/optee_os/lib/libmpa/mpa_div.c:364
    6a18:	54000501 	b.ne	6ab8 <mpa_div+0xd8>
/home/lagadanu/Desktop/qemu/optee_os/lib/libmpa/mpa_div.c:366
    6a1c:	52800039 	mov	w25, #0x1                   	// #1
/home/lagadanu/Desktop/qemu/optee_os/lib/libmpa/mpa_div.c:365
    6a20:	aa0403e1 	mov	x1, x4
    6a24:	910143a0 	add	x0, x29, #0x50
    6a28:	9400025b 	bl	7394 <mpa_alloc_static_temp_var>
/home/lagadanu/Desktop/qemu/optee_os/lib/libmpa/mpa_div.c:373
    6a2c:	f100027f 	cmp	x19, #0x0
    6a30:	fa5312e4 	ccmp	x23, x19, #0x4, ne
    6a34:	fa5312c4 	ccmp	x22, x19, #0x4, ne
    6a38:	54000461 	b.ne	6ac4 <mpa_div+0xe4>
/home/lagadanu/Desktop/qemu/optee_os/lib/libmpa/mpa_div.c:375
    6a3c:	52800038 	mov	w24, #0x1                   	// #1
/home/lagadanu/Desktop/qemu/optee_os/lib/libmpa/mpa_div.c:374
    6a40:	aa1503e1 	mov	x1, x21
    6a44:	910163a0 	add	x0, x29, #0x58
    6a48:	94000253 	bl	7394 <mpa_alloc_static_temp_var>
/home/lagadanu/Desktop/qemu/optee_os/lib/libmpa/mpa_div.c:381
    6a4c:	a94507a0 	ldp	x0, x1, [x29,#80]
    6a50:	aa1503e4 	mov	x4, x21
    6a54:	aa1703e3 	mov	x3, x23
    6a58:	aa1603e2 	mov	x2, x22
    6a5c:	97fffe3f 	bl	6358 <__mpa_div_q_r>
/home/lagadanu/Desktop/qemu/optee_os/lib/libmpa/mpa_div.c:383
    6a60:	b4000094 	cbz	x20, 6a70 <mpa_div+0x90>
/home/lagadanu/Desktop/qemu/optee_os/lib/libmpa/mpa_div.c:384
    6a64:	f9402ba1 	ldr	x1, [x29,#80]
    6a68:	aa1403e0 	mov	x0, x20
    6a6c:	97fffb6b 	bl	5818 <mpa_copy>
/home/lagadanu/Desktop/qemu/optee_os/lib/libmpa/mpa_div.c:385
    6a70:	34000099 	cbz	w25, 6a80 <mpa_div+0xa0>
/home/lagadanu/Desktop/qemu/optee_os/lib/libmpa/mpa_div.c:386
    6a74:	aa1503e1 	mov	x1, x21
    6a78:	910143a0 	add	x0, x29, #0x50
    6a7c:	9400024a 	bl	73a4 <mpa_free_static_temp_var>
/home/lagadanu/Desktop/qemu/optee_os/lib/libmpa/mpa_div.c:387
    6a80:	b4000093 	cbz	x19, 6a90 <mpa_div+0xb0>
/home/lagadanu/Desktop/qemu/optee_os/lib/libmpa/mpa_div.c:388
    6a84:	f9402fa1 	ldr	x1, [x29,#88]
    6a88:	aa1303e0 	mov	x0, x19
    6a8c:	97fffb63 	bl	5818 <mpa_copy>
/home/lagadanu/Desktop/qemu/optee_os/lib/libmpa/mpa_div.c:389
    6a90:	34000098 	cbz	w24, 6aa0 <mpa_div+0xc0>
/home/lagadanu/Desktop/qemu/optee_os/lib/libmpa/mpa_div.c:390
    6a94:	aa1503e1 	mov	x1, x21
    6a98:	910163a0 	add	x0, x29, #0x58
    6a9c:	94000242 	bl	73a4 <mpa_free_static_temp_var>
/home/lagadanu/Desktop/qemu/optee_os/lib/libmpa/mpa_div.c:391
    6aa0:	a94153f3 	ldp	x19, x20, [sp,#16]
    6aa4:	a9425bf5 	ldp	x21, x22, [sp,#32]
    6aa8:	a94363f7 	ldp	x23, x24, [sp,#48]
    6aac:	f94023f9 	ldr	x25, [sp,#64]
    6ab0:	a8c67bfd 	ldp	x29, x30, [sp],#96
    6ab4:	d65f03c0 	ret
/home/lagadanu/Desktop/qemu/optee_os/lib/libmpa/mpa_div.c:369
    6ab8:	52800019 	mov	w25, #0x0                   	// #0
/home/lagadanu/Desktop/qemu/optee_os/lib/libmpa/mpa_div.c:368
    6abc:	f9002ba0 	str	x0, [x29,#80]
    6ac0:	17ffffdb 	b	6a2c <mpa_div+0x4c>
/home/lagadanu/Desktop/qemu/optee_os/lib/libmpa/mpa_div.c:378
    6ac4:	52800018 	mov	w24, #0x0                   	// #0
/home/lagadanu/Desktop/qemu/optee_os/lib/libmpa/mpa_div.c:377
    6ac8:	f9002fb3 	str	x19, [x29,#88]
    6acc:	17ffffe0 	b	6a4c <mpa_div+0x6c>

0000000000006ad0 <__mpa_divby2>:
__mpa_divby2():
/home/lagadanu/Desktop/qemu/optee_os/lib/libmpa/mpa_gcd.c:25
    6ad0:	b9400403 	ldr	w3, [x0,#4]
    6ad4:	7100007f 	cmp	w3, #0x0
    6ad8:	540002a0 	b.eq	6b2c <__mpa_divby2+0x5c>
/home/lagadanu/Desktop/qemu/optee_os/lib/libmpa/mpa_gcd.c:28
    6adc:	5a83a466 	cneg	w6, w3, lt
/home/lagadanu/Desktop/qemu/optee_os/lib/libmpa/mpa_gcd.c:30
    6ae0:	b9400804 	ldr	w4, [x0,#8]
/home/lagadanu/Desktop/qemu/optee_os/lib/libmpa/mpa_gcd.c:28
    6ae4:	510004c1 	sub	w1, w6, #0x1
/home/lagadanu/Desktop/qemu/optee_os/lib/libmpa/mpa_gcd.c:31
    6ae8:	52800025 	mov	w5, #0x1                   	// #1
/home/lagadanu/Desktop/qemu/optee_os/lib/libmpa/mpa_gcd.c:28
    6aec:	8b21c801 	add	x1, x0, w1, sxtw #2
/home/lagadanu/Desktop/qemu/optee_os/lib/libmpa/mpa_gcd.c:30
    6af0:	53017c84 	lsr	w4, w4, #1
/home/lagadanu/Desktop/qemu/optee_os/lib/libmpa/mpa_gcd.c:28
    6af4:	b9400821 	ldr	w1, [x1,#8]
    6af8:	53017c21 	lsr	w1, w1, #1
    6afc:	7100003f 	cmp	w1, #0x0
/home/lagadanu/Desktop/qemu/optee_os/lib/libmpa/mpa_gcd.c:30
    6b00:	aa0003e1 	mov	x1, x0
/home/lagadanu/Desktop/qemu/optee_os/lib/libmpa/mpa_gcd.c:28
    6b04:	1a9f17e2 	cset	w2, eq
/home/lagadanu/Desktop/qemu/optee_os/lib/libmpa/mpa_gcd.c:30
    6b08:	b8008c24 	str	w4, [x1,#8]!
    6b0c:	91001021 	add	x1, x1, #0x4
/home/lagadanu/Desktop/qemu/optee_os/lib/libmpa/mpa_gcd.c:31 (discriminator 1)
    6b10:	6b0600bf 	cmp	w5, w6
    6b14:	540000e3 	b.cc	6b30 <__mpa_divby2+0x60>
/home/lagadanu/Desktop/qemu/optee_os/lib/libmpa/mpa_gcd.c:38
    6b18:	4b020061 	sub	w1, w3, w2
    6b1c:	7100007f 	cmp	w3, #0x0
    6b20:	0b020062 	add	w2, w3, w2
    6b24:	1a81b042 	csel	w2, w2, w1, lt
    6b28:	b9000402 	str	w2, [x0,#4]
    6b2c:	d65f03c0 	ret
/home/lagadanu/Desktop/qemu/optee_os/lib/libmpa/mpa_gcd.c:32 (discriminator 3)
    6b30:	b9400024 	ldr	w4, [x1]
/home/lagadanu/Desktop/qemu/optee_os/lib/libmpa/mpa_gcd.c:31 (discriminator 3)
    6b34:	110004a5 	add	w5, w5, #0x1
/home/lagadanu/Desktop/qemu/optee_os/lib/libmpa/mpa_gcd.c:33 (discriminator 3)
    6b38:	53017c87 	lsr	w7, w4, #1
    6b3c:	b9000027 	str	w7, [x1]
/home/lagadanu/Desktop/qemu/optee_os/lib/libmpa/mpa_gcd.c:34 (discriminator 3)
    6b40:	b85fc027 	ldur	w7, [x1,#-4]
    6b44:	4a047ce4 	eor	w4, w7, w4, lsl #31
    6b48:	b81fc024 	stur	w4, [x1,#-4]
    6b4c:	17fffff0 	b	6b0c <__mpa_divby2+0x3c>

0000000000006b50 <__mpa_gcd.part.0>:
__mpa_gcd():
/home/lagadanu/Desktop/qemu/optee_os/lib/libmpa/mpa_gcd.c:190
    6b50:	a9ba7bfd 	stp	x29, x30, [sp,#-96]!
    6b54:	910003fd 	mov	x29, sp
    6b58:	a9025bf5 	stp	x21, x22, [sp,#32]
/home/lagadanu/Desktop/qemu/optee_os/lib/libmpa/mpa_gcd.c:204
    6b5c:	910123b6 	add	x22, x29, #0x48
/home/lagadanu/Desktop/qemu/optee_os/lib/libmpa/mpa_gcd.c:190
    6b60:	a90153f3 	stp	x19, x20, [sp,#16]
    6b64:	aa0103f5 	mov	x21, x1
    6b68:	aa0203f4 	mov	x20, x2
    6b6c:	aa0303f3 	mov	x19, x3
/home/lagadanu/Desktop/qemu/optee_os/lib/libmpa/mpa_gcd.c:204
    6b70:	aa0303e1 	mov	x1, x3
/home/lagadanu/Desktop/qemu/optee_os/lib/libmpa/mpa_gcd.c:190
    6b74:	a90363f7 	stp	x23, x24, [sp,#48]
    6b78:	aa0003f8 	mov	x24, x0
/home/lagadanu/Desktop/qemu/optee_os/lib/libmpa/mpa_gcd.c:204
    6b7c:	aa1603e0 	mov	x0, x22
    6b80:	94000205 	bl	7394 <mpa_alloc_static_temp_var>
/home/lagadanu/Desktop/qemu/optee_os/lib/libmpa/mpa_gcd.c:205
    6b84:	f94027a0 	ldr	x0, [x29,#72]
    6b88:	aa1503e1 	mov	x1, x21
/home/lagadanu/Desktop/qemu/optee_os/lib/libmpa/mpa_gcd.c:206
    6b8c:	910143b5 	add	x21, x29, #0x50
/home/lagadanu/Desktop/qemu/optee_os/lib/libmpa/mpa_gcd.c:205
    6b90:	97fffb22 	bl	5818 <mpa_copy>
/home/lagadanu/Desktop/qemu/optee_os/lib/libmpa/mpa_gcd.c:206
    6b94:	aa1303e1 	mov	x1, x19
    6b98:	aa1503e0 	mov	x0, x21
    6b9c:	940001fe 	bl	7394 <mpa_alloc_static_temp_var>
/home/lagadanu/Desktop/qemu/optee_os/lib/libmpa/mpa_gcd.c:207
    6ba0:	f9402ba0 	ldr	x0, [x29,#80]
    6ba4:	aa1403e1 	mov	x1, x20
/home/lagadanu/Desktop/qemu/optee_os/lib/libmpa/mpa_gcd.c:209
    6ba8:	52800014 	mov	w20, #0x0                   	// #0
/home/lagadanu/Desktop/qemu/optee_os/lib/libmpa/mpa_gcd.c:207
    6bac:	97fffb1b 	bl	5818 <mpa_copy>
/home/lagadanu/Desktop/qemu/optee_os/lib/libmpa/mpa_gcd.c:210
    6bb0:	f94027a0 	ldr	x0, [x29,#72]
    6bb4:	97fffb63 	bl	5940 <mpa_parity>
    6bb8:	34000340 	cbz	w0, 6c20 <__mpa_gcd.part.0+0xd0>
/home/lagadanu/Desktop/qemu/optee_os/lib/libmpa/mpa_gcd.c:216
    6bbc:	910163b7 	add	x23, x29, #0x58
    6bc0:	aa1303e1 	mov	x1, x19
    6bc4:	aa1703e0 	mov	x0, x23
    6bc8:	940001f3 	bl	7394 <mpa_alloc_static_temp_var>
/home/lagadanu/Desktop/qemu/optee_os/lib/libmpa/mpa_gcd.c:217
    6bcc:	f94027a0 	ldr	x0, [x29,#72]
    6bd0:	b9400400 	ldr	w0, [x0,#4]
    6bd4:	350003c0 	cbnz	w0, 6c4c <__mpa_gcd.part.0+0xfc>
/home/lagadanu/Desktop/qemu/optee_os/lib/libmpa/mpa_gcd.c:234
    6bd8:	f9402ba1 	ldr	x1, [x29,#80]
    6bdc:	2a1403e2 	mov	w2, w20
    6be0:	aa1803e0 	mov	x0, x24
    6be4:	9400036d 	bl	7998 <mpa_shift_left>
/home/lagadanu/Desktop/qemu/optee_os/lib/libmpa/mpa_gcd.c:235
    6be8:	aa1303e1 	mov	x1, x19
    6bec:	aa1703e0 	mov	x0, x23
    6bf0:	940001ed 	bl	73a4 <mpa_free_static_temp_var>
/home/lagadanu/Desktop/qemu/optee_os/lib/libmpa/mpa_gcd.c:236
    6bf4:	aa1303e1 	mov	x1, x19
    6bf8:	aa1603e0 	mov	x0, x22
    6bfc:	940001ea 	bl	73a4 <mpa_free_static_temp_var>
/home/lagadanu/Desktop/qemu/optee_os/lib/libmpa/mpa_gcd.c:237
    6c00:	aa1303e1 	mov	x1, x19
    6c04:	aa1503e0 	mov	x0, x21
    6c08:	940001e7 	bl	73a4 <mpa_free_static_temp_var>
/home/lagadanu/Desktop/qemu/optee_os/lib/libmpa/mpa_gcd.c:238
    6c0c:	a94153f3 	ldp	x19, x20, [sp,#16]
    6c10:	a9425bf5 	ldp	x21, x22, [sp,#32]
    6c14:	a94363f7 	ldp	x23, x24, [sp,#48]
    6c18:	a8c67bfd 	ldp	x29, x30, [sp],#96
    6c1c:	d65f03c0 	ret
/home/lagadanu/Desktop/qemu/optee_os/lib/libmpa/mpa_gcd.c:210
    6c20:	f9402ba0 	ldr	x0, [x29,#80]
    6c24:	97fffb47 	bl	5940 <mpa_parity>
    6c28:	35fffca0 	cbnz	w0, 6bbc <__mpa_gcd.part.0+0x6c>
/home/lagadanu/Desktop/qemu/optee_os/lib/libmpa/mpa_gcd.c:212
    6c2c:	f94027a0 	ldr	x0, [x29,#72]
/home/lagadanu/Desktop/qemu/optee_os/lib/libmpa/mpa_gcd.c:211
    6c30:	11000694 	add	w20, w20, #0x1
/home/lagadanu/Desktop/qemu/optee_os/lib/libmpa/mpa_gcd.c:212
    6c34:	97ffffa7 	bl	6ad0 <__mpa_divby2>
/home/lagadanu/Desktop/qemu/optee_os/lib/libmpa/mpa_gcd.c:213
    6c38:	f9402ba0 	ldr	x0, [x29,#80]
    6c3c:	97ffffa5 	bl	6ad0 <__mpa_divby2>
    6c40:	17ffffdc 	b	6bb0 <__mpa_gcd.part.0+0x60>
/home/lagadanu/Desktop/qemu/optee_os/lib/libmpa/mpa_gcd.c:219
    6c44:	f94027a0 	ldr	x0, [x29,#72]
    6c48:	97ffffa2 	bl	6ad0 <__mpa_divby2>
/home/lagadanu/Desktop/qemu/optee_os/lib/libmpa/mpa_gcd.c:218
    6c4c:	f94027a0 	ldr	x0, [x29,#72]
    6c50:	97fffb3c 	bl	5940 <mpa_parity>
    6c54:	34ffff80 	cbz	w0, 6c44 <__mpa_gcd.part.0+0xf4>
/home/lagadanu/Desktop/qemu/optee_os/lib/libmpa/mpa_gcd.c:221
    6c58:	f9402ba0 	ldr	x0, [x29,#80]
    6c5c:	97fffb39 	bl	5940 <mpa_parity>
    6c60:	34000240 	cbz	w0, 6ca8 <__mpa_gcd.part.0+0x158>
/home/lagadanu/Desktop/qemu/optee_os/lib/libmpa/mpa_gcd.c:224
    6c64:	a9448ba1 	ldp	x1, x2, [x29,#72]
    6c68:	aa1303e3 	mov	x3, x19
    6c6c:	f9402fa0 	ldr	x0, [x29,#88]
    6c70:	9400052d 	bl	8124 <mpa_sub>
/home/lagadanu/Desktop/qemu/optee_os/lib/libmpa/mpa_gcd.c:226
    6c74:	f9402fa0 	ldr	x0, [x29,#88]
    6c78:	b9400401 	ldr	w1, [x0,#4]
    6c7c:	36f80061 	tbz	w1, #31, 6c88 <__mpa_gcd.part.0+0x138>
    6c80:	4b0103e1 	neg	w1, w1
    6c84:	b9000401 	str	w1, [x0,#4]
/home/lagadanu/Desktop/qemu/optee_os/lib/libmpa/mpa_gcd.c:227
    6c88:	97ffff92 	bl	6ad0 <__mpa_divby2>
/home/lagadanu/Desktop/qemu/optee_os/lib/libmpa/mpa_gcd.c:228
    6c8c:	a94487a0 	ldp	x0, x1, [x29,#72]
    6c90:	9400066d 	bl	8644 <mpa_cmp>
/home/lagadanu/Desktop/qemu/optee_os/lib/libmpa/mpa_gcd.c:229
    6c94:	f9402fa1 	ldr	x1, [x29,#88]
/home/lagadanu/Desktop/qemu/optee_os/lib/libmpa/mpa_gcd.c:228
    6c98:	37f800e0 	tbnz	w0, #31, 6cb4 <__mpa_gcd.part.0+0x164>
/home/lagadanu/Desktop/qemu/optee_os/lib/libmpa/mpa_gcd.c:229
    6c9c:	f94027a0 	ldr	x0, [x29,#72]
/home/lagadanu/Desktop/qemu/optee_os/lib/libmpa/mpa_gcd.c:231
    6ca0:	97fffade 	bl	5818 <mpa_copy>
    6ca4:	17ffffca 	b	6bcc <__mpa_gcd.part.0+0x7c>
/home/lagadanu/Desktop/qemu/optee_os/lib/libmpa/mpa_gcd.c:222
    6ca8:	f9402ba0 	ldr	x0, [x29,#80]
    6cac:	97ffff89 	bl	6ad0 <__mpa_divby2>
    6cb0:	17ffffea 	b	6c58 <__mpa_gcd.part.0+0x108>
/home/lagadanu/Desktop/qemu/optee_os/lib/libmpa/mpa_gcd.c:231
    6cb4:	f9402ba0 	ldr	x0, [x29,#80]
    6cb8:	17fffffa 	b	6ca0 <__mpa_gcd.part.0+0x150>

0000000000006cbc <__mpa_egcd>:
__mpa_egcd():
/home/lagadanu/Desktop/qemu/optee_os/lib/libmpa/mpa_gcd.c:94
    6cbc:	a9b57bfd 	stp	x29, x30, [sp,#-176]!
    6cc0:	910003fd 	mov	x29, sp
    6cc4:	a90153f3 	stp	x19, x20, [sp,#16]
    6cc8:	aa0003f4 	mov	x20, x0
/home/lagadanu/Desktop/qemu/optee_os/lib/libmpa/mpa_gcd.c:105
    6ccc:	b9400480 	ldr	w0, [x4,#4]
/home/lagadanu/Desktop/qemu/optee_os/lib/libmpa/mpa_gcd.c:94
    6cd0:	a9025bf5 	stp	x21, x22, [sp,#32]
    6cd4:	aa0103f6 	mov	x22, x1
    6cd8:	a9046bf9 	stp	x25, x26, [sp,#64]
    6cdc:	aa0203f5 	mov	x21, x2
    6ce0:	a90363f7 	stp	x23, x24, [sp,#48]
    6ce4:	aa0303f9 	mov	x25, x3
    6ce8:	a90573fb 	stp	x27, x28, [sp,#80]
/home/lagadanu/Desktop/qemu/optee_os/lib/libmpa/mpa_gcd.c:105
    6cec:	35000260 	cbnz	w0, 6d38 <__mpa_egcd+0x7c>
/home/lagadanu/Desktop/qemu/optee_os/lib/libmpa/mpa_gcd.c:106
    6cf0:	b4000081 	cbz	x1, 6d00 <__mpa_egcd+0x44>
/home/lagadanu/Desktop/qemu/optee_os/lib/libmpa/mpa_gcd.c:107
    6cf4:	52800021 	mov	w1, #0x1                   	// #1
    6cf8:	aa1603e0 	mov	x0, x22
    6cfc:	97fffd26 	bl	6194 <mpa_set_word>
/home/lagadanu/Desktop/qemu/optee_os/lib/libmpa/mpa_gcd.c:108
    6d00:	b4000095 	cbz	x21, 6d10 <__mpa_egcd+0x54>
/home/lagadanu/Desktop/qemu/optee_os/lib/libmpa/mpa_gcd.c:109
    6d04:	52800001 	mov	w1, #0x0                   	// #0
    6d08:	aa1503e0 	mov	x0, x21
    6d0c:	97fffd22 	bl	6194 <mpa_set_word>
/home/lagadanu/Desktop/qemu/optee_os/lib/libmpa/mpa_gcd.c:110
    6d10:	aa1903e1 	mov	x1, x25
    6d14:	aa1403e0 	mov	x0, x20
    6d18:	97fffac0 	bl	5818 <mpa_copy>
/home/lagadanu/Desktop/qemu/optee_os/lib/libmpa/mpa_gcd.c:183
    6d1c:	a94153f3 	ldp	x19, x20, [sp,#16]
    6d20:	a9425bf5 	ldp	x21, x22, [sp,#32]
    6d24:	a94363f7 	ldp	x23, x24, [sp,#48]
    6d28:	a9446bf9 	ldp	x25, x26, [sp,#64]
    6d2c:	a94573fb 	ldp	x27, x28, [sp,#80]
    6d30:	a8cb7bfd 	ldp	x29, x30, [sp],#176
    6d34:	d65f03c0 	ret
/home/lagadanu/Desktop/qemu/optee_os/lib/libmpa/mpa_gcd.c:113
    6d38:	910263b8 	add	x24, x29, #0x98
    6d3c:	aa0403f7 	mov	x23, x4
    6d40:	aa0503f3 	mov	x19, x5
    6d44:	aa0503e1 	mov	x1, x5
    6d48:	aa1803e0 	mov	x0, x24
    6d4c:	94000192 	bl	7394 <mpa_alloc_static_temp_var>
/home/lagadanu/Desktop/qemu/optee_os/lib/libmpa/mpa_gcd.c:114
    6d50:	f9404fa0 	ldr	x0, [x29,#152]
    6d54:	aa1903e1 	mov	x1, x25
    6d58:	97fffab0 	bl	5818 <mpa_copy>
/home/lagadanu/Desktop/qemu/optee_os/lib/libmpa/mpa_gcd.c:115
    6d5c:	910283a0 	add	x0, x29, #0xa0
    6d60:	aa1303e1 	mov	x1, x19
    6d64:	f90037a0 	str	x0, [x29,#104]
    6d68:	9400018b 	bl	7394 <mpa_alloc_static_temp_var>
/home/lagadanu/Desktop/qemu/optee_os/lib/libmpa/mpa_gcd.c:116
    6d6c:	f94053a0 	ldr	x0, [x29,#160]
    6d70:	aa1703e1 	mov	x1, x23
/home/lagadanu/Desktop/qemu/optee_os/lib/libmpa/mpa_gcd.c:118
    6d74:	52800017 	mov	w23, #0x0                   	// #0
/home/lagadanu/Desktop/qemu/optee_os/lib/libmpa/mpa_gcd.c:116
    6d78:	97fffaa8 	bl	5818 <mpa_copy>
/home/lagadanu/Desktop/qemu/optee_os/lib/libmpa/mpa_gcd.c:119
    6d7c:	f9404fa0 	ldr	x0, [x29,#152]
    6d80:	97fffaf0 	bl	5940 <mpa_parity>
    6d84:	34000980 	cbz	w0, 6eb4 <__mpa_egcd+0x1f8>
/home/lagadanu/Desktop/qemu/optee_os/lib/libmpa/mpa_gcd.c:125
    6d88:	9102a3a0 	add	x0, x29, #0xa8
    6d8c:	aa1303e1 	mov	x1, x19
    6d90:	f90033a0 	str	x0, [x29,#96]
    6d94:	94000180 	bl	7394 <mpa_alloc_static_temp_var>
/home/lagadanu/Desktop/qemu/optee_os/lib/libmpa/mpa_gcd.c:126
    6d98:	f9404fa1 	ldr	x1, [x29,#152]
/home/lagadanu/Desktop/qemu/optee_os/lib/libmpa/mpa_gcd.c:128
    6d9c:	9101e3bc 	add	x28, x29, #0x78
/home/lagadanu/Desktop/qemu/optee_os/lib/libmpa/mpa_gcd.c:126
    6da0:	f94057a0 	ldr	x0, [x29,#168]
/home/lagadanu/Desktop/qemu/optee_os/lib/libmpa/mpa_gcd.c:130
    6da4:	910203bb 	add	x27, x29, #0x80
/home/lagadanu/Desktop/qemu/optee_os/lib/libmpa/mpa_gcd.c:132
    6da8:	910223ba 	add	x26, x29, #0x88
/home/lagadanu/Desktop/qemu/optee_os/lib/libmpa/mpa_gcd.c:134
    6dac:	910243b9 	add	x25, x29, #0x90
/home/lagadanu/Desktop/qemu/optee_os/lib/libmpa/mpa_gcd.c:126
    6db0:	97fffa9a 	bl	5818 <mpa_copy>
/home/lagadanu/Desktop/qemu/optee_os/lib/libmpa/mpa_gcd.c:127
    6db4:	f94053a1 	ldr	x1, [x29,#160]
    6db8:	aa1403e0 	mov	x0, x20
    6dbc:	97fffa97 	bl	5818 <mpa_copy>
/home/lagadanu/Desktop/qemu/optee_os/lib/libmpa/mpa_gcd.c:128
    6dc0:	aa1303e1 	mov	x1, x19
    6dc4:	aa1c03e0 	mov	x0, x28
    6dc8:	94000173 	bl	7394 <mpa_alloc_static_temp_var>
/home/lagadanu/Desktop/qemu/optee_os/lib/libmpa/mpa_gcd.c:129
    6dcc:	f9403fa0 	ldr	x0, [x29,#120]
    6dd0:	52800021 	mov	w1, #0x1                   	// #1
    6dd4:	97fffcf0 	bl	6194 <mpa_set_word>
/home/lagadanu/Desktop/qemu/optee_os/lib/libmpa/mpa_gcd.c:130
    6dd8:	aa1303e1 	mov	x1, x19
    6ddc:	aa1b03e0 	mov	x0, x27
    6de0:	9400016d 	bl	7394 <mpa_alloc_static_temp_var>
/home/lagadanu/Desktop/qemu/optee_os/lib/libmpa/mpa_gcd.c:131
    6de4:	f94043a0 	ldr	x0, [x29,#128]
    6de8:	52800001 	mov	w1, #0x0                   	// #0
    6dec:	97fffcea 	bl	6194 <mpa_set_word>
/home/lagadanu/Desktop/qemu/optee_os/lib/libmpa/mpa_gcd.c:132
    6df0:	aa1303e1 	mov	x1, x19
    6df4:	aa1a03e0 	mov	x0, x26
    6df8:	94000167 	bl	7394 <mpa_alloc_static_temp_var>
/home/lagadanu/Desktop/qemu/optee_os/lib/libmpa/mpa_gcd.c:133
    6dfc:	f94047a0 	ldr	x0, [x29,#136]
    6e00:	52800001 	mov	w1, #0x0                   	// #0
    6e04:	97fffce4 	bl	6194 <mpa_set_word>
/home/lagadanu/Desktop/qemu/optee_os/lib/libmpa/mpa_gcd.c:134
    6e08:	aa1303e1 	mov	x1, x19
    6e0c:	aa1903e0 	mov	x0, x25
    6e10:	94000161 	bl	7394 <mpa_alloc_static_temp_var>
/home/lagadanu/Desktop/qemu/optee_os/lib/libmpa/mpa_gcd.c:135
    6e14:	f9404ba0 	ldr	x0, [x29,#144]
    6e18:	52800021 	mov	w1, #0x1                   	// #1
    6e1c:	97fffcde 	bl	6194 <mpa_set_word>
/home/lagadanu/Desktop/qemu/optee_os/lib/libmpa/mpa_gcd.c:137
    6e20:	f94057a0 	ldr	x0, [x29,#168]
    6e24:	b9400400 	ldr	w0, [x0,#4]
    6e28:	35000800 	cbnz	w0, 6f28 <__mpa_egcd+0x26c>
/home/lagadanu/Desktop/qemu/optee_os/lib/libmpa/mpa_gcd.c:170
    6e2c:	b4000096 	cbz	x22, 6e3c <__mpa_egcd+0x180>
/home/lagadanu/Desktop/qemu/optee_os/lib/libmpa/mpa_gcd.c:171
    6e30:	f94047a1 	ldr	x1, [x29,#136]
    6e34:	aa1603e0 	mov	x0, x22
    6e38:	97fffa78 	bl	5818 <mpa_copy>
/home/lagadanu/Desktop/qemu/optee_os/lib/libmpa/mpa_gcd.c:172
    6e3c:	b4000095 	cbz	x21, 6e4c <__mpa_egcd+0x190>
/home/lagadanu/Desktop/qemu/optee_os/lib/libmpa/mpa_gcd.c:173
    6e40:	f9404ba1 	ldr	x1, [x29,#144]
    6e44:	aa1503e0 	mov	x0, x21
    6e48:	97fffa74 	bl	5818 <mpa_copy>
/home/lagadanu/Desktop/qemu/optee_os/lib/libmpa/mpa_gcd.c:174
    6e4c:	2a1703e2 	mov	w2, w23
    6e50:	aa1403e1 	mov	x1, x20
    6e54:	aa1403e0 	mov	x0, x20
    6e58:	940002d0 	bl	7998 <mpa_shift_left>
/home/lagadanu/Desktop/qemu/optee_os/lib/libmpa/mpa_gcd.c:176
    6e5c:	aa1303e1 	mov	x1, x19
    6e60:	aa1c03e0 	mov	x0, x28
    6e64:	94000150 	bl	73a4 <mpa_free_static_temp_var>
/home/lagadanu/Desktop/qemu/optee_os/lib/libmpa/mpa_gcd.c:177
    6e68:	aa1303e1 	mov	x1, x19
    6e6c:	aa1b03e0 	mov	x0, x27
    6e70:	9400014d 	bl	73a4 <mpa_free_static_temp_var>
/home/lagadanu/Desktop/qemu/optee_os/lib/libmpa/mpa_gcd.c:178
    6e74:	aa1303e1 	mov	x1, x19
    6e78:	aa1a03e0 	mov	x0, x26
    6e7c:	9400014a 	bl	73a4 <mpa_free_static_temp_var>
/home/lagadanu/Desktop/qemu/optee_os/lib/libmpa/mpa_gcd.c:179
    6e80:	aa1303e1 	mov	x1, x19
    6e84:	aa1903e0 	mov	x0, x25
    6e88:	94000147 	bl	73a4 <mpa_free_static_temp_var>
/home/lagadanu/Desktop/qemu/optee_os/lib/libmpa/mpa_gcd.c:180
    6e8c:	aa1303e1 	mov	x1, x19
    6e90:	aa1803e0 	mov	x0, x24
    6e94:	94000144 	bl	73a4 <mpa_free_static_temp_var>
/home/lagadanu/Desktop/qemu/optee_os/lib/libmpa/mpa_gcd.c:181
    6e98:	f94037a0 	ldr	x0, [x29,#104]
    6e9c:	aa1303e1 	mov	x1, x19
    6ea0:	94000141 	bl	73a4 <mpa_free_static_temp_var>
/home/lagadanu/Desktop/qemu/optee_os/lib/libmpa/mpa_gcd.c:182
    6ea4:	f94033a0 	ldr	x0, [x29,#96]
    6ea8:	aa1303e1 	mov	x1, x19
    6eac:	9400013e 	bl	73a4 <mpa_free_static_temp_var>
    6eb0:	17ffff9b 	b	6d1c <__mpa_egcd+0x60>
/home/lagadanu/Desktop/qemu/optee_os/lib/libmpa/mpa_gcd.c:119
    6eb4:	f94053a0 	ldr	x0, [x29,#160]
    6eb8:	97fffaa2 	bl	5940 <mpa_parity>
    6ebc:	35fff660 	cbnz	w0, 6d88 <__mpa_egcd+0xcc>
/home/lagadanu/Desktop/qemu/optee_os/lib/libmpa/mpa_gcd.c:121
    6ec0:	f9404fa0 	ldr	x0, [x29,#152]
/home/lagadanu/Desktop/qemu/optee_os/lib/libmpa/mpa_gcd.c:120
    6ec4:	110006f7 	add	w23, w23, #0x1
/home/lagadanu/Desktop/qemu/optee_os/lib/libmpa/mpa_gcd.c:121
    6ec8:	97ffff02 	bl	6ad0 <__mpa_divby2>
/home/lagadanu/Desktop/qemu/optee_os/lib/libmpa/mpa_gcd.c:122
    6ecc:	f94053a0 	ldr	x0, [x29,#160]
    6ed0:	97ffff00 	bl	6ad0 <__mpa_divby2>
    6ed4:	17ffffaa 	b	6d7c <__mpa_egcd+0xc0>
/home/lagadanu/Desktop/qemu/optee_os/lib/libmpa/mpa_gcd.c:139
    6ed8:	f94057a0 	ldr	x0, [x29,#168]
    6edc:	97fffefd 	bl	6ad0 <__mpa_divby2>
/home/lagadanu/Desktop/qemu/optee_os/lib/libmpa/mpa_gcd.c:140
    6ee0:	f9403fa0 	ldr	x0, [x29,#120]
    6ee4:	97fffa97 	bl	5940 <mpa_parity>
    6ee8:	7100041f 	cmp	w0, #0x1
    6eec:	54000521 	b.ne	6f90 <__mpa_egcd+0x2d4>
/home/lagadanu/Desktop/qemu/optee_os/lib/libmpa/mpa_gcd.c:141
    6ef0:	f9403fa1 	ldr	x1, [x29,#120]
    6ef4:	aa1303e3 	mov	x3, x19
    6ef8:	f94053a2 	ldr	x2, [x29,#160]
    6efc:	aa0103e0 	mov	x0, x1
    6f00:	94000424 	bl	7f90 <mpa_add>
/home/lagadanu/Desktop/qemu/optee_os/lib/libmpa/mpa_gcd.c:142
    6f04:	f94043a1 	ldr	x1, [x29,#128]
    6f08:	aa1303e3 	mov	x3, x19
    6f0c:	f9404fa2 	ldr	x2, [x29,#152]
    6f10:	aa0103e0 	mov	x0, x1
    6f14:	94000484 	bl	8124 <mpa_sub>
/home/lagadanu/Desktop/qemu/optee_os/lib/libmpa/mpa_gcd.c:144
    6f18:	f9403fa0 	ldr	x0, [x29,#120]
    6f1c:	97fffeed 	bl	6ad0 <__mpa_divby2>
/home/lagadanu/Desktop/qemu/optee_os/lib/libmpa/mpa_gcd.c:145
    6f20:	f94043a0 	ldr	x0, [x29,#128]
    6f24:	97fffeeb 	bl	6ad0 <__mpa_divby2>
/home/lagadanu/Desktop/qemu/optee_os/lib/libmpa/mpa_gcd.c:138
    6f28:	f94057a0 	ldr	x0, [x29,#168]
    6f2c:	97fffa85 	bl	5940 <mpa_parity>
    6f30:	34fffd40 	cbz	w0, 6ed8 <__mpa_egcd+0x21c>
/home/lagadanu/Desktop/qemu/optee_os/lib/libmpa/mpa_gcd.c:148
    6f34:	aa1403e0 	mov	x0, x20
    6f38:	97fffa82 	bl	5940 <mpa_parity>
    6f3c:	34000340 	cbz	w0, 6fa4 <__mpa_egcd+0x2e8>
/home/lagadanu/Desktop/qemu/optee_os/lib/libmpa/mpa_gcd.c:158
    6f40:	f94057a0 	ldr	x0, [x29,#168]
    6f44:	aa1403e1 	mov	x1, x20
    6f48:	940005bf 	bl	8644 <mpa_cmp>
/home/lagadanu/Desktop/qemu/optee_os/lib/libmpa/mpa_gcd.c:159
    6f4c:	aa1303e3 	mov	x3, x19
/home/lagadanu/Desktop/qemu/optee_os/lib/libmpa/mpa_gcd.c:158
    6f50:	37f805c0 	tbnz	w0, #31, 7008 <__mpa_egcd+0x34c>
/home/lagadanu/Desktop/qemu/optee_os/lib/libmpa/mpa_gcd.c:159
    6f54:	f94057a1 	ldr	x1, [x29,#168]
    6f58:	aa1403e2 	mov	x2, x20
    6f5c:	aa0103e0 	mov	x0, x1
    6f60:	94000471 	bl	8124 <mpa_sub>
/home/lagadanu/Desktop/qemu/optee_os/lib/libmpa/mpa_gcd.c:160
    6f64:	f9403fa1 	ldr	x1, [x29,#120]
    6f68:	aa1303e3 	mov	x3, x19
    6f6c:	f94047a2 	ldr	x2, [x29,#136]
    6f70:	aa0103e0 	mov	x0, x1
    6f74:	9400046c 	bl	8124 <mpa_sub>
/home/lagadanu/Desktop/qemu/optee_os/lib/libmpa/mpa_gcd.c:161
    6f78:	f94043a1 	ldr	x1, [x29,#128]
    6f7c:	aa1303e3 	mov	x3, x19
    6f80:	f9404ba2 	ldr	x2, [x29,#144]
/home/lagadanu/Desktop/qemu/optee_os/lib/libmpa/mpa_gcd.c:165
    6f84:	aa0103e0 	mov	x0, x1
    6f88:	94000467 	bl	8124 <mpa_sub>
    6f8c:	17ffffa5 	b	6e20 <__mpa_egcd+0x164>
/home/lagadanu/Desktop/qemu/optee_os/lib/libmpa/mpa_gcd.c:140
    6f90:	f94043a0 	ldr	x0, [x29,#128]
    6f94:	97fffa6b 	bl	5940 <mpa_parity>
    6f98:	7100041f 	cmp	w0, #0x1
    6f9c:	54fffbe1 	b.ne	6f18 <__mpa_egcd+0x25c>
    6fa0:	17ffffd4 	b	6ef0 <__mpa_egcd+0x234>
/home/lagadanu/Desktop/qemu/optee_os/lib/libmpa/mpa_gcd.c:149
    6fa4:	aa1403e0 	mov	x0, x20
    6fa8:	97fffeca 	bl	6ad0 <__mpa_divby2>
/home/lagadanu/Desktop/qemu/optee_os/lib/libmpa/mpa_gcd.c:150
    6fac:	f94047a0 	ldr	x0, [x29,#136]
    6fb0:	97fffa64 	bl	5940 <mpa_parity>
    6fb4:	7100041f 	cmp	w0, #0x1
    6fb8:	540001e1 	b.ne	6ff4 <__mpa_egcd+0x338>
/home/lagadanu/Desktop/qemu/optee_os/lib/libmpa/mpa_gcd.c:151
    6fbc:	f94047a1 	ldr	x1, [x29,#136]
    6fc0:	aa1303e3 	mov	x3, x19
    6fc4:	f94053a2 	ldr	x2, [x29,#160]
    6fc8:	aa0103e0 	mov	x0, x1
    6fcc:	940003f1 	bl	7f90 <mpa_add>
/home/lagadanu/Desktop/qemu/optee_os/lib/libmpa/mpa_gcd.c:152
    6fd0:	a9490ba1 	ldp	x1, x2, [x29,#144]
    6fd4:	aa1303e3 	mov	x3, x19
    6fd8:	aa0103e0 	mov	x0, x1
    6fdc:	94000452 	bl	8124 <mpa_sub>
/home/lagadanu/Desktop/qemu/optee_os/lib/libmpa/mpa_gcd.c:154
    6fe0:	f94047a0 	ldr	x0, [x29,#136]
    6fe4:	97fffebb 	bl	6ad0 <__mpa_divby2>
/home/lagadanu/Desktop/qemu/optee_os/lib/libmpa/mpa_gcd.c:155
    6fe8:	f9404ba0 	ldr	x0, [x29,#144]
    6fec:	97fffeb9 	bl	6ad0 <__mpa_divby2>
    6ff0:	17ffffd1 	b	6f34 <__mpa_egcd+0x278>
/home/lagadanu/Desktop/qemu/optee_os/lib/libmpa/mpa_gcd.c:150
    6ff4:	f9404ba0 	ldr	x0, [x29,#144]
    6ff8:	97fffa52 	bl	5940 <mpa_parity>
    6ffc:	7100041f 	cmp	w0, #0x1
    7000:	54ffff01 	b.ne	6fe0 <__mpa_egcd+0x324>
    7004:	17ffffee 	b	6fbc <__mpa_egcd+0x300>
/home/lagadanu/Desktop/qemu/optee_os/lib/libmpa/mpa_gcd.c:163
    7008:	f94057a2 	ldr	x2, [x29,#168]
    700c:	aa1403e1 	mov	x1, x20
    7010:	aa1403e0 	mov	x0, x20
    7014:	94000444 	bl	8124 <mpa_sub>
/home/lagadanu/Desktop/qemu/optee_os/lib/libmpa/mpa_gcd.c:164
    7018:	f94047a1 	ldr	x1, [x29,#136]
    701c:	aa1303e3 	mov	x3, x19
    7020:	f9403fa2 	ldr	x2, [x29,#120]
    7024:	aa0103e0 	mov	x0, x1
    7028:	9400043f 	bl	8124 <mpa_sub>
/home/lagadanu/Desktop/qemu/optee_os/lib/libmpa/mpa_gcd.c:165
    702c:	aa1303e3 	mov	x3, x19
    7030:	f94043a2 	ldr	x2, [x29,#128]
    7034:	f9404ba1 	ldr	x1, [x29,#144]
    7038:	17ffffd3 	b	6f84 <__mpa_egcd+0x2c8>

000000000000703c <mpa_gcd>:
mpa_gcd():
/home/lagadanu/Desktop/qemu/optee_os/lib/libmpa/mpa_gcd.c:253
    703c:	a9bc7bfd 	stp	x29, x30, [sp,#-64]!
    7040:	910003fd 	mov	x29, sp
    7044:	a90153f3 	stp	x19, x20, [sp,#16]
    7048:	aa0203f3 	mov	x19, x2
    704c:	a9025bf5 	stp	x21, x22, [sp,#32]
    7050:	aa0003f6 	mov	x22, x0
/home/lagadanu/Desktop/qemu/optee_os/lib/libmpa/mpa_gcd.c:259
    7054:	b9400420 	ldr	w0, [x1,#4]
/home/lagadanu/Desktop/qemu/optee_os/lib/libmpa/mpa_gcd.c:253
    7058:	aa0103f4 	mov	x20, x1
/home/lagadanu/Desktop/qemu/optee_os/lib/libmpa/mpa_gcd.c:260
    705c:	b9400661 	ldr	w1, [x19,#4]
/home/lagadanu/Desktop/qemu/optee_os/lib/libmpa/mpa_gcd.c:259
    7060:	52800022 	mov	w2, #0x1                   	// #1
    7064:	7100001f 	cmp	w0, #0x0
/home/lagadanu/Desktop/qemu/optee_os/lib/libmpa/mpa_gcd.c:253
    7068:	a90363f7 	stp	x23, x24, [sp,#48]
    706c:	aa0303f8 	mov	x24, x3
/home/lagadanu/Desktop/qemu/optee_os/lib/libmpa/mpa_gcd.c:259
    7070:	5a82a457 	cneg	w23, w2, lt
/home/lagadanu/Desktop/qemu/optee_os/lib/libmpa/mpa_gcd.c:260
    7074:	36f806e1 	tbz	w1, #31, 7150 <mpa_gcd+0x114>
    7078:	12800015 	mov	w21, #0xffffffff            	// #-1
/home/lagadanu/Desktop/qemu/optee_os/lib/libmpa/mpa_gcd.c:261
    707c:	36f800a0 	tbz	w0, #31, 7090 <mpa_gcd+0x54>
/home/lagadanu/Desktop/qemu/optee_os/lib/libmpa/mpa_gcd.c:261 (discriminator 1)
    7080:	4b0003e0 	neg	w0, w0
    7084:	b9000680 	str	w0, [x20,#4]
/home/lagadanu/Desktop/qemu/optee_os/lib/libmpa/mpa_gcd.c:262 (discriminator 1)
    7088:	b9400661 	ldr	w1, [x19,#4]
    708c:	36f80061 	tbz	w1, #31, 7098 <mpa_gcd+0x5c>
    7090:	4b0103e1 	neg	w1, w1
    7094:	b9000661 	str	w1, [x19,#4]
/home/lagadanu/Desktop/qemu/optee_os/lib/libmpa/mpa_gcd.c:264
    7098:	aa1303e1 	mov	x1, x19
    709c:	aa1403e0 	mov	x0, x20
    70a0:	94000569 	bl	8644 <mpa_cmp>
/home/lagadanu/Desktop/qemu/optee_os/lib/libmpa/mpa_gcd.c:265
    70a4:	7100001f 	cmp	w0, #0x0
    70a8:	54000321 	b.ne	710c <mpa_gcd+0xd0>
/home/lagadanu/Desktop/qemu/optee_os/lib/libmpa/mpa_gcd.c:266
    70ac:	aa1403e1 	mov	x1, x20
__mpa_gcd():
/home/lagadanu/Desktop/qemu/optee_os/lib/libmpa/mpa_gcd.c:201
    70b0:	aa1603e0 	mov	x0, x22
    70b4:	97fff9d9 	bl	5818 <mpa_copy>
mpa_gcd():
/home/lagadanu/Desktop/qemu/optee_os/lib/libmpa/mpa_gcd.c:277
    70b8:	b9400680 	ldr	w0, [x20,#4]
    70bc:	52800021 	mov	w1, #0x1                   	// #1
    70c0:	7100001f 	cmp	w0, #0x0
    70c4:	5a81a421 	cneg	w1, w1, lt
    70c8:	6b0102ff 	cmp	w23, w1
    70cc:	54000060 	b.eq	70d8 <mpa_gcd+0x9c>
/home/lagadanu/Desktop/qemu/optee_os/lib/libmpa/mpa_gcd.c:277 (discriminator 5)
    70d0:	4b0003e0 	neg	w0, w0
    70d4:	b9000680 	str	w0, [x20,#4]
/home/lagadanu/Desktop/qemu/optee_os/lib/libmpa/mpa_gcd.c:278
    70d8:	b9400660 	ldr	w0, [x19,#4]
    70dc:	52800021 	mov	w1, #0x1                   	// #1
    70e0:	7100001f 	cmp	w0, #0x0
    70e4:	5a81a421 	cneg	w1, w1, lt
    70e8:	6b15003f 	cmp	w1, w21
    70ec:	54000060 	b.eq	70f8 <mpa_gcd+0xbc>
/home/lagadanu/Desktop/qemu/optee_os/lib/libmpa/mpa_gcd.c:278 (discriminator 5)
    70f0:	4b0003e0 	neg	w0, w0
    70f4:	b9000660 	str	w0, [x19,#4]
/home/lagadanu/Desktop/qemu/optee_os/lib/libmpa/mpa_gcd.c:279
    70f8:	a94153f3 	ldp	x19, x20, [sp,#16]
    70fc:	a9425bf5 	ldp	x21, x22, [sp,#32]
    7100:	a94363f7 	ldp	x23, x24, [sp,#48]
    7104:	a8c47bfd 	ldp	x29, x30, [sp],#64
    7108:	d65f03c0 	ret
/home/lagadanu/Desktop/qemu/optee_os/lib/libmpa/mpa_gcd.c:269
    710c:	5400016a 	b.ge	7138 <mpa_gcd+0xfc>
__mpa_gcd():
/home/lagadanu/Desktop/qemu/optee_os/lib/libmpa/mpa_gcd.c:200
    7110:	b9400680 	ldr	w0, [x20,#4]
    7114:	35000060 	cbnz	w0, 7120 <mpa_gcd+0xe4>
/home/lagadanu/Desktop/qemu/optee_os/lib/libmpa/mpa_gcd.c:201
    7118:	aa1303e1 	mov	x1, x19
    711c:	17ffffe5 	b	70b0 <mpa_gcd+0x74>
    7120:	aa1803e3 	mov	x3, x24
    7124:	aa1403e2 	mov	x2, x20
    7128:	aa1303e1 	mov	x1, x19
    712c:	aa1603e0 	mov	x0, x22
    7130:	97fffe88 	bl	6b50 <__mpa_gcd.part.0>
    7134:	17ffffe1 	b	70b8 <mpa_gcd+0x7c>
/home/lagadanu/Desktop/qemu/optee_os/lib/libmpa/mpa_gcd.c:200
    7138:	b9400660 	ldr	w0, [x19,#4]
    713c:	34fffb80 	cbz	w0, 70ac <mpa_gcd+0x70>
    7140:	aa1803e3 	mov	x3, x24
    7144:	aa1303e2 	mov	x2, x19
    7148:	aa1403e1 	mov	x1, x20
    714c:	17fffff8 	b	712c <mpa_gcd+0xf0>
mpa_gcd():
/home/lagadanu/Desktop/qemu/optee_os/lib/libmpa/mpa_gcd.c:260
    7150:	2a0203f5 	mov	w21, w2
/home/lagadanu/Desktop/qemu/optee_os/lib/libmpa/mpa_gcd.c:261
    7154:	36fffa20 	tbz	w0, #31, 7098 <mpa_gcd+0x5c>
    7158:	17ffffca 	b	7080 <mpa_gcd+0x44>

000000000000715c <mpa_extended_gcd>:
mpa_extended_gcd():
/home/lagadanu/Desktop/qemu/optee_os/lib/libmpa/mpa_gcd.c:295
    715c:	a9b97bfd 	stp	x29, x30, [sp,#-112]!
/home/lagadanu/Desktop/qemu/optee_os/lib/libmpa/mpa_gcd.c:302
    7160:	f100003f 	cmp	x1, #0x0
    7164:	fa400840 	ccmp	x2, #0x0, #0x0, eq
/home/lagadanu/Desktop/qemu/optee_os/lib/libmpa/mpa_gcd.c:295
    7168:	910003fd 	mov	x29, sp
    716c:	a90153f3 	stp	x19, x20, [sp,#16]
    7170:	aa0303f3 	mov	x19, x3
    7174:	a9025bf5 	stp	x21, x22, [sp,#32]
    7178:	aa0403f4 	mov	x20, x4
    717c:	a9046bf9 	stp	x25, x26, [sp,#64]
    7180:	aa0003f6 	mov	x22, x0
    7184:	a90363f7 	stp	x23, x24, [sp,#48]
    7188:	aa0503f9 	mov	x25, x5
    718c:	a90573fb 	stp	x27, x28, [sp,#80]
/home/lagadanu/Desktop/qemu/optee_os/lib/libmpa/mpa_gcd.c:302
    7190:	540001a1 	b.ne	71c4 <mpa_extended_gcd+0x68>
/home/lagadanu/Desktop/qemu/optee_os/lib/libmpa/mpa_gcd.c:303
    7194:	b40000a0 	cbz	x0, 71a8 <mpa_extended_gcd+0x4c>
/home/lagadanu/Desktop/qemu/optee_os/lib/libmpa/mpa_gcd.c:304
    7198:	aa0503e3 	mov	x3, x5
    719c:	aa0403e2 	mov	x2, x4
    71a0:	aa1303e1 	mov	x1, x19
    71a4:	97ffffa6 	bl	703c <mpa_gcd>
/home/lagadanu/Desktop/qemu/optee_os/lib/libmpa/mpa_gcd.c:350
    71a8:	a94153f3 	ldp	x19, x20, [sp,#16]
    71ac:	a9425bf5 	ldp	x21, x22, [sp,#32]
    71b0:	a94363f7 	ldp	x23, x24, [sp,#48]
    71b4:	a9446bf9 	ldp	x25, x26, [sp,#64]
    71b8:	a94573fb 	ldp	x27, x28, [sp,#80]
    71bc:	a8c77bfd 	ldp	x29, x30, [sp],#112
    71c0:	d65f03c0 	ret
/home/lagadanu/Desktop/qemu/optee_os/lib/libmpa/mpa_gcd.c:309
    71c4:	b9400460 	ldr	w0, [x3,#4]
    71c8:	aa0103f7 	mov	x23, x1
/home/lagadanu/Desktop/qemu/optee_os/lib/libmpa/mpa_gcd.c:310
    71cc:	b9400481 	ldr	w1, [x4,#4]
/home/lagadanu/Desktop/qemu/optee_os/lib/libmpa/mpa_gcd.c:309
    71d0:	52800035 	mov	w21, #0x1                   	// #1
    71d4:	7100001f 	cmp	w0, #0x0
    71d8:	aa0203f8 	mov	x24, x2
    71dc:	5a95a6ba 	cneg	w26, w21, lt
/home/lagadanu/Desktop/qemu/optee_os/lib/libmpa/mpa_gcd.c:310
    71e0:	36f80b01 	tbz	w1, #31, 7340 <mpa_extended_gcd+0x1e4>
    71e4:	12800015 	mov	w21, #0xffffffff            	// #-1
/home/lagadanu/Desktop/qemu/optee_os/lib/libmpa/mpa_gcd.c:311
    71e8:	36f800a0 	tbz	w0, #31, 71fc <mpa_extended_gcd+0xa0>
/home/lagadanu/Desktop/qemu/optee_os/lib/libmpa/mpa_gcd.c:311 (discriminator 1)
    71ec:	4b0003e0 	neg	w0, w0
    71f0:	b9000660 	str	w0, [x19,#4]
/home/lagadanu/Desktop/qemu/optee_os/lib/libmpa/mpa_gcd.c:312 (discriminator 1)
    71f4:	b9400681 	ldr	w1, [x20,#4]
    71f8:	36f80061 	tbz	w1, #31, 7204 <mpa_extended_gcd+0xa8>
    71fc:	4b0103e1 	neg	w1, w1
    7200:	b9000681 	str	w1, [x20,#4]
/home/lagadanu/Desktop/qemu/optee_os/lib/libmpa/mpa_gcd.c:314
    7204:	aa1403e1 	mov	x1, x20
    7208:	aa1303e0 	mov	x0, x19
    720c:	9400050e 	bl	8644 <mpa_cmp>
    7210:	2a0003fc 	mov	w28, w0
/home/lagadanu/Desktop/qemu/optee_os/lib/libmpa/mpa_gcd.c:315
    7214:	35000540 	cbnz	w0, 72bc <mpa_extended_gcd+0x160>
/home/lagadanu/Desktop/qemu/optee_os/lib/libmpa/mpa_gcd.c:316
    7218:	b4000096 	cbz	x22, 7228 <mpa_extended_gcd+0xcc>
/home/lagadanu/Desktop/qemu/optee_os/lib/libmpa/mpa_gcd.c:317
    721c:	aa1303e1 	mov	x1, x19
    7220:	aa1603e0 	mov	x0, x22
    7224:	97fff97d 	bl	5818 <mpa_copy>
/home/lagadanu/Desktop/qemu/optee_os/lib/libmpa/mpa_gcd.c:318
    7228:	b4000097 	cbz	x23, 7238 <mpa_extended_gcd+0xdc>
/home/lagadanu/Desktop/qemu/optee_os/lib/libmpa/mpa_gcd.c:319
    722c:	52800021 	mov	w1, #0x1                   	// #1
    7230:	aa1703e0 	mov	x0, x23
    7234:	97fffbd8 	bl	6194 <mpa_set_word>
/home/lagadanu/Desktop/qemu/optee_os/lib/libmpa/mpa_gcd.c:320
    7238:	b4000098 	cbz	x24, 7248 <mpa_extended_gcd+0xec>
/home/lagadanu/Desktop/qemu/optee_os/lib/libmpa/mpa_gcd.c:321
    723c:	52800001 	mov	w1, #0x0                   	// #0
    7240:	aa1803e0 	mov	x0, x24
    7244:	97fffbd4 	bl	6194 <mpa_set_word>
/home/lagadanu/Desktop/qemu/optee_os/lib/libmpa/mpa_gcd.c:343
    7248:	b9400660 	ldr	w0, [x19,#4]
    724c:	52800021 	mov	w1, #0x1                   	// #1
    7250:	7100001f 	cmp	w0, #0x0
    7254:	5a81a421 	cneg	w1, w1, lt
    7258:	6b01035f 	cmp	w26, w1
    725c:	54000060 	b.eq	7268 <mpa_extended_gcd+0x10c>
/home/lagadanu/Desktop/qemu/optee_os/lib/libmpa/mpa_gcd.c:343 (discriminator 5)
    7260:	4b0003e0 	neg	w0, w0
    7264:	b9000660 	str	w0, [x19,#4]
/home/lagadanu/Desktop/qemu/optee_os/lib/libmpa/mpa_gcd.c:344
    7268:	b9400680 	ldr	w0, [x20,#4]
    726c:	52800021 	mov	w1, #0x1                   	// #1
    7270:	7100001f 	cmp	w0, #0x0
    7274:	5a81a421 	cneg	w1, w1, lt
    7278:	6b15003f 	cmp	w1, w21
    727c:	54000060 	b.eq	7288 <mpa_extended_gcd+0x12c>
/home/lagadanu/Desktop/qemu/optee_os/lib/libmpa/mpa_gcd.c:344 (discriminator 5)
    7280:	4b0003e0 	neg	w0, w0
    7284:	b9000680 	str	w0, [x20,#4]
/home/lagadanu/Desktop/qemu/optee_os/lib/libmpa/mpa_gcd.c:346
    7288:	f10002ff 	cmp	x23, #0x0
    728c:	3a411b40 	ccmn	w26, #0x1, #0x0, ne
    7290:	54000081 	b.ne	72a0 <mpa_extended_gcd+0x144>
/home/lagadanu/Desktop/qemu/optee_os/lib/libmpa/mpa_gcd.c:347
    7294:	b94006e0 	ldr	w0, [x23,#4]
    7298:	4b0003e0 	neg	w0, w0
    729c:	b90006e0 	str	w0, [x23,#4]
/home/lagadanu/Desktop/qemu/optee_os/lib/libmpa/mpa_gcd.c:348
    72a0:	f100031f 	cmp	x24, #0x0
    72a4:	3a411aa0 	ccmn	w21, #0x1, #0x0, ne
    72a8:	54fff801 	b.ne	71a8 <mpa_extended_gcd+0x4c>
/home/lagadanu/Desktop/qemu/optee_os/lib/libmpa/mpa_gcd.c:349
    72ac:	b9400700 	ldr	w0, [x24,#4]
    72b0:	4b0003e0 	neg	w0, w0
    72b4:	b9000700 	str	w0, [x24,#4]
    72b8:	17ffffbc 	b	71a8 <mpa_extended_gcd+0x4c>
/home/lagadanu/Desktop/qemu/optee_os/lib/libmpa/mpa_gcd.c:325
    72bc:	f10002df 	cmp	x22, #0x0
    72c0:	fa561284 	ccmp	x20, x22, #0x4, ne
    72c4:	fa561264 	ccmp	x19, x22, #0x4, ne
    72c8:	54000361 	b.ne	7334 <mpa_extended_gcd+0x1d8>
    72cc:	5280003b 	mov	w27, #0x1                   	// #1
/home/lagadanu/Desktop/qemu/optee_os/lib/libmpa/mpa_gcd.c:327
    72d0:	aa1903e1 	mov	x1, x25
    72d4:	9101a3a0 	add	x0, x29, #0x68
    72d8:	9400002f 	bl	7394 <mpa_alloc_static_temp_var>
/home/lagadanu/Desktop/qemu/optee_os/lib/libmpa/mpa_gcd.c:332
    72dc:	aa1903e5 	mov	x5, x25
/home/lagadanu/Desktop/qemu/optee_os/lib/libmpa/mpa_gcd.c:331
    72e0:	36f8021c 	tbz	w28, #31, 7320 <mpa_extended_gcd+0x1c4>
/home/lagadanu/Desktop/qemu/optee_os/lib/libmpa/mpa_gcd.c:332
    72e4:	aa1303e4 	mov	x4, x19
    72e8:	aa1403e3 	mov	x3, x20
    72ec:	aa1703e2 	mov	x2, x23
    72f0:	aa1803e1 	mov	x1, x24
/home/lagadanu/Desktop/qemu/optee_os/lib/libmpa/mpa_gcd.c:334
    72f4:	f94037a0 	ldr	x0, [x29,#104]
    72f8:	97fffe71 	bl	6cbc <__mpa_egcd>
/home/lagadanu/Desktop/qemu/optee_os/lib/libmpa/mpa_gcd.c:336
    72fc:	b4000096 	cbz	x22, 730c <mpa_extended_gcd+0x1b0>
/home/lagadanu/Desktop/qemu/optee_os/lib/libmpa/mpa_gcd.c:337
    7300:	f94037a1 	ldr	x1, [x29,#104]
    7304:	aa1603e0 	mov	x0, x22
    7308:	97fff944 	bl	5818 <mpa_copy>
/home/lagadanu/Desktop/qemu/optee_os/lib/libmpa/mpa_gcd.c:338
    730c:	34fff9fb 	cbz	w27, 7248 <mpa_extended_gcd+0xec>
/home/lagadanu/Desktop/qemu/optee_os/lib/libmpa/mpa_gcd.c:339
    7310:	aa1903e1 	mov	x1, x25
    7314:	9101a3a0 	add	x0, x29, #0x68
    7318:	94000023 	bl	73a4 <mpa_free_static_temp_var>
    731c:	17ffffcb 	b	7248 <mpa_extended_gcd+0xec>
/home/lagadanu/Desktop/qemu/optee_os/lib/libmpa/mpa_gcd.c:334
    7320:	aa1403e4 	mov	x4, x20
    7324:	aa1303e3 	mov	x3, x19
    7328:	aa1803e2 	mov	x2, x24
    732c:	aa1703e1 	mov	x1, x23
    7330:	17fffff1 	b	72f4 <mpa_extended_gcd+0x198>
/home/lagadanu/Desktop/qemu/optee_os/lib/libmpa/mpa_gcd.c:325
    7334:	5280001b 	mov	w27, #0x0                   	// #0
/home/lagadanu/Desktop/qemu/optee_os/lib/libmpa/mpa_gcd.c:329
    7338:	f90037b6 	str	x22, [x29,#104]
    733c:	17ffffe8 	b	72dc <mpa_extended_gcd+0x180>
/home/lagadanu/Desktop/qemu/optee_os/lib/libmpa/mpa_gcd.c:311
    7340:	36fff620 	tbz	w0, #31, 7204 <mpa_extended_gcd+0xa8>
    7344:	17ffffaa 	b	71ec <mpa_extended_gcd+0x90>

0000000000007348 <mpa_alloc_static_temp_var_size>:
mpa_alloc_static_temp_var_size():
/home/lagadanu/Desktop/qemu/optee_os/lib/libmpa/mpa_mem_static.c:11
    7348:	a9be7bfd 	stp	x29, x30, [sp,#-32]!
    734c:	910003fd 	mov	x29, sp
    7350:	a90153f3 	stp	x19, x20, [sp,#16]
/home/lagadanu/Desktop/qemu/optee_os/lib/libmpa/mpa_mem_static.c:12
    7354:	11007c13 	add	w19, w0, #0x1f
    7358:	52800400 	mov	w0, #0x20                  	// #32
/home/lagadanu/Desktop/qemu/optee_os/lib/libmpa/mpa_mem_static.c:11
    735c:	aa0103f4 	mov	x20, x1
/home/lagadanu/Desktop/qemu/optee_os/lib/libmpa/mpa_mem_static.c:12
    7360:	1ac00e73 	sdiv	w19, w19, w0
    7364:	f9400040 	ldr	x0, [x2]
    7368:	11000a73 	add	w19, w19, #0x2
    736c:	937e7e61 	sbfiz	x1, x19, #2, #32
    7370:	94000cae 	bl	a628 <mempool_alloc>
    7374:	f9000280 	str	x0, [x20]
/home/lagadanu/Desktop/qemu/optee_os/lib/libmpa/mpa_mem_static.c:14
    7378:	b4000060 	cbz	x0, 7384 <mpa_alloc_static_temp_var_size+0x3c>
/home/lagadanu/Desktop/qemu/optee_os/lib/libmpa/mpa_mem_static.c:15
    737c:	2a1303e1 	mov	w1, w19
    7380:	9400055b 	bl	88ec <mpa_init_static>
/home/lagadanu/Desktop/qemu/optee_os/lib/libmpa/mpa_mem_static.c:18
    7384:	f9400280 	ldr	x0, [x20]
    7388:	a94153f3 	ldp	x19, x20, [sp,#16]
    738c:	a8c27bfd 	ldp	x29, x30, [sp],#32
    7390:	d65f03c0 	ret

0000000000007394 <mpa_alloc_static_temp_var>:
mpa_alloc_static_temp_var():
/home/lagadanu/Desktop/qemu/optee_os/lib/libmpa/mpa_mem_static.c:22
    7394:	aa0103e2 	mov	x2, x1
    7398:	aa0003e1 	mov	x1, x0
    739c:	b9400840 	ldr	w0, [x2,#8]
    73a0:	17ffffea 	b	7348 <mpa_alloc_static_temp_var_size>

00000000000073a4 <mpa_free_static_temp_var>:
mpa_free_static_temp_var():
/home/lagadanu/Desktop/qemu/optee_os/lib/libmpa/mpa_mem_static.c:31
    73a4:	aa0103e2 	mov	x2, x1
/home/lagadanu/Desktop/qemu/optee_os/lib/libmpa/mpa_mem_static.c:32
    73a8:	b40000a0 	cbz	x0, 73bc <mpa_free_static_temp_var+0x18>
/home/lagadanu/Desktop/qemu/optee_os/lib/libmpa/mpa_mem_static.c:32 (discriminator 1)
    73ac:	f9400001 	ldr	x1, [x0]
    73b0:	b4000061 	cbz	x1, 73bc <mpa_free_static_temp_var+0x18>
/home/lagadanu/Desktop/qemu/optee_os/lib/libmpa/mpa_mem_static.c:35
    73b4:	f9400040 	ldr	x0, [x2]
    73b8:	14000cbc 	b	a6a8 <mempool_free>
    73bc:	d65f03c0 	ret

00000000000073c0 <__mpa_mul_add_word>:
__mpa_mul_add_word():
/home/lagadanu/Desktop/qemu/optee_os/lib/libmpa/mpa_mul.c:32
    73c0:	b9400064 	ldr	w4, [x3]
    73c4:	9ba11000 	umaddl	x0, w0, w1, x4
/home/lagadanu/Desktop/qemu/optee_os/lib/libmpa/mpa_mul.c:33
    73c8:	b9000040 	str	w0, [x2]
/home/lagadanu/Desktop/qemu/optee_os/lib/libmpa/mpa_mul.c:34
    73cc:	d360fc00 	lsr	x0, x0, #32
    73d0:	b9000060 	str	w0, [x3]
    73d4:	d65f03c0 	ret

00000000000073d8 <__mpa_mul_add_word_cum>:
__mpa_mul_add_word_cum():
/home/lagadanu/Desktop/qemu/optee_os/lib/libmpa/mpa_mul.c:54
    73d8:	b9400044 	ldr	w4, [x2]
/home/lagadanu/Desktop/qemu/optee_os/lib/libmpa/mpa_mul.c:55
    73dc:	b9400065 	ldr	w5, [x3]
/home/lagadanu/Desktop/qemu/optee_os/lib/libmpa/mpa_mul.c:53
    73e0:	8b050084 	add	x4, x4, x5
    73e4:	9ba11000 	umaddl	x0, w0, w1, x4
/home/lagadanu/Desktop/qemu/optee_os/lib/libmpa/mpa_mul.c:56
    73e8:	b9000040 	str	w0, [x2]
/home/lagadanu/Desktop/qemu/optee_os/lib/libmpa/mpa_mul.c:57
    73ec:	d360fc00 	lsr	x0, x0, #32
    73f0:	b9000060 	str	w0, [x3]
    73f4:	d65f03c0 	ret

00000000000073f8 <__mpa_abs_mul_word>:
__mpa_abs_mul_word():
/home/lagadanu/Desktop/qemu/optee_os/lib/libmpa/mpa_mul.c:73
    73f8:	a9bd7bfd 	stp	x29, x30, [sp,#-48]!
    73fc:	910003fd 	mov	x29, sp
    7400:	a9025bf5 	stp	x21, x22, [sp,#32]
    7404:	2a0203f6 	mov	w22, w2
/home/lagadanu/Desktop/qemu/optee_os/lib/libmpa/mpa_mul.c:80
    7408:	b9400002 	ldr	w2, [x0]
/home/lagadanu/Desktop/qemu/optee_os/lib/libmpa/mpa_mul.c:73
    740c:	aa0103f5 	mov	x21, x1
    7410:	a90153f3 	stp	x19, x20, [sp,#16]
/home/lagadanu/Desktop/qemu/optee_os/lib/libmpa/mpa_mul.c:80
    7414:	91002014 	add	x20, x0, #0x8
    7418:	52800001 	mov	w1, #0x0                   	// #0
/home/lagadanu/Desktop/qemu/optee_os/lib/libmpa/mpa_mul.c:73
    741c:	aa0003f3 	mov	x19, x0
/home/lagadanu/Desktop/qemu/optee_os/lib/libmpa/mpa_mul.c:80
    7420:	d37e7442 	ubfiz	x2, x2, #2, #30
    7424:	aa1403e0 	mov	x0, x20
    7428:	94000c4f 	bl	a564 <memset>
/home/lagadanu/Desktop/qemu/optee_os/lib/libmpa/mpa_mul.c:82
    742c:	910022a3 	add	x3, x21, #0x8
/home/lagadanu/Desktop/qemu/optee_os/lib/libmpa/mpa_mul.c:85
    7430:	d2800000 	mov	x0, #0x0                   	// #0
/home/lagadanu/Desktop/qemu/optee_os/lib/libmpa/mpa_mul.c:84
    7434:	52800001 	mov	w1, #0x0                   	// #0
/home/lagadanu/Desktop/qemu/optee_os/lib/libmpa/mpa_mul.c:85 (discriminator 1)
    7438:	b94006a2 	ldr	w2, [x21,#4]
    743c:	7100005f 	cmp	w2, #0x0
    7440:	5a82a442 	cneg	w2, w2, lt
    7444:	6b00005f 	cmp	w2, w0
    7448:	54000168 	b.hi	7474 <__mpa_abs_mul_word+0x7c>
/home/lagadanu/Desktop/qemu/optee_os/lib/libmpa/mpa_mul.c:89
    744c:	b9000660 	str	w0, [x19,#4]
/home/lagadanu/Desktop/qemu/optee_os/lib/libmpa/mpa_mul.c:90
    7450:	340000a1 	cbz	w1, 7464 <__mpa_abs_mul_word+0x6c>
/home/lagadanu/Desktop/qemu/optee_os/lib/libmpa/mpa_mul.c:91
    7454:	b8205a81 	str	w1, [x20,w0,uxtw #2]
/home/lagadanu/Desktop/qemu/optee_os/lib/libmpa/mpa_mul.c:92
    7458:	b9400660 	ldr	w0, [x19,#4]
    745c:	11000400 	add	w0, w0, #0x1
    7460:	b9000660 	str	w0, [x19,#4]
/home/lagadanu/Desktop/qemu/optee_os/lib/libmpa/mpa_mul.c:94
    7464:	a94153f3 	ldp	x19, x20, [sp,#16]
    7468:	a9425bf5 	ldp	x21, x22, [sp,#32]
    746c:	a8c37bfd 	ldp	x29, x30, [sp],#48
    7470:	d65f03c0 	ret
__mpa_mul_add_word():
/home/lagadanu/Desktop/qemu/optee_os/lib/libmpa/mpa_mul.c:32 (discriminator 3)
    7474:	b8607862 	ldr	w2, [x3,x0,lsl #2]
    7478:	2a0103e1 	mov	w1, w1
    747c:	9bb60441 	umaddl	x1, w2, w22, x1
/home/lagadanu/Desktop/qemu/optee_os/lib/libmpa/mpa_mul.c:33 (discriminator 3)
    7480:	b8205a81 	str	w1, [x20,w0,uxtw #2]
    7484:	91000400 	add	x0, x0, #0x1
/home/lagadanu/Desktop/qemu/optee_os/lib/libmpa/mpa_mul.c:34 (discriminator 3)
    7488:	d360fc21 	lsr	x1, x1, #32
    748c:	17ffffeb 	b	7438 <__mpa_abs_mul_word+0x40>

0000000000007490 <__mpa_abs_mul>:
__mpa_abs_mul():
/home/lagadanu/Desktop/qemu/optee_os/lib/libmpa/mpa_mul.c:104
    7490:	a9b97bfd 	stp	x29, x30, [sp,#-112]!
    7494:	910003fd 	mov	x29, sp
    7498:	a90153f3 	stp	x19, x20, [sp,#16]
/home/lagadanu/Desktop/qemu/optee_os/lib/libmpa/mpa_mul.c:107
    749c:	9101c3b4 	add	x20, x29, #0x70
/home/lagadanu/Desktop/qemu/optee_os/lib/libmpa/mpa_mul.c:104
    74a0:	a90573fb 	stp	x27, x28, [sp,#80]
/home/lagadanu/Desktop/qemu/optee_os/lib/libmpa/mpa_mul.c:118
    74a4:	9100205c 	add	x28, x2, #0x8
/home/lagadanu/Desktop/qemu/optee_os/lib/libmpa/mpa_mul.c:104
    74a8:	a90363f7 	stp	x23, x24, [sp,#48]
    74ac:	aa0203f7 	mov	x23, x2
/home/lagadanu/Desktop/qemu/optee_os/lib/libmpa/mpa_mul.c:113
    74b0:	b9400002 	ldr	w2, [x0]
/home/lagadanu/Desktop/qemu/optee_os/lib/libmpa/mpa_mul.c:104
    74b4:	aa0003f3 	mov	x19, x0
    74b8:	a9025bf5 	stp	x21, x22, [sp,#32]
    74bc:	aa0103f6 	mov	x22, x1
/home/lagadanu/Desktop/qemu/optee_os/lib/libmpa/mpa_mul.c:113
    74c0:	91002015 	add	x21, x0, #0x8
/home/lagadanu/Desktop/qemu/optee_os/lib/libmpa/mpa_mul.c:104
    74c4:	a9046bf9 	stp	x25, x26, [sp,#64]
/home/lagadanu/Desktop/qemu/optee_os/lib/libmpa/mpa_mul.c:113
    74c8:	d37e7442 	ubfiz	x2, x2, #2, #30
/home/lagadanu/Desktop/qemu/optee_os/lib/libmpa/mpa_mul.c:107
    74cc:	b81fce9f 	str	wzr, [x20,#-4]!
/home/lagadanu/Desktop/qemu/optee_os/lib/libmpa/mpa_mul.c:113
    74d0:	52800001 	mov	w1, #0x0                   	// #0
    74d4:	aa1503e0 	mov	x0, x21
/home/lagadanu/Desktop/qemu/optee_os/lib/libmpa/mpa_mul.c:115
    74d8:	910022db 	add	x27, x22, #0x8
/home/lagadanu/Desktop/qemu/optee_os/lib/libmpa/mpa_mul.c:113
    74dc:	94000c22 	bl	a564 <memset>
/home/lagadanu/Desktop/qemu/optee_os/lib/libmpa/mpa_mul.c:117
    74e0:	d2800019 	mov	x25, #0x0                   	// #0
/home/lagadanu/Desktop/qemu/optee_os/lib/libmpa/mpa_mul.c:106
    74e4:	52800002 	mov	w2, #0x0                   	// #0
/home/lagadanu/Desktop/qemu/optee_os/lib/libmpa/mpa_mul.c:117 (discriminator 1)
    74e8:	b94006c0 	ldr	w0, [x22,#4]
    74ec:	8b190aba 	add	x26, x21, x25, lsl #2
    74f0:	7100001f 	cmp	w0, #0x0
    74f4:	5a80a400 	cneg	w0, w0, lt
    74f8:	6b00033f 	cmp	w25, w0
    74fc:	540001c3 	b.cc	7534 <__mpa_abs_mul+0xa4>
/home/lagadanu/Desktop/qemu/optee_os/lib/libmpa/mpa_mul.c:129
    7500:	0b020320 	add	w0, w25, w2
    7504:	51000401 	sub	w1, w0, #0x1
    7508:	b9000661 	str	w1, [x19,#4]
/home/lagadanu/Desktop/qemu/optee_os/lib/libmpa/mpa_mul.c:130
    750c:	b9406fa1 	ldr	w1, [x29,#108]
    7510:	34000041 	cbz	w1, 7518 <__mpa_abs_mul+0x88>
/home/lagadanu/Desktop/qemu/optee_os/lib/libmpa/mpa_mul.c:131
    7514:	b9000660 	str	w0, [x19,#4]
/home/lagadanu/Desktop/qemu/optee_os/lib/libmpa/mpa_mul.c:132
    7518:	a94153f3 	ldp	x19, x20, [sp,#16]
    751c:	a9425bf5 	ldp	x21, x22, [sp,#32]
    7520:	a94363f7 	ldp	x23, x24, [sp,#48]
    7524:	a9446bf9 	ldp	x25, x26, [sp,#64]
    7528:	a94573fb 	ldp	x27, x28, [sp,#80]
    752c:	a8c77bfd 	ldp	x29, x30, [sp],#112
    7530:	d65f03c0 	ret
/home/lagadanu/Desktop/qemu/optee_os/lib/libmpa/mpa_mul.c:120
    7534:	d2800018 	mov	x24, #0x0                   	// #0
/home/lagadanu/Desktop/qemu/optee_os/lib/libmpa/mpa_mul.c:119
    7538:	b9006fbf 	str	wzr, [x29,#108]
/home/lagadanu/Desktop/qemu/optee_os/lib/libmpa/mpa_mul.c:120 (discriminator 1)
    753c:	b94006e0 	ldr	w0, [x23,#4]
    7540:	2a1803e2 	mov	w2, w24
    7544:	7100001f 	cmp	w0, #0x0
    7548:	5a80a400 	cneg	w0, w0, lt
    754c:	6b00031f 	cmp	w24, w0
    7550:	540000c3 	b.cc	7568 <__mpa_abs_mul+0xd8>
/home/lagadanu/Desktop/qemu/optee_os/lib/libmpa/mpa_mul.c:124
    7554:	b9406fa0 	ldr	w0, [x29,#108]
    7558:	34000040 	cbz	w0, 7560 <__mpa_abs_mul+0xd0>
/home/lagadanu/Desktop/qemu/optee_os/lib/libmpa/mpa_mul.c:125
    755c:	b8385b40 	str	w0, [x26,w24,uxtw #2]
    7560:	91000739 	add	x25, x25, #0x1
    7564:	17ffffe1 	b	74e8 <__mpa_abs_mul+0x58>
/home/lagadanu/Desktop/qemu/optee_os/lib/libmpa/mpa_mul.c:121 (discriminator 3)
    7568:	b8787b81 	ldr	w1, [x28,x24,lsl #2]
    756c:	8b384b42 	add	x2, x26, w24, uxtw #2
    7570:	b8797b60 	ldr	w0, [x27,x25,lsl #2]
    7574:	aa1403e3 	mov	x3, x20
    7578:	91000718 	add	x24, x24, #0x1
    757c:	97ffff97 	bl	73d8 <__mpa_mul_add_word_cum>
    7580:	17ffffef 	b	753c <__mpa_abs_mul+0xac>

0000000000007584 <mpa_mul>:
mpa_mul():
/home/lagadanu/Desktop/qemu/optee_os/lib/libmpa/mpa_mul.c:147
    7584:	a9bb7bfd 	stp	x29, x30, [sp,#-80]!
    7588:	910003fd 	mov	x29, sp
    758c:	a90153f3 	stp	x19, x20, [sp,#16]
    7590:	aa0003f3 	mov	x19, x0
/home/lagadanu/Desktop/qemu/optee_os/lib/libmpa/mpa_mul.c:151
    7594:	b9400420 	ldr	w0, [x1,#4]
/home/lagadanu/Desktop/qemu/optee_os/lib/libmpa/mpa_mul.c:147
    7598:	a9025bf5 	stp	x21, x22, [sp,#32]
    759c:	f9001bf7 	str	x23, [sp,#48]
/home/lagadanu/Desktop/qemu/optee_os/lib/libmpa/mpa_mul.c:151
    75a0:	34000080 	cbz	w0, 75b0 <mpa_mul+0x2c>
/home/lagadanu/Desktop/qemu/optee_os/lib/libmpa/mpa_mul.c:151 (discriminator 1)
    75a4:	b9400440 	ldr	w0, [x2,#4]
    75a8:	aa0203f5 	mov	x21, x2
    75ac:	35000120 	cbnz	w0, 75d0 <mpa_mul+0x4c>
/home/lagadanu/Desktop/qemu/optee_os/lib/libmpa/mpa_mul.c:152
    75b0:	52800001 	mov	w1, #0x0                   	// #0
    75b4:	aa1303e0 	mov	x0, x19
    75b8:	97fffaf7 	bl	6194 <mpa_set_word>
/home/lagadanu/Desktop/qemu/optee_os/lib/libmpa/mpa_mul.c:171
    75bc:	a94153f3 	ldp	x19, x20, [sp,#16]
    75c0:	a9425bf5 	ldp	x21, x22, [sp,#32]
    75c4:	f9401bf7 	ldr	x23, [sp,#48]
    75c8:	a8c57bfd 	ldp	x29, x30, [sp],#80
    75cc:	d65f03c0 	ret
/home/lagadanu/Desktop/qemu/optee_os/lib/libmpa/mpa_mul.c:157
    75d0:	eb13003f 	cmp	x1, x19
    75d4:	aa0103f6 	mov	x22, x1
    75d8:	1a9f17f4 	cset	w20, eq
    75dc:	eb13005f 	cmp	x2, x19
    75e0:	1a9f17e0 	cset	w0, eq
    75e4:	aa0303f7 	mov	x23, x3
    75e8:	2a000294 	orr	w20, w20, w0
/home/lagadanu/Desktop/qemu/optee_os/lib/libmpa/mpa_mul.c:158
    75ec:	340003b4 	cbz	w20, 7660 <mpa_mul+0xdc>
/home/lagadanu/Desktop/qemu/optee_os/lib/libmpa/mpa_mul.c:159
    75f0:	aa0303e1 	mov	x1, x3
    75f4:	910123a0 	add	x0, x29, #0x48
    75f8:	97ffff67 	bl	7394 <mpa_alloc_static_temp_var>
/home/lagadanu/Desktop/qemu/optee_os/lib/libmpa/mpa_mul.c:163
    75fc:	f94027a0 	ldr	x0, [x29,#72]
    7600:	aa1503e2 	mov	x2, x21
    7604:	aa1603e1 	mov	x1, x22
    7608:	97ffffa2 	bl	7490 <__mpa_abs_mul>
/home/lagadanu/Desktop/qemu/optee_os/lib/libmpa/mpa_mul.c:165
    760c:	b94006c1 	ldr	w1, [x22,#4]
    7610:	12800000 	mov	w0, #0xffffffff            	// #-1
    7614:	b94006a2 	ldr	w2, [x21,#4]
    7618:	6b00003f 	cmp	w1, w0
    761c:	5a80d401 	cneg	w1, w0, gt
    7620:	6b00005f 	cmp	w2, w0
    7624:	5a80d400 	cneg	w0, w0, gt
    7628:	6b00003f 	cmp	w1, w0
    762c:	540000a0 	b.eq	7640 <mpa_mul+0xbc>
/home/lagadanu/Desktop/qemu/optee_os/lib/libmpa/mpa_mul.c:166
    7630:	f94027a1 	ldr	x1, [x29,#72]
    7634:	b9400420 	ldr	w0, [x1,#4]
    7638:	4b0003e0 	neg	w0, w0
    763c:	b9000420 	str	w0, [x1,#4]
/home/lagadanu/Desktop/qemu/optee_os/lib/libmpa/mpa_mul.c:168
    7640:	f94027a1 	ldr	x1, [x29,#72]
    7644:	aa1303e0 	mov	x0, x19
    7648:	97fff874 	bl	5818 <mpa_copy>
/home/lagadanu/Desktop/qemu/optee_os/lib/libmpa/mpa_mul.c:169
    764c:	34fffb94 	cbz	w20, 75bc <mpa_mul+0x38>
/home/lagadanu/Desktop/qemu/optee_os/lib/libmpa/mpa_mul.c:170
    7650:	aa1703e1 	mov	x1, x23
    7654:	910123a0 	add	x0, x29, #0x48
    7658:	97ffff53 	bl	73a4 <mpa_free_static_temp_var>
    765c:	17ffffd8 	b	75bc <mpa_mul+0x38>
/home/lagadanu/Desktop/qemu/optee_os/lib/libmpa/mpa_mul.c:161
    7660:	f90027b3 	str	x19, [x29,#72]
    7664:	17ffffe6 	b	75fc <mpa_mul+0x78>

0000000000007668 <mpa_mul_word>:
mpa_mul_word():
/home/lagadanu/Desktop/qemu/optee_os/lib/libmpa/mpa_mul.c:180
    7668:	a9bb7bfd 	stp	x29, x30, [sp,#-80]!
    766c:	910003fd 	mov	x29, sp
    7670:	a90153f3 	stp	x19, x20, [sp,#16]
    7674:	aa0103f4 	mov	x20, x1
/home/lagadanu/Desktop/qemu/optee_os/lib/libmpa/mpa_mul.c:185
    7678:	b9400421 	ldr	w1, [x1,#4]
/home/lagadanu/Desktop/qemu/optee_os/lib/libmpa/mpa_mul.c:180
    767c:	a9025bf5 	stp	x21, x22, [sp,#32]
    7680:	f9001bf7 	str	x23, [sp,#48]
/home/lagadanu/Desktop/qemu/optee_os/lib/libmpa/mpa_mul.c:185
    7684:	7100003f 	cmp	w1, #0x0
    7688:	7a401844 	ccmp	w2, #0x0, #0x4, ne
    768c:	54000101 	b.ne	76ac <mpa_mul_word+0x44>
/home/lagadanu/Desktop/qemu/optee_os/lib/libmpa/mpa_mul.c:186
    7690:	52800001 	mov	w1, #0x0                   	// #0
    7694:	97fffac0 	bl	6194 <mpa_set_word>
/home/lagadanu/Desktop/qemu/optee_os/lib/libmpa/mpa_mul.c:206
    7698:	a94153f3 	ldp	x19, x20, [sp,#16]
    769c:	a9425bf5 	ldp	x21, x22, [sp,#32]
    76a0:	f9401bf7 	ldr	x23, [sp,#48]
    76a4:	a8c57bfd 	ldp	x29, x30, [sp],#80
    76a8:	d65f03c0 	ret
    76ac:	aa0003f3 	mov	x19, x0
/home/lagadanu/Desktop/qemu/optee_os/lib/libmpa/mpa_mul.c:190
    76b0:	12800000 	mov	w0, #0xffffffff            	// #-1
    76b4:	6b00003f 	cmp	w1, w0
    76b8:	2a0203f7 	mov	w23, w2
    76bc:	5a80d415 	cneg	w21, w0, gt
    76c0:	aa0303f6 	mov	x22, x3
/home/lagadanu/Desktop/qemu/optee_os/lib/libmpa/mpa_mul.c:194
    76c4:	eb13029f 	cmp	x20, x19
    76c8:	540002e1 	b.ne	7724 <mpa_mul_word+0xbc>
/home/lagadanu/Desktop/qemu/optee_os/lib/libmpa/mpa_mul.c:195
    76cc:	aa0303e1 	mov	x1, x3
    76d0:	910123a0 	add	x0, x29, #0x48
    76d4:	97ffff30 	bl	7394 <mpa_alloc_static_temp_var>
/home/lagadanu/Desktop/qemu/optee_os/lib/libmpa/mpa_mul.c:199
    76d8:	f94027a0 	ldr	x0, [x29,#72]
    76dc:	2a1703e2 	mov	w2, w23
    76e0:	aa1403e1 	mov	x1, x20
    76e4:	97ffff45 	bl	73f8 <__mpa_abs_mul_word>
/home/lagadanu/Desktop/qemu/optee_os/lib/libmpa/mpa_mul.c:201
    76e8:	310006bf 	cmn	w21, #0x1
    76ec:	540000a1 	b.ne	7700 <mpa_mul_word+0x98>
/home/lagadanu/Desktop/qemu/optee_os/lib/libmpa/mpa_mul.c:202
    76f0:	f94027a1 	ldr	x1, [x29,#72]
    76f4:	b9400420 	ldr	w0, [x1,#4]
    76f8:	4b0003e0 	neg	w0, w0
    76fc:	b9000420 	str	w0, [x1,#4]
/home/lagadanu/Desktop/qemu/optee_os/lib/libmpa/mpa_mul.c:203
    7700:	f94027a1 	ldr	x1, [x29,#72]
    7704:	aa1303e0 	mov	x0, x19
    7708:	97fff844 	bl	5818 <mpa_copy>
/home/lagadanu/Desktop/qemu/optee_os/lib/libmpa/mpa_mul.c:204
    770c:	eb13029f 	cmp	x20, x19
    7710:	54fffc41 	b.ne	7698 <mpa_mul_word+0x30>
/home/lagadanu/Desktop/qemu/optee_os/lib/libmpa/mpa_mul.c:205
    7714:	aa1603e1 	mov	x1, x22
    7718:	910123a0 	add	x0, x29, #0x48
    771c:	97ffff22 	bl	73a4 <mpa_free_static_temp_var>
    7720:	17ffffde 	b	7698 <mpa_mul_word+0x30>
/home/lagadanu/Desktop/qemu/optee_os/lib/libmpa/mpa_mul.c:197
    7724:	f90027b3 	str	x19, [x29,#72]
    7728:	17ffffec 	b	76d8 <mpa_mul_word+0x70>

000000000000772c <mpa_get_random>:
mpa_get_random():
/home/lagadanu/Desktop/qemu/optee_os/lib/libmpa/mpa_random.c:43
    772c:	a9ba7bfd 	stp	x29, x30, [sp,#-96]!
    7730:	910003fd 	mov	x29, sp
    7734:	a9025bf5 	stp	x21, x22, [sp,#32]
    7738:	aa0103f5 	mov	x21, x1
    773c:	a90153f3 	stp	x19, x20, [sp,#16]
    7740:	aa0003f4 	mov	x20, x0
    7744:	a90363f7 	stp	x23, x24, [sp,#48]
get_rng_array():
/home/lagadanu/Desktop/qemu/optee_os/lib/libmpa/mpa_random.c:24
    7748:	91017fb7 	add	x23, x29, #0x5f
mpa_get_random():
/home/lagadanu/Desktop/qemu/optee_os/lib/libmpa/mpa_random.c:43
    774c:	f90023f9 	str	x25, [sp,#64]
/home/lagadanu/Desktop/qemu/optee_os/lib/libmpa/mpa_random.c:46
    7750:	97fff826 	bl	57e8 <mpa_wipe>
/home/lagadanu/Desktop/qemu/optee_os/lib/libmpa/mpa_random.c:47
    7754:	b94006a0 	ldr	w0, [x21,#4]
    7758:	52800013 	mov	w19, #0x0                   	// #0
    775c:	b9400281 	ldr	w1, [x20]
    7760:	7100001f 	cmp	w0, #0x0
    7764:	5a80a400 	cneg	w0, w0, lt
/home/lagadanu/Desktop/qemu/optee_os/lib/libmpa/mpa_random.c:48
    7768:	6b00003f 	cmp	w1, w0
    776c:	1a812000 	csel	w0, w0, w1, cs
    7770:	b9000680 	str	w0, [x20,#4]
/home/lagadanu/Desktop/qemu/optee_os/lib/libmpa/mpa_random.c:51
    7774:	35000573 	cbnz	w19, 7820 <mpa_get_random+0xf4>
    7778:	91002299 	add	x25, x20, #0x8
    777c:	1400000e 	b	77b4 <mpa_get_random+0x88>
    7780:	52800098 	mov	w24, #0x4                   	// #4
    7784:	52800000 	mov	w0, #0x0                   	// #0
/home/lagadanu/Desktop/qemu/optee_os/lib/libmpa/mpa_random.c:55 (discriminator 3)
    7788:	53185c16 	lsl	w22, w0, #8
get_rng_array():
/home/lagadanu/Desktop/qemu/optee_os/lib/libmpa/mpa_random.c:24
    778c:	d2800021 	mov	x1, #0x1                   	// #1
    7790:	aa1703e0 	mov	x0, x23
    7794:	97fff5de 	bl	4f0c <utee_cryp_random_number_generate>
get_random_byte():
/home/lagadanu/Desktop/qemu/optee_os/lib/libmpa/mpa_random.c:31
    7798:	35ffffa0 	cbnz	w0, 778c <mpa_get_random+0x60>
/home/lagadanu/Desktop/qemu/optee_os/lib/libmpa/mpa_random.c:34
    779c:	39417fa0 	ldrb	w0, [x29,#95]
mpa_get_random():
/home/lagadanu/Desktop/qemu/optee_os/lib/libmpa/mpa_random.c:54
    77a0:	71000718 	subs	w24, w24, #0x1
/home/lagadanu/Desktop/qemu/optee_os/lib/libmpa/mpa_random.c:55
    77a4:	4a160000 	eor	w0, w0, w22
/home/lagadanu/Desktop/qemu/optee_os/lib/libmpa/mpa_random.c:54
    77a8:	54ffff01 	b.ne	7788 <mpa_get_random+0x5c>
/home/lagadanu/Desktop/qemu/optee_os/lib/libmpa/mpa_random.c:52 (discriminator 2)
    77ac:	11000673 	add	w19, w19, #0x1
/home/lagadanu/Desktop/qemu/optee_os/lib/libmpa/mpa_random.c:56 (discriminator 2)
    77b0:	b8004720 	str	w0, [x25],#4
/home/lagadanu/Desktop/qemu/optee_os/lib/libmpa/mpa_random.c:52 (discriminator 1)
    77b4:	b9400681 	ldr	w1, [x20,#4]
    77b8:	6b01027f 	cmp	w19, w1
    77bc:	54fffe2b 	b.lt	7780 <mpa_get_random+0x54>
/home/lagadanu/Desktop/qemu/optee_os/lib/libmpa/mpa_random.c:58
    77c0:	b94006a0 	ldr	w0, [x21,#4]
/home/lagadanu/Desktop/qemu/optee_os/lib/libmpa/mpa_random.c:59
    77c4:	52800033 	mov	w19, #0x1                   	// #1
/home/lagadanu/Desktop/qemu/optee_os/lib/libmpa/mpa_random.c:58
    77c8:	7100001f 	cmp	w0, #0x0
    77cc:	5a80a400 	cneg	w0, w0, lt
    77d0:	6b00003f 	cmp	w1, w0
    77d4:	5400026b 	b.lt	7820 <mpa_get_random+0xf4>
/home/lagadanu/Desktop/qemu/optee_os/lib/libmpa/mpa_random.c:62
    77d8:	aa1503e0 	mov	x0, x21
    77dc:	97fff830 	bl	589c <mpa_highest_bit_index>
/home/lagadanu/Desktop/qemu/optee_os/lib/libmpa/mpa_random.c:64
    77e0:	12001000 	and	w0, w0, #0x1f
    77e4:	0b130000 	add	w0, w0, w19
/home/lagadanu/Desktop/qemu/optee_os/lib/libmpa/mpa_random.c:65
    77e8:	7100801f 	cmp	w0, #0x20
    77ec:	54000100 	b.eq	780c <mpa_get_random+0xe0>
/home/lagadanu/Desktop/qemu/optee_os/lib/libmpa/mpa_random.c:66
    77f0:	1ac02273 	lsl	w19, w19, w0
    77f4:	b9800680 	ldrsw	x0, [x20,#4]
    77f8:	51000673 	sub	w19, w19, #0x1
    77fc:	8b000a80 	add	x0, x20, x0, lsl #2
/home/lagadanu/Desktop/qemu/optee_os/lib/libmpa/mpa_random.c:67
    7800:	b9400401 	ldr	w1, [x0,#4]
    7804:	0a130033 	and	w19, w1, w19
    7808:	b9000413 	str	w19, [x0,#4]
/home/lagadanu/Desktop/qemu/optee_os/lib/libmpa/mpa_random.c:69
    780c:	aa1503e1 	mov	x1, x21
    7810:	aa1403e0 	mov	x0, x20
    7814:	9400038c 	bl	8644 <mpa_cmp>
    7818:	531f7c13 	lsr	w19, w0, #31
    781c:	17ffffd6 	b	7774 <mpa_get_random+0x48>
/home/lagadanu/Desktop/qemu/optee_os/lib/libmpa/mpa_random.c:72
    7820:	a94153f3 	ldp	x19, x20, [sp,#16]
    7824:	a9425bf5 	ldp	x21, x22, [sp,#32]
    7828:	a94363f7 	ldp	x23, x24, [sp,#48]
    782c:	f94023f9 	ldr	x25, [sp,#64]
    7830:	a8c67bfd 	ldp	x29, x30, [sp],#96
    7834:	d65f03c0 	ret

0000000000007838 <mpa_get_random_digits>:
mpa_get_random_digits():
/home/lagadanu/Desktop/qemu/optee_os/lib/libmpa/mpa_random.c:75
    7838:	a9be7bfd 	stp	x29, x30, [sp,#-32]!
    783c:	910003fd 	mov	x29, sp
    7840:	a90153f3 	stp	x19, x20, [sp,#16]
    7844:	aa0003f4 	mov	x20, x0
    7848:	2a0103f3 	mov	w19, w1
/home/lagadanu/Desktop/qemu/optee_os/lib/libmpa/mpa_random.c:76
    784c:	97fff7e7 	bl	57e8 <mpa_wipe>
/home/lagadanu/Desktop/qemu/optee_os/lib/libmpa/mpa_random.c:78
    7850:	b9400280 	ldr	w0, [x20]
    7854:	6b13001f 	cmp	w0, w19
    7858:	540000a2 	b.cs	786c <mpa_get_random_digits+0x34>
/home/lagadanu/Desktop/qemu/optee_os/lib/libmpa/mpa_random.c:79
    785c:	52800000 	mov	w0, #0x0                   	// #0
/home/lagadanu/Desktop/qemu/optee_os/lib/libmpa/mpa_random.c:87
    7860:	a94153f3 	ldp	x19, x20, [sp,#16]
    7864:	a8c27bfd 	ldp	x29, x30, [sp],#32
    7868:	d65f03c0 	ret
/home/lagadanu/Desktop/qemu/optee_os/lib/libmpa/mpa_random.c:83
    786c:	7100027f 	cmp	w19, #0x0
/home/lagadanu/Desktop/qemu/optee_os/lib/libmpa/mpa_random.c:81
    7870:	b9000693 	str	w19, [x20,#4]
/home/lagadanu/Desktop/qemu/optee_os/lib/libmpa/mpa_random.c:83
    7874:	5a93a673 	cneg	w19, w19, lt
get_rng_array():
/home/lagadanu/Desktop/qemu/optee_os/lib/libmpa/mpa_random.c:24
    7878:	91002280 	add	x0, x20, #0x8
mpa_get_random_digits():
/home/lagadanu/Desktop/qemu/optee_os/lib/libmpa/mpa_random.c:83
    787c:	531e7661 	lsl	w1, w19, #2
get_rng_array():
/home/lagadanu/Desktop/qemu/optee_os/lib/libmpa/mpa_random.c:24
    7880:	93407c21 	sxtw	x1, w1
    7884:	97fff5a2 	bl	4f0c <utee_cryp_random_number_generate>
mpa_get_random_digits():
/home/lagadanu/Desktop/qemu/optee_os/lib/libmpa/mpa_random.c:83
    7888:	35fffea0 	cbnz	w0, 785c <mpa_get_random_digits+0x24>
/home/lagadanu/Desktop/qemu/optee_os/lib/libmpa/mpa_random.c:86
    788c:	b9400680 	ldr	w0, [x20,#4]
    7890:	7100001f 	cmp	w0, #0x0
    7894:	5a80a400 	cneg	w0, w0, lt
    7898:	17fffff2 	b	7860 <mpa_get_random_digits+0x28>

000000000000789c <__mpa_shift_words_left>:
__mpa_shift_words_left():
/home/lagadanu/Desktop/qemu/optee_os/lib/libmpa/mpa_shift.c:22
    789c:	340004a1 	cbz	w1, 7930 <__mpa_shift_words_left+0x94>
/home/lagadanu/Desktop/qemu/optee_os/lib/libmpa/mpa_shift.c:19 (discriminator 1)
    78a0:	a9bd7bfd 	stp	x29, x30, [sp,#-48]!
    78a4:	910003fd 	mov	x29, sp
    78a8:	f90013f5 	str	x21, [sp,#32]
    78ac:	a90153f3 	stp	x19, x20, [sp,#16]
/home/lagadanu/Desktop/qemu/optee_os/lib/libmpa/mpa_shift.c:22 (discriminator 1)
    78b0:	b9400415 	ldr	w21, [x0,#4]
    78b4:	710002bf 	cmp	w21, #0x0
    78b8:	54000280 	b.eq	7908 <__mpa_shift_words_left+0x6c>
    78bc:	51000425 	sub	w5, w1, #0x1
/home/lagadanu/Desktop/qemu/optee_os/lib/libmpa/mpa_shift.c:24
    78c0:	5a95a6a2 	cneg	w2, w21, lt
    78c4:	0b050042 	add	w2, w2, w5
    78c8:	d37e7c43 	ubfiz	x3, x2, #2, #32
    78cc:	91002063 	add	x3, x3, #0x8
    78d0:	8b030003 	add	x3, x0, x3
/home/lagadanu/Desktop/qemu/optee_os/lib/libmpa/mpa_shift.c:24 (discriminator 1)
    78d4:	6b05005f 	cmp	w2, w5
    78d8:	54000208 	b.hi	7918 <__mpa_shift_words_left+0x7c>
    78dc:	2a0103f3 	mov	w19, w1
    78e0:	aa0003f4 	mov	x20, x0
/home/lagadanu/Desktop/qemu/optee_os/lib/libmpa/mpa_shift.c:27
    78e4:	52800001 	mov	w1, #0x0                   	// #0
    78e8:	d37e7662 	ubfiz	x2, x19, #2, #30
    78ec:	91002000 	add	x0, x0, #0x8
    78f0:	94000b1d 	bl	a564 <memset>
/home/lagadanu/Desktop/qemu/optee_os/lib/libmpa/mpa_shift.c:31
    78f4:	4b1302a0 	sub	w0, w21, w19
    78f8:	0b1302a1 	add	w1, w21, w19
    78fc:	710002bf 	cmp	w21, #0x0
    7900:	1a80c021 	csel	w1, w1, w0, gt
    7904:	b9000681 	str	w1, [x20,#4]
/home/lagadanu/Desktop/qemu/optee_os/lib/libmpa/mpa_shift.c:34
    7908:	a94153f3 	ldp	x19, x20, [sp,#16]
    790c:	f94013f5 	ldr	x21, [sp,#32]
    7910:	a8c37bfd 	ldp	x29, x30, [sp],#48
    7914:	d65f03c0 	ret
/home/lagadanu/Desktop/qemu/optee_os/lib/libmpa/mpa_shift.c:25 (discriminator 3)
    7918:	4b010044 	sub	w4, w2, w1
/home/lagadanu/Desktop/qemu/optee_os/lib/libmpa/mpa_shift.c:24 (discriminator 3)
    791c:	51000442 	sub	w2, w2, #0x1
/home/lagadanu/Desktop/qemu/optee_os/lib/libmpa/mpa_shift.c:25 (discriminator 3)
    7920:	8b040804 	add	x4, x0, x4, lsl #2
    7924:	b9400884 	ldr	w4, [x4,#8]
    7928:	b81fc464 	str	w4, [x3],#-4
    792c:	17ffffea 	b	78d4 <__mpa_shift_words_left+0x38>
    7930:	d65f03c0 	ret

0000000000007934 <__mpa_shift_words_right>:
__mpa_shift_words_right():
/home/lagadanu/Desktop/qemu/optee_os/lib/libmpa/mpa_shift.c:42
    7934:	aa0003e3 	mov	x3, x0
/home/lagadanu/Desktop/qemu/optee_os/lib/libmpa/mpa_shift.c:45
    7938:	34000201 	cbz	w1, 7978 <__mpa_shift_words_right+0x44>
/home/lagadanu/Desktop/qemu/optee_os/lib/libmpa/mpa_shift.c:45 (discriminator 1)
    793c:	b9400402 	ldr	w2, [x0,#4]
    7940:	7100005f 	cmp	w2, #0x0
    7944:	540001a0 	b.eq	7978 <__mpa_shift_words_right+0x44>
/home/lagadanu/Desktop/qemu/optee_os/lib/libmpa/mpa_shift.c:48
    7948:	5a82a444 	cneg	w4, w2, lt
    794c:	6b04003f 	cmp	w1, w4
    7950:	54000162 	b.cs	797c <__mpa_shift_words_right+0x48>
    7954:	91002005 	add	x5, x0, #0x8
    7958:	2a0103e0 	mov	w0, w1
/home/lagadanu/Desktop/qemu/optee_os/lib/libmpa/mpa_shift.c:53 (discriminator 1)
    795c:	6b04001f 	cmp	w0, w4
    7960:	54000121 	b.ne	7984 <__mpa_shift_words_right+0x50>
/home/lagadanu/Desktop/qemu/optee_os/lib/libmpa/mpa_shift.c:58
    7964:	0b010040 	add	w0, w2, w1
    7968:	7100005f 	cmp	w2, #0x0
    796c:	4b010041 	sub	w1, w2, w1
    7970:	1a80c021 	csel	w1, w1, w0, gt
    7974:	b9000461 	str	w1, [x3,#4]
    7978:	d65f03c0 	ret
/home/lagadanu/Desktop/qemu/optee_os/lib/libmpa/mpa_shift.c:49
    797c:	52800001 	mov	w1, #0x0                   	// #0
    7980:	17fffa05 	b	6194 <mpa_set_word>
/home/lagadanu/Desktop/qemu/optee_os/lib/libmpa/mpa_shift.c:54 (discriminator 3)
    7984:	8b204866 	add	x6, x3, w0, uxtw #2
    7988:	11000400 	add	w0, w0, #0x1
    798c:	b94008c6 	ldr	w6, [x6,#8]
    7990:	b80044a6 	str	w6, [x5],#4
    7994:	17fffff2 	b	795c <__mpa_shift_words_right+0x28>

0000000000007998 <mpa_shift_left>:
mpa_shift_left():
/home/lagadanu/Desktop/qemu/optee_os/lib/libmpa/mpa_shift.c:76
    7998:	a9bd7bfd 	stp	x29, x30, [sp,#-48]!
    799c:	910003fd 	mov	x29, sp
    79a0:	a90153f3 	stp	x19, x20, [sp,#16]
    79a4:	aa0003f3 	mov	x19, x0
    79a8:	a9025bf5 	stp	x21, x22, [sp,#32]
    79ac:	2a0203f6 	mov	w22, w2
/home/lagadanu/Desktop/qemu/optee_os/lib/libmpa/mpa_shift.c:88
    79b0:	97fff79a 	bl	5818 <mpa_copy>
/home/lagadanu/Desktop/qemu/optee_os/lib/libmpa/mpa_shift.c:89
    79b4:	aa1303e0 	mov	x0, x19
    79b8:	97fff783 	bl	57c4 <__mpa_set_unused_digits_to_zero>
/home/lagadanu/Desktop/qemu/optee_os/lib/libmpa/mpa_shift.c:90
    79bc:	34000316 	cbz	w22, 7a1c <mpa_shift_left+0x84>
/home/lagadanu/Desktop/qemu/optee_os/lib/libmpa/mpa_shift.c:90 (discriminator 1)
    79c0:	b9400674 	ldr	w20, [x19,#4]
    79c4:	340002d4 	cbz	w20, 7a1c <mpa_shift_left+0x84>
/home/lagadanu/Desktop/qemu/optee_os/lib/libmpa/mpa_shift.c:94
    79c8:	53057ed5 	lsr	w21, w22, #5
/home/lagadanu/Desktop/qemu/optee_os/lib/libmpa/mpa_shift.c:110
    79cc:	720012d6 	ands	w22, w22, #0x1f
    79d0:	540003a1 	b.ne	7a44 <mpa_shift_left+0xac>
/home/lagadanu/Desktop/qemu/optee_os/lib/libmpa/mpa_shift.c:114
    79d4:	7100029f 	cmp	w20, #0x0
    79d8:	510006a3 	sub	w3, w21, #0x1
    79dc:	5a94a680 	cneg	w0, w20, lt
    79e0:	0b030000 	add	w0, w0, w3
    79e4:	d37e7c01 	ubfiz	x1, x0, #2, #32
    79e8:	91002021 	add	x1, x1, #0x8
    79ec:	8b010261 	add	x1, x19, x1
/home/lagadanu/Desktop/qemu/optee_os/lib/libmpa/mpa_shift.c:114 (discriminator 1)
    79f0:	6b03001f 	cmp	w0, w3
    79f4:	540001c8 	b.hi	7a2c <mpa_shift_left+0x94>
/home/lagadanu/Desktop/qemu/optee_os/lib/libmpa/mpa_shift.c:140
    79f8:	d37e6aa2 	ubfiz	x2, x21, #2, #27
    79fc:	52800001 	mov	w1, #0x0                   	// #0
    7a00:	91002260 	add	x0, x19, #0x8
    7a04:	94000ad8 	bl	a564 <memset>
/home/lagadanu/Desktop/qemu/optee_os/lib/libmpa/mpa_shift.c:142
    7a08:	7100029f 	cmp	w20, #0x0
    7a0c:	5400088d 	b.le	7b1c <mpa_shift_left+0x184>
/home/lagadanu/Desktop/qemu/optee_os/lib/libmpa/mpa_shift.c:143
    7a10:	0b150294 	add	w20, w20, w21
    7a14:	0b160294 	add	w20, w20, w22
/home/lagadanu/Desktop/qemu/optee_os/lib/libmpa/mpa_shift.c:145
    7a18:	b9000674 	str	w20, [x19,#4]
/home/lagadanu/Desktop/qemu/optee_os/lib/libmpa/mpa_shift.c:146
    7a1c:	a94153f3 	ldp	x19, x20, [sp,#16]
    7a20:	a9425bf5 	ldp	x21, x22, [sp,#32]
    7a24:	a8c37bfd 	ldp	x29, x30, [sp],#48
    7a28:	d65f03c0 	ret
/home/lagadanu/Desktop/qemu/optee_os/lib/libmpa/mpa_shift.c:115 (discriminator 3)
    7a2c:	4b150002 	sub	w2, w0, w21
/home/lagadanu/Desktop/qemu/optee_os/lib/libmpa/mpa_shift.c:114 (discriminator 3)
    7a30:	51000400 	sub	w0, w0, #0x1
/home/lagadanu/Desktop/qemu/optee_os/lib/libmpa/mpa_shift.c:115 (discriminator 3)
    7a34:	8b020a62 	add	x2, x19, x2, lsl #2
    7a38:	b9400842 	ldr	w2, [x2,#8]
    7a3c:	b81fc422 	str	w2, [x1],#-4
    7a40:	17ffffec 	b	79f0 <mpa_shift_left+0x58>
/home/lagadanu/Desktop/qemu/optee_os/lib/libmpa/mpa_shift.c:117
    7a44:	7100029f 	cmp	w20, #0x0
/home/lagadanu/Desktop/qemu/optee_os/lib/libmpa/mpa_shift.c:118
    7a48:	52800021 	mov	w1, #0x1                   	// #1
/home/lagadanu/Desktop/qemu/optee_os/lib/libmpa/mpa_shift.c:117
    7a4c:	5a94a680 	cneg	w0, w20, lt
/home/lagadanu/Desktop/qemu/optee_os/lib/libmpa/mpa_shift.c:118
    7a50:	52800403 	mov	w3, #0x20                  	// #32
/home/lagadanu/Desktop/qemu/optee_os/lib/libmpa/mpa_shift.c:117
    7a54:	51000402 	sub	w2, w0, #0x1
/home/lagadanu/Desktop/qemu/optee_os/lib/libmpa/mpa_shift.c:118
    7a58:	4b160063 	sub	w3, w3, w22
/home/lagadanu/Desktop/qemu/optee_os/lib/libmpa/mpa_shift.c:117
    7a5c:	8b22ca62 	add	x2, x19, w2, sxtw #2
/home/lagadanu/Desktop/qemu/optee_os/lib/libmpa/mpa_shift.c:118
    7a60:	1ad62021 	lsl	w1, w1, w22
    7a64:	51000421 	sub	w1, w1, #0x1
/home/lagadanu/Desktop/qemu/optee_os/lib/libmpa/mpa_shift.c:126
    7a68:	0b150000 	add	w0, w0, w21
/home/lagadanu/Desktop/qemu/optee_os/lib/libmpa/mpa_shift.c:117
    7a6c:	b9400842 	ldr	w2, [x2,#8]
/home/lagadanu/Desktop/qemu/optee_os/lib/libmpa/mpa_shift.c:118
    7a70:	1ac32021 	lsl	w1, w1, w3
/home/lagadanu/Desktop/qemu/optee_os/lib/libmpa/mpa_shift.c:117
    7a74:	6a020021 	ands	w1, w1, w2
    7a78:	1a9f07e6 	cset	w6, ne
/home/lagadanu/Desktop/qemu/optee_os/lib/libmpa/mpa_shift.c:126
    7a7c:	0b060000 	add	w0, w0, w6
/home/lagadanu/Desktop/qemu/optee_os/lib/libmpa/mpa_shift.c:127
    7a80:	34000141 	cbz	w1, 7aa8 <mpa_shift_left+0x110>
/home/lagadanu/Desktop/qemu/optee_os/lib/libmpa/mpa_shift.c:128
    7a84:	2a3503e1 	mvn	w1, w21
    7a88:	8b204a64 	add	x4, x19, w0, uxtw #2
    7a8c:	0b000021 	add	w1, w1, w0
    7a90:	8b010a61 	add	x1, x19, x1, lsl #2
    7a94:	b9400821 	ldr	w1, [x1,#8]
    7a98:	1ac32422 	lsr	w2, w1, w3
/home/lagadanu/Desktop/qemu/optee_os/lib/libmpa/mpa_shift.c:129
    7a9c:	b9400881 	ldr	w1, [x4,#8]
    7aa0:	4a020021 	eor	w1, w1, w2
    7aa4:	b9000881 	str	w1, [x4,#8]
/home/lagadanu/Desktop/qemu/optee_os/lib/libmpa/mpa_shift.c:131
    7aa8:	51000401 	sub	w1, w0, #0x1
    7aac:	4b150000 	sub	w0, w0, w21
/home/lagadanu/Desktop/qemu/optee_os/lib/libmpa/mpa_shift.c:132
    7ab0:	4b150024 	sub	w4, w1, w21
    7ab4:	8b010a65 	add	x5, x19, x1, lsl #2
    7ab8:	8b040a64 	add	x4, x19, x4, lsl #2
/home/lagadanu/Desktop/qemu/optee_os/lib/libmpa/mpa_shift.c:131
    7abc:	aa0103e2 	mov	x2, x1
    7ac0:	91000821 	add	x1, x1, #0x2
    7ac4:	51000800 	sub	w0, w0, #0x2
    7ac8:	8b010a61 	add	x1, x19, x1, lsl #2
/home/lagadanu/Desktop/qemu/optee_os/lib/libmpa/mpa_shift.c:132
    7acc:	b9400884 	ldr	w4, [x4,#8]
    7ad0:	1ad62084 	lsl	w4, w4, w22
    7ad4:	b90008a4 	str	w4, [x5,#8]
/home/lagadanu/Desktop/qemu/optee_os/lib/libmpa/mpa_shift.c:133
    7ad8:	6b15005f 	cmp	w2, w21
    7adc:	54000068 	b.hi	7ae8 <mpa_shift_left+0x150>
/home/lagadanu/Desktop/qemu/optee_os/lib/libmpa/mpa_shift.c:108
    7ae0:	2a0603f6 	mov	w22, w6
    7ae4:	17ffffc5 	b	79f8 <mpa_shift_left+0x60>
/home/lagadanu/Desktop/qemu/optee_os/lib/libmpa/mpa_shift.c:134
    7ae8:	8b204a67 	add	x7, x19, w0, uxtw #2
/home/lagadanu/Desktop/qemu/optee_os/lib/libmpa/mpa_shift.c:136
    7aec:	51000442 	sub	w2, w2, #0x1
    7af0:	51000400 	sub	w0, w0, #0x1
/home/lagadanu/Desktop/qemu/optee_os/lib/libmpa/mpa_shift.c:134
    7af4:	b94008e4 	ldr	w4, [x7,#8]
    7af8:	1ac32485 	lsr	w5, w4, w3
/home/lagadanu/Desktop/qemu/optee_os/lib/libmpa/mpa_shift.c:135
    7afc:	b9400024 	ldr	w4, [x1]
    7b00:	4a050084 	eor	w4, w4, w5
    7b04:	b81fc424 	str	w4, [x1],#-4
/home/lagadanu/Desktop/qemu/optee_os/lib/libmpa/mpa_shift.c:137
    7b08:	8b224a65 	add	x5, x19, w2, uxtw #2
    7b0c:	b94008e4 	ldr	w4, [x7,#8]
    7b10:	1ad62084 	lsl	w4, w4, w22
    7b14:	b90008a4 	str	w4, [x5,#8]
    7b18:	17fffff0 	b	7ad8 <mpa_shift_left+0x140>
/home/lagadanu/Desktop/qemu/optee_os/lib/libmpa/mpa_shift.c:145
    7b1c:	4b150294 	sub	w20, w20, w21
    7b20:	4b160294 	sub	w20, w20, w22
    7b24:	17ffffbd 	b	7a18 <mpa_shift_left+0x80>

0000000000007b28 <mpa_shift_right>:
mpa_shift_right():
/home/lagadanu/Desktop/qemu/optee_os/lib/libmpa/mpa_shift.c:157
    7b28:	a9be7bfd 	stp	x29, x30, [sp,#-32]!
    7b2c:	910003fd 	mov	x29, sp
    7b30:	a90153f3 	stp	x19, x20, [sp,#16]
    7b34:	aa0003f3 	mov	x19, x0
    7b38:	2a0203f4 	mov	w20, w2
/home/lagadanu/Desktop/qemu/optee_os/lib/libmpa/mpa_shift.c:168
    7b3c:	97fff737 	bl	5818 <mpa_copy>
/home/lagadanu/Desktop/qemu/optee_os/lib/libmpa/mpa_shift.c:169
    7b40:	aa1303e0 	mov	x0, x19
    7b44:	97fff720 	bl	57c4 <__mpa_set_unused_digits_to_zero>
/home/lagadanu/Desktop/qemu/optee_os/lib/libmpa/mpa_shift.c:170
    7b48:	34000674 	cbz	w20, 7c14 <mpa_shift_right+0xec>
/home/lagadanu/Desktop/qemu/optee_os/lib/libmpa/mpa_shift.c:170 (discriminator 1)
    7b4c:	b9400663 	ldr	w3, [x19,#4]
    7b50:	7100007f 	cmp	w3, #0x0
    7b54:	54000600 	b.eq	7c14 <mpa_shift_right+0xec>
/home/lagadanu/Desktop/qemu/optee_os/lib/libmpa/mpa_shift.c:174
    7b58:	53057e82 	lsr	w2, w20, #5
/home/lagadanu/Desktop/qemu/optee_os/lib/libmpa/mpa_shift.c:176
    7b5c:	5a83a466 	cneg	w6, w3, lt
/home/lagadanu/Desktop/qemu/optee_os/lib/libmpa/mpa_shift.c:173
    7b60:	12001284 	and	w4, w20, #0x1f
/home/lagadanu/Desktop/qemu/optee_os/lib/libmpa/mpa_shift.c:176
    7b64:	6b06005f 	cmp	w2, w6
    7b68:	540000c3 	b.cc	7b80 <mpa_shift_right+0x58>
/home/lagadanu/Desktop/qemu/optee_os/lib/libmpa/mpa_shift.c:177
    7b6c:	aa1303e0 	mov	x0, x19
    7b70:	52800001 	mov	w1, #0x0                   	// #0
/home/lagadanu/Desktop/qemu/optee_os/lib/libmpa/mpa_shift.c:215
    7b74:	a94153f3 	ldp	x19, x20, [sp,#16]
    7b78:	a8c27bfd 	ldp	x29, x30, [sp],#32
/home/lagadanu/Desktop/qemu/optee_os/lib/libmpa/mpa_shift.c:177
    7b7c:	17fff986 	b	6194 <mpa_set_word>
    7b80:	91002260 	add	x0, x19, #0x8
/home/lagadanu/Desktop/qemu/optee_os/lib/libmpa/mpa_shift.c:186
    7b84:	34000264 	cbz	w4, 7bd0 <mpa_shift_right+0xa8>
/home/lagadanu/Desktop/qemu/optee_os/lib/libmpa/mpa_shift.c:194 (discriminator 1)
    7b88:	d2800025 	mov	x5, #0x1                   	// #1
/home/lagadanu/Desktop/qemu/optee_os/lib/libmpa/mpa_shift.c:196 (discriminator 1)
    7b8c:	52800409 	mov	w9, #0x20                  	// #32
/home/lagadanu/Desktop/qemu/optee_os/lib/libmpa/mpa_shift.c:194 (discriminator 1)
    7b90:	9ac420a5 	lsl	x5, x5, x4
    7b94:	2a0203e1 	mov	w1, w2
    7b98:	510004a5 	sub	w5, w5, #0x1
/home/lagadanu/Desktop/qemu/optee_os/lib/libmpa/mpa_shift.c:196 (discriminator 1)
    7b9c:	4b040129 	sub	w9, w9, w4
    7ba0:	11000428 	add	w8, w1, #0x1
/home/lagadanu/Desktop/qemu/optee_os/lib/libmpa/mpa_shift.c:192 (discriminator 1)
    7ba4:	6b0800df 	cmp	w6, w8
    7ba8:	54000461 	b.ne	7c34 <mpa_shift_right+0x10c>
    7bac:	2a2203e0 	mvn	w0, w2
    7bb0:	0b060000 	add	w0, w0, w6
/home/lagadanu/Desktop/qemu/optee_os/lib/libmpa/mpa_shift.c:199
    7bb4:	8b204a61 	add	x1, x19, w0, uxtw #2
    7bb8:	0b000040 	add	w0, w2, w0
    7bbc:	8b000a60 	add	x0, x19, x0, lsl #2
    7bc0:	b9400800 	ldr	w0, [x0,#8]
    7bc4:	1ac42404 	lsr	w4, w0, w4
    7bc8:	b9000824 	str	w4, [x1,#8]
    7bcc:	14000004 	b	7bdc <mpa_shift_right+0xb4>
/home/lagadanu/Desktop/qemu/optee_os/lib/libmpa/mpa_shift.c:186 (discriminator 1)
    7bd0:	2a0203e1 	mov	w1, w2
/home/lagadanu/Desktop/qemu/optee_os/lib/libmpa/mpa_shift.c:188 (discriminator 1)
    7bd4:	6b0100df 	cmp	w6, w1
    7bd8:	54000241 	b.ne	7c20 <mpa_shift_right+0xf8>
/home/lagadanu/Desktop/qemu/optee_os/lib/libmpa/mpa_shift.c:204
    7bdc:	0b020060 	add	w0, w3, w2
    7be0:	7100007f 	cmp	w3, #0x0
    7be4:	4b020062 	sub	w2, w3, w2
    7be8:	1a80c042 	csel	w2, w2, w0, gt
    7bec:	b9000662 	str	w2, [x19,#4]
/home/lagadanu/Desktop/qemu/optee_os/lib/libmpa/mpa_shift.c:209
    7bf0:	7100005f 	cmp	w2, #0x0
    7bf4:	5a82a440 	cneg	w0, w2, lt
    7bf8:	51000400 	sub	w0, w0, #0x1
    7bfc:	8b20ca60 	add	x0, x19, w0, sxtw #2
    7c00:	b9400800 	ldr	w0, [x0,#8]
    7c04:	35000080 	cbnz	w0, 7c14 <mpa_shift_right+0xec>
/home/lagadanu/Desktop/qemu/optee_os/lib/libmpa/mpa_shift.c:210
    7c08:	540002ed 	b.le	7c64 <mpa_shift_right+0x13c>
/home/lagadanu/Desktop/qemu/optee_os/lib/libmpa/mpa_shift.c:211
    7c0c:	51000442 	sub	w2, w2, #0x1
/home/lagadanu/Desktop/qemu/optee_os/lib/libmpa/mpa_shift.c:213
    7c10:	b9000662 	str	w2, [x19,#4]
/home/lagadanu/Desktop/qemu/optee_os/lib/libmpa/mpa_shift.c:215
    7c14:	a94153f3 	ldp	x19, x20, [sp,#16]
    7c18:	a8c27bfd 	ldp	x29, x30, [sp],#32
    7c1c:	d65f03c0 	ret
/home/lagadanu/Desktop/qemu/optee_os/lib/libmpa/mpa_shift.c:189 (discriminator 3)
    7c20:	8b214a64 	add	x4, x19, w1, uxtw #2
    7c24:	11000421 	add	w1, w1, #0x1
    7c28:	b9400884 	ldr	w4, [x4,#8]
    7c2c:	b8004404 	str	w4, [x0],#4
    7c30:	17ffffe9 	b	7bd4 <mpa_shift_right+0xac>
/home/lagadanu/Desktop/qemu/optee_os/lib/libmpa/mpa_shift.c:193 (discriminator 3)
    7c34:	8b214a61 	add	x1, x19, w1, uxtw #2
    7c38:	b9400827 	ldr	w7, [x1,#8]
/home/lagadanu/Desktop/qemu/optee_os/lib/libmpa/mpa_shift.c:194 (discriminator 3)
    7c3c:	8b284a61 	add	x1, x19, w8, uxtw #2
/home/lagadanu/Desktop/qemu/optee_os/lib/libmpa/mpa_shift.c:193 (discriminator 3)
    7c40:	b9000007 	str	w7, [x0]
/home/lagadanu/Desktop/qemu/optee_os/lib/libmpa/mpa_shift.c:194 (discriminator 3)
    7c44:	b9400821 	ldr	w1, [x1,#8]
/home/lagadanu/Desktop/qemu/optee_os/lib/libmpa/mpa_shift.c:196 (discriminator 3)
    7c48:	1ac424e7 	lsr	w7, w7, w4
/home/lagadanu/Desktop/qemu/optee_os/lib/libmpa/mpa_shift.c:194 (discriminator 3)
    7c4c:	0a0100a1 	and	w1, w5, w1
/home/lagadanu/Desktop/qemu/optee_os/lib/libmpa/mpa_shift.c:196 (discriminator 3)
    7c50:	1ac92021 	lsl	w1, w1, w9
    7c54:	4a070021 	eor	w1, w1, w7
/home/lagadanu/Desktop/qemu/optee_os/lib/libmpa/mpa_shift.c:195 (discriminator 3)
    7c58:	b8004401 	str	w1, [x0],#4
    7c5c:	2a0803e1 	mov	w1, w8
    7c60:	17ffffd0 	b	7ba0 <mpa_shift_right+0x78>
/home/lagadanu/Desktop/qemu/optee_os/lib/libmpa/mpa_shift.c:213
    7c64:	11000442 	add	w2, w2, #0x1
    7c68:	17ffffea 	b	7c10 <mpa_shift_right+0xe8>

0000000000007c6c <__mpa_full_adder>:
__mpa_full_adder():
/home/lagadanu/Desktop/qemu/optee_os/lib/libmpa/mpa_addsub.c:32
    7c6c:	b9400064 	ldr	w4, [x3]
    7c70:	8b214081 	add	x1, x4, w1, uxtw
    7c74:	8b204020 	add	x0, x1, w0, uxtw
/home/lagadanu/Desktop/qemu/optee_os/lib/libmpa/mpa_addsub.c:33
    7c78:	b9000040 	str	w0, [x2]
/home/lagadanu/Desktop/qemu/optee_os/lib/libmpa/mpa_addsub.c:34
    7c7c:	d360fc00 	lsr	x0, x0, #32
    7c80:	b9000060 	str	w0, [x3]
    7c84:	d65f03c0 	ret

0000000000007c88 <__mpa_full_sub>:
__mpa_full_sub():
/home/lagadanu/Desktop/qemu/optee_os/lib/libmpa/mpa_addsub.c:55
    7c88:	2a0003e0 	mov	w0, w0
    7c8c:	cb214001 	sub	x1, x0, w1, uxtw
    7c90:	b9400060 	ldr	w0, [x3]
    7c94:	cb000021 	sub	x1, x1, x0
/home/lagadanu/Desktop/qemu/optee_os/lib/libmpa/mpa_addsub.c:56
    7c98:	b9000041 	str	w1, [x2]
/home/lagadanu/Desktop/qemu/optee_os/lib/libmpa/mpa_addsub.c:57
    7c9c:	d360fc21 	lsr	x1, x1, #32
    7ca0:	4b0103e1 	neg	w1, w1
    7ca4:	b9000061 	str	w1, [x3]
    7ca8:	d65f03c0 	ret

0000000000007cac <__mpa_full_adder_ackum>:
__mpa_full_adder_ackum():
/home/lagadanu/Desktop/qemu/optee_os/lib/libmpa/mpa_addsub.c:79
    7cac:	b9400043 	ldr	w3, [x2]
    7cb0:	8b214061 	add	x1, x3, w1, uxtw
    7cb4:	b9400003 	ldr	w3, [x0]
    7cb8:	8b030021 	add	x1, x1, x3
/home/lagadanu/Desktop/qemu/optee_os/lib/libmpa/mpa_addsub.c:80
    7cbc:	b9000001 	str	w1, [x0]
/home/lagadanu/Desktop/qemu/optee_os/lib/libmpa/mpa_addsub.c:81
    7cc0:	d360fc21 	lsr	x1, x1, #32
    7cc4:	b9000041 	str	w1, [x2]
    7cc8:	d65f03c0 	ret

0000000000007ccc <__mpa_abs_add>:
__mpa_abs_add():
/home/lagadanu/Desktop/qemu/optee_os/lib/libmpa/mpa_addsub.c:105
    7ccc:	a9bd7bfd 	stp	x29, x30, [sp,#-48]!
/home/lagadanu/Desktop/qemu/optee_os/lib/libmpa/mpa_addsub.c:115
    7cd0:	6b05007f 	cmp	w3, w5
/home/lagadanu/Desktop/qemu/optee_os/lib/libmpa/mpa_addsub.c:105
    7cd4:	910003fd 	mov	x29, sp
    7cd8:	a90153f3 	stp	x19, x20, [sp,#16]
    7cdc:	aa0003f4 	mov	x20, x0
    7ce0:	f90013f5 	str	x21, [sp,#32]
    7ce4:	aa0103f5 	mov	x21, x1
/home/lagadanu/Desktop/qemu/optee_os/lib/libmpa/mpa_addsub.c:115
    7ce8:	540000ec 	b.gt	7d04 <__mpa_abs_add+0x38>
    7cec:	2a0503e0 	mov	w0, w5
    7cf0:	2a0303e5 	mov	w5, w3
    7cf4:	2a0003e3 	mov	w3, w0
    7cf8:	aa0403e0 	mov	x0, x4
/home/lagadanu/Desktop/qemu/optee_os/lib/libmpa/mpa_addsub.c:122
    7cfc:	aa0203e4 	mov	x4, x2
/home/lagadanu/Desktop/qemu/optee_os/lib/libmpa/mpa_addsub.c:121
    7d00:	aa0003e2 	mov	x2, x0
/home/lagadanu/Desktop/qemu/optee_os/lib/libmpa/mpa_addsub.c:130
    7d04:	d2800001 	mov	x1, #0x0                   	// #0
/home/lagadanu/Desktop/qemu/optee_os/lib/libmpa/mpa_addsub.c:128
    7d08:	52800008 	mov	w8, #0x0                   	// #0
/home/lagadanu/Desktop/qemu/optee_os/lib/libmpa/mpa_addsub.c:130
    7d0c:	6b0100bf 	cmp	w5, w1
    7d10:	540001ac 	b.gt	7d44 <__mpa_abs_add+0x78>
    7d14:	710000bf 	cmp	w5, #0x0
    7d18:	1a9fa0a5 	csel	w5, w5, wzr, ge
    7d1c:	937e7ca1 	sbfiz	x1, x5, #2, #32
    7d20:	8b010284 	add	x4, x20, x1
    7d24:	8b010041 	add	x1, x2, x1
/home/lagadanu/Desktop/qemu/optee_os/lib/libmpa/mpa_addsub.c:134
    7d28:	6b05007f 	cmp	w3, w5
    7d2c:	340002c8 	cbz	w8, 7d84 <__mpa_abs_add+0xb8>
    7d30:	91001080 	add	x0, x4, #0x4
/home/lagadanu/Desktop/qemu/optee_os/lib/libmpa/mpa_addsub.c:134 (discriminator 1)
    7d34:	540001ac 	b.gt	7d68 <__mpa_abs_add+0x9c>
/home/lagadanu/Desktop/qemu/optee_os/lib/libmpa/mpa_addsub.c:146
    7d38:	52800021 	mov	w1, #0x1                   	// #1
    7d3c:	b9000081 	str	w1, [x4]
    7d40:	14000019 	b	7da4 <__mpa_abs_add+0xd8>
__mpa_full_adder():
/home/lagadanu/Desktop/qemu/optee_os/lib/libmpa/mpa_addsub.c:32
    7d44:	b8617886 	ldr	w6, [x4,x1,lsl #2]
    7d48:	2a0803e0 	mov	w0, w8
    7d4c:	b8617847 	ldr	w7, [x2,x1,lsl #2]
    7d50:	8b0700c6 	add	x6, x6, x7
    7d54:	8b0000c0 	add	x0, x6, x0
/home/lagadanu/Desktop/qemu/optee_os/lib/libmpa/mpa_addsub.c:33
    7d58:	b8217a80 	str	w0, [x20,x1,lsl #2]
/home/lagadanu/Desktop/qemu/optee_os/lib/libmpa/mpa_addsub.c:34
    7d5c:	d360fc08 	lsr	x8, x0, #32
    7d60:	91000421 	add	x1, x1, #0x1
    7d64:	17ffffea 	b	7d0c <__mpa_abs_add+0x40>
__mpa_abs_add():
/home/lagadanu/Desktop/qemu/optee_os/lib/libmpa/mpa_addsub.c:135
    7d68:	aa0003e4 	mov	x4, x0
__mpa_full_adder():
/home/lagadanu/Desktop/qemu/optee_os/lib/libmpa/mpa_addsub.c:32
    7d6c:	b8404420 	ldr	w0, [x1],#4
__mpa_abs_add():
/home/lagadanu/Desktop/qemu/optee_os/lib/libmpa/mpa_addsub.c:136
    7d70:	110004a5 	add	w5, w5, #0x1
__mpa_full_adder():
/home/lagadanu/Desktop/qemu/optee_os/lib/libmpa/mpa_addsub.c:32
    7d74:	91000400 	add	x0, x0, #0x1
/home/lagadanu/Desktop/qemu/optee_os/lib/libmpa/mpa_addsub.c:34
    7d78:	d360fc08 	lsr	x8, x0, #32
/home/lagadanu/Desktop/qemu/optee_os/lib/libmpa/mpa_addsub.c:33
    7d7c:	b81fc080 	stur	w0, [x4,#-4]
    7d80:	17ffffea 	b	7d28 <__mpa_abs_add+0x5c>
__mpa_abs_add():
/home/lagadanu/Desktop/qemu/optee_os/lib/libmpa/mpa_addsub.c:139
    7d84:	540000ed 	b.le	7da0 <__mpa_abs_add+0xd4>
/home/lagadanu/Desktop/qemu/optee_os/lib/libmpa/mpa_addsub.c:141
    7d88:	4b050073 	sub	w19, w3, w5
    7d8c:	aa0403e0 	mov	x0, x4
    7d90:	531e7662 	lsl	w2, w19, #2
    7d94:	93407c42 	sxtw	x2, w2
    7d98:	97ffe560 	bl	1318 <memcpy>
/home/lagadanu/Desktop/qemu/optee_os/lib/libmpa/mpa_addsub.c:142
    7d9c:	8b33c804 	add	x4, x0, w19, sxtw #2
/home/lagadanu/Desktop/qemu/optee_os/lib/libmpa/mpa_addsub.c:128
    7da0:	aa0403e0 	mov	x0, x4
/home/lagadanu/Desktop/qemu/optee_os/lib/libmpa/mpa_addsub.c:147
    7da4:	cb140001 	sub	x1, x0, x20
    7da8:	9342fc20 	asr	x0, x1, #2
    7dac:	b90002a0 	str	w0, [x21]
/home/lagadanu/Desktop/qemu/optee_os/lib/libmpa/mpa_addsub.c:148
    7db0:	a94153f3 	ldp	x19, x20, [sp,#16]
    7db4:	f94013f5 	ldr	x21, [sp,#32]
    7db8:	a8c37bfd 	ldp	x29, x30, [sp],#48
    7dbc:	d65f03c0 	ret

0000000000007dc0 <__mpa_abs_add_ackum>:
__mpa_abs_add_ackum():
/home/lagadanu/Desktop/qemu/optee_os/lib/libmpa/mpa_addsub.c:157
    7dc0:	a9bb7bfd 	stp	x29, x30, [sp,#-80]!
    7dc4:	910003fd 	mov	x29, sp
    7dc8:	a90153f3 	stp	x19, x20, [sp,#16]
/home/lagadanu/Desktop/qemu/optee_os/lib/libmpa/mpa_addsub.c:168
    7dcc:	91002014 	add	x20, x0, #0x8
/home/lagadanu/Desktop/qemu/optee_os/lib/libmpa/mpa_addsub.c:157
    7dd0:	a9025bf5 	stp	x21, x22, [sp,#32]
    7dd4:	aa0003f3 	mov	x19, x0
    7dd8:	a90363f7 	stp	x23, x24, [sp,#48]
    7ddc:	aa0103f5 	mov	x21, x1
/home/lagadanu/Desktop/qemu/optee_os/lib/libmpa/mpa_addsub.c:165
    7de0:	b9400400 	ldr	w0, [x0,#4]
/home/lagadanu/Desktop/qemu/optee_os/lib/libmpa/mpa_addsub.c:171
    7de4:	91002038 	add	x24, x1, #0x8
/home/lagadanu/Desktop/qemu/optee_os/lib/libmpa/mpa_addsub.c:165
    7de8:	b9400421 	ldr	w1, [x1,#4]
/home/lagadanu/Desktop/qemu/optee_os/lib/libmpa/mpa_addsub.c:174
    7dec:	910143b7 	add	x23, x29, #0x50
/home/lagadanu/Desktop/qemu/optee_os/lib/libmpa/mpa_addsub.c:175
    7df0:	d2800016 	mov	x22, #0x0                   	// #0
/home/lagadanu/Desktop/qemu/optee_os/lib/libmpa/mpa_addsub.c:168
    7df4:	6b000022 	subs	w2, w1, w0
    7df8:	52800001 	mov	w1, #0x0                   	// #0
    7dfc:	1a9f5042 	csel	w2, w2, wzr, pl
    7e00:	8b20ca80 	add	x0, x20, w0, sxtw #2
    7e04:	11000442 	add	w2, w2, #0x1
    7e08:	531e7442 	lsl	w2, w2, #2
    7e0c:	93407c42 	sxtw	x2, w2
    7e10:	940009d5 	bl	a564 <memset>
/home/lagadanu/Desktop/qemu/optee_os/lib/libmpa/mpa_addsub.c:174
    7e14:	b81fceff 	str	wzr, [x23,#-4]!
/home/lagadanu/Desktop/qemu/optee_os/lib/libmpa/mpa_addsub.c:175
    7e18:	b94006a1 	ldr	w1, [x21,#4]
    7e1c:	8b160a80 	add	x0, x20, x22, lsl #2
    7e20:	6b16003f 	cmp	w1, w22
    7e24:	540001ec 	b.gt	7e60 <__mpa_abs_add_ackum+0xa0>
/home/lagadanu/Desktop/qemu/optee_os/lib/libmpa/mpa_addsub.c:186
    7e28:	910133b6 	add	x22, x29, #0x4c
/home/lagadanu/Desktop/qemu/optee_os/lib/libmpa/mpa_addsub.c:185
    7e2c:	b9404fa1 	ldr	w1, [x29,#76]
    7e30:	35000221 	cbnz	w1, 7e74 <__mpa_abs_add_ackum+0xb4>
/home/lagadanu/Desktop/qemu/optee_os/lib/libmpa/mpa_addsub.c:193
    7e34:	cb140000 	sub	x0, x0, x20
/home/lagadanu/Desktop/qemu/optee_os/lib/libmpa/mpa_addsub.c:194
    7e38:	b9400661 	ldr	w1, [x19,#4]
/home/lagadanu/Desktop/qemu/optee_os/lib/libmpa/mpa_addsub.c:193
    7e3c:	9342fc02 	asr	x2, x0, #2
/home/lagadanu/Desktop/qemu/optee_os/lib/libmpa/mpa_addsub.c:194
    7e40:	6b01005f 	cmp	w2, w1
    7e44:	5400004d 	b.le	7e4c <__mpa_abs_add_ackum+0x8c>
/home/lagadanu/Desktop/qemu/optee_os/lib/libmpa/mpa_addsub.c:195
    7e48:	b9000662 	str	w2, [x19,#4]
/home/lagadanu/Desktop/qemu/optee_os/lib/libmpa/mpa_addsub.c:196
    7e4c:	a94153f3 	ldp	x19, x20, [sp,#16]
    7e50:	a9425bf5 	ldp	x21, x22, [sp,#32]
    7e54:	a94363f7 	ldp	x23, x24, [sp,#48]
    7e58:	a8c57bfd 	ldp	x29, x30, [sp],#80
    7e5c:	d65f03c0 	ret
/home/lagadanu/Desktop/qemu/optee_os/lib/libmpa/mpa_addsub.c:176
    7e60:	b8767b01 	ldr	w1, [x24,x22,lsl #2]
    7e64:	aa1703e2 	mov	x2, x23
    7e68:	910006d6 	add	x22, x22, #0x1
    7e6c:	97ffff90 	bl	7cac <__mpa_full_adder_ackum>
    7e70:	17ffffea 	b	7e18 <__mpa_abs_add_ackum+0x58>
/home/lagadanu/Desktop/qemu/optee_os/lib/libmpa/mpa_addsub.c:186
    7e74:	91001015 	add	x21, x0, #0x4
    7e78:	aa1603e2 	mov	x2, x22
    7e7c:	52800001 	mov	w1, #0x0                   	// #0
    7e80:	97ffff8b 	bl	7cac <__mpa_full_adder_ackum>
    7e84:	aa1503e0 	mov	x0, x21
    7e88:	17ffffe9 	b	7e2c <__mpa_abs_add_ackum+0x6c>

0000000000007e8c <__mpa_abs_sub>:
__mpa_abs_sub():
/home/lagadanu/Desktop/qemu/optee_os/lib/libmpa/mpa_addsub.c:211
    7e8c:	a9ba7bfd 	stp	x29, x30, [sp,#-96]!
    7e90:	910003fd 	mov	x29, sp
    7e94:	a9046bf9 	stp	x25, x26, [sp,#64]
/home/lagadanu/Desktop/qemu/optee_os/lib/libmpa/mpa_addsub.c:215
    7e98:	910183b9 	add	x25, x29, #0x60
/home/lagadanu/Desktop/qemu/optee_os/lib/libmpa/mpa_addsub.c:211
    7e9c:	a90153f3 	stp	x19, x20, [sp,#16]
    7ea0:	aa0403fa 	mov	x26, x4
    7ea4:	a9025bf5 	stp	x21, x22, [sp,#32]
    7ea8:	2a0303f4 	mov	w20, w3
    7eac:	a90363f7 	stp	x23, x24, [sp,#48]
    7eb0:	aa0103f5 	mov	x21, x1
    7eb4:	aa0003f7 	mov	x23, x0
    7eb8:	aa0203f8 	mov	x24, x2
    7ebc:	2a0503f6 	mov	w22, w5
/home/lagadanu/Desktop/qemu/optee_os/lib/libmpa/mpa_addsub.c:215
    7ec0:	b81fcf3f 	str	wzr, [x25,#-4]!
/home/lagadanu/Desktop/qemu/optee_os/lib/libmpa/mpa_addsub.c:217
    7ec4:	d2800013 	mov	x19, #0x0                   	// #0
    7ec8:	8b130ae2 	add	x2, x23, x19, lsl #2
    7ecc:	6b1302df 	cmp	w22, w19
    7ed0:	5400028c 	b.gt	7f20 <__mpa_abs_sub+0x94>
    7ed4:	710002df 	cmp	w22, #0x0
    7ed8:	1a9fa2d3 	csel	w19, w22, wzr, ge
    7edc:	937e7e60 	sbfiz	x0, x19, #2, #32
    7ee0:	8b000316 	add	x22, x24, x0
    7ee4:	8b0002e4 	add	x4, x23, x0
/home/lagadanu/Desktop/qemu/optee_os/lib/libmpa/mpa_addsub.c:226
    7ee8:	910173b8 	add	x24, x29, #0x5c
/home/lagadanu/Desktop/qemu/optee_os/lib/libmpa/mpa_addsub.c:225
    7eec:	b9405fa0 	ldr	w0, [x29,#92]
    7ef0:	6b14027f 	cmp	w19, w20
    7ef4:	34000340 	cbz	w0, 7f5c <__mpa_abs_sub+0xd0>
/home/lagadanu/Desktop/qemu/optee_os/lib/libmpa/mpa_addsub.c:225 (discriminator 1)
    7ef8:	5400020b 	b.lt	7f38 <__mpa_abs_sub+0xac>
/home/lagadanu/Desktop/qemu/optee_os/lib/libmpa/mpa_addsub.c:240
    7efc:	7100029f 	cmp	w20, #0x0
    7f00:	5400040c 	b.gt	7f80 <__mpa_abs_sub+0xf4>
/home/lagadanu/Desktop/qemu/optee_os/lib/libmpa/mpa_addsub.c:242
    7f04:	b90002b4 	str	w20, [x21]
/home/lagadanu/Desktop/qemu/optee_os/lib/libmpa/mpa_addsub.c:243
    7f08:	a94363f7 	ldp	x23, x24, [sp,#48]
    7f0c:	a94153f3 	ldp	x19, x20, [sp,#16]
    7f10:	a9425bf5 	ldp	x21, x22, [sp,#32]
    7f14:	a9446bf9 	ldp	x25, x26, [sp,#64]
    7f18:	a8c67bfd 	ldp	x29, x30, [sp],#96
    7f1c:	d65f03c0 	ret
/home/lagadanu/Desktop/qemu/optee_os/lib/libmpa/mpa_addsub.c:218
    7f20:	b8737b41 	ldr	w1, [x26,x19,lsl #2]
    7f24:	aa1903e3 	mov	x3, x25
    7f28:	b8737b00 	ldr	w0, [x24,x19,lsl #2]
    7f2c:	91000673 	add	x19, x19, #0x1
    7f30:	97ffff56 	bl	7c88 <__mpa_full_sub>
    7f34:	17ffffe5 	b	7ec8 <__mpa_abs_sub+0x3c>
/home/lagadanu/Desktop/qemu/optee_os/lib/libmpa/mpa_addsub.c:226
    7f38:	b84046c0 	ldr	w0, [x22],#4
    7f3c:	91001097 	add	x23, x4, #0x4
    7f40:	aa0403e2 	mov	x2, x4
    7f44:	aa1803e3 	mov	x3, x24
    7f48:	52800001 	mov	w1, #0x0                   	// #0
/home/lagadanu/Desktop/qemu/optee_os/lib/libmpa/mpa_addsub.c:227
    7f4c:	11000673 	add	w19, w19, #0x1
/home/lagadanu/Desktop/qemu/optee_os/lib/libmpa/mpa_addsub.c:226
    7f50:	97ffff4e 	bl	7c88 <__mpa_full_sub>
    7f54:	aa1703e4 	mov	x4, x23
    7f58:	17ffffe5 	b	7eec <__mpa_abs_sub+0x60>
/home/lagadanu/Desktop/qemu/optee_os/lib/libmpa/mpa_addsub.c:230
    7f5c:	54fffd0a 	b.ge	7efc <__mpa_abs_sub+0x70>
/home/lagadanu/Desktop/qemu/optee_os/lib/libmpa/mpa_addsub.c:235
    7f60:	4b130293 	sub	w19, w20, w19
    7f64:	aa0403e0 	mov	x0, x4
    7f68:	531e7662 	lsl	w2, w19, #2
    7f6c:	aa1603e1 	mov	x1, x22
    7f70:	93407c42 	sxtw	x2, w2
    7f74:	97ffe4e9 	bl	1318 <memcpy>
/home/lagadanu/Desktop/qemu/optee_os/lib/libmpa/mpa_addsub.c:236
    7f78:	8b33c804 	add	x4, x0, w19, sxtw #2
/home/lagadanu/Desktop/qemu/optee_os/lib/libmpa/mpa_addsub.c:240
    7f7c:	17ffffe0 	b	7efc <__mpa_abs_sub+0x70>
/home/lagadanu/Desktop/qemu/optee_os/lib/libmpa/mpa_addsub.c:240 (discriminator 1)
    7f80:	b85fcc80 	ldr	w0, [x4,#-4]!
    7f84:	35fffc00 	cbnz	w0, 7f04 <__mpa_abs_sub+0x78>
/home/lagadanu/Desktop/qemu/optee_os/lib/libmpa/mpa_addsub.c:241
    7f88:	51000694 	sub	w20, w20, #0x1
    7f8c:	17ffffdc 	b	7efc <__mpa_abs_sub+0x70>

0000000000007f90 <mpa_add>:
mpa_add():
/home/lagadanu/Desktop/qemu/optee_os/lib/libmpa/mpa_addsub.c:259
    7f90:	a9b97bfd 	stp	x29, x30, [sp,#-112]!
    7f94:	910003fd 	mov	x29, sp
    7f98:	a90363f7 	stp	x23, x24, [sp,#48]
    7f9c:	aa0203f8 	mov	x24, x2
/home/lagadanu/Desktop/qemu/optee_os/lib/libmpa/mpa_addsub.c:267
    7fa0:	b9400422 	ldr	w2, [x1,#4]
/home/lagadanu/Desktop/qemu/optee_os/lib/libmpa/mpa_addsub.c:259
    7fa4:	aa0103f7 	mov	x23, x1
    7fa8:	a9025bf5 	stp	x21, x22, [sp,#32]
/home/lagadanu/Desktop/qemu/optee_os/lib/libmpa/mpa_addsub.c:268
    7fac:	b9400701 	ldr	w1, [x24,#4]
/home/lagadanu/Desktop/qemu/optee_os/lib/libmpa/mpa_addsub.c:267
    7fb0:	7100005f 	cmp	w2, #0x0
    7fb4:	5a82a456 	cneg	w22, w2, lt
/home/lagadanu/Desktop/qemu/optee_os/lib/libmpa/mpa_addsub.c:259
    7fb8:	a90153f3 	stp	x19, x20, [sp,#16]
/home/lagadanu/Desktop/qemu/optee_os/lib/libmpa/mpa_addsub.c:268
    7fbc:	7100003f 	cmp	w1, #0x0
/home/lagadanu/Desktop/qemu/optee_os/lib/libmpa/mpa_addsub.c:259
    7fc0:	a9046bf9 	stp	x25, x26, [sp,#64]
/home/lagadanu/Desktop/qemu/optee_os/lib/libmpa/mpa_addsub.c:268
    7fc4:	5a81a434 	cneg	w20, w1, lt
/home/lagadanu/Desktop/qemu/optee_os/lib/libmpa/mpa_addsub.c:259
    7fc8:	aa0003f9 	mov	x25, x0
/home/lagadanu/Desktop/qemu/optee_os/lib/libmpa/mpa_addsub.c:270
    7fcc:	12800000 	mov	w0, #0xffffffff            	// #-1
    7fd0:	6b00005f 	cmp	w2, w0
/home/lagadanu/Desktop/qemu/optee_os/lib/libmpa/mpa_addsub.c:259
    7fd4:	a90573fb 	stp	x27, x28, [sp,#80]
/home/lagadanu/Desktop/qemu/optee_os/lib/libmpa/mpa_addsub.c:270
    7fd8:	5a80d41c 	cneg	w28, w0, gt
/home/lagadanu/Desktop/qemu/optee_os/lib/libmpa/mpa_addsub.c:271
    7fdc:	6b00003f 	cmp	w1, w0
/home/lagadanu/Desktop/qemu/optee_os/lib/libmpa/mpa_addsub.c:259
    7fe0:	aa0303fa 	mov	x26, x3
/home/lagadanu/Desktop/qemu/optee_os/lib/libmpa/mpa_addsub.c:271
    7fe4:	5a80d413 	cneg	w19, w0, gt
/home/lagadanu/Desktop/qemu/optee_os/lib/libmpa/mpa_addsub.c:274
    7fe8:	eb1902ff 	cmp	x23, x25
    7fec:	1a9f17fb 	cset	w27, eq
    7ff0:	eb19031f 	cmp	x24, x25
    7ff4:	1a9f17e0 	cset	w0, eq
    7ff8:	2a00037b 	orr	w27, w27, w0
/home/lagadanu/Desktop/qemu/optee_os/lib/libmpa/mpa_addsub.c:275
    7ffc:	3400049b 	cbz	w27, 808c <mpa_add+0xfc>
/home/lagadanu/Desktop/qemu/optee_os/lib/libmpa/mpa_addsub.c:276
    8000:	aa0303e1 	mov	x1, x3
    8004:	9101a3a0 	add	x0, x29, #0x68
    8008:	97fffce3 	bl	7394 <mpa_alloc_static_temp_var>
/home/lagadanu/Desktop/qemu/optee_os/lib/libmpa/mpa_addsub.c:284
    800c:	6b13039f 	cmp	w28, w19
    8010:	910022f5 	add	x21, x23, #0x8
    8014:	91002313 	add	x19, x24, #0x8
    8018:	540003e1 	b.ne	8094 <mpa_add+0x104>
/home/lagadanu/Desktop/qemu/optee_os/lib/libmpa/mpa_addsub.c:286
    801c:	f94037a0 	ldr	x0, [x29,#104]
    8020:	2a1403e5 	mov	w5, w20
    8024:	aa1303e4 	mov	x4, x19
    8028:	2a1603e3 	mov	w3, w22
    802c:	91001001 	add	x1, x0, #0x4
    8030:	aa1503e2 	mov	x2, x21
    8034:	91002000 	add	x0, x0, #0x8
    8038:	97ffff25 	bl	7ccc <__mpa_abs_add>
/home/lagadanu/Desktop/qemu/optee_os/lib/libmpa/mpa_addsub.c:289
    803c:	3100079f 	cmn	w28, #0x1
    8040:	540000a1 	b.ne	8054 <mpa_add+0xc4>
/home/lagadanu/Desktop/qemu/optee_os/lib/libmpa/mpa_addsub.c:305
    8044:	f94037a1 	ldr	x1, [x29,#104]
    8048:	b9400420 	ldr	w0, [x1,#4]
    804c:	4b0003e0 	neg	w0, w0
    8050:	b9000420 	str	w0, [x1,#4]
/home/lagadanu/Desktop/qemu/optee_os/lib/libmpa/mpa_addsub.c:324
    8054:	f94037a1 	ldr	x1, [x29,#104]
    8058:	aa1903e0 	mov	x0, x25
    805c:	97fff5ef 	bl	5818 <mpa_copy>
/home/lagadanu/Desktop/qemu/optee_os/lib/libmpa/mpa_addsub.c:325
    8060:	3400009b 	cbz	w27, 8070 <mpa_add+0xe0>
/home/lagadanu/Desktop/qemu/optee_os/lib/libmpa/mpa_addsub.c:326
    8064:	aa1a03e1 	mov	x1, x26
    8068:	9101a3a0 	add	x0, x29, #0x68
    806c:	97fffcce 	bl	73a4 <mpa_free_static_temp_var>
/home/lagadanu/Desktop/qemu/optee_os/lib/libmpa/mpa_addsub.c:327
    8070:	a94153f3 	ldp	x19, x20, [sp,#16]
    8074:	a9425bf5 	ldp	x21, x22, [sp,#32]
    8078:	a94363f7 	ldp	x23, x24, [sp,#48]
    807c:	a9446bf9 	ldp	x25, x26, [sp,#64]
    8080:	a94573fb 	ldp	x27, x28, [sp,#80]
    8084:	a8c77bfd 	ldp	x29, x30, [sp],#112
    8088:	d65f03c0 	ret
/home/lagadanu/Desktop/qemu/optee_os/lib/libmpa/mpa_addsub.c:278
    808c:	f90037b9 	str	x25, [x29,#104]
    8090:	17ffffdf 	b	800c <mpa_add+0x7c>
/home/lagadanu/Desktop/qemu/optee_os/lib/libmpa/mpa_addsub.c:294
    8094:	aa1803e1 	mov	x1, x24
    8098:	aa1703e0 	mov	x0, x23
/home/lagadanu/Desktop/qemu/optee_os/lib/libmpa/mpa_addsub.c:293
    809c:	7100079f 	cmp	w28, #0x1
    80a0:	54000281 	b.ne	80f0 <mpa_add+0x160>
/home/lagadanu/Desktop/qemu/optee_os/lib/libmpa/mpa_addsub.c:294
    80a4:	9400015b 	bl	8610 <__mpa_abs_greater_than>
    80a8:	f94037a6 	ldr	x6, [x29,#104]
    80ac:	34000120 	cbz	w0, 80d0 <mpa_add+0x140>
/home/lagadanu/Desktop/qemu/optee_os/lib/libmpa/mpa_addsub.c:298
    80b0:	2a1403e5 	mov	w5, w20
    80b4:	aa1303e4 	mov	x4, x19
    80b8:	2a1603e3 	mov	w3, w22
    80bc:	aa1503e2 	mov	x2, x21
/home/lagadanu/Desktop/qemu/optee_os/lib/libmpa/mpa_addsub.c:318
    80c0:	910010c1 	add	x1, x6, #0x4
    80c4:	910020c0 	add	x0, x6, #0x8
    80c8:	97ffff71 	bl	7e8c <__mpa_abs_sub>
    80cc:	17ffffe2 	b	8054 <mpa_add+0xc4>
/home/lagadanu/Desktop/qemu/optee_os/lib/libmpa/mpa_addsub.c:303
    80d0:	2a1603e5 	mov	w5, w22
    80d4:	aa1503e4 	mov	x4, x21
    80d8:	2a1403e3 	mov	w3, w20
    80dc:	aa1303e2 	mov	x2, x19
    80e0:	910010c1 	add	x1, x6, #0x4
    80e4:	910020c0 	add	x0, x6, #0x8
    80e8:	97ffff69 	bl	7e8c <__mpa_abs_sub>
    80ec:	17ffffd6 	b	8044 <mpa_add+0xb4>
/home/lagadanu/Desktop/qemu/optee_os/lib/libmpa/mpa_addsub.c:309
    80f0:	94000148 	bl	8610 <__mpa_abs_greater_than>
    80f4:	f94037a6 	ldr	x6, [x29,#104]
    80f8:	340000c0 	cbz	w0, 8110 <mpa_add+0x180>
/home/lagadanu/Desktop/qemu/optee_os/lib/libmpa/mpa_addsub.c:313
    80fc:	2a1403e5 	mov	w5, w20
    8100:	aa1303e4 	mov	x4, x19
    8104:	2a1603e3 	mov	w3, w22
    8108:	aa1503e2 	mov	x2, x21
    810c:	17fffff5 	b	80e0 <mpa_add+0x150>
/home/lagadanu/Desktop/qemu/optee_os/lib/libmpa/mpa_addsub.c:318
    8110:	2a1603e5 	mov	w5, w22
    8114:	aa1503e4 	mov	x4, x21
    8118:	2a1403e3 	mov	w3, w20
    811c:	aa1303e2 	mov	x2, x19
    8120:	17ffffe8 	b	80c0 <mpa_add+0x130>

0000000000008124 <mpa_sub>:
mpa_sub():
/home/lagadanu/Desktop/qemu/optee_os/lib/libmpa/mpa_addsub.c:337
    8124:	a9b97bfd 	stp	x29, x30, [sp,#-112]!
    8128:	910003fd 	mov	x29, sp
    812c:	a90363f7 	stp	x23, x24, [sp,#48]
    8130:	aa0203f8 	mov	x24, x2
/home/lagadanu/Desktop/qemu/optee_os/lib/libmpa/mpa_addsub.c:345
    8134:	b9400422 	ldr	w2, [x1,#4]
/home/lagadanu/Desktop/qemu/optee_os/lib/libmpa/mpa_addsub.c:337
    8138:	aa0103f7 	mov	x23, x1
    813c:	a90153f3 	stp	x19, x20, [sp,#16]
/home/lagadanu/Desktop/qemu/optee_os/lib/libmpa/mpa_addsub.c:346
    8140:	b9400701 	ldr	w1, [x24,#4]
/home/lagadanu/Desktop/qemu/optee_os/lib/libmpa/mpa_addsub.c:345
    8144:	7100005f 	cmp	w2, #0x0
    8148:	5a82a454 	cneg	w20, w2, lt
/home/lagadanu/Desktop/qemu/optee_os/lib/libmpa/mpa_addsub.c:337
    814c:	a9046bf9 	stp	x25, x26, [sp,#64]
/home/lagadanu/Desktop/qemu/optee_os/lib/libmpa/mpa_addsub.c:346
    8150:	7100003f 	cmp	w1, #0x0
/home/lagadanu/Desktop/qemu/optee_os/lib/libmpa/mpa_addsub.c:337
    8154:	aa0003f9 	mov	x25, x0
    8158:	a9025bf5 	stp	x21, x22, [sp,#32]
/home/lagadanu/Desktop/qemu/optee_os/lib/libmpa/mpa_addsub.c:348
    815c:	12800000 	mov	w0, #0xffffffff            	// #-1
/home/lagadanu/Desktop/qemu/optee_os/lib/libmpa/mpa_addsub.c:346
    8160:	5a81a436 	cneg	w22, w1, lt
/home/lagadanu/Desktop/qemu/optee_os/lib/libmpa/mpa_addsub.c:348
    8164:	6b00005f 	cmp	w2, w0
/home/lagadanu/Desktop/qemu/optee_os/lib/libmpa/mpa_addsub.c:337
    8168:	a90573fb 	stp	x27, x28, [sp,#80]
/home/lagadanu/Desktop/qemu/optee_os/lib/libmpa/mpa_addsub.c:348
    816c:	5a80d41c 	cneg	w28, w0, gt
/home/lagadanu/Desktop/qemu/optee_os/lib/libmpa/mpa_addsub.c:349
    8170:	6b00003f 	cmp	w1, w0
/home/lagadanu/Desktop/qemu/optee_os/lib/libmpa/mpa_addsub.c:337
    8174:	aa0303fa 	mov	x26, x3
/home/lagadanu/Desktop/qemu/optee_os/lib/libmpa/mpa_addsub.c:349
    8178:	5a80d413 	cneg	w19, w0, gt
/home/lagadanu/Desktop/qemu/optee_os/lib/libmpa/mpa_addsub.c:352
    817c:	eb1902ff 	cmp	x23, x25
    8180:	1a9f17fb 	cset	w27, eq
    8184:	eb19031f 	cmp	x24, x25
    8188:	1a9f17e0 	cset	w0, eq
    818c:	2a00037b 	orr	w27, w27, w0
/home/lagadanu/Desktop/qemu/optee_os/lib/libmpa/mpa_addsub.c:353
    8190:	3400049b 	cbz	w27, 8220 <mpa_sub+0xfc>
/home/lagadanu/Desktop/qemu/optee_os/lib/libmpa/mpa_addsub.c:354
    8194:	aa0303e1 	mov	x1, x3
    8198:	9101a3a0 	add	x0, x29, #0x68
    819c:	97fffc7e 	bl	7394 <mpa_alloc_static_temp_var>
/home/lagadanu/Desktop/qemu/optee_os/lib/libmpa/mpa_addsub.c:362
    81a0:	6b13039f 	cmp	w28, w19
    81a4:	91002315 	add	x21, x24, #0x8
    81a8:	910022f3 	add	x19, x23, #0x8
    81ac:	54000701 	b.ne	828c <mpa_sub+0x168>
/home/lagadanu/Desktop/qemu/optee_os/lib/libmpa/mpa_addsub.c:364
    81b0:	aa1803e1 	mov	x1, x24
    81b4:	aa1703e0 	mov	x0, x23
/home/lagadanu/Desktop/qemu/optee_os/lib/libmpa/mpa_addsub.c:363
    81b8:	7100079f 	cmp	w28, #0x1
    81bc:	540004e1 	b.ne	8258 <mpa_sub+0x134>
/home/lagadanu/Desktop/qemu/optee_os/lib/libmpa/mpa_addsub.c:364
    81c0:	94000114 	bl	8610 <__mpa_abs_greater_than>
    81c4:	f94037a6 	ldr	x6, [x29,#104]
    81c8:	34000300 	cbz	w0, 8228 <mpa_sub+0x104>
/home/lagadanu/Desktop/qemu/optee_os/lib/libmpa/mpa_addsub.c:367
    81cc:	2a1603e5 	mov	w5, w22
    81d0:	aa1503e4 	mov	x4, x21
    81d4:	2a1403e3 	mov	w3, w20
    81d8:	aa1303e2 	mov	x2, x19
/home/lagadanu/Desktop/qemu/optee_os/lib/libmpa/mpa_addsub.c:387
    81dc:	910010c1 	add	x1, x6, #0x4
    81e0:	910020c0 	add	x0, x6, #0x8
    81e4:	97ffff2a 	bl	7e8c <__mpa_abs_sub>
/home/lagadanu/Desktop/qemu/optee_os/lib/libmpa/mpa_addsub.c:404
    81e8:	f94037a1 	ldr	x1, [x29,#104]
    81ec:	aa1903e0 	mov	x0, x25
    81f0:	97fff58a 	bl	5818 <mpa_copy>
/home/lagadanu/Desktop/qemu/optee_os/lib/libmpa/mpa_addsub.c:405
    81f4:	3400009b 	cbz	w27, 8204 <mpa_sub+0xe0>
/home/lagadanu/Desktop/qemu/optee_os/lib/libmpa/mpa_addsub.c:406
    81f8:	aa1a03e1 	mov	x1, x26
    81fc:	9101a3a0 	add	x0, x29, #0x68
    8200:	97fffc69 	bl	73a4 <mpa_free_static_temp_var>
/home/lagadanu/Desktop/qemu/optee_os/lib/libmpa/mpa_addsub.c:407
    8204:	a94153f3 	ldp	x19, x20, [sp,#16]
    8208:	a9425bf5 	ldp	x21, x22, [sp,#32]
    820c:	a94363f7 	ldp	x23, x24, [sp,#48]
    8210:	a9446bf9 	ldp	x25, x26, [sp,#64]
    8214:	a94573fb 	ldp	x27, x28, [sp,#80]
    8218:	a8c77bfd 	ldp	x29, x30, [sp],#112
    821c:	d65f03c0 	ret
/home/lagadanu/Desktop/qemu/optee_os/lib/libmpa/mpa_addsub.c:356
    8220:	f90037b9 	str	x25, [x29,#104]
    8224:	17ffffdf 	b	81a0 <mpa_sub+0x7c>
/home/lagadanu/Desktop/qemu/optee_os/lib/libmpa/mpa_addsub.c:371
    8228:	2a1403e5 	mov	w5, w20
    822c:	aa1303e4 	mov	x4, x19
    8230:	2a1603e3 	mov	w3, w22
    8234:	aa1503e2 	mov	x2, x21
/home/lagadanu/Desktop/qemu/optee_os/lib/libmpa/mpa_addsub.c:382
    8238:	910010c1 	add	x1, x6, #0x4
    823c:	910020c0 	add	x0, x6, #0x8
    8240:	97ffff13 	bl	7e8c <__mpa_abs_sub>
/home/lagadanu/Desktop/qemu/optee_os/lib/libmpa/mpa_addsub.c:400
    8244:	f94037a1 	ldr	x1, [x29,#104]
    8248:	b9400420 	ldr	w0, [x1,#4]
    824c:	4b0003e0 	neg	w0, w0
    8250:	b9000420 	str	w0, [x1,#4]
    8254:	17ffffe5 	b	81e8 <mpa_sub+0xc4>
/home/lagadanu/Desktop/qemu/optee_os/lib/libmpa/mpa_addsub.c:378
    8258:	940000ee 	bl	8610 <__mpa_abs_greater_than>
    825c:	f94037a6 	ldr	x6, [x29,#104]
    8260:	340000c0 	cbz	w0, 8278 <mpa_sub+0x154>
/home/lagadanu/Desktop/qemu/optee_os/lib/libmpa/mpa_addsub.c:382
    8264:	2a1603e5 	mov	w5, w22
    8268:	aa1503e4 	mov	x4, x21
    826c:	2a1403e3 	mov	w3, w20
    8270:	aa1303e2 	mov	x2, x19
    8274:	17fffff1 	b	8238 <mpa_sub+0x114>
/home/lagadanu/Desktop/qemu/optee_os/lib/libmpa/mpa_addsub.c:387
    8278:	2a1403e5 	mov	w5, w20
    827c:	aa1303e4 	mov	x4, x19
    8280:	2a1603e3 	mov	w3, w22
    8284:	aa1503e2 	mov	x2, x21
    8288:	17ffffd5 	b	81dc <mpa_sub+0xb8>
    828c:	f94037a0 	ldr	x0, [x29,#104]
/home/lagadanu/Desktop/qemu/optee_os/lib/libmpa/mpa_addsub.c:394
    8290:	2a1603e5 	mov	w5, w22
    8294:	aa1503e4 	mov	x4, x21
    8298:	2a1403e3 	mov	w3, w20
    829c:	91001001 	add	x1, x0, #0x4
    82a0:	aa1303e2 	mov	x2, x19
/home/lagadanu/Desktop/qemu/optee_os/lib/libmpa/mpa_addsub.c:392
    82a4:	7100079f 	cmp	w28, #0x1
/home/lagadanu/Desktop/qemu/optee_os/lib/libmpa/mpa_addsub.c:394
    82a8:	91002000 	add	x0, x0, #0x8
/home/lagadanu/Desktop/qemu/optee_os/lib/libmpa/mpa_addsub.c:392
    82ac:	54000061 	b.ne	82b8 <mpa_sub+0x194>
/home/lagadanu/Desktop/qemu/optee_os/lib/libmpa/mpa_addsub.c:394
    82b0:	97fffe87 	bl	7ccc <__mpa_abs_add>
    82b4:	17ffffcd 	b	81e8 <mpa_sub+0xc4>
/home/lagadanu/Desktop/qemu/optee_os/lib/libmpa/mpa_addsub.c:398
    82b8:	97fffe85 	bl	7ccc <__mpa_abs_add>
    82bc:	17ffffe2 	b	8244 <mpa_sub+0x120>

00000000000082c0 <mpa_neg>:
mpa_neg():
/home/lagadanu/Desktop/qemu/optee_os/lib/libmpa/mpa_addsub.c:416
    82c0:	a9be7bfd 	stp	x29, x30, [sp,#-32]!
    82c4:	910003fd 	mov	x29, sp
    82c8:	f9000bf3 	str	x19, [sp,#16]
    82cc:	aa0003f3 	mov	x19, x0
/home/lagadanu/Desktop/qemu/optee_os/lib/libmpa/mpa_addsub.c:417
    82d0:	97fff552 	bl	5818 <mpa_copy>
/home/lagadanu/Desktop/qemu/optee_os/lib/libmpa/mpa_addsub.c:418
    82d4:	b9400660 	ldr	w0, [x19,#4]
    82d8:	4b0003e0 	neg	w0, w0
    82dc:	b9000660 	str	w0, [x19,#4]
/home/lagadanu/Desktop/qemu/optee_os/lib/libmpa/mpa_addsub.c:419
    82e0:	f9400bf3 	ldr	x19, [sp,#16]
    82e4:	a8c27bfd 	ldp	x29, x30, [sp],#32
    82e8:	d65f03c0 	ret

00000000000082ec <mpa_add_word>:
mpa_add_word():
/home/lagadanu/Desktop/qemu/optee_os/lib/libmpa/mpa_addsub.c:428
    82ec:	a9ba7bfd 	stp	x29, x30, [sp,#-96]!
    82f0:	910003fd 	mov	x29, sp
    82f4:	a90153f3 	stp	x19, x20, [sp,#16]
    82f8:	a9025bf5 	stp	x21, x22, [sp,#32]
    82fc:	b9004fa2 	str	w2, [x29,#76]
    8300:	f9001bf7 	str	x23, [sp,#48]
/home/lagadanu/Desktop/qemu/optee_os/lib/libmpa/mpa_addsub.c:434
    8304:	350000e2 	cbnz	w2, 8320 <mpa_add_word+0x34>
/home/lagadanu/Desktop/qemu/optee_os/lib/libmpa/mpa_addsub.c:435
    8308:	97fff544 	bl	5818 <mpa_copy>
/home/lagadanu/Desktop/qemu/optee_os/lib/libmpa/mpa_addsub.c:478
    830c:	a94153f3 	ldp	x19, x20, [sp,#16]
    8310:	a9425bf5 	ldp	x21, x22, [sp,#32]
    8314:	f9401bf7 	ldr	x23, [sp,#48]
    8318:	a8c67bfd 	ldp	x29, x30, [sp],#96
    831c:	d65f03c0 	ret
    8320:	aa0303f6 	mov	x22, x3
/home/lagadanu/Desktop/qemu/optee_os/lib/libmpa/mpa_addsub.c:439
    8324:	b9400423 	ldr	w3, [x1,#4]
    8328:	aa0003f5 	mov	x21, x0
    832c:	aa0103f4 	mov	x20, x1
    8330:	35000083 	cbnz	w3, 8340 <mpa_add_word+0x54>
/home/lagadanu/Desktop/qemu/optee_os/lib/libmpa/mpa_addsub.c:440
    8334:	52800020 	mov	w0, #0x1                   	// #1
/home/lagadanu/Desktop/qemu/optee_os/lib/libmpa/mpa_addsub.c:441
    8338:	29008aa0 	stp	w0, w2, [x21,#4]
/home/lagadanu/Desktop/qemu/optee_os/lib/libmpa/mpa_addsub.c:442
    833c:	17fffff4 	b	830c <mpa_add_word+0x20>
/home/lagadanu/Desktop/qemu/optee_os/lib/libmpa/mpa_addsub.c:445
    8340:	12800017 	mov	w23, #0xffffffff            	// #-1
    8344:	6b17007f 	cmp	w3, w23
    8348:	5a97d6f7 	cneg	w23, w23, gt
/home/lagadanu/Desktop/qemu/optee_os/lib/libmpa/mpa_addsub.c:446
    834c:	7100007f 	cmp	w3, #0x0
    8350:	5a83a473 	cneg	w19, w3, lt
/home/lagadanu/Desktop/qemu/optee_os/lib/libmpa/mpa_addsub.c:450
    8354:	eb00003f 	cmp	x1, x0
    8358:	540002e1 	b.ne	83b4 <mpa_add_word+0xc8>
/home/lagadanu/Desktop/qemu/optee_os/lib/libmpa/mpa_addsub.c:451
    835c:	aa1603e1 	mov	x1, x22
    8360:	910163a0 	add	x0, x29, #0x58
    8364:	97fffc0c 	bl	7394 <mpa_alloc_static_temp_var>
/home/lagadanu/Desktop/qemu/optee_os/lib/libmpa/mpa_addsub.c:456
    8368:	710006ff 	cmp	w23, #0x1
    836c:	f9402fa0 	ldr	x0, [x29,#88]
    8370:	54000261 	b.ne	83bc <mpa_add_word+0xd0>
/home/lagadanu/Desktop/qemu/optee_os/lib/libmpa/mpa_addsub.c:458
    8374:	91001001 	add	x1, x0, #0x4
    8378:	2a1703e5 	mov	w5, w23
    837c:	910133a4 	add	x4, x29, #0x4c
    8380:	2a1303e3 	mov	w3, w19
    8384:	91002282 	add	x2, x20, #0x8
    8388:	91002000 	add	x0, x0, #0x8
    838c:	97fffe50 	bl	7ccc <__mpa_abs_add>
/home/lagadanu/Desktop/qemu/optee_os/lib/libmpa/mpa_addsub.c:475
    8390:	f9402fa1 	ldr	x1, [x29,#88]
    8394:	aa1503e0 	mov	x0, x21
    8398:	97fff520 	bl	5818 <mpa_copy>
/home/lagadanu/Desktop/qemu/optee_os/lib/libmpa/mpa_addsub.c:476
    839c:	eb15029f 	cmp	x20, x21
    83a0:	54fffb61 	b.ne	830c <mpa_add_word+0x20>
/home/lagadanu/Desktop/qemu/optee_os/lib/libmpa/mpa_addsub.c:477
    83a4:	aa1603e1 	mov	x1, x22
    83a8:	910163a0 	add	x0, x29, #0x58
    83ac:	97fffbfe 	bl	73a4 <mpa_free_static_temp_var>
    83b0:	17ffffd7 	b	830c <mpa_add_word+0x20>
/home/lagadanu/Desktop/qemu/optee_os/lib/libmpa/mpa_addsub.c:453
    83b4:	f9002fa0 	str	x0, [x29,#88]
    83b8:	17ffffec 	b	8368 <mpa_add_word+0x7c>
/home/lagadanu/Desktop/qemu/optee_os/lib/libmpa/mpa_addsub.c:461
    83bc:	b9400681 	ldr	w1, [x20,#4]
    83c0:	7100003f 	cmp	w1, #0x0
    83c4:	5a81a421 	cneg	w1, w1, lt
    83c8:	7100043f 	cmp	w1, #0x1
    83cc:	540000ac 	b.gt	83e0 <mpa_add_word+0xf4>
/home/lagadanu/Desktop/qemu/optee_os/lib/libmpa/mpa_addsub.c:461 (discriminator 1)
    83d0:	b9400a82 	ldr	w2, [x20,#8]
    83d4:	b9404fa1 	ldr	w1, [x29,#76]
    83d8:	6b01005f 	cmp	w2, w1
    83dc:	540001a9 	b.ls	8410 <mpa_add_word+0x124>
/home/lagadanu/Desktop/qemu/optee_os/lib/libmpa/mpa_addsub.c:465
    83e0:	91001001 	add	x1, x0, #0x4
    83e4:	52800025 	mov	w5, #0x1                   	// #1
    83e8:	91002000 	add	x0, x0, #0x8
    83ec:	910133a4 	add	x4, x29, #0x4c
    83f0:	2a1303e3 	mov	w3, w19
    83f4:	91002282 	add	x2, x20, #0x8
    83f8:	97fffea5 	bl	7e8c <__mpa_abs_sub>
/home/lagadanu/Desktop/qemu/optee_os/lib/libmpa/mpa_addsub.c:467
    83fc:	f9402fa1 	ldr	x1, [x29,#88]
    8400:	b9400420 	ldr	w0, [x1,#4]
    8404:	4b0003e0 	neg	w0, w0
    8408:	b9000420 	str	w0, [x1,#4]
    840c:	17ffffe1 	b	8390 <mpa_add_word+0xa4>
/home/lagadanu/Desktop/qemu/optee_os/lib/libmpa/mpa_addsub.c:470
    8410:	4b020021 	sub	w1, w1, w2
    8414:	b9000801 	str	w1, [x0,#8]
/home/lagadanu/Desktop/qemu/optee_os/lib/libmpa/mpa_addsub.c:471
    8418:	7100003f 	cmp	w1, #0x0
    841c:	1a9f07e1 	cset	w1, ne
    8420:	b9000401 	str	w1, [x0,#4]
    8424:	17ffffdb 	b	8390 <mpa_add_word+0xa4>

0000000000008428 <mpa_sub_word>:
mpa_sub_word():
/home/lagadanu/Desktop/qemu/optee_os/lib/libmpa/mpa_addsub.c:487
    8428:	a9ba7bfd 	stp	x29, x30, [sp,#-96]!
    842c:	910003fd 	mov	x29, sp
    8430:	a90153f3 	stp	x19, x20, [sp,#16]
    8434:	a9025bf5 	stp	x21, x22, [sp,#32]
    8438:	b9004fa2 	str	w2, [x29,#76]
    843c:	f9001bf7 	str	x23, [sp,#48]
/home/lagadanu/Desktop/qemu/optee_os/lib/libmpa/mpa_addsub.c:493
    8440:	350000e2 	cbnz	w2, 845c <mpa_sub_word+0x34>
/home/lagadanu/Desktop/qemu/optee_os/lib/libmpa/mpa_addsub.c:494
    8444:	97fff4f5 	bl	5818 <mpa_copy>
/home/lagadanu/Desktop/qemu/optee_os/lib/libmpa/mpa_addsub.c:539
    8448:	a94153f3 	ldp	x19, x20, [sp,#16]
    844c:	a9425bf5 	ldp	x21, x22, [sp,#32]
    8450:	f9401bf7 	ldr	x23, [sp,#48]
    8454:	a8c67bfd 	ldp	x29, x30, [sp],#96
    8458:	d65f03c0 	ret
    845c:	aa0303f6 	mov	x22, x3
/home/lagadanu/Desktop/qemu/optee_os/lib/libmpa/mpa_addsub.c:498
    8460:	b9400423 	ldr	w3, [x1,#4]
    8464:	aa0003f5 	mov	x21, x0
    8468:	aa0103f4 	mov	x20, x1
/home/lagadanu/Desktop/qemu/optee_os/lib/libmpa/mpa_addsub.c:499
    846c:	12800000 	mov	w0, #0xffffffff            	// #-1
/home/lagadanu/Desktop/qemu/optee_os/lib/libmpa/mpa_addsub.c:498
    8470:	35000063 	cbnz	w3, 847c <mpa_sub_word+0x54>
/home/lagadanu/Desktop/qemu/optee_os/lib/libmpa/mpa_addsub.c:500
    8474:	29008aa0 	stp	w0, w2, [x21,#4]
/home/lagadanu/Desktop/qemu/optee_os/lib/libmpa/mpa_addsub.c:501
    8478:	17fffff4 	b	8448 <mpa_sub_word+0x20>
/home/lagadanu/Desktop/qemu/optee_os/lib/libmpa/mpa_addsub.c:504
    847c:	6b00007f 	cmp	w3, w0
    8480:	5a80d417 	cneg	w23, w0, gt
/home/lagadanu/Desktop/qemu/optee_os/lib/libmpa/mpa_addsub.c:505
    8484:	7100007f 	cmp	w3, #0x0
    8488:	5a83a473 	cneg	w19, w3, lt
/home/lagadanu/Desktop/qemu/optee_os/lib/libmpa/mpa_addsub.c:509
    848c:	eb15003f 	cmp	x1, x21
    8490:	54000401 	b.ne	8510 <mpa_sub_word+0xe8>
/home/lagadanu/Desktop/qemu/optee_os/lib/libmpa/mpa_addsub.c:510
    8494:	aa1603e1 	mov	x1, x22
    8498:	910163a0 	add	x0, x29, #0x58
    849c:	97fffbbe 	bl	7394 <mpa_alloc_static_temp_var>
/home/lagadanu/Desktop/qemu/optee_os/lib/libmpa/mpa_addsub.c:522
    84a0:	710006ff 	cmp	w23, #0x1
    84a4:	f9402fa0 	ldr	x0, [x29,#88]
    84a8:	54000441 	b.ne	8530 <mpa_sub_word+0x108>
/home/lagadanu/Desktop/qemu/optee_os/lib/libmpa/mpa_addsub.c:523
    84ac:	b9400681 	ldr	w1, [x20,#4]
    84b0:	7100003f 	cmp	w1, #0x0
    84b4:	5a81a421 	cneg	w1, w1, lt
    84b8:	7100043f 	cmp	w1, #0x1
    84bc:	540000ac 	b.gt	84d0 <mpa_sub_word+0xa8>
/home/lagadanu/Desktop/qemu/optee_os/lib/libmpa/mpa_addsub.c:523 (discriminator 1)
    84c0:	b9400a82 	ldr	w2, [x20,#8]
    84c4:	b9404fa1 	ldr	w1, [x29,#76]
    84c8:	6b01005f 	cmp	w2, w1
    84cc:	54000269 	b.ls	8518 <mpa_sub_word+0xf0>
/home/lagadanu/Desktop/qemu/optee_os/lib/libmpa/mpa_addsub.c:524
    84d0:	91001001 	add	x1, x0, #0x4
    84d4:	52800025 	mov	w5, #0x1                   	// #1
    84d8:	910133a4 	add	x4, x29, #0x4c
    84dc:	2a1303e3 	mov	w3, w19
    84e0:	91002282 	add	x2, x20, #0x8
    84e4:	91002000 	add	x0, x0, #0x8
    84e8:	97fffe69 	bl	7e8c <__mpa_abs_sub>
/home/lagadanu/Desktop/qemu/optee_os/lib/libmpa/mpa_addsub.c:536
    84ec:	f9402fa1 	ldr	x1, [x29,#88]
    84f0:	aa1503e0 	mov	x0, x21
    84f4:	97fff4c9 	bl	5818 <mpa_copy>
/home/lagadanu/Desktop/qemu/optee_os/lib/libmpa/mpa_addsub.c:537
    84f8:	eb15029f 	cmp	x20, x21
    84fc:	54fffa61 	b.ne	8448 <mpa_sub_word+0x20>
/home/lagadanu/Desktop/qemu/optee_os/lib/libmpa/mpa_addsub.c:538
    8500:	aa1603e1 	mov	x1, x22
    8504:	910163a0 	add	x0, x29, #0x58
    8508:	97fffba7 	bl	73a4 <mpa_free_static_temp_var>
    850c:	17ffffcf 	b	8448 <mpa_sub_word+0x20>
/home/lagadanu/Desktop/qemu/optee_os/lib/libmpa/mpa_addsub.c:512
    8510:	f9002fb5 	str	x21, [x29,#88]
    8514:	17ffffe3 	b	84a0 <mpa_sub_word+0x78>
/home/lagadanu/Desktop/qemu/optee_os/lib/libmpa/mpa_addsub.c:527
    8518:	4b020021 	sub	w1, w1, w2
    851c:	b9000801 	str	w1, [x0,#8]
/home/lagadanu/Desktop/qemu/optee_os/lib/libmpa/mpa_addsub.c:528
    8520:	7100003f 	cmp	w1, #0x0
    8524:	5a9f03e1 	csetm	w1, ne
    8528:	b9000401 	str	w1, [x0,#4]
    852c:	17fffff0 	b	84ec <mpa_sub_word+0xc4>
/home/lagadanu/Desktop/qemu/optee_os/lib/libmpa/mpa_addsub.c:531
    8530:	91001001 	add	x1, x0, #0x4
    8534:	52800025 	mov	w5, #0x1                   	// #1
    8538:	91002000 	add	x0, x0, #0x8
    853c:	910133a4 	add	x4, x29, #0x4c
    8540:	2a1303e3 	mov	w3, w19
    8544:	91002282 	add	x2, x20, #0x8
    8548:	97fffde1 	bl	7ccc <__mpa_abs_add>
/home/lagadanu/Desktop/qemu/optee_os/lib/libmpa/mpa_addsub.c:533
    854c:	f9402fa1 	ldr	x1, [x29,#88]
    8550:	b9400420 	ldr	w0, [x1,#4]
    8554:	4b0003e0 	neg	w0, w0
    8558:	b9000420 	str	w0, [x1,#4]
    855c:	17ffffe4 	b	84ec <mpa_sub_word+0xc4>

0000000000008560 <__mpa_abs_cmp>:
__mpa_abs_cmp():
/home/lagadanu/Desktop/qemu/optee_os/lib/libmpa/mpa_cmp.c:21
    8560:	aa0003e4 	mov	x4, x0
/home/lagadanu/Desktop/qemu/optee_os/lib/libmpa/mpa_cmp.c:26
    8564:	eb01001f 	cmp	x0, x1
    8568:	54000500 	b.eq	8608 <__mpa_abs_cmp+0xa8>
/home/lagadanu/Desktop/qemu/optee_os/lib/libmpa/mpa_cmp.c:30
    856c:	b9400482 	ldr	w2, [x4,#4]
    8570:	b9400420 	ldr	w0, [x1,#4]
    8574:	7100005f 	cmp	w2, #0x0
    8578:	5a82a443 	cneg	w3, w2, lt
    857c:	7100001f 	cmp	w0, #0x0
    8580:	5a80a405 	cneg	w5, w0, lt
    8584:	6b05007f 	cmp	w3, w5
    8588:	54000060 	b.eq	8594 <__mpa_abs_cmp+0x34>
/home/lagadanu/Desktop/qemu/optee_os/lib/libmpa/mpa_cmp.c:31
    858c:	4b050060 	sub	w0, w3, w5
    8590:	d65f03c0 	ret
/home/lagadanu/Desktop/qemu/optee_os/lib/libmpa/mpa_cmp.c:33 (discriminator 1)
    8594:	2a000040 	orr	w0, w2, w0
    8598:	340003a0 	cbz	w0, 860c <__mpa_abs_cmp+0xac>
/home/lagadanu/Desktop/qemu/optee_os/lib/libmpa/mpa_cmp.c:37
    859c:	51000462 	sub	w2, w3, #0x1
/home/lagadanu/Desktop/qemu/optee_os/lib/libmpa/mpa_cmp.c:38
    85a0:	52800025 	mov	w5, #0x1                   	// #1
    85a4:	93407c43 	sxtw	x3, w2
    85a8:	91000863 	add	x3, x3, #0x2
    85ac:	d37ef463 	lsl	x3, x3, #2
/home/lagadanu/Desktop/qemu/optee_os/lib/libmpa/mpa_cmp.c:39
    85b0:	2a2203e0 	mvn	w0, w2
    85b4:	6a407cbf 	tst	w5, w0, lsr #31
    85b8:	540001a1 	b.ne	85ec <__mpa_abs_cmp+0x8c>
/home/lagadanu/Desktop/qemu/optee_os/lib/libmpa/mpa_cmp.c:27
    85bc:	52800000 	mov	w0, #0x0                   	// #0
/home/lagadanu/Desktop/qemu/optee_os/lib/libmpa/mpa_cmp.c:43
    85c0:	35000265 	cbnz	w5, 860c <__mpa_abs_cmp+0xac>
/home/lagadanu/Desktop/qemu/optee_os/lib/libmpa/mpa_cmp.c:45
    85c4:	11000442 	add	w2, w2, #0x1
/home/lagadanu/Desktop/qemu/optee_os/lib/libmpa/mpa_cmp.c:46
    85c8:	12800000 	mov	w0, #0xffffffff            	// #-1
    85cc:	937e7c42 	sbfiz	x2, x2, #2, #32
    85d0:	8b020084 	add	x4, x4, x2
    85d4:	8b020022 	add	x2, x1, x2
    85d8:	b9400883 	ldr	w3, [x4,#8]
    85dc:	b9400841 	ldr	w1, [x2,#8]
    85e0:	6b01007f 	cmp	w3, w1
    85e4:	5a809400 	cneg	w0, w0, hi
    85e8:	d65f03c0 	ret
/home/lagadanu/Desktop/qemu/optee_os/lib/libmpa/mpa_cmp.c:40
    85ec:	b8636885 	ldr	w5, [x4,x3]
/home/lagadanu/Desktop/qemu/optee_os/lib/libmpa/mpa_cmp.c:41
    85f0:	51000442 	sub	w2, w2, #0x1
/home/lagadanu/Desktop/qemu/optee_os/lib/libmpa/mpa_cmp.c:40
    85f4:	b8636820 	ldr	w0, [x1,x3]
    85f8:	d1001063 	sub	x3, x3, #0x4
    85fc:	6b0000bf 	cmp	w5, w0
    8600:	1a9f17e5 	cset	w5, eq
    8604:	17ffffeb 	b	85b0 <__mpa_abs_cmp+0x50>
/home/lagadanu/Desktop/qemu/optee_os/lib/libmpa/mpa_cmp.c:27
    8608:	52800000 	mov	w0, #0x0                   	// #0
/home/lagadanu/Desktop/qemu/optee_os/lib/libmpa/mpa_cmp.c:47
    860c:	d65f03c0 	ret

0000000000008610 <__mpa_abs_greater_than>:
__mpa_abs_greater_than():
/home/lagadanu/Desktop/qemu/optee_os/lib/libmpa/mpa_cmp.c:55
    8610:	a9bf7bfd 	stp	x29, x30, [sp,#-16]!
    8614:	910003fd 	mov	x29, sp
/home/lagadanu/Desktop/qemu/optee_os/lib/libmpa/mpa_cmp.c:56
    8618:	97ffffd2 	bl	8560 <__mpa_abs_cmp>
    861c:	7100001f 	cmp	w0, #0x0
/home/lagadanu/Desktop/qemu/optee_os/lib/libmpa/mpa_cmp.c:57
    8620:	1a9fd7e0 	cset	w0, gt
    8624:	a8c17bfd 	ldp	x29, x30, [sp],#16
    8628:	d65f03c0 	ret

000000000000862c <__mpa_abs_less_than>:
__mpa_abs_less_than():
/home/lagadanu/Desktop/qemu/optee_os/lib/libmpa/mpa_cmp.c:65
    862c:	a9bf7bfd 	stp	x29, x30, [sp,#-16]!
    8630:	910003fd 	mov	x29, sp
/home/lagadanu/Desktop/qemu/optee_os/lib/libmpa/mpa_cmp.c:66
    8634:	97ffffcb 	bl	8560 <__mpa_abs_cmp>
/home/lagadanu/Desktop/qemu/optee_os/lib/libmpa/mpa_cmp.c:67
    8638:	531f7c00 	lsr	w0, w0, #31
    863c:	a8c17bfd 	ldp	x29, x30, [sp],#16
    8640:	d65f03c0 	ret

0000000000008644 <mpa_cmp>:
mpa_cmp():
/home/lagadanu/Desktop/qemu/optee_os/lib/libmpa/mpa_cmp.c:83
    8644:	a9be7bfd 	stp	x29, x30, [sp,#-32]!
/home/lagadanu/Desktop/qemu/optee_os/lib/libmpa/mpa_cmp.c:88
    8648:	12800002 	mov	w2, #0xffffffff            	// #-1
/home/lagadanu/Desktop/qemu/optee_os/lib/libmpa/mpa_cmp.c:83
    864c:	910003fd 	mov	x29, sp
/home/lagadanu/Desktop/qemu/optee_os/lib/libmpa/mpa_cmp.c:88
    8650:	b9400404 	ldr	w4, [x0,#4]
/home/lagadanu/Desktop/qemu/optee_os/lib/libmpa/mpa_cmp.c:89
    8654:	b9400423 	ldr	w3, [x1,#4]
/home/lagadanu/Desktop/qemu/optee_os/lib/libmpa/mpa_cmp.c:88
    8658:	6b02009f 	cmp	w4, w2
/home/lagadanu/Desktop/qemu/optee_os/lib/libmpa/mpa_cmp.c:83
    865c:	f9000bf3 	str	x19, [sp,#16]
/home/lagadanu/Desktop/qemu/optee_os/lib/libmpa/mpa_cmp.c:88
    8660:	5a82d453 	cneg	w19, w2, gt
/home/lagadanu/Desktop/qemu/optee_os/lib/libmpa/mpa_cmp.c:89
    8664:	6b02007f 	cmp	w3, w2
    8668:	5a82d442 	cneg	w2, w2, gt
    866c:	6b02027f 	cmp	w19, w2
    8670:	540000e1 	b.ne	868c <mpa_cmp+0x48>
/home/lagadanu/Desktop/qemu/optee_os/lib/libmpa/mpa_cmp.c:93
    8674:	35000144 	cbnz	w4, 869c <mpa_cmp+0x58>
/home/lagadanu/Desktop/qemu/optee_os/lib/libmpa/mpa_cmp.c:94
    8678:	52800013 	mov	w19, #0x0                   	// #0
    867c:	34000083 	cbz	w3, 868c <mpa_cmp+0x48>
/home/lagadanu/Desktop/qemu/optee_os/lib/libmpa/mpa_cmp.c:94 (discriminator 1)
    8680:	3100047f 	cmn	w3, #0x1
    8684:	52800026 	mov	w6, #0x1                   	// #1
    8688:	5a86d4d3 	cneg	w19, w6, gt
/home/lagadanu/Desktop/qemu/optee_os/lib/libmpa/mpa_cmp.c:104
    868c:	2a1303e0 	mov	w0, w19
    8690:	f9400bf3 	ldr	x19, [sp,#16]
    8694:	a8c27bfd 	ldp	x29, x30, [sp],#32
    8698:	d65f03c0 	ret
/home/lagadanu/Desktop/qemu/optee_os/lib/libmpa/mpa_cmp.c:100
    869c:	97ffffb1 	bl	8560 <__mpa_abs_cmp>
/home/lagadanu/Desktop/qemu/optee_os/lib/libmpa/mpa_cmp.c:102
    86a0:	7100067f 	cmp	w19, #0x1
    86a4:	5a800413 	cneg	w19, w0, ne
    86a8:	17fffff9 	b	868c <mpa_cmp+0x48>

00000000000086ac <mpa_cmp_short>:
mpa_cmp_short():
/home/lagadanu/Desktop/qemu/optee_os/lib/libmpa/mpa_cmp.c:122
    86ac:	b9400403 	ldr	w3, [x0,#4]
/home/lagadanu/Desktop/qemu/optee_os/lib/libmpa/mpa_cmp.c:115
    86b0:	aa0003e4 	mov	x4, x0
/home/lagadanu/Desktop/qemu/optee_os/lib/libmpa/mpa_cmp.c:122
    86b4:	37f80343 	tbnz	w3, #31, 871c <mpa_cmp_short+0x70>
/home/lagadanu/Desktop/qemu/optee_os/lib/libmpa/mpa_cmp.c:123 (discriminator 4)
    86b8:	37f802a1 	tbnz	w1, #31, 870c <mpa_cmp_short+0x60>
/home/lagadanu/Desktop/qemu/optee_os/lib/libmpa/mpa_cmp.c:126 (discriminator 4)
    86bc:	350000c3 	cbnz	w3, 86d4 <mpa_cmp_short+0x28>
/home/lagadanu/Desktop/qemu/optee_os/lib/libmpa/mpa_cmp.c:127
    86c0:	52800000 	mov	w0, #0x0                   	// #0
    86c4:	34000341 	cbz	w1, 872c <mpa_cmp_short+0x80>
/home/lagadanu/Desktop/qemu/optee_os/lib/libmpa/mpa_cmp.c:123
    86c8:	52800022 	mov	w2, #0x1                   	// #1
/home/lagadanu/Desktop/qemu/optee_os/lib/libmpa/mpa_cmp.c:127 (discriminator 1)
    86cc:	4b0203e0 	neg	w0, w2
    86d0:	d65f03c0 	ret
/home/lagadanu/Desktop/qemu/optee_os/lib/libmpa/mpa_cmp.c:122
    86d4:	52800020 	mov	w0, #0x1                   	// #1
/home/lagadanu/Desktop/qemu/optee_os/lib/libmpa/mpa_cmp.c:123
    86d8:	52800022 	mov	w2, #0x1                   	// #1
/home/lagadanu/Desktop/qemu/optee_os/lib/libmpa/mpa_cmp.c:130
    86dc:	7100007f 	cmp	w3, #0x0
    86e0:	5a83a463 	cneg	w3, w3, lt
/home/lagadanu/Desktop/qemu/optee_os/lib/libmpa/mpa_cmp.c:134
    86e4:	7100047f 	cmp	w3, #0x1
    86e8:	7a420000 	ccmp	w0, w2, #0x0, eq
    86ec:	54000201 	b.ne	872c <mpa_cmp_short+0x80>
/home/lagadanu/Desktop/qemu/optee_os/lib/libmpa/mpa_cmp.c:139
    86f0:	7100003f 	cmp	w1, #0x0
/home/lagadanu/Desktop/qemu/optee_os/lib/libmpa/mpa_cmp.c:141
    86f4:	b9400882 	ldr	w2, [x4,#8]
/home/lagadanu/Desktop/qemu/optee_os/lib/libmpa/mpa_cmp.c:139
    86f8:	5a81a421 	cneg	w1, w1, lt
/home/lagadanu/Desktop/qemu/optee_os/lib/libmpa/mpa_cmp.c:141
    86fc:	6b02003f 	cmp	w1, w2
/home/lagadanu/Desktop/qemu/optee_os/lib/libmpa/mpa_cmp.c:144
    8700:	5a803400 	cneg	w0, w0, cs
    8704:	1a9f1000 	csel	w0, w0, wzr, ne
    8708:	d65f03c0 	ret
/home/lagadanu/Desktop/qemu/optee_os/lib/libmpa/mpa_cmp.c:123
    870c:	12800002 	mov	w2, #0xffffffff            	// #-1
/home/lagadanu/Desktop/qemu/optee_os/lib/libmpa/mpa_cmp.c:122
    8710:	52800020 	mov	w0, #0x1                   	// #1
/home/lagadanu/Desktop/qemu/optee_os/lib/libmpa/mpa_cmp.c:126
    8714:	34fffdc3 	cbz	w3, 86cc <mpa_cmp_short+0x20>
    8718:	17fffff1 	b	86dc <mpa_cmp_short+0x30>
/home/lagadanu/Desktop/qemu/optee_os/lib/libmpa/mpa_cmp.c:122
    871c:	12800000 	mov	w0, #0xffffffff            	// #-1
/home/lagadanu/Desktop/qemu/optee_os/lib/libmpa/mpa_cmp.c:123
    8720:	2a0003e2 	mov	w2, w0
    8724:	36fffda1 	tbz	w1, #31, 86d8 <mpa_cmp_short+0x2c>
    8728:	17ffffed 	b	86dc <mpa_cmp_short+0x30>
/home/lagadanu/Desktop/qemu/optee_os/lib/libmpa/mpa_cmp.c:149
    872c:	d65f03c0 	ret

0000000000008730 <mpa_exp_mod>:
mpa_exp_mod():
/home/lagadanu/Desktop/qemu/optee_os/lib/libmpa/mpa_expmod.c:29
    8730:	a9b67bfd 	stp	x29, x30, [sp,#-160]!
    8734:	910003fd 	mov	x29, sp
    8738:	a90573fb 	stp	x27, x28, [sp,#80]
/home/lagadanu/Desktop/qemu/optee_os/lib/libmpa/mpa_expmod.c:40
    873c:	910203bc 	add	x28, x29, #0x80
/home/lagadanu/Desktop/qemu/optee_os/lib/libmpa/mpa_expmod.c:29
    8740:	a90153f3 	stp	x19, x20, [sp,#16]
/home/lagadanu/Desktop/qemu/optee_os/lib/libmpa/mpa_expmod.c:41
    8744:	910223bb 	add	x27, x29, #0x88
/home/lagadanu/Desktop/qemu/optee_os/lib/libmpa/mpa_expmod.c:29
    8748:	aa0703f3 	mov	x19, x7
    874c:	aa0403f4 	mov	x20, x4
    8750:	a9060ba0 	stp	x0, x2, [x29,#96]
/home/lagadanu/Desktop/qemu/optee_os/lib/libmpa/mpa_expmod.c:40
    8754:	aa1c03e0 	mov	x0, x28
/home/lagadanu/Desktop/qemu/optee_os/lib/libmpa/mpa_expmod.c:29
    8758:	a9025bf5 	stp	x21, x22, [sp,#32]
    875c:	2a0603f6 	mov	w22, w6
    8760:	aa0303f5 	mov	x21, x3
    8764:	a90363f7 	stp	x23, x24, [sp,#48]
    8768:	a9046bf9 	stp	x25, x26, [sp,#64]
    876c:	aa0503f8 	mov	x24, x5
    8770:	aa0103f7 	mov	x23, x1
/home/lagadanu/Desktop/qemu/optee_os/lib/libmpa/mpa_expmod.c:40
    8774:	aa0703e1 	mov	x1, x7
    8778:	97fffb07 	bl	7394 <mpa_alloc_static_temp_var>
/home/lagadanu/Desktop/qemu/optee_os/lib/libmpa/mpa_expmod.c:53
    877c:	aa1c03fa 	mov	x26, x28
/home/lagadanu/Desktop/qemu/optee_os/lib/libmpa/mpa_expmod.c:41
    8780:	aa1303e1 	mov	x1, x19
    8784:	aa1b03e0 	mov	x0, x27
    8788:	97fffb03 	bl	7394 <mpa_alloc_static_temp_var>
/home/lagadanu/Desktop/qemu/optee_os/lib/libmpa/mpa_expmod.c:42
    878c:	910243a0 	add	x0, x29, #0x90
    8790:	aa1303e1 	mov	x1, x19
    8794:	f9003fa0 	str	x0, [x29,#120]
    8798:	97fffaff 	bl	7394 <mpa_alloc_static_temp_var>
/home/lagadanu/Desktop/qemu/optee_os/lib/libmpa/mpa_expmod.c:43
    879c:	910263a0 	add	x0, x29, #0x98
    87a0:	aa1303e1 	mov	x1, x19
    87a4:	f9003ba0 	str	x0, [x29,#112]
    87a8:	97fffafb 	bl	7394 <mpa_alloc_static_temp_var>
/home/lagadanu/Desktop/qemu/optee_os/lib/libmpa/mpa_expmod.c:49
    87ac:	f9404ba0 	ldr	x0, [x29,#144]
    87b0:	aa1803e2 	mov	x2, x24
    87b4:	2a1603e4 	mov	w4, w22
    87b8:	aa1503e3 	mov	x3, x21
    87bc:	aa1703e1 	mov	x1, x23
    87c0:	97fff4a8 	bl	5a60 <__mpa_montgomery_mul>
/home/lagadanu/Desktop/qemu/optee_os/lib/libmpa/mpa_expmod.c:51
    87c4:	f94043a0 	ldr	x0, [x29,#128]
    87c8:	aa1403e1 	mov	x1, x20
/home/lagadanu/Desktop/qemu/optee_os/lib/libmpa/mpa_expmod.c:54
    87cc:	aa1b03f4 	mov	x20, x27
/home/lagadanu/Desktop/qemu/optee_os/lib/libmpa/mpa_expmod.c:51
    87d0:	97fff412 	bl	5818 <mpa_copy>
/home/lagadanu/Desktop/qemu/optee_os/lib/libmpa/mpa_expmod.c:58
    87d4:	f94043a0 	ldr	x0, [x29,#128]
    87d8:	97fff3fb 	bl	57c4 <__mpa_set_unused_digits_to_zero>
/home/lagadanu/Desktop/qemu/optee_os/lib/libmpa/mpa_expmod.c:59
    87dc:	f9404ba0 	ldr	x0, [x29,#144]
    87e0:	97fff3f9 	bl	57c4 <__mpa_set_unused_digits_to_zero>
/home/lagadanu/Desktop/qemu/optee_os/lib/libmpa/mpa_expmod.c:61
    87e4:	f94037a0 	ldr	x0, [x29,#104]
    87e8:	97fff42d 	bl	589c <mpa_highest_bit_index>
    87ec:	2a0003f8 	mov	w24, w0
/home/lagadanu/Desktop/qemu/optee_os/lib/libmpa/mpa_expmod.c:55
    87f0:	a9475fb9 	ldp	x25, x23, [x29,#112]
/home/lagadanu/Desktop/qemu/optee_os/lib/libmpa/mpa_expmod.c:61 (discriminator 1)
    87f4:	36f803d8 	tbz	w24, #31, 886c <mpa_exp_mod+0x13c>
/home/lagadanu/Desktop/qemu/optee_os/lib/libmpa/mpa_expmod.c:89
    87f8:	f0000001 	adrp	x1, b000 <PRIME_TABLE+0x7f0>
    87fc:	f9400342 	ldr	x2, [x26]
    8800:	f9400280 	ldr	x0, [x20]
    8804:	2a1603e4 	mov	w4, w22
    8808:	f9474021 	ldr	x1, [x1,#3712]
    880c:	aa1503e3 	mov	x3, x21
    8810:	97fff494 	bl	5a60 <__mpa_montgomery_mul>
/home/lagadanu/Desktop/qemu/optee_os/lib/libmpa/mpa_expmod.c:92
    8814:	f9400281 	ldr	x1, [x20]
    8818:	f94033a0 	ldr	x0, [x29,#96]
    881c:	97fff3ff 	bl	5818 <mpa_copy>
/home/lagadanu/Desktop/qemu/optee_os/lib/libmpa/mpa_expmod.c:94
    8820:	aa1303e1 	mov	x1, x19
    8824:	aa1c03e0 	mov	x0, x28
    8828:	97fffadf 	bl	73a4 <mpa_free_static_temp_var>
/home/lagadanu/Desktop/qemu/optee_os/lib/libmpa/mpa_expmod.c:95
    882c:	aa1303e1 	mov	x1, x19
    8830:	aa1b03e0 	mov	x0, x27
    8834:	97fffadc 	bl	73a4 <mpa_free_static_temp_var>
/home/lagadanu/Desktop/qemu/optee_os/lib/libmpa/mpa_expmod.c:96
    8838:	f9403fa0 	ldr	x0, [x29,#120]
    883c:	aa1303e1 	mov	x1, x19
    8840:	97fffad9 	bl	73a4 <mpa_free_static_temp_var>
/home/lagadanu/Desktop/qemu/optee_os/lib/libmpa/mpa_expmod.c:97
    8844:	f9403ba0 	ldr	x0, [x29,#112]
    8848:	aa1303e1 	mov	x1, x19
    884c:	97fffad6 	bl	73a4 <mpa_free_static_temp_var>
/home/lagadanu/Desktop/qemu/optee_os/lib/libmpa/mpa_expmod.c:98
    8850:	a94153f3 	ldp	x19, x20, [sp,#16]
    8854:	a9425bf5 	ldp	x21, x22, [sp,#32]
    8858:	a94363f7 	ldp	x23, x24, [sp,#48]
    885c:	a9446bf9 	ldp	x25, x26, [sp,#64]
    8860:	a94573fb 	ldp	x27, x28, [sp,#80]
    8864:	a8ca7bfd 	ldp	x29, x30, [sp],#160
    8868:	d65f03c0 	ret
/home/lagadanu/Desktop/qemu/optee_os/lib/libmpa/mpa_expmod.c:62
    886c:	f94037a0 	ldr	x0, [x29,#104]
    8870:	2a1803e1 	mov	w1, w24
    8874:	97fff41b 	bl	58e0 <mpa_get_bit>
/home/lagadanu/Desktop/qemu/optee_os/lib/libmpa/mpa_expmod.c:64
    8878:	2a1603e4 	mov	w4, w22
    887c:	aa1503e3 	mov	x3, x21
    8880:	f94002e2 	ldr	x2, [x23]
    8884:	f9400341 	ldr	x1, [x26]
/home/lagadanu/Desktop/qemu/optee_os/lib/libmpa/mpa_expmod.c:62
    8888:	35000220 	cbnz	w0, 88cc <mpa_exp_mod+0x19c>
/home/lagadanu/Desktop/qemu/optee_os/lib/libmpa/mpa_expmod.c:64
    888c:	f9400320 	ldr	x0, [x25]
    8890:	97fff474 	bl	5a60 <__mpa_montgomery_mul>
/home/lagadanu/Desktop/qemu/optee_os/lib/libmpa/mpa_expmod.c:68
    8894:	f9400342 	ldr	x2, [x26]
    8898:	2a1603e4 	mov	w4, w22
    889c:	f9400280 	ldr	x0, [x20]
    88a0:	aa1503e3 	mov	x3, x21
    88a4:	aa0203e1 	mov	x1, x2
/home/lagadanu/Desktop/qemu/optee_os/lib/libmpa/mpa_expmod.c:76
    88a8:	97fff46e 	bl	5a60 <__mpa_montgomery_mul>
/home/lagadanu/Desktop/qemu/optee_os/lib/libmpa/mpa_expmod.c:61
    88ac:	51000718 	sub	w24, w24, #0x1
    88b0:	aa1703e0 	mov	x0, x23
    88b4:	aa1903f7 	mov	x23, x25
    88b8:	aa0003f9 	mov	x25, x0
    88bc:	aa1a03e0 	mov	x0, x26
    88c0:	aa1403fa 	mov	x26, x20
    88c4:	aa0003f4 	mov	x20, x0
    88c8:	17ffffcb 	b	87f4 <mpa_exp_mod+0xc4>
/home/lagadanu/Desktop/qemu/optee_os/lib/libmpa/mpa_expmod.c:72
    88cc:	f9400280 	ldr	x0, [x20]
    88d0:	97fff464 	bl	5a60 <__mpa_montgomery_mul>
/home/lagadanu/Desktop/qemu/optee_os/lib/libmpa/mpa_expmod.c:76
    88d4:	f94002e2 	ldr	x2, [x23]
    88d8:	2a1603e4 	mov	w4, w22
    88dc:	aa1503e3 	mov	x3, x21
    88e0:	f9400320 	ldr	x0, [x25]
    88e4:	aa0203e1 	mov	x1, x2
    88e8:	17fffff0 	b	88a8 <mpa_exp_mod+0x178>

00000000000088ec <mpa_init_static>:
mpa_init_static():
/home/lagadanu/Desktop/qemu/optee_os/lib/libmpa/mpa_init.c:13
    88ec:	531e7421 	lsl	w1, w1, #2
    88f0:	51002021 	sub	w1, w1, #0x8
    88f4:	d3427c21 	ubfx	x1, x1, #2, #30
/home/lagadanu/Desktop/qemu/optee_os/lib/libmpa/mpa_init.c:14
    88f8:	29007c01 	stp	w1, wzr, [x0]
/home/lagadanu/Desktop/qemu/optee_os/lib/libmpa/mpa_init.c:15
    88fc:	b4000041 	cbz	x1, 8904 <mpa_init_static+0x18>
/home/lagadanu/Desktop/qemu/optee_os/lib/libmpa/mpa_init.c:16
    8900:	b900081f 	str	wzr, [x0,#8]
    8904:	d65f03c0 	ret

0000000000008908 <mpa_init_static_fmm_context>:
mpa_init_static_fmm_context():
/home/lagadanu/Desktop/qemu/optee_os/lib/libmpa/mpa_init.c:25
    8908:	a9bd7bfd 	stp	x29, x30, [sp,#-48]!
    890c:	910003fd 	mov	x29, sp
    8910:	a90153f3 	stp	x19, x20, [sp,#16]
/home/lagadanu/Desktop/qemu/optee_os/lib/libmpa/mpa_init.c:29
    8914:	531e7433 	lsl	w19, w1, #2
    8918:	51006273 	sub	w19, w19, #0x18
/home/lagadanu/Desktop/qemu/optee_os/lib/libmpa/mpa_init.c:32
    891c:	91005014 	add	x20, x0, #0x14
/home/lagadanu/Desktop/qemu/optee_os/lib/libmpa/mpa_init.c:25
    8920:	f90013f5 	str	x21, [sp,#32]
/home/lagadanu/Desktop/qemu/optee_os/lib/libmpa/mpa_init.c:32
    8924:	52800001 	mov	w1, #0x0                   	// #0
/home/lagadanu/Desktop/qemu/optee_os/lib/libmpa/mpa_init.c:29
    8928:	d3427e73 	ubfx	x19, x19, #2, #30
/home/lagadanu/Desktop/qemu/optee_os/lib/libmpa/mpa_init.c:25
    892c:	aa0003f5 	mov	x21, x0
/home/lagadanu/Desktop/qemu/optee_os/lib/libmpa/mpa_init.c:32
    8930:	d37ef662 	lsl	x2, x19, #2
    8934:	aa1403e0 	mov	x0, x20
/home/lagadanu/Desktop/qemu/optee_os/lib/libmpa/mpa_init.c:33
    8938:	53017e73 	lsr	w19, w19, #1
/home/lagadanu/Desktop/qemu/optee_os/lib/libmpa/mpa_init.c:32
    893c:	9400070a 	bl	a564 <memset>
/home/lagadanu/Desktop/qemu/optee_os/lib/libmpa/mpa_init.c:40
    8940:	51000a61 	sub	w1, w19, #0x2
/home/lagadanu/Desktop/qemu/optee_os/lib/libmpa/mpa_init.c:43
    8944:	d37e7273 	ubfiz	x19, x19, #2, #29
    8948:	8b130280 	add	x0, x20, x19
/home/lagadanu/Desktop/qemu/optee_os/lib/libmpa/mpa_init.c:39
    894c:	290206bf 	stp	wzr, w1, [x21,#16]
/home/lagadanu/Desktop/qemu/optee_os/lib/libmpa/mpa_init.c:43
    8950:	a90002b4 	stp	x20, x0, [x21]
/home/lagadanu/Desktop/qemu/optee_os/lib/libmpa/mpa_init.c:41
    8954:	b9001abf 	str	wzr, [x21,#24]
/home/lagadanu/Desktop/qemu/optee_os/lib/libmpa/mpa_init.c:44
    8958:	b8336a81 	str	w1, [x20,x19]
/home/lagadanu/Desktop/qemu/optee_os/lib/libmpa/mpa_init.c:47
    895c:	f94013f5 	ldr	x21, [sp,#32]
    8960:	a94153f3 	ldp	x19, x20, [sp,#16]
/home/lagadanu/Desktop/qemu/optee_os/lib/libmpa/mpa_init.c:46
    8964:	b900041f 	str	wzr, [x0,#4]
/home/lagadanu/Desktop/qemu/optee_os/lib/libmpa/mpa_init.c:47
    8968:	a8c37bfd 	ldp	x29, x30, [sp],#48
    896c:	d65f03c0 	ret

0000000000008970 <__mpa_word_to_hexstr>:
__mpa_word_to_hexstr():
/home/lagadanu/Desktop/qemu/optee_os/lib/libmpa/mpa_io.c:107
    8970:	d28000e4 	mov	x4, #0x7                   	// #7
/home/lagadanu/Desktop/qemu/optee_os/lib/libmpa/mpa_io.c:111 (discriminator 3)
    8974:	531e7483 	lsl	w3, w4, #2
    8978:	1ac32423 	lsr	w3, w1, w3
    897c:	12000c63 	and	w3, w3, #0xf
__mpa_nibble_to_char():
/home/lagadanu/Desktop/qemu/optee_os/lib/libmpa/mpa_io.c:96 (discriminator 3)
    8980:	7100247f 	cmp	w3, #0x9
    8984:	540000e8 	b.hi	89a0 <__mpa_word_to_hexstr+0x30>
/home/lagadanu/Desktop/qemu/optee_os/lib/libmpa/mpa_io.c:97
    8988:	1100c063 	add	w3, w3, #0x30
__mpa_word_to_hexstr():
/home/lagadanu/Desktop/qemu/optee_os/lib/libmpa/mpa_io.c:110
    898c:	38246803 	strb	w3, [x0,x4]
    8990:	d1000484 	sub	x4, x4, #0x1
/home/lagadanu/Desktop/qemu/optee_os/lib/libmpa/mpa_io.c:109
    8994:	b100049f 	cmn	x4, #0x1
    8998:	54fffee1 	b.ne	8974 <__mpa_word_to_hexstr+0x4>
/home/lagadanu/Desktop/qemu/optee_os/lib/libmpa/mpa_io.c:113
    899c:	d65f03c0 	ret
__mpa_nibble_to_char():
/home/lagadanu/Desktop/qemu/optee_os/lib/libmpa/mpa_io.c:98
    89a0:	1100dc65 	add	w5, w3, #0x37
    89a4:	7100005f 	cmp	w2, #0x0
    89a8:	11015c63 	add	w3, w3, #0x57
    89ac:	1a851063 	csel	w3, w3, w5, ne
    89b0:	17fffff7 	b	898c <__mpa_word_to_hexstr+0x1c>

00000000000089b4 <__mpa_mpanum_to_hexstr>:
__mpa_mpanum_to_hexstr():
/home/lagadanu/Desktop/qemu/optee_os/lib/libmpa/mpa_io.c:129
    89b4:	b9400447 	ldr	w7, [x2,#4]
/home/lagadanu/Desktop/qemu/optee_os/lib/libmpa/mpa_io.c:130
    89b8:	710000ff 	cmp	w7, #0x0
    89bc:	540000c1 	b.ne	89d4 <__mpa_mpanum_to_hexstr+0x20>
/home/lagadanu/Desktop/qemu/optee_os/lib/libmpa/mpa_io.c:131
    89c0:	52800601 	mov	w1, #0x30                  	// #48
/home/lagadanu/Desktop/qemu/optee_os/lib/libmpa/mpa_io.c:132
    89c4:	3900041f 	strb	wzr, [x0,#1]
/home/lagadanu/Desktop/qemu/optee_os/lib/libmpa/mpa_io.c:131
    89c8:	39000001 	strb	w1, [x0]
/home/lagadanu/Desktop/qemu/optee_os/lib/libmpa/mpa_io.c:133
    89cc:	52800020 	mov	w0, #0x1                   	// #1
    89d0:	d65f03c0 	ret
/home/lagadanu/Desktop/qemu/optee_os/lib/libmpa/mpa_io.c:121
    89d4:	a9bb7bfd 	stp	x29, x30, [sp,#-80]!
    89d8:	910003fd 	mov	x29, sp
    89dc:	a9025bf5 	stp	x21, x22, [sp,#32]
/home/lagadanu/Desktop/qemu/optee_os/lib/libmpa/mpa_io.c:129
    89e0:	5a87a4f6 	cneg	w22, w7, lt
    89e4:	aa0003f5 	mov	x21, x0
/home/lagadanu/Desktop/qemu/optee_os/lib/libmpa/mpa_io.c:135
    89e8:	510006c0 	sub	w0, w22, #0x1
/home/lagadanu/Desktop/qemu/optee_os/lib/libmpa/mpa_io.c:141
    89ec:	8b20c840 	add	x0, x2, w0, sxtw #2
/home/lagadanu/Desktop/qemu/optee_os/lib/libmpa/mpa_io.c:121
    89f0:	a90363f7 	stp	x23, x24, [sp,#48]
    89f4:	aa0203f8 	mov	x24, x2
    89f8:	2a0103f7 	mov	w23, w1
/home/lagadanu/Desktop/qemu/optee_os/lib/libmpa/mpa_io.c:141
    89fc:	2a0103e2 	mov	w2, w1
/home/lagadanu/Desktop/qemu/optee_os/lib/libmpa/mpa_io.c:121
    8a00:	a90153f3 	stp	x19, x20, [sp,#16]
/home/lagadanu/Desktop/qemu/optee_os/lib/libmpa/mpa_io.c:141
    8a04:	b9400801 	ldr	w1, [x0,#8]
    8a08:	910123b4 	add	x20, x29, #0x48
    8a0c:	aa1403e0 	mov	x0, x20
    8a10:	97ffffd8 	bl	8970 <__mpa_word_to_hexstr>
/home/lagadanu/Desktop/qemu/optee_os/lib/libmpa/mpa_io.c:145
    8a14:	d28000e6 	mov	x6, #0x7                   	// #7
    8a18:	93407cc0 	sxtw	x0, w6
    8a1c:	b10004df 	cmn	x6, #0x1
    8a20:	54000181 	b.ne	8a50 <__mpa_mpanum_to_hexstr+0x9c>
    8a24:	aa1503f3 	mov	x19, x21
/home/lagadanu/Desktop/qemu/optee_os/lib/libmpa/mpa_io.c:152
    8a28:	51000ac7 	sub	w7, w22, #0x2
    8a2c:	93407cf6 	sxtw	x22, w7
/home/lagadanu/Desktop/qemu/optee_os/lib/libmpa/mpa_io.c:153
    8a30:	36f802f6 	tbz	w22, #31, 8a8c <__mpa_mpanum_to_hexstr+0xd8>
/home/lagadanu/Desktop/qemu/optee_os/lib/libmpa/mpa_io.c:161
    8a34:	3900027f 	strb	wzr, [x19]
/home/lagadanu/Desktop/qemu/optee_os/lib/libmpa/mpa_io.c:160
    8a38:	4b150260 	sub	w0, w19, w21
/home/lagadanu/Desktop/qemu/optee_os/lib/libmpa/mpa_io.c:163
    8a3c:	a94153f3 	ldp	x19, x20, [sp,#16]
    8a40:	a9425bf5 	ldp	x21, x22, [sp,#32]
    8a44:	a94363f7 	ldp	x23, x24, [sp,#48]
    8a48:	a8c57bfd 	ldp	x29, x30, [sp],#80
    8a4c:	d65f03c0 	ret
/home/lagadanu/Desktop/qemu/optee_os/lib/libmpa/mpa_io.c:146
    8a50:	38666a82 	ldrb	w2, [x20,x6]
    8a54:	d10004c1 	sub	x1, x6, #0x1
    8a58:	7100c05f 	cmp	w2, #0x30
    8a5c:	540000c0 	b.eq	8a74 <__mpa_mpanum_to_hexstr+0xc0>
    8a60:	aa1503e1 	mov	x1, x21
/home/lagadanu/Desktop/qemu/optee_os/lib/libmpa/mpa_io.c:148
    8a64:	36f800c0 	tbz	w0, #31, 8a7c <__mpa_mpanum_to_hexstr+0xc8>
    8a68:	110004c6 	add	w6, w6, #0x1
    8a6c:	8b0602b3 	add	x19, x21, x6
    8a70:	17ffffee 	b	8a28 <__mpa_mpanum_to_hexstr+0x74>
    8a74:	aa0103e6 	mov	x6, x1
    8a78:	17ffffe8 	b	8a18 <__mpa_mpanum_to_hexstr+0x64>
/home/lagadanu/Desktop/qemu/optee_os/lib/libmpa/mpa_io.c:149
    8a7c:	38606a82 	ldrb	w2, [x20,x0]
    8a80:	d1000400 	sub	x0, x0, #0x1
    8a84:	38001422 	strb	w2, [x1],#1
    8a88:	17fffff7 	b	8a64 <__mpa_mpanum_to_hexstr+0xb0>
/home/lagadanu/Desktop/qemu/optee_os/lib/libmpa/mpa_io.c:154
    8a8c:	8b160b00 	add	x0, x24, x22, lsl #2
    8a90:	2a1703e2 	mov	w2, w23
    8a94:	b9400801 	ldr	w1, [x0,#8]
    8a98:	aa1403e0 	mov	x0, x20
    8a9c:	97ffffb5 	bl	8970 <__mpa_word_to_hexstr>
    8aa0:	d28000e0 	mov	x0, #0x7                   	// #7
/home/lagadanu/Desktop/qemu/optee_os/lib/libmpa/mpa_io.c:157
    8aa4:	cb000261 	sub	x1, x19, x0
    8aa8:	38606a82 	ldrb	w2, [x20,x0]
    8aac:	d1000400 	sub	x0, x0, #0x1
/home/lagadanu/Desktop/qemu/optee_os/lib/libmpa/mpa_io.c:156
    8ab0:	b100041f 	cmn	x0, #0x1
/home/lagadanu/Desktop/qemu/optee_os/lib/libmpa/mpa_io.c:157
    8ab4:	39001c22 	strb	w2, [x1,#7]
/home/lagadanu/Desktop/qemu/optee_os/lib/libmpa/mpa_io.c:156
    8ab8:	54ffff61 	b.ne	8aa4 <__mpa_mpanum_to_hexstr+0xf0>
    8abc:	91002273 	add	x19, x19, #0x8
    8ac0:	d10006d6 	sub	x22, x22, #0x1
    8ac4:	17ffffdb 	b	8a30 <__mpa_mpanum_to_hexstr+0x7c>

0000000000008ac8 <__mpa_isspace>:
__mpa_isspace():
/home/lagadanu/Desktop/qemu/optee_os/lib/libmpa/mpa_io.c:27
    8ac8:	12001c02 	and	w2, w0, #0xff
/home/lagadanu/Desktop/qemu/optee_os/lib/libmpa/mpa_io.c:28
    8acc:	71017c5f 	cmp	w2, #0x5f
    8ad0:	1a9f17e1 	cset	w1, eq
/home/lagadanu/Desktop/qemu/optee_os/lib/libmpa/mpa_io.c:30
    8ad4:	7100805f 	cmp	w2, #0x20
    8ad8:	1a9f17e0 	cset	w0, eq
/home/lagadanu/Desktop/qemu/optee_os/lib/libmpa/mpa_io.c:28
    8adc:	2a000020 	orr	w0, w1, w0
/home/lagadanu/Desktop/qemu/optee_os/lib/libmpa/mpa_io.c:32
    8ae0:	35000100 	cbnz	w0, 8b00 <__mpa_isspace+0x38>
    8ae4:	51002440 	sub	w0, w2, #0x9
    8ae8:	12001c00 	and	w0, w0, #0xff
    8aec:	7100041f 	cmp	w0, #0x1
    8af0:	1a9f87e1 	cset	w1, ls
    8af4:	7100345f 	cmp	w2, #0xd
    8af8:	1a9f17e0 	cset	w0, eq
    8afc:	2a000020 	orr	w0, w1, w0
/home/lagadanu/Desktop/qemu/optee_os/lib/libmpa/mpa_io.c:34 (discriminator 5)
    8b00:	d65f03c0 	ret

0000000000008b04 <mpa_get_str_size>:
mpa_get_str_size():
/home/lagadanu/Desktop/qemu/optee_os/lib/libmpa/mpa_io.c:215
    8b04:	52820040 	mov	w0, #0x1002                	// #4098
    8b08:	d65f03c0 	ret

0000000000008b0c <mpa_set_str>:
mpa_set_str():
/home/lagadanu/Desktop/qemu/optee_os/lib/libmpa/mpa_io.c:239
    8b0c:	a9bc7bfd 	stp	x29, x30, [sp,#-64]!
    8b10:	910003fd 	mov	x29, sp
    8b14:	a90153f3 	stp	x19, x20, [sp,#16]
    8b18:	aa0003f4 	mov	x20, x0
    8b1c:	a90363f7 	stp	x23, x24, [sp,#48]
    8b20:	aa0103f8 	mov	x24, x1
    8b24:	a9025bf5 	stp	x21, x22, [sp,#32]
/home/lagadanu/Desktop/qemu/optee_os/lib/libmpa/mpa_io.c:258
    8b28:	39400020 	ldrb	w0, [x1]
    8b2c:	35000080 	cbnz	w0, 8b3c <mpa_set_str+0x30>
/home/lagadanu/Desktop/qemu/optee_os/lib/libmpa/mpa_io.c:259
    8b30:	52800013 	mov	w19, #0x0                   	// #0
    8b34:	14000013 	b	8b80 <mpa_set_str+0x74>
    8b38:	aa1703f8 	mov	x24, x23
/home/lagadanu/Desktop/qemu/optee_os/lib/libmpa/mpa_io.c:263 (discriminator 1)
    8b3c:	aa1803f7 	mov	x23, x24
    8b40:	384016f5 	ldrb	w21, [x23],#1
/home/lagadanu/Desktop/qemu/optee_os/lib/libmpa/mpa_io.c:264 (discriminator 1)
    8b44:	2a1503e0 	mov	w0, w21
    8b48:	97ffffe0 	bl	8ac8 <__mpa_isspace>
    8b4c:	2a0003f3 	mov	w19, w0
    8b50:	35ffff40 	cbnz	w0, 8b38 <mpa_set_str+0x2c>
/home/lagadanu/Desktop/qemu/optee_os/lib/libmpa/mpa_io.c:263
    8b54:	2a1503f6 	mov	w22, w21
/home/lagadanu/Desktop/qemu/optee_os/lib/libmpa/mpa_io.c:267
    8b58:	52800015 	mov	w21, #0x0                   	// #0
/home/lagadanu/Desktop/qemu/optee_os/lib/libmpa/mpa_io.c:268
    8b5c:	7100b6df 	cmp	w22, #0x2d
    8b60:	54000081 	b.ne	8b70 <mpa_set_str+0x64>
/home/lagadanu/Desktop/qemu/optee_os/lib/libmpa/mpa_io.c:270
    8b64:	394002f6 	ldrb	w22, [x23]
    8b68:	91000b17 	add	x23, x24, #0x2
/home/lagadanu/Desktop/qemu/optee_os/lib/libmpa/mpa_io.c:269
    8b6c:	52800035 	mov	w21, #0x1                   	// #1
/home/lagadanu/Desktop/qemu/optee_os/lib/libmpa/mpa_io.c:272
    8b70:	35000156 	cbnz	w22, 8b98 <mpa_set_str+0x8c>
/home/lagadanu/Desktop/qemu/optee_os/lib/libmpa/mpa_io.c:273
    8b74:	52800001 	mov	w1, #0x0                   	// #0
    8b78:	aa1403e0 	mov	x0, x20
    8b7c:	97fff586 	bl	6194 <mpa_set_word>
/home/lagadanu/Desktop/qemu/optee_os/lib/libmpa/mpa_io.c:360
    8b80:	2a1303e0 	mov	w0, w19
    8b84:	a94153f3 	ldp	x19, x20, [sp,#16]
    8b88:	a9425bf5 	ldp	x21, x22, [sp,#32]
    8b8c:	a94363f7 	ldp	x23, x24, [sp,#48]
    8b90:	a8c47bfd 	ldp	x29, x30, [sp],#64
    8b94:	d65f03c0 	ret
/home/lagadanu/Desktop/qemu/optee_os/lib/libmpa/mpa_io.c:278
    8b98:	7100c2df 	cmp	w22, #0x30
    8b9c:	540000e1 	b.ne	8bb8 <mpa_set_str+0xac>
/home/lagadanu/Desktop/qemu/optee_os/lib/libmpa/mpa_io.c:279
    8ba0:	394002e3 	ldrb	w3, [x23]
/home/lagadanu/Desktop/qemu/optee_os/lib/libmpa/mpa_io.c:280
    8ba4:	121a7860 	and	w0, w3, #0xffffffdf
    8ba8:	7101601f 	cmp	w0, #0x58
    8bac:	54000540 	b.eq	8c54 <mpa_set_str+0x148>
/home/lagadanu/Desktop/qemu/optee_os/lib/libmpa/mpa_io.c:279
    8bb0:	910006f7 	add	x23, x23, #0x1
    8bb4:	2a0303f6 	mov	w22, w3
/home/lagadanu/Desktop/qemu/optee_os/lib/libmpa/mpa_io.c:285
    8bb8:	7100c2df 	cmp	w22, #0x30
    8bbc:	54000520 	b.eq	8c60 <mpa_set_str+0x154>
/home/lagadanu/Desktop/qemu/optee_os/lib/libmpa/mpa_io.c:285 (discriminator 1)
    8bc0:	2a1603e0 	mov	w0, w22
    8bc4:	97ffffc1 	bl	8ac8 <__mpa_isspace>
    8bc8:	350004c0 	cbnz	w0, 8c60 <mpa_set_str+0x154>
    8bcc:	aa1703e5 	mov	x5, x23
/home/lagadanu/Desktop/qemu/optee_os/lib/libmpa/mpa_io.c:289
    8bd0:	34fffd36 	cbz	w22, 8b74 <mpa_set_str+0x68>
/home/lagadanu/Desktop/qemu/optee_os/lib/libmpa/mpa_io.c:296
    8bd4:	394000a0 	ldrb	w0, [x5]
    8bd8:	35000480 	cbnz	w0, 8c68 <mpa_set_str+0x15c>
/home/lagadanu/Desktop/qemu/optee_os/lib/libmpa/mpa_io.c:300
    8bdc:	cb1700a5 	sub	x5, x5, x23
/home/lagadanu/Desktop/qemu/optee_os/lib/libmpa/mpa_io.c:301
    8be0:	52820046 	mov	w6, #0x1002                	// #4098
/home/lagadanu/Desktop/qemu/optee_os/lib/libmpa/mpa_io.c:300
    8be4:	110004a5 	add	w5, w5, #0x1
/home/lagadanu/Desktop/qemu/optee_os/lib/libmpa/mpa_io.c:301
    8be8:	6b0600bf 	cmp	w5, w6
    8bec:	5400042c 	b.gt	8c70 <mpa_set_str+0x164>
/home/lagadanu/Desktop/qemu/optee_os/lib/libmpa/mpa_io.c:311
    8bf0:	d0000065 	adrp	x5, 16000 <mempool_u32+0xe48>
    8bf4:	912d40b8 	add	x24, x5, #0xb50
/home/lagadanu/Desktop/qemu/optee_os/lib/libmpa/mpa_io.c:301
    8bf8:	52800013 	mov	w19, #0x0                   	// #0
__mpa_is_char_in_base():
/home/lagadanu/Desktop/qemu/optee_os/lib/libmpa/mpa_io.c:44
    8bfc:	2a1603e0 	mov	w0, w22
    8c00:	97ffffb2 	bl	8ac8 <__mpa_isspace>
    8c04:	350005c0 	cbnz	w0, 8cbc <mpa_set_str+0x1b0>
/home/lagadanu/Desktop/qemu/optee_os/lib/libmpa/mpa_io.c:52
    8c08:	121a7ac1 	and	w1, w22, #0xffffffdf
/home/lagadanu/Desktop/qemu/optee_os/lib/libmpa/mpa_io.c:51
    8c0c:	5100c2c0 	sub	w0, w22, #0x30
/home/lagadanu/Desktop/qemu/optee_os/lib/libmpa/mpa_io.c:52
    8c10:	51010421 	sub	w1, w1, #0x41
    8c14:	7100143f 	cmp	w1, #0x5
    8c18:	7a498800 	ccmp	w0, #0x9, #0x0, hi
    8c1c:	540003e9 	b.ls	8c98 <mpa_set_str+0x18c>
mpa_set_str():
/home/lagadanu/Desktop/qemu/optee_os/lib/libmpa/mpa_io.c:315
    8c20:	34000393 	cbz	w19, 8c90 <mpa_set_str+0x184>
__mpa_digitstr_to_binary_wsize_base_16():
/home/lagadanu/Desktop/qemu/optee_os/lib/libmpa/mpa_io.c:85
    8c24:	11001e65 	add	w5, w19, #0x7
mpa_set_str():
/home/lagadanu/Desktop/qemu/optee_os/lib/libmpa/mpa_io.c:320
    8c28:	b9400286 	ldr	w6, [x20]
__mpa_digitstr_to_binary_wsize_base_16():
/home/lagadanu/Desktop/qemu/optee_os/lib/libmpa/mpa_io.c:85
    8c2c:	13037ca0 	asr	w0, w5, #3
mpa_set_str():
/home/lagadanu/Desktop/qemu/optee_os/lib/libmpa/mpa_io.c:319
    8c30:	6b06001f 	cmp	w0, w6
    8c34:	54000529 	b.ls	8cd8 <mpa_set_str+0x1cc>
/home/lagadanu/Desktop/qemu/optee_os/lib/libmpa/mpa_io.c:321
    8c38:	f0000004 	adrp	x4, b000 <PRIME_TABLE+0x7f0>
    8c3c:	2a0003e5 	mov	w5, w0
    8c40:	911fc884 	add	x4, x4, #0x7f2
    8c44:	52800023 	mov	w3, #0x1                   	// #1
    8c48:	52800022 	mov	w2, #0x1                   	// #1
    8c4c:	52802861 	mov	w1, #0x143                 	// #323
    8c50:	1400000d 	b	8c84 <mpa_set_str+0x178>
/home/lagadanu/Desktop/qemu/optee_os/lib/libmpa/mpa_io.c:281
    8c54:	394006f6 	ldrb	w22, [x23,#1]
    8c58:	91000af7 	add	x23, x23, #0x2
    8c5c:	17ffffd7 	b	8bb8 <mpa_set_str+0xac>
/home/lagadanu/Desktop/qemu/optee_os/lib/libmpa/mpa_io.c:286
    8c60:	384016f6 	ldrb	w22, [x23],#1
    8c64:	17ffffd5 	b	8bb8 <mpa_set_str+0xac>
/home/lagadanu/Desktop/qemu/optee_os/lib/libmpa/mpa_io.c:297
    8c68:	910004a5 	add	x5, x5, #0x1
    8c6c:	17ffffda 	b	8bd4 <mpa_set_str+0xc8>
/home/lagadanu/Desktop/qemu/optee_os/lib/libmpa/mpa_io.c:302
    8c70:	f0000004 	adrp	x4, b000 <PRIME_TABLE+0x7f0>
    8c74:	911f5084 	add	x4, x4, #0x7d4
    8c78:	52800023 	mov	w3, #0x1                   	// #1
    8c7c:	52800022 	mov	w2, #0x1                   	// #1
    8c80:	528025c1 	mov	w1, #0x12e                 	// #302
/home/lagadanu/Desktop/qemu/optee_os/lib/libmpa/mpa_io.c:321
    8c84:	f0000000 	adrp	x0, b000 <PRIME_TABLE+0x7f0>
    8c88:	91152000 	add	x0, x0, #0x548
    8c8c:	97ffddeb 	bl	438 <trace_printf>
/home/lagadanu/Desktop/qemu/optee_os/lib/libmpa/mpa_io.c:324
    8c90:	12800013 	mov	w19, #0xffffffff            	// #-1
/home/lagadanu/Desktop/qemu/optee_os/lib/libmpa/mpa_io.c:325
    8c94:	17ffffbb 	b	8b80 <mpa_set_str+0x74>
/home/lagadanu/Desktop/qemu/optee_os/lib/libmpa/mpa_io.c:311
    8c98:	11000661 	add	w1, w19, #0x1
__mpa_digit_value():
/home/lagadanu/Desktop/qemu/optee_os/lib/libmpa/mpa_io.c:66
    8c9c:	7100241f 	cmp	w0, #0x9
    8ca0:	540000a9 	b.ls	8cb4 <mpa_set_str+0x1a8>
/home/lagadanu/Desktop/qemu/optee_os/lib/libmpa/mpa_io.c:68
    8ca4:	510106c0 	sub	w0, w22, #0x41
    8ca8:	7100141f 	cmp	w0, #0x5
    8cac:	540000c8 	b.hi	8cc4 <mpa_set_str+0x1b8>
/home/lagadanu/Desktop/qemu/optee_os/lib/libmpa/mpa_io.c:69
    8cb0:	5100dec0 	sub	w0, w22, #0x37
mpa_set_str():
/home/lagadanu/Desktop/qemu/optee_os/lib/libmpa/mpa_io.c:311
    8cb4:	3833cb00 	strb	w0, [x24,w19,sxtw]
    8cb8:	2a0103f3 	mov	w19, w1
/home/lagadanu/Desktop/qemu/optee_os/lib/libmpa/mpa_io.c:312
    8cbc:	384016f6 	ldrb	w22, [x23],#1
    8cc0:	17ffffcf 	b	8bfc <mpa_set_str+0xf0>
__mpa_digit_value():
/home/lagadanu/Desktop/qemu/optee_os/lib/libmpa/mpa_io.c:70
    8cc4:	510186c0 	sub	w0, w22, #0x61
/home/lagadanu/Desktop/qemu/optee_os/lib/libmpa/mpa_io.c:71
    8cc8:	51015ec3 	sub	w3, w22, #0x57
    8ccc:	7100141f 	cmp	w0, #0x5
    8cd0:	1a9f9060 	csel	w0, w3, wzr, ls
    8cd4:	17fffff8 	b	8cb4 <mpa_set_str+0x1a8>
mpa_set_str():
/home/lagadanu/Desktop/qemu/optee_os/lib/libmpa/mpa_io.c:330
    8cd8:	aa1403e0 	mov	x0, x20
    8cdc:	52800001 	mov	w1, #0x0                   	// #0
    8ce0:	97fff52d 	bl	6194 <mpa_set_word>
/home/lagadanu/Desktop/qemu/optee_os/lib/libmpa/mpa_io.c:329
    8ce4:	91002296 	add	x22, x20, #0x8
/home/lagadanu/Desktop/qemu/optee_os/lib/libmpa/mpa_io.c:334
    8ce8:	52800020 	mov	w0, #0x1                   	// #1
/home/lagadanu/Desktop/qemu/optee_os/lib/libmpa/mpa_io.c:335
    8cec:	51000666 	sub	w6, w19, #0x1
    8cf0:	d0000064 	adrp	x4, 16000 <mempool_u32+0xe48>
/home/lagadanu/Desktop/qemu/optee_os/lib/libmpa/mpa_io.c:332
    8cf4:	2900fe80 	stp	w0, wzr, [x20,#4]
    8cf8:	93407cc3 	sxtw	x3, w6
/home/lagadanu/Desktop/qemu/optee_os/lib/libmpa/mpa_io.c:333
    8cfc:	52800080 	mov	w0, #0x4                   	// #4
/home/lagadanu/Desktop/qemu/optee_os/lib/libmpa/mpa_io.c:337
    8d00:	912d4087 	add	x7, x4, #0xb50
/home/lagadanu/Desktop/qemu/optee_os/lib/libmpa/mpa_io.c:338
    8d04:	2a0003e8 	mov	w8, w0
/home/lagadanu/Desktop/qemu/optee_os/lib/libmpa/mpa_io.c:336
    8d08:	7100047f 	cmp	w3, #0x1
    8d0c:	b94002c2 	ldr	w2, [x22]
    8d10:	5400024c 	b.gt	8d58 <mpa_set_str+0x24c>
/home/lagadanu/Desktop/qemu/optee_os/lib/libmpa/mpa_io.c:352
    8d14:	396d4081 	ldrb	w1, [x4,#2896]
/home/lagadanu/Desktop/qemu/optee_os/lib/libmpa/mpa_io.c:348
    8d18:	360000a6 	tbz	w6, #0, 8d2c <mpa_set_str+0x220>
/home/lagadanu/Desktop/qemu/optee_os/lib/libmpa/mpa_io.c:349
    8d1c:	912d4083 	add	x3, x4, #0xb50
    8d20:	396d4081 	ldrb	w1, [x4,#2896]
    8d24:	39400463 	ldrb	w3, [x3,#1]
    8d28:	4a011061 	eor	w1, w3, w1, lsl #4
/home/lagadanu/Desktop/qemu/optee_os/lib/libmpa/mpa_io.c:350
    8d2c:	52800083 	mov	w3, #0x4                   	// #4
    8d30:	4b000060 	sub	w0, w3, w0
    8d34:	531d7000 	lsl	w0, w0, #3
/home/lagadanu/Desktop/qemu/optee_os/lib/libmpa/mpa_io.c:349
    8d38:	1ac02020 	lsl	w0, w1, w0
    8d3c:	4a000040 	eor	w0, w2, w0
    8d40:	b90002c0 	str	w0, [x22]
/home/lagadanu/Desktop/qemu/optee_os/lib/libmpa/mpa_io.c:355
    8d44:	34fff1f5 	cbz	w21, 8b80 <mpa_set_str+0x74>
/home/lagadanu/Desktop/qemu/optee_os/lib/libmpa/mpa_io.c:356
    8d48:	b9400680 	ldr	w0, [x20,#4]
    8d4c:	4b0003e0 	neg	w0, w0
    8d50:	b9000680 	str	w0, [x20,#4]
    8d54:	17ffff8b 	b	8b80 <mpa_set_str+0x74>
/home/lagadanu/Desktop/qemu/optee_os/lib/libmpa/mpa_io.c:337
    8d58:	8b0300e1 	add	x1, x7, x3
    8d5c:	38676865 	ldrb	w5, [x3,x7]
    8d60:	385ff021 	ldurb	w1, [x1,#-1]
    8d64:	4a0110a1 	eor	w1, w5, w1, lsl #4
/home/lagadanu/Desktop/qemu/optee_os/lib/libmpa/mpa_io.c:338
    8d68:	4b000105 	sub	w5, w8, w0
    8d6c:	531d70a5 	lsl	w5, w5, #3
/home/lagadanu/Desktop/qemu/optee_os/lib/libmpa/mpa_io.c:341
    8d70:	71000400 	subs	w0, w0, #0x1
/home/lagadanu/Desktop/qemu/optee_os/lib/libmpa/mpa_io.c:337
    8d74:	1ac52021 	lsl	w1, w1, w5
    8d78:	4a010041 	eor	w1, w2, w1
    8d7c:	b90002c1 	str	w1, [x22]
/home/lagadanu/Desktop/qemu/optee_os/lib/libmpa/mpa_io.c:341
    8d80:	540000e1 	b.ne	8d9c <mpa_set_str+0x290>
/home/lagadanu/Desktop/qemu/optee_os/lib/libmpa/mpa_io.c:343
    8d84:	b90006df 	str	wzr, [x22,#4]
/home/lagadanu/Desktop/qemu/optee_os/lib/libmpa/mpa_io.c:342
    8d88:	910012d6 	add	x22, x22, #0x4
/home/lagadanu/Desktop/qemu/optee_os/lib/libmpa/mpa_io.c:345
    8d8c:	b9400680 	ldr	w0, [x20,#4]
    8d90:	11000400 	add	w0, w0, #0x1
    8d94:	b9000680 	str	w0, [x20,#4]
/home/lagadanu/Desktop/qemu/optee_os/lib/libmpa/mpa_io.c:344
    8d98:	52800080 	mov	w0, #0x4                   	// #4
    8d9c:	d1000863 	sub	x3, x3, #0x2
    8da0:	17ffffda 	b	8d08 <mpa_set_str+0x1fc>

0000000000008da4 <mpa_get_str>:
mpa_get_str():
/home/lagadanu/Desktop/qemu/optee_os/lib/libmpa/mpa_io.c:376
    8da4:	a9be7bfd 	stp	x29, x30, [sp,#-32]!
    8da8:	910003fd 	mov	x29, sp
    8dac:	f9000bf3 	str	x19, [sp,#16]
/home/lagadanu/Desktop/qemu/optee_os/lib/libmpa/mpa_io.c:379
    8db0:	b5000160 	cbnz	x0, 8ddc <mpa_get_str+0x38>
/home/lagadanu/Desktop/qemu/optee_os/lib/libmpa/mpa_io.c:379 (discriminator 1)
    8db4:	f0000003 	adrp	x3, b000 <PRIME_TABLE+0x7f0>
    8db8:	91152063 	add	x3, x3, #0x548
    8dbc:	91004063 	add	x3, x3, #0x10
    8dc0:	f0000001 	adrp	x1, b000 <PRIME_TABLE+0x7f0>
    8dc4:	f0000000 	adrp	x0, b000 <PRIME_TABLE+0x7f0>
    8dc8:	91206c21 	add	x1, x1, #0x81b
    8dcc:	9120bc00 	add	x0, x0, #0x82f
    8dd0:	52802f62 	mov	w2, #0x17b                 	// #379
    8dd4:	94000645 	bl	a6e8 <_assert_log>
    8dd8:	94000655 	bl	a72c <_assert_break>
/home/lagadanu/Desktop/qemu/optee_os/lib/libmpa/mpa_io.c:382
    8ddc:	b9400443 	ldr	w3, [x2,#4]
    8de0:	aa0003f3 	mov	x19, x0
    8de4:	36f80063 	tbz	w3, #31, 8df0 <mpa_get_str+0x4c>
/home/lagadanu/Desktop/qemu/optee_os/lib/libmpa/mpa_io.c:383
    8de8:	528005a3 	mov	w3, #0x2d                  	// #45
    8dec:	38001403 	strb	w3, [x0],#1
/home/lagadanu/Desktop/qemu/optee_os/lib/libmpa/mpa_io.c:386
    8df0:	7100403f 	cmp	w1, #0x10
    8df4:	540000a0 	b.eq	8e08 <mpa_get_str+0x64>
    8df8:	7100443f 	cmp	w1, #0x11
    8dfc:	54000120 	b.eq	8e20 <mpa_get_str+0x7c>
/home/lagadanu/Desktop/qemu/optee_os/lib/libmpa/mpa_io.c:394
    8e00:	d2800013 	mov	x19, #0x0                   	// #0
    8e04:	14000003 	b	8e10 <mpa_get_str+0x6c>
/home/lagadanu/Desktop/qemu/optee_os/lib/libmpa/mpa_io.c:388
    8e08:	52800001 	mov	w1, #0x0                   	// #0
/home/lagadanu/Desktop/qemu/optee_os/lib/libmpa/mpa_io.c:391
    8e0c:	97fffeea 	bl	89b4 <__mpa_mpanum_to_hexstr>
/home/lagadanu/Desktop/qemu/optee_os/lib/libmpa/mpa_io.c:398
    8e10:	aa1303e0 	mov	x0, x19
    8e14:	f9400bf3 	ldr	x19, [sp,#16]
    8e18:	a8c27bfd 	ldp	x29, x30, [sp],#32
    8e1c:	d65f03c0 	ret
/home/lagadanu/Desktop/qemu/optee_os/lib/libmpa/mpa_io.c:391
    8e20:	52800021 	mov	w1, #0x1                   	// #1
    8e24:	17fffffa 	b	8e0c <mpa_get_str+0x68>

0000000000008e28 <mpa_set_oct_str>:
mpa_set_oct_str():
/home/lagadanu/Desktop/qemu/optee_os/lib/libmpa/mpa_io.c:415
    8e28:	a9bc7bfd 	stp	x29, x30, [sp,#-64]!
    8e2c:	910003fd 	mov	x29, sp
    8e30:	a90153f3 	stp	x19, x20, [sp,#16]
    8e34:	aa0003f4 	mov	x20, x0
    8e38:	a9025bf5 	stp	x21, x22, [sp,#32]
/home/lagadanu/Desktop/qemu/optee_os/lib/libmpa/mpa_io.c:417
    8e3c:	2a0203f3 	mov	w19, w2
/home/lagadanu/Desktop/qemu/optee_os/lib/libmpa/mpa_io.c:415
    8e40:	f9001bf7 	str	x23, [sp,#48]
    8e44:	aa0103f5 	mov	x21, x1
    8e48:	12001c77 	and	w23, w3, #0xff
/home/lagadanu/Desktop/qemu/optee_os/lib/libmpa/mpa_io.c:421
    8e4c:	7100027f 	cmp	w19, #0x0
    8e50:	5400016c 	b.gt	8e7c <mpa_set_oct_str+0x54>
/home/lagadanu/Desktop/qemu/optee_os/lib/libmpa/mpa_io.c:428
    8e54:	540001e1 	b.ne	8e90 <mpa_set_oct_str+0x68>
/home/lagadanu/Desktop/qemu/optee_os/lib/libmpa/mpa_io.c:429
    8e58:	52800001 	mov	w1, #0x0                   	// #0
    8e5c:	aa1403e0 	mov	x0, x20
    8e60:	97fff4cd 	bl	6194 <mpa_set_word>
/home/lagadanu/Desktop/qemu/optee_os/lib/libmpa/mpa_io.c:458
    8e64:	2a1303e0 	mov	w0, w19
    8e68:	f9401bf7 	ldr	x23, [sp,#48]
    8e6c:	a94153f3 	ldp	x19, x20, [sp,#16]
    8e70:	a9425bf5 	ldp	x21, x22, [sp,#32]
    8e74:	a8c47bfd 	ldp	x29, x30, [sp],#64
    8e78:	d65f03c0 	ret
/home/lagadanu/Desktop/qemu/optee_os/lib/libmpa/mpa_io.c:422
    8e7c:	394002a0 	ldrb	w0, [x21]
    8e80:	35000080 	cbnz	w0, 8e90 <mpa_set_oct_str+0x68>
/home/lagadanu/Desktop/qemu/optee_os/lib/libmpa/mpa_io.c:424
    8e84:	51000673 	sub	w19, w19, #0x1
/home/lagadanu/Desktop/qemu/optee_os/lib/libmpa/mpa_io.c:425
    8e88:	910006b5 	add	x21, x21, #0x1
    8e8c:	17fffff0 	b	8e4c <mpa_set_oct_str+0x24>
/home/lagadanu/Desktop/qemu/optee_os/lib/libmpa/mpa_io.c:438
    8e90:	b9400280 	ldr	w0, [x20]
    8e94:	51000661 	sub	w1, w19, #0x1
    8e98:	d37e7400 	ubfiz	x0, x0, #2, #30
    8e9c:	eb21c01f 	cmp	x0, w1, sxtw
    8ea0:	54000483 	b.cc	8f30 <mpa_set_oct_str+0x108>
/home/lagadanu/Desktop/qemu/optee_os/lib/libmpa/mpa_io.c:442
    8ea4:	52800001 	mov	w1, #0x0                   	// #0
    8ea8:	aa1403e0 	mov	x0, x20
/home/lagadanu/Desktop/qemu/optee_os/lib/libmpa/mpa_io.c:441
    8eac:	91002296 	add	x22, x20, #0x8
/home/lagadanu/Desktop/qemu/optee_os/lib/libmpa/mpa_io.c:442
    8eb0:	97fff4b9 	bl	6194 <mpa_set_word>
/home/lagadanu/Desktop/qemu/optee_os/lib/libmpa/mpa_io.c:446
    8eb4:	52800083 	mov	w3, #0x4                   	// #4
    8eb8:	12bc0005 	mov	w5, #0x1fffffff            	// #536870911
/home/lagadanu/Desktop/qemu/optee_os/lib/libmpa/mpa_io.c:444
    8ebc:	b900069f 	str	wzr, [x20,#4]
/home/lagadanu/Desktop/qemu/optee_os/lib/libmpa/mpa_io.c:445
    8ec0:	7100027f 	cmp	w19, #0x0
    8ec4:	540000ec 	b.gt	8ee0 <mpa_set_oct_str+0xb8>
/home/lagadanu/Desktop/qemu/optee_os/lib/libmpa/mpa_io.c:457
    8ec8:	52800013 	mov	w19, #0x0                   	// #0
/home/lagadanu/Desktop/qemu/optee_os/lib/libmpa/mpa_io.c:454
    8ecc:	34fffcd7 	cbz	w23, 8e64 <mpa_set_oct_str+0x3c>
/home/lagadanu/Desktop/qemu/optee_os/lib/libmpa/mpa_io.c:455
    8ed0:	b9400680 	ldr	w0, [x20,#4]
    8ed4:	4b0003e0 	neg	w0, w0
    8ed8:	b9000680 	str	w0, [x20,#4]
    8edc:	17ffffe2 	b	8e64 <mpa_set_oct_str+0x3c>
/home/lagadanu/Desktop/qemu/optee_os/lib/libmpa/mpa_io.c:446
    8ee0:	7100127f 	cmp	w19, #0x4
    8ee4:	110004a1 	add	w1, w5, #0x1
    8ee8:	1a83d260 	csel	w0, w19, w3, le
    8eec:	531d7021 	lsl	w1, w1, #3
/home/lagadanu/Desktop/qemu/optee_os/lib/libmpa/mpa_io.c:448
    8ef0:	4b000273 	sub	w19, w19, w0
    8ef4:	51000400 	sub	w0, w0, #0x1
set_word():
/home/lagadanu/Desktop/qemu/optee_os/lib/libmpa/mpa_io.c:409
    8ef8:	8b33c2a6 	add	x6, x21, w19, sxtw
/home/lagadanu/Desktop/qemu/optee_os/lib/libmpa/mpa_io.c:407
    8efc:	52800002 	mov	w2, #0x0                   	// #0
/home/lagadanu/Desktop/qemu/optee_os/lib/libmpa/mpa_io.c:409
    8f00:	386068c4 	ldrb	w4, [x6,x0]
    8f04:	d1000400 	sub	x0, x0, #0x1
/home/lagadanu/Desktop/qemu/optee_os/lib/libmpa/mpa_io.c:408
    8f08:	3100041f 	cmn	w0, #0x1
/home/lagadanu/Desktop/qemu/optee_os/lib/libmpa/mpa_io.c:409
    8f0c:	1ac12084 	lsl	w4, w4, w1
    8f10:	11002021 	add	w1, w1, #0x8
    8f14:	2a040042 	orr	w2, w2, w4
/home/lagadanu/Desktop/qemu/optee_os/lib/libmpa/mpa_io.c:408
    8f18:	54ffff41 	b.ne	8f00 <mpa_set_oct_str+0xd8>
mpa_set_oct_str():
/home/lagadanu/Desktop/qemu/optee_os/lib/libmpa/mpa_io.c:449
    8f1c:	b80046c2 	str	w2, [x22],#4
/home/lagadanu/Desktop/qemu/optee_os/lib/libmpa/mpa_io.c:451
    8f20:	b9400680 	ldr	w0, [x20,#4]
    8f24:	11000400 	add	w0, w0, #0x1
    8f28:	b9000680 	str	w0, [x20,#4]
    8f2c:	17ffffe5 	b	8ec0 <mpa_set_oct_str+0x98>
/home/lagadanu/Desktop/qemu/optee_os/lib/libmpa/mpa_io.c:439
    8f30:	12800013 	mov	w19, #0xffffffff            	// #-1
    8f34:	17ffffcc 	b	8e64 <mpa_set_oct_str+0x3c>

0000000000008f38 <mpa_get_oct_str>:
mpa_get_oct_str():
/home/lagadanu/Desktop/qemu/optee_os/lib/libmpa/mpa_io.c:471
    8f38:	a9bb7bfd 	stp	x29, x30, [sp,#-80]!
    8f3c:	52800024 	mov	w4, #0x1                   	// #1
    8f40:	910003fd 	mov	x29, sp
    8f44:	a90153f3 	stp	x19, x20, [sp,#16]
__mpa_size_in_base_255():
/home/lagadanu/Desktop/qemu/optee_os/lib/libmpa/mpa_io.c:197
    8f48:	b9400443 	ldr	w3, [x2,#4]
mpa_get_oct_str():
/home/lagadanu/Desktop/qemu/optee_os/lib/libmpa/mpa_io.c:471
    8f4c:	a9025bf5 	stp	x21, x22, [sp,#32]
    8f50:	f9001bf7 	str	x23, [sp,#48]
__mpa_size_in_base_255():
/home/lagadanu/Desktop/qemu/optee_os/lib/libmpa/mpa_io.c:197
    8f54:	7100007f 	cmp	w3, #0x0
    8f58:	540001e0 	b.eq	8f94 <mpa_get_oct_str+0x5c>
/home/lagadanu/Desktop/qemu/optee_os/lib/libmpa/mpa_io.c:201
    8f5c:	5a83a464 	cneg	w4, w3, lt
    8f60:	51000485 	sub	w5, w4, #0x1
/home/lagadanu/Desktop/qemu/optee_os/lib/libmpa/mpa_io.c:200
    8f64:	8b25c845 	add	x5, x2, w5, sxtw #2
    8f68:	b94008a7 	ldr	w7, [x5,#8]
__mpa_count_leading_zero_bits():
/home/lagadanu/Desktop/qemu/optee_os/lib/libmpa/mpa_io.c:176
    8f6c:	52800405 	mov	w5, #0x20                  	// #32
/home/lagadanu/Desktop/qemu/optee_os/lib/libmpa/mpa_io.c:175
    8f70:	340000a7 	cbz	w7, 8f84 <mpa_get_oct_str+0x4c>
    8f74:	52800005 	mov	w5, #0x0                   	// #0
    8f78:	52b00006 	mov	w6, #0x80000000            	// #-2147483648
/home/lagadanu/Desktop/qemu/optee_os/lib/libmpa/mpa_io.c:179
    8f7c:	6a0600ff 	tst	w7, w6
    8f80:	54000180 	b.eq	8fb0 <mpa_get_oct_str+0x78>
__mpa_size_in_base_255():
/home/lagadanu/Desktop/qemu/optee_os/lib/libmpa/mpa_io.c:202
    8f84:	531b6893 	lsl	w19, w4, #5
/home/lagadanu/Desktop/qemu/optee_os/lib/libmpa/mpa_io.c:204
    8f88:	11001e73 	add	w19, w19, #0x7
    8f8c:	4b050273 	sub	w19, w19, w5
    8f90:	53037e64 	lsr	w4, w19, #3
mpa_get_oct_str():
/home/lagadanu/Desktop/qemu/optee_os/lib/libmpa/mpa_io.c:478
    8f94:	f9400025 	ldr	x5, [x1]
/home/lagadanu/Desktop/qemu/optee_os/lib/libmpa/mpa_io.c:472
    8f98:	2a0403f3 	mov	w19, w4
/home/lagadanu/Desktop/qemu/optee_os/lib/libmpa/mpa_io.c:478
    8f9c:	eb05027f 	cmp	x19, x5
    8fa0:	540000e9 	b.ls	8fbc <mpa_get_oct_str+0x84>
/home/lagadanu/Desktop/qemu/optee_os/lib/libmpa/mpa_io.c:479
    8fa4:	f9000033 	str	x19, [x1]
/home/lagadanu/Desktop/qemu/optee_os/lib/libmpa/mpa_io.c:504
    8fa8:	12800000 	mov	w0, #0xffffffff            	// #-1
    8fac:	1400000e 	b	8fe4 <mpa_get_oct_str+0xac>
__mpa_count_leading_zero_bits():
/home/lagadanu/Desktop/qemu/optee_os/lib/libmpa/mpa_io.c:180
    8fb0:	110004a5 	add	w5, w5, #0x1
/home/lagadanu/Desktop/qemu/optee_os/lib/libmpa/mpa_io.c:181
    8fb4:	53017cc6 	lsr	w6, w6, #1
    8fb8:	17fffff1 	b	8f7c <mpa_get_oct_str+0x44>
    8fbc:	aa0203f7 	mov	x23, x2
    8fc0:	aa0103f6 	mov	x22, x1
    8fc4:	aa0003e4 	mov	x4, x0
mpa_get_oct_str():
/home/lagadanu/Desktop/qemu/optee_os/lib/libmpa/mpa_io.c:484
    8fc8:	7100007f 	cmp	w3, #0x0
    8fcc:	54000161 	b.ne	8ff8 <mpa_get_oct_str+0xc0>
/home/lagadanu/Desktop/qemu/optee_os/lib/libmpa/mpa_io.c:485
    8fd0:	aa0503e2 	mov	x2, x5
    8fd4:	52800001 	mov	w1, #0x0                   	// #0
    8fd8:	94000563 	bl	a564 <memset>
/home/lagadanu/Desktop/qemu/optee_os/lib/libmpa/mpa_io.c:513
    8fdc:	52800000 	mov	w0, #0x0                   	// #0
/home/lagadanu/Desktop/qemu/optee_os/lib/libmpa/mpa_io.c:512
    8fe0:	f90002d3 	str	x19, [x22]
/home/lagadanu/Desktop/qemu/optee_os/lib/libmpa/mpa_io.c:514
    8fe4:	a94153f3 	ldp	x19, x20, [sp,#16]
    8fe8:	a9425bf5 	ldp	x21, x22, [sp,#32]
    8fec:	f9401bf7 	ldr	x23, [sp,#48]
    8ff0:	a8c57bfd 	ldp	x29, x30, [sp],#80
    8ff4:	d65f03c0 	ret
/home/lagadanu/Desktop/qemu/optee_os/lib/libmpa/mpa_io.c:483
    8ff8:	5a83a474 	cneg	w20, w3, lt
/home/lagadanu/Desktop/qemu/optee_os/lib/libmpa/mpa_io.c:488
    8ffc:	51000680 	sub	w0, w20, #0x1
/home/lagadanu/Desktop/qemu/optee_os/lib/libmpa/mpa_io.c:491
    9000:	8b20c840 	add	x0, x2, w0, sxtw #2
    9004:	b9400801 	ldr	w1, [x0,#8]
get_word():
/home/lagadanu/Desktop/qemu/optee_os/lib/libmpa/mpa_io.c:465
    9008:	39012fa1 	strb	w1, [x29,#75]
/home/lagadanu/Desktop/qemu/optee_os/lib/libmpa/mpa_io.c:466
    900c:	53087c20 	lsr	w0, w1, #8
    9010:	53187c23 	lsr	w3, w1, #24
/home/lagadanu/Desktop/qemu/optee_os/lib/libmpa/mpa_io.c:465
    9014:	39012ba0 	strb	w0, [x29,#74]
/home/lagadanu/Desktop/qemu/optee_os/lib/libmpa/mpa_io.c:466
    9018:	53107c20 	lsr	w0, w1, #16
/home/lagadanu/Desktop/qemu/optee_os/lib/libmpa/mpa_io.c:465
    901c:	910143a1 	add	x1, x29, #0x50
    9020:	390127a0 	strb	w0, [x29,#73]
    9024:	d2800000 	mov	x0, #0x0                   	// #0
    9028:	381f8c23 	strb	w3, [x1,#-8]!
mpa_get_oct_str():
/home/lagadanu/Desktop/qemu/optee_os/lib/libmpa/mpa_io.c:494
    902c:	38616802 	ldrb	w2, [x0,x1]
    9030:	34000342 	cbz	w2, 9098 <mpa_get_oct_str+0x160>
/home/lagadanu/Desktop/qemu/optee_os/lib/libmpa/mpa_io.c:495
    9034:	52800095 	mov	w21, #0x4                   	// #4
    9038:	4b0002b5 	sub	w21, w21, w0
    903c:	93407eb5 	sxtw	x21, w21
    9040:	8b20c021 	add	x1, x1, w0, sxtw
    9044:	aa1503e2 	mov	x2, x21
    9048:	aa0403e0 	mov	x0, x4
    904c:	97ffe0b3 	bl	1318 <memcpy>
    9050:	aa0003e4 	mov	x4, x0
/home/lagadanu/Desktop/qemu/optee_os/lib/libmpa/mpa_io.c:500
    9054:	51000a83 	sub	w3, w20, #0x2
    9058:	93407c63 	sxtw	x3, w3
/home/lagadanu/Desktop/qemu/optee_os/lib/libmpa/mpa_io.c:502
    905c:	37fffc03 	tbnz	w3, #31, 8fdc <mpa_get_oct_str+0xa4>
/home/lagadanu/Desktop/qemu/optee_os/lib/libmpa/mpa_io.c:503
    9060:	eb1302bf 	cmp	x21, x19
    9064:	54fffa28 	b.hi	8fa8 <mpa_get_oct_str+0x70>
/home/lagadanu/Desktop/qemu/optee_os/lib/libmpa/mpa_io.c:505
    9068:	8b030ae0 	add	x0, x23, x3, lsl #2
get_word():
/home/lagadanu/Desktop/qemu/optee_os/lib/libmpa/mpa_io.c:465
    906c:	8b150082 	add	x2, x4, x21
mpa_get_oct_str():
/home/lagadanu/Desktop/qemu/optee_os/lib/libmpa/mpa_io.c:505
    9070:	b9400801 	ldr	w1, [x0,#8]
    9074:	d2800060 	mov	x0, #0x3                   	// #3
get_word():
/home/lagadanu/Desktop/qemu/optee_os/lib/libmpa/mpa_io.c:465
    9078:	38206841 	strb	w1, [x2,x0]
    907c:	d1000400 	sub	x0, x0, #0x1
/home/lagadanu/Desktop/qemu/optee_os/lib/libmpa/mpa_io.c:466
    9080:	53087c21 	lsr	w1, w1, #8
/home/lagadanu/Desktop/qemu/optee_os/lib/libmpa/mpa_io.c:464
    9084:	b100041f 	cmn	x0, #0x1
    9088:	54ffff81 	b.ne	9078 <mpa_get_oct_str+0x140>
mpa_get_oct_str():
/home/lagadanu/Desktop/qemu/optee_os/lib/libmpa/mpa_io.c:507
    908c:	910012b5 	add	x21, x21, #0x4
    9090:	d1000463 	sub	x3, x3, #0x1
    9094:	17fffff2 	b	905c <mpa_get_oct_str+0x124>
    9098:	91000400 	add	x0, x0, #0x1
/home/lagadanu/Desktop/qemu/optee_os/lib/libmpa/mpa_io.c:493 (discriminator 2)
    909c:	f100101f 	cmp	x0, #0x4
    90a0:	54fffc61 	b.ne	902c <mpa_get_oct_str+0xf4>
/home/lagadanu/Desktop/qemu/optee_os/lib/libmpa/mpa_io.c:474
    90a4:	d2800015 	mov	x21, #0x0                   	// #0
    90a8:	17ffffeb 	b	9054 <mpa_get_oct_str+0x11c>

00000000000090ac <mpa_mod>:
mpa_mod():
/home/lagadanu/Desktop/qemu/optee_os/lib/libmpa/mpa_modulus.c:20
    90ac:	aa0303e4 	mov	x4, x3
    90b0:	aa0203e3 	mov	x3, x2
    90b4:	aa0103e2 	mov	x2, x1
    90b8:	aa0003e1 	mov	x1, x0
    90bc:	d2800000 	mov	x0, #0x0                   	// #0
    90c0:	17fff648 	b	69e0 <mpa_div>

00000000000090c4 <mpa_add_mod>:
mpa_add_mod():
/home/lagadanu/Desktop/qemu/optee_os/lib/libmpa/mpa_modulus.c:31
    90c4:	a9bb7bfd 	stp	x29, x30, [sp,#-80]!
    90c8:	910003fd 	mov	x29, sp
    90cc:	a90153f3 	stp	x19, x20, [sp,#16]
/home/lagadanu/Desktop/qemu/optee_os/lib/libmpa/mpa_modulus.c:34
    90d0:	910123b3 	add	x19, x29, #0x48
/home/lagadanu/Desktop/qemu/optee_os/lib/libmpa/mpa_modulus.c:31
    90d4:	aa0403f4 	mov	x20, x4
    90d8:	a9025bf5 	stp	x21, x22, [sp,#32]
    90dc:	a90363f7 	stp	x23, x24, [sp,#48]
    90e0:	aa0303f6 	mov	x22, x3
    90e4:	aa0003f5 	mov	x21, x0
    90e8:	aa0103f7 	mov	x23, x1
    90ec:	aa0203f8 	mov	x24, x2
/home/lagadanu/Desktop/qemu/optee_os/lib/libmpa/mpa_modulus.c:34
    90f0:	aa0403e1 	mov	x1, x4
    90f4:	aa1303e0 	mov	x0, x19
    90f8:	97fff8a7 	bl	7394 <mpa_alloc_static_temp_var>
/home/lagadanu/Desktop/qemu/optee_os/lib/libmpa/mpa_modulus.c:36
    90fc:	f94027a0 	ldr	x0, [x29,#72]
    9100:	aa1403e3 	mov	x3, x20
    9104:	aa1803e2 	mov	x2, x24
    9108:	aa1703e1 	mov	x1, x23
    910c:	97fffba1 	bl	7f90 <mpa_add>
/home/lagadanu/Desktop/qemu/optee_os/lib/libmpa/mpa_modulus.c:37
    9110:	f94027a2 	ldr	x2, [x29,#72]
    9114:	aa1403e4 	mov	x4, x20
    9118:	aa1603e3 	mov	x3, x22
    911c:	aa1503e1 	mov	x1, x21
    9120:	d2800000 	mov	x0, #0x0                   	// #0
    9124:	97fff62f 	bl	69e0 <mpa_div>
/home/lagadanu/Desktop/qemu/optee_os/lib/libmpa/mpa_modulus.c:39
    9128:	aa1403e1 	mov	x1, x20
    912c:	aa1303e0 	mov	x0, x19
    9130:	97fff89d 	bl	73a4 <mpa_free_static_temp_var>
/home/lagadanu/Desktop/qemu/optee_os/lib/libmpa/mpa_modulus.c:40
    9134:	a94153f3 	ldp	x19, x20, [sp,#16]
    9138:	a9425bf5 	ldp	x21, x22, [sp,#32]
    913c:	a94363f7 	ldp	x23, x24, [sp,#48]
    9140:	a8c57bfd 	ldp	x29, x30, [sp],#80
    9144:	d65f03c0 	ret

0000000000009148 <mpa_sub_mod>:
mpa_sub_mod():
/home/lagadanu/Desktop/qemu/optee_os/lib/libmpa/mpa_modulus.c:50
    9148:	a9bb7bfd 	stp	x29, x30, [sp,#-80]!
    914c:	910003fd 	mov	x29, sp
    9150:	a90153f3 	stp	x19, x20, [sp,#16]
/home/lagadanu/Desktop/qemu/optee_os/lib/libmpa/mpa_modulus.c:53
    9154:	910123b3 	add	x19, x29, #0x48
/home/lagadanu/Desktop/qemu/optee_os/lib/libmpa/mpa_modulus.c:50
    9158:	aa0403f4 	mov	x20, x4
    915c:	a9025bf5 	stp	x21, x22, [sp,#32]
    9160:	a90363f7 	stp	x23, x24, [sp,#48]
    9164:	aa0303f6 	mov	x22, x3
    9168:	aa0003f5 	mov	x21, x0
    916c:	aa0103f7 	mov	x23, x1
    9170:	aa0203f8 	mov	x24, x2
/home/lagadanu/Desktop/qemu/optee_os/lib/libmpa/mpa_modulus.c:53
    9174:	aa0403e1 	mov	x1, x4
    9178:	aa1303e0 	mov	x0, x19
    917c:	97fff886 	bl	7394 <mpa_alloc_static_temp_var>
/home/lagadanu/Desktop/qemu/optee_os/lib/libmpa/mpa_modulus.c:55
    9180:	f94027a0 	ldr	x0, [x29,#72]
    9184:	aa1403e3 	mov	x3, x20
    9188:	aa1803e2 	mov	x2, x24
    918c:	aa1703e1 	mov	x1, x23
    9190:	97fffbe5 	bl	8124 <mpa_sub>
/home/lagadanu/Desktop/qemu/optee_os/lib/libmpa/mpa_modulus.c:56
    9194:	f94027a2 	ldr	x2, [x29,#72]
    9198:	aa1403e4 	mov	x4, x20
    919c:	aa1603e3 	mov	x3, x22
    91a0:	aa1503e1 	mov	x1, x21
    91a4:	d2800000 	mov	x0, #0x0                   	// #0
    91a8:	97fff60e 	bl	69e0 <mpa_div>
/home/lagadanu/Desktop/qemu/optee_os/lib/libmpa/mpa_modulus.c:58
    91ac:	aa1403e1 	mov	x1, x20
    91b0:	aa1303e0 	mov	x0, x19
    91b4:	97fff87c 	bl	73a4 <mpa_free_static_temp_var>
/home/lagadanu/Desktop/qemu/optee_os/lib/libmpa/mpa_modulus.c:59
    91b8:	a94153f3 	ldp	x19, x20, [sp,#16]
    91bc:	a9425bf5 	ldp	x21, x22, [sp,#32]
    91c0:	a94363f7 	ldp	x23, x24, [sp,#48]
    91c4:	a8c57bfd 	ldp	x29, x30, [sp],#80
    91c8:	d65f03c0 	ret

00000000000091cc <mpa_mul_mod>:
mpa_mul_mod():
/home/lagadanu/Desktop/qemu/optee_os/lib/libmpa/mpa_modulus.c:69
    91cc:	a9bb7bfd 	stp	x29, x30, [sp,#-80]!
    91d0:	910003fd 	mov	x29, sp
    91d4:	a90153f3 	stp	x19, x20, [sp,#16]
/home/lagadanu/Desktop/qemu/optee_os/lib/libmpa/mpa_modulus.c:72
    91d8:	910123b3 	add	x19, x29, #0x48
/home/lagadanu/Desktop/qemu/optee_os/lib/libmpa/mpa_modulus.c:69
    91dc:	aa0403f4 	mov	x20, x4
    91e0:	a9025bf5 	stp	x21, x22, [sp,#32]
    91e4:	a90363f7 	stp	x23, x24, [sp,#48]
    91e8:	aa0303f6 	mov	x22, x3
    91ec:	aa0003f5 	mov	x21, x0
    91f0:	aa0103f7 	mov	x23, x1
    91f4:	aa0203f8 	mov	x24, x2
/home/lagadanu/Desktop/qemu/optee_os/lib/libmpa/mpa_modulus.c:72
    91f8:	aa0403e1 	mov	x1, x4
    91fc:	aa1303e0 	mov	x0, x19
    9200:	97fff865 	bl	7394 <mpa_alloc_static_temp_var>
/home/lagadanu/Desktop/qemu/optee_os/lib/libmpa/mpa_modulus.c:74
    9204:	f94027a0 	ldr	x0, [x29,#72]
    9208:	aa1403e3 	mov	x3, x20
    920c:	aa1803e2 	mov	x2, x24
    9210:	aa1703e1 	mov	x1, x23
    9214:	97fff8dc 	bl	7584 <mpa_mul>
/home/lagadanu/Desktop/qemu/optee_os/lib/libmpa/mpa_modulus.c:75
    9218:	f94027a2 	ldr	x2, [x29,#72]
    921c:	aa1403e4 	mov	x4, x20
    9220:	aa1603e3 	mov	x3, x22
    9224:	aa1503e1 	mov	x1, x21
    9228:	d2800000 	mov	x0, #0x0                   	// #0
    922c:	97fff5ed 	bl	69e0 <mpa_div>
/home/lagadanu/Desktop/qemu/optee_os/lib/libmpa/mpa_modulus.c:77
    9230:	aa1403e1 	mov	x1, x20
    9234:	aa1303e0 	mov	x0, x19
    9238:	97fff85b 	bl	73a4 <mpa_free_static_temp_var>
/home/lagadanu/Desktop/qemu/optee_os/lib/libmpa/mpa_modulus.c:78
    923c:	a94153f3 	ldp	x19, x20, [sp,#16]
    9240:	a9425bf5 	ldp	x21, x22, [sp,#32]
    9244:	a94363f7 	ldp	x23, x24, [sp,#48]
    9248:	a8c57bfd 	ldp	x29, x30, [sp],#80
    924c:	d65f03c0 	ret

0000000000009250 <mpa_inv_mod>:
mpa_inv_mod():
/home/lagadanu/Desktop/qemu/optee_os/lib/libmpa/mpa_modulus.c:87
    9250:	a9bb7bfd 	stp	x29, x30, [sp,#-80]!
    9254:	910003fd 	mov	x29, sp
    9258:	a9025bf5 	stp	x21, x22, [sp,#32]
    925c:	aa0103f6 	mov	x22, x1
    9260:	a90153f3 	stp	x19, x20, [sp,#16]
/home/lagadanu/Desktop/qemu/optee_os/lib/libmpa/mpa_modulus.c:93
    9264:	52800021 	mov	w1, #0x1                   	// #1
/home/lagadanu/Desktop/qemu/optee_os/lib/libmpa/mpa_modulus.c:87
    9268:	a90363f7 	stp	x23, x24, [sp,#48]
    926c:	aa0003f3 	mov	x19, x0
    9270:	aa0203f7 	mov	x23, x2
    9274:	aa0303f4 	mov	x20, x3
/home/lagadanu/Desktop/qemu/optee_os/lib/libmpa/mpa_modulus.c:93
    9278:	aa1603e0 	mov	x0, x22
    927c:	97fffd0c 	bl	86ac <mpa_cmp_short>
    9280:	35000160 	cbnz	w0, 92ac <mpa_inv_mod+0x5c>
/home/lagadanu/Desktop/qemu/optee_os/lib/libmpa/mpa_modulus.c:95
    9284:	52800015 	mov	w21, #0x0                   	// #0
/home/lagadanu/Desktop/qemu/optee_os/lib/libmpa/mpa_modulus.c:94
    9288:	52800021 	mov	w1, #0x1                   	// #1
    928c:	aa1303e0 	mov	x0, x19
    9290:	97fff399 	bl	60f4 <mpa_set_S32>
/home/lagadanu/Desktop/qemu/optee_os/lib/libmpa/mpa_modulus.c:122
    9294:	2a1503e0 	mov	w0, w21
    9298:	a94153f3 	ldp	x19, x20, [sp,#16]
    929c:	a9425bf5 	ldp	x21, x22, [sp,#32]
    92a0:	a94363f7 	ldp	x23, x24, [sp,#48]
    92a4:	a8c57bfd 	ldp	x29, x30, [sp],#80
    92a8:	d65f03c0 	ret
/home/lagadanu/Desktop/qemu/optee_os/lib/libmpa/mpa_modulus.c:99
    92ac:	eb1302df 	cmp	x22, x19
    92b0:	54000421 	b.ne	9334 <mpa_inv_mod+0xe4>
/home/lagadanu/Desktop/qemu/optee_os/lib/libmpa/mpa_modulus.c:100
    92b4:	aa1403e1 	mov	x1, x20
    92b8:	910123a0 	add	x0, x29, #0x48
    92bc:	97fff836 	bl	7394 <mpa_alloc_static_temp_var>
/home/lagadanu/Desktop/qemu/optee_os/lib/libmpa/mpa_modulus.c:104
    92c0:	910103b8 	add	x24, x29, #0x40
    92c4:	aa1403e1 	mov	x1, x20
    92c8:	aa1803e0 	mov	x0, x24
    92cc:	97fff832 	bl	7394 <mpa_alloc_static_temp_var>
/home/lagadanu/Desktop/qemu/optee_os/lib/libmpa/mpa_modulus.c:106
    92d0:	a94407a0 	ldp	x0, x1, [x29,#64]
    92d4:	aa1403e5 	mov	x5, x20
    92d8:	aa1703e4 	mov	x4, x23
    92dc:	aa1603e3 	mov	x3, x22
    92e0:	d2800002 	mov	x2, #0x0                   	// #0
    92e4:	97fff79e 	bl	715c <mpa_extended_gcd>
/home/lagadanu/Desktop/qemu/optee_os/lib/libmpa/mpa_modulus.c:107
    92e8:	f94023a0 	ldr	x0, [x29,#64]
    92ec:	52800021 	mov	w1, #0x1                   	// #1
    92f0:	97fffcef 	bl	86ac <mpa_cmp_short>
    92f4:	2a0003f5 	mov	w21, w0
/home/lagadanu/Desktop/qemu/optee_os/lib/libmpa/mpa_modulus.c:109
    92f8:	eb1302df 	cmp	x22, x19
    92fc:	54000101 	b.ne	931c <mpa_inv_mod+0xcc>
/home/lagadanu/Desktop/qemu/optee_os/lib/libmpa/mpa_modulus.c:110
    9300:	910143b6 	add	x22, x29, #0x50
    9304:	aa1303e0 	mov	x0, x19
    9308:	f85f8ec1 	ldr	x1, [x22,#-8]!
    930c:	97fff143 	bl	5818 <mpa_copy>
/home/lagadanu/Desktop/qemu/optee_os/lib/libmpa/mpa_modulus.c:111
    9310:	aa1403e1 	mov	x1, x20
    9314:	aa1603e0 	mov	x0, x22
    9318:	97fff823 	bl	73a4 <mpa_free_static_temp_var>
/home/lagadanu/Desktop/qemu/optee_os/lib/libmpa/mpa_modulus.c:114
    931c:	aa1403e1 	mov	x1, x20
    9320:	aa1803e0 	mov	x0, x24
    9324:	97fff820 	bl	73a4 <mpa_free_static_temp_var>
/home/lagadanu/Desktop/qemu/optee_os/lib/libmpa/mpa_modulus.c:115
    9328:	34000155 	cbz	w21, 9350 <mpa_inv_mod+0x100>
/home/lagadanu/Desktop/qemu/optee_os/lib/libmpa/mpa_modulus.c:120
    932c:	12800015 	mov	w21, #0xffffffff            	// #-1
    9330:	17ffffd9 	b	9294 <mpa_inv_mod+0x44>
/home/lagadanu/Desktop/qemu/optee_os/lib/libmpa/mpa_modulus.c:102
    9334:	f90027b3 	str	x19, [x29,#72]
    9338:	17ffffe2 	b	92c0 <mpa_inv_mod+0x70>
/home/lagadanu/Desktop/qemu/optee_os/lib/libmpa/mpa_modulus.c:117
    933c:	aa1403e3 	mov	x3, x20
    9340:	aa1703e2 	mov	x2, x23
    9344:	aa1303e1 	mov	x1, x19
    9348:	aa1303e0 	mov	x0, x19
    934c:	97fffb11 	bl	7f90 <mpa_add>
/home/lagadanu/Desktop/qemu/optee_os/lib/libmpa/mpa_modulus.c:116
    9350:	52800001 	mov	w1, #0x0                   	// #0
    9354:	aa1303e0 	mov	x0, x19
    9358:	97fffcd5 	bl	86ac <mpa_cmp_short>
    935c:	37ffff00 	tbnz	w0, #31, 933c <mpa_inv_mod+0xec>
    9360:	17ffffcd 	b	9294 <mpa_inv_mod+0x44>

0000000000009364 <raw_malloc_return_hook.isra.3>:
raw_malloc_return_hook():
/home/lagadanu/Desktop/qemu/optee_os/lib/libutils/isoc/bget_malloc.c:167
    9364:	d0000063 	adrp	x3, 17000 <buf.3610+0x4b0>
    9368:	912d6064 	add	x4, x3, #0xb58
    936c:	b9402485 	ldr	w5, [x4,#36]
    9370:	eb0200bf 	cmp	x5, x2
    9374:	5400004a 	b.ge	937c <raw_malloc_return_hook.isra.3+0x18>
/home/lagadanu/Desktop/qemu/optee_os/lib/libutils/isoc/bget_malloc.c:168
    9378:	b9002482 	str	w2, [x4,#36]
/home/lagadanu/Desktop/qemu/optee_os/lib/libutils/isoc/bget_malloc.c:170
    937c:	b5000120 	cbnz	x0, 93a0 <raw_malloc_return_hook.isra.3+0x3c>
/home/lagadanu/Desktop/qemu/optee_os/lib/libutils/isoc/bget_malloc.c:171
    9380:	912d6060 	add	x0, x3, #0xb58
    9384:	b9402c03 	ldr	w3, [x0,#44]
    9388:	11000463 	add	w3, w3, #0x1
    938c:	b9002c03 	str	w3, [x0,#44]
/home/lagadanu/Desktop/qemu/optee_os/lib/libutils/isoc/bget_malloc.c:172
    9390:	b9403003 	ldr	w3, [x0,#48]
    9394:	eb01007f 	cmp	x3, x1
    9398:	54000042 	b.cs	93a0 <raw_malloc_return_hook.isra.3+0x3c>
/home/lagadanu/Desktop/qemu/optee_os/lib/libutils/isoc/bget_malloc.c:174
    939c:	29060801 	stp	w1, w2, [x0,#48]
    93a0:	d65f03c0 	ret

00000000000093a4 <create_free_block.constprop.11>:
create_free_block():
/home/lagadanu/Desktop/qemu/optee_os/lib/libutils/isoc/bget_malloc.c:380
    93a4:	a9bf7bfd 	stp	x29, x30, [sp,#-16]!
/home/lagadanu/Desktop/qemu/optee_os/lib/libutils/isoc/bget_malloc.c:383
    93a8:	8b010003 	add	x3, x0, x1
    93ac:	eb02007f 	cmp	x3, x2
/home/lagadanu/Desktop/qemu/optee_os/lib/libutils/isoc/bget_malloc.c:380
    93b0:	910003fd 	mov	x29, sp
/home/lagadanu/Desktop/qemu/optee_os/lib/libutils/isoc/bget_malloc.c:383
    93b4:	54000140 	b.eq	93dc <create_free_block.constprop.11+0x38>
    93b8:	d0000003 	adrp	x3, b000 <PRIME_TABLE+0x7f0>
    93bc:	d0000001 	adrp	x1, b000 <PRIME_TABLE+0x7f0>
    93c0:	d0000000 	adrp	x0, b000 <PRIME_TABLE+0x7f0>
    93c4:	9115a063 	add	x3, x3, #0x568
    93c8:	9120cc21 	add	x1, x1, #0x833
    93cc:	91214c00 	add	x0, x0, #0x853
    93d0:	52802fe2 	mov	w2, #0x17f                 	// #383
/home/lagadanu/Desktop/qemu/optee_os/lib/libutils/isoc/bget_malloc.c:384
    93d4:	940004c5 	bl	a6e8 <_assert_log>
    93d8:	940004d5 	bl	a72c <_assert_break>
    93dc:	f9400462 	ldr	x2, [x3,#8]
    93e0:	b7f80122 	tbnz	x2, #63, 9404 <create_free_block.constprop.11+0x60>
    93e4:	d0000003 	adrp	x3, b000 <PRIME_TABLE+0x7f0>
    93e8:	d0000001 	adrp	x1, b000 <PRIME_TABLE+0x7f0>
    93ec:	d0000000 	adrp	x0, b000 <PRIME_TABLE+0x7f0>
    93f0:	9115a063 	add	x3, x3, #0x568
    93f4:	52803002 	mov	w2, #0x180                 	// #384
    93f8:	9120cc21 	add	x1, x1, #0x833
    93fc:	9121bc00 	add	x0, x0, #0x86f
    9400:	17fffff5 	b	93d4 <create_free_block.constprop.11+0x30>
/home/lagadanu/Desktop/qemu/optee_os/lib/libutils/isoc/bget_malloc.c:386
    9404:	f8616802 	ldr	x2, [x0,x1]
    9408:	b4000122 	cbz	x2, 942c <create_free_block.constprop.11+0x88>
    940c:	d0000003 	adrp	x3, b000 <PRIME_TABLE+0x7f0>
    9410:	d0000001 	adrp	x1, b000 <PRIME_TABLE+0x7f0>
    9414:	d0000000 	adrp	x0, b000 <PRIME_TABLE+0x7f0>
    9418:	9115a063 	add	x3, x3, #0x568
    941c:	52803042 	mov	w2, #0x182                 	// #386
    9420:	9120cc21 	add	x1, x1, #0x833
    9424:	9121f400 	add	x0, x0, #0x87d
    9428:	17ffffeb 	b	93d4 <create_free_block.constprop.11+0x30>
/home/lagadanu/Desktop/qemu/optee_os/lib/libutils/isoc/bget_malloc.c:389
    942c:	a900041f 	stp	xzr, x1, [x0]
/home/lagadanu/Desktop/qemu/optee_os/lib/libutils/isoc/bget_malloc.c:393
    9430:	f8216801 	str	x1, [x0,x1]
/home/lagadanu/Desktop/qemu/optee_os/lib/libutils/isoc/bget_malloc.c:396
    9434:	90000021 	adrp	x1, d000 <iv>
    9438:	91044021 	add	x1, x1, #0x110
    943c:	f9400c23 	ldr	x3, [x1,#24]
    9440:	f9400862 	ldr	x2, [x3,#16]
    9444:	eb01005f 	cmp	x2, x1
    9448:	54000120 	b.eq	946c <create_free_block.constprop.11+0xc8>
    944c:	d0000003 	adrp	x3, b000 <PRIME_TABLE+0x7f0>
    9450:	d0000001 	adrp	x1, b000 <PRIME_TABLE+0x7f0>
    9454:	d0000000 	adrp	x0, b000 <PRIME_TABLE+0x7f0>
    9458:	9115a063 	add	x3, x3, #0x568
    945c:	52803182 	mov	w2, #0x18c                 	// #396
    9460:	9120cc21 	add	x1, x1, #0x833
    9464:	91223c00 	add	x0, x0, #0x88f
    9468:	17ffffdb 	b	93d4 <create_free_block.constprop.11+0x30>
/home/lagadanu/Desktop/qemu/optee_os/lib/libutils/isoc/bget_malloc.c:397
    946c:	f9400841 	ldr	x1, [x2,#16]
    9470:	f9400c21 	ldr	x1, [x1,#24]
    9474:	eb02003f 	cmp	x1, x2
    9478:	54000120 	b.eq	949c <create_free_block.constprop.11+0xf8>
    947c:	d0000003 	adrp	x3, b000 <PRIME_TABLE+0x7f0>
    9480:	d0000001 	adrp	x1, b000 <PRIME_TABLE+0x7f0>
    9484:	d0000000 	adrp	x0, b000 <PRIME_TABLE+0x7f0>
    9488:	9115a063 	add	x3, x3, #0x568
    948c:	528031a2 	mov	w2, #0x18d                 	// #397
    9490:	9120cc21 	add	x1, x1, #0x833
    9494:	91232800 	add	x0, x0, #0x8ca
    9498:	17ffffcf 	b	93d4 <create_free_block.constprop.11+0x30>
/home/lagadanu/Desktop/qemu/optee_os/lib/libutils/isoc/bget_malloc.c:399
    949c:	a9010c01 	stp	x1, x3, [x0,#16]
/home/lagadanu/Desktop/qemu/optee_os/lib/libutils/isoc/bget_malloc.c:400
    94a0:	f9000c20 	str	x0, [x1,#24]
/home/lagadanu/Desktop/qemu/optee_os/lib/libutils/isoc/bget_malloc.c:401
    94a4:	f9400c01 	ldr	x1, [x0,#24]
    94a8:	f9000820 	str	x0, [x1,#16]
/home/lagadanu/Desktop/qemu/optee_os/lib/libutils/isoc/bget_malloc.c:402
    94ac:	a8c17bfd 	ldp	x29, x30, [sp],#16
    94b0:	d65f03c0 	ret

00000000000094b4 <bget>:
bget():
/home/lagadanu/Desktop/qemu/optee_os/lib/libutils/isoc/bget.c:576
    94b4:	a9bf7bfd 	stp	x29, x30, [sp,#-16]!
/home/lagadanu/Desktop/qemu/optee_os/lib/libutils/isoc/bget.c:587
    94b8:	f100001f 	cmp	x0, #0x0
/home/lagadanu/Desktop/qemu/optee_os/lib/libutils/isoc/bget.c:576
    94bc:	910003fd 	mov	x29, sp
/home/lagadanu/Desktop/qemu/optee_os/lib/libutils/isoc/bget.c:587
    94c0:	5400016c 	b.gt	94ec <bget+0x38>
/home/lagadanu/Desktop/qemu/optee_os/lib/libutils/isoc/bget.c:587 (discriminator 1)
    94c4:	d0000003 	adrp	x3, b000 <PRIME_TABLE+0x7f0>
    94c8:	9115a063 	add	x3, x3, #0x568
    94cc:	d0000001 	adrp	x1, b000 <PRIME_TABLE+0x7f0>
    94d0:	d0000000 	adrp	x0, b000 <PRIME_TABLE+0x7f0>
    94d4:	91006063 	add	x3, x3, #0x18
    94d8:	91241421 	add	x1, x1, #0x905
    94dc:	912bf000 	add	x0, x0, #0xafc
    94e0:	52804962 	mov	w2, #0x24b                 	// #587
/home/lagadanu/Desktop/qemu/optee_os/lib/libutils/isoc/bget.c:647 (discriminator 1)
    94e4:	94000481 	bl	a6e8 <_assert_log>
    94e8:	94000491 	bl	a72c <_assert_break>
/home/lagadanu/Desktop/qemu/optee_os/lib/libutils/isoc/bget.c:594
    94ec:	f100401f 	cmp	x0, #0x10
    94f0:	d2800202 	mov	x2, #0x10                  	// #16
    94f4:	9a82a002 	csel	x2, x0, x2, ge
/home/lagadanu/Desktop/qemu/optee_os/lib/libutils/isoc/bget.c:608
    94f8:	f9400820 	ldr	x0, [x1,#16]
/home/lagadanu/Desktop/qemu/optee_os/lib/libutils/isoc/bget.c:594
    94fc:	91003c42 	add	x2, x2, #0xf
    9500:	927cec42 	and	x2, x2, #0xfffffffffffffff0
/home/lagadanu/Desktop/qemu/optee_os/lib/libutils/isoc/bget.c:598
    9504:	91004042 	add	x2, x2, #0x10
/home/lagadanu/Desktop/qemu/optee_os/lib/libutils/isoc/bget.c:630
    9508:	eb01001f 	cmp	x0, x1
    950c:	54000061 	b.ne	9518 <bget+0x64>
/home/lagadanu/Desktop/qemu/optee_os/lib/libutils/isoc/bget.c:758
    9510:	d2800000 	mov	x0, #0x0                   	// #0
    9514:	1400001f 	b	9590 <bget+0xdc>
/home/lagadanu/Desktop/qemu/optee_os/lib/libutils/isoc/bget.c:631
    9518:	f9400403 	ldr	x3, [x0,#8]
    951c:	eb03005f 	cmp	x2, x3
    9520:	54000a6c 	b.gt	966c <bget+0x1b8>
/home/lagadanu/Desktop/qemu/optee_os/lib/libutils/isoc/bget.c:642
    9524:	cb020064 	sub	x4, x3, x2
    9528:	f100809f 	cmp	x4, #0x20
    952c:	5400036d 	b.le	9598 <bget+0xe4>
/home/lagadanu/Desktop/qemu/optee_os/lib/libutils/isoc/bget.c:645
    9530:	8b040005 	add	x5, x0, x4
/home/lagadanu/Desktop/qemu/optee_os/lib/libutils/isoc/bget.c:647
    9534:	f86268a6 	ldr	x6, [x5,x2]
    9538:	eb06007f 	cmp	x3, x6
    953c:	54000140 	b.eq	9564 <bget+0xb0>
/home/lagadanu/Desktop/qemu/optee_os/lib/libutils/isoc/bget.c:647 (discriminator 1)
    9540:	d0000003 	adrp	x3, b000 <PRIME_TABLE+0x7f0>
    9544:	9115a063 	add	x3, x3, #0x568
    9548:	d0000001 	adrp	x1, b000 <PRIME_TABLE+0x7f0>
    954c:	d0000000 	adrp	x0, b000 <PRIME_TABLE+0x7f0>
    9550:	91006063 	add	x3, x3, #0x18
    9554:	528050e2 	mov	w2, #0x287                 	// #647
    9558:	91241421 	add	x1, x1, #0x905
    955c:	91247800 	add	x0, x0, #0x91e
    9560:	17ffffe1 	b	94e4 <bget+0x30>
/home/lagadanu/Desktop/qemu/optee_os/lib/libutils/isoc/bget.c:649
    9564:	f9000404 	str	x4, [x0,#8]
/home/lagadanu/Desktop/qemu/optee_os/lib/libutils/isoc/bget.c:651
    9568:	f8246804 	str	x4, [x0,x4]
/home/lagadanu/Desktop/qemu/optee_os/lib/libutils/isoc/bget.c:653
    956c:	cb0203e0 	neg	x0, x2
    9570:	f90004a0 	str	x0, [x5,#8]
/home/lagadanu/Desktop/qemu/optee_os/lib/libutils/isoc/bget.c:658
    9574:	f9401020 	ldr	x0, [x1,#32]
/home/lagadanu/Desktop/qemu/optee_os/lib/libutils/isoc/bget.c:655
    9578:	f82268bf 	str	xzr, [x5,x2]
/home/lagadanu/Desktop/qemu/optee_os/lib/libutils/isoc/bget.c:658
    957c:	8b020002 	add	x2, x0, x2
/home/lagadanu/Desktop/qemu/optee_os/lib/libutils/isoc/bget.c:659
    9580:	f9401420 	ldr	x0, [x1,#40]
    9584:	91000400 	add	x0, x0, #0x1
    9588:	a9020022 	stp	x2, x0, [x1,#32]
/home/lagadanu/Desktop/qemu/optee_os/lib/libutils/isoc/bget.c:661
    958c:	910040a0 	add	x0, x5, #0x10
/home/lagadanu/Desktop/qemu/optee_os/lib/libutils/isoc/bget.c:759
    9590:	a8c17bfd 	ldp	x29, x30, [sp],#16
    9594:	d65f03c0 	ret
/home/lagadanu/Desktop/qemu/optee_os/lib/libutils/isoc/bget.c:668
    9598:	f8636802 	ldr	x2, [x0,x3]
/home/lagadanu/Desktop/qemu/optee_os/lib/libutils/isoc/bget.c:667
    959c:	8b030005 	add	x5, x0, x3
/home/lagadanu/Desktop/qemu/optee_os/lib/libutils/isoc/bget.c:668
    95a0:	eb02007f 	cmp	x3, x2
    95a4:	54000140 	b.eq	95cc <bget+0x118>
/home/lagadanu/Desktop/qemu/optee_os/lib/libutils/isoc/bget.c:668 (discriminator 1)
    95a8:	d0000003 	adrp	x3, b000 <PRIME_TABLE+0x7f0>
    95ac:	9115a063 	add	x3, x3, #0x568
    95b0:	d0000001 	adrp	x1, b000 <PRIME_TABLE+0x7f0>
    95b4:	d0000000 	adrp	x0, b000 <PRIME_TABLE+0x7f0>
    95b8:	91006063 	add	x3, x3, #0x18
    95bc:	52805382 	mov	w2, #0x29c                 	// #668
    95c0:	91241421 	add	x1, x1, #0x905
    95c4:	9124e800 	add	x0, x0, #0x93a
    95c8:	17ffffc7 	b	94e4 <bget+0x30>
/home/lagadanu/Desktop/qemu/optee_os/lib/libutils/isoc/bget.c:673
    95cc:	f9400c02 	ldr	x2, [x0,#24]
    95d0:	f9400844 	ldr	x4, [x2,#16]
    95d4:	eb04001f 	cmp	x0, x4
    95d8:	54000140 	b.eq	9600 <bget+0x14c>
/home/lagadanu/Desktop/qemu/optee_os/lib/libutils/isoc/bget.c:673 (discriminator 1)
    95dc:	d0000003 	adrp	x3, b000 <PRIME_TABLE+0x7f0>
    95e0:	9115a063 	add	x3, x3, #0x568
    95e4:	d0000001 	adrp	x1, b000 <PRIME_TABLE+0x7f0>
    95e8:	d0000000 	adrp	x0, b000 <PRIME_TABLE+0x7f0>
    95ec:	91006063 	add	x3, x3, #0x18
    95f0:	52805422 	mov	w2, #0x2a1                 	// #673
    95f4:	91241421 	add	x1, x1, #0x905
    95f8:	91255800 	add	x0, x0, #0x956
    95fc:	17ffffba 	b	94e4 <bget+0x30>
/home/lagadanu/Desktop/qemu/optee_os/lib/libutils/isoc/bget.c:674
    9600:	f9400804 	ldr	x4, [x0,#16]
    9604:	f9400c86 	ldr	x6, [x4,#24]
    9608:	eb06001f 	cmp	x0, x6
    960c:	54000140 	b.eq	9634 <bget+0x180>
/home/lagadanu/Desktop/qemu/optee_os/lib/libutils/isoc/bget.c:674 (discriminator 1)
    9610:	d0000003 	adrp	x3, b000 <PRIME_TABLE+0x7f0>
    9614:	9115a063 	add	x3, x3, #0x568
    9618:	d0000001 	adrp	x1, b000 <PRIME_TABLE+0x7f0>
    961c:	d0000000 	adrp	x0, b000 <PRIME_TABLE+0x7f0>
    9620:	91006063 	add	x3, x3, #0x18
    9624:	52805442 	mov	w2, #0x2a2                 	// #674
    9628:	91241421 	add	x1, x1, #0x905
    962c:	9125c400 	add	x0, x0, #0x971
    9630:	17ffffad 	b	94e4 <bget+0x30>
/home/lagadanu/Desktop/qemu/optee_os/lib/libutils/isoc/bget.c:675
    9634:	f9000844 	str	x4, [x2,#16]
/home/lagadanu/Desktop/qemu/optee_os/lib/libutils/isoc/bget.c:690
    9638:	91004000 	add	x0, x0, #0x10
/home/lagadanu/Desktop/qemu/optee_os/lib/libutils/isoc/bget.c:676
    963c:	f9400004 	ldr	x4, [x0]
    9640:	f9000c82 	str	x2, [x4,#24]
/home/lagadanu/Desktop/qemu/optee_os/lib/libutils/isoc/bget.c:679
    9644:	f9401022 	ldr	x2, [x1,#32]
    9648:	8b030042 	add	x2, x2, x3
    964c:	f9001022 	str	x2, [x1,#32]
/home/lagadanu/Desktop/qemu/optee_os/lib/libutils/isoc/bget.c:680
    9650:	f9401422 	ldr	x2, [x1,#40]
/home/lagadanu/Desktop/qemu/optee_os/lib/libutils/isoc/bget.c:683
    9654:	cb0303e3 	neg	x3, x3
/home/lagadanu/Desktop/qemu/optee_os/lib/libutils/isoc/bget.c:680
    9658:	91000442 	add	x2, x2, #0x1
    965c:	f9001422 	str	x2, [x1,#40]
/home/lagadanu/Desktop/qemu/optee_os/lib/libutils/isoc/bget.c:683
    9660:	f81f8003 	stur	x3, [x0,#-8]
/home/lagadanu/Desktop/qemu/optee_os/lib/libutils/isoc/bget.c:687
    9664:	f90000bf 	str	xzr, [x5]
/home/lagadanu/Desktop/qemu/optee_os/lib/libutils/isoc/bget.c:692
    9668:	17ffffca 	b	9590 <bget+0xdc>
/home/lagadanu/Desktop/qemu/optee_os/lib/libutils/isoc/bget.c:695
    966c:	f9400800 	ldr	x0, [x0,#16]
    9670:	17ffffa6 	b	9508 <bget+0x54>

0000000000009674 <raw_malloc.constprop.15>:
raw_malloc():
/home/lagadanu/Desktop/qemu/optee_os/lib/libutils/isoc/bget_malloc.c:288
    9674:	a9bd7bfd 	stp	x29, x30, [sp,#-48]!
    9678:	910003fd 	mov	x29, sp
    967c:	a90153f3 	stp	x19, x20, [sp,#16]
    9680:	aa0003f3 	mov	x19, x0
    9684:	f90013f5 	str	x21, [sp,#32]
    9688:	90000034 	adrp	x20, d000 <iv>
/home/lagadanu/Desktop/qemu/optee_os/lib/libutils/isoc/bget_malloc.c:291
    968c:	d2800015 	mov	x21, #0x0                   	// #0
/home/lagadanu/Desktop/qemu/optee_os/lib/libutils/isoc/bget_malloc.c:304
    9690:	b7f800c0 	tbnz	x0, #63, 96a8 <raw_malloc.constprop.15+0x34>
/home/lagadanu/Desktop/qemu/optee_os/lib/libutils/isoc/bget_malloc.c:311
    9694:	f100001f 	cmp	x0, #0x0
/home/lagadanu/Desktop/qemu/optee_os/lib/libutils/isoc/bget_malloc.c:313
    9698:	91044281 	add	x1, x20, #0x110
    969c:	9a9f1400 	csinc	x0, x0, xzr, ne
    96a0:	97ffff85 	bl	94b4 <bget>
    96a4:	aa0003f5 	mov	x21, x0
/home/lagadanu/Desktop/qemu/optee_os/lib/libutils/isoc/bget_malloc.c:315
    96a8:	91044294 	add	x20, x20, #0x110
    96ac:	aa1303e1 	mov	x1, x19
    96b0:	aa1503e0 	mov	x0, x21
    96b4:	f9401282 	ldr	x2, [x20,#32]
    96b8:	97ffff2b 	bl	9364 <raw_malloc_return_hook.isra.3>
/home/lagadanu/Desktop/qemu/optee_os/lib/libutils/isoc/bget_malloc.c:318
    96bc:	aa1503e0 	mov	x0, x21
    96c0:	f94013f5 	ldr	x21, [sp,#32]
    96c4:	a94153f3 	ldp	x19, x20, [sp,#16]
    96c8:	a8c37bfd 	ldp	x29, x30, [sp],#48
    96cc:	d65f03c0 	ret

00000000000096d0 <bgetz>:
bgetz():
/home/lagadanu/Desktop/qemu/optee_os/lib/libutils/isoc/bget.c:768
    96d0:	a9be7bfd 	stp	x29, x30, [sp,#-32]!
    96d4:	910003fd 	mov	x29, sp
    96d8:	a90153f3 	stp	x19, x20, [sp,#16]
    96dc:	aa0003f4 	mov	x20, x0
/home/lagadanu/Desktop/qemu/optee_os/lib/libutils/isoc/bget.c:769
    96e0:	97ffff75 	bl	94b4 <bget>
    96e4:	aa0003f3 	mov	x19, x0
/home/lagadanu/Desktop/qemu/optee_os/lib/libutils/isoc/bget.c:771
    96e8:	b4000300 	cbz	x0, 9748 <bgetz+0x78>
/home/lagadanu/Desktop/qemu/optee_os/lib/libutils/isoc/bget.c:776
    96ec:	f85f8000 	ldur	x0, [x0,#-8]
/home/lagadanu/Desktop/qemu/optee_os/lib/libutils/isoc/bget.c:777
    96f0:	b50001e0 	cbnz	x0, 972c <bgetz+0x5c>
/home/lagadanu/Desktop/qemu/optee_os/lib/libutils/isoc/bget.c:781
    96f4:	f85e8262 	ldur	x2, [x19,#-24]
    96f8:	d1006042 	sub	x2, x2, #0x18
/home/lagadanu/Desktop/qemu/optee_os/lib/libutils/isoc/bget.c:785
    96fc:	eb14005f 	cmp	x2, x20
    9700:	540001ca 	b.ge	9738 <bgetz+0x68>
    9704:	d0000003 	adrp	x3, b000 <PRIME_TABLE+0x7f0>
    9708:	9115a063 	add	x3, x3, #0x568
    970c:	91008063 	add	x3, x3, #0x20
    9710:	d0000001 	adrp	x1, b000 <PRIME_TABLE+0x7f0>
    9714:	d0000000 	adrp	x0, b000 <PRIME_TABLE+0x7f0>
    9718:	91241421 	add	x1, x1, #0x905
    971c:	91263000 	add	x0, x0, #0x98c
    9720:	52806222 	mov	w2, #0x311                 	// #785
    9724:	940003f1 	bl	a6e8 <_assert_log>
    9728:	94000401 	bl	a72c <_assert_break>
/home/lagadanu/Desktop/qemu/optee_os/lib/libutils/isoc/bget.c:783
    972c:	928001e2 	mov	x2, #0xfffffffffffffff0    	// #-16
    9730:	cb000042 	sub	x2, x2, x0
    9734:	17fffff2 	b	96fc <bgetz+0x2c>
memset_unchecked():
/home/lagadanu/Desktop/qemu/optee_os/lib/libutils/isoc/bget_malloc.c:141
    9738:	93407c42 	sxtw	x2, w2
    973c:	52800001 	mov	w1, #0x0                   	// #0
    9740:	aa1303e0 	mov	x0, x19
    9744:	94000388 	bl	a564 <memset>
bgetz():
/home/lagadanu/Desktop/qemu/optee_os/lib/libutils/isoc/bget.c:789
    9748:	aa1303e0 	mov	x0, x19
    974c:	a94153f3 	ldp	x19, x20, [sp,#16]
    9750:	a8c27bfd 	ldp	x29, x30, [sp],#32
    9754:	d65f03c0 	ret

0000000000009758 <brel>:
brel():
/home/lagadanu/Desktop/qemu/optee_os/lib/libutils/isoc/bget.c:840
    9758:	a9bf7bfd 	stp	x29, x30, [sp,#-16]!
    975c:	910003fd 	mov	x29, sp
/home/lagadanu/Desktop/qemu/optee_os/lib/libutils/isoc/bget.c:846
    9760:	f9401823 	ldr	x3, [x1,#48]
    9764:	91000463 	add	x3, x3, #0x1
    9768:	f9001823 	str	x3, [x1,#48]
/home/lagadanu/Desktop/qemu/optee_os/lib/libutils/isoc/bget.c:848
    976c:	b5000160 	cbnz	x0, 9798 <brel+0x40>
/home/lagadanu/Desktop/qemu/optee_os/lib/libutils/isoc/bget.c:848 (discriminator 1)
    9770:	d0000003 	adrp	x3, b000 <PRIME_TABLE+0x7f0>
    9774:	9115a063 	add	x3, x3, #0x568
    9778:	d0000001 	adrp	x1, b000 <PRIME_TABLE+0x7f0>
    977c:	d0000000 	adrp	x0, b000 <PRIME_TABLE+0x7f0>
    9780:	9100a063 	add	x3, x3, #0x28
    9784:	91241421 	add	x1, x1, #0x905
    9788:	91266800 	add	x0, x0, #0x99a
    978c:	52806a02 	mov	w2, #0x350                 	// #848
/home/lagadanu/Desktop/qemu/optee_os/lib/libutils/isoc/bget.c:879 (discriminator 1)
    9790:	940003d6 	bl	a6e8 <_assert_log>
    9794:	940003e6 	bl	a72c <_assert_break>
/home/lagadanu/Desktop/qemu/optee_os/lib/libutils/isoc/bget.c:876
    9798:	f85f8003 	ldur	x3, [x0,#-8]
/home/lagadanu/Desktop/qemu/optee_os/lib/libutils/isoc/bget.c:879
    979c:	b7f80143 	tbnz	x3, #63, 97c4 <brel+0x6c>
/home/lagadanu/Desktop/qemu/optee_os/lib/libutils/isoc/bget.c:879 (discriminator 1)
    97a0:	d0000003 	adrp	x3, b000 <PRIME_TABLE+0x7f0>
    97a4:	9115a063 	add	x3, x3, #0x568
    97a8:	d0000001 	adrp	x1, b000 <PRIME_TABLE+0x7f0>
    97ac:	d0000000 	adrp	x0, b000 <PRIME_TABLE+0x7f0>
    97b0:	9100a063 	add	x3, x3, #0x28
    97b4:	52806de2 	mov	w2, #0x36f                 	// #879
    97b8:	91241421 	add	x1, x1, #0x905
    97bc:	91269800 	add	x0, x0, #0x9a6
    97c0:	17fffff4 	b	9790 <brel+0x38>
    97c4:	d1004002 	sub	x2, x0, #0x10
/home/lagadanu/Desktop/qemu/optee_os/lib/libutils/isoc/bget.c:885
    97c8:	cb030044 	sub	x4, x2, x3
    97cc:	f9400084 	ldr	x4, [x4]
    97d0:	b4000144 	cbz	x4, 97f8 <brel+0xa0>
/home/lagadanu/Desktop/qemu/optee_os/lib/libutils/isoc/bget.c:885 (discriminator 1)
    97d4:	d0000003 	adrp	x3, b000 <PRIME_TABLE+0x7f0>
    97d8:	9115a063 	add	x3, x3, #0x568
    97dc:	d0000001 	adrp	x1, b000 <PRIME_TABLE+0x7f0>
    97e0:	d0000000 	adrp	x0, b000 <PRIME_TABLE+0x7f0>
    97e4:	9100a063 	add	x3, x3, #0x28
    97e8:	52806ea2 	mov	w2, #0x375                 	// #885
    97ec:	91241421 	add	x1, x1, #0x905
    97f0:	9126d800 	add	x0, x0, #0x9b6
    97f4:	17ffffe7 	b	9790 <brel+0x38>
/home/lagadanu/Desktop/qemu/optee_os/lib/libutils/isoc/bget.c:888
    97f8:	f9401024 	ldr	x4, [x1,#32]
    97fc:	8b040064 	add	x4, x3, x4
    9800:	f9001024 	str	x4, [x1,#32]
/home/lagadanu/Desktop/qemu/optee_os/lib/libutils/isoc/bget.c:889
    9804:	b6f80144 	tbz	x4, #63, 982c <brel+0xd4>
/home/lagadanu/Desktop/qemu/optee_os/lib/libutils/isoc/bget.c:889 (discriminator 1)
    9808:	d0000003 	adrp	x3, b000 <PRIME_TABLE+0x7f0>
    980c:	9115a063 	add	x3, x3, #0x568
    9810:	d0000001 	adrp	x1, b000 <PRIME_TABLE+0x7f0>
    9814:	d0000000 	adrp	x0, b000 <PRIME_TABLE+0x7f0>
    9818:	9100a063 	add	x3, x3, #0x28
    981c:	52806f22 	mov	w2, #0x379                 	// #889
    9820:	91241421 	add	x1, x1, #0x905
    9824:	91278800 	add	x0, x0, #0x9e2
    9828:	17ffffda 	b	9790 <brel+0x38>
/home/lagadanu/Desktop/qemu/optee_os/lib/libutils/isoc/bget.c:894
    982c:	f85f0004 	ldur	x4, [x0,#-16]
    9830:	b4000424 	cbz	x4, 98b4 <brel+0x15c>
/home/lagadanu/Desktop/qemu/optee_os/lib/libutils/isoc/bget.c:905
    9834:	cb040042 	sub	x2, x2, x4
    9838:	f9400440 	ldr	x0, [x2,#8]
    983c:	eb00009f 	cmp	x4, x0
    9840:	54000140 	b.eq	9868 <brel+0x110>
/home/lagadanu/Desktop/qemu/optee_os/lib/libutils/isoc/bget.c:905 (discriminator 1)
    9844:	d0000003 	adrp	x3, b000 <PRIME_TABLE+0x7f0>
    9848:	9115a063 	add	x3, x3, #0x568
    984c:	d0000001 	adrp	x1, b000 <PRIME_TABLE+0x7f0>
    9850:	d0000000 	adrp	x0, b000 <PRIME_TABLE+0x7f0>
    9854:	9100a063 	add	x3, x3, #0x28
    9858:	52807122 	mov	w2, #0x389                 	// #905
    985c:	91241421 	add	x1, x1, #0x905
    9860:	9127e400 	add	x0, x0, #0x9f9
    9864:	17ffffcb 	b	9790 <brel+0x38>
/home/lagadanu/Desktop/qemu/optee_os/lib/libutils/isoc/bget.c:907
    9868:	cb030083 	sub	x3, x4, x3
    986c:	f9000443 	str	x3, [x2,#8]
/home/lagadanu/Desktop/qemu/optee_os/lib/libutils/isoc/bget.c:927
    9870:	f9400441 	ldr	x1, [x2,#8]
    9874:	8b010040 	add	x0, x2, x1
/home/lagadanu/Desktop/qemu/optee_os/lib/libutils/isoc/bget.c:928
    9878:	f9400403 	ldr	x3, [x0,#8]
    987c:	f100007f 	cmp	x3, #0x0
    9880:	540009cd 	b.le	99b8 <brel+0x260>
/home/lagadanu/Desktop/qemu/optee_os/lib/libutils/isoc/bget.c:933
    9884:	f8636804 	ldr	x4, [x0,x3]
    9888:	eb04007f 	cmp	x3, x4
    988c:	54000560 	b.eq	9938 <brel+0x1e0>
/home/lagadanu/Desktop/qemu/optee_os/lib/libutils/isoc/bget.c:933 (discriminator 1)
    9890:	d0000003 	adrp	x3, b000 <PRIME_TABLE+0x7f0>
    9894:	9115a063 	add	x3, x3, #0x568
    9898:	d0000001 	adrp	x1, b000 <PRIME_TABLE+0x7f0>
    989c:	d0000000 	adrp	x0, b000 <PRIME_TABLE+0x7f0>
    98a0:	9100a063 	add	x3, x3, #0x28
    98a4:	528074a2 	mov	w2, #0x3a5                 	// #933
    98a8:	91241421 	add	x1, x1, #0x905
    98ac:	9128c800 	add	x0, x0, #0xa32
    98b0:	17ffffb8 	b	9790 <brel+0x38>
/home/lagadanu/Desktop/qemu/optee_os/lib/libutils/isoc/bget.c:913
    98b4:	f9400c25 	ldr	x5, [x1,#24]
    98b8:	f94008a4 	ldr	x4, [x5,#16]
    98bc:	eb01009f 	cmp	x4, x1
    98c0:	54000140 	b.eq	98e8 <brel+0x190>
/home/lagadanu/Desktop/qemu/optee_os/lib/libutils/isoc/bget.c:913 (discriminator 1)
    98c4:	d0000003 	adrp	x3, b000 <PRIME_TABLE+0x7f0>
    98c8:	9115a063 	add	x3, x3, #0x568
    98cc:	d0000001 	adrp	x1, b000 <PRIME_TABLE+0x7f0>
    98d0:	d0000000 	adrp	x0, b000 <PRIME_TABLE+0x7f0>
    98d4:	9100a063 	add	x3, x3, #0x28
    98d8:	52807222 	mov	w2, #0x391                 	// #913
    98dc:	91241421 	add	x1, x1, #0x905
    98e0:	91223c00 	add	x0, x0, #0x88f
    98e4:	17ffffab 	b	9790 <brel+0x38>
/home/lagadanu/Desktop/qemu/optee_os/lib/libutils/isoc/bget.c:914
    98e8:	f9400881 	ldr	x1, [x4,#16]
    98ec:	f9400c21 	ldr	x1, [x1,#24]
    98f0:	eb01009f 	cmp	x4, x1
    98f4:	54000140 	b.eq	991c <brel+0x1c4>
/home/lagadanu/Desktop/qemu/optee_os/lib/libutils/isoc/bget.c:914 (discriminator 1)
    98f8:	d0000003 	adrp	x3, b000 <PRIME_TABLE+0x7f0>
    98fc:	9115a063 	add	x3, x3, #0x568
    9900:	d0000001 	adrp	x1, b000 <PRIME_TABLE+0x7f0>
    9904:	d0000000 	adrp	x0, b000 <PRIME_TABLE+0x7f0>
    9908:	9100a063 	add	x3, x3, #0x28
    990c:	52807242 	mov	w2, #0x392                 	// #914
    9910:	91241421 	add	x1, x1, #0x905
    9914:	91232800 	add	x0, x0, #0x8ca
    9918:	17ffff9e 	b	9790 <brel+0x38>
/home/lagadanu/Desktop/qemu/optee_os/lib/libutils/isoc/bget.c:916
    991c:	a9011444 	stp	x4, x5, [x2,#16]
/home/lagadanu/Desktop/qemu/optee_os/lib/libutils/isoc/bget.c:880
    9920:	cb0303e3 	neg	x3, x3
/home/lagadanu/Desktop/qemu/optee_os/lib/libutils/isoc/bget.c:917
    9924:	f9000c82 	str	x2, [x4,#24]
/home/lagadanu/Desktop/qemu/optee_os/lib/libutils/isoc/bget.c:918
    9928:	f9400c41 	ldr	x1, [x2,#24]
    992c:	f9000822 	str	x2, [x1,#16]
/home/lagadanu/Desktop/qemu/optee_os/lib/libutils/isoc/bget.c:919
    9930:	f81f8003 	stur	x3, [x0,#-8]
    9934:	17ffffcf 	b	9870 <brel+0x118>
/home/lagadanu/Desktop/qemu/optee_os/lib/libutils/isoc/bget.c:934
    9938:	f9400c04 	ldr	x4, [x0,#24]
    993c:	f9400885 	ldr	x5, [x4,#16]
    9940:	eb05001f 	cmp	x0, x5
    9944:	54000140 	b.eq	996c <brel+0x214>
/home/lagadanu/Desktop/qemu/optee_os/lib/libutils/isoc/bget.c:934 (discriminator 1)
    9948:	d0000003 	adrp	x3, b000 <PRIME_TABLE+0x7f0>
    994c:	9115a063 	add	x3, x3, #0x568
    9950:	d0000001 	adrp	x1, b000 <PRIME_TABLE+0x7f0>
    9954:	d0000000 	adrp	x0, b000 <PRIME_TABLE+0x7f0>
    9958:	9100a063 	add	x3, x3, #0x28
    995c:	528074c2 	mov	w2, #0x3a6                 	// #934
    9960:	91241421 	add	x1, x1, #0x905
    9964:	9129ac00 	add	x0, x0, #0xa6b
    9968:	17ffff8a 	b	9790 <brel+0x38>
/home/lagadanu/Desktop/qemu/optee_os/lib/libutils/isoc/bget.c:935
    996c:	f9400805 	ldr	x5, [x0,#16]
    9970:	f9400ca6 	ldr	x6, [x5,#24]
    9974:	eb06001f 	cmp	x0, x6
    9978:	54000140 	b.eq	99a0 <brel+0x248>
/home/lagadanu/Desktop/qemu/optee_os/lib/libutils/isoc/bget.c:935 (discriminator 1)
    997c:	d0000003 	adrp	x3, b000 <PRIME_TABLE+0x7f0>
    9980:	9115a063 	add	x3, x3, #0x568
    9984:	d0000001 	adrp	x1, b000 <PRIME_TABLE+0x7f0>
    9988:	d0000000 	adrp	x0, b000 <PRIME_TABLE+0x7f0>
    998c:	9100a063 	add	x3, x3, #0x28
    9990:	528074e2 	mov	w2, #0x3a7                 	// #935
    9994:	91241421 	add	x1, x1, #0x905
    9998:	912a2000 	add	x0, x0, #0xa88
    999c:	17ffff7d 	b	9790 <brel+0x38>
/home/lagadanu/Desktop/qemu/optee_os/lib/libutils/isoc/bget.c:936
    99a0:	f9000885 	str	x5, [x4,#16]
/home/lagadanu/Desktop/qemu/optee_os/lib/libutils/isoc/bget.c:937
    99a4:	f9400800 	ldr	x0, [x0,#16]
    99a8:	f9000c04 	str	x4, [x0,#24]
/home/lagadanu/Desktop/qemu/optee_os/lib/libutils/isoc/bget.c:938
    99ac:	8b030020 	add	x0, x1, x3
    99b0:	f9000440 	str	x0, [x2,#8]
/home/lagadanu/Desktop/qemu/optee_os/lib/libutils/isoc/bget.c:947
    99b4:	8b000040 	add	x0, x2, x0
/home/lagadanu/Desktop/qemu/optee_os/lib/libutils/isoc/bget.c:953
    99b8:	f9400401 	ldr	x1, [x0,#8]
    99bc:	b7f80141 	tbnz	x1, #63, 99e4 <brel+0x28c>
/home/lagadanu/Desktop/qemu/optee_os/lib/libutils/isoc/bget.c:953 (discriminator 1)
    99c0:	d0000003 	adrp	x3, b000 <PRIME_TABLE+0x7f0>
    99c4:	9115a063 	add	x3, x3, #0x568
    99c8:	d0000001 	adrp	x1, b000 <PRIME_TABLE+0x7f0>
    99cc:	d0000000 	adrp	x0, b000 <PRIME_TABLE+0x7f0>
    99d0:	9100a063 	add	x3, x3, #0x28
    99d4:	52807722 	mov	w2, #0x3b9                 	// #953
    99d8:	91241421 	add	x1, x1, #0x905
    99dc:	912a9400 	add	x0, x0, #0xaa5
    99e0:	17ffff6c 	b	9790 <brel+0x38>
/home/lagadanu/Desktop/qemu/optee_os/lib/libutils/isoc/bget.c:958
    99e4:	f9400441 	ldr	x1, [x2,#8]
    99e8:	f9000001 	str	x1, [x0]
/home/lagadanu/Desktop/qemu/optee_os/lib/libutils/isoc/bget.c:986
    99ec:	a8c17bfd 	ldp	x29, x30, [sp],#16
    99f0:	d65f03c0 	ret

00000000000099f4 <bgetr>:
bgetr():
/home/lagadanu/Desktop/qemu/optee_os/lib/libutils/isoc/bget.c:800
    99f4:	a9bc7bfd 	stp	x29, x30, [sp,#-64]!
    99f8:	910003fd 	mov	x29, sp
    99fc:	a90153f3 	stp	x19, x20, [sp,#16]
    9a00:	aa0103f4 	mov	x20, x1
    9a04:	a9025bf5 	stp	x21, x22, [sp,#32]
/home/lagadanu/Desktop/qemu/optee_os/lib/libutils/isoc/bget.c:805
    9a08:	aa0203e1 	mov	x1, x2
/home/lagadanu/Desktop/qemu/optee_os/lib/libutils/isoc/bget.c:800
    9a0c:	f9001bf7 	str	x23, [sp,#48]
    9a10:	aa0003f5 	mov	x21, x0
    9a14:	aa0203f7 	mov	x23, x2
/home/lagadanu/Desktop/qemu/optee_os/lib/libutils/isoc/bget.c:805
    9a18:	aa1403e0 	mov	x0, x20
    9a1c:	97fffea6 	bl	94b4 <bget>
    9a20:	aa0003f6 	mov	x22, x0
    9a24:	b4000400 	cbz	x0, 9aa4 <bgetr+0xb0>
/home/lagadanu/Desktop/qemu/optee_os/lib/libutils/isoc/bget.c:808
    9a28:	b40003f5 	cbz	x21, 9aa4 <bgetr+0xb0>
/home/lagadanu/Desktop/qemu/optee_os/lib/libutils/isoc/bget.c:822
    9a2c:	f85f82a1 	ldur	x1, [x21,#-8]
    9a30:	928001f3 	mov	x19, #0xfffffffffffffff0    	// #-16
    9a34:	cb010273 	sub	x19, x19, x1
/home/lagadanu/Desktop/qemu/optee_os/lib/libutils/isoc/bget.c:823
    9a38:	f100027f 	cmp	x19, #0x0
    9a3c:	5400016c 	b.gt	9a68 <bgetr+0x74>
    9a40:	d0000003 	adrp	x3, b000 <PRIME_TABLE+0x7f0>
    9a44:	9115a063 	add	x3, x3, #0x568
    9a48:	9100c063 	add	x3, x3, #0x30
    9a4c:	d0000001 	adrp	x1, b000 <PRIME_TABLE+0x7f0>
    9a50:	d0000000 	adrp	x0, b000 <PRIME_TABLE+0x7f0>
    9a54:	91241421 	add	x1, x1, #0x905
    9a58:	912ad800 	add	x0, x0, #0xab6
    9a5c:	528066e2 	mov	w2, #0x337                 	// #823
    9a60:	94000322 	bl	a6e8 <_assert_log>
    9a64:	94000332 	bl	a72c <_assert_break>
/home/lagadanu/Desktop/qemu/optee_os/lib/libutils/isoc/bget.c:824
    9a68:	eb13029f 	cmp	x20, x19
    9a6c:	93407e81 	sxtw	x1, w20
    9a70:	93407e62 	sxtw	x2, w19
    9a74:	9a81a042 	csel	x2, x2, x1, ge
    9a78:	aa1503e1 	mov	x1, x21
    9a7c:	97ffde27 	bl	1318 <memcpy>
/home/lagadanu/Desktop/qemu/optee_os/lib/libutils/isoc/bget.c:828
    9a80:	eb13029f 	cmp	x20, x19
    9a84:	540000ad 	b.le	9a98 <bgetr+0xa4>
/home/lagadanu/Desktop/qemu/optee_os/lib/libutils/isoc/bget.c:829
    9a88:	cb130282 	sub	x2, x20, x19
    9a8c:	52800001 	mov	w1, #0x0                   	// #0
    9a90:	8b1302c0 	add	x0, x22, x19
    9a94:	940002b4 	bl	a564 <memset>
/home/lagadanu/Desktop/qemu/optee_os/lib/libutils/isoc/bget.c:831
    9a98:	aa1703e1 	mov	x1, x23
    9a9c:	aa1503e0 	mov	x0, x21
    9aa0:	97ffff2e 	bl	9758 <brel>
/home/lagadanu/Desktop/qemu/optee_os/lib/libutils/isoc/bget.c:833
    9aa4:	aa1603e0 	mov	x0, x22
    9aa8:	f9401bf7 	ldr	x23, [sp,#48]
    9aac:	a94153f3 	ldp	x19, x20, [sp,#16]
    9ab0:	a9425bf5 	ldp	x21, x22, [sp,#32]
    9ab4:	a8c47bfd 	ldp	x29, x30, [sp],#64
    9ab8:	d65f03c0 	ret

0000000000009abc <bpool>:
bpool():
/home/lagadanu/Desktop/qemu/optee_os/lib/libutils/isoc/bget.c:1012
    9abc:	a9bf7bfd 	stp	x29, x30, [sp,#-16]!
/home/lagadanu/Desktop/qemu/optee_os/lib/libutils/isoc/bget.c:1017
    9ac0:	927cec21 	and	x1, x1, #0xfffffffffffffff0
/home/lagadanu/Desktop/qemu/optee_os/lib/libutils/isoc/bget.c:1036
    9ac4:	f1004021 	subs	x1, x1, #0x10
/home/lagadanu/Desktop/qemu/optee_os/lib/libutils/isoc/bget.c:1012
    9ac8:	910003fd 	mov	x29, sp
/home/lagadanu/Desktop/qemu/optee_os/lib/libutils/isoc/bget.c:1036
    9acc:	54000165 	b.pl	9af8 <bpool+0x3c>
    9ad0:	d0000003 	adrp	x3, b000 <PRIME_TABLE+0x7f0>
    9ad4:	9115a063 	add	x3, x3, #0x568
    9ad8:	d0000001 	adrp	x1, b000 <PRIME_TABLE+0x7f0>
    9adc:	d0000000 	adrp	x0, b000 <PRIME_TABLE+0x7f0>
    9ae0:	9100e063 	add	x3, x3, #0x38
    9ae4:	91241421 	add	x1, x1, #0x905
    9ae8:	912b0000 	add	x0, x0, #0xac0
    9aec:	52808182 	mov	w2, #0x40c                 	// #1036
/home/lagadanu/Desktop/qemu/optee_os/lib/libutils/isoc/bget.c:1046 (discriminator 1)
    9af0:	940002fe 	bl	a6e8 <_assert_log>
    9af4:	9400030e 	bl	a72c <_assert_break>
/home/lagadanu/Desktop/qemu/optee_os/lib/libutils/isoc/bget.c:1046
    9af8:	f9400c44 	ldr	x4, [x2,#24]
    9afc:	f9400883 	ldr	x3, [x4,#16]
/home/lagadanu/Desktop/qemu/optee_os/lib/libutils/isoc/bget.c:1042
    9b00:	f900001f 	str	xzr, [x0]
/home/lagadanu/Desktop/qemu/optee_os/lib/libutils/isoc/bget.c:1046
    9b04:	eb02007f 	cmp	x3, x2
    9b08:	54000140 	b.eq	9b30 <bpool+0x74>
/home/lagadanu/Desktop/qemu/optee_os/lib/libutils/isoc/bget.c:1046 (discriminator 1)
    9b0c:	d0000003 	adrp	x3, b000 <PRIME_TABLE+0x7f0>
    9b10:	9115a063 	add	x3, x3, #0x568
    9b14:	d0000001 	adrp	x1, b000 <PRIME_TABLE+0x7f0>
    9b18:	d0000000 	adrp	x0, b000 <PRIME_TABLE+0x7f0>
    9b1c:	9100e063 	add	x3, x3, #0x38
    9b20:	528082c2 	mov	w2, #0x416                 	// #1046
    9b24:	91241421 	add	x1, x1, #0x905
    9b28:	91223c00 	add	x0, x0, #0x88f
    9b2c:	17fffff1 	b	9af0 <bpool+0x34>
/home/lagadanu/Desktop/qemu/optee_os/lib/libutils/isoc/bget.c:1047
    9b30:	f9400862 	ldr	x2, [x3,#16]
    9b34:	f9400c42 	ldr	x2, [x2,#24]
    9b38:	eb02007f 	cmp	x3, x2
    9b3c:	54000140 	b.eq	9b64 <bpool+0xa8>
/home/lagadanu/Desktop/qemu/optee_os/lib/libutils/isoc/bget.c:1047 (discriminator 1)
    9b40:	d0000003 	adrp	x3, b000 <PRIME_TABLE+0x7f0>
    9b44:	9115a063 	add	x3, x3, #0x568
    9b48:	d0000001 	adrp	x1, b000 <PRIME_TABLE+0x7f0>
    9b4c:	d0000000 	adrp	x0, b000 <PRIME_TABLE+0x7f0>
    9b50:	9100e063 	add	x3, x3, #0x38
    9b54:	528082e2 	mov	w2, #0x417                 	// #1047
    9b58:	91241421 	add	x1, x1, #0x905
    9b5c:	91232800 	add	x0, x0, #0x8ca
    9b60:	17ffffe4 	b	9af0 <bpool+0x34>
/home/lagadanu/Desktop/qemu/optee_os/lib/libutils/isoc/bget.c:1049
    9b64:	a9011003 	stp	x3, x4, [x0,#16]
/home/lagadanu/Desktop/qemu/optee_os/lib/libutils/isoc/bget.c:1050
    9b68:	f9000c60 	str	x0, [x3,#24]
/home/lagadanu/Desktop/qemu/optee_os/lib/libutils/isoc/bget.c:1051
    9b6c:	f9400c02 	ldr	x2, [x0,#24]
    9b70:	f9000840 	str	x0, [x2,#16]
/home/lagadanu/Desktop/qemu/optee_os/lib/libutils/isoc/bget.c:1067
    9b74:	8b010002 	add	x2, x0, x1
/home/lagadanu/Desktop/qemu/optee_os/lib/libutils/isoc/bget.c:1062
    9b78:	f9000401 	str	x1, [x0,#8]
/home/lagadanu/Desktop/qemu/optee_os/lib/libutils/isoc/bget.c:1068
    9b7c:	f8216801 	str	x1, [x0,x1]
/home/lagadanu/Desktop/qemu/optee_os/lib/libutils/isoc/bget.c:1071
    9b80:	d2f00000 	mov	x0, #0x8000000000000000    	// #-9223372036854775808
    9b84:	f9000440 	str	x0, [x2,#8]
/home/lagadanu/Desktop/qemu/optee_os/lib/libutils/isoc/bget.c:1072
    9b88:	a8c17bfd 	ldp	x29, x30, [sp],#16
    9b8c:	d65f03c0 	ret

0000000000009b90 <bstats>:
bstats():
/home/lagadanu/Desktop/qemu/optee_os/lib/libutils/isoc/bget.c:1085
    9b90:	f94014a7 	ldr	x7, [x5,#40]
/home/lagadanu/Desktop/qemu/optee_os/lib/libutils/isoc/bget.c:1083
    9b94:	f94008a6 	ldr	x6, [x5,#16]
/home/lagadanu/Desktop/qemu/optee_os/lib/libutils/isoc/bget.c:1085
    9b98:	f9000067 	str	x7, [x3]
/home/lagadanu/Desktop/qemu/optee_os/lib/libutils/isoc/bget.c:1086
    9b9c:	f94018a3 	ldr	x3, [x5,#48]
    9ba0:	f9000083 	str	x3, [x4]
/home/lagadanu/Desktop/qemu/optee_os/lib/libutils/isoc/bget.c:1087
    9ba4:	f94010a3 	ldr	x3, [x5,#32]
    9ba8:	f9000003 	str	x3, [x0]
/home/lagadanu/Desktop/qemu/optee_os/lib/libutils/isoc/bget.c:1089
    9bac:	92800000 	mov	x0, #0xffffffffffffffff    	// #-1
/home/lagadanu/Desktop/qemu/optee_os/lib/libutils/isoc/bget.c:1088
    9bb0:	f900003f 	str	xzr, [x1]
/home/lagadanu/Desktop/qemu/optee_os/lib/libutils/isoc/bget.c:1089
    9bb4:	f9000040 	str	x0, [x2]
/home/lagadanu/Desktop/qemu/optee_os/lib/libutils/isoc/bget.c:1090
    9bb8:	eb0500df 	cmp	x6, x5
    9bbc:	54000041 	b.ne	9bc4 <bstats+0x34>
    9bc0:	d65f03c0 	ret
/home/lagadanu/Desktop/qemu/optee_os/lib/libutils/isoc/bget.c:1091
    9bc4:	f94004c3 	ldr	x3, [x6,#8]
    9bc8:	f100007f 	cmp	x3, #0x0
    9bcc:	540001ac 	b.gt	9c00 <bstats+0x70>
/home/lagadanu/Desktop/qemu/optee_os/lib/libutils/isoc/bget.c:1091 (discriminator 1)
    9bd0:	d0000003 	adrp	x3, b000 <PRIME_TABLE+0x7f0>
    9bd4:	9115a063 	add	x3, x3, #0x568
    9bd8:	91010063 	add	x3, x3, #0x40
    9bdc:	d0000001 	adrp	x1, b000 <PRIME_TABLE+0x7f0>
    9be0:	d0000000 	adrp	x0, b000 <PRIME_TABLE+0x7f0>
    9be4:	91241421 	add	x1, x1, #0x905
    9be8:	912bd400 	add	x0, x0, #0xaf5
/home/lagadanu/Desktop/qemu/optee_os/lib/libutils/isoc/bget.c:1082 (discriminator 1)
    9bec:	a9bf7bfd 	stp	x29, x30, [sp,#-16]!
/home/lagadanu/Desktop/qemu/optee_os/lib/libutils/isoc/bget.c:1091 (discriminator 1)
    9bf0:	52808862 	mov	w2, #0x443                 	// #1091
/home/lagadanu/Desktop/qemu/optee_os/lib/libutils/isoc/bget.c:1082 (discriminator 1)
    9bf4:	910003fd 	mov	x29, sp
/home/lagadanu/Desktop/qemu/optee_os/lib/libutils/isoc/bget.c:1091 (discriminator 1)
    9bf8:	940002bc 	bl	a6e8 <_assert_log>
    9bfc:	940002cc 	bl	a72c <_assert_break>
/home/lagadanu/Desktop/qemu/optee_os/lib/libutils/isoc/bget.c:1092
    9c00:	f9400020 	ldr	x0, [x1]
    9c04:	8b030000 	add	x0, x0, x3
    9c08:	f9000020 	str	x0, [x1]
/home/lagadanu/Desktop/qemu/optee_os/lib/libutils/isoc/bget.c:1093
    9c0c:	f9400043 	ldr	x3, [x2]
    9c10:	f94004c0 	ldr	x0, [x6,#8]
    9c14:	eb03001f 	cmp	x0, x3
    9c18:	5400004d 	b.le	9c20 <bstats+0x90>
/home/lagadanu/Desktop/qemu/optee_os/lib/libutils/isoc/bget.c:1094
    9c1c:	f9000040 	str	x0, [x2]
/home/lagadanu/Desktop/qemu/optee_os/lib/libutils/isoc/bget.c:1096
    9c20:	f94008c6 	ldr	x6, [x6,#16]
    9c24:	17ffffe5 	b	9bb8 <bstats+0x28>

0000000000009c28 <malloc_reset_stats>:
malloc_reset_stats():
/home/lagadanu/Desktop/qemu/optee_os/lib/libutils/isoc/bget_malloc.c:183
    9c28:	d0000060 	adrp	x0, 17000 <buf.3610+0x4b0>
    9c2c:	912d6000 	add	x0, x0, #0xb58
    9c30:	b900241f 	str	wzr, [x0,#36]
/home/lagadanu/Desktop/qemu/optee_os/lib/libutils/isoc/bget_malloc.c:185
    9c34:	2905fc1f 	stp	wzr, wzr, [x0,#44]
/home/lagadanu/Desktop/qemu/optee_os/lib/libutils/isoc/bget_malloc.c:186
    9c38:	b900341f 	str	wzr, [x0,#52]
    9c3c:	d65f03c0 	ret

0000000000009c40 <malloc_get_stats>:
malloc_get_stats():
/home/lagadanu/Desktop/qemu/optee_os/lib/libutils/isoc/bget_malloc.c:191
    9c40:	a9bf7bfd 	stp	x29, x30, [sp,#-16]!
/home/lagadanu/Desktop/qemu/optee_os/lib/libutils/isoc/bget_malloc.c:194
    9c44:	d2800702 	mov	x2, #0x38                  	// #56
    9c48:	d0000061 	adrp	x1, 17000 <buf.3610+0x4b0>
    9c4c:	912d6021 	add	x1, x1, #0xb58
/home/lagadanu/Desktop/qemu/optee_os/lib/libutils/isoc/bget_malloc.c:191
    9c50:	910003fd 	mov	x29, sp
/home/lagadanu/Desktop/qemu/optee_os/lib/libutils/isoc/bget_malloc.c:194
    9c54:	97ffddb1 	bl	1318 <memcpy>
    9c58:	aa0003e3 	mov	x3, x0
/home/lagadanu/Desktop/qemu/optee_os/lib/libutils/isoc/bget_malloc.c:195
    9c5c:	90000020 	adrp	x0, d000 <iv>
    9c60:	f9409800 	ldr	x0, [x0,#304]
    9c64:	b9002060 	str	w0, [x3,#32]
/home/lagadanu/Desktop/qemu/optee_os/lib/libutils/isoc/bget_malloc.c:197
    9c68:	a8c17bfd 	ldp	x29, x30, [sp],#16
    9c6c:	d65f03c0 	ret

0000000000009c70 <malloc>:
malloc():
/home/lagadanu/Desktop/qemu/optee_os/lib/libutils/isoc/bget_malloc.c:821
    9c70:	17fffe81 	b	9674 <raw_malloc.constprop.15>

0000000000009c74 <free>:
raw_free():
/home/lagadanu/Desktop/qemu/optee_os/lib/libutils/isoc/bget_malloc.c:324
    9c74:	b4000080 	cbz	x0, 9c84 <free+0x10>
/home/lagadanu/Desktop/qemu/optee_os/lib/libutils/isoc/bget_malloc.c:325
    9c78:	90000021 	adrp	x1, d000 <iv>
    9c7c:	91044021 	add	x1, x1, #0x110
    9c80:	17fffeb6 	b	9758 <brel>
    9c84:	d65f03c0 	ret

0000000000009c88 <calloc>:
calloc():
/home/lagadanu/Desktop/qemu/optee_os/lib/libutils/isoc/bget_malloc.c:835
    9c88:	a9bd7bfd 	stp	x29, x30, [sp,#-48]!
    9c8c:	910003fd 	mov	x29, sp
    9c90:	a90153f3 	stp	x19, x20, [sp,#16]
raw_calloc():
/home/lagadanu/Desktop/qemu/optee_os/lib/libutils/isoc/bget_malloc.c:337
    9c94:	9b017c13 	mul	x19, x0, x1
    9c98:	9bc17c01 	umulh	x1, x0, x1
calloc():
/home/lagadanu/Desktop/qemu/optee_os/lib/libutils/isoc/bget_malloc.c:835
    9c9c:	f90013f5 	str	x21, [sp,#32]
raw_calloc():
/home/lagadanu/Desktop/qemu/optee_os/lib/libutils/isoc/bget_malloc.c:337
    9ca0:	d2800020 	mov	x0, #0x1                   	// #1
    9ca4:	90000034 	adrp	x20, d000 <iv>
    9ca8:	f100003f 	cmp	x1, #0x0
/home/lagadanu/Desktop/qemu/optee_os/lib/libutils/isoc/bget_malloc.c:331
    9cac:	d2800015 	mov	x21, #0x0                   	// #0
/home/lagadanu/Desktop/qemu/optee_os/lib/libutils/isoc/bget_malloc.c:337
    9cb0:	9a9f07e1 	cset	x1, ne
    9cb4:	f100027f 	cmp	x19, #0x0
    9cb8:	9a80a021 	csel	x1, x1, x0, ge
    9cbc:	b50000a1 	cbnz	x1, 9cd0 <calloc+0x48>
/home/lagadanu/Desktop/qemu/optee_os/lib/libutils/isoc/bget_malloc.c:348
    9cc0:	91044281 	add	x1, x20, #0x110
    9cc4:	9a801260 	csel	x0, x19, x0, ne
    9cc8:	97fffe82 	bl	96d0 <bgetz>
    9ccc:	aa0003f5 	mov	x21, x0
/home/lagadanu/Desktop/qemu/optee_os/lib/libutils/isoc/bget_malloc.c:350
    9cd0:	91044294 	add	x20, x20, #0x110
    9cd4:	aa1303e1 	mov	x1, x19
    9cd8:	aa1503e0 	mov	x0, x21
    9cdc:	f9401282 	ldr	x2, [x20,#32]
    9ce0:	97fffda1 	bl	9364 <raw_malloc_return_hook.isra.3>
calloc():
/home/lagadanu/Desktop/qemu/optee_os/lib/libutils/isoc/bget_malloc.c:842
    9ce4:	aa1503e0 	mov	x0, x21
    9ce8:	f94013f5 	ldr	x21, [sp,#32]
    9cec:	a94153f3 	ldp	x19, x20, [sp,#16]
    9cf0:	a8c37bfd 	ldp	x29, x30, [sp],#48
    9cf4:	d65f03c0 	ret

0000000000009cf8 <realloc>:
realloc():
/home/lagadanu/Desktop/qemu/optee_os/lib/libutils/isoc/bget_malloc.c:850
    9cf8:	a9bd7bfd 	stp	x29, x30, [sp,#-48]!
    9cfc:	910003fd 	mov	x29, sp
    9d00:	a90153f3 	stp	x19, x20, [sp,#16]
    9d04:	aa0103f3 	mov	x19, x1
    9d08:	f90013f5 	str	x21, [sp,#32]
    9d0c:	90000034 	adrp	x20, d000 <iv>
raw_realloc():
/home/lagadanu/Desktop/qemu/optee_os/lib/libutils/isoc/bget_malloc.c:358
    9d10:	d2800015 	mov	x21, #0x0                   	// #0
/home/lagadanu/Desktop/qemu/optee_os/lib/libutils/isoc/bget_malloc.c:362
    9d14:	b7f800c1 	tbnz	x1, #63, 9d2c <realloc+0x34>
/home/lagadanu/Desktop/qemu/optee_os/lib/libutils/isoc/bget_malloc.c:371
    9d18:	f100003f 	cmp	x1, #0x0
/home/lagadanu/Desktop/qemu/optee_os/lib/libutils/isoc/bget_malloc.c:373
    9d1c:	91044282 	add	x2, x20, #0x110
    9d20:	9a9f1421 	csinc	x1, x1, xzr, ne
    9d24:	97ffff34 	bl	99f4 <bgetr>
    9d28:	aa0003f5 	mov	x21, x0
/home/lagadanu/Desktop/qemu/optee_os/lib/libutils/isoc/bget_malloc.c:375
    9d2c:	91044294 	add	x20, x20, #0x110
    9d30:	aa1303e1 	mov	x1, x19
    9d34:	aa1503e0 	mov	x0, x21
    9d38:	f9401282 	ldr	x2, [x20,#32]
    9d3c:	97fffd8a 	bl	9364 <raw_malloc_return_hook.isra.3>
realloc():
/home/lagadanu/Desktop/qemu/optee_os/lib/libutils/isoc/bget_malloc.c:857
    9d40:	aa1503e0 	mov	x0, x21
    9d44:	f94013f5 	ldr	x21, [sp,#32]
    9d48:	a94153f3 	ldp	x19, x20, [sp,#16]
    9d4c:	a8c37bfd 	ldp	x29, x30, [sp],#48
    9d50:	d65f03c0 	ret

0000000000009d54 <memalign>:
memalign():
/home/lagadanu/Desktop/qemu/optee_os/lib/libutils/isoc/bget_malloc.c:860
    9d54:	a9bc7bfd 	stp	x29, x30, [sp,#-64]!
    9d58:	910003fd 	mov	x29, sp
    9d5c:	a90153f3 	stp	x19, x20, [sp,#16]
    9d60:	aa0003f4 	mov	x20, x0
    9d64:	a9025bf5 	stp	x21, x22, [sp,#32]
    9d68:	f9001bf7 	str	x23, [sp,#48]
raw_memalign():
/home/lagadanu/Desktop/qemu/optee_os/lib/libutils/isoc/bget_malloc.c:535
    9d6c:	b4001c40 	cbz	x0, a0f4 <memalign+0x3a0>
    9d70:	cb0003f3 	neg	x19, x0
    9d74:	ea33001f 	bics	xzr, x0, x19
    9d78:	54001be1 	b.ne	a0f4 <memalign+0x3a0>
    9d7c:	aa0103e0 	mov	x0, x1
/home/lagadanu/Desktop/qemu/optee_os/lib/libutils/isoc/bget_malloc.c:542
    9d80:	f100429f 	cmp	x20, #0x10
    9d84:	540000c8 	b.hi	9d9c <memalign+0x48>
memalign():
/home/lagadanu/Desktop/qemu/optee_os/lib/libutils/isoc/bget_malloc.c:867
    9d88:	a94153f3 	ldp	x19, x20, [sp,#16]
    9d8c:	a9425bf5 	ldp	x21, x22, [sp,#32]
    9d90:	f9401bf7 	ldr	x23, [sp,#48]
    9d94:	a8c47bfd 	ldp	x29, x30, [sp],#64
raw_memalign():
/home/lagadanu/Desktop/qemu/optee_os/lib/libutils/isoc/bget_malloc.c:543
    9d98:	17fffe37 	b	9674 <raw_malloc.constprop.15>
/home/lagadanu/Desktop/qemu/optee_os/lib/libutils/isoc/bget_malloc.c:545
    9d9c:	91008037 	add	x23, x1, #0x20
    9da0:	8b1402f7 	add	x23, x23, x20
/home/lagadanu/Desktop/qemu/optee_os/lib/libutils/isoc/bget_malloc.c:549
    9da4:	eb17029f 	cmp	x20, x23
    9da8:	fa579022 	ccmp	x1, x23, #0x2, ls
    9dac:	54001a48 	b.hi	a0f4 <memalign+0x3a0>
    9db0:	aa0103f5 	mov	x21, x1
/home/lagadanu/Desktop/qemu/optee_os/lib/libutils/isoc/bget_malloc.c:552
    9db4:	90000036 	adrp	x22, d000 <iv>
    9db8:	910442c1 	add	x1, x22, #0x110
    9dbc:	aa1703e0 	mov	x0, x23
    9dc0:	97fffdbd 	bl	94b4 <bget>
    9dc4:	aa0003e1 	mov	x1, x0
/home/lagadanu/Desktop/qemu/optee_os/lib/libutils/isoc/bget_malloc.c:553
    9dc8:	b40017e0 	cbz	x0, a0c4 <memalign+0x370>
/home/lagadanu/Desktop/qemu/optee_os/lib/libutils/isoc/bget_malloc.c:556
    9dcc:	d1000680 	sub	x0, x20, #0x1
    9dd0:	ea00003f 	tst	x1, x0
    9dd4:	54000a80 	b.eq	9f24 <memalign+0x1d0>
/home/lagadanu/Desktop/qemu/optee_os/lib/libutils/isoc/bget_malloc.c:569
    9dd8:	8b010280 	add	x0, x20, x1
/home/lagadanu/Desktop/qemu/optee_os/lib/libutils/isoc/bget_malloc.c:574
    9ddc:	8b170037 	add	x23, x1, x23
/home/lagadanu/Desktop/qemu/optee_os/lib/libutils/isoc/bget_malloc.c:570
    9de0:	8a000273 	and	x19, x19, x0
/home/lagadanu/Desktop/qemu/optee_os/lib/libutils/isoc/bget_malloc.c:572
    9de4:	cb010260 	sub	x0, x19, x1
/home/lagadanu/Desktop/qemu/optee_os/lib/libutils/isoc/bget_malloc.c:573
    9de8:	8b140262 	add	x2, x19, x20
    9dec:	f1007c1f 	cmp	x0, #0x1f
    9df0:	9a939053 	csel	x19, x2, x19, ls
/home/lagadanu/Desktop/qemu/optee_os/lib/libutils/isoc/bget_malloc.c:574
    9df4:	8b1302a0 	add	x0, x21, x19
    9df8:	eb17001f 	cmp	x0, x23
    9dfc:	54000169 	b.ls	9e28 <memalign+0xd4>
    9e00:	d0000003 	adrp	x3, b000 <PRIME_TABLE+0x7f0>
    9e04:	9115a063 	add	x3, x3, #0x568
    9e08:	d0000001 	adrp	x1, b000 <PRIME_TABLE+0x7f0>
    9e0c:	d0000000 	adrp	x0, b000 <PRIME_TABLE+0x7f0>
    9e10:	91012063 	add	x3, x3, #0x48
    9e14:	9120cc21 	add	x1, x1, #0x833
    9e18:	912c1400 	add	x0, x0, #0xb05
    9e1c:	528047c2 	mov	w2, #0x23e                 	// #574
brel_before():
/home/lagadanu/Desktop/qemu/optee_os/lib/libutils/isoc/bget_malloc.c:411
    9e20:	94000232 	bl	a6e8 <_assert_log>
    9e24:	94000242 	bl	a72c <_assert_break>
    9e28:	eb13003f 	cmp	x1, x19
    9e2c:	54000143 	b.cc	9e54 <memalign+0x100>
    9e30:	d0000003 	adrp	x3, b000 <PRIME_TABLE+0x7f0>
    9e34:	9115a063 	add	x3, x3, #0x568
    9e38:	d0000001 	adrp	x1, b000 <PRIME_TABLE+0x7f0>
    9e3c:	d0000000 	adrp	x0, b000 <PRIME_TABLE+0x7f0>
    9e40:	91016063 	add	x3, x3, #0x58
    9e44:	52803362 	mov	w2, #0x19b                 	// #411
    9e48:	9120cc21 	add	x1, x1, #0x833
    9e4c:	912cc400 	add	x0, x0, #0xb31
    9e50:	17fffff4 	b	9e20 <memalign+0xcc>
/home/lagadanu/Desktop/qemu/optee_os/lib/libutils/isoc/bget_malloc.c:413
    9e54:	cb010274 	sub	x20, x19, x1
/home/lagadanu/Desktop/qemu/optee_os/lib/libutils/isoc/bget_malloc.c:414
    9e58:	f1007e9f 	cmp	x20, #0x1f
    9e5c:	54000148 	b.hi	9e84 <memalign+0x130>
    9e60:	d0000003 	adrp	x3, b000 <PRIME_TABLE+0x7f0>
    9e64:	9115a063 	add	x3, x3, #0x568
    9e68:	d0000001 	adrp	x1, b000 <PRIME_TABLE+0x7f0>
    9e6c:	d0000000 	adrp	x0, b000 <PRIME_TABLE+0x7f0>
    9e70:	91016063 	add	x3, x3, #0x58
    9e74:	528033c2 	mov	w2, #0x19e                 	// #414
    9e78:	9120cc21 	add	x1, x1, #0x833
    9e7c:	912d1000 	add	x0, x0, #0xb44
    9e80:	17ffffe8 	b	9e20 <memalign+0xcc>
/home/lagadanu/Desktop/qemu/optee_os/lib/libutils/isoc/bget_malloc.c:418
    9e84:	f85f8022 	ldur	x2, [x1,#-8]
/home/lagadanu/Desktop/qemu/optee_os/lib/libutils/isoc/bget_malloc.c:417
    9e88:	d1004020 	sub	x0, x1, #0x10
/home/lagadanu/Desktop/qemu/optee_os/lib/libutils/isoc/bget_malloc.c:423
    9e8c:	f85f0021 	ldur	x1, [x1,#-16]
    9e90:	8b020282 	add	x2, x20, x2
    9e94:	b40003e1 	cbz	x1, 9f10 <memalign+0x1bc>
/home/lagadanu/Desktop/qemu/optee_os/lib/libutils/isoc/bget_malloc.c:428
    9e98:	cb010000 	sub	x0, x0, x1
/home/lagadanu/Desktop/qemu/optee_os/lib/libutils/isoc/bget_malloc.c:429
    9e9c:	f9400403 	ldr	x3, [x0,#8]
    9ea0:	eb03003f 	cmp	x1, x3
    9ea4:	54000140 	b.eq	9ecc <memalign+0x178>
    9ea8:	d0000003 	adrp	x3, b000 <PRIME_TABLE+0x7f0>
    9eac:	9115a063 	add	x3, x3, #0x568
    9eb0:	d0000001 	adrp	x1, b000 <PRIME_TABLE+0x7f0>
    9eb4:	d0000000 	adrp	x0, b000 <PRIME_TABLE+0x7f0>
    9eb8:	91016063 	add	x3, x3, #0x58
    9ebc:	528035a2 	mov	w2, #0x1ad                 	// #429
    9ec0:	9120cc21 	add	x1, x1, #0x833
    9ec4:	912dac00 	add	x0, x0, #0xb6b
    9ec8:	17ffffd6 	b	9e20 <memalign+0xcc>
/home/lagadanu/Desktop/qemu/optee_os/lib/libutils/isoc/bget_malloc.c:430
    9ecc:	8b010281 	add	x1, x20, x1
    9ed0:	f9000401 	str	x1, [x0,#8]
/home/lagadanu/Desktop/qemu/optee_os/lib/libutils/isoc/bget_malloc.c:435
    9ed4:	a93f0a61 	stp	x1, x2, [x19,#-16]
/home/lagadanu/Desktop/qemu/optee_os/lib/libutils/isoc/bget_malloc.c:449
    9ed8:	910442c1 	add	x1, x22, #0x110
    9edc:	f9401020 	ldr	x0, [x1,#32]
    9ee0:	cb140014 	sub	x20, x0, x20
    9ee4:	f9001034 	str	x20, [x1,#32]
/home/lagadanu/Desktop/qemu/optee_os/lib/libutils/isoc/bget_malloc.c:450
    9ee8:	b6f80214 	tbz	x20, #63, 9f28 <memalign+0x1d4>
    9eec:	d0000003 	adrp	x3, b000 <PRIME_TABLE+0x7f0>
    9ef0:	9115a063 	add	x3, x3, #0x568
    9ef4:	91016063 	add	x3, x3, #0x58
    9ef8:	52803842 	mov	w2, #0x1c2                 	// #450
brel_after():
/home/lagadanu/Desktop/qemu/optee_os/lib/libutils/isoc/bget_malloc.c:522
    9efc:	d0000001 	adrp	x1, b000 <PRIME_TABLE+0x7f0>
    9f00:	d0000000 	adrp	x0, b000 <PRIME_TABLE+0x7f0>
    9f04:	9120cc21 	add	x1, x1, #0x833
    9f08:	91278800 	add	x0, x0, #0x9e2
    9f0c:	17ffffc5 	b	9e20 <memalign+0xcc>
brel_before():
/home/lagadanu/Desktop/qemu/optee_os/lib/libutils/isoc/bget_malloc.c:443
    9f10:	f81f8262 	stur	x2, [x19,#-8]
/home/lagadanu/Desktop/qemu/optee_os/lib/libutils/isoc/bget_malloc.c:445
    9f14:	aa1403e1 	mov	x1, x20
    9f18:	d1004262 	sub	x2, x19, #0x10
    9f1c:	97fffd22 	bl	93a4 <create_free_block.constprop.11>
    9f20:	17ffffee 	b	9ed8 <memalign+0x184>
raw_memalign():
/home/lagadanu/Desktop/qemu/optee_os/lib/libutils/isoc/bget_malloc.c:556
    9f24:	aa0103f3 	mov	x19, x1
brel_after():
/home/lagadanu/Desktop/qemu/optee_os/lib/libutils/isoc/bget_malloc.c:466
    9f28:	f10042bf 	cmp	x21, #0x10
    9f2c:	d2800200 	mov	x0, #0x10                  	// #16
    9f30:	9a8022a0 	csel	x0, x21, x0, cs
/home/lagadanu/Desktop/qemu/optee_os/lib/libutils/isoc/bget_malloc.c:470
    9f34:	f85f8262 	ldur	x2, [x19,#-8]
/home/lagadanu/Desktop/qemu/optee_os/lib/libutils/isoc/bget_malloc.c:466
    9f38:	91003c00 	add	x0, x0, #0xf
/home/lagadanu/Desktop/qemu/optee_os/lib/libutils/isoc/bget_malloc.c:470
    9f3c:	d1004264 	sub	x4, x19, #0x10
/home/lagadanu/Desktop/qemu/optee_os/lib/libutils/isoc/bget_malloc.c:466
    9f40:	927cec00 	and	x0, x0, #0xfffffffffffffff0
/home/lagadanu/Desktop/qemu/optee_os/lib/libutils/isoc/bget_malloc.c:470
    9f44:	cb0203f4 	neg	x20, x2
/home/lagadanu/Desktop/qemu/optee_os/lib/libutils/isoc/bget_malloc.c:469
    9f48:	91004001 	add	x1, x0, #0x10
/home/lagadanu/Desktop/qemu/optee_os/lib/libutils/isoc/bget_malloc.c:470
    9f4c:	eb14003f 	cmp	x1, x20
    9f50:	5400014d 	b.le	9f78 <memalign+0x224>
    9f54:	d0000003 	adrp	x3, b000 <PRIME_TABLE+0x7f0>
    9f58:	9115a063 	add	x3, x3, #0x568
    9f5c:	d0000001 	adrp	x1, b000 <PRIME_TABLE+0x7f0>
    9f60:	d0000000 	adrp	x0, b000 <PRIME_TABLE+0x7f0>
    9f64:	9101a063 	add	x3, x3, #0x68
    9f68:	52803ac2 	mov	w2, #0x1d6                 	// #470
    9f6c:	9120cc21 	add	x1, x1, #0x833
    9f70:	912e3000 	add	x0, x0, #0xb8c
    9f74:	17ffffab 	b	9e20 <memalign+0xcc>
/home/lagadanu/Desktop/qemu/optee_os/lib/libutils/isoc/bget_malloc.c:476
    9f78:	cb010294 	sub	x20, x20, x1
/home/lagadanu/Desktop/qemu/optee_os/lib/libutils/isoc/bget_malloc.c:477
    9f7c:	f1007e9f 	cmp	x20, #0x1f
    9f80:	54000a4d 	b.le	a0c8 <memalign+0x374>
/home/lagadanu/Desktop/qemu/optee_os/lib/libutils/isoc/bget_malloc.c:480
    9f84:	928001e3 	mov	x3, #0xfffffffffffffff0    	// #-16
    9f88:	cb020063 	sub	x3, x3, x2
    9f8c:	8b030262 	add	x2, x19, x3
/home/lagadanu/Desktop/qemu/optee_os/lib/libutils/isoc/bget_malloc.c:484
    9f90:	cb0103e1 	neg	x1, x1
    9f94:	f9000481 	str	x1, [x4,#8]
    9f98:	8b000260 	add	x0, x19, x0
/home/lagadanu/Desktop/qemu/optee_os/lib/libutils/isoc/bget_malloc.c:485
    9f9c:	f9400441 	ldr	x1, [x2,#8]
    9fa0:	f100003f 	cmp	x1, #0x0
    9fa4:	540008ad 	b.le	a0b8 <memalign+0x364>
/home/lagadanu/Desktop/qemu/optee_os/lib/libutils/isoc/bget_malloc.c:491
    9fa8:	f8636a63 	ldr	x3, [x19,x3]
    9fac:	b4000143 	cbz	x3, 9fd4 <memalign+0x280>
    9fb0:	d0000003 	adrp	x3, b000 <PRIME_TABLE+0x7f0>
    9fb4:	9115a063 	add	x3, x3, #0x568
    9fb8:	d0000001 	adrp	x1, b000 <PRIME_TABLE+0x7f0>
    9fbc:	d0000000 	adrp	x0, b000 <PRIME_TABLE+0x7f0>
    9fc0:	9101a063 	add	x3, x3, #0x68
    9fc4:	52803d62 	mov	w2, #0x1eb                 	// #491
    9fc8:	9120cc21 	add	x1, x1, #0x833
    9fcc:	912e8800 	add	x0, x0, #0xba2
    9fd0:	17ffff94 	b	9e20 <memalign+0xcc>
/home/lagadanu/Desktop/qemu/optee_os/lib/libutils/isoc/bget_malloc.c:492
    9fd4:	f8616843 	ldr	x3, [x2,x1]
    9fd8:	eb03003f 	cmp	x1, x3
    9fdc:	54000140 	b.eq	a004 <memalign+0x2b0>
    9fe0:	d0000003 	adrp	x3, b000 <PRIME_TABLE+0x7f0>
    9fe4:	9115a063 	add	x3, x3, #0x568
    9fe8:	d0000001 	adrp	x1, b000 <PRIME_TABLE+0x7f0>
    9fec:	d0000000 	adrp	x0, b000 <PRIME_TABLE+0x7f0>
    9ff0:	9101a063 	add	x3, x3, #0x68
    9ff4:	52803d82 	mov	w2, #0x1ec                 	// #492
    9ff8:	9120cc21 	add	x1, x1, #0x833
    9ffc:	912ee000 	add	x0, x0, #0xbb8
    a000:	17ffff88 	b	9e20 <memalign+0xcc>
/home/lagadanu/Desktop/qemu/optee_os/lib/libutils/isoc/bget_malloc.c:496
    a004:	8b010283 	add	x3, x20, x1
    a008:	a9000c1f 	stp	xzr, x3, [x0]
/home/lagadanu/Desktop/qemu/optee_os/lib/libutils/isoc/bget_malloc.c:499
    a00c:	f8616843 	ldr	x3, [x2,x1]
    a010:	8b140063 	add	x3, x3, x20
    a014:	f8216843 	str	x3, [x2,x1]
/home/lagadanu/Desktop/qemu/optee_os/lib/libutils/isoc/bget_malloc.c:505
    a018:	f9400c41 	ldr	x1, [x2,#24]
    a01c:	f9400823 	ldr	x3, [x1,#16]
    a020:	eb03005f 	cmp	x2, x3
    a024:	54000140 	b.eq	a04c <memalign+0x2f8>
    a028:	b0000003 	adrp	x3, b000 <PRIME_TABLE+0x7f0>
    a02c:	9115a063 	add	x3, x3, #0x568
    a030:	b0000001 	adrp	x1, b000 <PRIME_TABLE+0x7f0>
    a034:	b0000000 	adrp	x0, b000 <PRIME_TABLE+0x7f0>
    a038:	9101a063 	add	x3, x3, #0x68
    a03c:	52803f22 	mov	w2, #0x1f9                 	// #505
    a040:	9120cc21 	add	x1, x1, #0x833
    a044:	912f5c00 	add	x0, x0, #0xbd7
    a048:	17ffff76 	b	9e20 <memalign+0xcc>
/home/lagadanu/Desktop/qemu/optee_os/lib/libutils/isoc/bget_malloc.c:506
    a04c:	f9400843 	ldr	x3, [x2,#16]
    a050:	f9400c64 	ldr	x4, [x3,#24]
    a054:	eb04005f 	cmp	x2, x4
    a058:	54000140 	b.eq	a080 <memalign+0x32c>
    a05c:	b0000003 	adrp	x3, b000 <PRIME_TABLE+0x7f0>
    a060:	9115a063 	add	x3, x3, #0x568
    a064:	b0000001 	adrp	x1, b000 <PRIME_TABLE+0x7f0>
    a068:	b0000000 	adrp	x0, b000 <PRIME_TABLE+0x7f0>
    a06c:	9101a063 	add	x3, x3, #0x68
    a070:	52803f42 	mov	w2, #0x1fa                 	// #506
    a074:	9120cc21 	add	x1, x1, #0x833
    a078:	912fd800 	add	x0, x0, #0xbf6
    a07c:	17ffff69 	b	9e20 <memalign+0xcc>
/home/lagadanu/Desktop/qemu/optee_os/lib/libutils/isoc/bget_malloc.c:509
    a080:	a9010403 	stp	x3, x1, [x0,#16]
/home/lagadanu/Desktop/qemu/optee_os/lib/libutils/isoc/bget_malloc.c:513
    a084:	f9000820 	str	x0, [x1,#16]
/home/lagadanu/Desktop/qemu/optee_os/lib/libutils/isoc/bget_malloc.c:514
    a088:	f9400801 	ldr	x1, [x0,#16]
    a08c:	f9000c20 	str	x0, [x1,#24]
/home/lagadanu/Desktop/qemu/optee_os/lib/libutils/isoc/bget_malloc.c:521
    a090:	910442c1 	add	x1, x22, #0x110
    a094:	f9401020 	ldr	x0, [x1,#32]
    a098:	cb140014 	sub	x20, x0, x20
    a09c:	f9001034 	str	x20, [x1,#32]
/home/lagadanu/Desktop/qemu/optee_os/lib/libutils/isoc/bget_malloc.c:522
    a0a0:	b6f80154 	tbz	x20, #63, a0c8 <memalign+0x374>
    a0a4:	b0000003 	adrp	x3, b000 <PRIME_TABLE+0x7f0>
    a0a8:	9115a063 	add	x3, x3, #0x568
    a0ac:	9101a063 	add	x3, x3, #0x68
    a0b0:	52804142 	mov	w2, #0x20a                 	// #522
    a0b4:	17ffff92 	b	9efc <memalign+0x1a8>
/home/lagadanu/Desktop/qemu/optee_os/lib/libutils/isoc/bget_malloc.c:517
    a0b8:	aa1403e1 	mov	x1, x20
    a0bc:	97fffcba 	bl	93a4 <create_free_block.constprop.11>
    a0c0:	17fffff4 	b	a090 <memalign+0x33c>
raw_memalign():
/home/lagadanu/Desktop/qemu/optee_os/lib/libutils/isoc/bget_malloc.c:553
    a0c4:	d2800013 	mov	x19, #0x0                   	// #0
/home/lagadanu/Desktop/qemu/optee_os/lib/libutils/isoc/bget_malloc.c:589
    a0c8:	910442d6 	add	x22, x22, #0x110
    a0cc:	aa1503e1 	mov	x1, x21
    a0d0:	aa1303e0 	mov	x0, x19
    a0d4:	f94012c2 	ldr	x2, [x22,#32]
    a0d8:	97fffca3 	bl	9364 <raw_malloc_return_hook.isra.3>
memalign():
/home/lagadanu/Desktop/qemu/optee_os/lib/libutils/isoc/bget_malloc.c:867
    a0dc:	aa1303e0 	mov	x0, x19
    a0e0:	f9401bf7 	ldr	x23, [sp,#48]
    a0e4:	a94153f3 	ldp	x19, x20, [sp,#16]
    a0e8:	a9425bf5 	ldp	x21, x22, [sp,#32]
    a0ec:	a8c47bfd 	ldp	x29, x30, [sp],#64
    a0f0:	d65f03c0 	ret
raw_memalign():
/home/lagadanu/Desktop/qemu/optee_os/lib/libutils/isoc/bget_malloc.c:536
    a0f4:	d2800013 	mov	x19, #0x0                   	// #0
memalign():
/home/lagadanu/Desktop/qemu/optee_os/lib/libutils/isoc/bget_malloc.c:866
    a0f8:	17fffff9 	b	a0dc <memalign+0x388>

000000000000a0fc <malloc_add_pool>:
malloc_add_pool():
/home/lagadanu/Desktop/qemu/optee_os/lib/libutils/isoc/bget_malloc.c:878
    a0fc:	a9bb7bfd 	stp	x29, x30, [sp,#-80]!
    a100:	910003fd 	mov	x29, sp
    a104:	a90153f3 	stp	x19, x20, [sp,#16]
/home/lagadanu/Desktop/qemu/optee_os/lib/libutils/isoc/bget_malloc.c:883
    a108:	8b010014 	add	x20, x0, x1
/home/lagadanu/Desktop/qemu/optee_os/lib/libutils/isoc/bget_malloc.c:878
    a10c:	a9025bf5 	stp	x21, x22, [sp,#32]
/home/lagadanu/Desktop/qemu/optee_os/lib/libutils/isoc/bget_malloc.c:889
    a110:	91003c00 	add	x0, x0, #0xf
/home/lagadanu/Desktop/qemu/optee_os/lib/libutils/isoc/bget_malloc.c:878
    a114:	a90363f7 	stp	x23, x24, [sp,#48]
/home/lagadanu/Desktop/qemu/optee_os/lib/libutils/isoc/bget_malloc.c:889
    a118:	927cec15 	and	x21, x0, #0xfffffffffffffff0
/home/lagadanu/Desktop/qemu/optee_os/lib/libutils/isoc/bget_malloc.c:878
    a11c:	a9046bf9 	stp	x25, x26, [sp,#64]
/home/lagadanu/Desktop/qemu/optee_os/lib/libutils/isoc/bget_malloc.c:890
    a120:	927cee94 	and	x20, x20, #0xfffffffffffffff0
/home/lagadanu/Desktop/qemu/optee_os/lib/libutils/isoc/bget_malloc.c:891
    a124:	eb1402bf 	cmp	x21, x20
    a128:	54000163 	b.cc	a154 <malloc_add_pool+0x58>
/home/lagadanu/Desktop/qemu/optee_os/lib/libutils/isoc/bget_malloc.c:891 (discriminator 1)
    a12c:	b0000003 	adrp	x3, b000 <PRIME_TABLE+0x7f0>
    a130:	9115a063 	add	x3, x3, #0x568
    a134:	b0000001 	adrp	x1, b000 <PRIME_TABLE+0x7f0>
    a138:	b0000000 	adrp	x0, b000 <PRIME_TABLE+0x7f0>
    a13c:	9101e063 	add	x3, x3, #0x78
    a140:	9120cc21 	add	x1, x1, #0x833
    a144:	91305400 	add	x0, x0, #0xc15
    a148:	52806f62 	mov	w2, #0x37b                 	// #891
/home/lagadanu/Desktop/qemu/optee_os/lib/libutils/isoc/bget_malloc.c:904 (discriminator 1)
    a14c:	94000167 	bl	a6e8 <_assert_log>
    a150:	94000177 	bl	a72c <_assert_break>
/home/lagadanu/Desktop/qemu/optee_os/lib/libutils/isoc/bget_malloc.c:893
    a154:	cb150294 	sub	x20, x20, x21
    a158:	f100be9f 	cmp	x20, #0x2f
    a15c:	540005c9 	b.ls	a214 <malloc_add_pool+0x118>
/home/lagadanu/Desktop/qemu/optee_os/lib/libutils/isoc/bget_malloc.c:901
    a160:	f0000016 	adrp	x22, d000 <iv>
    a164:	910442d9 	add	x25, x22, #0x110
    a168:	aa1503e0 	mov	x0, x21
    a16c:	aa1903e2 	mov	x2, x25
    a170:	aa1403e1 	mov	x1, x20
    a174:	97fffe52 	bl	9abc <bpool>
/home/lagadanu/Desktop/qemu/optee_os/lib/libutils/isoc/bget_malloc.c:902
    a178:	b0000060 	adrp	x0, 17000 <buf.3610+0x4b0>
    a17c:	912d6003 	add	x3, x0, #0xb58
    a180:	aa0003f3 	mov	x19, x0
raw_realloc():
/home/lagadanu/Desktop/qemu/optee_os/lib/libutils/isoc/bget_malloc.c:358
    a184:	d280001a 	mov	x26, #0x0                   	// #0
malloc_add_pool():
/home/lagadanu/Desktop/qemu/optee_os/lib/libutils/isoc/bget_malloc.c:902
    a188:	f9401c77 	ldr	x23, [x3,#56]
    a18c:	910006f7 	add	x23, x23, #0x1
/home/lagadanu/Desktop/qemu/optee_os/lib/libutils/isoc/bget_malloc.c:903
    a190:	d37ceef8 	lsl	x24, x23, #4
raw_realloc():
/home/lagadanu/Desktop/qemu/optee_os/lib/libutils/isoc/bget_malloc.c:362
    a194:	b7f800f8 	tbnz	x24, #63, a1b0 <malloc_add_pool+0xb4>
/home/lagadanu/Desktop/qemu/optee_os/lib/libutils/isoc/bget_malloc.c:373
    a198:	f9402060 	ldr	x0, [x3,#64]
/home/lagadanu/Desktop/qemu/optee_os/lib/libutils/isoc/bget_malloc.c:371
    a19c:	f100031f 	cmp	x24, #0x0
/home/lagadanu/Desktop/qemu/optee_os/lib/libutils/isoc/bget_malloc.c:373
    a1a0:	aa1903e2 	mov	x2, x25
    a1a4:	9a9f1701 	csinc	x1, x24, xzr, ne
    a1a8:	97fffe13 	bl	99f4 <bgetr>
    a1ac:	aa0003fa 	mov	x26, x0
/home/lagadanu/Desktop/qemu/optee_os/lib/libutils/isoc/bget_malloc.c:375
    a1b0:	910442d6 	add	x22, x22, #0x110
    a1b4:	aa1803e1 	mov	x1, x24
    a1b8:	aa1a03e0 	mov	x0, x26
    a1bc:	f94012c2 	ldr	x2, [x22,#32]
    a1c0:	97fffc69 	bl	9364 <raw_malloc_return_hook.isra.3>
malloc_add_pool():
/home/lagadanu/Desktop/qemu/optee_os/lib/libutils/isoc/bget_malloc.c:904
    a1c4:	b500015a 	cbnz	x26, a1ec <malloc_add_pool+0xf0>
/home/lagadanu/Desktop/qemu/optee_os/lib/libutils/isoc/bget_malloc.c:904 (discriminator 1)
    a1c8:	b0000003 	adrp	x3, b000 <PRIME_TABLE+0x7f0>
    a1cc:	9115a063 	add	x3, x3, #0x568
    a1d0:	b0000001 	adrp	x1, b000 <PRIME_TABLE+0x7f0>
    a1d4:	b0000000 	adrp	x0, b000 <PRIME_TABLE+0x7f0>
    a1d8:	9101e063 	add	x3, x3, #0x78
    a1dc:	52807102 	mov	w2, #0x388                 	// #904
    a1e0:	9120cc21 	add	x1, x1, #0x833
    a1e4:	91308400 	add	x0, x0, #0xc21
    a1e8:	17ffffd9 	b	a14c <malloc_add_pool+0x50>
/home/lagadanu/Desktop/qemu/optee_os/lib/libutils/isoc/bget_malloc.c:905
    a1ec:	912d6260 	add	x0, x19, #0xb58
/home/lagadanu/Desktop/qemu/optee_os/lib/libutils/isoc/bget_malloc.c:906
    a1f0:	f9401c01 	ldr	x1, [x0,#56]
/home/lagadanu/Desktop/qemu/optee_os/lib/libutils/isoc/bget_malloc.c:905
    a1f4:	a903e817 	stp	x23, x26, [x0,#56]
/home/lagadanu/Desktop/qemu/optee_os/lib/libutils/isoc/bget_malloc.c:906
    a1f8:	d37cec21 	lsl	x1, x1, #4
    a1fc:	8b010342 	add	x2, x26, x1
    a200:	f8216b55 	str	x21, [x26,x1]
/home/lagadanu/Desktop/qemu/optee_os/lib/libutils/isoc/bget_malloc.c:909
    a204:	b9402801 	ldr	w1, [x0,#40]
/home/lagadanu/Desktop/qemu/optee_os/lib/libutils/isoc/bget_malloc.c:907
    a208:	f9000454 	str	x20, [x2,#8]
/home/lagadanu/Desktop/qemu/optee_os/lib/libutils/isoc/bget_malloc.c:909
    a20c:	0b140034 	add	w20, w1, w20
    a210:	b9002814 	str	w20, [x0,#40]
/home/lagadanu/Desktop/qemu/optee_os/lib/libutils/isoc/bget_malloc.c:913
    a214:	a94153f3 	ldp	x19, x20, [sp,#16]
    a218:	a9425bf5 	ldp	x21, x22, [sp,#32]
    a21c:	a94363f7 	ldp	x23, x24, [sp,#48]
    a220:	a9446bf9 	ldp	x25, x26, [sp,#64]
    a224:	a8c57bfd 	ldp	x29, x30, [sp],#80
    a228:	d65f03c0 	ret

000000000000a22c <malloc_buffer_is_within_alloced>:
malloc_buffer_is_within_alloced():
/home/lagadanu/Desktop/qemu/optee_os/lib/libutils/isoc/bget_malloc.c:920
    a22c:	8b010001 	add	x1, x0, x1
/home/lagadanu/Desktop/qemu/optee_os/lib/libutils/isoc/bget_malloc.c:927
    a230:	eb01001f 	cmp	x0, x1
    a234:	54000b88 	b.hi	a3a4 <malloc_buffer_is_within_alloced+0x178>
    a238:	aa0003e5 	mov	x5, x0
bpool_foreach_iterator_init():
/home/lagadanu/Desktop/qemu/optee_os/lib/libutils/isoc/bget_malloc.c:230
    a23c:	b0000060 	adrp	x0, 17000 <buf.3610+0x4b0>
    a240:	912d6000 	add	x0, x0, #0xb58
/home/lagadanu/Desktop/qemu/optee_os/lib/libutils/isoc/bget_malloc.c:229
    a244:	d2800006 	mov	x6, #0x0                   	// #0
bpool_foreach_pool():
/home/lagadanu/Desktop/qemu/optee_os/lib/libutils/isoc/bget_malloc.c:239
    a248:	d2f0000b 	mov	x11, #0x8000000000000000    	// #-9223372036854775808
bget_buf_size():
/home/lagadanu/Desktop/qemu/optee_os/lib/libutils/isoc/bget_malloc.c:611
    a24c:	928001e9 	mov	x9, #0xfffffffffffffff0    	// #-16
bpool_foreach_iterator_init():
/home/lagadanu/Desktop/qemu/optee_os/lib/libutils/isoc/bget_malloc.c:230
    a250:	a9439c0a 	ldp	x10, x7, [x0,#56]
    a254:	f94000e3 	ldr	x3, [x7]
bpool_foreach_pool():
/home/lagadanu/Desktop/qemu/optee_os/lib/libutils/isoc/bget_malloc.c:237
    a258:	f9400462 	ldr	x2, [x3,#8]
bpool_foreach():
/home/lagadanu/Desktop/qemu/optee_os/lib/libutils/isoc/bget_malloc.c:279
    a25c:	aa0303e4 	mov	x4, x3
bpool_foreach_pool():
/home/lagadanu/Desktop/qemu/optee_os/lib/libutils/isoc/bget_malloc.c:239
    a260:	eb0b005f 	cmp	x2, x11
    a264:	540009a0 	b.eq	a398 <malloc_buffer_is_within_alloced+0x16c>
malloc_buffer_is_within_alloced():
/home/lagadanu/Desktop/qemu/optee_os/lib/libutils/isoc/bget_malloc.c:916
    a268:	a9bf7bfd 	stp	x29, x30, [sp,#-16]!
    a26c:	910003fd 	mov	x29, sp
    a270:	1400000d 	b	a2a4 <malloc_buffer_is_within_alloced+0x78>
bpool_foreach_pool():
/home/lagadanu/Desktop/qemu/optee_os/lib/libutils/isoc/bget_malloc.c:256
    a274:	91004084 	add	x4, x4, #0x10
malloc_buffer_is_within_alloced():
/home/lagadanu/Desktop/qemu/optee_os/lib/libutils/isoc/bget_malloc.c:936
    a278:	8b020082 	add	x2, x4, x2
/home/lagadanu/Desktop/qemu/optee_os/lib/libutils/isoc/bget_malloc.c:938
    a27c:	eb02003f 	cmp	x1, x2
    a280:	1a9f87e2 	cset	w2, ls
    a284:	eb0400bf 	cmp	x5, x4
    a288:	1a9f37e0 	cset	w0, cs
    a28c:	6a000040 	ands	w0, w2, w0
    a290:	540007a1 	b.ne	a384 <malloc_buffer_is_within_alloced+0x158>
bpool_foreach_pool():
/home/lagadanu/Desktop/qemu/optee_os/lib/libutils/isoc/bget_malloc.c:237
    a294:	f9400462 	ldr	x2, [x3,#8]
bpool_foreach():
/home/lagadanu/Desktop/qemu/optee_os/lib/libutils/isoc/bget_malloc.c:279
    a298:	aa0303e4 	mov	x4, x3
bpool_foreach_pool():
/home/lagadanu/Desktop/qemu/optee_os/lib/libutils/isoc/bget_malloc.c:239
    a29c:	eb0b005f 	cmp	x2, x11
    a2a0:	540006a0 	b.eq	a374 <malloc_buffer_is_within_alloced+0x148>
/home/lagadanu/Desktop/qemu/optee_os/lib/libutils/isoc/bget_malloc.c:242
    a2a4:	b6f80242 	tbz	x2, #63, a2ec <malloc_buffer_is_within_alloced+0xc0>
/home/lagadanu/Desktop/qemu/optee_os/lib/libutils/isoc/bget_malloc.c:244
    a2a8:	cb0203e8 	neg	x8, x2
/home/lagadanu/Desktop/qemu/optee_os/lib/libutils/isoc/bget_malloc.c:246
    a2ac:	52800000 	mov	w0, #0x0                   	// #0
/home/lagadanu/Desktop/qemu/optee_os/lib/libutils/isoc/bget_malloc.c:259
    a2b0:	8b080063 	add	x3, x3, x8
bpool_foreach():
/home/lagadanu/Desktop/qemu/optee_os/lib/libutils/isoc/bget_malloc.c:270
    a2b4:	35ffff00 	cbnz	w0, a294 <malloc_buffer_is_within_alloced+0x68>
bget_buf_size():
/home/lagadanu/Desktop/qemu/optee_os/lib/libutils/isoc/bget_malloc.c:611
    a2b8:	cb020122 	sub	x2, x9, x2
/home/lagadanu/Desktop/qemu/optee_os/lib/libutils/isoc/bget_malloc.c:612
    a2bc:	f100005f 	cmp	x2, #0x0
    a2c0:	54fffdac 	b.gt	a274 <malloc_buffer_is_within_alloced+0x48>
    a2c4:	b0000003 	adrp	x3, b000 <PRIME_TABLE+0x7f0>
    a2c8:	9115a063 	add	x3, x3, #0x568
    a2cc:	91022063 	add	x3, x3, #0x88
    a2d0:	b0000001 	adrp	x1, b000 <PRIME_TABLE+0x7f0>
    a2d4:	b0000000 	adrp	x0, b000 <PRIME_TABLE+0x7f0>
    a2d8:	9120cc21 	add	x1, x1, #0x833
    a2dc:	912ad800 	add	x0, x0, #0xab6
    a2e0:	52804c82 	mov	w2, #0x264                 	// #612
    a2e4:	94000101 	bl	a6e8 <_assert_log>
    a2e8:	94000111 	bl	a72c <_assert_break>
bpool_foreach_pool():
/home/lagadanu/Desktop/qemu/optee_os/lib/libutils/isoc/bget_malloc.c:252
    a2ec:	f9400c60 	ldr	x0, [x3,#24]
    a2f0:	f9400800 	ldr	x0, [x0,#16]
    a2f4:	eb00007f 	cmp	x3, x0
    a2f8:	54000160 	b.eq	a324 <malloc_buffer_is_within_alloced+0xf8>
    a2fc:	b0000003 	adrp	x3, b000 <PRIME_TABLE+0x7f0>
    a300:	9115a063 	add	x3, x3, #0x568
    a304:	91026063 	add	x3, x3, #0x98
    a308:	b0000001 	adrp	x1, b000 <PRIME_TABLE+0x7f0>
    a30c:	b0000000 	adrp	x0, b000 <PRIME_TABLE+0x7f0>
    a310:	9120cc21 	add	x1, x1, #0x833
    a314:	91255800 	add	x0, x0, #0x956
    a318:	52801f82 	mov	w2, #0xfc                  	// #252
    a31c:	940000f3 	bl	a6e8 <_assert_log>
    a320:	94000103 	bl	a72c <_assert_break>
/home/lagadanu/Desktop/qemu/optee_os/lib/libutils/isoc/bget_malloc.c:253
    a324:	f9400860 	ldr	x0, [x3,#16]
    a328:	f9400c00 	ldr	x0, [x0,#24]
    a32c:	eb00007f 	cmp	x3, x0
    a330:	54000160 	b.eq	a35c <malloc_buffer_is_within_alloced+0x130>
    a334:	b0000003 	adrp	x3, b000 <PRIME_TABLE+0x7f0>
    a338:	9115a063 	add	x3, x3, #0x568
    a33c:	91026063 	add	x3, x3, #0x98
    a340:	b0000001 	adrp	x1, b000 <PRIME_TABLE+0x7f0>
    a344:	b0000000 	adrp	x0, b000 <PRIME_TABLE+0x7f0>
    a348:	9120cc21 	add	x1, x1, #0x833
    a34c:	9125c400 	add	x0, x0, #0x971
    a350:	52801fa2 	mov	w2, #0xfd                  	// #253
    a354:	940000e5 	bl	a6e8 <_assert_log>
    a358:	940000f5 	bl	a72c <_assert_break>
    a35c:	aa0203e8 	mov	x8, x2
/home/lagadanu/Desktop/qemu/optee_os/lib/libutils/isoc/bget_malloc.c:249
    a360:	52800020 	mov	w0, #0x1                   	// #1
    a364:	17ffffd3 	b	a2b0 <malloc_buffer_is_within_alloced+0x84>
bpool_foreach():
/home/lagadanu/Desktop/qemu/optee_os/lib/libutils/isoc/bget_malloc.c:279
    a368:	d37cecc0 	lsl	x0, x6, #4
    a36c:	f86068e3 	ldr	x3, [x7,x0]
    a370:	17ffffc9 	b	a294 <malloc_buffer_is_within_alloced+0x68>
/home/lagadanu/Desktop/qemu/optee_os/lib/libutils/isoc/bget_malloc.c:275
    a374:	910004c6 	add	x6, x6, #0x1
    a378:	eb0a00df 	cmp	x6, x10
    a37c:	54ffff63 	b.cc	a368 <malloc_buffer_is_within_alloced+0x13c>
malloc_buffer_is_within_alloced():
/home/lagadanu/Desktop/qemu/optee_os/lib/libutils/isoc/bget_malloc.c:921
    a380:	52800000 	mov	w0, #0x0                   	// #0
/home/lagadanu/Desktop/qemu/optee_os/lib/libutils/isoc/bget_malloc.c:948
    a384:	a8c17bfd 	ldp	x29, x30, [sp],#16
    a388:	d65f03c0 	ret
bpool_foreach():
/home/lagadanu/Desktop/qemu/optee_os/lib/libutils/isoc/bget_malloc.c:279
    a38c:	d37cecc0 	lsl	x0, x6, #4
    a390:	f86068e3 	ldr	x3, [x7,x0]
    a394:	17ffffb1 	b	a258 <malloc_buffer_is_within_alloced+0x2c>
/home/lagadanu/Desktop/qemu/optee_os/lib/libutils/isoc/bget_malloc.c:275
    a398:	910004c6 	add	x6, x6, #0x1
    a39c:	eb0a00df 	cmp	x6, x10
    a3a0:	54ffff63 	b.cc	a38c <malloc_buffer_is_within_alloced+0x160>
malloc_buffer_is_within_alloced():
/home/lagadanu/Desktop/qemu/optee_os/lib/libutils/isoc/bget_malloc.c:921
    a3a4:	52800000 	mov	w0, #0x0                   	// #0
/home/lagadanu/Desktop/qemu/optee_os/lib/libutils/isoc/bget_malloc.c:947
    a3a8:	d65f03c0 	ret

000000000000a3ac <malloc_buffer_overlaps_heap>:
malloc_buffer_overlaps_heap():
/home/lagadanu/Desktop/qemu/optee_os/lib/libutils/isoc/bget_malloc.c:960
    a3ac:	b0000062 	adrp	x2, 17000 <buf.3610+0x4b0>
    a3b0:	912d6042 	add	x2, x2, #0xb58
/home/lagadanu/Desktop/qemu/optee_os/lib/libutils/isoc/bget_malloc.c:953
    a3b4:	8b010001 	add	x1, x0, x1
/home/lagadanu/Desktop/qemu/optee_os/lib/libutils/isoc/bget_malloc.c:960
    a3b8:	d2800005 	mov	x5, #0x0                   	// #0
    a3bc:	a9438c47 	ldp	x7, x3, [x2,#56]
/home/lagadanu/Desktop/qemu/optee_os/lib/libutils/isoc/bget_malloc.c:960 (discriminator 1)
    a3c0:	eb0700bf 	cmp	x5, x7
    a3c4:	54000081 	b.ne	a3d4 <malloc_buffer_overlaps_heap+0x28>
/home/lagadanu/Desktop/qemu/optee_os/lib/libutils/isoc/bget_malloc.c:955
    a3c8:	52800002 	mov	w2, #0x0                   	// #0
/home/lagadanu/Desktop/qemu/optee_os/lib/libutils/isoc/bget_malloc.c:978
    a3cc:	2a0203e0 	mov	w0, w2
    a3d0:	d65f03c0 	ret
/home/lagadanu/Desktop/qemu/optee_os/lib/libutils/isoc/bget_malloc.c:962
    a3d4:	a9401066 	ldp	x6, x4, [x3]
/home/lagadanu/Desktop/qemu/optee_os/lib/libutils/isoc/bget_malloc.c:964
    a3d8:	eb01001f 	cmp	x0, x1
    a3dc:	1a9f97e2 	cset	w2, hi
/home/lagadanu/Desktop/qemu/optee_os/lib/libutils/isoc/bget_malloc.c:962
    a3e0:	8b0400c4 	add	x4, x6, x4
/home/lagadanu/Desktop/qemu/optee_os/lib/libutils/isoc/bget_malloc.c:964
    a3e4:	eb0400df 	cmp	x6, x4
    a3e8:	1a9f97e8 	cset	w8, hi
    a3ec:	2a080042 	orr	w2, w2, w8
    a3f0:	35fffee2 	cbnz	w2, a3cc <malloc_buffer_overlaps_heap+0x20>
/home/lagadanu/Desktop/qemu/optee_os/lib/libutils/isoc/bget_malloc.c:969
    a3f4:	eb06003f 	cmp	x1, x6
    a3f8:	91004063 	add	x3, x3, #0x10
    a3fc:	1a9f97e2 	cset	w2, hi
    a400:	eb04001f 	cmp	x0, x4
    a404:	1a9f27e4 	cset	w4, cc
    a408:	2a040042 	orr	w2, w2, w4
    a40c:	35fffe02 	cbnz	w2, a3cc <malloc_buffer_overlaps_heap+0x20>
/home/lagadanu/Desktop/qemu/optee_os/lib/libutils/isoc/bget_malloc.c:960 (discriminator 2)
    a410:	910004a5 	add	x5, x5, #0x1
    a414:	17ffffeb 	b	a3c0 <malloc_buffer_overlaps_heap+0x14>

000000000000a418 <snprintf>:
snprintf():
/home/lagadanu/Desktop/qemu/optee_os/lib/libutils/isoc/snprintf.c:10
    a418:	a9b07bfd 	stp	x29, x30, [sp,#-256]!
    a41c:	910003fd 	mov	x29, sp
    a420:	a90d93a3 	stp	x3, x4, [x29,#216]
/home/lagadanu/Desktop/qemu/optee_os/lib/libutils/isoc/snprintf.c:14
    a424:	910403a3 	add	x3, x29, #0x100
    a428:	a9030fa3 	stp	x3, x3, [x29,#48]
    a42c:	910343a3 	add	x3, x29, #0xd0
    a430:	f90023a3 	str	x3, [x29,#64]
    a434:	128004e3 	mov	w3, #0xffffffd8            	// #-40
    a438:	b9004ba3 	str	w3, [x29,#72]
    a43c:	12800fe3 	mov	w3, #0xffffff80            	// #-128
    a440:	b9004fa3 	str	w3, [x29,#76]
/home/lagadanu/Desktop/qemu/optee_os/lib/libutils/isoc/snprintf.c:15
    a444:	910043a3 	add	x3, x29, #0x10
/home/lagadanu/Desktop/qemu/optee_os/lib/libutils/isoc/snprintf.c:10
    a448:	a90e9ba5 	stp	x5, x6, [x29,#232]
/home/lagadanu/Desktop/qemu/optee_os/lib/libutils/isoc/snprintf.c:15
    a44c:	a94317a4 	ldp	x4, x5, [x29,#48]
    a450:	a90117a4 	stp	x4, x5, [x29,#16]
    a454:	a94417a4 	ldp	x4, x5, [x29,#64]
    a458:	a90217a4 	stp	x4, x5, [x29,#32]
/home/lagadanu/Desktop/qemu/optee_os/lib/libutils/isoc/snprintf.c:10
    a45c:	3d8017a0 	str	q0, [x29,#80]
/home/lagadanu/Desktop/qemu/optee_os/lib/libutils/isoc/snprintf.c:15
    a460:	52800004 	mov	w4, #0x0                   	// #0
/home/lagadanu/Desktop/qemu/optee_os/lib/libutils/isoc/snprintf.c:10
    a464:	3d801ba1 	str	q1, [x29,#96]
    a468:	3d801fa2 	str	q2, [x29,#112]
    a46c:	3d8023a3 	str	q3, [x29,#128]
    a470:	3d8027a4 	str	q4, [x29,#144]
    a474:	3d802ba5 	str	q5, [x29,#160]
    a478:	3d802fa6 	str	q6, [x29,#176]
    a47c:	3d8033a7 	str	q7, [x29,#192]
    a480:	f9007fa7 	str	x7, [x29,#248]
/home/lagadanu/Desktop/qemu/optee_os/lib/libutils/isoc/snprintf.c:15
    a484:	97ffd87e 	bl	67c <__vsnprintf>
/home/lagadanu/Desktop/qemu/optee_os/lib/libutils/isoc/snprintf.c:19
    a488:	a8d07bfd 	ldp	x29, x30, [sp],#256
    a48c:	d65f03c0 	ret

000000000000a490 <vsnprintf>:
vsnprintf():
/home/lagadanu/Desktop/qemu/optee_os/lib/libutils/isoc/snprintf.c:22
    a490:	a9bb7bfd 	stp	x29, x30, [sp,#-80]!
    a494:	910003fd 	mov	x29, sp
    a498:	a90153f3 	stp	x19, x20, [sp,#16]
    a49c:	aa0003f3 	mov	x19, x0
    a4a0:	f90013f5 	str	x21, [sp,#32]
    a4a4:	aa0103f4 	mov	x20, x1
    a4a8:	aa0203f5 	mov	x21, x2
/home/lagadanu/Desktop/qemu/optee_os/lib/libutils/isoc/snprintf.c:23
    a4ac:	aa0303e1 	mov	x1, x3
    a4b0:	9100c3a0 	add	x0, x29, #0x30
    a4b4:	d2800402 	mov	x2, #0x20                  	// #32
    a4b8:	97ffdb98 	bl	1318 <memcpy>
    a4bc:	aa0003e3 	mov	x3, x0
    a4c0:	aa1503e2 	mov	x2, x21
    a4c4:	aa1403e1 	mov	x1, x20
    a4c8:	52800004 	mov	w4, #0x0                   	// #0
    a4cc:	aa1303e0 	mov	x0, x19
    a4d0:	97ffd86b 	bl	67c <__vsnprintf>
/home/lagadanu/Desktop/qemu/optee_os/lib/libutils/isoc/snprintf.c:24
    a4d4:	f94013f5 	ldr	x21, [sp,#32]
    a4d8:	a94153f3 	ldp	x19, x20, [sp,#16]
    a4dc:	a8c57bfd 	ldp	x29, x30, [sp],#80
    a4e0:	d65f03c0 	ret

000000000000a4e4 <memcmp>:
memcmp():
/home/lagadanu/Desktop/qemu/optee_os/lib/libutils/isoc/newlib/memcmp.c:90
    a4e4:	d2800004 	mov	x4, #0x0                   	// #0
    a4e8:	eb04005f 	cmp	x2, x4
    a4ec:	54000061 	b.ne	a4f8 <memcmp+0x14>
/home/lagadanu/Desktop/qemu/optee_os/lib/libutils/isoc/newlib/memcmp.c:96
    a4f0:	52800000 	mov	w0, #0x0                   	// #0
/home/lagadanu/Desktop/qemu/optee_os/lib/libutils/isoc/newlib/memcmp.c:136
    a4f4:	d65f03c0 	ret
/home/lagadanu/Desktop/qemu/optee_os/lib/libutils/isoc/newlib/memcmp.c:91
    a4f8:	38646803 	ldrb	w3, [x0,x4]
    a4fc:	91000484 	add	x4, x4, #0x1
    a500:	8b040025 	add	x5, x1, x4
    a504:	385ff0a5 	ldurb	w5, [x5,#-1]
    a508:	6b05007f 	cmp	w3, w5
    a50c:	54fffee0 	b.eq	a4e8 <memcmp+0x4>
/home/lagadanu/Desktop/qemu/optee_os/lib/libutils/isoc/newlib/memcmp.c:92
    a510:	4b050060 	sub	w0, w3, w5
    a514:	d65f03c0 	ret

000000000000a518 <memmove>:
memmove():
/home/lagadanu/Desktop/qemu/optee_os/lib/libutils/isoc/newlib/memmove.c:96
    a518:	eb01001f 	cmp	x0, x1
    a51c:	54000089 	b.ls	a52c <memmove+0x14>
/home/lagadanu/Desktop/qemu/optee_os/lib/libutils/isoc/newlib/memmove.c:96 (discriminator 1)
    a520:	8b020023 	add	x3, x1, x2
    a524:	eb03001f 	cmp	x0, x3
    a528:	540000e3 	b.cc	a544 <memmove+0x2c>
    a52c:	d2800003 	mov	x3, #0x0                   	// #0
/home/lagadanu/Desktop/qemu/optee_os/lib/libutils/isoc/newlib/memmove.c:103
    a530:	eb03005f 	cmp	x2, x3
    a534:	54000101 	b.ne	a554 <memmove+0x3c>
/home/lagadanu/Desktop/qemu/optee_os/lib/libutils/isoc/newlib/memmove.c:157
    a538:	d65f03c0 	ret
/home/lagadanu/Desktop/qemu/optee_os/lib/libutils/isoc/newlib/memmove.c:101
    a53c:	38626823 	ldrb	w3, [x1,x2]
    a540:	38226803 	strb	w3, [x0,x2]
/home/lagadanu/Desktop/qemu/optee_os/lib/libutils/isoc/newlib/memmove.c:100
    a544:	d1000442 	sub	x2, x2, #0x1
    a548:	b100045f 	cmn	x2, #0x1
    a54c:	54ffff81 	b.ne	a53c <memmove+0x24>
    a550:	d65f03c0 	ret
/home/lagadanu/Desktop/qemu/optee_os/lib/libutils/isoc/newlib/memmove.c:104
    a554:	38636824 	ldrb	w4, [x1,x3]
    a558:	38236804 	strb	w4, [x0,x3]
    a55c:	91000463 	add	x3, x3, #0x1
    a560:	17fffff4 	b	a530 <memmove+0x18>

000000000000a564 <memset>:
memset():
/home/lagadanu/Desktop/qemu/optee_os/lib/libutils/isoc/newlib/memset.c:125
    a564:	d2800003 	mov	x3, #0x0                   	// #0
    a568:	eb03005f 	cmp	x2, x3
    a56c:	54000041 	b.ne	a574 <memset+0x10>
/home/lagadanu/Desktop/qemu/optee_os/lib/libutils/isoc/newlib/memset.c:129
    a570:	d65f03c0 	ret
/home/lagadanu/Desktop/qemu/optee_os/lib/libutils/isoc/newlib/memset.c:126
    a574:	38236801 	strb	w1, [x0,x3]
    a578:	91000463 	add	x3, x3, #0x1
    a57c:	17fffffb 	b	a568 <memset+0x4>

000000000000a580 <buf_compare_ct>:
buf_compare_ct():
/home/lagadanu/Desktop/qemu/optee_os/lib/libutils/ext/buf_compare_ct.c:13
    a580:	d2800004 	mov	x4, #0x0                   	// #0
/home/lagadanu/Desktop/qemu/optee_os/lib/libutils/ext/buf_compare_ct.c:9
    a584:	52800003 	mov	w3, #0x0                   	// #0
/home/lagadanu/Desktop/qemu/optee_os/lib/libutils/ext/buf_compare_ct.c:13
    a588:	eb04005f 	cmp	x2, x4
    a58c:	540000c1 	b.ne	a5a4 <buf_compare_ct+0x24>
/home/lagadanu/Desktop/qemu/optee_os/lib/libutils/ext/buf_compare_ct.c:19
    a590:	2a831063 	orr	w3, w3, w3, asr #4
/home/lagadanu/Desktop/qemu/optee_os/lib/libutils/ext/buf_compare_ct.c:20
    a594:	2a830863 	orr	w3, w3, w3, asr #2
/home/lagadanu/Desktop/qemu/optee_os/lib/libutils/ext/buf_compare_ct.c:21
    a598:	2a830463 	orr	w3, w3, w3, asr #1
/home/lagadanu/Desktop/qemu/optee_os/lib/libutils/ext/buf_compare_ct.c:25
    a59c:	12000060 	and	w0, w3, #0x1
    a5a0:	d65f03c0 	ret
/home/lagadanu/Desktop/qemu/optee_os/lib/libutils/ext/buf_compare_ct.c:14
    a5a4:	38646805 	ldrb	w5, [x0,x4]
    a5a8:	38646826 	ldrb	w6, [x1,x4]
    a5ac:	91000484 	add	x4, x4, #0x1
    a5b0:	4a0600a5 	eor	w5, w5, w6
    a5b4:	12001ca5 	and	w5, w5, #0xff
    a5b8:	2a050063 	orr	w3, w3, w5
    a5bc:	17fffff3 	b	a588 <buf_compare_ct+0x8>

000000000000a5c0 <mempool_alloc_pool>:
mempool_alloc_pool():
/home/lagadanu/Desktop/qemu/optee_os/lib/libutils/ext/mempool.c:115
    a5c0:	a9be7bfd 	stp	x29, x30, [sp,#-32]!
    a5c4:	910003fd 	mov	x29, sp
    a5c8:	a90153f3 	stp	x19, x20, [sp,#16]
    a5cc:	aa0003f3 	mov	x19, x0
    a5d0:	aa0103f4 	mov	x20, x1
/home/lagadanu/Desktop/qemu/optee_os/lib/libutils/ext/mempool.c:116
    a5d4:	d2800020 	mov	x0, #0x1                   	// #1
    a5d8:	d2800301 	mov	x1, #0x18                  	// #24
    a5dc:	97fffdab 	bl	9c88 <calloc>
/home/lagadanu/Desktop/qemu/optee_os/lib/libutils/ext/mempool.c:119
    a5e0:	f2400a7f 	tst	x19, #0x7
    a5e4:	54000140 	b.eq	a60c <mempool_alloc_pool+0x4c>
/home/lagadanu/Desktop/qemu/optee_os/lib/libutils/ext/mempool.c:119 (discriminator 1)
    a5e8:	b0000003 	adrp	x3, b000 <PRIME_TABLE+0x7f0>
    a5ec:	b0000001 	adrp	x1, b000 <PRIME_TABLE+0x7f0>
    a5f0:	91186063 	add	x3, x3, #0x618
    a5f4:	91308c21 	add	x1, x1, #0xc23
    a5f8:	b0000000 	adrp	x0, b000 <PRIME_TABLE+0x7f0>
    a5fc:	9130f800 	add	x0, x0, #0xc3e
    a600:	52800ee2 	mov	w2, #0x77                  	// #119
    a604:	94000039 	bl	a6e8 <_assert_log>
    a608:	94000049 	bl	a72c <_assert_break>
/home/lagadanu/Desktop/qemu/optee_os/lib/libutils/ext/mempool.c:121
    a60c:	b4000080 	cbz	x0, a61c <mempool_alloc_pool+0x5c>
/home/lagadanu/Desktop/qemu/optee_os/lib/libutils/ext/mempool.c:124
    a610:	92800001 	mov	x1, #0xffffffffffffffff    	// #-1
/home/lagadanu/Desktop/qemu/optee_os/lib/libutils/ext/mempool.c:123
    a614:	f9000813 	str	x19, [x0,#16]
/home/lagadanu/Desktop/qemu/optee_os/lib/libutils/ext/mempool.c:124
    a618:	a9000414 	stp	x20, x1, [x0]
/home/lagadanu/Desktop/qemu/optee_os/lib/libutils/ext/mempool.c:134
    a61c:	a94153f3 	ldp	x19, x20, [sp,#16]
    a620:	a8c27bfd 	ldp	x29, x30, [sp],#32
    a624:	d65f03c0 	ret

000000000000a628 <mempool_alloc>:
mempool_alloc():
/home/lagadanu/Desktop/qemu/optee_os/lib/libutils/ext/mempool.c:144
    a628:	a9401403 	ldp	x3, x5, [x0]
/home/lagadanu/Desktop/qemu/optee_os/lib/libutils/ext/mempool.c:137
    a62c:	aa0003e4 	mov	x4, x0
/home/lagadanu/Desktop/qemu/optee_os/lib/libutils/ext/mempool.c:144
    a630:	b7f80165 	tbnz	x5, #63, a65c <mempool_alloc+0x34>
/home/lagadanu/Desktop/qemu/optee_os/lib/libutils/ext/mempool.c:147
    a634:	f9400800 	ldr	x0, [x0,#16]
/home/lagadanu/Desktop/qemu/optee_os/lib/libutils/ext/mempool.c:151
    a638:	91001ca2 	add	x2, x5, #0x7
/home/lagadanu/Desktop/qemu/optee_os/lib/libutils/ext/mempool.c:147
    a63c:	8b0000a6 	add	x6, x5, x0
/home/lagadanu/Desktop/qemu/optee_os/lib/libutils/ext/mempool.c:151
    a640:	f86068a0 	ldr	x0, [x5,x0]
    a644:	8b000042 	add	x2, x2, x0
/home/lagadanu/Desktop/qemu/optee_os/lib/libutils/ext/mempool.c:173
    a648:	d2800000 	mov	x0, #0x0                   	// #0
/home/lagadanu/Desktop/qemu/optee_os/lib/libutils/ext/mempool.c:151
    a64c:	927df042 	and	x2, x2, #0xfffffffffffffff8
/home/lagadanu/Desktop/qemu/optee_os/lib/libutils/ext/mempool.c:152
    a650:	eb03005f 	cmp	x2, x3
    a654:	54000089 	b.ls	a664 <mempool_alloc+0x3c>
    a658:	d65f03c0 	ret
/home/lagadanu/Desktop/qemu/optee_os/lib/libutils/ext/mempool.c:140
    a65c:	d2800006 	mov	x6, #0x0                   	// #0
/home/lagadanu/Desktop/qemu/optee_os/lib/libutils/ext/mempool.c:145
    a660:	d2800002 	mov	x2, #0x0                   	// #0
/home/lagadanu/Desktop/qemu/optee_os/lib/libutils/ext/mempool.c:157
    a664:	91007c21 	add	x1, x1, #0x1f
/home/lagadanu/Desktop/qemu/optee_os/lib/libutils/ext/mempool.c:173
    a668:	d2800000 	mov	x0, #0x0                   	// #0
/home/lagadanu/Desktop/qemu/optee_os/lib/libutils/ext/mempool.c:157
    a66c:	927df021 	and	x1, x1, #0xfffffffffffffff8
/home/lagadanu/Desktop/qemu/optee_os/lib/libutils/ext/mempool.c:158
    a670:	8b010047 	add	x7, x2, x1
    a674:	eb0300ff 	cmp	x7, x3
    a678:	54000168 	b.hi	a6a4 <mempool_alloc+0x7c>
/home/lagadanu/Desktop/qemu/optee_os/lib/libutils/ext/mempool.c:161
    a67c:	f9400880 	ldr	x0, [x4,#16]
    a680:	8b000043 	add	x3, x2, x0
/home/lagadanu/Desktop/qemu/optee_os/lib/libutils/ext/mempool.c:162
    a684:	f8206841 	str	x1, [x2,x0]
/home/lagadanu/Desktop/qemu/optee_os/lib/libutils/ext/mempool.c:163
    a688:	f9000465 	str	x5, [x3,#8]
/home/lagadanu/Desktop/qemu/optee_os/lib/libutils/ext/mempool.c:164
    a68c:	b4000046 	cbz	x6, a694 <mempool_alloc+0x6c>
/home/lagadanu/Desktop/qemu/optee_os/lib/libutils/ext/mempool.c:165
    a690:	f90008c2 	str	x2, [x6,#16]
/home/lagadanu/Desktop/qemu/optee_os/lib/libutils/ext/mempool.c:166
    a694:	92800000 	mov	x0, #0xffffffffffffffff    	// #-1
    a698:	f9000860 	str	x0, [x3,#16]
/home/lagadanu/Desktop/qemu/optee_os/lib/libutils/ext/mempool.c:169
    a69c:	91006060 	add	x0, x3, #0x18
/home/lagadanu/Desktop/qemu/optee_os/lib/libutils/ext/mempool.c:167
    a6a0:	f9000482 	str	x2, [x4,#8]
/home/lagadanu/Desktop/qemu/optee_os/lib/libutils/ext/mempool.c:174
    a6a4:	d65f03c0 	ret

000000000000a6a8 <mempool_free>:
mempool_free():
/home/lagadanu/Desktop/qemu/optee_os/lib/libutils/ext/mempool.c:183
    a6a8:	b40001e1 	cbz	x1, a6e4 <mempool_free+0x3c>
/home/lagadanu/Desktop/qemu/optee_os/lib/libutils/ext/mempool.c:188
    a6ac:	f85f0022 	ldur	x2, [x1,#-16]
/home/lagadanu/Desktop/qemu/optee_os/lib/libutils/ext/mempool.c:181
    a6b0:	92800003 	mov	x3, #0xffffffffffffffff    	// #-1
/home/lagadanu/Desktop/qemu/optee_os/lib/libutils/ext/mempool.c:188
    a6b4:	b7f800c2 	tbnz	x2, #63, a6cc <mempool_free+0x24>
/home/lagadanu/Desktop/qemu/optee_os/lib/libutils/ext/mempool.c:191
    a6b8:	f9400803 	ldr	x3, [x0,#16]
    a6bc:	f85f8024 	ldur	x4, [x1,#-8]
    a6c0:	8b020063 	add	x3, x3, x2
    a6c4:	f9000864 	str	x4, [x3,#16]
    a6c8:	aa0203e3 	mov	x3, x2
/home/lagadanu/Desktop/qemu/optee_os/lib/libutils/ext/mempool.c:195
    a6cc:	f85f8024 	ldur	x4, [x1,#-8]
    a6d0:	b7f80084 	tbnz	x4, #63, a6e0 <mempool_free+0x38>
/home/lagadanu/Desktop/qemu/optee_os/lib/libutils/ext/mempool.c:198
    a6d4:	a9408403 	ldp	x3, x1, [x0,#8]
    a6d8:	8b040021 	add	x1, x1, x4
    a6dc:	f9000422 	str	x2, [x1,#8]
/home/lagadanu/Desktop/qemu/optee_os/lib/libutils/ext/mempool.c:202
    a6e0:	f9000403 	str	x3, [x0,#8]
    a6e4:	d65f03c0 	ret

000000000000a6e8 <_assert_log>:
_assert_log():
/home/lagadanu/Desktop/qemu/optee_os/lib/libutee/assert.c:17
    a6e8:	d10083ff 	sub	sp, sp, #0x20
/home/lagadanu/Desktop/qemu/optee_os/lib/libutee/assert.c:18
    a6ec:	2a0203e7 	mov	w7, w2
    a6f0:	aa0103e6 	mov	x6, x1
    a6f4:	aa0003e5 	mov	x5, x0
    a6f8:	52800022 	mov	w2, #0x1                   	// #1
    a6fc:	52800001 	mov	w1, #0x0                   	// #0
/home/lagadanu/Desktop/qemu/optee_os/lib/libutee/assert.c:17
    a700:	a9017bfd 	stp	x29, x30, [sp,#16]
    a704:	910043fd 	add	x29, sp, #0x10
/home/lagadanu/Desktop/qemu/optee_os/lib/libutee/assert.c:18
    a708:	d2800000 	mov	x0, #0x0                   	// #0
    a70c:	b0000004 	adrp	x4, b000 <PRIME_TABLE+0x7f0>
    a710:	91318884 	add	x4, x4, #0xc62
    a714:	f90003e3 	str	x3, [sp]
    a718:	52800023 	mov	w3, #0x1                   	// #1
    a71c:	97ffd747 	bl	438 <trace_printf>
/home/lagadanu/Desktop/qemu/optee_os/lib/libutee/assert.c:20
    a720:	a9417bfd 	ldp	x29, x30, [sp,#16]
    a724:	910083ff 	add	sp, sp, #0x20
    a728:	d65f03c0 	ret

000000000000a72c <_assert_break>:
_assert_break():
/home/lagadanu/Desktop/qemu/optee_os/lib/libutee/assert.c:23
    a72c:	a9bf7bfd 	stp	x29, x30, [sp,#-16]!
/home/lagadanu/Desktop/qemu/optee_os/lib/libutee/assert.c:24
    a730:	d2bfffe0 	mov	x0, #0xffff0000            	// #4294901760
/home/lagadanu/Desktop/qemu/optee_os/lib/libutee/assert.c:23
    a734:	910003fd 	mov	x29, sp
/home/lagadanu/Desktop/qemu/optee_os/lib/libutee/assert.c:24
    a738:	97ffe98f 	bl	4d74 <utee_panic>
    a73c:	14000000 	b	a73c <_assert_break+0x10>
