
out/f157cda0-550c-11e5-a6fa-0002a5d5c51b.elf:     file format elf64-littleaarch64
out/f157cda0-550c-11e5-a6fa-0002a5d5c51b.elf
architecture: aarch64, flags 0x00000150:
HAS_SYMS, DYNAMIC, D_PAGED
start address 0x0000000000000020

Program Header:
    LOAD off    0x0000000000010000 vaddr 0x0000000000000000 paddr 0x0000000000000000 align 2**16
         filesz 0x0000000000008564 memsz 0x0000000000008564 flags r-x
    LOAD off    0x0000000000018568 vaddr 0x0000000000008568 paddr 0x0000000000008568 align 2**16
         filesz 0x0000000000001d2c memsz 0x0000000000001d2c flags r--
    LOAD off    0x000000000001b000 vaddr 0x000000000000b000 paddr 0x000000000000b000 align 2**16
         filesz 0x0000000000000114 memsz 0x000000000000ab58 flags rw-
 DYNAMIC off    0x0000000000019fb8 vaddr 0x0000000000009fb8 paddr 0x0000000000009fb8 align 2**3
         filesz 0x0000000000000100 memsz 0x0000000000000100 flags rw-

Dynamic Section:
  HASH                 0x000000000000a250
  STRTAB               0x000000000000a1d8
  SYMTAB               0x000000000000a0b8
  STRSZ                0x0000000000000072
  SYMENT               0x0000000000000018
  DEBUG                0x0000000000000000
  RELA                 0x0000000000009cb0
  RELASZ               0x00000000000002a0
  RELAENT              0x0000000000000018
  FLAGS_1              0x0000000008000000
  RELACOUNT            0x0000000000000013
private flags = 0:

Sections:
Idx Name          Size      VMA               LMA               File off  Algn
  0 .ta_head      00000020  0000000000000000  0000000000000000  00010000  2**3
                  CONTENTS, ALLOC, LOAD, DATA
  1 .text         00008544  0000000000000020  0000000000000020  00010020  2**2
                  CONTENTS, ALLOC, LOAD, READONLY, CODE
  2 .rodata       00001743  0000000000008568  0000000000008568  00018568  2**3
                  CONTENTS, ALLOC, LOAD, READONLY, DATA
  3 .dynsym       00000120  000000000000a0b8  000000000000a0b8  0001a0b8  2**3
                  CONTENTS, ALLOC, LOAD, READONLY, DATA
  4 .rela.dyn     000001c8  0000000000009cb0  0000000000009cb0  00019cb0  2**3
                  CONTENTS, ALLOC, LOAD, READONLY, DATA
  5 .got          00000068  0000000000009e78  0000000000009e78  00019e78  2**3
                  CONTENTS, ALLOC, LOAD, DATA
  6 .rela.got     000000d8  0000000000009ee0  0000000000009ee0  00019ee0  2**3
                  CONTENTS, ALLOC, LOAD, READONLY, DATA
  7 .dynamic      00000100  0000000000009fb8  0000000000009fb8  00019fb8  2**3
                  CONTENTS, ALLOC, LOAD, DATA
  8 .dynstr       00000072  000000000000a1d8  000000000000a1d8  0001a1d8  2**0
                  CONTENTS, ALLOC, LOAD, READONLY, DATA
  9 .hash         00000044  000000000000a250  000000000000a250  0001a250  2**3
                  CONTENTS, ALLOC, LOAD, READONLY, DATA
 10 .data         00000114  000000000000b000  000000000000b000  0001b000  2**3
                  CONTENTS, ALLOC, LOAD, DATA
 11 .bss          0000aa40  000000000000b118  000000000000b118  0001b114  2**3
                  ALLOC
 12 .debug_info   000115ae  0000000000000000  0000000000000000  0001b114  2**0
                  CONTENTS, READONLY, DEBUGGING
 13 .debug_abbrev 0000407a  0000000000000000  0000000000000000  0002c6c2  2**0
                  CONTENTS, READONLY, DEBUGGING
 14 .debug_loc    000188e2  0000000000000000  0000000000000000  0003073c  2**0
                  CONTENTS, READONLY, DEBUGGING
 15 .debug_aranges 00000bd0  0000000000000000  0000000000000000  00049020  2**4
                  CONTENTS, READONLY, DEBUGGING
 16 .debug_ranges 00001250  0000000000000000  0000000000000000  00049bf0  2**4
                  CONTENTS, READONLY, DEBUGGING
 17 .debug_macro  000050c5  0000000000000000  0000000000000000  0004ae40  2**0
                  CONTENTS, READONLY, DEBUGGING
 18 .debug_line   000064e3  0000000000000000  0000000000000000  0004ff05  2**0
                  CONTENTS, READONLY, DEBUGGING
 19 .debug_str    0000fa63  0000000000000000  0000000000000000  000563e8  2**0
                  CONTENTS, READONLY, DEBUGGING
 20 .comment      0000002d  0000000000000000  0000000000000000  00065e4b  2**0
                  CONTENTS, READONLY
 21 .debug_frame  00002818  0000000000000000  0000000000000000  00065e78  2**3
                  CONTENTS, READONLY, DEBUGGING
SYMBOL TABLE:
0000000000000000 l    d  .ta_head	0000000000000000 .ta_head
0000000000000020 l    d  .text	0000000000000000 .text
0000000000008568 l    d  .rodata	0000000000000000 .rodata
0000000000009cb0 l    d  .rela.dyn	0000000000000000 .rela.dyn
0000000000009e78 l    d  .got	0000000000000000 .got
0000000000009ee0 l    d  .rela.got	0000000000000000 .rela.got
0000000000009fb8 l    d  .dynamic	0000000000000000 .dynamic
000000000000a0b8 l    d  .dynsym	0000000000000000 .dynsym
000000000000a1d8 l    d  .dynstr	0000000000000000 .dynstr
000000000000a250 l    d  .hash	0000000000000000 .hash
000000000000b000 l    d  .data	0000000000000000 .data
000000000000b118 l    d  .bss	0000000000000000 .bss
0000000000000000 l    d  .debug_info	0000000000000000 .debug_info
0000000000000000 l    d  .debug_abbrev	0000000000000000 .debug_abbrev
0000000000000000 l    d  .debug_loc	0000000000000000 .debug_loc
0000000000000000 l    d  .debug_aranges	0000000000000000 .debug_aranges
0000000000000000 l    d  .debug_ranges	0000000000000000 .debug_ranges
0000000000000000 l    d  .debug_macro	0000000000000000 .debug_macro
0000000000000000 l    d  .debug_line	0000000000000000 .debug_line
0000000000000000 l    d  .debug_str	0000000000000000 .debug_str
0000000000000000 l    d  .comment	0000000000000000 .comment
0000000000000000 l    d  .debug_frame	0000000000000000 .debug_frame
0000000000000000 l    df *ABS*	0000000000000000 user_ta_header.c
00000000000085f8 l     O .rodata	0000000000000004 __compound_literal.4
00000000000085fc l     O .rodata	0000000000000004 __compound_literal.3
0000000000008600 l     O .rodata	0000000000000001 __compound_literal.2
0000000000008601 l     O .rodata	0000000000000001 __compound_literal.1
0000000000008602 l     O .rodata	0000000000000001 __compound_literal.0
0000000000000000 l    df *ABS*	0000000000000000 benchmark.c
0000000000008568 l     O .rodata	0000000000000027 __func__.3866
0000000000008590 l     O .rodata	0000000000000012 __func__.3779
00000000000085a8 l     O .rodata	000000000000000a __func__.3816
00000000000085b8 l     O .rodata	000000000000000b __func__.3798
00000000000085c8 l     O .rodata	000000000000000d __func__.3835
00000000000085d8 l     O .rodata	0000000000000011 __func__.3848
000000000000b000 l     O .data	0000000000000012 filename
0000000000000000 l    df *ABS*	0000000000000000 ta_entry.c
0000000000000000 l    df *ABS*	0000000000000000 trace.c
0000000000008618 l     O .rodata	0000000000000005 lvl_strs.3178
0000000000000000 l    df *ABS*	0000000000000000 snprintk.c
0000000000008620 l     O .rodata	0000000000000011 HEXDIGITS
0000000000008638 l     O .rodata	0000000000000011 hexdigits
0000000000000000 l    df *ABS*	0000000000000000 memchr.c
0000000000000000 l    df *ABS*	0000000000000000 memcpy.c
0000000000000000 l    df *ABS*	0000000000000000 strlen.c
0000000000000000 l    df *ABS*	0000000000000000 trace_ext.c
0000000000000000 l    df *ABS*	0000000000000000 tee_api.c
0000000000013118 l     O .bss	0000000000000008 tee_api_instance_data
0000000000008660 l     O .rodata	000000000000000b __func__.4337
0000000000000000 l    df *ABS*	0000000000000000 tee_api_objects.c
0000000000000000 l    df *ABS*	0000000000000000 tee_api_panic.c
0000000000000000 l    df *ABS*	0000000000000000 user_ta_entry.c
0000000000002914 l     F .text	0000000000000028 ta_header_get_session
000000000000293c l     F .text	0000000000000094 ta_header_remove_session
0000000000015b50 l     O .bss	0000000000000001 init_done
000000000000b0c8 l     O .data	0000000000000010 ta_sessions
0000000000000000 l    df *ABS*	0000000000000000 utee_syscalls_a64.o
0000000000000000 l    df *ABS*	0000000000000000 gprof_a64.o
0000000000000000 l    df *ABS*	0000000000000000 tee_api_arith.c
0000000000003600 l     F .text	0000000000000028 TEE_BigInt_Panic
0000000000013168 l     O .bss	0000000000001980 mempool_u32
0000000000014ae8 l     O .bss	0000000000000010 mem.4074
0000000000014af8 l     O .bss	0000000000000008 mempool
0000000000000000 l    df *ABS*	0000000000000000 mpa_misc.c
0000000000000000 l    df *ABS*	0000000000000000 mpa_montgomery.c
0000000000000000 l    df *ABS*	0000000000000000 mpa_primetest.c
00000000000092d8 l     O .rodata	0000000000000010 const_miller_rabin_proof_limit
00000000000092e8 l     O .rodata	000000000000001c proof_a.3550
0000000000009308 l     O .rodata	000000000000000c const_two
0000000000009318 l     O .rodata	00000000000000b8 const_small_prime_factors
0000000000000000 l    df *ABS*	0000000000000000 mpa_conv.c
0000000000000000 l    df *ABS*	0000000000000000 mpa_div.c
0000000000000000 l    df *ABS*	0000000000000000 mpa_gcd.c
0000000000004934 l     F .text	0000000000000080 __mpa_divby2
00000000000049b4 l     F .text	000000000000016c __mpa_gcd.part.0
0000000000004b20 l     F .text	0000000000000380 __mpa_egcd
0000000000000000 l    df *ABS*	0000000000000000 mpa_mem_static.c
0000000000000000 l    df *ABS*	0000000000000000 mpa_mul.c
0000000000000000 l    df *ABS*	0000000000000000 mpa_random.c
0000000000000000 l    df *ABS*	0000000000000000 mpa_shift.c
0000000000000000 l    df *ABS*	0000000000000000 mpa_addsub.c
0000000000000000 l    df *ABS*	0000000000000000 mpa_cmp.c
0000000000000000 l    df *ABS*	0000000000000000 mpa_expmod.c
0000000000000000 l    df *ABS*	0000000000000000 mpa_init.c
0000000000000000 l    df *ABS*	0000000000000000 mpa_io.c
00000000000067d4 l     F .text	0000000000000044 __mpa_word_to_hexstr
0000000000006818 l     F .text	0000000000000114 __mpa_mpanum_to_hexstr
000000000000692c l     F .text	000000000000003c __mpa_isspace
00000000000093d8 l     O .rodata	000000000000000c __func__.3624
00000000000093e8 l     O .rodata	000000000000000c __func__.3638
0000000000014b00 l     O .bss	0000000000001002 buf.3610
0000000000000000 l    df *ABS*	0000000000000000 mpa_modulus.c
0000000000000000 l    df *ABS*	0000000000000000 bget_malloc.c
00000000000071c8 l     F .text	0000000000000040 raw_malloc_return_hook.isra.3
0000000000007208 l     F .text	0000000000000110 create_free_block.constprop.11
00000000000074d8 l     F .text	000000000000005c raw_malloc.constprop.15
00000000000093f8 l     O .rodata	0000000000000012 __func__.3464
0000000000009410 l     O .rodata	0000000000000005 __func__.3319
0000000000009418 l     O .rodata	0000000000000006 __func__.3334
0000000000009420 l     O .rodata	0000000000000005 __func__.3351
0000000000009428 l     O .rodata	0000000000000006 __func__.3343
0000000000009430 l     O .rodata	0000000000000006 __func__.3360
0000000000009438 l     O .rodata	0000000000000007 __func__.3370
0000000000009440 l     O .rodata	000000000000000d __func__.3500
0000000000009450 l     O .rodata	000000000000000c __func__.3474
0000000000009460 l     O .rodata	000000000000000b __func__.3485
0000000000009470 l     O .rodata	0000000000000010 __func__.3552
0000000000009480 l     O .rodata	000000000000000e __func__.3506
0000000000009490 l     O .rodata	0000000000000013 __func__.3411
0000000000015b08 l     O .bss	0000000000000038 mstats
0000000000015b40 l     O .bss	0000000000000008 malloc_pool_len
0000000000015b48 l     O .bss	0000000000000008 malloc_pool
000000000000b0d8 l     O .data	0000000000000038 malloc_poolset
0000000000000000 l    df *ABS*	0000000000000000 snprintf.c
0000000000000000 l    df *ABS*	0000000000000000 memcmp.c
0000000000000000 l    df *ABS*	0000000000000000 memmove.c
0000000000000000 l    df *ABS*	0000000000000000 memset.c
0000000000000000 l    df *ABS*	0000000000000000 mempool.c
00000000000094a8 l     O .rodata	0000000000000013 __func__.3181
0000000000000000 l    df *ABS*	0000000000000000 assert.c
0000000000000000 l    df *ABS*	0000000000000000 
0000000000009fb8 l     O *ABS*	0000000000000000 _DYNAMIC
0000000000009e90 l     O *ABS*	0000000000000000 _GLOBAL_OFFSET_TABLE_
0000000000002f14 g     F .text	000000000000000c utee_se_channel_transmit
0000000000001738 g     F .text	000000000000003c putchar
0000000000006750 g     F .text	000000000000001c mpa_init_static
0000000000002070 g     F .text	00000000000000c0 TEE_PopulateTransientObject
000000000000367c g     F .text	0000000000000054 mpa_copy
0000000000003540 g     F .text	000000000000001c TEE_BigIntConvertToFMM
0000000000003420 g     F .text	000000000000000c TEE_BigIntSquareMod
000000000000309c g     F .text	0000000000000004 TEE_BigIntShiftRight
0000000000003f84 g     F .text	0000000000000074 mpa_get_S32
0000000000003700 g     F .text	0000000000000044 mpa_highest_bit_index
0000000000002ddc g     F .text	000000000000000c utee_storage_obj_create
0000000000000020 g     F .text	000000000000065c ta_storage_benchmark_cmd_handler
0000000000002ef0 g     F .text	000000000000000c utee_se_session_close
0000000000002be4 g     F .text	000000000000000c utee_return
0000000000002e90 g     F .text	000000000000000c utee_se_service_get_readers
0000000000001c34 g     F .text	0000000000000008 TEE_Realloc
0000000000004074 g     F .text	0000000000000148 __mpa_div_q_r_internal_word
0000000000005f88 g     F .text	000000000000019c mpa_sub
000000000000162c g     F .text	00000000000000cc printf
0000000000002bf0 g     F .text	000000000000000c utee_log
00000000000093d0 g     O .rodata	0000000000000004 NR_STORED_PRIMES
0000000000002130 g     F .text	0000000000000054 TEE_InitRefAttribute
0000000000001910 g     F .text	00000000000000b4 TEE_InvokeTACommand
0000000000003788 g     F .text	000000000000001c mpa_can_hold
000000000000525c g     F .text	0000000000000098 __mpa_abs_mul_word
0000000000003b24 g     F .text	0000000000000088 mpa_montgomery_mul
00000000000014cc g     F .text	0000000000000054 vsnprintk
00000000000037a4 g     F .text	000000000000000c mpa_parity
000000000000837c g     F .text	000000000000004c memmove
0000000000005b10 g     F .text	0000000000000020 __mpa_full_adder_ackum
000000000000827c g     F .text	0000000000000078 snprintf
0000000000003098 g     F .text	0000000000000004 TEE_BigIntCmpS32
0000000000002184 g     F .text	0000000000000050 TEE_InitValueAttribute
00000000000030d4 g     F .text	000000000000000c TEE_BigIntAdd
0000000000002c14 g     F .text	000000000000000c utee_get_property_name_to_index
0000000000008608 g     O .rodata	0000000000000008 ta_heap_size
00000000000093d4 g     O .rodata	0000000000000004 MAX_TABULATED_PRIME
000000000000201c g     F .text	0000000000000054 TEE_ResetTransientObject
0000000000002c98 g     F .text	000000000000000c utee_cryp_state_alloc
0000000000002da0 g     F .text	000000000000000c utee_authenc_enc_final
000000000000523c g     F .text	0000000000000020 __mpa_mul_add_word_cum
00000000000030ec g     F .text	0000000000000004 TEE_BigIntNeg
0000000000004844 g     F .text	00000000000000f0 mpa_div
0000000000000020 g       .text	0000000000000000 __text_start
0000000000002640 g     F .text	0000000000000050 TEE_StartPersistentObjectEnumerator
0000000000008670 g     O .rodata	000000000000000c const_one
0000000000008210 g     F .text	000000000000006c malloc_buffer_overlaps_heap
0000000000006490 g     F .text	0000000000000018 __mpa_abs_less_than
00000000000032ac g     F .text	00000000000000a8 TEE_BigIntSubMod
0000000000005590 g     F .text	000000000000010c mpa_get_random
00000000000006e0 g     F .text	0000000000000240 trace_printf
0000000000002e78 g     F .text	000000000000000c utee_se_service_open
00000000000015c0 g     F .text	0000000000000020 memcpy
0000000000002cb0 g     F .text	000000000000000c utee_cryp_state_free
000000000000364c g     F .text	0000000000000030 mpa_wipe
000000000000355c g     F .text	0000000000000094 TEE_BigIntConvertFromFMM
000000000000290c g     F .text	0000000000000008 TEE_Panic
0000000000002f08 g     F .text	000000000000000c utee_se_channel_get_select_resp
00000000000016f8 g     F .text	0000000000000040 puts
00000000000035f0 g     F .text	0000000000000010 TEE_BigIntComputeFMM
0000000000003ff8 g     F .text	0000000000000014 mpa_set_word
0000000000007aa4 g     F .text	0000000000000030 malloc_get_stats
00000000000057fc g     F .text	0000000000000190 mpa_shift_left
0000000000002cf8 g     F .text	000000000000000c utee_cipher_final
00000000000053e8 g     F .text	00000000000000e4 mpa_mul
0000000000001bb0 g     F .text	0000000000000028 TEE_GetREETime
0000000000002594 g     F .text	000000000000005c TEE_AllocatePersistentObjectEnumerator
000000000000b018 g     O .data	00000000000000a8 ta_props
0000000000007ad4 g     F .text	0000000000000004 malloc
0000000000002d34 g     F .text	000000000000000c utee_cryp_obj_close
0000000000002eb4 g     F .text	000000000000000c utee_se_reader_open_session
00000000000022d4 g     F .text	0000000000000084 TEE_GenerateKey
00000000000082f4 g     F .text	0000000000000054 vsnprintf
000000000000b110 g     O .data	0000000000000004 trace_level
0000000000003094 g     F .text	0000000000000004 TEE_BigIntCmp
00000000000085f0 g     O .rodata	0000000000000008 ta_num_props
0000000000007858 g     F .text	00000000000000c8 bgetr
0000000000002d94 g     F .text	000000000000000c utee_authenc_update_payload
00000000000084cc g     F .text	0000000000000040 mempool_free
0000000000003030 g     F .text	0000000000000040 TEE_BigIntConvertToOctetString
0000000000002f2c g     F .text	000000000000000c utee_cache_operation
0000000000002d7c g     F .text	000000000000000c utee_authenc_init
00000000000030a0 g     F .text	000000000000001c TEE_BigIntGetBit
0000000000008610 g     O .rodata	0000000000000003 trace_ext_prefix
0000000000005b30 g     F .text	00000000000000f4 __mpa_abs_add
0000000000007534 g     F .text	0000000000000088 bgetz
0000000000001a68 g     F .text	000000000000000c TEE_GetInstanceData
0000000000001ab4 g     F .text	000000000000003c TEE_Wait
0000000000002e48 g     F .text	000000000000000c utee_storage_obj_write
0000000000005208 g     F .text	000000000000001c mpa_free_static_temp_var
0000000000003bac g     F .text	00000000000003ac mpa_is_prob_prime
0000000000002f20 g     F .text	000000000000000c utee_se_channel_close
00000000000054cc g     F .text	00000000000000c4 mpa_mul_word
0000000000001c48 g     F .text	0000000000000008 TEE_CacheFlush
0000000000000684 g     F .text	0000000000000004 TA_DestroyEntryPoint
000000000000850c g     F .text	0000000000000044 _assert_log
0000000000002ff4 g     F .text	0000000000000014 TEE_BigIntFMMContextSizeInU32
0000000000002528 g     F .text	000000000000006c TEE_RenamePersistentObject
00000000000041bc g     F .text	0000000000000688 __mpa_div_q_r
0000000000002f3c g     F .text	0000000000000058 _TEE_MathAPI_Init
0000000000002e30 g     F .text	000000000000000c utee_storage_next_enum
000000000000b118 g     O .bss	0000000000008000 ta_heap
000000000000342c g     F .text	000000000000006c TEE_BigIntInvMod
0000000000000690 g     F .text	0000000000000004 TA_CloseSessionEntryPoint
0000000000002358 g     F .text	0000000000000098 TEE_OpenPersistentObject
0000000000002bfc g     F .text	000000000000000c __utee_panic
0000000000002ca4 g     F .text	000000000000000c utee_cryp_state_copy
0000000000000694 g     F .text	0000000000000010 TA_InvokeCommandEntryPoint
0000000000006c8c g     F .text	0000000000000110 mpa_set_oct_str
0000000000002ee4 g     F .text	000000000000000c utee_se_session_open_channel
000000000000844c g     F .text	0000000000000080 mempool_alloc
0000000000005700 g     F .text	0000000000000098 __mpa_shift_words_left
0000000000002d28 g     F .text	000000000000000c utee_cryp_obj_alloc
0000000000002c8c g     F .text	000000000000000c utee_set_ta_time
0000000000002d1c g     F .text	000000000000000c utee_cryp_obj_get_attr
0000000000002280 g     F .text	0000000000000054 TEE_CopyObjectAttributes
0000000000003834 g     F .text	0000000000000090 __mpa_montgomery_sub_ack
0000000000007aec g     F .text	0000000000000070 calloc
0000000000001bd8 g     F .text	000000000000005c TEE_Malloc
0000000000002c68 g     F .text	000000000000000c utee_mask_cancellation
0000000000002d40 g     F .text	000000000000000c utee_cryp_obj_reset
0000000000001a48 g     F .text	0000000000000014 TEE_CheckMemoryAccessRights
0000000000015b58 g       .bss	0000000000000000 __gprof_buf_end
0000000000006124 g     F .text	000000000000002c mpa_neg
00000000000086a0 g     O .rodata	0000000000000c38 PRIME_TABLE
0000000000002714 g     F .text	0000000000000068 TEE_ReadObjectData
0000000000001dc0 g     F .text	00000000000000ac TEE_GetObjectBufferAttribute
0000000000000688 g     F .text	0000000000000008 TA_OpenSessionEntryPoint
0000000000004ea0 g     F .text	0000000000000120 mpa_gcd
00000000000036d0 g     F .text	0000000000000030 mpa_abs
0000000000002e24 g     F .text	000000000000000c utee_storage_start_enum
0000000000006970 g     F .text	0000000000000298 mpa_set_str
0000000000002df4 g     F .text	000000000000000c utee_storage_obj_rename
0000000000013120 g     O .bss	0000000000000004 ta_param_types
0000000000001c58 g     F .text	000000000000004c __utee_from_attr
000000000000351c g     F .text	0000000000000024 TEE_BigIntIsProbablePrime
00000000000051f8 g     F .text	0000000000000010 mpa_alloc_static_temp_var
00000000000024b8 g     F .text	0000000000000044 TEE_CloseAndDeletePersistentObject1
0000000000002c08 g     F .text	000000000000000c utee_get_property
0000000000002f94 g     F .text	0000000000000004 TEE_BigIntInit
0000000000001a74 g     F .text	0000000000000008 TEE_MemMove
0000000000003008 g     F .text	0000000000000028 TEE_BigIntConvertFromOctetString
000000000000b0c0 g     O .data	0000000000000008 _ref__utee_mcount
0000000000001594 g     F .text	000000000000002c memchr
00000000000019f0 g     F .text	000000000000002c TEE_UnmaskCancellation
0000000000001ca4 g     F .text	0000000000000048 TEE_GetObjectInfo
0000000000007030 g     F .text	0000000000000084 mpa_mul_mod
0000000000002de8 g     F .text	000000000000000c utee_storage_obj_del
0000000000002e60 g     F .text	000000000000000c utee_storage_obj_seek
0000000000001fc8 g     F .text	0000000000000054 TEE_FreeTransientObject
00000000000039e8 g     F .text	000000000000013c mpa_compute_fmm_context
0000000000002cc8 g     F .text	000000000000000c utee_hash_update
0000000000002f38  w    F .text	0000000000000004 __utee_mcount
0000000000003170 g     F .text	0000000000000094 TEE_BigIntMod
0000000000002efc g     F .text	000000000000000c utee_se_channel_select_next
0000000000002c2c g     F .text	000000000000000c utee_close_ta_session
000000000000310c g     F .text	0000000000000064 TEE_BigIntDiv
0000000000007a8c g     F .text	0000000000000018 malloc_reset_stats
0000000000002cec g     F .text	000000000000000c utee_cipher_update
0000000000001d2c g     F .text	0000000000000044 TEE_RestrictObjectUsage1
0000000000002ed8 g     F .text	000000000000000c utee_se_session_get_atr
0000000000007b5c g     F .text	000000000000005c realloc
0000000000005c24 g     F .text	00000000000000cc __mpa_abs_add_ackum
00000000000083e4 g     F .text	0000000000000068 mempool_alloc_pool
0000000000002dc4 g     F .text	000000000000000c utee_asymm_verify
00000000000030f0 g     F .text	000000000000000c TEE_BigIntMul
000000000000400c g     F .text	0000000000000018 mpa_get_word
0000000000001a84 g     F .text	0000000000000008 TEE_MemFill
0000000000008348 g     F .text	0000000000000034 memcmp
0000000000007f60 g     F .text	0000000000000130 malloc_add_pool
00000000000006d0 g     F .text	0000000000000010 trace_get_level
0000000000002d70 g     F .text	000000000000000c utee_cryp_random_number_generate
0000000000001d70 g     F .text	0000000000000050 TEE_RestrictObjectUsage
0000000000002fe4 g     F .text	0000000000000010 TEE_BigIntFMMSizeInU32
0000000000002f98 g     F .text	0000000000000014 TEE_BigIntInitFMM
0000000000002db8 g     F .text	000000000000000c utee_asymm_operate
0000000000001f3c g     F .text	0000000000000028 TEE_CloseObject
00000000000029d0 g     F .text	0000000000000208 __utee_entry
0000000000008564 g       .text	0000000000000000 __text_end
0000000000003498 g     F .text	0000000000000078 TEE_BigIntRelativePrime
000000000000569c g     F .text	0000000000000064 mpa_get_random_digits
0000000000007920 g     F .text	00000000000000d4 bpool
0000000000003f58 g     F .text	000000000000002c mpa_set_S32
000000000000676c g     F .text	0000000000000068 mpa_init_static_fmm_context
00000000000019c4 g     F .text	000000000000002c TEE_GetCancellationFlag
0000000000002e84 g     F .text	000000000000000c utee_se_service_close
0000000000001b70 g     F .text	0000000000000040 TEE_SetTAPersistentTime
0000000000006150 g     F .text	000000000000013c mpa_add_word
0000000000002e9c g     F .text	000000000000000c utee_se_reader_get_prop
00000000000083c8 g     F .text	000000000000001c memset
0000000000001af0 g     F .text	0000000000000080 TEE_GetTAPersistentTime
0000000000000920 g     F .text	0000000000000004 dhex_dump
00000000000023f0 g     F .text	00000000000000c8 TEE_CreatePersistentObject
0000000000001a1c g     F .text	000000000000002c TEE_MaskCancellation
0000000000005aec g     F .text	0000000000000024 __mpa_full_sub
0000000000002e3c g     F .text	000000000000000c utee_storage_obj_read
00000000000027e0 g     F .text	000000000000005c TEE_TruncateObjectData
0000000000002d4c g     F .text	000000000000000c utee_cryp_obj_populate
00000000000064a8 g     F .text	0000000000000068 mpa_cmp
00000000000070b4 g     F .text	0000000000000114 mpa_inv_mod
000000000000628c g     F .text	0000000000000138 mpa_sub_word
0000000000005224 g     F .text	0000000000000018 __mpa_mul_add_word
0000000000005df4 g     F .text	0000000000000194 mpa_add
0000000000006594 g     F .text	00000000000001bc mpa_exp_mod
0000000000001cec g     F .text	0000000000000040 TEE_GetObjectInfo1
0000000000005798 g     F .text	0000000000000064 __mpa_shift_words_right
00000000000006ac g     F .text	0000000000000024 trace_set_level
0000000000002ecc g     F .text	000000000000000c utee_se_session_is_closed
0000000000002d04 g     F .text	000000000000000c utee_cryp_obj_get_info
0000000000001e6c g     F .text	00000000000000d0 TEE_GetObjectValueAttribute
0000000000002e00 g     F .text	000000000000000c utee_storage_alloc_enum
0000000000002e18 g     F .text	000000000000000c utee_storage_reset_enum
0000000000002e54 g     F .text	000000000000000c utee_storage_obj_trunc
0000000000006f10 g     F .text	0000000000000018 mpa_mod
0000000000006474 g     F .text	000000000000001c __mpa_abs_greater_than
0000000000003074 g     F .text	0000000000000020 TEE_BigIntConvertToS32
00000000000030e0 g     F .text	000000000000000c TEE_BigIntSub
0000000000002c44 g     F .text	000000000000000c utee_get_cancellation_flag
0000000000002cbc g     F .text	000000000000000c utee_hash_init
00000000000006a4 g     F .text	0000000000000008 tahead_get_trace_level
0000000000001774 g     F .text	0000000000000078 __utee_from_param
000000000000283c g     F .text	00000000000000d0 TEE_SeekObjectData
0000000000008680 g     O .rodata	0000000000000010 Const_1_LShift_Base
00000000000017ec g     F .text	000000000000006c __utee_to_param
0000000000007bb8 g     F .text	00000000000003a8 memalign
0000000000003070 g     F .text	0000000000000004 TEE_BigIntConvertFromS32
0000000000006fac g     F .text	0000000000000084 mpa_sub_mod
0000000000002d10 g     F .text	000000000000000c utee_cryp_obj_restrict_usage
0000000000008090 g     F .text	0000000000000180 malloc_buffer_is_within_alloced
0000000000002d58 g     F .text	000000000000000c utee_cryp_obj_copy
000000000000598c g     F .text	0000000000000144 mpa_shift_right
0000000000002fac g     F .text	0000000000000038 TEE_BigIntInitFMMContext
0000000000002d64 g     F .text	000000000000000c utee_cryp_derive_key
00000000000038c4 g     F .text	0000000000000124 __mpa_montgomery_mul
0000000000006d9c g     F .text	0000000000000174 mpa_get_oct_str
0000000000006510 g     F .text	0000000000000084 mpa_cmp_short
0000000000002dac g     F .text	000000000000000c utee_authenc_dec_final
0000000000002618 g     F .text	0000000000000028 TEE_ResetPersistentObjectEnumerator
000000000000277c g     F .text	0000000000000064 TEE_WriteObjectData
00000000000063c4 g     F .text	00000000000000b0 __mpa_abs_cmp
00000000000030fc g     F .text	0000000000000010 TEE_BigIntSquare
000000000000067c g     F .text	0000000000000008 TA_CreateEntryPoint
0000000000001520 g     F .text	0000000000000074 snprintk
00000000000030bc g     F .text	0000000000000018 TEE_BigIntGetBitCount
0000000000003354 g     F .text	00000000000000cc TEE_BigIntMulMod
0000000000013128 g     O .bss	0000000000000040 ta_params
00000000000052f4 g     F .text	00000000000000f4 __mpa_abs_mul
0000000000007318 g     F .text	00000000000001c0 bget
0000000000001f64 g     F .text	0000000000000064 TEE_AllocateTransientObject
0000000000001c3c g     F .text	0000000000000004 TEE_Free
0000000000002ea8 g     F .text	000000000000000c utee_se_reader_get_name
0000000000001c50 g     F .text	0000000000000008 TEE_CacheInvalidate
0000000000002ce0 g     F .text	000000000000000c utee_cipher_init
0000000000008550 g     F .text	0000000000000014 _assert_break
0000000000003204 g     F .text	00000000000000a8 TEE_BigIntAddMod
0000000000002e0c g     F .text	000000000000000c utee_storage_free_enum
0000000000002d88 g     F .text	000000000000000c utee_authenc_update_aad
0000000000003744 g     F .text	0000000000000044 mpa_get_bit
0000000000001a7c g     F .text	0000000000000008 TEE_MemCompare
0000000000000924 g     F .text	0000000000000ba8 __vsnprintf
00000000000025f0 g     F .text	0000000000000028 TEE_FreePersistentObjectEnumerator
0000000000002bd8 g     F .text	000000000000000c utee_panic
0000000000001858 g     F .text	0000000000000090 TEE_OpenTASession
00000000000015fc g     F .text	0000000000000028 trace_ext_puts
0000000000001624 g     F .text	0000000000000008 trace_ext_get_thread_id
00000000000024fc g     F .text	000000000000002c TEE_CloseAndDeletePersistentObject
0000000000001c40 g     F .text	0000000000000008 TEE_CacheClean
0000000000002c20 g     F .text	000000000000000c utee_open_ta_session
0000000000004024 g     F .text	0000000000000050 __mpa_div_dword
0000000000003628 g     F .text	0000000000000024 __mpa_set_unused_digits_to_zero
0000000000008690 g     O .rodata	000000000000000c const_largest_deci_base
0000000000006968 g     F .text	0000000000000008 mpa_get_str_size
00000000000021d4 g     F .text	00000000000000ac TEE_CopyObjectAttributes1
0000000000002cd4 g     F .text	000000000000000c utee_hash_final
00000000000015e0 g     F .text	000000000000001c strlen
0000000000003510 g     F .text	000000000000000c TEE_BigIntComputeExtendedGcd
0000000000004fc0 g     F .text	00000000000001ec mpa_extended_gcd
0000000000006f28 g     F .text	0000000000000084 mpa_add_mod
0000000000002dd0 g     F .text	000000000000000c utee_storage_obj_open
0000000000002c38 g     F .text	000000000000000c utee_invoke_ta_command
0000000000006c08 g     F .text	0000000000000084 mpa_get_str
0000000000002c74 g     F .text	000000000000000c utee_wait
0000000000001a8c g     F .text	0000000000000028 TEE_GetSystemTime
0000000000000000 g     O .ta_head	0000000000000020 ta_head
00000000000075bc g     F .text	000000000000029c brel
00000000000051ac g     F .text	000000000000004c mpa_alloc_static_temp_var_size
0000000000002c80 g     F .text	000000000000000c utee_get_time
00000000000037bc g     F .text	0000000000000078 __mpa_montgomery_mul_add
0000000000001a5c g     F .text	000000000000000c TEE_SetInstanceData
0000000000002c5c g     F .text	000000000000000c utee_unmask_cancellation
0000000000002c50 g     F .text	000000000000000c utee_check_access_rights
0000000000002ec0 g     F .text	000000000000000c utee_se_reader_close_sessions
0000000000002690 g     F .text	0000000000000084 TEE_GetNextPersistentObject
0000000000002e6c g     F .text	000000000000000c utee_cryp_obj_generate_key
00000000000037b0 g     F .text	000000000000000c mpa_constant_one
00000000000018e8 g     F .text	0000000000000028 TEE_CloseTASession
0000000000005ad0 g     F .text	000000000000001c __mpa_full_adder
0000000000005cf0 g     F .text	0000000000000104 __mpa_abs_sub
0000000000015b58 g       .bss	0000000000000000 __gprof_buf_start
0000000000007ad8 g     F .text	0000000000000014 free
00000000000079f4 g     F .text	0000000000000098 bstats



Disassembly of section .text:

0000000000000020 <ta_storage_benchmark_cmd_handler>:
ta_storage_benchmark_cmd_handler():
/home/lagadanu/Desktop/qemu/out-br/build/optee_test-1.0/ta/storage_benchmark/benchmark.c:413
      20:	d102c3ff 	sub	sp, sp, #0xb0
/home/lagadanu/Desktop/qemu/out-br/build/optee_test-1.0/ta/storage_benchmark/benchmark.c:416
      24:	7100081f 	cmp	w0, #0x2
/home/lagadanu/Desktop/qemu/out-br/build/optee_test-1.0/ta/storage_benchmark/benchmark.c:413
      28:	a9017bfd 	stp	x29, x30, [sp,#16]
      2c:	910043fd 	add	x29, sp, #0x10
      30:	a90253f3 	stp	x19, x20, [sp,#32]
/home/lagadanu/Desktop/qemu/out-br/build/optee_test-1.0/ta/storage_benchmark/benchmark.c:425
      34:	129fff33 	mov	w19, #0xffff0006            	// #-65530
/home/lagadanu/Desktop/qemu/out-br/build/optee_test-1.0/ta/storage_benchmark/benchmark.c:413
      38:	a9035bf5 	stp	x21, x22, [sp,#48]
      3c:	a90463f7 	stp	x23, x24, [sp,#64]
      40:	a9056bf9 	stp	x25, x26, [sp,#80]
      44:	a90673fb 	stp	x27, x28, [sp,#96]
/home/lagadanu/Desktop/qemu/out-br/build/optee_test-1.0/ta/storage_benchmark/benchmark.c:416
      48:	54000568 	b.hi	f4 <ta_storage_benchmark_cmd_handler+0xd4>
ta_stroage_benchmark_chunk_access_test():
/home/lagadanu/Desktop/qemu/out-br/build/optee_test-1.0/ta/storage_benchmark/benchmark.c:322
      4c:	f90047bf 	str	xzr, [x29,#136]
/home/lagadanu/Desktop/qemu/out-br/build/optee_test-1.0/ta/storage_benchmark/benchmark.c:327
      50:	129fff33 	mov	w19, #0xffff0006            	// #-65530
      54:	7108443f 	cmp	w1, #0x211
      58:	540004e1 	b.ne	f4 <ta_storage_benchmark_cmd_handler+0xd4>
      5c:	aa0203f8 	mov	x24, x2
/home/lagadanu/Desktop/qemu/out-br/build/optee_test-1.0/ta/storage_benchmark/benchmark.c:343
      60:	2a0003e5 	mov	w5, w0
      64:	2a0003fa 	mov	w26, w0
      68:	b0000044 	adrp	x4, 9000 <PRIME_TABLE+0x960>
      6c:	9112ec84 	add	x4, x4, #0x4bb
      70:	52800023 	mov	w3, #0x1                   	// #1
/home/lagadanu/Desktop/qemu/out-br/build/optee_test-1.0/ta/storage_benchmark/benchmark.c:334
      74:	29404f17 	ldp	w23, w19, [x24]
/home/lagadanu/Desktop/qemu/out-br/build/optee_test-1.0/ta/storage_benchmark/benchmark.c:343
      78:	52800042 	mov	w2, #0x2                   	// #2
/home/lagadanu/Desktop/qemu/out-br/build/optee_test-1.0/ta/storage_benchmark/benchmark.c:335
      7c:	b9401300 	ldr	w0, [x24,#16]
/home/lagadanu/Desktop/qemu/out-br/build/optee_test-1.0/ta/storage_benchmark/benchmark.c:343
      80:	90000054 	adrp	x20, 8000 <malloc_add_pool+0xa0>
/home/lagadanu/Desktop/qemu/out-br/build/optee_test-1.0/ta/storage_benchmark/benchmark.c:338
      84:	f10002ff 	cmp	x23, #0x0
/home/lagadanu/Desktop/qemu/out-br/build/optee_test-1.0/ta/storage_benchmark/benchmark.c:335
      88:	b9007ba0 	str	w0, [x29,#120]
/home/lagadanu/Desktop/qemu/out-br/build/optee_test-1.0/ta/storage_benchmark/benchmark.c:338
      8c:	d2808000 	mov	x0, #0x400                 	// #1024
      90:	9a8012f7 	csel	x23, x23, x0, ne
/home/lagadanu/Desktop/qemu/out-br/build/optee_test-1.0/ta/storage_benchmark/benchmark.c:341
      94:	f100027f 	cmp	x19, #0x0
/home/lagadanu/Desktop/qemu/out-br/build/optee_test-1.0/ta/storage_benchmark/benchmark.c:343
      98:	aa1703e6 	mov	x6, x23
/home/lagadanu/Desktop/qemu/out-br/build/optee_test-1.0/ta/storage_benchmark/benchmark.c:341
      9c:	9a801273 	csel	x19, x19, x0, ne
/home/lagadanu/Desktop/qemu/out-br/build/optee_test-1.0/ta/storage_benchmark/benchmark.c:343
      a0:	9115a299 	add	x25, x20, #0x568
      a4:	aa1303e7 	mov	x7, x19
      a8:	52802b01 	mov	w1, #0x158                 	// #344
      ac:	aa1903e0 	mov	x0, x25
      b0:	9400018c 	bl	6e0 <trace_printf>
/home/lagadanu/Desktop/qemu/out-br/build/optee_test-1.0/ta/storage_benchmark/benchmark.c:346
      b4:	52800001 	mov	w1, #0x0                   	// #0
      b8:	2a1303e0 	mov	w0, w19
      bc:	b9007fb3 	str	w19, [x29,#124]
      c0:	940006c6 	bl	1bd8 <TEE_Malloc>
/home/lagadanu/Desktop/qemu/out-br/build/optee_test-1.0/ta/storage_benchmark/benchmark.c:347
      c4:	d2800015 	mov	x21, #0x0                   	// #0
/home/lagadanu/Desktop/qemu/out-br/build/optee_test-1.0/ta/storage_benchmark/benchmark.c:346
      c8:	aa0003f6 	mov	x22, x0
fill_buffer():
/home/lagadanu/Desktop/qemu/out-br/build/optee_test-1.0/ta/storage_benchmark/benchmark.c:54
      cc:	12800aa1 	mov	w1, #0xffffffaa            	// #-86
ta_stroage_benchmark_chunk_access_test():
/home/lagadanu/Desktop/qemu/out-br/build/optee_test-1.0/ta/storage_benchmark/benchmark.c:347
      d0:	b5000240 	cbnz	x0, 118 <ta_storage_benchmark_cmd_handler+0xf8>
/home/lagadanu/Desktop/qemu/out-br/build/optee_test-1.0/ta/storage_benchmark/benchmark.c:349
      d4:	129ffe73 	mov	w19, #0xffff000c            	// #-65524
/home/lagadanu/Desktop/qemu/out-br/build/optee_test-1.0/ta/storage_benchmark/benchmark.c:348
      d8:	b0000044 	adrp	x4, 9000 <PRIME_TABLE+0x960>
      dc:	52800023 	mov	w3, #0x1                   	// #1
      e0:	9113c484 	add	x4, x4, #0x4f1
      e4:	52800022 	mov	w2, #0x1                   	// #1
      e8:	52802b81 	mov	w1, #0x15c                 	// #348
      ec:	aa1903e0 	mov	x0, x25
      f0:	9400017c 	bl	6e0 <trace_printf>
ta_storage_benchmark_cmd_handler():
/home/lagadanu/Desktop/qemu/out-br/build/optee_test-1.0/ta/storage_benchmark/benchmark.c:429
      f4:	2a1303e0 	mov	w0, w19
      f8:	a94253f3 	ldp	x19, x20, [sp,#32]
      fc:	a9435bf5 	ldp	x21, x22, [sp,#48]
     100:	a94463f7 	ldp	x23, x24, [sp,#64]
     104:	a9456bf9 	ldp	x25, x26, [sp,#80]
     108:	a94673fb 	ldp	x27, x28, [sp,#96]
     10c:	a9417bfd 	ldp	x29, x30, [sp,#16]
     110:	9102c3ff 	add	sp, sp, #0xb0
     114:	d65f03c0 	ret
fill_buffer():
/home/lagadanu/Desktop/qemu/out-br/build/optee_test-1.0/ta/storage_benchmark/benchmark.c:54
     118:	4a150020 	eor	w0, w1, w21
     11c:	38356ac0 	strb	w0, [x22,x21]
/home/lagadanu/Desktop/qemu/out-br/build/optee_test-1.0/ta/storage_benchmark/benchmark.c:53
     120:	910006b5 	add	x21, x21, #0x1
     124:	eb15027f 	cmp	x19, x21
     128:	54ffff81 	b.ne	118 <ta_storage_benchmark_cmd_handler+0xf8>
prepare_test_file():
/home/lagadanu/Desktop/qemu/out-br/build/optee_test-1.0/ta/storage_benchmark/benchmark.c:92
     12c:	910263b9 	add	x25, x29, #0x98
     130:	f000005b 	adrp	x27, b000 <filename>
     134:	aa1903e7 	mov	x7, x25
     138:	52800006 	mov	w6, #0x0                   	// #0
     13c:	d2800005 	mov	x5, #0x0                   	// #0
     140:	d2800004 	mov	x4, #0x0                   	// #0
     144:	528080e3 	mov	w3, #0x407                 	// #1031
     148:	52800242 	mov	w2, #0x12                  	// #18
     14c:	91000361 	add	x1, x27, #0x0
     150:	52800020 	mov	w0, #0x1                   	// #1
/home/lagadanu/Desktop/qemu/out-br/build/optee_test-1.0/ta/storage_benchmark/benchmark.c:99
     154:	aa1703fc 	mov	x28, x23
/home/lagadanu/Desktop/qemu/out-br/build/optee_test-1.0/ta/storage_benchmark/benchmark.c:92
     158:	940008a6 	bl	23f0 <TEE_CreatePersistentObject>
     15c:	2a0003f3 	mov	w19, w0
/home/lagadanu/Desktop/qemu/out-br/build/optee_test-1.0/ta/storage_benchmark/benchmark.c:99
     160:	340002e0 	cbz	w0, 1bc <ta_storage_benchmark_cmd_handler+0x19c>
/home/lagadanu/Desktop/qemu/out-br/build/optee_test-1.0/ta/storage_benchmark/benchmark.c:100
     164:	9115a280 	add	x0, x20, #0x568
     168:	b0000044 	adrp	x4, 9000 <PRIME_TABLE+0x960>
     16c:	2a1303e5 	mov	w5, w19
     170:	91142c84 	add	x4, x4, #0x50b
     174:	52800023 	mov	w3, #0x1                   	// #1
     178:	52800022 	mov	w2, #0x1                   	// #1
     17c:	52800ca1 	mov	w1, #0x65                  	// #101
     180:	9100a000 	add	x0, x0, #0x28
     184:	94000157 	bl	6e0 <trace_printf>
ta_stroage_benchmark_chunk_access_test():
/home/lagadanu/Desktop/qemu/out-br/build/optee_test-1.0/ta/storage_benchmark/benchmark.c:356
     188:	b0000044 	adrp	x4, 9000 <PRIME_TABLE+0x960>
     18c:	2a1303e5 	mov	w5, w19
     190:	91156c84 	add	x4, x4, #0x55b
     194:	52800023 	mov	w3, #0x1                   	// #1
     198:	52800022 	mov	w2, #0x1                   	// #1
     19c:	52802ca1 	mov	w1, #0x165                 	// #357
     1a0:	9115a280 	add	x0, x20, #0x568
     1a4:	9400014f 	bl	6e0 <trace_printf>
/home/lagadanu/Desktop/qemu/out-br/build/optee_test-1.0/ta/storage_benchmark/benchmark.c:405
     1a8:	aa1603e0 	mov	x0, x22
     1ac:	940006a4 	bl	1c3c <TEE_Free>
     1b0:	17ffffd1 	b	f4 <ta_storage_benchmark_cmd_handler+0xd4>
prepare_test_file():
/home/lagadanu/Desktop/qemu/out-br/build/optee_test-1.0/ta/storage_benchmark/benchmark.c:105
     1b4:	eb03039c 	subs	x28, x28, x3
     1b8:	54000280 	b.eq	208 <ta_storage_benchmark_cmd_handler+0x1e8>
     1bc:	eb1c02bf 	cmp	x21, x28
/home/lagadanu/Desktop/qemu/out-br/build/optee_test-1.0/ta/storage_benchmark/benchmark.c:112
     1c0:	f9404fa0 	ldr	x0, [x29,#152]
     1c4:	9a9c92a3 	csel	x3, x21, x28, ls
     1c8:	aa1603e1 	mov	x1, x22
     1cc:	2a0303e2 	mov	w2, w3
     1d0:	f9003ba3 	str	x3, [x29,#112]
     1d4:	9400096a 	bl	277c <TEE_WriteObjectData>
     1d8:	2a0003f3 	mov	w19, w0
/home/lagadanu/Desktop/qemu/out-br/build/optee_test-1.0/ta/storage_benchmark/benchmark.c:113
     1dc:	f9403ba3 	ldr	x3, [x29,#112]
     1e0:	34fffea0 	cbz	w0, 1b4 <ta_storage_benchmark_cmd_handler+0x194>
/home/lagadanu/Desktop/qemu/out-br/build/optee_test-1.0/ta/storage_benchmark/benchmark.c:114
     1e4:	9115a280 	add	x0, x20, #0x568
     1e8:	b0000044 	adrp	x4, 9000 <PRIME_TABLE+0x960>
     1ec:	2a1303e5 	mov	w5, w19
     1f0:	9114e884 	add	x4, x4, #0x53a
     1f4:	52800023 	mov	w3, #0x1                   	// #1
     1f8:	52800022 	mov	w2, #0x1                   	// #1
     1fc:	52800e41 	mov	w1, #0x72                  	// #114
     200:	9100a000 	add	x0, x0, #0x28
     204:	94000137 	bl	6e0 <trace_printf>
/home/lagadanu/Desktop/qemu/out-br/build/optee_test-1.0/ta/storage_benchmark/benchmark.c:120
     208:	f9404fa0 	ldr	x0, [x29,#152]
     20c:	9400074c 	bl	1f3c <TEE_CloseObject>
ta_stroage_benchmark_chunk_access_test():
/home/lagadanu/Desktop/qemu/out-br/build/optee_test-1.0/ta/storage_benchmark/benchmark.c:355
     210:	35fffbd3 	cbnz	w19, 188 <ta_storage_benchmark_cmd_handler+0x168>
/home/lagadanu/Desktop/qemu/out-br/build/optee_test-1.0/ta/storage_benchmark/benchmark.c:361
     214:	910223a4 	add	x4, x29, #0x88
     218:	528080e3 	mov	w3, #0x407                 	// #1031
     21c:	52800242 	mov	w2, #0x12                  	// #18
     220:	91000361 	add	x1, x27, #0x0
     224:	52800020 	mov	w0, #0x1                   	// #1
     228:	9400084c 	bl	2358 <TEE_OpenPersistentObject>
     22c:	2a0003f3 	mov	w19, w0
/home/lagadanu/Desktop/qemu/out-br/build/optee_test-1.0/ta/storage_benchmark/benchmark.c:368
     230:	34000180 	cbz	w0, 260 <ta_storage_benchmark_cmd_handler+0x240>
/home/lagadanu/Desktop/qemu/out-br/build/optee_test-1.0/ta/storage_benchmark/benchmark.c:369
     234:	2a0003e5 	mov	w5, w0
     238:	b0000044 	adrp	x4, 9000 <PRIME_TABLE+0x960>
     23c:	52800023 	mov	w3, #0x1                   	// #1
     240:	91160884 	add	x4, x4, #0x582
     244:	52800022 	mov	w2, #0x1                   	// #1
     248:	52802e41 	mov	w1, #0x172                 	// #370
     24c:	9115a280 	add	x0, x20, #0x568
     250:	94000124 	bl	6e0 <trace_printf>
/home/lagadanu/Desktop/qemu/out-br/build/optee_test-1.0/ta/storage_benchmark/benchmark.c:403
     254:	f94047a0 	ldr	x0, [x29,#136]
     258:	94000898 	bl	24b8 <TEE_CloseAndDeletePersistentObject1>
     25c:	17ffffd3 	b	1a8 <ta_storage_benchmark_cmd_handler+0x188>
/home/lagadanu/Desktop/qemu/out-br/build/optee_test-1.0/ta/storage_benchmark/benchmark.c:374
     260:	7100075f 	cmp	w26, #0x1
     264:	910243a0 	add	x0, x29, #0x90
     268:	f94047bb 	ldr	x27, [x29,#136]
     26c:	54000880 	b.eq	37c <ta_storage_benchmark_cmd_handler+0x35c>
     270:	910213a1 	add	x1, x29, #0x84
test_rewrite():
/home/lagadanu/Desktop/qemu/out-br/build/optee_test-1.0/ta/storage_benchmark/benchmark.c:213
     274:	b90087bf 	str	wzr, [x29,#132]
     278:	f9003ba1 	str	x1, [x29,#112]
ta_stroage_benchmark_chunk_access_test():
/home/lagadanu/Desktop/qemu/out-br/build/optee_test-1.0/ta/storage_benchmark/benchmark.c:374
     27c:	71000b5f 	cmp	w26, #0x2
     280:	54000d00 	b.eq	420 <ta_storage_benchmark_cmd_handler+0x400>
test_read():
/home/lagadanu/Desktop/qemu/out-br/build/optee_test-1.0/ta/storage_benchmark/benchmark.c:169
     284:	aa1703fa 	mov	x26, x23
/home/lagadanu/Desktop/qemu/out-br/build/optee_test-1.0/ta/storage_benchmark/benchmark.c:173
     288:	94000601 	bl	1a8c <TEE_GetSystemTime>
/home/lagadanu/Desktop/qemu/out-br/build/optee_test-1.0/ta/storage_benchmark/benchmark.c:183
     28c:	f9403ba3 	ldr	x3, [x29,#112]
     290:	eb1a02bf 	cmp	x21, x26
     294:	9a9a92bc 	csel	x28, x21, x26, ls
     298:	aa1603e1 	mov	x1, x22
     29c:	2a1c03e2 	mov	w2, w28
     2a0:	aa1b03e0 	mov	x0, x27
     2a4:	9400091c 	bl	2714 <TEE_ReadObjectData>
     2a8:	2a0003f3 	mov	w19, w0
/home/lagadanu/Desktop/qemu/out-br/build/optee_test-1.0/ta/storage_benchmark/benchmark.c:185
     2ac:	34000160 	cbz	w0, 2d8 <ta_storage_benchmark_cmd_handler+0x2b8>
/home/lagadanu/Desktop/qemu/out-br/build/optee_test-1.0/ta/storage_benchmark/benchmark.c:186
     2b0:	9115a280 	add	x0, x20, #0x568
     2b4:	b0000044 	adrp	x4, 9000 <PRIME_TABLE+0x960>
     2b8:	2a1303e5 	mov	w5, w19
     2bc:	9116bc84 	add	x4, x4, #0x5af
     2c0:	91010000 	add	x0, x0, #0x40
     2c4:	52800023 	mov	w3, #0x1                   	// #1
     2c8:	52800022 	mov	w2, #0x1                   	// #1
     2cc:	52801741 	mov	w1, #0xba                  	// #186
test_rewrite():
/home/lagadanu/Desktop/qemu/out-br/build/optee_test-1.0/ta/storage_benchmark/benchmark.c:252
     2d0:	94000104 	bl	6e0 <trace_printf>
     2d4:	14000089 	b	4f8 <ta_storage_benchmark_cmd_handler+0x4d8>
test_read():
/home/lagadanu/Desktop/qemu/out-br/build/optee_test-1.0/ta/storage_benchmark/benchmark.c:175
     2d8:	eb1c035a 	subs	x26, x26, x28
     2dc:	54fffd81 	b.ne	28c <ta_storage_benchmark_cmd_handler+0x26c>
/home/lagadanu/Desktop/qemu/out-br/build/optee_test-1.0/ta/storage_benchmark/benchmark.c:193
     2e0:	aa1903e0 	mov	x0, x25
     2e4:	940005ea 	bl	1a8c <TEE_GetSystemTime>
     2e8:	29530ba7 	ldp	w7, w2, [x29,#152]
tee_time_to_ms():
/home/lagadanu/Desktop/qemu/out-br/build/optee_test-1.0/ta/storage_benchmark/benchmark.c:77
     2ec:	52807d00 	mov	w0, #0x3e8                 	// #1000
     2f0:	29521ba5 	ldp	w5, w6, [x29,#144]
test_read():
/home/lagadanu/Desktop/qemu/out-br/build/optee_test-1.0/ta/storage_benchmark/benchmark.c:197
     2f4:	b0000044 	adrp	x4, 9000 <PRIME_TABLE+0x960>
tee_time_to_ms():
/home/lagadanu/Desktop/qemu/out-br/build/optee_test-1.0/ta/storage_benchmark/benchmark.c:77
     2f8:	1b007ce1 	mul	w1, w7, w0
test_read():
/home/lagadanu/Desktop/qemu/out-br/build/optee_test-1.0/ta/storage_benchmark/benchmark.c:197
     2fc:	91173c84 	add	x4, x4, #0x5cf
     300:	52800023 	mov	w3, #0x1                   	// #1
get_delta_time_in_ms():
/home/lagadanu/Desktop/qemu/out-br/build/optee_test-1.0/ta/storage_benchmark/benchmark.c:82
     304:	1b0088a0 	msub	w0, w5, w0, w2
     308:	4b060021 	sub	w1, w1, w6
     30c:	0b000021 	add	w1, w1, w0
test_read():
/home/lagadanu/Desktop/qemu/out-br/build/optee_test-1.0/ta/storage_benchmark/benchmark.c:197
     310:	9115a280 	add	x0, x20, #0x568
/home/lagadanu/Desktop/qemu/out-br/build/optee_test-1.0/ta/storage_benchmark/benchmark.c:195
     314:	b9002301 	str	w1, [x24,#32]
/home/lagadanu/Desktop/qemu/out-br/build/optee_test-1.0/ta/storage_benchmark/benchmark.c:197
     318:	91010000 	add	x0, x0, #0x40
     31c:	b90003e2 	str	w2, [sp]
     320:	52800042 	mov	w2, #0x2                   	// #2
     324:	b9000be1 	str	w1, [sp,#8]
     328:	52801901 	mov	w1, #0xc8                  	// #200
test_rewrite():
/home/lagadanu/Desktop/qemu/out-br/build/optee_test-1.0/ta/storage_benchmark/benchmark.c:263
     32c:	940000ed 	bl	6e0 <trace_printf>
ta_stroage_benchmark_chunk_access_test():
/home/lagadanu/Desktop/qemu/out-br/build/optee_test-1.0/ta/storage_benchmark/benchmark.c:397
     330:	b9407ba0 	ldr	w0, [x29,#120]
     334:	34fff900 	cbz	w0, 254 <ta_storage_benchmark_cmd_handler+0x234>
/home/lagadanu/Desktop/qemu/out-br/build/optee_test-1.0/ta/storage_benchmark/benchmark.c:398
     338:	f94047ba 	ldr	x26, [x29,#136]
verify_file_data():
/home/lagadanu/Desktop/qemu/out-br/build/optee_test-1.0/ta/storage_benchmark/benchmark.c:278
     33c:	52800002 	mov	w2, #0x0                   	// #0
     340:	52800001 	mov	w1, #0x0                   	// #0
     344:	aa1a03e0 	mov	x0, x26
     348:	9400093d 	bl	283c <TEE_SeekObjectData>
     34c:	2a0003f8 	mov	w24, w0
/home/lagadanu/Desktop/qemu/out-br/build/optee_test-1.0/ta/storage_benchmark/benchmark.c:279
     350:	34001200 	cbz	w0, 590 <ta_storage_benchmark_cmd_handler+0x570>
/home/lagadanu/Desktop/qemu/out-br/build/optee_test-1.0/ta/storage_benchmark/benchmark.c:280
     354:	9115a280 	add	x0, x20, #0x568
     358:	b0000044 	adrp	x4, 9000 <PRIME_TABLE+0x960>
     35c:	52800023 	mov	w3, #0x1                   	// #1
     360:	9118f084 	add	x4, x4, #0x63c
     364:	52800022 	mov	w2, #0x1                   	// #1
     368:	52802301 	mov	w1, #0x118                 	// #280
     36c:	9101c000 	add	x0, x0, #0x70
     370:	940000dc 	bl	6e0 <trace_printf>
/home/lagadanu/Desktop/qemu/out-br/build/optee_test-1.0/ta/storage_benchmark/benchmark.c:294
     374:	2a1803f3 	mov	w19, w24
     378:	17ffffb7 	b	254 <ta_storage_benchmark_cmd_handler+0x234>
test_write():
/home/lagadanu/Desktop/qemu/out-br/build/optee_test-1.0/ta/storage_benchmark/benchmark.c:130
     37c:	aa1703fa 	mov	x26, x23
/home/lagadanu/Desktop/qemu/out-br/build/optee_test-1.0/ta/storage_benchmark/benchmark.c:133
     380:	940005c3 	bl	1a8c <TEE_GetSystemTime>
     384:	eb1a02bf 	cmp	x21, x26
/home/lagadanu/Desktop/qemu/out-br/build/optee_test-1.0/ta/storage_benchmark/benchmark.c:143
     388:	aa1603e1 	mov	x1, x22
     38c:	9a9a92bc 	csel	x28, x21, x26, ls
     390:	aa1b03e0 	mov	x0, x27
     394:	2a1c03e2 	mov	w2, w28
     398:	940008f9 	bl	277c <TEE_WriteObjectData>
     39c:	2a0003f3 	mov	w19, w0
/home/lagadanu/Desktop/qemu/out-br/build/optee_test-1.0/ta/storage_benchmark/benchmark.c:144
     3a0:	34000140 	cbz	w0, 3c8 <ta_storage_benchmark_cmd_handler+0x3a8>
/home/lagadanu/Desktop/qemu/out-br/build/optee_test-1.0/ta/storage_benchmark/benchmark.c:145
     3a4:	9115a280 	add	x0, x20, #0x568
     3a8:	b0000044 	adrp	x4, 9000 <PRIME_TABLE+0x960>
     3ac:	2a1303e5 	mov	w5, w19
     3b0:	9114e884 	add	x4, x4, #0x53a
     3b4:	52800023 	mov	w3, #0x1                   	// #1
     3b8:	52800022 	mov	w2, #0x1                   	// #1
     3bc:	52801221 	mov	w1, #0x91                  	// #145
     3c0:	91014000 	add	x0, x0, #0x50
     3c4:	17ffffc3 	b	2d0 <ta_storage_benchmark_cmd_handler+0x2b0>
/home/lagadanu/Desktop/qemu/out-br/build/optee_test-1.0/ta/storage_benchmark/benchmark.c:135
     3c8:	eb1c035a 	subs	x26, x26, x28
     3cc:	54fffdc1 	b.ne	384 <ta_storage_benchmark_cmd_handler+0x364>
/home/lagadanu/Desktop/qemu/out-br/build/optee_test-1.0/ta/storage_benchmark/benchmark.c:151
     3d0:	aa1903e0 	mov	x0, x25
     3d4:	940005ae 	bl	1a8c <TEE_GetSystemTime>
     3d8:	29530ba7 	ldp	w7, w2, [x29,#152]
tee_time_to_ms():
/home/lagadanu/Desktop/qemu/out-br/build/optee_test-1.0/ta/storage_benchmark/benchmark.c:77
     3dc:	52807d00 	mov	w0, #0x3e8                 	// #1000
     3e0:	29521ba5 	ldp	w5, w6, [x29,#144]
test_write():
/home/lagadanu/Desktop/qemu/out-br/build/optee_test-1.0/ta/storage_benchmark/benchmark.c:155
     3e4:	b0000044 	adrp	x4, 9000 <PRIME_TABLE+0x960>
tee_time_to_ms():
/home/lagadanu/Desktop/qemu/out-br/build/optee_test-1.0/ta/storage_benchmark/benchmark.c:77
     3e8:	1b007ce1 	mul	w1, w7, w0
test_write():
/home/lagadanu/Desktop/qemu/out-br/build/optee_test-1.0/ta/storage_benchmark/benchmark.c:155
     3ec:	91173c84 	add	x4, x4, #0x5cf
     3f0:	52800023 	mov	w3, #0x1                   	// #1
get_delta_time_in_ms():
/home/lagadanu/Desktop/qemu/out-br/build/optee_test-1.0/ta/storage_benchmark/benchmark.c:82
     3f4:	1b0088a0 	msub	w0, w5, w0, w2
     3f8:	4b060021 	sub	w1, w1, w6
     3fc:	0b000021 	add	w1, w1, w0
test_write():
/home/lagadanu/Desktop/qemu/out-br/build/optee_test-1.0/ta/storage_benchmark/benchmark.c:155
     400:	9115a280 	add	x0, x20, #0x568
/home/lagadanu/Desktop/qemu/out-br/build/optee_test-1.0/ta/storage_benchmark/benchmark.c:153
     404:	b9002301 	str	w1, [x24,#32]
/home/lagadanu/Desktop/qemu/out-br/build/optee_test-1.0/ta/storage_benchmark/benchmark.c:155
     408:	91014000 	add	x0, x0, #0x50
     40c:	b90003e2 	str	w2, [sp]
     410:	52800042 	mov	w2, #0x2                   	// #2
     414:	b9000be1 	str	w1, [sp,#8]
     418:	528013c1 	mov	w1, #0x9e                  	// #158
     41c:	17ffffc4 	b	32c <ta_storage_benchmark_cmd_handler+0x30c>
test_rewrite():
/home/lagadanu/Desktop/qemu/out-br/build/optee_test-1.0/ta/storage_benchmark/benchmark.c:211
     420:	aa1703fa 	mov	x26, x23
/home/lagadanu/Desktop/qemu/out-br/build/optee_test-1.0/ta/storage_benchmark/benchmark.c:215
     424:	9400059a 	bl	1a8c <TEE_GetSystemTime>
     428:	eb1a02bf 	cmp	x21, x26
/home/lagadanu/Desktop/qemu/out-br/build/optee_test-1.0/ta/storage_benchmark/benchmark.c:228
     42c:	f9403ba3 	ldr	x3, [x29,#112]
     430:	9a9a92a4 	csel	x4, x21, x26, ls
     434:	aa1603e1 	mov	x1, x22
/home/lagadanu/Desktop/qemu/out-br/build/optee_test-1.0/ta/storage_benchmark/benchmark.c:225
     438:	4b0403e6 	neg	w6, w4
/home/lagadanu/Desktop/qemu/out-br/build/optee_test-1.0/ta/storage_benchmark/benchmark.c:228
     43c:	2a0403e2 	mov	w2, w4
/home/lagadanu/Desktop/qemu/out-br/build/optee_test-1.0/ta/storage_benchmark/benchmark.c:225
     440:	b90067a6 	str	w6, [x29,#100]
/home/lagadanu/Desktop/qemu/out-br/build/optee_test-1.0/ta/storage_benchmark/benchmark.c:228
     444:	aa1b03e0 	mov	x0, x27
     448:	f90037a4 	str	x4, [x29,#104]
     44c:	940008b2 	bl	2714 <TEE_ReadObjectData>
     450:	2a0003f3 	mov	w19, w0
/home/lagadanu/Desktop/qemu/out-br/build/optee_test-1.0/ta/storage_benchmark/benchmark.c:230
     454:	b94067a6 	ldr	w6, [x29,#100]
     458:	f94037a4 	ldr	x4, [x29,#104]
     45c:	34000140 	cbz	w0, 484 <ta_storage_benchmark_cmd_handler+0x464>
/home/lagadanu/Desktop/qemu/out-br/build/optee_test-1.0/ta/storage_benchmark/benchmark.c:231
     460:	b0000044 	adrp	x4, 9000 <PRIME_TABLE+0x960>
     464:	9115a280 	add	x0, x20, #0x568
     468:	2a1303e5 	mov	w5, w19
     46c:	9116bc84 	add	x4, x4, #0x5af
     470:	52800023 	mov	w3, #0x1                   	// #1
     474:	52800022 	mov	w2, #0x1                   	// #1
     478:	52801ce1 	mov	w1, #0xe7                  	// #231
/home/lagadanu/Desktop/qemu/out-br/build/optee_test-1.0/ta/storage_benchmark/benchmark.c:252
     47c:	91018000 	add	x0, x0, #0x60
     480:	17ffff94 	b	2d0 <ta_storage_benchmark_cmd_handler+0x2b0>
/home/lagadanu/Desktop/qemu/out-br/build/optee_test-1.0/ta/storage_benchmark/benchmark.c:235
     484:	b94087a5 	ldr	w5, [x29,#132]
     488:	2a0503fc 	mov	w28, w5
     48c:	eb04039f 	cmp	x28, x4
     490:	54000180 	b.eq	4c0 <ta_storage_benchmark_cmd_handler+0x4a0>
/home/lagadanu/Desktop/qemu/out-br/build/optee_test-1.0/ta/storage_benchmark/benchmark.c:236
     494:	9115a280 	add	x0, x20, #0x568
/home/lagadanu/Desktop/qemu/out-br/build/optee_test-1.0/ta/storage_benchmark/benchmark.c:237
     498:	52800033 	mov	w19, #0x1                   	// #1
/home/lagadanu/Desktop/qemu/out-br/build/optee_test-1.0/ta/storage_benchmark/benchmark.c:236
     49c:	b0000044 	adrp	x4, 9000 <PRIME_TABLE+0x960>
     4a0:	52800023 	mov	w3, #0x1                   	// #1
     4a4:	9117f884 	add	x4, x4, #0x5fe
     4a8:	52800022 	mov	w2, #0x1                   	// #1
     4ac:	52801d81 	mov	w1, #0xec                  	// #236
     4b0:	91018000 	add	x0, x0, #0x60
/home/lagadanu/Desktop/qemu/out-br/build/optee_test-1.0/ta/storage_benchmark/benchmark.c:237
     4b4:	72be0213 	movk	w19, #0xf010, lsl #16
/home/lagadanu/Desktop/qemu/out-br/build/optee_test-1.0/ta/storage_benchmark/benchmark.c:236
     4b8:	9400008a 	bl	6e0 <trace_printf>
     4bc:	17ffff66 	b	254 <ta_storage_benchmark_cmd_handler+0x234>
/home/lagadanu/Desktop/qemu/out-br/build/optee_test-1.0/ta/storage_benchmark/benchmark.c:242
     4c0:	52800022 	mov	w2, #0x1                   	// #1
     4c4:	2a0603e1 	mov	w1, w6
     4c8:	aa1b03e0 	mov	x0, x27
     4cc:	940008dc 	bl	283c <TEE_SeekObjectData>
     4d0:	2a0003f3 	mov	w19, w0
/home/lagadanu/Desktop/qemu/out-br/build/optee_test-1.0/ta/storage_benchmark/benchmark.c:244
     4d4:	34000160 	cbz	w0, 500 <ta_storage_benchmark_cmd_handler+0x4e0>
/home/lagadanu/Desktop/qemu/out-br/build/optee_test-1.0/ta/storage_benchmark/benchmark.c:245
     4d8:	9115a280 	add	x0, x20, #0x568
     4dc:	b0000044 	adrp	x4, 9000 <PRIME_TABLE+0x960>
     4e0:	52800023 	mov	w3, #0x1                   	// #1
     4e4:	91186884 	add	x4, x4, #0x61a
     4e8:	52800022 	mov	w2, #0x1                   	// #1
     4ec:	52801ea1 	mov	w1, #0xf5                  	// #245
     4f0:	91018000 	add	x0, x0, #0x60
     4f4:	9400007b 	bl	6e0 <trace_printf>
ta_stroage_benchmark_chunk_access_test():
/home/lagadanu/Desktop/qemu/out-br/build/optee_test-1.0/ta/storage_benchmark/benchmark.c:394
     4f8:	35ffeaf3 	cbnz	w19, 254 <ta_storage_benchmark_cmd_handler+0x234>
     4fc:	17ffff8d 	b	330 <ta_storage_benchmark_cmd_handler+0x310>
test_rewrite():
/home/lagadanu/Desktop/qemu/out-br/build/optee_test-1.0/ta/storage_benchmark/benchmark.c:250
     500:	2a1c03e2 	mov	w2, w28
     504:	aa1603e1 	mov	x1, x22
     508:	aa1b03e0 	mov	x0, x27
     50c:	9400089c 	bl	277c <TEE_WriteObjectData>
     510:	2a0003f3 	mov	w19, w0
/home/lagadanu/Desktop/qemu/out-br/build/optee_test-1.0/ta/storage_benchmark/benchmark.c:251
     514:	34000120 	cbz	w0, 538 <ta_storage_benchmark_cmd_handler+0x518>
/home/lagadanu/Desktop/qemu/out-br/build/optee_test-1.0/ta/storage_benchmark/benchmark.c:252
     518:	b0000044 	adrp	x4, 9000 <PRIME_TABLE+0x960>
     51c:	9115a280 	add	x0, x20, #0x568
     520:	2a1303e5 	mov	w5, w19
     524:	9114e884 	add	x4, x4, #0x53a
     528:	52800023 	mov	w3, #0x1                   	// #1
     52c:	52800022 	mov	w2, #0x1                   	// #1
     530:	52801f81 	mov	w1, #0xfc                  	// #252
     534:	17ffffd2 	b	47c <ta_storage_benchmark_cmd_handler+0x45c>
/home/lagadanu/Desktop/qemu/out-br/build/optee_test-1.0/ta/storage_benchmark/benchmark.c:217
     538:	eb1c035a 	subs	x26, x26, x28
     53c:	54fff761 	b.ne	428 <ta_storage_benchmark_cmd_handler+0x408>
/home/lagadanu/Desktop/qemu/out-br/build/optee_test-1.0/ta/storage_benchmark/benchmark.c:259
     540:	aa1903e0 	mov	x0, x25
     544:	94000552 	bl	1a8c <TEE_GetSystemTime>
     548:	29530ba7 	ldp	w7, w2, [x29,#152]
tee_time_to_ms():
/home/lagadanu/Desktop/qemu/out-br/build/optee_test-1.0/ta/storage_benchmark/benchmark.c:77
     54c:	52807d00 	mov	w0, #0x3e8                 	// #1000
     550:	29521ba5 	ldp	w5, w6, [x29,#144]
test_rewrite():
/home/lagadanu/Desktop/qemu/out-br/build/optee_test-1.0/ta/storage_benchmark/benchmark.c:263
     554:	b0000044 	adrp	x4, 9000 <PRIME_TABLE+0x960>
tee_time_to_ms():
/home/lagadanu/Desktop/qemu/out-br/build/optee_test-1.0/ta/storage_benchmark/benchmark.c:77
     558:	1b007ce1 	mul	w1, w7, w0
test_rewrite():
/home/lagadanu/Desktop/qemu/out-br/build/optee_test-1.0/ta/storage_benchmark/benchmark.c:263
     55c:	91173c84 	add	x4, x4, #0x5cf
     560:	52800023 	mov	w3, #0x1                   	// #1
get_delta_time_in_ms():
/home/lagadanu/Desktop/qemu/out-br/build/optee_test-1.0/ta/storage_benchmark/benchmark.c:82
     564:	1b0088a0 	msub	w0, w5, w0, w2
     568:	4b060021 	sub	w1, w1, w6
     56c:	0b000021 	add	w1, w1, w0
test_rewrite():
/home/lagadanu/Desktop/qemu/out-br/build/optee_test-1.0/ta/storage_benchmark/benchmark.c:263
     570:	9115a280 	add	x0, x20, #0x568
/home/lagadanu/Desktop/qemu/out-br/build/optee_test-1.0/ta/storage_benchmark/benchmark.c:261
     574:	b9002301 	str	w1, [x24,#32]
/home/lagadanu/Desktop/qemu/out-br/build/optee_test-1.0/ta/storage_benchmark/benchmark.c:263
     578:	91018000 	add	x0, x0, #0x60
     57c:	b90003e2 	str	w2, [sp]
     580:	52800042 	mov	w2, #0x2                   	// #2
     584:	b9000be1 	str	w1, [sp,#8]
     588:	52802141 	mov	w1, #0x10a                 	// #266
     58c:	17ffff68 	b	32c <ta_storage_benchmark_cmd_handler+0x30c>
verify_file_data():
/home/lagadanu/Desktop/qemu/out-br/build/optee_test-1.0/ta/storage_benchmark/benchmark.c:284
     590:	b9407fa2 	ldr	w2, [x29,#124]
     594:	52800001 	mov	w1, #0x0                   	// #0
     598:	aa1603e0 	mov	x0, x22
verify_buffer():
/home/lagadanu/Desktop/qemu/out-br/build/optee_test-1.0/ta/storage_benchmark/benchmark.c:65
     59c:	12800abb 	mov	w27, #0xffffffaa            	// #-86
verify_file_data():
/home/lagadanu/Desktop/qemu/out-br/build/optee_test-1.0/ta/storage_benchmark/benchmark.c:284
     5a0:	94000539 	bl	1a84 <TEE_MemFill>
/home/lagadanu/Desktop/qemu/out-br/build/optee_test-1.0/ta/storage_benchmark/benchmark.c:290
     5a4:	b9407fa2 	ldr	w2, [x29,#124]
     5a8:	aa1903e3 	mov	x3, x25
     5ac:	aa1603e1 	mov	x1, x22
     5b0:	aa1a03e0 	mov	x0, x26
/home/lagadanu/Desktop/qemu/out-br/build/optee_test-1.0/ta/storage_benchmark/benchmark.c:288
     5b4:	b9009bbf 	str	wzr, [x29,#152]
/home/lagadanu/Desktop/qemu/out-br/build/optee_test-1.0/ta/storage_benchmark/benchmark.c:290
     5b8:	94000857 	bl	2714 <TEE_ReadObjectData>
     5bc:	2a0003f8 	mov	w24, w0
/home/lagadanu/Desktop/qemu/out-br/build/optee_test-1.0/ta/storage_benchmark/benchmark.c:292
     5c0:	34000160 	cbz	w0, 5ec <ta_storage_benchmark_cmd_handler+0x5cc>
/home/lagadanu/Desktop/qemu/out-br/build/optee_test-1.0/ta/storage_benchmark/benchmark.c:293
     5c4:	9115a280 	add	x0, x20, #0x568
     5c8:	2a1803e5 	mov	w5, w24
     5cc:	b0000044 	adrp	x4, 9000 <PRIME_TABLE+0x960>
     5d0:	52800023 	mov	w3, #0x1                   	// #1
     5d4:	9116bc84 	add	x4, x4, #0x5af
     5d8:	52800022 	mov	w2, #0x1                   	// #1
     5dc:	528024a1 	mov	w1, #0x125                 	// #293
     5e0:	9101c000 	add	x0, x0, #0x70
     5e4:	9400003f 	bl	6e0 <trace_printf>
     5e8:	17ffff63 	b	374 <ta_storage_benchmark_cmd_handler+0x354>
/home/lagadanu/Desktop/qemu/out-br/build/optee_test-1.0/ta/storage_benchmark/benchmark.c:297
     5ec:	b9409ba0 	ldr	w0, [x29,#152]
     5f0:	eb0002bf 	cmp	x21, x0
     5f4:	54000180 	b.eq	624 <ta_storage_benchmark_cmd_handler+0x604>
/home/lagadanu/Desktop/qemu/out-br/build/optee_test-1.0/ta/storage_benchmark/benchmark.c:298
     5f8:	9115a280 	add	x0, x20, #0x568
     5fc:	b0000044 	adrp	x4, 9000 <PRIME_TABLE+0x960>
     600:	52800023 	mov	w3, #0x1                   	// #1
     604:	91195c84 	add	x4, x4, #0x657
     608:	52800022 	mov	w2, #0x1                   	// #1
     60c:	52802541 	mov	w1, #0x12a                 	// #298
     610:	9101c000 	add	x0, x0, #0x70
     614:	94000033 	bl	6e0 <trace_printf>
verify_buffer():
/home/lagadanu/Desktop/qemu/out-br/build/optee_test-1.0/ta/storage_benchmark/benchmark.c:68
     618:	52800038 	mov	w24, #0x1                   	// #1
     61c:	72be0218 	movk	w24, #0xf010, lsl #16
     620:	17ffff55 	b	374 <ta_storage_benchmark_cmd_handler+0x354>
verify_file_data():
/home/lagadanu/Desktop/qemu/out-br/build/optee_test-1.0/ta/storage_benchmark/benchmark.c:297
     624:	d2800000 	mov	x0, #0x0                   	// #0
verify_buffer():
/home/lagadanu/Desktop/qemu/out-br/build/optee_test-1.0/ta/storage_benchmark/benchmark.c:67
     628:	38606ac2 	ldrb	w2, [x22,x0]
/home/lagadanu/Desktop/qemu/out-br/build/optee_test-1.0/ta/storage_benchmark/benchmark.c:65
     62c:	4a000361 	eor	w1, w27, w0
/home/lagadanu/Desktop/qemu/out-br/build/optee_test-1.0/ta/storage_benchmark/benchmark.c:67
     630:	6b21005f 	cmp	w2, w1, uxtb
     634:	540000e1 	b.ne	650 <ta_storage_benchmark_cmd_handler+0x630>
/home/lagadanu/Desktop/qemu/out-br/build/optee_test-1.0/ta/storage_benchmark/benchmark.c:64
     638:	91000400 	add	x0, x0, #0x1
     63c:	eb0002bf 	cmp	x21, x0
     640:	54ffff41 	b.ne	628 <ta_storage_benchmark_cmd_handler+0x608>
verify_file_data():
/home/lagadanu/Desktop/qemu/out-br/build/optee_test-1.0/ta/storage_benchmark/benchmark.c:287
     644:	eb1502f7 	subs	x23, x23, x21
     648:	54fffae1 	b.ne	5a4 <ta_storage_benchmark_cmd_handler+0x584>
     64c:	17ffff02 	b	254 <ta_storage_benchmark_cmd_handler+0x234>
/home/lagadanu/Desktop/qemu/out-br/build/optee_test-1.0/ta/storage_benchmark/benchmark.c:305
     650:	9115a280 	add	x0, x20, #0x568
     654:	52800025 	mov	w5, #0x1                   	// #1
     658:	72be0205 	movk	w5, #0xf010, lsl #16
     65c:	b0000044 	adrp	x4, 9000 <PRIME_TABLE+0x960>
     660:	52800023 	mov	w3, #0x1                   	// #1
     664:	9119ac84 	add	x4, x4, #0x66b
     668:	52800022 	mov	w2, #0x1                   	// #1
     66c:	52802621 	mov	w1, #0x131                 	// #305
     670:	9101c000 	add	x0, x0, #0x70
     674:	9400001b 	bl	6e0 <trace_printf>
     678:	17ffffe8 	b	618 <ta_storage_benchmark_cmd_handler+0x5f8>

000000000000067c <TA_CreateEntryPoint>:
TA_CreateEntryPoint():
/home/lagadanu/Desktop/qemu/out-br/build/optee_test-1.0/ta/storage_benchmark/ta_entry.c:41
     67c:	52800000 	mov	w0, #0x0                   	// #0
     680:	d65f03c0 	ret

0000000000000684 <TA_DestroyEntryPoint>:
TA_DestroyEntryPoint():
/home/lagadanu/Desktop/qemu/out-br/build/optee_test-1.0/ta/storage_benchmark/ta_entry.c:45
     684:	d65f03c0 	ret

0000000000000688 <TA_OpenSessionEntryPoint>:
TA_OpenSessionEntryPoint():
/home/lagadanu/Desktop/qemu/out-br/build/optee_test-1.0/ta/storage_benchmark/ta_entry.c:57
     688:	52800000 	mov	w0, #0x0                   	// #0
     68c:	d65f03c0 	ret

0000000000000690 <TA_CloseSessionEntryPoint>:
TA_CloseSessionEntryPoint():
/home/lagadanu/Desktop/qemu/out-br/build/optee_test-1.0/ta/storage_benchmark/ta_entry.c:61
     690:	d65f03c0 	ret

0000000000000694 <TA_InvokeCommandEntryPoint>:
TA_InvokeCommandEntryPoint():
/home/lagadanu/Desktop/qemu/out-br/build/optee_test-1.0/ta/storage_benchmark/ta_entry.c:69
     694:	2a0103e0 	mov	w0, w1
     698:	2a0203e1 	mov	w1, w2
/home/lagadanu/Desktop/qemu/out-br/build/optee_test-1.0/ta/storage_benchmark/ta_entry.c:72
     69c:	aa0303e2 	mov	x2, x3
     6a0:	17fffe60 	b	20 <ta_storage_benchmark_cmd_handler>

00000000000006a4 <tahead_get_trace_level>:
tahead_get_trace_level():
/home/lagadanu/Desktop/qemu/optee_os/out/arm/export-ta_arm64/src/user_ta_header.c:107
     6a4:	52800040 	mov	w0, #0x2                   	// #2
     6a8:	d65f03c0 	ret

00000000000006ac <trace_set_level>:
trace_set_level():
/home/lagadanu/Desktop/qemu/optee_os/lib/libutils/ext/trace.c:26
     6ac:	51000401 	sub	w1, w0, #0x1
     6b0:	71000c3f 	cmp	w1, #0x3
     6b4:	b0000041 	adrp	x1, 9000 <PRIME_TABLE+0x960>
     6b8:	54000088 	b.hi	6c8 <trace_set_level+0x1c>
/home/lagadanu/Desktop/qemu/optee_os/lib/libutils/ext/trace.c:29
     6bc:	f9475421 	ldr	x1, [x1,#3752]
     6c0:	b9000020 	str	w0, [x1]
     6c4:	d65f03c0 	ret
     6c8:	52800080 	mov	w0, #0x4                   	// #4
     6cc:	17fffffc 	b	6bc <trace_set_level+0x10>

00000000000006d0 <trace_get_level>:
trace_get_level():
/home/lagadanu/Desktop/qemu/optee_os/lib/libutils/ext/trace.c:35
     6d0:	b0000040 	adrp	x0, 9000 <PRIME_TABLE+0x960>
     6d4:	f9475400 	ldr	x0, [x0,#3752]
     6d8:	b9400000 	ldr	w0, [x0]
     6dc:	d65f03c0 	ret

00000000000006e0 <trace_printf>:
trace_printf():
/home/lagadanu/Desktop/qemu/optee_os/lib/libutils/ext/trace.c:97
     6e0:	d108c3ff 	sub	sp, sp, #0x230
     6e4:	a9007bfd 	stp	x29, x30, [sp]
     6e8:	910003fd 	mov	x29, sp
     6ec:	f9010fa5 	str	x5, [x29,#536]
     6f0:	910403a5 	add	x5, x29, #0x100
     6f4:	a9046bf9 	stp	x25, x26, [sp,#64]
/home/lagadanu/Desktop/qemu/optee_os/lib/libutils/ext/trace.c:103
     6f8:	72001c79 	ands	w25, w3, #0xff
/home/lagadanu/Desktop/qemu/optee_os/lib/libutils/ext/trace.c:97
     6fc:	a90153f3 	stp	x19, x20, [sp,#16]
     700:	a9025bf5 	stp	x21, x22, [sp,#32]
     704:	a90363f7 	stp	x23, x24, [sp,#48]
     708:	f90113a6 	str	x6, [x29,#544]
     70c:	f90117a7 	str	x7, [x29,#552]
     710:	3d8024a0 	str	q0, [x5,#144]
     714:	3d8028a1 	str	q1, [x5,#160]
     718:	3d802ca2 	str	q2, [x5,#176]
     71c:	3d8030a3 	str	q3, [x5,#192]
     720:	3d8034a4 	str	q4, [x5,#208]
     724:	3d8038a5 	str	q5, [x5,#224]
     728:	3d803ca6 	str	q6, [x5,#240]
     72c:	910803a5 	add	x5, x29, #0x200
     730:	3d8000a7 	str	q7, [x5]
/home/lagadanu/Desktop/qemu/optee_os/lib/libutils/ext/trace.c:103
     734:	540008a0 	b.eq	848 <trace_printf+0x168>
/home/lagadanu/Desktop/qemu/optee_os/lib/libutils/ext/trace.c:103 (discriminator 1)
     738:	b0000043 	adrp	x3, 9000 <PRIME_TABLE+0x960>
     73c:	f9475463 	ldr	x3, [x3,#3752]
     740:	b9400063 	ldr	w3, [x3]
     744:	6b02007f 	cmp	w3, w2
     748:	5400072b 	b.lt	82c <trace_printf+0x14c>
trace_level_to_string():
/home/lagadanu/Desktop/qemu/optee_os/lib/libutils/ext/trace.c:52
     74c:	51000443 	sub	w3, w2, #0x1
     750:	71000c7f 	cmp	w3, #0x3
/home/lagadanu/Desktop/qemu/optee_os/lib/libutils/ext/trace.c:55
     754:	90000043 	adrp	x3, 8000 <malloc_add_pool+0xa0>
/home/lagadanu/Desktop/qemu/optee_os/lib/libutils/ext/trace.c:52
     758:	1a9f9045 	csel	w5, w2, wzr, ls
/home/lagadanu/Desktop/qemu/optee_os/lib/libutils/ext/trace.c:55
     75c:	91186063 	add	x3, x3, #0x618
     760:	3865c863 	ldrb	w3, [x3,w5,sxtw]
trace_printf():
/home/lagadanu/Desktop/qemu/optee_os/lib/libutils/ext/trace.c:107
     764:	910243b4 	add	x20, x29, #0x90
     768:	2a0203f3 	mov	w19, w2
     76c:	2a0103f8 	mov	w24, w1
     770:	aa0003f6 	mov	x22, x0
     774:	b0000042 	adrp	x2, 9000 <PRIME_TABLE+0x960>
     778:	aa0403f7 	mov	x23, x4
     77c:	911ce042 	add	x2, x2, #0x738
     780:	d2802001 	mov	x1, #0x100                 	// #256
     784:	aa1403e0 	mov	x0, x20
     788:	94000366 	bl	1520 <snprintk>
/home/lagadanu/Desktop/qemu/optee_os/lib/libutils/ext/trace.c:109
     78c:	37f80500 	tbnz	w0, #31, 82c <trace_printf+0x14c>
/home/lagadanu/Desktop/qemu/optee_os/lib/libutils/ext/trace.c:114
     790:	b0000043 	adrp	x3, 9000 <PRIME_TABLE+0x960>
/home/lagadanu/Desktop/qemu/optee_os/lib/libutils/ext/trace.c:111
     794:	93407c15 	sxtw	x21, w0
/home/lagadanu/Desktop/qemu/optee_os/lib/libutils/ext/trace.c:114
     798:	d280201a 	mov	x26, #0x100                 	// #256
     79c:	b0000042 	adrp	x2, 9000 <PRIME_TABLE+0x960>
     7a0:	f9475863 	ldr	x3, [x3,#3760]
     7a4:	911cf042 	add	x2, x2, #0x73c
     7a8:	cb150341 	sub	x1, x26, x21
     7ac:	8b150280 	add	x0, x20, x21
     7b0:	9400035c 	bl	1520 <snprintk>
/home/lagadanu/Desktop/qemu/optee_os/lib/libutils/ext/trace.c:116
     7b4:	37f803c0 	tbnz	w0, #31, 82c <trace_printf+0x14c>
/home/lagadanu/Desktop/qemu/optee_os/lib/libutils/ext/trace.c:118
     7b8:	8b20c2b5 	add	x21, x21, w0, sxtw
/home/lagadanu/Desktop/qemu/optee_os/lib/libutils/ext/trace.c:120
     7bc:	340005d9 	cbz	w25, 874 <trace_printf+0x194>
/home/lagadanu/Desktop/qemu/optee_os/lib/libutils/ext/trace.c:120 (discriminator 1)
     7c0:	52800342 	mov	w2, #0x1a                  	// #26
     7c4:	1ad32440 	lsr	w0, w2, w19
     7c8:	36000560 	tbz	w0, #0, 874 <trace_printf+0x194>
/home/lagadanu/Desktop/qemu/optee_os/lib/libutils/ext/trace.c:122
     7cc:	8b150299 	add	x25, x20, x21
     7d0:	cb15035a 	sub	x26, x26, x21
print_thread_id():
/home/lagadanu/Desktop/qemu/optee_os/lib/libutils/ext/trace.c:65
     7d4:	94000394 	bl	1624 <trace_ext_get_thread_id>
/home/lagadanu/Desktop/qemu/optee_os/lib/libutils/ext/trace.c:67
     7d8:	37f803c0 	tbnz	w0, #31, 850 <trace_printf+0x170>
/home/lagadanu/Desktop/qemu/optee_os/lib/libutils/ext/trace.c:68
     7dc:	2a0003e4 	mov	w4, w0
     7e0:	b0000042 	adrp	x2, 9000 <PRIME_TABLE+0x960>
     7e4:	52800023 	mov	w3, #0x1                   	// #1
     7e8:	911d0042 	add	x2, x2, #0x740
     7ec:	aa1a03e1 	mov	x1, x26
     7f0:	aa1903e0 	mov	x0, x25
     7f4:	9400034b 	bl	1520 <snprintk>
trace_printf():
/home/lagadanu/Desktop/qemu/optee_os/lib/libutils/ext/trace.c:129
     7f8:	37f801a0 	tbnz	w0, #31, 82c <trace_printf+0x14c>
/home/lagadanu/Desktop/qemu/optee_os/lib/libutils/ext/trace.c:131
     7fc:	8b20c2b3 	add	x19, x21, w0, sxtw
/home/lagadanu/Desktop/qemu/optee_os/lib/libutils/ext/trace.c:133
     800:	b4000476 	cbz	x22, 88c <trace_printf+0x1ac>
/home/lagadanu/Desktop/qemu/optee_os/lib/libutils/ext/trace.c:134
     804:	8b130280 	add	x0, x20, x19
     808:	2a1803e4 	mov	w4, w24
     80c:	aa1603e3 	mov	x3, x22
     810:	b0000042 	adrp	x2, 9000 <PRIME_TABLE+0x960>
     814:	d2802001 	mov	x1, #0x100                 	// #256
     818:	911d2c42 	add	x2, x2, #0x74b
     81c:	cb130021 	sub	x1, x1, x19
     820:	94000340 	bl	1520 <snprintk>
/home/lagadanu/Desktop/qemu/optee_os/lib/libutils/ext/trace.c:138
     824:	8b20c273 	add	x19, x19, w0, sxtw
/home/lagadanu/Desktop/qemu/optee_os/lib/libutils/ext/trace.c:136
     828:	36f80320 	tbz	w0, #31, 88c <trace_printf+0x1ac>
/home/lagadanu/Desktop/qemu/optee_os/lib/libutils/ext/trace.c:164
     82c:	a94153f3 	ldp	x19, x20, [sp,#16]
     830:	a9425bf5 	ldp	x21, x22, [sp,#32]
     834:	a94363f7 	ldp	x23, x24, [sp,#48]
     838:	a9446bf9 	ldp	x25, x26, [sp,#64]
     83c:	a9407bfd 	ldp	x29, x30, [sp]
     840:	9108c3ff 	add	sp, sp, #0x230
     844:	d65f03c0 	ret
trace_level_to_string():
/home/lagadanu/Desktop/qemu/optee_os/lib/libutils/ext/trace.c:50
     848:	528009a3 	mov	w3, #0x4d                  	// #77
     84c:	17ffffc6 	b	764 <trace_printf+0x84>
print_thread_id():
/home/lagadanu/Desktop/qemu/optee_os/lib/libutils/ext/trace.c:70
     850:	b0000044 	adrp	x4, 9000 <PRIME_TABLE+0x960>
     854:	52800023 	mov	w3, #0x1                   	// #1
     858:	9113c084 	add	x4, x4, #0x4f0
     85c:	b0000042 	adrp	x2, 9000 <PRIME_TABLE+0x960>
     860:	aa1a03e1 	mov	x1, x26
     864:	911d1842 	add	x2, x2, #0x746
     868:	aa1903e0 	mov	x0, x25
     86c:	9400032d 	bl	1520 <snprintk>
     870:	17ffffe2 	b	7f8 <trace_printf+0x118>
trace_printf():
/home/lagadanu/Desktop/qemu/optee_os/lib/libutils/ext/trace.c:142
     874:	f103fabf 	cmp	x21, #0xfe
     878:	54fffda8 	b.hi	82c <trace_printf+0x14c>
/home/lagadanu/Desktop/qemu/optee_os/lib/libutils/ext/trace.c:144
     87c:	910006b3 	add	x19, x21, #0x1
     880:	52800400 	mov	w0, #0x20                  	// #32
     884:	38356a80 	strb	w0, [x20,x21]
/home/lagadanu/Desktop/qemu/optee_os/lib/libutils/ext/trace.c:145
     888:	38336a9f 	strb	wzr, [x20,x19]
/home/lagadanu/Desktop/qemu/optee_os/lib/libutils/ext/trace.c:148
     88c:	9108c3a0 	add	x0, x29, #0x230
     890:	a90703a0 	stp	x0, x0, [x29,#112]
     894:	910843a0 	add	x0, x29, #0x210
     898:	f90043a0 	str	x0, [x29,#128]
     89c:	128002e0 	mov	w0, #0xffffffe8            	// #-24
     8a0:	b9008ba0 	str	w0, [x29,#136]
     8a4:	12800fe0 	mov	w0, #0xffffff80            	// #-128
     8a8:	b9008fa0 	str	w0, [x29,#140]
/home/lagadanu/Desktop/qemu/optee_os/lib/libutils/ext/trace.c:149
     8ac:	a94707a0 	ldp	x0, x1, [x29,#112]
     8b0:	a90507a0 	stp	x0, x1, [x29,#80]
     8b4:	a94807a0 	ldp	x0, x1, [x29,#128]
     8b8:	a90607a0 	stp	x0, x1, [x29,#96]
     8bc:	d2802001 	mov	x1, #0x100                 	// #256
     8c0:	cb130021 	sub	x1, x1, x19
     8c4:	8b130280 	add	x0, x20, x19
     8c8:	910143a3 	add	x3, x29, #0x50
     8cc:	aa1703e2 	mov	x2, x23
     8d0:	940002ff 	bl	14cc <vsnprintk>
/home/lagadanu/Desktop/qemu/optee_os/lib/libutils/ext/trace.c:152
     8d4:	7100001f 	cmp	w0, #0x0
     8d8:	8b20c261 	add	x1, x19, w0, sxtw
     8dc:	9a93c033 	csel	x19, x1, x19, gt
     8e0:	d2801fc0 	mov	x0, #0xfe                  	// #254
     8e4:	f103fa7f 	cmp	x19, #0xfe
     8e8:	9a809273 	csel	x19, x19, x0, ls
/home/lagadanu/Desktop/qemu/optee_os/lib/libutils/ext/trace.c:157
     8ec:	52800140 	mov	w0, #0xa                   	// #10
     8f0:	38336a80 	strb	w0, [x20,x19]
/home/lagadanu/Desktop/qemu/optee_os/lib/libutils/ext/trace.c:158
     8f4:	b4000093 	cbz	x19, 904 <trace_printf+0x224>
/home/lagadanu/Desktop/qemu/optee_os/lib/libutils/ext/trace.c:158 (discriminator 1)
     8f8:	38736a80 	ldrb	w0, [x20,x19]
     8fc:	7100281f 	cmp	w0, #0xa
     900:	540000c0 	b.eq	918 <trace_printf+0x238>
/home/lagadanu/Desktop/qemu/optee_os/lib/libutils/ext/trace.c:161
     904:	91024ba0 	add	x0, x29, #0x92
     908:	3833681f 	strb	wzr, [x0,x19]
/home/lagadanu/Desktop/qemu/optee_os/lib/libutils/ext/trace.c:163
     90c:	aa1403e0 	mov	x0, x20
     910:	9400033b 	bl	15fc <trace_ext_puts>
     914:	17ffffc6 	b	82c <trace_printf+0x14c>
/home/lagadanu/Desktop/qemu/optee_os/lib/libutils/ext/trace.c:159
     918:	d1000673 	sub	x19, x19, #0x1
     91c:	17fffff6 	b	8f4 <trace_printf+0x214>

0000000000000920 <dhex_dump>:
dhex_dump():
/home/lagadanu/Desktop/qemu/optee_os/lib/libutils/ext/trace.c:275
     920:	d65f03c0 	ret

0000000000000924 <__vsnprintf>:
__vsnprintf():
/home/lagadanu/Desktop/qemu/optee_os/lib/libutils/ext/snprintk.c:137
     924:	d103c3ff 	sub	sp, sp, #0xf0
     928:	a9037bfd 	stp	x29, x30, [sp,#48]
     92c:	9100c3fd 	add	x29, sp, #0x30
     930:	a90803a1 	stp	x1, x0, [x29,#128]
     934:	12001c80 	and	w0, w4, #0xff
     938:	b9007fa0 	str	w0, [x29,#124]
/home/lagadanu/Desktop/qemu/optee_os/lib/libutils/ext/snprintk.c:141
     93c:	f94047a0 	ldr	x0, [x29,#136]
/home/lagadanu/Desktop/qemu/optee_os/lib/libutils/ext/snprintk.c:137
     940:	a90453f3 	stp	x19, x20, [sp,#64]
     944:	a90873fb 	stp	x27, x28, [sp,#128]
kprintf():
/home/lagadanu/Desktop/qemu/optee_os/lib/libutils/ext/snprintk.c:267
     948:	5280001b 	mov	w27, #0x0                   	// #0
     94c:	b9401874 	ldr	w20, [x3,#24]
     950:	a9407073 	ldp	x19, x28, [x3]
__vsnprintf():
/home/lagadanu/Desktop/qemu/optee_os/lib/libutils/ext/snprintk.c:137
     954:	a90663f7 	stp	x23, x24, [sp,#96]
     958:	a9076bf9 	stp	x25, x26, [sp,#112]
     95c:	910263b8 	add	x24, x29, #0x98
     960:	a9055bf5 	stp	x21, x22, [sp,#80]
     964:	aa0203f9 	mov	x25, x2
/home/lagadanu/Desktop/qemu/optee_os/lib/libutils/ext/snprintk.c:141
     968:	8b01001a 	add	x26, x0, x1
     96c:	aa0003f6 	mov	x22, x0
kprintf():
/home/lagadanu/Desktop/qemu/optee_os/lib/libutils/ext/snprintk.c:269
     970:	d2800017 	mov	x23, #0x0                   	// #0
/home/lagadanu/Desktop/qemu/optee_os/lib/libutils/ext/snprintk.c:275
     974:	39400320 	ldrb	w0, [x25]
     978:	7100941f 	cmp	w0, #0x25
     97c:	7a401804 	ccmp	w0, #0x0, #0x4, ne
     980:	540003c1 	b.ne	9f8 <__vsnprintf+0xd4>
/home/lagadanu/Desktop/qemu/optee_os/lib/libutils/ext/snprintk.c:279
     984:	34005780 	cbz	w0, 1474 <__vsnprintf+0xb50>
/home/lagadanu/Desktop/qemu/optee_os/lib/libutils/ext/snprintk.c:287
     988:	12800004 	mov	w4, #0xffffffff            	// #-1
/home/lagadanu/Desktop/qemu/optee_os/lib/libutils/ext/snprintk.c:282
     98c:	91000722 	add	x2, x25, #0x1
     990:	2a1403e0 	mov	w0, w20
/home/lagadanu/Desktop/qemu/optee_os/lib/libutils/ext/snprintk.c:324
     994:	2a0403e5 	mov	w5, w4
/home/lagadanu/Desktop/qemu/optee_os/lib/libutils/ext/snprintk.c:288
     998:	52800001 	mov	w1, #0x0                   	// #0
/home/lagadanu/Desktop/qemu/optee_os/lib/libutils/ext/snprintk.c:286
     99c:	5280000a 	mov	w10, #0x0                   	// #0
/home/lagadanu/Desktop/qemu/optee_os/lib/libutils/ext/snprintk.c:284
     9a0:	52800015 	mov	w21, #0x0                   	// #0
/home/lagadanu/Desktop/qemu/optee_os/lib/libutils/ext/snprintk.c:299
     9a4:	52800406 	mov	w6, #0x20                  	// #32
/home/lagadanu/Desktop/qemu/optee_os/lib/libutils/ext/snprintk.c:290
     9a8:	39400048 	ldrb	w8, [x2]
     9ac:	91000459 	add	x25, x2, #0x1
/home/lagadanu/Desktop/qemu/optee_os/lib/libutils/ext/snprintk.c:291
     9b0:	71018d1f 	cmp	w8, #0x63
     9b4:	54001b80 	b.eq	d24 <__vsnprintf+0x400>
     9b8:	5400080c 	b.gt	ab8 <__vsnprintf+0x194>
     9bc:	7100c11f 	cmp	w8, #0x30
     9c0:	54001960 	b.eq	cec <__vsnprintf+0x3c8>
     9c4:	540003cc 	b.gt	a3c <__vsnprintf+0x118>
     9c8:	7100a91f 	cmp	w8, #0x2a
     9cc:	540012c0 	b.eq	c24 <__vsnprintf+0x300>
     9d0:	5400024c 	b.gt	a18 <__vsnprintf+0xf4>
     9d4:	7100811f 	cmp	w8, #0x20
     9d8:	540011c0 	b.eq	c10 <__vsnprintf+0x2ec>
     9dc:	71008d1f 	cmp	w8, #0x23
     9e0:	540011e0 	b.eq	c1c <__vsnprintf+0x2f8>
/home/lagadanu/Desktop/qemu/optee_os/lib/libutils/ext/snprintk.c:541
     9e4:	34005488 	cbz	w8, 1474 <__vsnprintf+0xb50>
/home/lagadanu/Desktop/qemu/optee_os/lib/libutils/ext/snprintk.c:545
     9e8:	910303a3 	add	x3, x29, #0xc0
     9ec:	2a0003f4 	mov	w20, w0
     9f0:	381d8c68 	strb	w8, [x3,#-40]!
     9f4:	140000d4 	b	d44 <__vsnprintf+0x420>
/home/lagadanu/Desktop/qemu/optee_os/lib/libutils/ext/snprintk.c:276
     9f8:	1100077b 	add	w27, w27, #0x1
/home/lagadanu/Desktop/qemu/optee_os/lib/libutils/ext/snprintk.c:277
     9fc:	b40000b6 	cbz	x22, a10 <__vsnprintf+0xec>
     a00:	eb16035f 	cmp	x26, x22
     a04:	54000069 	b.ls	a10 <__vsnprintf+0xec>
     a08:	390002c0 	strb	w0, [x22]
     a0c:	910006d6 	add	x22, x22, #0x1
/home/lagadanu/Desktop/qemu/optee_os/lib/libutils/ext/snprintk.c:275
     a10:	91000739 	add	x25, x25, #0x1
     a14:	17ffffd8 	b	974 <__vsnprintf+0x50>
/home/lagadanu/Desktop/qemu/optee_os/lib/libutils/ext/snprintk.c:291
     a18:	7100b51f 	cmp	w8, #0x2d
     a1c:	54001120 	b.eq	c40 <__vsnprintf+0x31c>
     a20:	7100b91f 	cmp	w8, #0x2e
     a24:	54001280 	b.eq	c74 <__vsnprintf+0x350>
     a28:	7100ad1f 	cmp	w8, #0x2b
     a2c:	54fffdc1 	b.ne	9e4 <__vsnprintf+0xc0>
/home/lagadanu/Desktop/qemu/optee_os/lib/libutils/ext/snprintk.c:319
     a30:	2a0803e1 	mov	w1, w8
/home/lagadanu/Desktop/qemu/optee_os/lib/libutils/ext/snprintk.c:322
     a34:	aa1903e2 	mov	x2, x25
     a38:	17ffffdc 	b	9a8 <__vsnprintf+0x84>
/home/lagadanu/Desktop/qemu/optee_os/lib/libutils/ext/snprintk.c:291
     a3c:	7101111f 	cmp	w8, #0x44
     a40:	54001920 	b.eq	d64 <__vsnprintf+0x440>
     a44:	5400018c 	b.gt	a74 <__vsnprintf+0x150>
     a48:	7100e51f 	cmp	w8, #0x39
     a4c:	54fffccc 	b.gt	9e4 <__vsnprintf+0xc0>
     a50:	5280000a 	mov	w10, #0x0                   	// #0
/home/lagadanu/Desktop/qemu/optee_os/lib/libutils/ext/snprintk.c:346
     a54:	5100c108 	sub	w8, w8, #0x30
     a58:	52800142 	mov	w2, #0xa                   	// #10
     a5c:	1b02214a 	madd	w10, w10, w2, w8
/home/lagadanu/Desktop/qemu/optee_os/lib/libutils/ext/snprintk.c:347
     a60:	38401728 	ldrb	w8, [x25],#1
/home/lagadanu/Desktop/qemu/optee_os/lib/libutils/ext/snprintk.c:348
     a64:	5100c102 	sub	w2, w8, #0x30
     a68:	7100245f 	cmp	w2, #0x9
     a6c:	54ffff49 	b.ls	a54 <__vsnprintf+0x130>
     a70:	17ffffd0 	b	9b0 <__vsnprintf+0x8c>
/home/lagadanu/Desktop/qemu/optee_os/lib/libutils/ext/snprintk.c:291
     a74:	7101551f 	cmp	w8, #0x55
     a78:	54003c40 	b.eq	1200 <__vsnprintf+0x8dc>
     a7c:	7101611f 	cmp	w8, #0x58
     a80:	54000ac0 	b.eq	bd8 <__vsnprintf+0x2b4>
     a84:	71013d1f 	cmp	w8, #0x4f
     a88:	54fffae1 	b.ne	9e4 <__vsnprintf+0xc0>
/home/lagadanu/Desktop/qemu/optee_os/lib/libutils/ext/snprintk.c:408
     a8c:	321c02b5 	orr	w21, w21, #0x10
/home/lagadanu/Desktop/qemu/optee_os/lib/libutils/ext/snprintk.c:411
     a90:	36382695 	tbz	w21, #7, f60 <__vsnprintf+0x63c>
     a94:	37f827e0 	tbnz	w0, #31, f90 <__vsnprintf+0x66c>
     a98:	91003e61 	add	x1, x19, #0xf
     a9c:	2a0003f4 	mov	w20, w0
     aa0:	aa1303e0 	mov	x0, x19
     aa4:	927df033 	and	x19, x1, #0xfffffffffffffff8
     aa8:	f9400005 	ldr	x5, [x0]
/home/lagadanu/Desktop/qemu/optee_os/lib/libutils/ext/snprintk.c:412
     aac:	52800000 	mov	w0, #0x0                   	// #0
/home/lagadanu/Desktop/qemu/optee_os/lib/libutils/ext/snprintk.c:482
     ab0:	52800001 	mov	w1, #0x0                   	// #0
     ab4:	140000b8 	b	d94 <__vsnprintf+0x470>
/home/lagadanu/Desktop/qemu/optee_os/lib/libutils/ext/snprintk.c:291
     ab8:	7101bd1f 	cmp	w8, #0x6f
     abc:	54fffea0 	b.eq	a90 <__vsnprintf+0x16c>
     ac0:	5400024c 	b.gt	b08 <__vsnprintf+0x1e4>
     ac4:	7101a51f 	cmp	w8, #0x69
     ac8:	54001500 	b.eq	d68 <__vsnprintf+0x444>
     acc:	540000ec 	b.gt	ae8 <__vsnprintf+0x1c4>
     ad0:	7101911f 	cmp	w8, #0x64
     ad4:	540014a0 	b.eq	d68 <__vsnprintf+0x444>
     ad8:	7101a11f 	cmp	w8, #0x68
     adc:	54fff841 	b.ne	9e4 <__vsnprintf+0xc0>
/home/lagadanu/Desktop/qemu/optee_os/lib/libutils/ext/snprintk.c:352
     ae0:	321a02b5 	orr	w21, w21, #0x40
     ae4:	17ffffd4 	b	a34 <__vsnprintf+0x110>
/home/lagadanu/Desktop/qemu/optee_os/lib/libutils/ext/snprintk.c:291
     ae8:	7101b11f 	cmp	w8, #0x6c
     aec:	54001040 	b.eq	cf4 <__vsnprintf+0x3d0>
     af0:	7101b91f 	cmp	w8, #0x6e
     af4:	54001d40 	b.eq	e9c <__vsnprintf+0x578>
     af8:	7101a91f 	cmp	w8, #0x6a
     afc:	54fff741 	b.ne	9e4 <__vsnprintf+0xc0>
/home/lagadanu/Desktop/qemu/optee_os/lib/libutils/ext/snprintk.c:355
     b00:	321902b5 	orr	w21, w21, #0x80
     b04:	17ffffcc 	b	a34 <__vsnprintf+0x110>
/home/lagadanu/Desktop/qemu/optee_os/lib/libutils/ext/snprintk.c:291
     b08:	7101d11f 	cmp	w8, #0x74
     b0c:	54001040 	b.eq	d14 <__vsnprintf+0x3f0>
     b10:	5400046c 	b.gt	b9c <__vsnprintf+0x278>
     b14:	7101c51f 	cmp	w8, #0x71
     b18:	54000f60 	b.eq	d04 <__vsnprintf+0x3e0>
     b1c:	540026cb 	b.lt	ff4 <__vsnprintf+0x6d0>
     b20:	7101cd1f 	cmp	w8, #0x73
     b24:	54fff601 	b.ne	9e4 <__vsnprintf+0xc0>
/home/lagadanu/Desktop/qemu/optee_os/lib/libutils/ext/snprintk.c:442
     b28:	37f83480 	tbnz	w0, #31, 11b8 <__vsnprintf+0x894>
     b2c:	91003e61 	add	x1, x19, #0xf
     b30:	2a0003f4 	mov	w20, w0
     b34:	aa1303e0 	mov	x0, x19
     b38:	927df033 	and	x19, x1, #0xfffffffffffffff8
     b3c:	f9400003 	ldr	x3, [x0]
/home/lagadanu/Desktop/qemu/optee_os/lib/libutils/ext/snprintk.c:444
     b40:	b0000040 	adrp	x0, 9000 <PRIME_TABLE+0x960>
     b44:	911d4800 	add	x0, x0, #0x752
     b48:	f100007f 	cmp	x3, #0x0
     b4c:	9a830003 	csel	x3, x0, x3, eq
/home/lagadanu/Desktop/qemu/optee_os/lib/libutils/ext/snprintk.c:445
     b50:	3100049f 	cmn	w4, #0x1
     b54:	540033e0 	b.eq	11d0 <__vsnprintf+0x8ac>
/home/lagadanu/Desktop/qemu/optee_os/lib/libutils/ext/snprintk.c:451
     b58:	93407c82 	sxtw	x2, w4
     b5c:	aa0303e0 	mov	x0, x3
     b60:	290d2ba8 	stp	w8, w10, [x29,#104]
     b64:	52800001 	mov	w1, #0x0                   	// #0
     b68:	f9003ba3 	str	x3, [x29,#112]
     b6c:	b9007ba4 	str	w4, [x29,#120]
     b70:	94000289 	bl	1594 <memchr>
/home/lagadanu/Desktop/qemu/optee_os/lib/libutils/ext/snprintk.c:453
     b74:	294d2ba8 	ldp	w8, w10, [x29,#104]
     b78:	b9407ba4 	ldr	w4, [x29,#120]
     b7c:	f9403ba3 	ldr	x3, [x29,#112]
     b80:	b4000080 	cbz	x0, b90 <__vsnprintf+0x26c>
/home/lagadanu/Desktop/qemu/optee_os/lib/libutils/ext/snprintk.c:454
     b84:	cb030000 	sub	x0, x0, x3
     b88:	6b00009f 	cmp	w4, w0
     b8c:	1a80d084 	csel	w4, w4, w0, le
/home/lagadanu/Desktop/qemu/optee_os/lib/libutils/ext/snprintk.c:285
     b90:	52800000 	mov	w0, #0x0                   	// #0
/home/lagadanu/Desktop/qemu/optee_os/lib/libutils/ext/snprintk.c:461
     b94:	52800001 	mov	w1, #0x0                   	// #0
     b98:	14000144 	b	10a8 <__vsnprintf+0x784>
/home/lagadanu/Desktop/qemu/optee_os/lib/libutils/ext/snprintk.c:291
     b9c:	7101e11f 	cmp	w8, #0x78
     ba0:	540037e0 	b.eq	129c <__vsnprintf+0x978>
     ba4:	7101e91f 	cmp	w8, #0x7a
     ba8:	54000ba0 	b.eq	d1c <__vsnprintf+0x3f8>
     bac:	7101d51f 	cmp	w8, #0x75
     bb0:	54fff1a1 	b.ne	9e4 <__vsnprintf+0xc0>
/home/lagadanu/Desktop/qemu/optee_os/lib/libutils/ext/snprintk.c:467
     bb4:	363832b5 	tbz	w21, #7, 1208 <__vsnprintf+0x8e4>
     bb8:	37f83400 	tbnz	w0, #31, 1238 <__vsnprintf+0x914>
     bbc:	91003e61 	add	x1, x19, #0xf
     bc0:	2a0003f4 	mov	w20, w0
     bc4:	aa1303e0 	mov	x0, x19
     bc8:	927df033 	and	x19, x1, #0xfffffffffffffff8
     bcc:	f9400005 	ldr	x5, [x0]
/home/lagadanu/Desktop/qemu/optee_os/lib/libutils/ext/snprintk.c:468
     bd0:	52800020 	mov	w0, #0x1                   	// #1
     bd4:	17ffffb7 	b	ab0 <__vsnprintf+0x18c>
/home/lagadanu/Desktop/qemu/optee_os/lib/libutils/ext/snprintk.c:471
     bd8:	90000057 	adrp	x23, 8000 <malloc_add_pool+0xa0>
     bdc:	911882f7 	add	x23, x23, #0x620
/home/lagadanu/Desktop/qemu/optee_os/lib/libutils/ext/snprintk.c:475
     be0:	36383675 	tbz	w21, #7, 12ac <__vsnprintf+0x988>
     be4:	37f837c0 	tbnz	w0, #31, 12dc <__vsnprintf+0x9b8>
     be8:	91003e61 	add	x1, x19, #0xf
     bec:	2a0003f4 	mov	w20, w0
     bf0:	aa1303e0 	mov	x0, x19
     bf4:	927df033 	and	x19, x1, #0xfffffffffffffff8
     bf8:	f9400005 	ldr	x5, [x0]
/home/lagadanu/Desktop/qemu/optee_os/lib/libutils/ext/snprintk.c:478
     bfc:	36000075 	tbz	w21, #0, c08 <__vsnprintf+0x2e4>
     c00:	b4000045 	cbz	x5, c08 <__vsnprintf+0x2e4>
/home/lagadanu/Desktop/qemu/optee_os/lib/libutils/ext/snprintk.c:479
     c04:	321f02b5 	orr	w21, w21, #0x2
/home/lagadanu/Desktop/qemu/optee_os/lib/libutils/ext/snprintk.c:476
     c08:	52800040 	mov	w0, #0x2                   	// #2
     c0c:	17ffffa9 	b	ab0 <__vsnprintf+0x18c>
/home/lagadanu/Desktop/qemu/optee_os/lib/libutils/ext/snprintk.c:299
     c10:	7100003f 	cmp	w1, #0x0
     c14:	1a861021 	csel	w1, w1, w6, ne
     c18:	17ffff87 	b	a34 <__vsnprintf+0x110>
/home/lagadanu/Desktop/qemu/optee_os/lib/libutils/ext/snprintk.c:302
     c1c:	320002b5 	orr	w21, w21, #0x1
     c20:	17ffff85 	b	a34 <__vsnprintf+0x110>
/home/lagadanu/Desktop/qemu/optee_os/lib/libutils/ext/snprintk.c:311
     c24:	37f80120 	tbnz	w0, #31, c48 <__vsnprintf+0x324>
     c28:	91002e63 	add	x3, x19, #0xb
     c2c:	aa1303e2 	mov	x2, x19
     c30:	927df073 	and	x19, x3, #0xfffffffffffffff8
     c34:	b940004a 	ldr	w10, [x2]
     c38:	36ffefea 	tbz	w10, #31, a34 <__vsnprintf+0x110>
/home/lagadanu/Desktop/qemu/optee_os/lib/libutils/ext/snprintk.c:313
     c3c:	4b0a03ea 	neg	w10, w10
/home/lagadanu/Desktop/qemu/optee_os/lib/libutils/ext/snprintk.c:316
     c40:	321e02b5 	orr	w21, w21, #0x4
     c44:	17ffff7c 	b	a34 <__vsnprintf+0x110>
/home/lagadanu/Desktop/qemu/optee_os/lib/libutils/ext/snprintk.c:311
     c48:	11002003 	add	w3, w0, #0x8
     c4c:	7100007f 	cmp	w3, #0x0
     c50:	540000cd 	b.le	c68 <__vsnprintf+0x344>
     c54:	91002e67 	add	x7, x19, #0xb
     c58:	aa1303e2 	mov	x2, x19
     c5c:	2a0303e0 	mov	w0, w3
     c60:	927df0f3 	and	x19, x7, #0xfffffffffffffff8
     c64:	17fffff4 	b	c34 <__vsnprintf+0x310>
     c68:	8b20c382 	add	x2, x28, w0, sxtw
     c6c:	2a0303e0 	mov	w0, w3
     c70:	17fffff1 	b	c34 <__vsnprintf+0x310>
/home/lagadanu/Desktop/qemu/optee_os/lib/libutils/ext/snprintk.c:322
     c74:	39400328 	ldrb	w8, [x25]
     c78:	91000723 	add	x3, x25, #0x1
     c7c:	7100a91f 	cmp	w8, #0x2a
     c80:	54000140 	b.eq	ca8 <__vsnprintf+0x384>
     c84:	aa0303f9 	mov	x25, x3
     c88:	52800004 	mov	w4, #0x0                   	// #0
/home/lagadanu/Desktop/qemu/optee_os/lib/libutils/ext/snprintk.c:328
     c8c:	5100c102 	sub	w2, w8, #0x30
     c90:	7100245f 	cmp	w2, #0x9
     c94:	54ffe8e8 	b.hi	9b0 <__vsnprintf+0x8c>
/home/lagadanu/Desktop/qemu/optee_os/lib/libutils/ext/snprintk.c:329
     c98:	52800143 	mov	w3, #0xa                   	// #10
/home/lagadanu/Desktop/qemu/optee_os/lib/libutils/ext/snprintk.c:330
     c9c:	38401728 	ldrb	w8, [x25],#1
/home/lagadanu/Desktop/qemu/optee_os/lib/libutils/ext/snprintk.c:329
     ca0:	1b030884 	madd	w4, w4, w3, w2
     ca4:	17fffffa 	b	c8c <__vsnprintf+0x368>
/home/lagadanu/Desktop/qemu/optee_os/lib/libutils/ext/snprintk.c:323
     ca8:	37f80160 	tbnz	w0, #31, cd4 <__vsnprintf+0x3b0>
     cac:	91002e64 	add	x4, x19, #0xb
     cb0:	2a0003e2 	mov	w2, w0
     cb4:	aa1303e0 	mov	x0, x19
     cb8:	927df093 	and	x19, x4, #0xfffffffffffffff8
/home/lagadanu/Desktop/qemu/optee_os/lib/libutils/ext/snprintk.c:324
     cbc:	b9400004 	ldr	w4, [x0]
/home/lagadanu/Desktop/qemu/optee_os/lib/libutils/ext/snprintk.c:322
     cc0:	aa0303f9 	mov	x25, x3
/home/lagadanu/Desktop/qemu/optee_os/lib/libutils/ext/snprintk.c:324
     cc4:	2a0203e0 	mov	w0, w2
     cc8:	7100009f 	cmp	w4, #0x0
     ccc:	1a85a084 	csel	w4, w4, w5, ge
     cd0:	17ffff59 	b	a34 <__vsnprintf+0x110>
/home/lagadanu/Desktop/qemu/optee_os/lib/libutils/ext/snprintk.c:323
     cd4:	11002002 	add	w2, w0, #0x8
     cd8:	8b20c380 	add	x0, x28, w0, sxtw
     cdc:	7100005f 	cmp	w2, #0x0
     ce0:	54fffeed 	b.le	cbc <__vsnprintf+0x398>
     ce4:	91002e64 	add	x4, x19, #0xb
     ce8:	17fffff3 	b	cb4 <__vsnprintf+0x390>
/home/lagadanu/Desktop/qemu/optee_os/lib/libutils/ext/snprintk.c:340
     cec:	321602b5 	orr	w21, w21, #0x400
     cf0:	17ffff51 	b	a34 <__vsnprintf+0x110>
/home/lagadanu/Desktop/qemu/optee_os/lib/libutils/ext/snprintk.c:358
     cf4:	39400322 	ldrb	w2, [x25]
     cf8:	7101b05f 	cmp	w2, #0x6c
     cfc:	54000081 	b.ne	d0c <__vsnprintf+0x3e8>
/home/lagadanu/Desktop/qemu/optee_os/lib/libutils/ext/snprintk.c:359
     d00:	91000739 	add	x25, x25, #0x1
/home/lagadanu/Desktop/qemu/optee_os/lib/libutils/ext/snprintk.c:366
     d04:	321b02b5 	orr	w21, w21, #0x20
     d08:	17ffff4b 	b	a34 <__vsnprintf+0x110>
/home/lagadanu/Desktop/qemu/optee_os/lib/libutils/ext/snprintk.c:362
     d0c:	321c02b5 	orr	w21, w21, #0x10
     d10:	17ffff49 	b	a34 <__vsnprintf+0x110>
/home/lagadanu/Desktop/qemu/optee_os/lib/libutils/ext/snprintk.c:369
     d14:	321802b5 	orr	w21, w21, #0x100
     d18:	17ffff47 	b	a34 <__vsnprintf+0x110>
/home/lagadanu/Desktop/qemu/optee_os/lib/libutils/ext/snprintk.c:372
     d1c:	321702b5 	orr	w21, w21, #0x200
     d20:	17ffff45 	b	a34 <__vsnprintf+0x110>
/home/lagadanu/Desktop/qemu/optee_os/lib/libutils/ext/snprintk.c:375
     d24:	37f80140 	tbnz	w0, #31, d4c <__vsnprintf+0x428>
     d28:	91002e61 	add	x1, x19, #0xb
     d2c:	2a0003f4 	mov	w20, w0
     d30:	aa1303e0 	mov	x0, x19
     d34:	927df033 	and	x19, x1, #0xfffffffffffffff8
     d38:	910303a3 	add	x3, x29, #0xc0
     d3c:	b9400000 	ldr	w0, [x0]
     d40:	381d8c60 	strb	w0, [x3,#-40]!
/home/lagadanu/Desktop/qemu/optee_os/lib/libutils/ext/snprintk.c:546
     d44:	52800024 	mov	w4, #0x1                   	// #1
     d48:	17ffff92 	b	b90 <__vsnprintf+0x26c>
/home/lagadanu/Desktop/qemu/optee_os/lib/libutils/ext/snprintk.c:375
     d4c:	11002014 	add	w20, w0, #0x8
     d50:	8b20c380 	add	x0, x28, w0, sxtw
     d54:	7100029f 	cmp	w20, #0x0
     d58:	54ffff0d 	b.le	d38 <__vsnprintf+0x414>
     d5c:	91002e61 	add	x1, x19, #0xb
     d60:	17fffff4 	b	d30 <__vsnprintf+0x40c>
/home/lagadanu/Desktop/qemu/optee_os/lib/libutils/ext/snprintk.c:380
     d64:	321c02b5 	orr	w21, w21, #0x10
/home/lagadanu/Desktop/qemu/optee_os/lib/libutils/ext/snprintk.c:384
     d68:	36380515 	tbz	w21, #7, e08 <__vsnprintf+0x4e4>
     d6c:	37f80660 	tbnz	w0, #31, e38 <__vsnprintf+0x514>
     d70:	91003e62 	add	x2, x19, #0xf
     d74:	2a0003f4 	mov	w20, w0
     d78:	aa1303e0 	mov	x0, x19
     d7c:	927df053 	and	x19, x2, #0xfffffffffffffff8
     d80:	f9400005 	ldr	x5, [x0]
/home/lagadanu/Desktop/qemu/optee_os/lib/libutils/ext/snprintk.c:389
     d84:	52800020 	mov	w0, #0x1                   	// #1
/home/lagadanu/Desktop/qemu/optee_os/lib/libutils/ext/snprintk.c:385
     d88:	b6f80065 	tbz	x5, #63, d94 <__vsnprintf+0x470>
/home/lagadanu/Desktop/qemu/optee_os/lib/libutils/ext/snprintk.c:386
     d8c:	cb0503e5 	neg	x5, x5
/home/lagadanu/Desktop/qemu/optee_os/lib/libutils/ext/snprintk.c:387
     d90:	528005a1 	mov	w1, #0x2d                  	// #45
/home/lagadanu/Desktop/qemu/optee_os/lib/libutils/ext/snprintk.c:489
     d94:	3100049f 	cmn	w4, #0x1
     d98:	12157aa2 	and	w2, w21, #0xfffffbff
     d9c:	1a951055 	csel	w21, w2, w21, ne
/home/lagadanu/Desktop/qemu/optee_os/lib/libutils/ext/snprintk.c:497
     da0:	f10000bf 	cmp	x5, #0x0
     da4:	7a400880 	ccmp	w4, #0x0, #0x0, eq
/home/lagadanu/Desktop/qemu/optee_os/lib/libutils/ext/snprintk.c:496
     da8:	91009703 	add	x3, x24, #0x25
/home/lagadanu/Desktop/qemu/optee_os/lib/libutils/ext/snprintk.c:497
     dac:	54000260 	b.eq	df8 <__vsnprintf+0x4d4>
/home/lagadanu/Desktop/qemu/optee_os/lib/libutils/ext/snprintk.c:503
     db0:	7100041f 	cmp	w0, #0x1
     db4:	54002c60 	b.eq	1340 <__vsnprintf+0xa1c>
     db8:	7100081f 	cmp	w0, #0x2
     dbc:	54002e40 	b.eq	1384 <__vsnprintf+0xa60>
     dc0:	91009700 	add	x0, x24, #0x25
/home/lagadanu/Desktop/qemu/optee_os/lib/libutils/ext/snprintk.c:506
     dc4:	120008a2 	and	w2, w5, #0x7
     dc8:	d1000403 	sub	x3, x0, #0x1
     dcc:	1100c042 	add	w2, w2, #0x30
     dd0:	381ff002 	sturb	w2, [x0,#-1]
/home/lagadanu/Desktop/qemu/optee_os/lib/libutils/ext/snprintk.c:507
     dd4:	d343fca5 	lsr	x5, x5, #3
/home/lagadanu/Desktop/qemu/optee_os/lib/libutils/ext/snprintk.c:508
     dd8:	b5002c45 	cbnz	x5, 1360 <__vsnprintf+0xa3c>
/home/lagadanu/Desktop/qemu/optee_os/lib/libutils/ext/snprintk.c:510
     ddc:	7100c05f 	cmp	w2, #0x30
     de0:	1a9f07e2 	cset	w2, ne
     de4:	6a0202bf 	tst	w21, w2
     de8:	54000080 	b.eq	df8 <__vsnprintf+0x4d4>
/home/lagadanu/Desktop/qemu/optee_os/lib/libutils/ext/snprintk.c:511
     dec:	52800602 	mov	w2, #0x30                  	// #48
     df0:	381ff062 	sturb	w2, [x3,#-1]
     df4:	d1000803 	sub	x3, x0, #0x2
/home/lagadanu/Desktop/qemu/optee_os/lib/libutils/ext/snprintk.c:537
     df8:	91009702 	add	x2, x24, #0x25
     dfc:	2a0403e0 	mov	w0, w4
     e00:	4b030044 	sub	w4, w2, w3
     e04:	140000a9 	b	10a8 <__vsnprintf+0x784>
/home/lagadanu/Desktop/qemu/optee_os/lib/libutils/ext/snprintk.c:384
     e08:	3747fb35 	tbnz	w21, #8, d6c <__vsnprintf+0x448>
     e0c:	374ffb15 	tbnz	w21, #9, d6c <__vsnprintf+0x448>
     e10:	372ffaf5 	tbnz	w21, #5, d6c <__vsnprintf+0x448>
     e14:	3727fad5 	tbnz	w21, #4, d6c <__vsnprintf+0x448>
     e18:	36300295 	tbz	w21, #6, e68 <__vsnprintf+0x544>
     e1c:	37f801a0 	tbnz	w0, #31, e50 <__vsnprintf+0x52c>
     e20:	91002e62 	add	x2, x19, #0xb
     e24:	2a0003f4 	mov	w20, w0
     e28:	aa1303e0 	mov	x0, x19
     e2c:	927df053 	and	x19, x2, #0xfffffffffffffff8
     e30:	79800005 	ldrsh	x5, [x0]
     e34:	17ffffd4 	b	d84 <__vsnprintf+0x460>
     e38:	11002014 	add	w20, w0, #0x8
     e3c:	8b20c380 	add	x0, x28, w0, sxtw
     e40:	7100029f 	cmp	w20, #0x0
     e44:	54fff9ed 	b.le	d80 <__vsnprintf+0x45c>
     e48:	91003e62 	add	x2, x19, #0xf
     e4c:	17ffffcb 	b	d78 <__vsnprintf+0x454>
     e50:	11002014 	add	w20, w0, #0x8
     e54:	8b20c380 	add	x0, x28, w0, sxtw
     e58:	7100029f 	cmp	w20, #0x0
     e5c:	54fffead 	b.le	e30 <__vsnprintf+0x50c>
     e60:	91002e62 	add	x2, x19, #0xb
     e64:	17fffff1 	b	e28 <__vsnprintf+0x504>
     e68:	37f800e0 	tbnz	w0, #31, e84 <__vsnprintf+0x560>
     e6c:	91002e62 	add	x2, x19, #0xb
     e70:	2a0003f4 	mov	w20, w0
     e74:	aa1303e0 	mov	x0, x19
     e78:	927df053 	and	x19, x2, #0xfffffffffffffff8
     e7c:	b9800005 	ldrsw	x5, [x0]
     e80:	17ffffc1 	b	d84 <__vsnprintf+0x460>
     e84:	11002014 	add	w20, w0, #0x8
     e88:	8b20c380 	add	x0, x28, w0, sxtw
     e8c:	7100029f 	cmp	w20, #0x0
     e90:	54ffff6d 	b.le	e7c <__vsnprintf+0x558>
     e94:	91002e62 	add	x2, x19, #0xb
     e98:	17fffff7 	b	e74 <__vsnprintf+0x550>
/home/lagadanu/Desktop/qemu/optee_os/lib/libutils/ext/snprintk.c:392
     e9c:	36380155 	tbz	w21, #7, ec4 <__vsnprintf+0x5a0>
/home/lagadanu/Desktop/qemu/optee_os/lib/libutils/ext/snprintk.c:401
     ea0:	37f802c0 	tbnz	w0, #31, ef8 <__vsnprintf+0x5d4>
     ea4:	91003e61 	add	x1, x19, #0xf
     ea8:	2a0003f4 	mov	w20, w0
     eac:	aa1303e0 	mov	x0, x19
     eb0:	927df033 	and	x19, x1, #0xfffffffffffffff8
     eb4:	f9400000 	ldr	x0, [x0]
     eb8:	93407f61 	sxtw	x1, w27
     ebc:	f9000001 	str	x1, [x0]
     ec0:	17fffead 	b	974 <__vsnprintf+0x50>
/home/lagadanu/Desktop/qemu/optee_os/lib/libutils/ext/snprintk.c:394
     ec4:	3747fef5 	tbnz	w21, #8, ea0 <__vsnprintf+0x57c>
/home/lagadanu/Desktop/qemu/optee_os/lib/libutils/ext/snprintk.c:396
     ec8:	374ffed5 	tbnz	w21, #9, ea0 <__vsnprintf+0x57c>
/home/lagadanu/Desktop/qemu/optee_os/lib/libutils/ext/snprintk.c:398
     ecc:	372ffeb5 	tbnz	w21, #5, ea0 <__vsnprintf+0x57c>
/home/lagadanu/Desktop/qemu/optee_os/lib/libutils/ext/snprintk.c:400
     ed0:	3727fe95 	tbnz	w21, #4, ea0 <__vsnprintf+0x57c>
/home/lagadanu/Desktop/qemu/optee_os/lib/libutils/ext/snprintk.c:402
     ed4:	363002b5 	tbz	w21, #6, f28 <__vsnprintf+0x604>
/home/lagadanu/Desktop/qemu/optee_os/lib/libutils/ext/snprintk.c:403
     ed8:	37f801c0 	tbnz	w0, #31, f10 <__vsnprintf+0x5ec>
     edc:	91003e61 	add	x1, x19, #0xf
     ee0:	2a0003f4 	mov	w20, w0
     ee4:	aa1303e0 	mov	x0, x19
     ee8:	927df033 	and	x19, x1, #0xfffffffffffffff8
     eec:	f9400000 	ldr	x0, [x0]
     ef0:	7900001b 	strh	w27, [x0]
     ef4:	17fffea0 	b	974 <__vsnprintf+0x50>
/home/lagadanu/Desktop/qemu/optee_os/lib/libutils/ext/snprintk.c:401
     ef8:	11002014 	add	w20, w0, #0x8
     efc:	8b20c380 	add	x0, x28, w0, sxtw
     f00:	7100029f 	cmp	w20, #0x0
     f04:	54fffd8d 	b.le	eb4 <__vsnprintf+0x590>
     f08:	91003e61 	add	x1, x19, #0xf
     f0c:	17ffffe8 	b	eac <__vsnprintf+0x588>
/home/lagadanu/Desktop/qemu/optee_os/lib/libutils/ext/snprintk.c:403
     f10:	11002014 	add	w20, w0, #0x8
     f14:	8b20c380 	add	x0, x28, w0, sxtw
     f18:	7100029f 	cmp	w20, #0x0
     f1c:	54fffe8d 	b.le	eec <__vsnprintf+0x5c8>
     f20:	91003e61 	add	x1, x19, #0xf
     f24:	17fffff0 	b	ee4 <__vsnprintf+0x5c0>
/home/lagadanu/Desktop/qemu/optee_os/lib/libutils/ext/snprintk.c:405
     f28:	37f80100 	tbnz	w0, #31, f48 <__vsnprintf+0x624>
     f2c:	91003e61 	add	x1, x19, #0xf
     f30:	2a0003f4 	mov	w20, w0
     f34:	aa1303e0 	mov	x0, x19
     f38:	927df033 	and	x19, x1, #0xfffffffffffffff8
     f3c:	f9400000 	ldr	x0, [x0]
     f40:	b900001b 	str	w27, [x0]
     f44:	17fffe8c 	b	974 <__vsnprintf+0x50>
     f48:	11002014 	add	w20, w0, #0x8
     f4c:	8b20c380 	add	x0, x28, w0, sxtw
     f50:	7100029f 	cmp	w20, #0x0
     f54:	54ffff4d 	b.le	f3c <__vsnprintf+0x618>
     f58:	91003e61 	add	x1, x19, #0xf
     f5c:	17fffff6 	b	f34 <__vsnprintf+0x610>
/home/lagadanu/Desktop/qemu/optee_os/lib/libutils/ext/snprintk.c:411
     f60:	3747d9b5 	tbnz	w21, #8, a94 <__vsnprintf+0x170>
     f64:	374fd995 	tbnz	w21, #9, a94 <__vsnprintf+0x170>
     f68:	372fd975 	tbnz	w21, #5, a94 <__vsnprintf+0x170>
     f6c:	3727d955 	tbnz	w21, #4, a94 <__vsnprintf+0x170>
     f70:	36300295 	tbz	w21, #6, fc0 <__vsnprintf+0x69c>
     f74:	37f801a0 	tbnz	w0, #31, fa8 <__vsnprintf+0x684>
     f78:	91002e61 	add	x1, x19, #0xb
     f7c:	2a0003f4 	mov	w20, w0
     f80:	aa1303e0 	mov	x0, x19
     f84:	927df033 	and	x19, x1, #0xfffffffffffffff8
     f88:	79400005 	ldrh	w5, [x0]
     f8c:	17fffec8 	b	aac <__vsnprintf+0x188>
     f90:	11002014 	add	w20, w0, #0x8
     f94:	8b20c380 	add	x0, x28, w0, sxtw
     f98:	7100029f 	cmp	w20, #0x0
     f9c:	54ffd86d 	b.le	aa8 <__vsnprintf+0x184>
     fa0:	91003e61 	add	x1, x19, #0xf
     fa4:	17fffebf 	b	aa0 <__vsnprintf+0x17c>
     fa8:	11002014 	add	w20, w0, #0x8
     fac:	8b20c380 	add	x0, x28, w0, sxtw
     fb0:	7100029f 	cmp	w20, #0x0
     fb4:	54fffead 	b.le	f88 <__vsnprintf+0x664>
     fb8:	91002e61 	add	x1, x19, #0xb
     fbc:	17fffff1 	b	f80 <__vsnprintf+0x65c>
     fc0:	37f800e0 	tbnz	w0, #31, fdc <__vsnprintf+0x6b8>
     fc4:	91002e61 	add	x1, x19, #0xb
     fc8:	2a0003f4 	mov	w20, w0
     fcc:	aa1303e0 	mov	x0, x19
     fd0:	927df033 	and	x19, x1, #0xfffffffffffffff8
     fd4:	b9400005 	ldr	w5, [x0]
     fd8:	17fffeb5 	b	aac <__vsnprintf+0x188>
     fdc:	11002014 	add	w20, w0, #0x8
     fe0:	8b20c380 	add	x0, x28, w0, sxtw
     fe4:	7100029f 	cmp	w20, #0x0
     fe8:	54ffff6d 	b.le	fd4 <__vsnprintf+0x6b0>
     fec:	91002e61 	add	x1, x19, #0xb
     ff0:	17fffff7 	b	fcc <__vsnprintf+0x6a8>
/home/lagadanu/Desktop/qemu/optee_os/lib/libutils/ext/snprintk.c:415
     ff4:	b9407fa1 	ldr	w1, [x29,#124]
     ff8:	34000b81 	cbz	w1, 1168 <__vsnprintf+0x844>
     ffc:	39400321 	ldrb	w1, [x25]
    1000:	7101543f 	cmp	w1, #0x55
    1004:	54000b21 	b.ne	1168 <__vsnprintf+0x844>
    1008:	39400721 	ldrb	w1, [x25,#1]
    100c:	7101b03f 	cmp	w1, #0x6c
    1010:	54000ac1 	b.ne	1168 <__vsnprintf+0x844>
/home/lagadanu/Desktop/qemu/optee_os/lib/libutils/ext/snprintk.c:420
    1014:	91000b39 	add	x25, x25, #0x2
/home/lagadanu/Desktop/qemu/optee_os/lib/libutils/ext/snprintk.c:421
    1018:	37f809c0 	tbnz	w0, #31, 1150 <__vsnprintf+0x82c>
    101c:	91003e61 	add	x1, x19, #0xf
    1020:	2a0003f4 	mov	w20, w0
    1024:	aa1303e0 	mov	x0, x19
    1028:	927df033 	and	x19, x1, #0xfffffffffffffff8
    102c:	f9400000 	ldr	x0, [x0]
uuid2str():
/home/lagadanu/Desktop/qemu/optee_os/lib/libutils/ext/snprintk.c:223
    1030:	90000042 	adrp	x2, 9000 <PRIME_TABLE+0x960>
    1034:	b90073aa 	str	w10, [x29,#112]
    1038:	911d6442 	add	x2, x2, #0x759
    103c:	b9007ba8 	str	w8, [x29,#120]
    1040:	39403c01 	ldrb	w1, [x0,#15]
    1044:	79400804 	ldrh	w4, [x0,#4]
    1048:	39402407 	ldrb	w7, [x0,#9]
    104c:	39402006 	ldrb	w6, [x0,#8]
    1050:	79400c05 	ldrh	w5, [x0,#6]
    1054:	b9002be1 	str	w1, [sp,#40]
    1058:	39403801 	ldrb	w1, [x0,#14]
    105c:	b90023e1 	str	w1, [sp,#32]
    1060:	39403401 	ldrb	w1, [x0,#13]
    1064:	b9001be1 	str	w1, [sp,#24]
    1068:	39403001 	ldrb	w1, [x0,#12]
    106c:	b90013e1 	str	w1, [sp,#16]
    1070:	39402c01 	ldrb	w1, [x0,#11]
    1074:	b9000be1 	str	w1, [sp,#8]
    1078:	39402801 	ldrb	w1, [x0,#10]
    107c:	b90003e1 	str	w1, [sp]
    1080:	d28004a1 	mov	x1, #0x25                  	// #37
    1084:	b9400003 	ldr	w3, [x0]
    1088:	aa1803e0 	mov	x0, x24
    108c:	94000125 	bl	1520 <snprintk>
    1090:	2a0003e4 	mov	w4, w0
    1094:	b94073aa 	ldr	w10, [x29,#112]
kprintf():
/home/lagadanu/Desktop/qemu/optee_os/lib/libutils/ext/snprintk.c:423
    1098:	aa1803e3 	mov	x3, x24
    109c:	b9407ba8 	ldr	w8, [x29,#120]
/home/lagadanu/Desktop/qemu/optee_os/lib/libutils/ext/snprintk.c:285
    10a0:	52800000 	mov	w0, #0x0                   	// #0
/home/lagadanu/Desktop/qemu/optee_os/lib/libutils/ext/snprintk.c:424
    10a4:	52800001 	mov	w1, #0x0                   	// #0
/home/lagadanu/Desktop/qemu/optee_os/lib/libutils/ext/snprintk.c:565
    10a8:	6b04001f 	cmp	w0, w4
    10ac:	1a84a006 	csel	w6, w0, w4, ge
/home/lagadanu/Desktop/qemu/optee_os/lib/libutils/ext/snprintk.c:566
    10b0:	34001781 	cbz	w1, 13a0 <__vsnprintf+0xa7c>
/home/lagadanu/Desktop/qemu/optee_os/lib/libutils/ext/snprintk.c:567
    10b4:	110004c6 	add	w6, w6, #0x1
/home/lagadanu/Desktop/qemu/optee_os/lib/libutils/ext/snprintk.c:572
    10b8:	6b06015f 	cmp	w10, w6
    10bc:	1a86a142 	csel	w2, w10, w6, ge
    10c0:	0b02037b 	add	w27, w27, w2
/home/lagadanu/Desktop/qemu/optee_os/lib/libutils/ext/snprintk.c:575
    10c4:	52808082 	mov	w2, #0x404                 	// #1028
    10c8:	6a0202a2 	ands	w2, w21, w2
    10cc:	540000a1 	b.ne	10e0 <__vsnprintf+0x7bc>
/home/lagadanu/Desktop/qemu/optee_os/lib/libutils/ext/snprintk.c:576
    10d0:	4b060145 	sub	w5, w10, w6
/home/lagadanu/Desktop/qemu/optee_os/lib/libutils/ext/snprintk.c:578
    10d4:	52800407 	mov	w7, #0x20                  	// #32
/home/lagadanu/Desktop/qemu/optee_os/lib/libutils/ext/snprintk.c:577
    10d8:	710000bf 	cmp	w5, #0x0
    10dc:	540016ac 	b.gt	13b0 <__vsnprintf+0xa8c>
/home/lagadanu/Desktop/qemu/optee_os/lib/libutils/ext/snprintk.c:582
    10e0:	34001801 	cbz	w1, 13e0 <__vsnprintf+0xabc>
/home/lagadanu/Desktop/qemu/optee_os/lib/libutils/ext/snprintk.c:583
    10e4:	b5001756 	cbnz	x22, 13cc <__vsnprintf+0xaa8>
/home/lagadanu/Desktop/qemu/optee_os/lib/libutils/ext/snprintk.c:586
    10e8:	d2800016 	mov	x22, #0x0                   	// #0
/home/lagadanu/Desktop/qemu/optee_os/lib/libutils/ext/snprintk.c:590
    10ec:	7110005f 	cmp	w2, #0x400
    10f0:	540000a1 	b.ne	1104 <__vsnprintf+0x7e0>
/home/lagadanu/Desktop/qemu/optee_os/lib/libutils/ext/snprintk.c:591
    10f4:	4b060141 	sub	w1, w10, w6
/home/lagadanu/Desktop/qemu/optee_os/lib/libutils/ext/snprintk.c:593
    10f8:	52800602 	mov	w2, #0x30                  	// #48
/home/lagadanu/Desktop/qemu/optee_os/lib/libutils/ext/snprintk.c:592
    10fc:	7100003f 	cmp	w1, #0x0
    1100:	540018ec 	b.gt	141c <__vsnprintf+0xaf8>
/home/lagadanu/Desktop/qemu/optee_os/lib/libutils/ext/snprintk.c:597
    1104:	4b040000 	sub	w0, w0, w4
/home/lagadanu/Desktop/qemu/optee_os/lib/libutils/ext/snprintk.c:599
    1108:	52800601 	mov	w1, #0x30                  	// #48
/home/lagadanu/Desktop/qemu/optee_os/lib/libutils/ext/snprintk.c:598
    110c:	7100001f 	cmp	w0, #0x0
    1110:	5400194c 	b.gt	1438 <__vsnprintf+0xb14>
    1114:	8b244064 	add	x4, x3, w4, uxtw
/home/lagadanu/Desktop/qemu/optee_os/lib/libutils/ext/snprintk.c:602
    1118:	eb04007f 	cmp	x3, x4
    111c:	540019c1 	b.ne	1454 <__vsnprintf+0xb30>
/home/lagadanu/Desktop/qemu/optee_os/lib/libutils/ext/snprintk.c:605
    1120:	3617c2b5 	tbz	w21, #2, 974 <__vsnprintf+0x50>
/home/lagadanu/Desktop/qemu/optee_os/lib/libutils/ext/snprintk.c:606
    1124:	4b06014a 	sub	w10, w10, w6
/home/lagadanu/Desktop/qemu/optee_os/lib/libutils/ext/snprintk.c:608
    1128:	52800400 	mov	w0, #0x20                  	// #32
/home/lagadanu/Desktop/qemu/optee_os/lib/libutils/ext/snprintk.c:607
    112c:	7100015f 	cmp	w10, #0x0
    1130:	54ffc22d 	b.le	974 <__vsnprintf+0x50>
/home/lagadanu/Desktop/qemu/optee_os/lib/libutils/ext/snprintk.c:608
    1134:	b40000b6 	cbz	x22, 1148 <__vsnprintf+0x824>
    1138:	eb16035f 	cmp	x26, x22
    113c:	54000069 	b.ls	1148 <__vsnprintf+0x824>
    1140:	390002c0 	strb	w0, [x22]
    1144:	910006d6 	add	x22, x22, #0x1
    1148:	5100054a 	sub	w10, w10, #0x1
    114c:	17fffff8 	b	112c <__vsnprintf+0x808>
/home/lagadanu/Desktop/qemu/optee_os/lib/libutils/ext/snprintk.c:421
    1150:	11002014 	add	w20, w0, #0x8
    1154:	8b20c380 	add	x0, x28, w0, sxtw
    1158:	7100029f 	cmp	w20, #0x0
    115c:	54fff68d 	b.le	102c <__vsnprintf+0x708>
    1160:	91003e61 	add	x1, x19, #0xf
    1164:	17ffffb0 	b	1024 <__vsnprintf+0x700>
/home/lagadanu/Desktop/qemu/optee_os/lib/libutils/ext/snprintk.c:435
    1168:	37f801c0 	tbnz	w0, #31, 11a0 <__vsnprintf+0x87c>
    116c:	91003e61 	add	x1, x19, #0xf
    1170:	2a0003f4 	mov	w20, w0
    1174:	aa1303e0 	mov	x0, x19
    1178:	927df033 	and	x19, x1, #0xfffffffffffffff8
/home/lagadanu/Desktop/qemu/optee_os/lib/libutils/ext/snprintk.c:437
    117c:	f0000037 	adrp	x23, 8000 <malloc_add_pool+0xa0>
    1180:	911882f7 	add	x23, x23, #0x620
/home/lagadanu/Desktop/qemu/optee_os/lib/libutils/ext/snprintk.c:435
    1184:	f9400005 	ldr	x5, [x0]
/home/lagadanu/Desktop/qemu/optee_os/lib/libutils/ext/snprintk.c:438
    1188:	321f02b5 	orr	w21, w21, #0x2
/home/lagadanu/Desktop/qemu/optee_os/lib/libutils/ext/snprintk.c:437
    118c:	910062f7 	add	x23, x23, #0x18
/home/lagadanu/Desktop/qemu/optee_os/lib/libutils/ext/snprintk.c:482
    1190:	52800001 	mov	w1, #0x0                   	// #0
/home/lagadanu/Desktop/qemu/optee_os/lib/libutils/ext/snprintk.c:439
    1194:	52800f08 	mov	w8, #0x78                  	// #120
/home/lagadanu/Desktop/qemu/optee_os/lib/libutils/ext/snprintk.c:436
    1198:	52800040 	mov	w0, #0x2                   	// #2
    119c:	17fffefe 	b	d94 <__vsnprintf+0x470>
/home/lagadanu/Desktop/qemu/optee_os/lib/libutils/ext/snprintk.c:435
    11a0:	11002014 	add	w20, w0, #0x8
    11a4:	8b20c380 	add	x0, x28, w0, sxtw
    11a8:	7100029f 	cmp	w20, #0x0
    11ac:	54fffe8d 	b.le	117c <__vsnprintf+0x858>
    11b0:	91003e61 	add	x1, x19, #0xf
    11b4:	17fffff0 	b	1174 <__vsnprintf+0x850>
/home/lagadanu/Desktop/qemu/optee_os/lib/libutils/ext/snprintk.c:442
    11b8:	11002014 	add	w20, w0, #0x8
    11bc:	8b20c380 	add	x0, x28, w0, sxtw
    11c0:	7100029f 	cmp	w20, #0x0
    11c4:	54ffcbcd 	b.le	b3c <__vsnprintf+0x218>
    11c8:	91003e61 	add	x1, x19, #0xf
    11cc:	17fffe5a 	b	b34 <__vsnprintf+0x210>
/home/lagadanu/Desktop/qemu/optee_os/lib/libutils/ext/snprintk.c:460
    11d0:	aa0303e0 	mov	x0, x3
    11d4:	b9006fa8 	str	w8, [x29,#108]
    11d8:	f9003ba3 	str	x3, [x29,#112]
    11dc:	b9007baa 	str	w10, [x29,#120]
    11e0:	94000100 	bl	15e0 <strlen>
/home/lagadanu/Desktop/qemu/optee_os/lib/libutils/ext/snprintk.c:461
    11e4:	52800001 	mov	w1, #0x0                   	// #0
/home/lagadanu/Desktop/qemu/optee_os/lib/libutils/ext/snprintk.c:460
    11e8:	2a0003e4 	mov	w4, w0
    11ec:	b9406fa8 	ldr	w8, [x29,#108]
/home/lagadanu/Desktop/qemu/optee_os/lib/libutils/ext/snprintk.c:285
    11f0:	52800000 	mov	w0, #0x0                   	// #0
    11f4:	b9407baa 	ldr	w10, [x29,#120]
    11f8:	f9403ba3 	ldr	x3, [x29,#112]
    11fc:	17ffffab 	b	10a8 <__vsnprintf+0x784>
/home/lagadanu/Desktop/qemu/optee_os/lib/libutils/ext/snprintk.c:464
    1200:	321c02b5 	orr	w21, w21, #0x10
    1204:	17fffe6c 	b	bb4 <__vsnprintf+0x290>
/home/lagadanu/Desktop/qemu/optee_os/lib/libutils/ext/snprintk.c:467
    1208:	3747cd95 	tbnz	w21, #8, bb8 <__vsnprintf+0x294>
    120c:	374fcd75 	tbnz	w21, #9, bb8 <__vsnprintf+0x294>
    1210:	372fcd55 	tbnz	w21, #5, bb8 <__vsnprintf+0x294>
    1214:	3727cd35 	tbnz	w21, #4, bb8 <__vsnprintf+0x294>
    1218:	36300295 	tbz	w21, #6, 1268 <__vsnprintf+0x944>
    121c:	37f801a0 	tbnz	w0, #31, 1250 <__vsnprintf+0x92c>
    1220:	91002e61 	add	x1, x19, #0xb
    1224:	2a0003f4 	mov	w20, w0
    1228:	aa1303e0 	mov	x0, x19
    122c:	927df033 	and	x19, x1, #0xfffffffffffffff8
    1230:	79400005 	ldrh	w5, [x0]
    1234:	17fffe67 	b	bd0 <__vsnprintf+0x2ac>
    1238:	11002014 	add	w20, w0, #0x8
    123c:	8b20c380 	add	x0, x28, w0, sxtw
    1240:	7100029f 	cmp	w20, #0x0
    1244:	54ffcc4d 	b.le	bcc <__vsnprintf+0x2a8>
    1248:	91003e61 	add	x1, x19, #0xf
    124c:	17fffe5e 	b	bc4 <__vsnprintf+0x2a0>
    1250:	11002014 	add	w20, w0, #0x8
    1254:	8b20c380 	add	x0, x28, w0, sxtw
    1258:	7100029f 	cmp	w20, #0x0
    125c:	54fffead 	b.le	1230 <__vsnprintf+0x90c>
    1260:	91002e61 	add	x1, x19, #0xb
    1264:	17fffff1 	b	1228 <__vsnprintf+0x904>
    1268:	37f800e0 	tbnz	w0, #31, 1284 <__vsnprintf+0x960>
    126c:	91002e61 	add	x1, x19, #0xb
    1270:	2a0003f4 	mov	w20, w0
    1274:	aa1303e0 	mov	x0, x19
    1278:	927df033 	and	x19, x1, #0xfffffffffffffff8
    127c:	b9400005 	ldr	w5, [x0]
    1280:	17fffe54 	b	bd0 <__vsnprintf+0x2ac>
    1284:	11002014 	add	w20, w0, #0x8
    1288:	8b20c380 	add	x0, x28, w0, sxtw
    128c:	7100029f 	cmp	w20, #0x0
    1290:	54ffff6d 	b.le	127c <__vsnprintf+0x958>
    1294:	91002e61 	add	x1, x19, #0xb
    1298:	17fffff7 	b	1274 <__vsnprintf+0x950>
/home/lagadanu/Desktop/qemu/optee_os/lib/libutils/ext/snprintk.c:474
    129c:	f0000037 	adrp	x23, 8000 <malloc_add_pool+0xa0>
    12a0:	911882f7 	add	x23, x23, #0x620
    12a4:	910062f7 	add	x23, x23, #0x18
    12a8:	17fffe4e 	b	be0 <__vsnprintf+0x2bc>
/home/lagadanu/Desktop/qemu/optee_os/lib/libutils/ext/snprintk.c:475
    12ac:	3747c9d5 	tbnz	w21, #8, be4 <__vsnprintf+0x2c0>
    12b0:	374fc9b5 	tbnz	w21, #9, be4 <__vsnprintf+0x2c0>
    12b4:	372fc995 	tbnz	w21, #5, be4 <__vsnprintf+0x2c0>
    12b8:	3727c975 	tbnz	w21, #4, be4 <__vsnprintf+0x2c0>
    12bc:	36300295 	tbz	w21, #6, 130c <__vsnprintf+0x9e8>
    12c0:	37f801a0 	tbnz	w0, #31, 12f4 <__vsnprintf+0x9d0>
    12c4:	91002e61 	add	x1, x19, #0xb
    12c8:	2a0003f4 	mov	w20, w0
    12cc:	aa1303e0 	mov	x0, x19
    12d0:	927df033 	and	x19, x1, #0xfffffffffffffff8
    12d4:	79400005 	ldrh	w5, [x0]
    12d8:	17fffe49 	b	bfc <__vsnprintf+0x2d8>
    12dc:	11002014 	add	w20, w0, #0x8
    12e0:	8b20c380 	add	x0, x28, w0, sxtw
    12e4:	7100029f 	cmp	w20, #0x0
    12e8:	54ffc88d 	b.le	bf8 <__vsnprintf+0x2d4>
    12ec:	91003e61 	add	x1, x19, #0xf
    12f0:	17fffe40 	b	bf0 <__vsnprintf+0x2cc>
    12f4:	11002014 	add	w20, w0, #0x8
    12f8:	8b20c380 	add	x0, x28, w0, sxtw
    12fc:	7100029f 	cmp	w20, #0x0
    1300:	54fffead 	b.le	12d4 <__vsnprintf+0x9b0>
    1304:	91002e61 	add	x1, x19, #0xb
    1308:	17fffff1 	b	12cc <__vsnprintf+0x9a8>
    130c:	37f800e0 	tbnz	w0, #31, 1328 <__vsnprintf+0xa04>
    1310:	91002e61 	add	x1, x19, #0xb
    1314:	2a0003f4 	mov	w20, w0
    1318:	aa1303e0 	mov	x0, x19
    131c:	927df033 	and	x19, x1, #0xfffffffffffffff8
    1320:	b9400005 	ldr	w5, [x0]
    1324:	17fffe36 	b	bfc <__vsnprintf+0x2d8>
    1328:	11002014 	add	w20, w0, #0x8
    132c:	8b20c380 	add	x0, x28, w0, sxtw
    1330:	7100029f 	cmp	w20, #0x0
    1334:	54ffff6d 	b.le	1320 <__vsnprintf+0x9fc>
    1338:	91002e61 	add	x1, x19, #0xb
    133c:	17fffff7 	b	1318 <__vsnprintf+0x9f4>
/home/lagadanu/Desktop/qemu/optee_os/lib/libutils/ext/snprintk.c:503
    1340:	91009700 	add	x0, x24, #0x25
/home/lagadanu/Desktop/qemu/optee_os/lib/libutils/ext/snprintk.c:517
    1344:	d2800146 	mov	x6, #0xa                   	// #10
/home/lagadanu/Desktop/qemu/optee_os/lib/libutils/ext/snprintk.c:516
    1348:	f10024bf 	cmp	x5, #0x9
    134c:	d1000403 	sub	x3, x0, #0x1
    1350:	540000c8 	b.hi	1368 <__vsnprintf+0xa44>
/home/lagadanu/Desktop/qemu/optee_os/lib/libutils/ext/snprintk.c:520
    1354:	1100c0a2 	add	w2, w5, #0x30
    1358:	381ff002 	sturb	w2, [x0,#-1]
    135c:	17fffea7 	b	df8 <__vsnprintf+0x4d4>
/home/lagadanu/Desktop/qemu/optee_os/lib/libutils/ext/snprintk.c:508
    1360:	aa0303e0 	mov	x0, x3
    1364:	17fffe98 	b	dc4 <__vsnprintf+0x4a0>
/home/lagadanu/Desktop/qemu/optee_os/lib/libutils/ext/snprintk.c:517
    1368:	aa0303e0 	mov	x0, x3
    136c:	9ac608a3 	udiv	x3, x5, x6
    1370:	9b069462 	msub	x2, x3, x6, x5
/home/lagadanu/Desktop/qemu/optee_os/lib/libutils/ext/snprintk.c:518
    1374:	aa0303e5 	mov	x5, x3
/home/lagadanu/Desktop/qemu/optee_os/lib/libutils/ext/snprintk.c:517
    1378:	1100c042 	add	w2, w2, #0x30
    137c:	39000002 	strb	w2, [x0]
    1380:	17fffff2 	b	1348 <__vsnprintf+0xa24>
/home/lagadanu/Desktop/qemu/optee_os/lib/libutils/ext/snprintk.c:503
    1384:	91009703 	add	x3, x24, #0x25
/home/lagadanu/Desktop/qemu/optee_os/lib/libutils/ext/snprintk.c:525
    1388:	92400ca0 	and	x0, x5, #0xf
/home/lagadanu/Desktop/qemu/optee_os/lib/libutils/ext/snprintk.c:526
    138c:	d344fca5 	lsr	x5, x5, #4
/home/lagadanu/Desktop/qemu/optee_os/lib/libutils/ext/snprintk.c:525
    1390:	38606ae0 	ldrb	w0, [x23,x0]
    1394:	381ffc60 	strb	w0, [x3,#-1]!
/home/lagadanu/Desktop/qemu/optee_os/lib/libutils/ext/snprintk.c:527
    1398:	b5ffff85 	cbnz	x5, 1388 <__vsnprintf+0xa64>
    139c:	17fffe97 	b	df8 <__vsnprintf+0x4d4>
/home/lagadanu/Desktop/qemu/optee_os/lib/libutils/ext/snprintk.c:569
    13a0:	110008c2 	add	w2, w6, #0x2
    13a4:	f27f02bf 	tst	x21, #0x2
    13a8:	1a861046 	csel	w6, w2, w6, ne
    13ac:	17ffff43 	b	10b8 <__vsnprintf+0x794>
/home/lagadanu/Desktop/qemu/optee_os/lib/libutils/ext/snprintk.c:578
    13b0:	b40000b6 	cbz	x22, 13c4 <__vsnprintf+0xaa0>
    13b4:	eb16035f 	cmp	x26, x22
    13b8:	54000069 	b.ls	13c4 <__vsnprintf+0xaa0>
    13bc:	390002c7 	strb	w7, [x22]
    13c0:	910006d6 	add	x22, x22, #0x1
    13c4:	510004a5 	sub	w5, w5, #0x1
    13c8:	17ffff44 	b	10d8 <__vsnprintf+0x7b4>
/home/lagadanu/Desktop/qemu/optee_os/lib/libutils/ext/snprintk.c:583
    13cc:	eb16035f 	cmp	x26, x22
    13d0:	54ffe8e9 	b.ls	10ec <__vsnprintf+0x7c8>
    13d4:	390002c1 	strb	w1, [x22]
    13d8:	910006d6 	add	x22, x22, #0x1
    13dc:	17ffff44 	b	10ec <__vsnprintf+0x7c8>
/home/lagadanu/Desktop/qemu/optee_os/lib/libutils/ext/snprintk.c:584
    13e0:	360fe875 	tbz	w21, #1, 10ec <__vsnprintf+0x7c8>
/home/lagadanu/Desktop/qemu/optee_os/lib/libutils/ext/snprintk.c:585
    13e4:	b4ffe836 	cbz	x22, 10e8 <__vsnprintf+0x7c4>
    13e8:	eb16035f 	cmp	x26, x22
    13ec:	54ffe809 	b.ls	10ec <__vsnprintf+0x7c8>
    13f0:	52800601 	mov	w1, #0x30                  	// #48
    13f4:	390002c1 	strb	w1, [x22]
/home/lagadanu/Desktop/qemu/optee_os/lib/libutils/ext/snprintk.c:586
    13f8:	b10006c1 	adds	x1, x22, #0x1
    13fc:	54ffe760 	b.eq	10e8 <__vsnprintf+0x7c4>
    1400:	eb01035f 	cmp	x26, x1
    1404:	54000089 	b.ls	1414 <__vsnprintf+0xaf0>
    1408:	390006c8 	strb	w8, [x22,#1]
    140c:	91000ad6 	add	x22, x22, #0x2
    1410:	17ffff37 	b	10ec <__vsnprintf+0x7c8>
    1414:	aa0103f6 	mov	x22, x1
    1418:	17ffff35 	b	10ec <__vsnprintf+0x7c8>
/home/lagadanu/Desktop/qemu/optee_os/lib/libutils/ext/snprintk.c:593
    141c:	b40000b6 	cbz	x22, 1430 <__vsnprintf+0xb0c>
    1420:	eb16035f 	cmp	x26, x22
    1424:	54000069 	b.ls	1430 <__vsnprintf+0xb0c>
    1428:	390002c2 	strb	w2, [x22]
    142c:	910006d6 	add	x22, x22, #0x1
    1430:	51000421 	sub	w1, w1, #0x1
    1434:	17ffff32 	b	10fc <__vsnprintf+0x7d8>
/home/lagadanu/Desktop/qemu/optee_os/lib/libutils/ext/snprintk.c:599
    1438:	b40000b6 	cbz	x22, 144c <__vsnprintf+0xb28>
    143c:	eb16035f 	cmp	x26, x22
    1440:	54000069 	b.ls	144c <__vsnprintf+0xb28>
    1444:	390002c1 	strb	w1, [x22]
    1448:	910006d6 	add	x22, x22, #0x1
    144c:	51000400 	sub	w0, w0, #0x1
    1450:	17ffff2f 	b	110c <__vsnprintf+0x7e8>
/home/lagadanu/Desktop/qemu/optee_os/lib/libutils/ext/snprintk.c:603
    1454:	b40000d6 	cbz	x22, 146c <__vsnprintf+0xb48>
    1458:	eb16035f 	cmp	x26, x22
    145c:	54000089 	b.ls	146c <__vsnprintf+0xb48>
    1460:	39400060 	ldrb	w0, [x3]
    1464:	910006d6 	add	x22, x22, #0x1
    1468:	381ff2c0 	sturb	w0, [x22,#-1]
/home/lagadanu/Desktop/qemu/optee_os/lib/libutils/ext/snprintk.c:602
    146c:	91000463 	add	x3, x3, #0x1
    1470:	17ffff2a 	b	1118 <__vsnprintf+0x7f4>
__vsnprintf():
/home/lagadanu/Desktop/qemu/optee_os/lib/libutils/ext/snprintk.c:143
    1474:	f94047a0 	ldr	x0, [x29,#136]
    1478:	f100001f 	cmp	x0, #0x0
    147c:	f94043a0 	ldr	x0, [x29,#128]
    1480:	fa401804 	ccmp	x0, #0x0, #0x4, ne
    1484:	540000c0 	b.eq	149c <__vsnprintf+0xb78>
/home/lagadanu/Desktop/qemu/optee_os/lib/libutils/ext/snprintk.c:145
    1488:	f94043a1 	ldr	x1, [x29,#128]
    148c:	93407f60 	sxtw	x0, w27
    1490:	eb00003f 	cmp	x1, x0
    1494:	54000168 	b.hi	14c0 <__vsnprintf+0xb9c>
/home/lagadanu/Desktop/qemu/optee_os/lib/libutils/ext/snprintk.c:146
    1498:	381ff35f 	sturb	wzr, [x26,#-1]
/home/lagadanu/Desktop/qemu/optee_os/lib/libutils/ext/snprintk.c:151
    149c:	2a1b03e0 	mov	w0, w27
    14a0:	a94453f3 	ldp	x19, x20, [sp,#64]
    14a4:	a9455bf5 	ldp	x21, x22, [sp,#80]
    14a8:	a94663f7 	ldp	x23, x24, [sp,#96]
    14ac:	a9476bf9 	ldp	x25, x26, [sp,#112]
    14b0:	a94873fb 	ldp	x27, x28, [sp,#128]
    14b4:	a9437bfd 	ldp	x29, x30, [sp,#48]
    14b8:	9103c3ff 	add	sp, sp, #0xf0
    14bc:	d65f03c0 	ret
/home/lagadanu/Desktop/qemu/optee_os/lib/libutils/ext/snprintk.c:148
    14c0:	f94047a1 	ldr	x1, [x29,#136]
    14c4:	3820683f 	strb	wzr, [x1,x0]
/home/lagadanu/Desktop/qemu/optee_os/lib/libutils/ext/snprintk.c:150
    14c8:	17fffff5 	b	149c <__vsnprintf+0xb78>

00000000000014cc <vsnprintk>:
vsnprintk():
/home/lagadanu/Desktop/qemu/optee_os/lib/libutils/ext/snprintk.c:129
    14cc:	a9bb7bfd 	stp	x29, x30, [sp,#-80]!
    14d0:	910003fd 	mov	x29, sp
    14d4:	a90153f3 	stp	x19, x20, [sp,#16]
    14d8:	aa0003f3 	mov	x19, x0
    14dc:	f90013f5 	str	x21, [sp,#32]
    14e0:	aa0103f4 	mov	x20, x1
    14e4:	aa0203f5 	mov	x21, x2
/home/lagadanu/Desktop/qemu/optee_os/lib/libutils/ext/snprintk.c:130
    14e8:	aa0303e1 	mov	x1, x3
    14ec:	9100c3a0 	add	x0, x29, #0x30
    14f0:	d2800402 	mov	x2, #0x20                  	// #32
    14f4:	94000033 	bl	15c0 <memcpy>
    14f8:	aa0003e3 	mov	x3, x0
    14fc:	aa1503e2 	mov	x2, x21
    1500:	aa1403e1 	mov	x1, x20
    1504:	52800024 	mov	w4, #0x1                   	// #1
    1508:	aa1303e0 	mov	x0, x19
    150c:	97fffd06 	bl	924 <__vsnprintf>
/home/lagadanu/Desktop/qemu/optee_os/lib/libutils/ext/snprintk.c:131
    1510:	f94013f5 	ldr	x21, [sp,#32]
    1514:	a94153f3 	ldp	x19, x20, [sp,#16]
    1518:	a8c57bfd 	ldp	x29, x30, [sp],#80
    151c:	d65f03c0 	ret

0000000000001520 <snprintk>:
snprintk():
/home/lagadanu/Desktop/qemu/optee_os/lib/libutils/ext/snprintk.c:112
    1520:	a9b07bfd 	stp	x29, x30, [sp,#-256]!
    1524:	910003fd 	mov	x29, sp
    1528:	a90d93a3 	stp	x3, x4, [x29,#216]
/home/lagadanu/Desktop/qemu/optee_os/lib/libutils/ext/snprintk.c:116
    152c:	910403a3 	add	x3, x29, #0x100
    1530:	a9030fa3 	stp	x3, x3, [x29,#48]
    1534:	910343a3 	add	x3, x29, #0xd0
    1538:	f90023a3 	str	x3, [x29,#64]
    153c:	128004e3 	mov	w3, #0xffffffd8            	// #-40
    1540:	b9004ba3 	str	w3, [x29,#72]
    1544:	12800fe3 	mov	w3, #0xffffff80            	// #-128
    1548:	b9004fa3 	str	w3, [x29,#76]
/home/lagadanu/Desktop/qemu/optee_os/lib/libutils/ext/snprintk.c:117
    154c:	910043a3 	add	x3, x29, #0x10
/home/lagadanu/Desktop/qemu/optee_os/lib/libutils/ext/snprintk.c:112
    1550:	a90e9ba5 	stp	x5, x6, [x29,#232]
/home/lagadanu/Desktop/qemu/optee_os/lib/libutils/ext/snprintk.c:117
    1554:	a94317a4 	ldp	x4, x5, [x29,#48]
    1558:	a90117a4 	stp	x4, x5, [x29,#16]
    155c:	a94417a4 	ldp	x4, x5, [x29,#64]
/home/lagadanu/Desktop/qemu/optee_os/lib/libutils/ext/snprintk.c:112
    1560:	3d8017a0 	str	q0, [x29,#80]
    1564:	3d801ba1 	str	q1, [x29,#96]
    1568:	3d801fa2 	str	q2, [x29,#112]
    156c:	3d8023a3 	str	q3, [x29,#128]
    1570:	3d8027a4 	str	q4, [x29,#144]
    1574:	3d802ba5 	str	q5, [x29,#160]
    1578:	3d802fa6 	str	q6, [x29,#176]
    157c:	3d8033a7 	str	q7, [x29,#192]
    1580:	f9007fa7 	str	x7, [x29,#248]
/home/lagadanu/Desktop/qemu/optee_os/lib/libutils/ext/snprintk.c:117
    1584:	a90217a4 	stp	x4, x5, [x29,#32]
    1588:	97ffffd1 	bl	14cc <vsnprintk>
/home/lagadanu/Desktop/qemu/optee_os/lib/libutils/ext/snprintk.c:121
    158c:	a8d07bfd 	ldp	x29, x30, [sp],#256
    1590:	d65f03c0 	ret

0000000000001594 <memchr>:
memchr():
/home/lagadanu/Desktop/qemu/optee_os/lib/libutils/isoc/newlib/memchr.c:109
    1594:	12001c21 	and	w1, w1, #0xff
    1598:	8b020002 	add	x2, x0, x2
/home/lagadanu/Desktop/qemu/optee_os/lib/libutils/isoc/newlib/memchr.c:153
    159c:	eb02001f 	cmp	x0, x2
    15a0:	54000061 	b.ne	15ac <memchr+0x18>
/home/lagadanu/Desktop/qemu/optee_os/lib/libutils/isoc/newlib/memchr.c:159
    15a4:	d2800000 	mov	x0, #0x0                   	// #0
/home/lagadanu/Desktop/qemu/optee_os/lib/libutils/isoc/newlib/memchr.c:160
    15a8:	d65f03c0 	ret
/home/lagadanu/Desktop/qemu/optee_os/lib/libutils/isoc/newlib/memchr.c:154
    15ac:	39400003 	ldrb	w3, [x0]
    15b0:	6b01007f 	cmp	w3, w1
    15b4:	54ffffa0 	b.eq	15a8 <memchr+0x14>
/home/lagadanu/Desktop/qemu/optee_os/lib/libutils/isoc/newlib/memchr.c:156
    15b8:	91000400 	add	x0, x0, #0x1
    15bc:	17fffff8 	b	159c <memchr+0x8>

00000000000015c0 <memcpy>:
memcpy():
/home/lagadanu/Desktop/qemu/optee_os/lib/libutils/isoc/newlib/memcpy.c:94
    15c0:	d2800003 	mov	x3, #0x0                   	// #0
    15c4:	eb03005f 	cmp	x2, x3
    15c8:	54000041 	b.ne	15d0 <memcpy+0x10>
/home/lagadanu/Desktop/qemu/optee_os/lib/libutils/isoc/newlib/memcpy.c:135
    15cc:	d65f03c0 	ret
/home/lagadanu/Desktop/qemu/optee_os/lib/libutils/isoc/newlib/memcpy.c:95
    15d0:	38636824 	ldrb	w4, [x1,x3]
    15d4:	38236804 	strb	w4, [x0,x3]
    15d8:	91000463 	add	x3, x3, #0x1
    15dc:	17fffffa 	b	15c4 <memcpy+0x4>

00000000000015e0 <strlen>:
strlen():
/home/lagadanu/Desktop/qemu/optee_os/lib/libutils/isoc/newlib/strlen.c:117
    15e0:	aa0003e1 	mov	x1, x0
    15e4:	39400022 	ldrb	w2, [x1]
    15e8:	35000062 	cbnz	w2, 15f4 <strlen+0x14>
/home/lagadanu/Desktop/qemu/optee_os/lib/libutils/isoc/newlib/strlen.c:120
    15ec:	cb000020 	sub	x0, x1, x0
    15f0:	d65f03c0 	ret
/home/lagadanu/Desktop/qemu/optee_os/lib/libutils/isoc/newlib/strlen.c:118
    15f4:	91000421 	add	x1, x1, #0x1
    15f8:	17fffffb 	b	15e4 <strlen+0x4>

00000000000015fc <trace_ext_puts>:
trace_ext_puts():
/home/lagadanu/Desktop/qemu/optee_os/lib/libutee/trace_ext.c:17
    15fc:	a9be7bfd 	stp	x29, x30, [sp,#-32]!
    1600:	910003fd 	mov	x29, sp
    1604:	f9000bf3 	str	x19, [sp,#16]
    1608:	aa0003f3 	mov	x19, x0
/home/lagadanu/Desktop/qemu/optee_os/lib/libutee/trace_ext.c:18
    160c:	97fffff5 	bl	15e0 <strlen>
    1610:	aa0003e1 	mov	x1, x0
    1614:	aa1303e0 	mov	x0, x19
/home/lagadanu/Desktop/qemu/optee_os/lib/libutee/trace_ext.c:19
    1618:	f9400bf3 	ldr	x19, [sp,#16]
    161c:	a8c27bfd 	ldp	x29, x30, [sp],#32
/home/lagadanu/Desktop/qemu/optee_os/lib/libutee/trace_ext.c:18
    1620:	14000574 	b	2bf0 <utee_log>

0000000000001624 <trace_ext_get_thread_id>:
trace_ext_get_thread_id():
/home/lagadanu/Desktop/qemu/optee_os/lib/libutee/trace_ext.c:24
    1624:	12800000 	mov	w0, #0xffffffff            	// #-1
    1628:	d65f03c0 	ret

000000000000162c <printf>:
printf():
/home/lagadanu/Desktop/qemu/optee_os/lib/libutee/trace_ext.c:32
    162c:	d10883ff 	sub	sp, sp, #0x220
    1630:	a9007bfd 	stp	x29, x30, [sp]
    1634:	910003fd 	mov	x29, sp
    1638:	a90153f3 	stp	x19, x20, [sp,#16]
    163c:	aa0003f3 	mov	x19, x0
    1640:	910403a0 	add	x0, x29, #0x100
    1644:	a91e8ba1 	stp	x1, x2, [x29,#488]
    1648:	a91f93a3 	stp	x3, x4, [x29,#504]
    164c:	f90107a5 	str	x5, [x29,#520]
    1650:	f9010ba6 	str	x6, [x29,#528]
    1654:	f9010fa7 	str	x7, [x29,#536]
    1658:	3d801800 	str	q0, [x0,#96]
    165c:	3d801c01 	str	q1, [x0,#112]
    1660:	3d802002 	str	q2, [x0,#128]
    1664:	3d802403 	str	q3, [x0,#144]
    1668:	3d802804 	str	q4, [x0,#160]
    166c:	3d802c05 	str	q5, [x0,#176]
    1670:	3d803006 	str	q6, [x0,#192]
    1674:	3d803407 	str	q7, [x0,#208]
/home/lagadanu/Desktop/qemu/optee_os/lib/libutee/trace_ext.c:37
    1678:	97fffc16 	bl	6d0 <trace_get_level>
    167c:	7100001f 	cmp	w0, #0x0
    1680:	5400038d 	b.le	16f0 <printf+0xc4>
/home/lagadanu/Desktop/qemu/optee_os/lib/libutee/trace_ext.c:40
    1684:	910883a0 	add	x0, x29, #0x220
    1688:	a90403a0 	stp	x0, x0, [x29,#64]
    168c:	910783a0 	add	x0, x29, #0x1e0
    1690:	f9002ba0 	str	x0, [x29,#80]
    1694:	128006e0 	mov	w0, #0xffffffc8            	// #-56
    1698:	b9005ba0 	str	w0, [x29,#88]
    169c:	12800fe0 	mov	w0, #0xffffff80            	// #-128
    16a0:	b9005fa0 	str	w0, [x29,#92]
/home/lagadanu/Desktop/qemu/optee_os/lib/libutee/trace_ext.c:41
    16a4:	a94407a0 	ldp	x0, x1, [x29,#64]
    16a8:	a90207a0 	stp	x0, x1, [x29,#32]
    16ac:	a94507a0 	ldp	x0, x1, [x29,#80]
    16b0:	910183b4 	add	x20, x29, #0x60
    16b4:	a90307a0 	stp	x0, x1, [x29,#48]
    16b8:	aa1303e2 	mov	x2, x19
    16bc:	910083a3 	add	x3, x29, #0x20
    16c0:	d2802001 	mov	x1, #0x100                 	// #256
    16c4:	aa1403e0 	mov	x0, x20
    16c8:	94001b0b 	bl	82f4 <vsnprintf>
    16cc:	2a0003f3 	mov	w19, w0
/home/lagadanu/Desktop/qemu/optee_os/lib/libutee/trace_ext.c:44
    16d0:	37f80060 	tbnz	w0, #31, 16dc <printf+0xb0>
/home/lagadanu/Desktop/qemu/optee_os/lib/libutee/trace_ext.c:47
    16d4:	aa1403e0 	mov	x0, x20
    16d8:	97ffffc9 	bl	15fc <trace_ext_puts>
/home/lagadanu/Desktop/qemu/optee_os/lib/libutee/trace_ext.c:50
    16dc:	2a1303e0 	mov	w0, w19
    16e0:	a94153f3 	ldp	x19, x20, [sp,#16]
    16e4:	a9407bfd 	ldp	x29, x30, [sp]
    16e8:	910883ff 	add	sp, sp, #0x220
    16ec:	d65f03c0 	ret
/home/lagadanu/Desktop/qemu/optee_os/lib/libutee/trace_ext.c:38
    16f0:	52800013 	mov	w19, #0x0                   	// #0
    16f4:	17fffffa 	b	16dc <printf+0xb0>

00000000000016f8 <puts>:
puts():
/home/lagadanu/Desktop/qemu/optee_os/lib/libutee/trace_ext.c:53
    16f8:	a9be7bfd 	stp	x29, x30, [sp,#-32]!
    16fc:	910003fd 	mov	x29, sp
    1700:	f9000bf3 	str	x19, [sp,#16]
    1704:	aa0003f3 	mov	x19, x0
/home/lagadanu/Desktop/qemu/optee_os/lib/libutee/trace_ext.c:54
    1708:	97fffbf2 	bl	6d0 <trace_get_level>
    170c:	7100001f 	cmp	w0, #0x0
    1710:	540000cd 	b.le	1728 <puts+0x30>
/home/lagadanu/Desktop/qemu/optee_os/lib/libutee/trace_ext.c:55
    1714:	aa1303e0 	mov	x0, x19
    1718:	97ffffb9 	bl	15fc <trace_ext_puts>
/home/lagadanu/Desktop/qemu/optee_os/lib/libutee/trace_ext.c:56
    171c:	90000040 	adrp	x0, 9000 <PRIME_TABLE+0x960>
    1720:	9113bc00 	add	x0, x0, #0x4ef
    1724:	97ffffb6 	bl	15fc <trace_ext_puts>
/home/lagadanu/Desktop/qemu/optee_os/lib/libutee/trace_ext.c:59
    1728:	52800020 	mov	w0, #0x1                   	// #1
    172c:	f9400bf3 	ldr	x19, [sp,#16]
    1730:	a8c27bfd 	ldp	x29, x30, [sp],#32
    1734:	d65f03c0 	ret

0000000000001738 <putchar>:
putchar():
/home/lagadanu/Desktop/qemu/optee_os/lib/libutee/trace_ext.c:62
    1738:	a9bd7bfd 	stp	x29, x30, [sp,#-48]!
    173c:	910003fd 	mov	x29, sp
    1740:	f9000bf3 	str	x19, [sp,#16]
    1744:	2a0003f3 	mov	w19, w0
/home/lagadanu/Desktop/qemu/optee_os/lib/libutee/trace_ext.c:63
    1748:	3900a3a0 	strb	w0, [x29,#40]
    174c:	3900a7bf 	strb	wzr, [x29,#41]
/home/lagadanu/Desktop/qemu/optee_os/lib/libutee/trace_ext.c:65
    1750:	97fffbe0 	bl	6d0 <trace_get_level>
    1754:	7100001f 	cmp	w0, #0x0
    1758:	5400006d 	b.le	1764 <putchar+0x2c>
/home/lagadanu/Desktop/qemu/optee_os/lib/libutee/trace_ext.c:66
    175c:	9100a3a0 	add	x0, x29, #0x28
    1760:	97ffffa7 	bl	15fc <trace_ext_puts>
/home/lagadanu/Desktop/qemu/optee_os/lib/libutee/trace_ext.c:73
    1764:	12001e60 	and	w0, w19, #0xff
    1768:	f9400bf3 	ldr	x19, [sp,#16]
    176c:	a8c37bfd 	ldp	x29, x30, [sp],#48
    1770:	d65f03c0 	ret

0000000000001774 <__utee_from_param>:
__utee_from_param():
/home/lagadanu/Desktop/qemu/optee_os/lib/libutee/tee_api.c:25
    1774:	f0000025 	adrp	x5, 8000 <malloc_add_pool+0xa0>
    1778:	911940a5 	add	x5, x5, #0x650
/home/lagadanu/Desktop/qemu/optee_os/lib/libutee/tee_api.c:23
    177c:	2a0103e3 	mov	w3, w1
    1780:	52800004 	mov	w4, #0x0                   	// #0
    1784:	f8008403 	str	x3, [x0],#8
/home/lagadanu/Desktop/qemu/optee_os/lib/libutee/tee_api.c:25
    1788:	1ac42423 	lsr	w3, w1, w4
    178c:	12000c63 	and	w3, w3, #0xf
    1790:	51000463 	sub	w3, w3, #0x1
    1794:	7100187f 	cmp	w3, #0x6
    1798:	54000268 	b.hi	17e4 <__utee_from_param+0x70>
    179c:	386348a3 	ldrb	w3, [x5,w3,uxtw]
    17a0:	10000066 	adr	x6, 17ac <__utee_from_param+0x38>
    17a4:	8b2388c3 	add	x3, x6, w3, sxtb #2
    17a8:	d61f0060 	br	x3
/home/lagadanu/Desktop/qemu/optee_os/lib/libutee/tee_api.c:29
    17ac:	b9400043 	ldr	w3, [x2]
    17b0:	f9000003 	str	x3, [x0]
/home/lagadanu/Desktop/qemu/optee_os/lib/libutee/tee_api.c:30
    17b4:	b9400443 	ldr	w3, [x2,#4]
/home/lagadanu/Desktop/qemu/optee_os/lib/libutee/tee_api.c:36
    17b8:	f9000403 	str	x3, [x0,#8]
    17bc:	11001084 	add	w4, w4, #0x4
    17c0:	91004042 	add	x2, x2, #0x10
    17c4:	91004000 	add	x0, x0, #0x10
/home/lagadanu/Desktop/qemu/optee_os/lib/libutee/tee_api.c:24 (discriminator 2)
    17c8:	7100409f 	cmp	w4, #0x10
    17cc:	54fffde1 	b.ne	1788 <__utee_from_param+0x14>
/home/lagadanu/Desktop/qemu/optee_os/lib/libutee/tee_api.c:44
    17d0:	d65f03c0 	ret
/home/lagadanu/Desktop/qemu/optee_os/lib/libutee/tee_api.c:35
    17d4:	f9400043 	ldr	x3, [x2]
    17d8:	f9000003 	str	x3, [x0]
/home/lagadanu/Desktop/qemu/optee_os/lib/libutee/tee_api.c:36
    17dc:	b9400843 	ldr	w3, [x2,#8]
    17e0:	17fffff6 	b	17b8 <__utee_from_param+0x44>
/home/lagadanu/Desktop/qemu/optee_os/lib/libutee/tee_api.c:40
    17e4:	a9007c1f 	stp	xzr, xzr, [x0]
/home/lagadanu/Desktop/qemu/optee_os/lib/libutee/tee_api.c:41
    17e8:	17fffff5 	b	17bc <__utee_from_param+0x48>

00000000000017ec <__utee_to_param>:
__utee_to_param():
/home/lagadanu/Desktop/qemu/optee_os/lib/libutee/tee_api.c:50
    17ec:	f8408446 	ldr	x6, [x2],#8
/home/lagadanu/Desktop/qemu/optee_os/lib/libutee/tee_api.c:56
    17f0:	f0000025 	adrp	x5, 8000 <malloc_add_pool+0xa0>
    17f4:	911960a5 	add	x5, x5, #0x658
/home/lagadanu/Desktop/qemu/optee_os/lib/libutee/tee_api.c:50
    17f8:	52800004 	mov	w4, #0x0                   	// #0
    17fc:	2a0603e9 	mov	w9, w6
/home/lagadanu/Desktop/qemu/optee_os/lib/libutee/tee_api.c:56
    1800:	1ac42523 	lsr	w3, w9, w4
    1804:	12000c63 	and	w3, w3, #0xf
    1808:	51000463 	sub	w3, w3, #0x1
    180c:	7100187f 	cmp	w3, #0x6
/home/lagadanu/Desktop/qemu/optee_os/lib/libutee/tee_api.c:54
    1810:	a9401c48 	ldp	x8, x7, [x2]
/home/lagadanu/Desktop/qemu/optee_os/lib/libutee/tee_api.c:56
    1814:	540000c8 	b.hi	182c <__utee_to_param+0x40>
    1818:	386348a3 	ldrb	w3, [x5,w3,uxtw]
    181c:	1000006a 	adr	x10, 1828 <__utee_to_param+0x3c>
    1820:	8b238943 	add	x3, x10, w3, sxtb #2
    1824:	d61f0060 	br	x3
/home/lagadanu/Desktop/qemu/optee_os/lib/libutee/tee_api.c:61
    1828:	29001c08 	stp	w8, w7, [x0]
    182c:	11001084 	add	w4, w4, #0x4
    1830:	91004042 	add	x2, x2, #0x10
    1834:	91004000 	add	x0, x0, #0x10
/home/lagadanu/Desktop/qemu/optee_os/lib/libutee/tee_api.c:52 (discriminator 2)
    1838:	7100409f 	cmp	w4, #0x10
    183c:	54fffe21 	b.ne	1800 <__utee_to_param+0x14>
/home/lagadanu/Desktop/qemu/optee_os/lib/libutee/tee_api.c:74
    1840:	b4000041 	cbz	x1, 1848 <__utee_to_param+0x5c>
/home/lagadanu/Desktop/qemu/optee_os/lib/libutee/tee_api.c:75
    1844:	b9000026 	str	w6, [x1]
    1848:	d65f03c0 	ret
/home/lagadanu/Desktop/qemu/optee_os/lib/libutee/tee_api.c:66
    184c:	f9000008 	str	x8, [x0]
/home/lagadanu/Desktop/qemu/optee_os/lib/libutee/tee_api.c:67
    1850:	b9000807 	str	w7, [x0,#8]
/home/lagadanu/Desktop/qemu/optee_os/lib/libutee/tee_api.c:68
    1854:	17fffff6 	b	182c <__utee_to_param+0x40>

0000000000001858 <TEE_OpenTASession>:
TEE_OpenTASession():
/home/lagadanu/Desktop/qemu/optee_os/lib/libutee/tee_api.c:84
    1858:	a9b77bfd 	stp	x29, x30, [sp,#-144]!
    185c:	910003fd 	mov	x29, sp
    1860:	a90153f3 	stp	x19, x20, [sp,#16]
/home/lagadanu/Desktop/qemu/optee_os/lib/libutee/tee_api.c:89
    1864:	910123b3 	add	x19, x29, #0x48
/home/lagadanu/Desktop/qemu/optee_os/lib/libutee/tee_api.c:84
    1868:	a9025bf5 	stp	x21, x22, [sp,#32]
    186c:	aa0303f4 	mov	x20, x3
    1870:	a90363f7 	stp	x23, x24, [sp,#48]
    1874:	aa0003f6 	mov	x22, x0
    1878:	aa0503f8 	mov	x24, x5
    187c:	2a0103f7 	mov	w23, w1
    1880:	aa0403f5 	mov	x21, x4
    1884:	2a0203e1 	mov	w1, w2
/home/lagadanu/Desktop/qemu/optee_os/lib/libutee/tee_api.c:89
    1888:	aa1303e0 	mov	x0, x19
    188c:	aa0303e2 	mov	x2, x3
    1890:	97ffffb9 	bl	1774 <__utee_from_param>
/home/lagadanu/Desktop/qemu/optee_os/lib/libutee/tee_api.c:90
    1894:	aa1803e4 	mov	x4, x24
    1898:	910113a3 	add	x3, x29, #0x44
    189c:	aa1303e2 	mov	x2, x19
    18a0:	2a1703e1 	mov	w1, w23
    18a4:	aa1603e0 	mov	x0, x22
    18a8:	940004de 	bl	2c20 <utee_open_ta_session>
/home/lagadanu/Desktop/qemu/optee_os/lib/libutee/tee_api.c:92
    18ac:	aa1303e2 	mov	x2, x19
/home/lagadanu/Desktop/qemu/optee_os/lib/libutee/tee_api.c:90
    18b0:	2a0003f6 	mov	w22, w0
/home/lagadanu/Desktop/qemu/optee_os/lib/libutee/tee_api.c:92
    18b4:	d2800001 	mov	x1, #0x0                   	// #0
    18b8:	aa1403e0 	mov	x0, x20
    18bc:	97ffffcc 	bl	17ec <__utee_to_param>
/home/lagadanu/Desktop/qemu/optee_os/lib/libutee/tee_api.c:98
    18c0:	34000056 	cbz	w22, 18c8 <TEE_OpenTASession+0x70>
/home/lagadanu/Desktop/qemu/optee_os/lib/libutee/tee_api.c:99
    18c4:	b90047bf 	str	wzr, [x29,#68]
/home/lagadanu/Desktop/qemu/optee_os/lib/libutee/tee_api.c:101
    18c8:	b94047a0 	ldr	w0, [x29,#68]
/home/lagadanu/Desktop/qemu/optee_os/lib/libutee/tee_api.c:103
    18cc:	a94153f3 	ldp	x19, x20, [sp,#16]
    18d0:	a94363f7 	ldp	x23, x24, [sp,#48]
/home/lagadanu/Desktop/qemu/optee_os/lib/libutee/tee_api.c:101
    18d4:	f90002a0 	str	x0, [x21]
/home/lagadanu/Desktop/qemu/optee_os/lib/libutee/tee_api.c:103
    18d8:	2a1603e0 	mov	w0, w22
    18dc:	a9425bf5 	ldp	x21, x22, [sp,#32]
    18e0:	a8c97bfd 	ldp	x29, x30, [sp],#144
    18e4:	d65f03c0 	ret

00000000000018e8 <TEE_CloseTASession>:
TEE_CloseTASession():
/home/lagadanu/Desktop/qemu/optee_os/lib/libutee/tee_api.c:107
    18e8:	b4000120 	cbz	x0, 190c <TEE_CloseTASession+0x24>
/home/lagadanu/Desktop/qemu/optee_os/lib/libutee/tee_api.c:106
    18ec:	a9bf7bfd 	stp	x29, x30, [sp,#-16]!
    18f0:	910003fd 	mov	x29, sp
/home/lagadanu/Desktop/qemu/optee_os/lib/libutee/tee_api.c:108
    18f4:	940004ce 	bl	2c2c <utee_close_ta_session>
/home/lagadanu/Desktop/qemu/optee_os/lib/libutee/tee_api.c:110
    18f8:	34000060 	cbz	w0, 1904 <TEE_CloseTASession+0x1c>
/home/lagadanu/Desktop/qemu/optee_os/lib/libutee/tee_api.c:113
    18fc:	a8c17bfd 	ldp	x29, x30, [sp],#16
/home/lagadanu/Desktop/qemu/optee_os/lib/libutee/tee_api.c:111
    1900:	14000403 	b	290c <TEE_Panic>
/home/lagadanu/Desktop/qemu/optee_os/lib/libutee/tee_api.c:113
    1904:	a8c17bfd 	ldp	x29, x30, [sp],#16
    1908:	d65f03c0 	ret
    190c:	d65f03c0 	ret

0000000000001910 <TEE_InvokeTACommand>:
TEE_InvokeTACommand():
/home/lagadanu/Desktop/qemu/optee_os/lib/libutee/tee_api.c:120
    1910:	a9b77bfd 	stp	x29, x30, [sp,#-144]!
    1914:	910003fd 	mov	x29, sp
    1918:	a90153f3 	stp	x19, x20, [sp,#16]
/home/lagadanu/Desktop/qemu/optee_os/lib/libutee/tee_api.c:125
    191c:	910123b4 	add	x20, x29, #0x48
/home/lagadanu/Desktop/qemu/optee_os/lib/libutee/tee_api.c:120
    1920:	a9025bf5 	stp	x21, x22, [sp,#32]
    1924:	aa0003f3 	mov	x19, x0
    1928:	a90363f7 	stp	x23, x24, [sp,#48]
    192c:	aa0403f6 	mov	x22, x4
    1930:	aa0503f5 	mov	x21, x5
    1934:	2a0103f7 	mov	w23, w1
    1938:	2a0203f8 	mov	w24, w2
/home/lagadanu/Desktop/qemu/optee_os/lib/libutee/tee_api.c:125
    193c:	2a0303e1 	mov	w1, w3
    1940:	aa0403e2 	mov	x2, x4
    1944:	aa1403e0 	mov	x0, x20
    1948:	97ffff8b 	bl	1774 <__utee_from_param>
/home/lagadanu/Desktop/qemu/optee_os/lib/libutee/tee_api.c:126
    194c:	910113a4 	add	x4, x29, #0x44
    1950:	aa1403e3 	mov	x3, x20
    1954:	2a1803e2 	mov	w2, w24
    1958:	2a1703e1 	mov	w1, w23
    195c:	aa1303e0 	mov	x0, x19
    1960:	940004b6 	bl	2c38 <utee_invoke_ta_command>
/home/lagadanu/Desktop/qemu/optee_os/lib/libutee/tee_api.c:129
    1964:	aa1403e2 	mov	x2, x20
/home/lagadanu/Desktop/qemu/optee_os/lib/libutee/tee_api.c:126
    1968:	2a0003f3 	mov	w19, w0
/home/lagadanu/Desktop/qemu/optee_os/lib/libutee/tee_api.c:129
    196c:	d2800001 	mov	x1, #0x0                   	// #0
    1970:	aa1603e0 	mov	x0, x22
    1974:	97ffff9e 	bl	17ec <__utee_to_param>
    1978:	b94047a0 	ldr	w0, [x29,#68]
/home/lagadanu/Desktop/qemu/optee_os/lib/libutee/tee_api.c:131
    197c:	b4000055 	cbz	x21, 1984 <TEE_InvokeTACommand+0x74>
/home/lagadanu/Desktop/qemu/optee_os/lib/libutee/tee_api.c:132
    1980:	b90002a0 	str	w0, [x21]
/home/lagadanu/Desktop/qemu/optee_os/lib/libutee/tee_api.c:134
    1984:	7100101f 	cmp	w0, #0x4
    1988:	54000120 	b.eq	19ac <TEE_InvokeTACommand+0x9c>
/home/lagadanu/Desktop/qemu/optee_os/lib/libutee/tee_api.c:138
    198c:	7100027f 	cmp	w19, #0x0
    1990:	129ffe60 	mov	w0, #0xffff000c            	// #-65524
    1994:	7a401264 	ccmp	w19, w0, #0x4, ne
    1998:	1299fb60 	mov	w0, #0xffff3024            	// #-53212
    199c:	7a401264 	ccmp	w19, w0, #0x4, ne
    19a0:	54000060 	b.eq	19ac <TEE_InvokeTACommand+0x9c>
/home/lagadanu/Desktop/qemu/optee_os/lib/libutee/tee_api.c:140
    19a4:	2a1303e0 	mov	w0, w19
    19a8:	940003d9 	bl	290c <TEE_Panic>
/home/lagadanu/Desktop/qemu/optee_os/lib/libutee/tee_api.c:143
    19ac:	2a1303e0 	mov	w0, w19
    19b0:	a94153f3 	ldp	x19, x20, [sp,#16]
    19b4:	a9425bf5 	ldp	x21, x22, [sp,#32]
    19b8:	a94363f7 	ldp	x23, x24, [sp,#48]
    19bc:	a8c97bfd 	ldp	x29, x30, [sp],#144
    19c0:	d65f03c0 	ret

00000000000019c4 <TEE_GetCancellationFlag>:
TEE_GetCancellationFlag():
/home/lagadanu/Desktop/qemu/optee_os/lib/libutee/tee_api.c:148
    19c4:	a9be7bfd 	stp	x29, x30, [sp,#-32]!
    19c8:	910003fd 	mov	x29, sp
/home/lagadanu/Desktop/qemu/optee_os/lib/libutee/tee_api.c:150
    19cc:	910073a0 	add	x0, x29, #0x1c
    19d0:	9400049d 	bl	2c44 <utee_get_cancellation_flag>
/home/lagadanu/Desktop/qemu/optee_os/lib/libutee/tee_api.c:152
    19d4:	34000040 	cbz	w0, 19dc <TEE_GetCancellationFlag+0x18>
/home/lagadanu/Desktop/qemu/optee_os/lib/libutee/tee_api.c:153
    19d8:	b9001fbf 	str	wzr, [x29,#28]
/home/lagadanu/Desktop/qemu/optee_os/lib/libutee/tee_api.c:154
    19dc:	b9401fa0 	ldr	w0, [x29,#28]
/home/lagadanu/Desktop/qemu/optee_os/lib/libutee/tee_api.c:155
    19e0:	a8c27bfd 	ldp	x29, x30, [sp],#32
/home/lagadanu/Desktop/qemu/optee_os/lib/libutee/tee_api.c:154
    19e4:	7100001f 	cmp	w0, #0x0
/home/lagadanu/Desktop/qemu/optee_os/lib/libutee/tee_api.c:155
    19e8:	1a9f07e0 	cset	w0, ne
    19ec:	d65f03c0 	ret

00000000000019f0 <TEE_UnmaskCancellation>:
TEE_UnmaskCancellation():
/home/lagadanu/Desktop/qemu/optee_os/lib/libutee/tee_api.c:158
    19f0:	a9be7bfd 	stp	x29, x30, [sp,#-32]!
    19f4:	910003fd 	mov	x29, sp
/home/lagadanu/Desktop/qemu/optee_os/lib/libutee/tee_api.c:160
    19f8:	910073a0 	add	x0, x29, #0x1c
    19fc:	94000498 	bl	2c5c <utee_unmask_cancellation>
/home/lagadanu/Desktop/qemu/optee_os/lib/libutee/tee_api.c:162
    1a00:	34000040 	cbz	w0, 1a08 <TEE_UnmaskCancellation+0x18>
/home/lagadanu/Desktop/qemu/optee_os/lib/libutee/tee_api.c:163
    1a04:	940003c2 	bl	290c <TEE_Panic>
/home/lagadanu/Desktop/qemu/optee_os/lib/libutee/tee_api.c:164
    1a08:	b9401fa0 	ldr	w0, [x29,#28]
/home/lagadanu/Desktop/qemu/optee_os/lib/libutee/tee_api.c:165
    1a0c:	a8c27bfd 	ldp	x29, x30, [sp],#32
/home/lagadanu/Desktop/qemu/optee_os/lib/libutee/tee_api.c:164
    1a10:	7100001f 	cmp	w0, #0x0
/home/lagadanu/Desktop/qemu/optee_os/lib/libutee/tee_api.c:165
    1a14:	1a9f07e0 	cset	w0, ne
    1a18:	d65f03c0 	ret

0000000000001a1c <TEE_MaskCancellation>:
TEE_MaskCancellation():
/home/lagadanu/Desktop/qemu/optee_os/lib/libutee/tee_api.c:168
    1a1c:	a9be7bfd 	stp	x29, x30, [sp,#-32]!
    1a20:	910003fd 	mov	x29, sp
/home/lagadanu/Desktop/qemu/optee_os/lib/libutee/tee_api.c:170
    1a24:	910073a0 	add	x0, x29, #0x1c
    1a28:	94000490 	bl	2c68 <utee_mask_cancellation>
/home/lagadanu/Desktop/qemu/optee_os/lib/libutee/tee_api.c:172
    1a2c:	34000040 	cbz	w0, 1a34 <TEE_MaskCancellation+0x18>
/home/lagadanu/Desktop/qemu/optee_os/lib/libutee/tee_api.c:173
    1a30:	940003b7 	bl	290c <TEE_Panic>
/home/lagadanu/Desktop/qemu/optee_os/lib/libutee/tee_api.c:174
    1a34:	b9401fa0 	ldr	w0, [x29,#28]
/home/lagadanu/Desktop/qemu/optee_os/lib/libutee/tee_api.c:175
    1a38:	a8c27bfd 	ldp	x29, x30, [sp],#32
/home/lagadanu/Desktop/qemu/optee_os/lib/libutee/tee_api.c:174
    1a3c:	7100001f 	cmp	w0, #0x0
/home/lagadanu/Desktop/qemu/optee_os/lib/libutee/tee_api.c:175
    1a40:	1a9f07e0 	cset	w0, ne
    1a44:	d65f03c0 	ret

0000000000001a48 <TEE_CheckMemoryAccessRights>:
TEE_CheckMemoryAccessRights():
/home/lagadanu/Desktop/qemu/optee_os/lib/libutee/tee_api.c:184
    1a48:	34000062 	cbz	w2, 1a54 <TEE_CheckMemoryAccessRights+0xc>
/home/lagadanu/Desktop/qemu/optee_os/lib/libutee/tee_api.c:188
    1a4c:	2a0203e2 	mov	w2, w2
    1a50:	14000480 	b	2c50 <utee_check_access_rights>
/home/lagadanu/Desktop/qemu/optee_os/lib/libutee/tee_api.c:200
    1a54:	52800000 	mov	w0, #0x0                   	// #0
    1a58:	d65f03c0 	ret

0000000000001a5c <TEE_SetInstanceData>:
TEE_SetInstanceData():
/home/lagadanu/Desktop/qemu/optee_os/lib/libutee/tee_api.c:204
    1a5c:	d0000081 	adrp	x1, 13000 <ta_heap+0x7ee8>
    1a60:	f9008c20 	str	x0, [x1,#280]
    1a64:	d65f03c0 	ret

0000000000001a68 <TEE_GetInstanceData>:
TEE_GetInstanceData():
/home/lagadanu/Desktop/qemu/optee_os/lib/libutee/tee_api.c:210
    1a68:	d0000080 	adrp	x0, 13000 <ta_heap+0x7ee8>
    1a6c:	f9408c00 	ldr	x0, [x0,#280]
    1a70:	d65f03c0 	ret

0000000000001a74 <TEE_MemMove>:
TEE_MemMove():
/home/lagadanu/Desktop/qemu/optee_os/lib/libutee/tee_api.c:214
    1a74:	2a0203e2 	mov	w2, w2
    1a78:	14001a41 	b	837c <memmove>

0000000000001a7c <TEE_MemCompare>:
TEE_MemCompare():
/home/lagadanu/Desktop/qemu/optee_os/lib/libutee/tee_api.c:219
    1a7c:	2a0203e2 	mov	w2, w2
    1a80:	14001a32 	b	8348 <memcmp>

0000000000001a84 <TEE_MemFill>:
TEE_MemFill():
/home/lagadanu/Desktop/qemu/optee_os/lib/libutee/tee_api.c:224
    1a84:	2a0203e2 	mov	w2, w2
    1a88:	14001a50 	b	83c8 <memset>

0000000000001a8c <TEE_GetSystemTime>:
TEE_GetSystemTime():
/home/lagadanu/Desktop/qemu/optee_os/lib/libutee/tee_api.c:230
    1a8c:	a9bf7bfd 	stp	x29, x30, [sp,#-16]!
/home/lagadanu/Desktop/qemu/optee_os/lib/libutee/tee_api.c:231
    1a90:	aa0003e1 	mov	x1, x0
    1a94:	d2800000 	mov	x0, #0x0                   	// #0
/home/lagadanu/Desktop/qemu/optee_os/lib/libutee/tee_api.c:230
    1a98:	910003fd 	mov	x29, sp
/home/lagadanu/Desktop/qemu/optee_os/lib/libutee/tee_api.c:231
    1a9c:	94000479 	bl	2c80 <utee_get_time>
/home/lagadanu/Desktop/qemu/optee_os/lib/libutee/tee_api.c:233
    1aa0:	34000060 	cbz	w0, 1aac <TEE_GetSystemTime+0x20>
/home/lagadanu/Desktop/qemu/optee_os/lib/libutee/tee_api.c:235
    1aa4:	a8c17bfd 	ldp	x29, x30, [sp],#16
/home/lagadanu/Desktop/qemu/optee_os/lib/libutee/tee_api.c:234
    1aa8:	14000399 	b	290c <TEE_Panic>
/home/lagadanu/Desktop/qemu/optee_os/lib/libutee/tee_api.c:235
    1aac:	a8c17bfd 	ldp	x29, x30, [sp],#16
    1ab0:	d65f03c0 	ret

0000000000001ab4 <TEE_Wait>:
TEE_Wait():
/home/lagadanu/Desktop/qemu/optee_os/lib/libutee/tee_api.c:238
    1ab4:	a9be7bfd 	stp	x29, x30, [sp,#-32]!
/home/lagadanu/Desktop/qemu/optee_os/lib/libutee/tee_api.c:239
    1ab8:	2a0003e0 	mov	w0, w0
/home/lagadanu/Desktop/qemu/optee_os/lib/libutee/tee_api.c:238
    1abc:	910003fd 	mov	x29, sp
    1ac0:	f9000bf3 	str	x19, [sp,#16]
/home/lagadanu/Desktop/qemu/optee_os/lib/libutee/tee_api.c:239
    1ac4:	9400046c 	bl	2c74 <utee_wait>
/home/lagadanu/Desktop/qemu/optee_os/lib/libutee/tee_api.c:241
    1ac8:	7100001f 	cmp	w0, #0x0
    1acc:	129fffa1 	mov	w1, #0xffff0002            	// #-65534
/home/lagadanu/Desktop/qemu/optee_os/lib/libutee/tee_api.c:239
    1ad0:	2a0003f3 	mov	w19, w0
/home/lagadanu/Desktop/qemu/optee_os/lib/libutee/tee_api.c:241
    1ad4:	7a411004 	ccmp	w0, w1, #0x4, ne
    1ad8:	54000040 	b.eq	1ae0 <TEE_Wait+0x2c>
/home/lagadanu/Desktop/qemu/optee_os/lib/libutee/tee_api.c:242
    1adc:	9400038c 	bl	290c <TEE_Panic>
/home/lagadanu/Desktop/qemu/optee_os/lib/libutee/tee_api.c:245
    1ae0:	2a1303e0 	mov	w0, w19
    1ae4:	f9400bf3 	ldr	x19, [sp,#16]
    1ae8:	a8c27bfd 	ldp	x29, x30, [sp],#32
    1aec:	d65f03c0 	ret

0000000000001af0 <TEE_GetTAPersistentTime>:
TEE_GetTAPersistentTime():
/home/lagadanu/Desktop/qemu/optee_os/lib/libutee/tee_api.c:248
    1af0:	a9be7bfd 	stp	x29, x30, [sp,#-32]!
/home/lagadanu/Desktop/qemu/optee_os/lib/libutee/tee_api.c:251
    1af4:	aa0003e1 	mov	x1, x0
/home/lagadanu/Desktop/qemu/optee_os/lib/libutee/tee_api.c:248
    1af8:	910003fd 	mov	x29, sp
    1afc:	a90153f3 	stp	x19, x20, [sp,#16]
    1b00:	aa0003f4 	mov	x20, x0
/home/lagadanu/Desktop/qemu/optee_os/lib/libutee/tee_api.c:251
    1b04:	d2800020 	mov	x0, #0x1                   	// #1
    1b08:	9400045e 	bl	2c80 <utee_get_time>
/home/lagadanu/Desktop/qemu/optee_os/lib/libutee/tee_api.c:253
    1b0c:	7100001f 	cmp	w0, #0x0
/home/lagadanu/Desktop/qemu/optee_os/lib/libutee/tee_api.c:251
    1b10:	2a0003f3 	mov	w19, w0
/home/lagadanu/Desktop/qemu/optee_os/lib/libutee/tee_api.c:253
    1b14:	1a9f07e1 	cset	w1, ne
    1b18:	1299fe00 	mov	w0, #0xffff300f            	// #-53233
    1b1c:	6b00027f 	cmp	w19, w0
    1b20:	1a9f07e0 	cset	w0, ne
    1b24:	6a00003f 	tst	w1, w0
    1b28:	54000040 	b.eq	1b30 <TEE_GetTAPersistentTime+0x40>
/home/lagadanu/Desktop/qemu/optee_os/lib/libutee/tee_api.c:255
    1b2c:	29007e9f 	stp	wzr, wzr, [x20]
/home/lagadanu/Desktop/qemu/optee_os/lib/libutee/tee_api.c:259
    1b30:	11402e62 	add	w2, w19, #0xb, lsl #12
    1b34:	7100045f 	cmp	w2, #0x1
    1b38:	1a9f97e2 	cset	w2, hi
/home/lagadanu/Desktop/qemu/optee_os/lib/libutee/tee_api.c:258
    1b3c:	6a02003f 	tst	w1, w2
    1b40:	54000100 	b.eq	1b60 <TEE_GetTAPersistentTime+0x70>
/home/lagadanu/Desktop/qemu/optee_os/lib/libutee/tee_api.c:261
    1b44:	129ffe61 	mov	w1, #0xffff000c            	// #-65524
    1b48:	6b01027f 	cmp	w19, w1
    1b4c:	1a9f07e1 	cset	w1, ne
    1b50:	6a01001f 	tst	w0, w1
    1b54:	54000060 	b.eq	1b60 <TEE_GetTAPersistentTime+0x70>
/home/lagadanu/Desktop/qemu/optee_os/lib/libutee/tee_api.c:263
    1b58:	2a1303e0 	mov	w0, w19
    1b5c:	9400036c 	bl	290c <TEE_Panic>
/home/lagadanu/Desktop/qemu/optee_os/lib/libutee/tee_api.c:266
    1b60:	2a1303e0 	mov	w0, w19
    1b64:	a94153f3 	ldp	x19, x20, [sp,#16]
    1b68:	a8c27bfd 	ldp	x29, x30, [sp],#32
    1b6c:	d65f03c0 	ret

0000000000001b70 <TEE_SetTAPersistentTime>:
TEE_SetTAPersistentTime():
/home/lagadanu/Desktop/qemu/optee_os/lib/libutee/tee_api.c:269
    1b70:	a9be7bfd 	stp	x29, x30, [sp,#-32]!
    1b74:	910003fd 	mov	x29, sp
    1b78:	f9000bf3 	str	x19, [sp,#16]
/home/lagadanu/Desktop/qemu/optee_os/lib/libutee/tee_api.c:272
    1b7c:	94000444 	bl	2c8c <utee_set_ta_time>
/home/lagadanu/Desktop/qemu/optee_os/lib/libutee/tee_api.c:275
    1b80:	7100001f 	cmp	w0, #0x0
    1b84:	129ffe61 	mov	w1, #0xffff000c            	// #-65524
    1b88:	7a411004 	ccmp	w0, w1, #0x4, ne
/home/lagadanu/Desktop/qemu/optee_os/lib/libutee/tee_api.c:272
    1b8c:	2a0003f3 	mov	w19, w0
/home/lagadanu/Desktop/qemu/optee_os/lib/libutee/tee_api.c:275
    1b90:	1299f7c1 	mov	w1, #0xffff3041            	// #-53183
    1b94:	7a411004 	ccmp	w0, w1, #0x4, ne
    1b98:	54000040 	b.eq	1ba0 <TEE_SetTAPersistentTime+0x30>
/home/lagadanu/Desktop/qemu/optee_os/lib/libutee/tee_api.c:277
    1b9c:	9400035c 	bl	290c <TEE_Panic>
/home/lagadanu/Desktop/qemu/optee_os/lib/libutee/tee_api.c:280
    1ba0:	2a1303e0 	mov	w0, w19
    1ba4:	f9400bf3 	ldr	x19, [sp,#16]
    1ba8:	a8c27bfd 	ldp	x29, x30, [sp],#32
    1bac:	d65f03c0 	ret

0000000000001bb0 <TEE_GetREETime>:
TEE_GetREETime():
/home/lagadanu/Desktop/qemu/optee_os/lib/libutee/tee_api.c:283
    1bb0:	a9bf7bfd 	stp	x29, x30, [sp,#-16]!
/home/lagadanu/Desktop/qemu/optee_os/lib/libutee/tee_api.c:284
    1bb4:	aa0003e1 	mov	x1, x0
    1bb8:	d2800040 	mov	x0, #0x2                   	// #2
/home/lagadanu/Desktop/qemu/optee_os/lib/libutee/tee_api.c:283
    1bbc:	910003fd 	mov	x29, sp
/home/lagadanu/Desktop/qemu/optee_os/lib/libutee/tee_api.c:284
    1bc0:	94000430 	bl	2c80 <utee_get_time>
/home/lagadanu/Desktop/qemu/optee_os/lib/libutee/tee_api.c:286
    1bc4:	34000060 	cbz	w0, 1bd0 <TEE_GetREETime+0x20>
/home/lagadanu/Desktop/qemu/optee_os/lib/libutee/tee_api.c:288
    1bc8:	a8c17bfd 	ldp	x29, x30, [sp],#16
/home/lagadanu/Desktop/qemu/optee_os/lib/libutee/tee_api.c:287
    1bcc:	14000350 	b	290c <TEE_Panic>
/home/lagadanu/Desktop/qemu/optee_os/lib/libutee/tee_api.c:288
    1bd0:	a8c17bfd 	ldp	x29, x30, [sp],#16
    1bd4:	d65f03c0 	ret

0000000000001bd8 <TEE_Malloc>:
TEE_Malloc():
/home/lagadanu/Desktop/qemu/optee_os/lib/libutee/tee_api.c:292
    1bd8:	35000081 	cbnz	w1, 1be8 <TEE_Malloc+0x10>
/home/lagadanu/Desktop/qemu/optee_os/lib/libutee/tee_api.c:293
    1bdc:	2a0003e1 	mov	w1, w0
    1be0:	d2800020 	mov	x0, #0x1                   	// #1
    1be4:	140017c2 	b	7aec <calloc>
/home/lagadanu/Desktop/qemu/optee_os/lib/libutee/tee_api.c:294
    1be8:	52b00002 	mov	w2, #0x80000000            	// #-2147483648
    1bec:	6b02003f 	cmp	w1, w2
    1bf0:	54000061 	b.ne	1bfc <TEE_Malloc+0x24>
/home/lagadanu/Desktop/qemu/optee_os/lib/libutee/tee_api.c:295
    1bf4:	2a0003e0 	mov	w0, w0
    1bf8:	140017b7 	b	7ad4 <malloc>
/home/lagadanu/Desktop/qemu/optee_os/lib/libutee/tee_api.c:291
    1bfc:	a9bf7bfd 	stp	x29, x30, [sp,#-16]!
    1c00:	2a0103e5 	mov	w5, w1
/home/lagadanu/Desktop/qemu/optee_os/lib/libutee/tee_api.c:297
    1c04:	52800023 	mov	w3, #0x1                   	// #1
    1c08:	52800022 	mov	w2, #0x1                   	// #1
/home/lagadanu/Desktop/qemu/optee_os/lib/libutee/tee_api.c:291
    1c0c:	910003fd 	mov	x29, sp
/home/lagadanu/Desktop/qemu/optee_os/lib/libutee/tee_api.c:297
    1c10:	52802521 	mov	w1, #0x129                 	// #297
    1c14:	90000044 	adrp	x4, 9000 <PRIME_TABLE+0x960>
    1c18:	f0000020 	adrp	x0, 8000 <malloc_add_pool+0xa0>
    1c1c:	911e2884 	add	x4, x4, #0x78a
    1c20:	91198000 	add	x0, x0, #0x660
    1c24:	97fffaaf 	bl	6e0 <trace_printf>
/home/lagadanu/Desktop/qemu/optee_os/lib/libutee/tee_api.c:300
    1c28:	d2800000 	mov	x0, #0x0                   	// #0
    1c2c:	a8c17bfd 	ldp	x29, x30, [sp],#16
    1c30:	d65f03c0 	ret

0000000000001c34 <TEE_Realloc>:
TEE_Realloc():
/home/lagadanu/Desktop/qemu/optee_os/lib/libutee/tee_api.c:304
    1c34:	2a0103e1 	mov	w1, w1
    1c38:	140017c9 	b	7b5c <realloc>

0000000000001c3c <TEE_Free>:
TEE_Free():
/home/lagadanu/Desktop/qemu/optee_os/lib/libutee/tee_api.c:309
    1c3c:	140017a7 	b	7ad8 <free>

0000000000001c40 <TEE_CacheClean>:
TEE_CacheClean():
/home/lagadanu/Desktop/qemu/optee_os/lib/libutee/tee_api.c:315
    1c40:	d2800002 	mov	x2, #0x0                   	// #0
    1c44:	140004ba 	b	2f2c <utee_cache_operation>

0000000000001c48 <TEE_CacheFlush>:
TEE_CacheFlush():
/home/lagadanu/Desktop/qemu/optee_os/lib/libutee/tee_api.c:319
    1c48:	d2800022 	mov	x2, #0x1                   	// #1
    1c4c:	140004b8 	b	2f2c <utee_cache_operation>

0000000000001c50 <TEE_CacheInvalidate>:
TEE_CacheInvalidate():
/home/lagadanu/Desktop/qemu/optee_os/lib/libutee/tee_api.c:324
    1c50:	d2800042 	mov	x2, #0x2                   	// #2
    1c54:	140004b6 	b	2f2c <utee_cache_operation>

0000000000001c58 <__utee_from_attr>:
__utee_from_attr():
/home/lagadanu/Desktop/qemu/optee_os/lib/libutee/tee_api_objects.c:19
    1c58:	52800303 	mov	w3, #0x18                  	// #24
    1c5c:	9ba30442 	umaddl	x2, w2, w3, x1
/home/lagadanu/Desktop/qemu/optee_os/lib/libutee/tee_api_objects.c:22 (discriminator 1)
    1c60:	eb02003f 	cmp	x1, x2
    1c64:	54000041 	b.ne	1c6c <__utee_from_attr+0x14>
/home/lagadanu/Desktop/qemu/optee_os/lib/libutee/tee_api_objects.c:32
    1c68:	d65f03c0 	ret
/home/lagadanu/Desktop/qemu/optee_os/lib/libutee/tee_api_objects.c:23
    1c6c:	b9400023 	ldr	w3, [x1]
    1c70:	b9001003 	str	w3, [x0,#16]
/home/lagadanu/Desktop/qemu/optee_os/lib/libutee/tee_api_objects.c:24
    1c74:	36e80103 	tbz	w3, #29, 1c94 <__utee_from_attr+0x3c>
/home/lagadanu/Desktop/qemu/optee_os/lib/libutee/tee_api_objects.c:25
    1c78:	b9400823 	ldr	w3, [x1,#8]
    1c7c:	f9000003 	str	x3, [x0]
/home/lagadanu/Desktop/qemu/optee_os/lib/libutee/tee_api_objects.c:26
    1c80:	b9400c23 	ldr	w3, [x1,#12]
/home/lagadanu/Desktop/qemu/optee_os/lib/libutee/tee_api_objects.c:29
    1c84:	f9000403 	str	x3, [x0,#8]
    1c88:	91006021 	add	x1, x1, #0x18
    1c8c:	91006000 	add	x0, x0, #0x18
    1c90:	17fffff4 	b	1c60 <__utee_from_attr+0x8>
/home/lagadanu/Desktop/qemu/optee_os/lib/libutee/tee_api_objects.c:28
    1c94:	f9400423 	ldr	x3, [x1,#8]
    1c98:	f9000003 	str	x3, [x0]
/home/lagadanu/Desktop/qemu/optee_os/lib/libutee/tee_api_objects.c:29
    1c9c:	b9401023 	ldr	w3, [x1,#16]
    1ca0:	17fffff9 	b	1c84 <__utee_from_attr+0x2c>

0000000000001ca4 <TEE_GetObjectInfo>:
TEE_GetObjectInfo():
/home/lagadanu/Desktop/qemu/optee_os/lib/libutee/tee_api_objects.c:42
    1ca4:	a9be7bfd 	stp	x29, x30, [sp,#-32]!
    1ca8:	910003fd 	mov	x29, sp
    1cac:	f9000bf3 	str	x19, [sp,#16]
    1cb0:	aa0103f3 	mov	x19, x1
/home/lagadanu/Desktop/qemu/optee_os/lib/libutee/tee_api_objects.c:45
    1cb4:	94000414 	bl	2d04 <utee_cryp_obj_get_info>
/home/lagadanu/Desktop/qemu/optee_os/lib/libutee/tee_api_objects.c:47
    1cb8:	34000040 	cbz	w0, 1cc0 <TEE_GetObjectInfo+0x1c>
/home/lagadanu/Desktop/qemu/optee_os/lib/libutee/tee_api_objects.c:48
    1cbc:	94000314 	bl	290c <TEE_Panic>
/home/lagadanu/Desktop/qemu/optee_os/lib/libutee/tee_api_objects.c:50
    1cc0:	b9400261 	ldr	w1, [x19]
    1cc4:	528017c0 	mov	w0, #0xbe                  	// #190
    1cc8:	72b40000 	movk	w0, #0xa000, lsl #16
    1ccc:	6b00003f 	cmp	w1, w0
    1cd0:	54000081 	b.ne	1ce0 <TEE_GetObjectInfo+0x3c>
/home/lagadanu/Desktop/qemu/optee_os/lib/libutee/tee_api_objects.c:52
    1cd4:	2900fe7f 	stp	wzr, wzr, [x19,#4]
/home/lagadanu/Desktop/qemu/optee_os/lib/libutee/tee_api_objects.c:54
    1cd8:	2901fe7f 	stp	wzr, wzr, [x19,#12]
/home/lagadanu/Desktop/qemu/optee_os/lib/libutee/tee_api_objects.c:56
    1cdc:	2902fe7f 	stp	wzr, wzr, [x19,#20]
/home/lagadanu/Desktop/qemu/optee_os/lib/libutee/tee_api_objects.c:58
    1ce0:	f9400bf3 	ldr	x19, [sp,#16]
    1ce4:	a8c27bfd 	ldp	x29, x30, [sp],#32
    1ce8:	d65f03c0 	ret

0000000000001cec <TEE_GetObjectInfo1>:
TEE_GetObjectInfo1():
/home/lagadanu/Desktop/qemu/optee_os/lib/libutee/tee_api_objects.c:61
    1cec:	a9be7bfd 	stp	x29, x30, [sp,#-32]!
    1cf0:	910003fd 	mov	x29, sp
    1cf4:	f9000bf3 	str	x19, [sp,#16]
/home/lagadanu/Desktop/qemu/optee_os/lib/libutee/tee_api_objects.c:64
    1cf8:	94000403 	bl	2d04 <utee_cryp_obj_get_info>
/home/lagadanu/Desktop/qemu/optee_os/lib/libutee/tee_api_objects.c:67
    1cfc:	52800021 	mov	w1, #0x1                   	// #1
    1d00:	121e7802 	and	w2, w0, #0xfffffffd
    1d04:	7100001f 	cmp	w0, #0x0
    1d08:	72be0201 	movk	w1, #0xf010, lsl #16
/home/lagadanu/Desktop/qemu/optee_os/lib/libutee/tee_api_objects.c:64
    1d0c:	2a0003f3 	mov	w19, w0
/home/lagadanu/Desktop/qemu/optee_os/lib/libutee/tee_api_objects.c:67
    1d10:	7a411044 	ccmp	w2, w1, #0x4, ne
    1d14:	54000040 	b.eq	1d1c <TEE_GetObjectInfo1+0x30>
/home/lagadanu/Desktop/qemu/optee_os/lib/libutee/tee_api_objects.c:69
    1d18:	940002fd 	bl	290c <TEE_Panic>
/home/lagadanu/Desktop/qemu/optee_os/lib/libutee/tee_api_objects.c:72
    1d1c:	2a1303e0 	mov	w0, w19
    1d20:	f9400bf3 	ldr	x19, [sp,#16]
    1d24:	a8c27bfd 	ldp	x29, x30, [sp],#32
    1d28:	d65f03c0 	ret

0000000000001d2c <TEE_RestrictObjectUsage1>:
TEE_RestrictObjectUsage1():
/home/lagadanu/Desktop/qemu/optee_os/lib/libutee/tee_api_objects.c:96
    1d2c:	a9be7bfd 	stp	x29, x30, [sp,#-32]!
/home/lagadanu/Desktop/qemu/optee_os/lib/libutee/tee_api_objects.c:99
    1d30:	2a0103e1 	mov	w1, w1
/home/lagadanu/Desktop/qemu/optee_os/lib/libutee/tee_api_objects.c:96
    1d34:	910003fd 	mov	x29, sp
    1d38:	f9000bf3 	str	x19, [sp,#16]
/home/lagadanu/Desktop/qemu/optee_os/lib/libutee/tee_api_objects.c:99
    1d3c:	940003f5 	bl	2d10 <utee_cryp_obj_restrict_usage>
/home/lagadanu/Desktop/qemu/optee_os/lib/libutee/tee_api_objects.c:102
    1d40:	52800021 	mov	w1, #0x1                   	// #1
    1d44:	121e7802 	and	w2, w0, #0xfffffffd
    1d48:	7100001f 	cmp	w0, #0x0
    1d4c:	72be0201 	movk	w1, #0xf010, lsl #16
/home/lagadanu/Desktop/qemu/optee_os/lib/libutee/tee_api_objects.c:99
    1d50:	2a0003f3 	mov	w19, w0
/home/lagadanu/Desktop/qemu/optee_os/lib/libutee/tee_api_objects.c:102
    1d54:	7a411044 	ccmp	w2, w1, #0x4, ne
    1d58:	54000040 	b.eq	1d60 <TEE_RestrictObjectUsage1+0x34>
/home/lagadanu/Desktop/qemu/optee_os/lib/libutee/tee_api_objects.c:104
    1d5c:	940002ec 	bl	290c <TEE_Panic>
/home/lagadanu/Desktop/qemu/optee_os/lib/libutee/tee_api_objects.c:107
    1d60:	2a1303e0 	mov	w0, w19
    1d64:	f9400bf3 	ldr	x19, [sp,#16]
    1d68:	a8c27bfd 	ldp	x29, x30, [sp],#32
    1d6c:	d65f03c0 	ret

0000000000001d70 <TEE_RestrictObjectUsage>:
TEE_RestrictObjectUsage():
/home/lagadanu/Desktop/qemu/optee_os/lib/libutee/tee_api_objects.c:81
    1d70:	a9bc7bfd 	stp	x29, x30, [sp,#-64]!
    1d74:	910003fd 	mov	x29, sp
    1d78:	a90153f3 	stp	x19, x20, [sp,#16]
    1d7c:	aa0003f3 	mov	x19, x0
    1d80:	2a0103f4 	mov	w20, w1
/home/lagadanu/Desktop/qemu/optee_os/lib/libutee/tee_api_objects.c:85
    1d84:	910083a1 	add	x1, x29, #0x20
    1d88:	940003df 	bl	2d04 <utee_cryp_obj_get_info>
/home/lagadanu/Desktop/qemu/optee_os/lib/libutee/tee_api_objects.c:86
    1d8c:	b94023a1 	ldr	w1, [x29,#32]
    1d90:	528017c0 	mov	w0, #0xbe                  	// #190
    1d94:	72b40000 	movk	w0, #0xa000, lsl #16
    1d98:	6b00003f 	cmp	w1, w0
    1d9c:	540000c0 	b.eq	1db4 <TEE_RestrictObjectUsage+0x44>
/home/lagadanu/Desktop/qemu/optee_os/lib/libutee/tee_api_objects.c:89
    1da0:	2a1403e1 	mov	w1, w20
    1da4:	aa1303e0 	mov	x0, x19
    1da8:	97ffffe1 	bl	1d2c <TEE_RestrictObjectUsage1>
/home/lagadanu/Desktop/qemu/optee_os/lib/libutee/tee_api_objects.c:91
    1dac:	34000040 	cbz	w0, 1db4 <TEE_RestrictObjectUsage+0x44>
/home/lagadanu/Desktop/qemu/optee_os/lib/libutee/tee_api_objects.c:92
    1db0:	940002d7 	bl	290c <TEE_Panic>
/home/lagadanu/Desktop/qemu/optee_os/lib/libutee/tee_api_objects.c:93
    1db4:	a94153f3 	ldp	x19, x20, [sp,#16]
    1db8:	a8c47bfd 	ldp	x29, x30, [sp],#64
    1dbc:	d65f03c0 	ret

0000000000001dc0 <TEE_GetObjectBufferAttribute>:
TEE_GetObjectBufferAttribute():
/home/lagadanu/Desktop/qemu/optee_os/lib/libutee/tee_api_objects.c:112
    1dc0:	a9b97bfd 	stp	x29, x30, [sp,#-112]!
    1dc4:	910003fd 	mov	x29, sp
    1dc8:	a90153f3 	stp	x19, x20, [sp,#16]
    1dcc:	aa0303f4 	mov	x20, x3
    1dd0:	a9025bf5 	stp	x21, x22, [sp,#32]
    1dd4:	aa0003f6 	mov	x22, x0
    1dd8:	f9001bf7 	str	x23, [sp,#48]
    1ddc:	2a0103f5 	mov	w21, w1
    1de0:	aa0203f7 	mov	x23, x2
/home/lagadanu/Desktop/qemu/optee_os/lib/libutee/tee_api_objects.c:117
    1de4:	910143a1 	add	x1, x29, #0x50
    1de8:	940003c7 	bl	2d04 <utee_cryp_obj_get_info>
    1dec:	2a0003f3 	mov	w19, w0
/home/lagadanu/Desktop/qemu/optee_os/lib/libutee/tee_api_objects.c:118
    1df0:	350001a0 	cbnz	w0, 1e24 <TEE_GetObjectBufferAttribute+0x64>
/home/lagadanu/Desktop/qemu/optee_os/lib/libutee/tee_api_objects.c:123
    1df4:	129fff33 	mov	w19, #0xffff0006            	// #-65530
/home/lagadanu/Desktop/qemu/optee_os/lib/libutee/tee_api_objects.c:122
    1df8:	37e80175 	tbnz	w21, #29, 1e24 <TEE_GetObjectBufferAttribute+0x64>
/home/lagadanu/Desktop/qemu/optee_os/lib/libutee/tee_api_objects.c:127
    1dfc:	9101c3a3 	add	x3, x29, #0x70
    1e00:	b9400280 	ldr	w0, [x20]
/home/lagadanu/Desktop/qemu/optee_os/lib/libutee/tee_api_objects.c:128
    1e04:	aa1703e2 	mov	x2, x23
    1e08:	2a1503e1 	mov	w1, w21
/home/lagadanu/Desktop/qemu/optee_os/lib/libutee/tee_api_objects.c:127
    1e0c:	f81d8c60 	str	x0, [x3,#-40]!
/home/lagadanu/Desktop/qemu/optee_os/lib/libutee/tee_api_objects.c:128
    1e10:	aa1603e0 	mov	x0, x22
    1e14:	940003c2 	bl	2d1c <utee_cryp_obj_get_attr>
    1e18:	2a0003f3 	mov	w19, w0
/home/lagadanu/Desktop/qemu/optee_os/lib/libutee/tee_api_objects.c:130
    1e1c:	f94027a0 	ldr	x0, [x29,#72]
    1e20:	b9000280 	str	w0, [x20]
/home/lagadanu/Desktop/qemu/optee_os/lib/libutee/tee_api_objects.c:134
    1e24:	529fff00 	mov	w0, #0xfff8                	// #65528
    1e28:	0b000260 	add	w0, w19, w0
/home/lagadanu/Desktop/qemu/optee_os/lib/libutee/tee_api_objects.c:133
    1e2c:	721c781f 	tst	w0, #0xfffffff7
    1e30:	7a401a64 	ccmp	w19, #0x0, #0x4, ne
    1e34:	54000100 	b.eq	1e54 <TEE_GetObjectBufferAttribute+0x94>
/home/lagadanu/Desktop/qemu/optee_os/lib/libutee/tee_api_objects.c:136
    1e38:	121e7a61 	and	w1, w19, #0xfffffffd
    1e3c:	52800020 	mov	w0, #0x1                   	// #1
    1e40:	72be0200 	movk	w0, #0xf010, lsl #16
    1e44:	6b00003f 	cmp	w1, w0
    1e48:	54000060 	b.eq	1e54 <TEE_GetObjectBufferAttribute+0x94>
/home/lagadanu/Desktop/qemu/optee_os/lib/libutee/tee_api_objects.c:138
    1e4c:	2a1303e0 	mov	w0, w19
    1e50:	940002af 	bl	290c <TEE_Panic>
/home/lagadanu/Desktop/qemu/optee_os/lib/libutee/tee_api_objects.c:141
    1e54:	2a1303e0 	mov	w0, w19
    1e58:	f9401bf7 	ldr	x23, [sp,#48]
    1e5c:	a94153f3 	ldp	x19, x20, [sp,#16]
    1e60:	a9425bf5 	ldp	x21, x22, [sp,#32]
    1e64:	a8c77bfd 	ldp	x29, x30, [sp],#112
    1e68:	d65f03c0 	ret

0000000000001e6c <TEE_GetObjectValueAttribute>:
TEE_GetObjectValueAttribute():
/home/lagadanu/Desktop/qemu/optee_os/lib/libutee/tee_api_objects.c:146
    1e6c:	a9b97bfd 	stp	x29, x30, [sp,#-112]!
    1e70:	910003fd 	mov	x29, sp
    1e74:	a9025bf5 	stp	x21, x22, [sp,#32]
    1e78:	2a0103f6 	mov	w22, w1
/home/lagadanu/Desktop/qemu/optee_os/lib/libutee/tee_api_objects.c:150
    1e7c:	d2800101 	mov	x1, #0x8                   	// #8
/home/lagadanu/Desktop/qemu/optee_os/lib/libutee/tee_api_objects.c:146
    1e80:	a90153f3 	stp	x19, x20, [sp,#16]
/home/lagadanu/Desktop/qemu/optee_os/lib/libutee/tee_api_objects.c:150
    1e84:	f90027a1 	str	x1, [x29,#72]
/home/lagadanu/Desktop/qemu/optee_os/lib/libutee/tee_api_objects.c:146
    1e88:	aa0203f5 	mov	x21, x2
    1e8c:	f9001bf7 	str	x23, [sp,#48]
    1e90:	aa0303f4 	mov	x20, x3
/home/lagadanu/Desktop/qemu/optee_os/lib/libutee/tee_api_objects.c:152
    1e94:	910143a1 	add	x1, x29, #0x50
/home/lagadanu/Desktop/qemu/optee_os/lib/libutee/tee_api_objects.c:146
    1e98:	aa0003f7 	mov	x23, x0
/home/lagadanu/Desktop/qemu/optee_os/lib/libutee/tee_api_objects.c:152
    1e9c:	9400039a 	bl	2d04 <utee_cryp_obj_get_info>
    1ea0:	2a0003f3 	mov	w19, w0
/home/lagadanu/Desktop/qemu/optee_os/lib/libutee/tee_api_objects.c:153
    1ea4:	35000120 	cbnz	w0, 1ec8 <TEE_GetObjectValueAttribute+0x5c>
/home/lagadanu/Desktop/qemu/optee_os/lib/libutee/tee_api_objects.c:158
    1ea8:	129fff33 	mov	w19, #0xffff0006            	// #-65530
/home/lagadanu/Desktop/qemu/optee_os/lib/libutee/tee_api_objects.c:157
    1eac:	36e800f6 	tbz	w22, #29, 1ec8 <TEE_GetObjectValueAttribute+0x5c>
/home/lagadanu/Desktop/qemu/optee_os/lib/libutee/tee_api_objects.c:162
    1eb0:	910123a3 	add	x3, x29, #0x48
    1eb4:	910103a2 	add	x2, x29, #0x40
    1eb8:	2a1603e1 	mov	w1, w22
    1ebc:	aa1703e0 	mov	x0, x23
    1ec0:	94000397 	bl	2d1c <utee_cryp_obj_get_attr>
    1ec4:	2a0003f3 	mov	w19, w0
/home/lagadanu/Desktop/qemu/optee_os/lib/libutee/tee_api_objects.c:166
    1ec8:	7100027f 	cmp	w19, #0x0
    1ecc:	129ffee0 	mov	w0, #0xffff0008            	// #-65528
    1ed0:	7a401264 	ccmp	w19, w0, #0x4, ne
    1ed4:	54000100 	b.eq	1ef4 <TEE_GetObjectValueAttribute+0x88>
/home/lagadanu/Desktop/qemu/optee_os/lib/libutee/tee_api_objects.c:168
    1ed8:	121e7a61 	and	w1, w19, #0xfffffffd
    1edc:	52800020 	mov	w0, #0x1                   	// #1
    1ee0:	72be0200 	movk	w0, #0xf010, lsl #16
    1ee4:	6b00003f 	cmp	w1, w0
    1ee8:	54000060 	b.eq	1ef4 <TEE_GetObjectValueAttribute+0x88>
/home/lagadanu/Desktop/qemu/optee_os/lib/libutee/tee_api_objects.c:170
    1eec:	2a1303e0 	mov	w0, w19
    1ef0:	94000287 	bl	290c <TEE_Panic>
/home/lagadanu/Desktop/qemu/optee_os/lib/libutee/tee_api_objects.c:172
    1ef4:	f94027a0 	ldr	x0, [x29,#72]
    1ef8:	f100201f 	cmp	x0, #0x8
    1efc:	54000060 	b.eq	1f08 <TEE_GetObjectValueAttribute+0x9c>
/home/lagadanu/Desktop/qemu/optee_os/lib/libutee/tee_api_objects.c:173
    1f00:	52800000 	mov	w0, #0x0                   	// #0
    1f04:	94000282 	bl	290c <TEE_Panic>
/home/lagadanu/Desktop/qemu/optee_os/lib/libutee/tee_api_objects.c:175
    1f08:	350000f3 	cbnz	w19, 1f24 <TEE_GetObjectValueAttribute+0xb8>
/home/lagadanu/Desktop/qemu/optee_os/lib/libutee/tee_api_objects.c:176
    1f0c:	b4000075 	cbz	x21, 1f18 <TEE_GetObjectValueAttribute+0xac>
/home/lagadanu/Desktop/qemu/optee_os/lib/libutee/tee_api_objects.c:177
    1f10:	b94043a0 	ldr	w0, [x29,#64]
    1f14:	b90002a0 	str	w0, [x21]
/home/lagadanu/Desktop/qemu/optee_os/lib/libutee/tee_api_objects.c:178
    1f18:	b4000074 	cbz	x20, 1f24 <TEE_GetObjectValueAttribute+0xb8>
/home/lagadanu/Desktop/qemu/optee_os/lib/libutee/tee_api_objects.c:179
    1f1c:	b94047a0 	ldr	w0, [x29,#68]
    1f20:	b9000280 	str	w0, [x20]
/home/lagadanu/Desktop/qemu/optee_os/lib/libutee/tee_api_objects.c:183
    1f24:	2a1303e0 	mov	w0, w19
    1f28:	f9401bf7 	ldr	x23, [sp,#48]
    1f2c:	a94153f3 	ldp	x19, x20, [sp,#16]
    1f30:	a9425bf5 	ldp	x21, x22, [sp,#32]
    1f34:	a8c77bfd 	ldp	x29, x30, [sp],#112
    1f38:	d65f03c0 	ret

0000000000001f3c <TEE_CloseObject>:
TEE_CloseObject():
/home/lagadanu/Desktop/qemu/optee_os/lib/libutee/tee_api_objects.c:189
    1f3c:	b4000120 	cbz	x0, 1f60 <TEE_CloseObject+0x24>
/home/lagadanu/Desktop/qemu/optee_os/lib/libutee/tee_api_objects.c:186
    1f40:	a9bf7bfd 	stp	x29, x30, [sp,#-16]!
    1f44:	910003fd 	mov	x29, sp
/home/lagadanu/Desktop/qemu/optee_os/lib/libutee/tee_api_objects.c:192
    1f48:	9400037b 	bl	2d34 <utee_cryp_obj_close>
/home/lagadanu/Desktop/qemu/optee_os/lib/libutee/tee_api_objects.c:193
    1f4c:	34000060 	cbz	w0, 1f58 <TEE_CloseObject+0x1c>
/home/lagadanu/Desktop/qemu/optee_os/lib/libutee/tee_api_objects.c:195
    1f50:	a8c17bfd 	ldp	x29, x30, [sp],#16
/home/lagadanu/Desktop/qemu/optee_os/lib/libutee/tee_api_objects.c:194
    1f54:	1400026e 	b	290c <TEE_Panic>
/home/lagadanu/Desktop/qemu/optee_os/lib/libutee/tee_api_objects.c:195
    1f58:	a8c17bfd 	ldp	x29, x30, [sp],#16
    1f5c:	d65f03c0 	ret
    1f60:	d65f03c0 	ret

0000000000001f64 <TEE_AllocateTransientObject>:
TEE_AllocateTransientObject():
/home/lagadanu/Desktop/qemu/optee_os/lib/libutee/tee_api_objects.c:202
    1f64:	a9bd7bfd 	stp	x29, x30, [sp,#-48]!
/home/lagadanu/Desktop/qemu/optee_os/lib/libutee/tee_api_objects.c:206
    1f68:	2a0103e1 	mov	w1, w1
    1f6c:	2a0003e0 	mov	w0, w0
/home/lagadanu/Desktop/qemu/optee_os/lib/libutee/tee_api_objects.c:202
    1f70:	910003fd 	mov	x29, sp
    1f74:	a90153f3 	stp	x19, x20, [sp,#16]
    1f78:	aa0203f4 	mov	x20, x2
/home/lagadanu/Desktop/qemu/optee_os/lib/libutee/tee_api_objects.c:206
    1f7c:	9100b3a2 	add	x2, x29, #0x2c
    1f80:	9400036a 	bl	2d28 <utee_cryp_obj_alloc>
/home/lagadanu/Desktop/qemu/optee_os/lib/libutee/tee_api_objects.c:208
    1f84:	7100001f 	cmp	w0, #0x0
    1f88:	129ffe61 	mov	w1, #0xffff000c            	// #-65524
/home/lagadanu/Desktop/qemu/optee_os/lib/libutee/tee_api_objects.c:206
    1f8c:	2a0003f3 	mov	w19, w0
/home/lagadanu/Desktop/qemu/optee_os/lib/libutee/tee_api_objects.c:208
    1f90:	7a411004 	ccmp	w0, w1, #0x4, ne
    1f94:	54000120 	b.eq	1fb8 <TEE_AllocateTransientObject+0x54>
/home/lagadanu/Desktop/qemu/optee_os/lib/libutee/tee_api_objects.c:209
    1f98:	129ffea1 	mov	w1, #0xffff000a            	// #-65526
    1f9c:	6b01001f 	cmp	w0, w1
    1fa0:	54000040 	b.eq	1fa8 <TEE_AllocateTransientObject+0x44>
/home/lagadanu/Desktop/qemu/optee_os/lib/libutee/tee_api_objects.c:211
    1fa4:	9400025a 	bl	290c <TEE_Panic>
/home/lagadanu/Desktop/qemu/optee_os/lib/libutee/tee_api_objects.c:217
    1fa8:	2a1303e0 	mov	w0, w19
    1fac:	a94153f3 	ldp	x19, x20, [sp,#16]
    1fb0:	a8c37bfd 	ldp	x29, x30, [sp],#48
    1fb4:	d65f03c0 	ret
/home/lagadanu/Desktop/qemu/optee_os/lib/libutee/tee_api_objects.c:213
    1fb8:	35ffff80 	cbnz	w0, 1fa8 <TEE_AllocateTransientObject+0x44>
/home/lagadanu/Desktop/qemu/optee_os/lib/libutee/tee_api_objects.c:214
    1fbc:	b9402fa0 	ldr	w0, [x29,#44]
    1fc0:	f9000280 	str	x0, [x20]
/home/lagadanu/Desktop/qemu/optee_os/lib/libutee/tee_api_objects.c:216
    1fc4:	17fffff9 	b	1fa8 <TEE_AllocateTransientObject+0x44>

0000000000001fc8 <TEE_FreeTransientObject>:
TEE_FreeTransientObject():
/home/lagadanu/Desktop/qemu/optee_os/lib/libutee/tee_api_objects.c:224
    1fc8:	b4000280 	cbz	x0, 2018 <TEE_FreeTransientObject+0x50>
/home/lagadanu/Desktop/qemu/optee_os/lib/libutee/tee_api_objects.c:220
    1fcc:	a9bc7bfd 	stp	x29, x30, [sp,#-64]!
    1fd0:	910003fd 	mov	x29, sp
    1fd4:	f9000bf3 	str	x19, [sp,#16]
/home/lagadanu/Desktop/qemu/optee_os/lib/libutee/tee_api_objects.c:227
    1fd8:	910083a1 	add	x1, x29, #0x20
    1fdc:	aa0003f3 	mov	x19, x0
    1fe0:	94000349 	bl	2d04 <utee_cryp_obj_get_info>
/home/lagadanu/Desktop/qemu/optee_os/lib/libutee/tee_api_objects.c:228
    1fe4:	34000040 	cbz	w0, 1fec <TEE_FreeTransientObject+0x24>
/home/lagadanu/Desktop/qemu/optee_os/lib/libutee/tee_api_objects.c:229
    1fe8:	94000249 	bl	290c <TEE_Panic>
/home/lagadanu/Desktop/qemu/optee_os/lib/libutee/tee_api_objects.c:231
    1fec:	b9403ba0 	ldr	w0, [x29,#56]
    1ff0:	36800060 	tbz	w0, #16, 1ffc <TEE_FreeTransientObject+0x34>
/home/lagadanu/Desktop/qemu/optee_os/lib/libutee/tee_api_objects.c:232
    1ff4:	52800000 	mov	w0, #0x0                   	// #0
    1ff8:	94000245 	bl	290c <TEE_Panic>
/home/lagadanu/Desktop/qemu/optee_os/lib/libutee/tee_api_objects.c:234
    1ffc:	aa1303e0 	mov	x0, x19
    2000:	9400034d 	bl	2d34 <utee_cryp_obj_close>
/home/lagadanu/Desktop/qemu/optee_os/lib/libutee/tee_api_objects.c:235
    2004:	34000040 	cbz	w0, 200c <TEE_FreeTransientObject+0x44>
/home/lagadanu/Desktop/qemu/optee_os/lib/libutee/tee_api_objects.c:236
    2008:	94000241 	bl	290c <TEE_Panic>
/home/lagadanu/Desktop/qemu/optee_os/lib/libutee/tee_api_objects.c:237
    200c:	f9400bf3 	ldr	x19, [sp,#16]
    2010:	a8c47bfd 	ldp	x29, x30, [sp],#64
    2014:	d65f03c0 	ret
    2018:	d65f03c0 	ret

000000000000201c <TEE_ResetTransientObject>:
TEE_ResetTransientObject():
/home/lagadanu/Desktop/qemu/optee_os/lib/libutee/tee_api_objects.c:244
    201c:	b4000280 	cbz	x0, 206c <TEE_ResetTransientObject+0x50>
/home/lagadanu/Desktop/qemu/optee_os/lib/libutee/tee_api_objects.c:240
    2020:	a9bc7bfd 	stp	x29, x30, [sp,#-64]!
    2024:	910003fd 	mov	x29, sp
    2028:	f9000bf3 	str	x19, [sp,#16]
/home/lagadanu/Desktop/qemu/optee_os/lib/libutee/tee_api_objects.c:247
    202c:	910083a1 	add	x1, x29, #0x20
    2030:	aa0003f3 	mov	x19, x0
    2034:	94000334 	bl	2d04 <utee_cryp_obj_get_info>
/home/lagadanu/Desktop/qemu/optee_os/lib/libutee/tee_api_objects.c:248
    2038:	34000040 	cbz	w0, 2040 <TEE_ResetTransientObject+0x24>
/home/lagadanu/Desktop/qemu/optee_os/lib/libutee/tee_api_objects.c:249
    203c:	94000234 	bl	290c <TEE_Panic>
/home/lagadanu/Desktop/qemu/optee_os/lib/libutee/tee_api_objects.c:251
    2040:	b9403ba0 	ldr	w0, [x29,#56]
    2044:	36800060 	tbz	w0, #16, 2050 <TEE_ResetTransientObject+0x34>
/home/lagadanu/Desktop/qemu/optee_os/lib/libutee/tee_api_objects.c:252
    2048:	52800000 	mov	w0, #0x0                   	// #0
    204c:	94000230 	bl	290c <TEE_Panic>
/home/lagadanu/Desktop/qemu/optee_os/lib/libutee/tee_api_objects.c:254
    2050:	aa1303e0 	mov	x0, x19
    2054:	9400033b 	bl	2d40 <utee_cryp_obj_reset>
/home/lagadanu/Desktop/qemu/optee_os/lib/libutee/tee_api_objects.c:255
    2058:	34000040 	cbz	w0, 2060 <TEE_ResetTransientObject+0x44>
/home/lagadanu/Desktop/qemu/optee_os/lib/libutee/tee_api_objects.c:256
    205c:	9400022c 	bl	290c <TEE_Panic>
/home/lagadanu/Desktop/qemu/optee_os/lib/libutee/tee_api_objects.c:257
    2060:	f9400bf3 	ldr	x19, [sp,#16]
    2064:	a8c47bfd 	ldp	x29, x30, [sp],#64
    2068:	d65f03c0 	ret
    206c:	d65f03c0 	ret

0000000000002070 <TEE_PopulateTransientObject>:
TEE_PopulateTransientObject():
/home/lagadanu/Desktop/qemu/optee_os/lib/libutee/tee_api_objects.c:262
    2070:	a9ba7bfd 	stp	x29, x30, [sp,#-96]!
    2074:	910003fd 	mov	x29, sp
    2078:	a9025bf5 	stp	x21, x22, [sp,#32]
    207c:	2a0203f6 	mov	w22, w2
    2080:	f9001bf7 	str	x23, [sp,#48]
    2084:	aa0103f7 	mov	x23, x1
/home/lagadanu/Desktop/qemu/optee_os/lib/libutee/tee_api_objects.c:265
    2088:	52800301 	mov	w1, #0x18                  	// #24
/home/lagadanu/Desktop/qemu/optee_os/lib/libutee/tee_api_objects.c:262
    208c:	a90153f3 	stp	x19, x20, [sp,#16]
    2090:	aa0003f5 	mov	x21, x0
    2094:	aa1603f3 	mov	x19, x22
/home/lagadanu/Desktop/qemu/optee_os/lib/libutee/tee_api_objects.c:265
    2098:	9ba17ec1 	umull	x1, w22, w1
    209c:	91005821 	add	x1, x1, #0x16
    20a0:	927c8421 	and	x1, x1, #0x3ffffffff0
    20a4:	cb2163ff 	sub	sp, sp, x1
/home/lagadanu/Desktop/qemu/optee_os/lib/libutee/tee_api_objects.c:267
    20a8:	910103a1 	add	x1, x29, #0x40
/home/lagadanu/Desktop/qemu/optee_os/lib/libutee/tee_api_objects.c:265
    20ac:	910003f4 	mov	x20, sp
/home/lagadanu/Desktop/qemu/optee_os/lib/libutee/tee_api_objects.c:267
    20b0:	94000315 	bl	2d04 <utee_cryp_obj_get_info>
/home/lagadanu/Desktop/qemu/optee_os/lib/libutee/tee_api_objects.c:268
    20b4:	34000040 	cbz	w0, 20bc <TEE_PopulateTransientObject+0x4c>
/home/lagadanu/Desktop/qemu/optee_os/lib/libutee/tee_api_objects.c:269
    20b8:	94000215 	bl	290c <TEE_Panic>
/home/lagadanu/Desktop/qemu/optee_os/lib/libutee/tee_api_objects.c:272
    20bc:	b9405ba0 	ldr	w0, [x29,#88]
    20c0:	36800060 	tbz	w0, #16, 20cc <TEE_PopulateTransientObject+0x5c>
/home/lagadanu/Desktop/qemu/optee_os/lib/libutee/tee_api_objects.c:273
    20c4:	52800000 	mov	w0, #0x0                   	// #0
    20c8:	94000211 	bl	290c <TEE_Panic>
/home/lagadanu/Desktop/qemu/optee_os/lib/libutee/tee_api_objects.c:276
    20cc:	b9405ba0 	ldr	w0, [x29,#88]
    20d0:	36880060 	tbz	w0, #17, 20dc <TEE_PopulateTransientObject+0x6c>
/home/lagadanu/Desktop/qemu/optee_os/lib/libutee/tee_api_objects.c:277
    20d4:	52800000 	mov	w0, #0x0                   	// #0
    20d8:	9400020d 	bl	290c <TEE_Panic>
/home/lagadanu/Desktop/qemu/optee_os/lib/libutee/tee_api_objects.c:279
    20dc:	2a1303e2 	mov	w2, w19
    20e0:	aa1703e1 	mov	x1, x23
    20e4:	aa1403e0 	mov	x0, x20
    20e8:	97fffedc 	bl	1c58 <__utee_from_attr>
/home/lagadanu/Desktop/qemu/optee_os/lib/libutee/tee_api_objects.c:280
    20ec:	aa1403e1 	mov	x1, x20
    20f0:	aa1603e2 	mov	x2, x22
    20f4:	aa1503e0 	mov	x0, x21
    20f8:	94000315 	bl	2d4c <utee_cryp_obj_populate>
/home/lagadanu/Desktop/qemu/optee_os/lib/libutee/tee_api_objects.c:281
    20fc:	7100001f 	cmp	w0, #0x0
    2100:	129fff21 	mov	w1, #0xffff0006            	// #-65530
/home/lagadanu/Desktop/qemu/optee_os/lib/libutee/tee_api_objects.c:280
    2104:	2a0003f3 	mov	w19, w0
/home/lagadanu/Desktop/qemu/optee_os/lib/libutee/tee_api_objects.c:281
    2108:	7a411004 	ccmp	w0, w1, #0x4, ne
    210c:	54000040 	b.eq	2114 <TEE_PopulateTransientObject+0xa4>
/home/lagadanu/Desktop/qemu/optee_os/lib/libutee/tee_api_objects.c:282
    2110:	940001ff 	bl	290c <TEE_Panic>
/home/lagadanu/Desktop/qemu/optee_os/lib/libutee/tee_api_objects.c:284
    2114:	910003bf 	mov	sp, x29
    2118:	2a1303e0 	mov	w0, w19
    211c:	f9401bf7 	ldr	x23, [sp,#48]
    2120:	a94153f3 	ldp	x19, x20, [sp,#16]
    2124:	a9425bf5 	ldp	x21, x22, [sp,#32]
    2128:	a8c67bfd 	ldp	x29, x30, [sp],#96
    212c:	d65f03c0 	ret

0000000000002130 <TEE_InitRefAttribute>:
TEE_InitRefAttribute():
/home/lagadanu/Desktop/qemu/optee_os/lib/libutee/tee_api_objects.c:288
    2130:	a9bd7bfd 	stp	x29, x30, [sp,#-48]!
    2134:	910003fd 	mov	x29, sp
    2138:	a90153f3 	stp	x19, x20, [sp,#16]
    213c:	aa0003f3 	mov	x19, x0
    2140:	a9025bf5 	stp	x21, x22, [sp,#32]
    2144:	2a0103f4 	mov	w20, w1
    2148:	aa0203f6 	mov	x22, x2
    214c:	2a0303f5 	mov	w21, w3
/home/lagadanu/Desktop/qemu/optee_os/lib/libutee/tee_api_objects.c:289
    2150:	b5000060 	cbnz	x0, 215c <TEE_InitRefAttribute+0x2c>
/home/lagadanu/Desktop/qemu/optee_os/lib/libutee/tee_api_objects.c:290
    2154:	52800000 	mov	w0, #0x0                   	// #0
    2158:	940001ed 	bl	290c <TEE_Panic>
/home/lagadanu/Desktop/qemu/optee_os/lib/libutee/tee_api_objects.c:291
    215c:	36e80074 	tbz	w20, #29, 2168 <TEE_InitRefAttribute+0x38>
/home/lagadanu/Desktop/qemu/optee_os/lib/libutee/tee_api_objects.c:292
    2160:	52800000 	mov	w0, #0x0                   	// #0
    2164:	940001ea 	bl	290c <TEE_Panic>
/home/lagadanu/Desktop/qemu/optee_os/lib/libutee/tee_api_objects.c:294
    2168:	f9000676 	str	x22, [x19,#8]
/home/lagadanu/Desktop/qemu/optee_os/lib/libutee/tee_api_objects.c:295
    216c:	b9001275 	str	w21, [x19,#16]
/home/lagadanu/Desktop/qemu/optee_os/lib/libutee/tee_api_objects.c:293
    2170:	b9000274 	str	w20, [x19]
/home/lagadanu/Desktop/qemu/optee_os/lib/libutee/tee_api_objects.c:296
    2174:	a9425bf5 	ldp	x21, x22, [sp,#32]
    2178:	a94153f3 	ldp	x19, x20, [sp,#16]
    217c:	a8c37bfd 	ldp	x29, x30, [sp],#48
    2180:	d65f03c0 	ret

0000000000002184 <TEE_InitValueAttribute>:
TEE_InitValueAttribute():
/home/lagadanu/Desktop/qemu/optee_os/lib/libutee/tee_api_objects.c:300
    2184:	a9bd7bfd 	stp	x29, x30, [sp,#-48]!
    2188:	910003fd 	mov	x29, sp
    218c:	a90153f3 	stp	x19, x20, [sp,#16]
    2190:	aa0003f3 	mov	x19, x0
    2194:	a9025bf5 	stp	x21, x22, [sp,#32]
    2198:	2a0103f4 	mov	w20, w1
    219c:	2a0203f6 	mov	w22, w2
    21a0:	2a0303f5 	mov	w21, w3
/home/lagadanu/Desktop/qemu/optee_os/lib/libutee/tee_api_objects.c:301
    21a4:	b5000060 	cbnz	x0, 21b0 <TEE_InitValueAttribute+0x2c>
/home/lagadanu/Desktop/qemu/optee_os/lib/libutee/tee_api_objects.c:302
    21a8:	52800000 	mov	w0, #0x0                   	// #0
    21ac:	940001d8 	bl	290c <TEE_Panic>
/home/lagadanu/Desktop/qemu/optee_os/lib/libutee/tee_api_objects.c:303
    21b0:	37e80074 	tbnz	w20, #29, 21bc <TEE_InitValueAttribute+0x38>
/home/lagadanu/Desktop/qemu/optee_os/lib/libutee/tee_api_objects.c:304
    21b4:	52800000 	mov	w0, #0x0                   	// #0
    21b8:	940001d5 	bl	290c <TEE_Panic>
/home/lagadanu/Desktop/qemu/optee_os/lib/libutee/tee_api_objects.c:307
    21bc:	29015676 	stp	w22, w21, [x19,#8]
/home/lagadanu/Desktop/qemu/optee_os/lib/libutee/tee_api_objects.c:305
    21c0:	b9000274 	str	w20, [x19]
/home/lagadanu/Desktop/qemu/optee_os/lib/libutee/tee_api_objects.c:308
    21c4:	a9425bf5 	ldp	x21, x22, [sp,#32]
    21c8:	a94153f3 	ldp	x19, x20, [sp,#16]
    21cc:	a8c37bfd 	ldp	x29, x30, [sp],#48
    21d0:	d65f03c0 	ret

00000000000021d4 <TEE_CopyObjectAttributes1>:
TEE_CopyObjectAttributes1():
/home/lagadanu/Desktop/qemu/optee_os/lib/libutee/tee_api_objects.c:333
    21d4:	a9b97bfd 	stp	x29, x30, [sp,#-112]!
    21d8:	910003fd 	mov	x29, sp
    21dc:	a90153f3 	stp	x19, x20, [sp,#16]
    21e0:	aa0103f4 	mov	x20, x1
    21e4:	f90013f5 	str	x21, [sp,#32]
/home/lagadanu/Desktop/qemu/optee_os/lib/libutee/tee_api_objects.c:338
    21e8:	9100c3a1 	add	x1, x29, #0x30
/home/lagadanu/Desktop/qemu/optee_os/lib/libutee/tee_api_objects.c:333
    21ec:	aa0003f5 	mov	x21, x0
/home/lagadanu/Desktop/qemu/optee_os/lib/libutee/tee_api_objects.c:338
    21f0:	940002c5 	bl	2d04 <utee_cryp_obj_get_info>
    21f4:	2a0003f3 	mov	w19, w0
/home/lagadanu/Desktop/qemu/optee_os/lib/libutee/tee_api_objects.c:339
    21f8:	350002a0 	cbnz	w0, 224c <TEE_CopyObjectAttributes1+0x78>
/home/lagadanu/Desktop/qemu/optee_os/lib/libutee/tee_api_objects.c:342
    21fc:	910143a1 	add	x1, x29, #0x50
    2200:	aa1403e0 	mov	x0, x20
    2204:	940002c0 	bl	2d04 <utee_cryp_obj_get_info>
    2208:	2a0003f3 	mov	w19, w0
/home/lagadanu/Desktop/qemu/optee_os/lib/libutee/tee_api_objects.c:343
    220c:	35000200 	cbnz	w0, 224c <TEE_CopyObjectAttributes1+0x78>
/home/lagadanu/Desktop/qemu/optee_os/lib/libutee/tee_api_objects.c:346
    2210:	b9406ba1 	ldr	w1, [x29,#104]
    2214:	37880041 	tbnz	w1, #17, 221c <TEE_CopyObjectAttributes1+0x48>
/home/lagadanu/Desktop/qemu/optee_os/lib/libutee/tee_api_objects.c:347
    2218:	940001bd 	bl	290c <TEE_Panic>
/home/lagadanu/Desktop/qemu/optee_os/lib/libutee/tee_api_objects.c:349
    221c:	b9404ba0 	ldr	w0, [x29,#72]
    2220:	36800060 	tbz	w0, #16, 222c <TEE_CopyObjectAttributes1+0x58>
/home/lagadanu/Desktop/qemu/optee_os/lib/libutee/tee_api_objects.c:350
    2224:	52800000 	mov	w0, #0x0                   	// #0
    2228:	940001b9 	bl	290c <TEE_Panic>
/home/lagadanu/Desktop/qemu/optee_os/lib/libutee/tee_api_objects.c:352
    222c:	b9404ba0 	ldr	w0, [x29,#72]
    2230:	36880060 	tbz	w0, #17, 223c <TEE_CopyObjectAttributes1+0x68>
/home/lagadanu/Desktop/qemu/optee_os/lib/libutee/tee_api_objects.c:353
    2234:	52800000 	mov	w0, #0x0                   	// #0
    2238:	940001b5 	bl	290c <TEE_Panic>
/home/lagadanu/Desktop/qemu/optee_os/lib/libutee/tee_api_objects.c:355
    223c:	aa1403e1 	mov	x1, x20
    2240:	aa1503e0 	mov	x0, x21
    2244:	940002c5 	bl	2d58 <utee_cryp_obj_copy>
    2248:	2a0003f3 	mov	w19, w0
/home/lagadanu/Desktop/qemu/optee_os/lib/libutee/tee_api_objects.c:360
    224c:	121e7a60 	and	w0, w19, #0xfffffffd
    2250:	7100027f 	cmp	w19, #0x0
    2254:	52800021 	mov	w1, #0x1                   	// #1
    2258:	72be0201 	movk	w1, #0xf010, lsl #16
    225c:	7a411004 	ccmp	w0, w1, #0x4, ne
    2260:	54000060 	b.eq	226c <TEE_CopyObjectAttributes1+0x98>
/home/lagadanu/Desktop/qemu/optee_os/lib/libutee/tee_api_objects.c:362
    2264:	2a1303e0 	mov	w0, w19
    2268:	940001a9 	bl	290c <TEE_Panic>
/home/lagadanu/Desktop/qemu/optee_os/lib/libutee/tee_api_objects.c:365
    226c:	2a1303e0 	mov	w0, w19
    2270:	f94013f5 	ldr	x21, [sp,#32]
    2274:	a94153f3 	ldp	x19, x20, [sp,#16]
    2278:	a8c77bfd 	ldp	x29, x30, [sp],#112
    227c:	d65f03c0 	ret

0000000000002280 <TEE_CopyObjectAttributes>:
TEE_CopyObjectAttributes():
/home/lagadanu/Desktop/qemu/optee_os/lib/libutee/tee_api_objects.c:318
    2280:	a9bc7bfd 	stp	x29, x30, [sp,#-64]!
    2284:	910003fd 	mov	x29, sp
    2288:	a90153f3 	stp	x19, x20, [sp,#16]
    228c:	aa0103f3 	mov	x19, x1
    2290:	aa0003f4 	mov	x20, x0
/home/lagadanu/Desktop/qemu/optee_os/lib/libutee/tee_api_objects.c:322
    2294:	910083a1 	add	x1, x29, #0x20
    2298:	aa1303e0 	mov	x0, x19
    229c:	9400029a 	bl	2d04 <utee_cryp_obj_get_info>
/home/lagadanu/Desktop/qemu/optee_os/lib/libutee/tee_api_objects.c:323
    22a0:	b94023a1 	ldr	w1, [x29,#32]
    22a4:	528017c0 	mov	w0, #0xbe                  	// #190
    22a8:	72b40000 	movk	w0, #0xa000, lsl #16
    22ac:	6b00003f 	cmp	w1, w0
    22b0:	540000c0 	b.eq	22c8 <TEE_CopyObjectAttributes+0x48>
/home/lagadanu/Desktop/qemu/optee_os/lib/libutee/tee_api_objects.c:326
    22b4:	aa1303e1 	mov	x1, x19
    22b8:	aa1403e0 	mov	x0, x20
    22bc:	97ffffc6 	bl	21d4 <TEE_CopyObjectAttributes1>
/home/lagadanu/Desktop/qemu/optee_os/lib/libutee/tee_api_objects.c:327
    22c0:	34000040 	cbz	w0, 22c8 <TEE_CopyObjectAttributes+0x48>
/home/lagadanu/Desktop/qemu/optee_os/lib/libutee/tee_api_objects.c:328
    22c4:	94000192 	bl	290c <TEE_Panic>
/home/lagadanu/Desktop/qemu/optee_os/lib/libutee/tee_api_objects.c:329
    22c8:	a94153f3 	ldp	x19, x20, [sp,#16]
    22cc:	a8c47bfd 	ldp	x29, x30, [sp],#64
    22d0:	d65f03c0 	ret

00000000000022d4 <TEE_GenerateKey>:
TEE_GenerateKey():
/home/lagadanu/Desktop/qemu/optee_os/lib/libutee/tee_api_objects.c:369
    22d4:	a9bd7bfd 	stp	x29, x30, [sp,#-48]!
    22d8:	910003fd 	mov	x29, sp
    22dc:	a9025bf5 	stp	x21, x22, [sp,#32]
    22e0:	aa0003f5 	mov	x21, x0
/home/lagadanu/Desktop/qemu/optee_os/lib/libutee/tee_api_objects.c:371
    22e4:	52800300 	mov	w0, #0x18                  	// #24
/home/lagadanu/Desktop/qemu/optee_os/lib/libutee/tee_api_objects.c:369
    22e8:	a90153f3 	stp	x19, x20, [sp,#16]
    22ec:	2a0103f6 	mov	w22, w1
    22f0:	2a0303f3 	mov	w19, w3
/home/lagadanu/Desktop/qemu/optee_os/lib/libutee/tee_api_objects.c:371
    22f4:	9ba07c60 	umull	x0, w3, w0
/home/lagadanu/Desktop/qemu/optee_os/lib/libutee/tee_api_objects.c:369
    22f8:	aa0203e1 	mov	x1, x2
/home/lagadanu/Desktop/qemu/optee_os/lib/libutee/tee_api_objects.c:373
    22fc:	2a0303e2 	mov	w2, w3
/home/lagadanu/Desktop/qemu/optee_os/lib/libutee/tee_api_objects.c:371
    2300:	91005800 	add	x0, x0, #0x16
    2304:	927c8400 	and	x0, x0, #0x3ffffffff0
    2308:	cb2063ff 	sub	sp, sp, x0
/home/lagadanu/Desktop/qemu/optee_os/lib/libutee/tee_api_objects.c:373
    230c:	910003e0 	mov	x0, sp
    2310:	97fffe52 	bl	1c58 <__utee_from_attr>
/home/lagadanu/Desktop/qemu/optee_os/lib/libutee/tee_api_objects.c:374
    2314:	2a1303e3 	mov	w3, w19
    2318:	2a1603e1 	mov	w1, w22
    231c:	910003e2 	mov	x2, sp
    2320:	aa1503e0 	mov	x0, x21
    2324:	940002d2 	bl	2e6c <utee_cryp_obj_generate_key>
/home/lagadanu/Desktop/qemu/optee_os/lib/libutee/tee_api_objects.c:377
    2328:	7100001f 	cmp	w0, #0x0
    232c:	129fff21 	mov	w1, #0xffff0006            	// #-65530
/home/lagadanu/Desktop/qemu/optee_os/lib/libutee/tee_api_objects.c:374
    2330:	2a0003f3 	mov	w19, w0
/home/lagadanu/Desktop/qemu/optee_os/lib/libutee/tee_api_objects.c:377
    2334:	7a411004 	ccmp	w0, w1, #0x4, ne
    2338:	54000040 	b.eq	2340 <TEE_GenerateKey+0x6c>
/home/lagadanu/Desktop/qemu/optee_os/lib/libutee/tee_api_objects.c:378
    233c:	94000174 	bl	290c <TEE_Panic>
/home/lagadanu/Desktop/qemu/optee_os/lib/libutee/tee_api_objects.c:381
    2340:	910003bf 	mov	sp, x29
    2344:	2a1303e0 	mov	w0, w19
    2348:	a94153f3 	ldp	x19, x20, [sp,#16]
    234c:	a9425bf5 	ldp	x21, x22, [sp,#32]
    2350:	a8c37bfd 	ldp	x29, x30, [sp],#48
    2354:	d65f03c0 	ret

0000000000002358 <TEE_OpenPersistentObject>:
TEE_OpenPersistentObject():
/home/lagadanu/Desktop/qemu/optee_os/lib/libutee/tee_api_objects.c:388
    2358:	a9bd7bfd 	stp	x29, x30, [sp,#-48]!
    235c:	910003fd 	mov	x29, sp
    2360:	a90153f3 	stp	x19, x20, [sp,#16]
/home/lagadanu/Desktop/qemu/optee_os/lib/libutee/tee_api_objects.c:393
    2364:	129ffef3 	mov	w19, #0xffff0008            	// #-65528
/home/lagadanu/Desktop/qemu/optee_os/lib/libutee/tee_api_objects.c:392
    2368:	b40001e1 	cbz	x1, 23a4 <TEE_OpenPersistentObject+0x4c>
/home/lagadanu/Desktop/qemu/optee_os/lib/libutee/tee_api_objects.c:402
    236c:	7101005f 	cmp	w2, #0x40
    2370:	aa0403f4 	mov	x20, x4
/home/lagadanu/Desktop/qemu/optee_os/lib/libutee/tee_api_objects.c:403
    2374:	129fff33 	mov	w19, #0xffff0006            	// #-65530
/home/lagadanu/Desktop/qemu/optee_os/lib/libutee/tee_api_objects.c:402
    2378:	fa409884 	ccmp	x4, #0x0, #0x4, ls
    237c:	54000140 	b.eq	23a4 <TEE_OpenPersistentObject+0x4c>
/home/lagadanu/Desktop/qemu/optee_os/lib/libutee/tee_api_objects.c:407
    2380:	9100b3a4 	add	x4, x29, #0x2c
    2384:	2a0303e3 	mov	w3, w3
    2388:	2a0203e2 	mov	w2, w2
    238c:	2a0003e0 	mov	w0, w0
    2390:	94000290 	bl	2dd0 <utee_storage_obj_open>
    2394:	2a0003f3 	mov	w19, w0
/home/lagadanu/Desktop/qemu/optee_os/lib/libutee/tee_api_objects.c:409
    2398:	35000060 	cbnz	w0, 23a4 <TEE_OpenPersistentObject+0x4c>
/home/lagadanu/Desktop/qemu/optee_os/lib/libutee/tee_api_objects.c:410
    239c:	b9402fa0 	ldr	w0, [x29,#44]
    23a0:	f9000280 	str	x0, [x20]
/home/lagadanu/Desktop/qemu/optee_os/lib/libutee/tee_api_objects.c:414
    23a4:	121d7a60 	and	w0, w19, #0xfffffffb
/home/lagadanu/Desktop/qemu/optee_os/lib/libutee/tee_api_objects.c:413
    23a8:	7100027f 	cmp	w19, #0x0
    23ac:	129ffee1 	mov	w1, #0xffff0008            	// #-65528
    23b0:	7a411004 	ccmp	w0, w1, #0x4, ne
    23b4:	54000160 	b.eq	23e0 <TEE_OpenPersistentObject+0x88>
/home/lagadanu/Desktop/qemu/optee_os/lib/libutee/tee_api_objects.c:415
    23b8:	129fff80 	mov	w0, #0xffff0003            	// #-65533
    23bc:	6b00027f 	cmp	w19, w0
    23c0:	54000100 	b.eq	23e0 <TEE_OpenPersistentObject+0x88>
/home/lagadanu/Desktop/qemu/optee_os/lib/libutee/tee_api_objects.c:417
    23c4:	121e7a61 	and	w1, w19, #0xfffffffd
    23c8:	52800020 	mov	w0, #0x1                   	// #1
    23cc:	72be0200 	movk	w0, #0xf010, lsl #16
    23d0:	6b00003f 	cmp	w1, w0
    23d4:	54000060 	b.eq	23e0 <TEE_OpenPersistentObject+0x88>
/home/lagadanu/Desktop/qemu/optee_os/lib/libutee/tee_api_objects.c:419
    23d8:	2a1303e0 	mov	w0, w19
    23dc:	9400014c 	bl	290c <TEE_Panic>
/home/lagadanu/Desktop/qemu/optee_os/lib/libutee/tee_api_objects.c:422
    23e0:	2a1303e0 	mov	w0, w19
    23e4:	a94153f3 	ldp	x19, x20, [sp,#16]
    23e8:	a8c37bfd 	ldp	x29, x30, [sp],#48
    23ec:	d65f03c0 	ret

00000000000023f0 <TEE_CreatePersistentObject>:
TEE_CreatePersistentObject():
/home/lagadanu/Desktop/qemu/optee_os/lib/libutee/tee_api_objects.c:430
    23f0:	a9bd7bfd 	stp	x29, x30, [sp,#-48]!
    23f4:	910003fd 	mov	x29, sp
    23f8:	f9000bf3 	str	x19, [sp,#16]
    23fc:	aa0703f3 	mov	x19, x7
/home/lagadanu/Desktop/qemu/optee_os/lib/libutee/tee_api_objects.c:434
    2400:	b4000501 	cbz	x1, 24a0 <TEE_CreatePersistentObject+0xb0>
/home/lagadanu/Desktop/qemu/optee_os/lib/libutee/tee_api_objects.c:439
    2404:	7101005f 	cmp	w2, #0x40
    2408:	54000528 	b.hi	24ac <TEE_CreatePersistentObject+0xbc>
/home/lagadanu/Desktop/qemu/optee_os/lib/libutee/tee_api_objects.c:444
    240c:	9100b3a7 	add	x7, x29, #0x2c
    2410:	2a0603e6 	mov	w6, w6
    2414:	2a0303e3 	mov	w3, w3
    2418:	2a0203e2 	mov	w2, w2
    241c:	2a0003e0 	mov	w0, w0
    2420:	9400026f 	bl	2ddc <utee_storage_obj_create>
/home/lagadanu/Desktop/qemu/optee_os/lib/libutee/tee_api_objects.c:447
    2424:	35000380 	cbnz	w0, 2494 <TEE_CreatePersistentObject+0xa4>
    2428:	b9402fa1 	ldr	w1, [x29,#44]
/home/lagadanu/Desktop/qemu/optee_os/lib/libutee/tee_api_objects.c:448
    242c:	b40000b3 	cbz	x19, 2440 <TEE_CreatePersistentObject+0x50>
/home/lagadanu/Desktop/qemu/optee_os/lib/libutee/tee_api_objects.c:449
    2430:	f9000261 	str	x1, [x19]
/home/lagadanu/Desktop/qemu/optee_os/lib/libutee/tee_api_objects.c:468
    2434:	f9400bf3 	ldr	x19, [sp,#16]
    2438:	a8c37bfd 	ldp	x29, x30, [sp],#48
    243c:	d65f03c0 	ret
/home/lagadanu/Desktop/qemu/optee_os/lib/libutee/tee_api_objects.c:451
    2440:	aa0103e0 	mov	x0, x1
    2444:	9400023c 	bl	2d34 <utee_cryp_obj_close>
/home/lagadanu/Desktop/qemu/optee_os/lib/libutee/tee_api_objects.c:452
    2448:	34ffff60 	cbz	w0, 2434 <TEE_CreatePersistentObject+0x44>
/home/lagadanu/Desktop/qemu/optee_os/lib/libutee/tee_api_objects.c:458
    244c:	129ffee1 	mov	w1, #0xffff0008            	// #-65528
    2450:	6b01001f 	cmp	w0, w1
    2454:	129fff81 	mov	w1, #0xffff0003            	// #-65533
    2458:	7a411004 	ccmp	w0, w1, #0x4, ne
    245c:	54fffec0 	b.eq	2434 <TEE_CreatePersistentObject+0x44>
/home/lagadanu/Desktop/qemu/optee_os/lib/libutee/tee_api_objects.c:460
    2460:	129ffe61 	mov	w1, #0xffff000c            	// #-65524
    2464:	6b01001f 	cmp	w0, w1
    2468:	1299f7c1 	mov	w1, #0xffff3041            	// #-53183
    246c:	7a411004 	ccmp	w0, w1, #0x4, ne
    2470:	54fffe20 	b.eq	2434 <TEE_CreatePersistentObject+0x44>
/home/lagadanu/Desktop/qemu/optee_os/lib/libutee/tee_api_objects.c:462
    2474:	121e7802 	and	w2, w0, #0xfffffffd
    2478:	52800021 	mov	w1, #0x1                   	// #1
    247c:	72be0201 	movk	w1, #0xf010, lsl #16
    2480:	6b01005f 	cmp	w2, w1
    2484:	54fffd80 	b.eq	2434 <TEE_CreatePersistentObject+0x44>
/home/lagadanu/Desktop/qemu/optee_os/lib/libutee/tee_api_objects.c:465
    2488:	94000121 	bl	290c <TEE_Panic>
/home/lagadanu/Desktop/qemu/optee_os/lib/libutee/tee_api_objects.c:467
    248c:	52800000 	mov	w0, #0x0                   	// #0
    2490:	17ffffe9 	b	2434 <TEE_CreatePersistentObject+0x44>
/home/lagadanu/Desktop/qemu/optee_os/lib/libutee/tee_api_objects.c:456
    2494:	b4fffdd3 	cbz	x19, 244c <TEE_CreatePersistentObject+0x5c>
/home/lagadanu/Desktop/qemu/optee_os/lib/libutee/tee_api_objects.c:457
    2498:	f900027f 	str	xzr, [x19]
    249c:	17ffffec 	b	244c <TEE_CreatePersistentObject+0x5c>
/home/lagadanu/Desktop/qemu/optee_os/lib/libutee/tee_api_objects.c:435
    24a0:	129ffee0 	mov	w0, #0xffff0008            	// #-65528
/home/lagadanu/Desktop/qemu/optee_os/lib/libutee/tee_api_objects.c:456
    24a4:	b5ffffa7 	cbnz	x7, 2498 <TEE_CreatePersistentObject+0xa8>
    24a8:	17ffffe3 	b	2434 <TEE_CreatePersistentObject+0x44>
/home/lagadanu/Desktop/qemu/optee_os/lib/libutee/tee_api_objects.c:440
    24ac:	129fff20 	mov	w0, #0xffff0006            	// #-65530
/home/lagadanu/Desktop/qemu/optee_os/lib/libutee/tee_api_objects.c:456
    24b0:	b5ffff47 	cbnz	x7, 2498 <TEE_CreatePersistentObject+0xa8>
    24b4:	17ffffeb 	b	2460 <TEE_CreatePersistentObject+0x70>

00000000000024b8 <TEE_CloseAndDeletePersistentObject1>:
TEE_CloseAndDeletePersistentObject1():
/home/lagadanu/Desktop/qemu/optee_os/lib/libutee/tee_api_objects.c:490
    24b8:	a9be7bfd 	stp	x29, x30, [sp,#-32]!
    24bc:	910003fd 	mov	x29, sp
    24c0:	a90153f3 	stp	x19, x20, [sp,#16]
    24c4:	52800074 	mov	w20, #0x3                   	// #3
    24c8:	72be0214 	movk	w20, #0xf010, lsl #16
/home/lagadanu/Desktop/qemu/optee_os/lib/libutee/tee_api_objects.c:494
    24cc:	2a1403f3 	mov	w19, w20
/home/lagadanu/Desktop/qemu/optee_os/lib/libutee/tee_api_objects.c:493
    24d0:	b40000e0 	cbz	x0, 24ec <TEE_CloseAndDeletePersistentObject1+0x34>
/home/lagadanu/Desktop/qemu/optee_os/lib/libutee/tee_api_objects.c:496
    24d4:	94000245 	bl	2de8 <utee_storage_obj_del>
/home/lagadanu/Desktop/qemu/optee_os/lib/libutee/tee_api_objects.c:498
    24d8:	7100001f 	cmp	w0, #0x0
/home/lagadanu/Desktop/qemu/optee_os/lib/libutee/tee_api_objects.c:496
    24dc:	2a0003f3 	mov	w19, w0
/home/lagadanu/Desktop/qemu/optee_os/lib/libutee/tee_api_objects.c:498
    24e0:	7a541004 	ccmp	w0, w20, #0x4, ne
    24e4:	54000040 	b.eq	24ec <TEE_CloseAndDeletePersistentObject1+0x34>
/home/lagadanu/Desktop/qemu/optee_os/lib/libutee/tee_api_objects.c:499
    24e8:	94000109 	bl	290c <TEE_Panic>
/home/lagadanu/Desktop/qemu/optee_os/lib/libutee/tee_api_objects.c:502
    24ec:	2a1303e0 	mov	w0, w19
    24f0:	a94153f3 	ldp	x19, x20, [sp,#16]
    24f4:	a8c27bfd 	ldp	x29, x30, [sp],#32
    24f8:	d65f03c0 	ret

00000000000024fc <TEE_CloseAndDeletePersistentObject>:
TEE_CloseAndDeletePersistentObject():
/home/lagadanu/Desktop/qemu/optee_os/lib/libutee/tee_api_objects.c:480
    24fc:	b4000140 	cbz	x0, 2524 <TEE_CloseAndDeletePersistentObject+0x28>
/home/lagadanu/Desktop/qemu/optee_os/lib/libutee/tee_api_objects.c:477
    2500:	a9bf7bfd 	stp	x29, x30, [sp,#-16]!
    2504:	910003fd 	mov	x29, sp
/home/lagadanu/Desktop/qemu/optee_os/lib/libutee/tee_api_objects.c:483
    2508:	97ffffec 	bl	24b8 <TEE_CloseAndDeletePersistentObject1>
/home/lagadanu/Desktop/qemu/optee_os/lib/libutee/tee_api_objects.c:485
    250c:	34000080 	cbz	w0, 251c <TEE_CloseAndDeletePersistentObject+0x20>
/home/lagadanu/Desktop/qemu/optee_os/lib/libutee/tee_api_objects.c:487
    2510:	a8c17bfd 	ldp	x29, x30, [sp],#16
/home/lagadanu/Desktop/qemu/optee_os/lib/libutee/tee_api_objects.c:486
    2514:	52800000 	mov	w0, #0x0                   	// #0
    2518:	140000fd 	b	290c <TEE_Panic>
/home/lagadanu/Desktop/qemu/optee_os/lib/libutee/tee_api_objects.c:487
    251c:	a8c17bfd 	ldp	x29, x30, [sp],#16
    2520:	d65f03c0 	ret
    2524:	d65f03c0 	ret

0000000000002528 <TEE_RenamePersistentObject>:
TEE_RenamePersistentObject():
/home/lagadanu/Desktop/qemu/optee_os/lib/libutee/tee_api_objects.c:508
    2528:	a9be7bfd 	stp	x29, x30, [sp,#-32]!
    252c:	910003fd 	mov	x29, sp
    2530:	f9000bf3 	str	x19, [sp,#16]
/home/lagadanu/Desktop/qemu/optee_os/lib/libutee/tee_api_objects.c:512
    2534:	129ffef3 	mov	w19, #0xffff0008            	// #-65528
/home/lagadanu/Desktop/qemu/optee_os/lib/libutee/tee_api_objects.c:511
    2538:	b4000100 	cbz	x0, 2558 <TEE_RenamePersistentObject+0x30>
/home/lagadanu/Desktop/qemu/optee_os/lib/libutee/tee_api_objects.c:521
    253c:	7101005f 	cmp	w2, #0x40
/home/lagadanu/Desktop/qemu/optee_os/lib/libutee/tee_api_objects.c:522
    2540:	129fff33 	mov	w19, #0xffff0006            	// #-65530
/home/lagadanu/Desktop/qemu/optee_os/lib/libutee/tee_api_objects.c:521
    2544:	fa409824 	ccmp	x1, #0x0, #0x4, ls
    2548:	54000080 	b.eq	2558 <TEE_RenamePersistentObject+0x30>
/home/lagadanu/Desktop/qemu/optee_os/lib/libutee/tee_api_objects.c:526
    254c:	2a0203e2 	mov	w2, w2
    2550:	94000229 	bl	2df4 <utee_storage_obj_rename>
    2554:	2a0003f3 	mov	w19, w0
/home/lagadanu/Desktop/qemu/optee_os/lib/libutee/tee_api_objects.c:530
    2558:	7100027f 	cmp	w19, #0x0
    255c:	129fff80 	mov	w0, #0xffff0003            	// #-65533
    2560:	7a401264 	ccmp	w19, w0, #0x4, ne
    2564:	54000100 	b.eq	2584 <TEE_RenamePersistentObject+0x5c>
/home/lagadanu/Desktop/qemu/optee_os/lib/libutee/tee_api_objects.c:532
    2568:	121e7a61 	and	w1, w19, #0xfffffffd
    256c:	52800020 	mov	w0, #0x1                   	// #1
    2570:	72be0200 	movk	w0, #0xf010, lsl #16
    2574:	6b00003f 	cmp	w1, w0
    2578:	54000060 	b.eq	2584 <TEE_RenamePersistentObject+0x5c>
/home/lagadanu/Desktop/qemu/optee_os/lib/libutee/tee_api_objects.c:534
    257c:	2a1303e0 	mov	w0, w19
    2580:	940000e3 	bl	290c <TEE_Panic>
/home/lagadanu/Desktop/qemu/optee_os/lib/libutee/tee_api_objects.c:537
    2584:	2a1303e0 	mov	w0, w19
    2588:	f9400bf3 	ldr	x19, [sp,#16]
    258c:	a8c27bfd 	ldp	x29, x30, [sp],#32
    2590:	d65f03c0 	ret

0000000000002594 <TEE_AllocatePersistentObjectEnumerator>:
TEE_AllocatePersistentObjectEnumerator():
/home/lagadanu/Desktop/qemu/optee_os/lib/libutee/tee_api_objects.c:541
    2594:	a9bd7bfd 	stp	x29, x30, [sp,#-48]!
    2598:	910003fd 	mov	x29, sp
    259c:	a90153f3 	stp	x19, x20, [sp,#16]
/home/lagadanu/Desktop/qemu/optee_os/lib/libutee/tee_api_objects.c:546
    25a0:	129fff33 	mov	w19, #0xffff0006            	// #-65530
/home/lagadanu/Desktop/qemu/optee_os/lib/libutee/tee_api_objects.c:545
    25a4:	b40001e0 	cbz	x0, 25e0 <TEE_AllocatePersistentObjectEnumerator+0x4c>
    25a8:	aa0003f4 	mov	x20, x0
/home/lagadanu/Desktop/qemu/optee_os/lib/libutee/tee_api_objects.c:548
    25ac:	9100b3a0 	add	x0, x29, #0x2c
    25b0:	94000214 	bl	2e00 <utee_storage_alloc_enum>
    25b4:	2a0003f3 	mov	w19, w0
/home/lagadanu/Desktop/qemu/optee_os/lib/libutee/tee_api_objects.c:550
    25b8:	34000040 	cbz	w0, 25c0 <TEE_AllocatePersistentObjectEnumerator+0x2c>
/home/lagadanu/Desktop/qemu/optee_os/lib/libutee/tee_api_objects.c:551
    25bc:	b9002fbf 	str	wzr, [x29,#44]
/home/lagadanu/Desktop/qemu/optee_os/lib/libutee/tee_api_objects.c:553
    25c0:	b9402fa0 	ldr	w0, [x29,#44]
/home/lagadanu/Desktop/qemu/optee_os/lib/libutee/tee_api_objects.c:555
    25c4:	7100027f 	cmp	w19, #0x0
/home/lagadanu/Desktop/qemu/optee_os/lib/libutee/tee_api_objects.c:553
    25c8:	f9000280 	str	x0, [x20]
/home/lagadanu/Desktop/qemu/optee_os/lib/libutee/tee_api_objects.c:555
    25cc:	129fff80 	mov	w0, #0xffff0003            	// #-65533
    25d0:	7a401264 	ccmp	w19, w0, #0x4, ne
    25d4:	54000060 	b.eq	25e0 <TEE_AllocatePersistentObjectEnumerator+0x4c>
/home/lagadanu/Desktop/qemu/optee_os/lib/libutee/tee_api_objects.c:557
    25d8:	2a1303e0 	mov	w0, w19
    25dc:	940000cc 	bl	290c <TEE_Panic>
/home/lagadanu/Desktop/qemu/optee_os/lib/libutee/tee_api_objects.c:560
    25e0:	2a1303e0 	mov	w0, w19
    25e4:	a94153f3 	ldp	x19, x20, [sp,#16]
    25e8:	a8c37bfd 	ldp	x29, x30, [sp],#48
    25ec:	d65f03c0 	ret

00000000000025f0 <TEE_FreePersistentObjectEnumerator>:
TEE_FreePersistentObjectEnumerator():
/home/lagadanu/Desktop/qemu/optee_os/lib/libutee/tee_api_objects.c:566
    25f0:	b4000120 	cbz	x0, 2614 <TEE_FreePersistentObjectEnumerator+0x24>
/home/lagadanu/Desktop/qemu/optee_os/lib/libutee/tee_api_objects.c:563
    25f4:	a9bf7bfd 	stp	x29, x30, [sp,#-16]!
    25f8:	910003fd 	mov	x29, sp
/home/lagadanu/Desktop/qemu/optee_os/lib/libutee/tee_api_objects.c:569
    25fc:	94000204 	bl	2e0c <utee_storage_free_enum>
/home/lagadanu/Desktop/qemu/optee_os/lib/libutee/tee_api_objects.c:571
    2600:	34000060 	cbz	w0, 260c <TEE_FreePersistentObjectEnumerator+0x1c>
/home/lagadanu/Desktop/qemu/optee_os/lib/libutee/tee_api_objects.c:573
    2604:	a8c17bfd 	ldp	x29, x30, [sp],#16
/home/lagadanu/Desktop/qemu/optee_os/lib/libutee/tee_api_objects.c:572
    2608:	140000c1 	b	290c <TEE_Panic>
/home/lagadanu/Desktop/qemu/optee_os/lib/libutee/tee_api_objects.c:573
    260c:	a8c17bfd 	ldp	x29, x30, [sp],#16
    2610:	d65f03c0 	ret
    2614:	d65f03c0 	ret

0000000000002618 <TEE_ResetPersistentObjectEnumerator>:
TEE_ResetPersistentObjectEnumerator():
/home/lagadanu/Desktop/qemu/optee_os/lib/libutee/tee_api_objects.c:579
    2618:	b4000120 	cbz	x0, 263c <TEE_ResetPersistentObjectEnumerator+0x24>
/home/lagadanu/Desktop/qemu/optee_os/lib/libutee/tee_api_objects.c:576
    261c:	a9bf7bfd 	stp	x29, x30, [sp,#-16]!
    2620:	910003fd 	mov	x29, sp
/home/lagadanu/Desktop/qemu/optee_os/lib/libutee/tee_api_objects.c:582
    2624:	940001fd 	bl	2e18 <utee_storage_reset_enum>
/home/lagadanu/Desktop/qemu/optee_os/lib/libutee/tee_api_objects.c:584
    2628:	34000060 	cbz	w0, 2634 <TEE_ResetPersistentObjectEnumerator+0x1c>
/home/lagadanu/Desktop/qemu/optee_os/lib/libutee/tee_api_objects.c:586
    262c:	a8c17bfd 	ldp	x29, x30, [sp],#16
/home/lagadanu/Desktop/qemu/optee_os/lib/libutee/tee_api_objects.c:585
    2630:	140000b7 	b	290c <TEE_Panic>
/home/lagadanu/Desktop/qemu/optee_os/lib/libutee/tee_api_objects.c:586
    2634:	a8c17bfd 	ldp	x29, x30, [sp],#16
    2638:	d65f03c0 	ret
    263c:	d65f03c0 	ret

0000000000002640 <TEE_StartPersistentObjectEnumerator>:
TEE_StartPersistentObjectEnumerator():
/home/lagadanu/Desktop/qemu/optee_os/lib/libutee/tee_api_objects.c:591
    2640:	a9be7bfd 	stp	x29, x30, [sp,#-32]!
/home/lagadanu/Desktop/qemu/optee_os/lib/libutee/tee_api_objects.c:594
    2644:	2a0103e1 	mov	w1, w1
/home/lagadanu/Desktop/qemu/optee_os/lib/libutee/tee_api_objects.c:591
    2648:	910003fd 	mov	x29, sp
    264c:	f9000bf3 	str	x19, [sp,#16]
/home/lagadanu/Desktop/qemu/optee_os/lib/libutee/tee_api_objects.c:594
    2650:	940001f5 	bl	2e24 <utee_storage_start_enum>
/home/lagadanu/Desktop/qemu/optee_os/lib/libutee/tee_api_objects.c:597
    2654:	7100001f 	cmp	w0, #0x0
    2658:	129ffee1 	mov	w1, #0xffff0008            	// #-65528
/home/lagadanu/Desktop/qemu/optee_os/lib/libutee/tee_api_objects.c:594
    265c:	2a0003f3 	mov	w19, w0
/home/lagadanu/Desktop/qemu/optee_os/lib/libutee/tee_api_objects.c:597
    2660:	7a411004 	ccmp	w0, w1, #0x4, ne
    2664:	540000e0 	b.eq	2680 <TEE_StartPersistentObjectEnumerator+0x40>
/home/lagadanu/Desktop/qemu/optee_os/lib/libutee/tee_api_objects.c:599
    2668:	121e7802 	and	w2, w0, #0xfffffffd
    266c:	52800021 	mov	w1, #0x1                   	// #1
    2670:	72be0201 	movk	w1, #0xf010, lsl #16
    2674:	6b01005f 	cmp	w2, w1
    2678:	54000040 	b.eq	2680 <TEE_StartPersistentObjectEnumerator+0x40>
/home/lagadanu/Desktop/qemu/optee_os/lib/libutee/tee_api_objects.c:601
    267c:	940000a4 	bl	290c <TEE_Panic>
/home/lagadanu/Desktop/qemu/optee_os/lib/libutee/tee_api_objects.c:604
    2680:	2a1303e0 	mov	w0, w19
    2684:	f9400bf3 	ldr	x19, [sp,#16]
    2688:	a8c27bfd 	ldp	x29, x30, [sp],#32
    268c:	d65f03c0 	ret

0000000000002690 <TEE_GetNextPersistentObject>:
TEE_GetNextPersistentObject():
/home/lagadanu/Desktop/qemu/optee_os/lib/libutee/tee_api_objects.c:609
    2690:	a9bb7bfd 	stp	x29, x30, [sp,#-80]!
/home/lagadanu/Desktop/qemu/optee_os/lib/libutee/tee_api_objects.c:620
    2694:	f100005f 	cmp	x2, #0x0
    2698:	fa401864 	ccmp	x3, #0x0, #0x4, ne
/home/lagadanu/Desktop/qemu/optee_os/lib/libutee/tee_api_objects.c:609
    269c:	910003fd 	mov	x29, sp
    26a0:	a90153f3 	stp	x19, x20, [sp,#16]
    26a4:	129fff33 	mov	w19, #0xffff0006            	// #-65530
/home/lagadanu/Desktop/qemu/optee_os/lib/libutee/tee_api_objects.c:620
    26a8:	54000180 	b.eq	26d8 <TEE_GetNextPersistentObject+0x48>
    26ac:	aa0303f4 	mov	x20, x3
/home/lagadanu/Desktop/qemu/optee_os/lib/libutee/tee_api_objects.c:629
    26b0:	910143a3 	add	x3, x29, #0x50
/home/lagadanu/Desktop/qemu/optee_os/lib/libutee/tee_api_objects.c:628
    26b4:	f100003f 	cmp	x1, #0x0
/home/lagadanu/Desktop/qemu/optee_os/lib/libutee/tee_api_objects.c:629
    26b8:	b9400284 	ldr	w4, [x20]
    26bc:	f81d8c64 	str	x4, [x3,#-40]!
/home/lagadanu/Desktop/qemu/optee_os/lib/libutee/tee_api_objects.c:630
    26c0:	9100c3a4 	add	x4, x29, #0x30
    26c4:	9a810081 	csel	x1, x4, x1, eq
    26c8:	940001da 	bl	2e30 <utee_storage_next_enum>
    26cc:	2a0003f3 	mov	w19, w0
/home/lagadanu/Desktop/qemu/optee_os/lib/libutee/tee_api_objects.c:632
    26d0:	f94017a0 	ldr	x0, [x29,#40]
    26d4:	b9000280 	str	w0, [x20]
/home/lagadanu/Desktop/qemu/optee_os/lib/libutee/tee_api_objects.c:635
    26d8:	7100027f 	cmp	w19, #0x0
    26dc:	129ffee0 	mov	w0, #0xffff0008            	// #-65528
    26e0:	7a401264 	ccmp	w19, w0, #0x4, ne
    26e4:	54000100 	b.eq	2704 <TEE_GetNextPersistentObject+0x74>
/home/lagadanu/Desktop/qemu/optee_os/lib/libutee/tee_api_objects.c:637
    26e8:	121e7a61 	and	w1, w19, #0xfffffffd
    26ec:	52800020 	mov	w0, #0x1                   	// #1
    26f0:	72be0200 	movk	w0, #0xf010, lsl #16
    26f4:	6b00003f 	cmp	w1, w0
    26f8:	54000060 	b.eq	2704 <TEE_GetNextPersistentObject+0x74>
/home/lagadanu/Desktop/qemu/optee_os/lib/libutee/tee_api_objects.c:639
    26fc:	2a1303e0 	mov	w0, w19
    2700:	94000083 	bl	290c <TEE_Panic>
/home/lagadanu/Desktop/qemu/optee_os/lib/libutee/tee_api_objects.c:642
    2704:	2a1303e0 	mov	w0, w19
    2708:	a94153f3 	ldp	x19, x20, [sp,#16]
    270c:	a8c57bfd 	ldp	x29, x30, [sp],#80
    2710:	d65f03c0 	ret

0000000000002714 <TEE_ReadObjectData>:
TEE_ReadObjectData():
/home/lagadanu/Desktop/qemu/optee_os/lib/libutee/tee_api_objects.c:648
    2714:	a9bd7bfd 	stp	x29, x30, [sp,#-48]!
    2718:	910003fd 	mov	x29, sp
    271c:	a90153f3 	stp	x19, x20, [sp,#16]
    2720:	129fff33 	mov	w19, #0xffff0006            	// #-65530
/home/lagadanu/Desktop/qemu/optee_os/lib/libutee/tee_api_objects.c:652
    2724:	b4000140 	cbz	x0, 274c <TEE_ReadObjectData+0x38>
    2728:	aa0303f4 	mov	x20, x3
/home/lagadanu/Desktop/qemu/optee_os/lib/libutee/tee_api_objects.c:657
    272c:	9100c3a3 	add	x3, x29, #0x30
/home/lagadanu/Desktop/qemu/optee_os/lib/libutee/tee_api_objects.c:658
    2730:	2a0203e2 	mov	w2, w2
/home/lagadanu/Desktop/qemu/optee_os/lib/libutee/tee_api_objects.c:657
    2734:	b9400284 	ldr	w4, [x20]
    2738:	f81f8c64 	str	x4, [x3,#-8]!
/home/lagadanu/Desktop/qemu/optee_os/lib/libutee/tee_api_objects.c:658
    273c:	940001c0 	bl	2e3c <utee_storage_obj_read>
    2740:	2a0003f3 	mov	w19, w0
/home/lagadanu/Desktop/qemu/optee_os/lib/libutee/tee_api_objects.c:660
    2744:	f94017a0 	ldr	x0, [x29,#40]
    2748:	b9000280 	str	w0, [x20]
/home/lagadanu/Desktop/qemu/optee_os/lib/libutee/tee_api_objects.c:664
    274c:	121e7a60 	and	w0, w19, #0xfffffffd
    2750:	7100027f 	cmp	w19, #0x0
    2754:	52800021 	mov	w1, #0x1                   	// #1
    2758:	72be0201 	movk	w1, #0xf010, lsl #16
    275c:	7a411004 	ccmp	w0, w1, #0x4, ne
    2760:	54000060 	b.eq	276c <TEE_ReadObjectData+0x58>
/home/lagadanu/Desktop/qemu/optee_os/lib/libutee/tee_api_objects.c:666
    2764:	2a1303e0 	mov	w0, w19
    2768:	94000069 	bl	290c <TEE_Panic>
/home/lagadanu/Desktop/qemu/optee_os/lib/libutee/tee_api_objects.c:669
    276c:	2a1303e0 	mov	w0, w19
    2770:	a94153f3 	ldp	x19, x20, [sp,#16]
    2774:	a8c37bfd 	ldp	x29, x30, [sp],#48
    2778:	d65f03c0 	ret

000000000000277c <TEE_WriteObjectData>:
TEE_WriteObjectData():
/home/lagadanu/Desktop/qemu/optee_os/lib/libutee/tee_api_objects.c:673
    277c:	a9be7bfd 	stp	x29, x30, [sp,#-32]!
    2780:	910003fd 	mov	x29, sp
    2784:	f9000bf3 	str	x19, [sp,#16]
    2788:	129fff33 	mov	w19, #0xffff0006            	// #-65530
/home/lagadanu/Desktop/qemu/optee_os/lib/libutee/tee_api_objects.c:676
    278c:	b4000080 	cbz	x0, 279c <TEE_WriteObjectData+0x20>
/home/lagadanu/Desktop/qemu/optee_os/lib/libutee/tee_api_objects.c:686
    2790:	2a0203e2 	mov	w2, w2
    2794:	940001ad 	bl	2e48 <utee_storage_obj_write>
    2798:	2a0003f3 	mov	w19, w0
/home/lagadanu/Desktop/qemu/optee_os/lib/libutee/tee_api_objects.c:689
    279c:	7100027f 	cmp	w19, #0x0
    27a0:	1299f7c0 	mov	w0, #0xffff3041            	// #-53183
    27a4:	7a401264 	ccmp	w19, w0, #0x4, ne
    27a8:	54000140 	b.eq	27d0 <TEE_WriteObjectData+0x54>
/home/lagadanu/Desktop/qemu/optee_os/lib/libutee/tee_api_objects.c:692
    27ac:	121e7a61 	and	w1, w19, #0xfffffffd
    27b0:	52800020 	mov	w0, #0x1                   	// #1
    27b4:	72be0200 	movk	w0, #0xf010, lsl #16
    27b8:	6b00003f 	cmp	w1, w0
    27bc:	1299fe00 	mov	w0, #0xffff300f            	// #-53233
    27c0:	7a401264 	ccmp	w19, w0, #0x4, ne
    27c4:	54000060 	b.eq	27d0 <TEE_WriteObjectData+0x54>
/home/lagadanu/Desktop/qemu/optee_os/lib/libutee/tee_api_objects.c:694
    27c8:	2a1303e0 	mov	w0, w19
    27cc:	94000050 	bl	290c <TEE_Panic>
/home/lagadanu/Desktop/qemu/optee_os/lib/libutee/tee_api_objects.c:697
    27d0:	2a1303e0 	mov	w0, w19
    27d4:	f9400bf3 	ldr	x19, [sp,#16]
    27d8:	a8c27bfd 	ldp	x29, x30, [sp],#32
    27dc:	d65f03c0 	ret

00000000000027e0 <TEE_TruncateObjectData>:
TEE_TruncateObjectData():
/home/lagadanu/Desktop/qemu/optee_os/lib/libutee/tee_api_objects.c:700
    27e0:	a9be7bfd 	stp	x29, x30, [sp,#-32]!
    27e4:	910003fd 	mov	x29, sp
    27e8:	f9000bf3 	str	x19, [sp,#16]
    27ec:	129fff33 	mov	w19, #0xffff0006            	// #-65530
/home/lagadanu/Desktop/qemu/optee_os/lib/libutee/tee_api_objects.c:703
    27f0:	b4000080 	cbz	x0, 2800 <TEE_TruncateObjectData+0x20>
/home/lagadanu/Desktop/qemu/optee_os/lib/libutee/tee_api_objects.c:708
    27f4:	2a0103e1 	mov	w1, w1
    27f8:	94000197 	bl	2e54 <utee_storage_obj_trunc>
    27fc:	2a0003f3 	mov	w19, w0
/home/lagadanu/Desktop/qemu/optee_os/lib/libutee/tee_api_objects.c:711
    2800:	7100027f 	cmp	w19, #0x0
    2804:	1299f7c0 	mov	w0, #0xffff3041            	// #-53183
    2808:	7a401264 	ccmp	w19, w0, #0x4, ne
    280c:	54000100 	b.eq	282c <TEE_TruncateObjectData+0x4c>
/home/lagadanu/Desktop/qemu/optee_os/lib/libutee/tee_api_objects.c:713
    2810:	121e7a61 	and	w1, w19, #0xfffffffd
    2814:	52800020 	mov	w0, #0x1                   	// #1
    2818:	72be0200 	movk	w0, #0xf010, lsl #16
    281c:	6b00003f 	cmp	w1, w0
    2820:	54000060 	b.eq	282c <TEE_TruncateObjectData+0x4c>
/home/lagadanu/Desktop/qemu/optee_os/lib/libutee/tee_api_objects.c:715
    2824:	2a1303e0 	mov	w0, w19
    2828:	94000039 	bl	290c <TEE_Panic>
/home/lagadanu/Desktop/qemu/optee_os/lib/libutee/tee_api_objects.c:718
    282c:	2a1303e0 	mov	w0, w19
    2830:	f9400bf3 	ldr	x19, [sp,#16]
    2834:	a8c27bfd 	ldp	x29, x30, [sp],#32
    2838:	d65f03c0 	ret

000000000000283c <TEE_SeekObjectData>:
TEE_SeekObjectData():
/home/lagadanu/Desktop/qemu/optee_os/lib/libutee/tee_api_objects.c:722
    283c:	a9bb7bfd 	stp	x29, x30, [sp,#-80]!
    2840:	910003fd 	mov	x29, sp
    2844:	a90153f3 	stp	x19, x20, [sp,#16]
/home/lagadanu/Desktop/qemu/optee_os/lib/libutee/tee_api_objects.c:727
    2848:	129fff33 	mov	w19, #0xffff0006            	// #-65530
/home/lagadanu/Desktop/qemu/optee_os/lib/libutee/tee_api_objects.c:722
    284c:	a9025bf5 	stp	x21, x22, [sp,#32]
/home/lagadanu/Desktop/qemu/optee_os/lib/libutee/tee_api_objects.c:726
    2850:	b40003e0 	cbz	x0, 28cc <TEE_SeekObjectData+0x90>
    2854:	aa0003f6 	mov	x22, x0
    2858:	2a0103f4 	mov	w20, w1
    285c:	2a0203f5 	mov	w21, w2
/home/lagadanu/Desktop/qemu/optee_os/lib/libutee/tee_api_objects.c:731
    2860:	9100c3a1 	add	x1, x29, #0x30
    2864:	94000128 	bl	2d04 <utee_cryp_obj_get_info>
    2868:	2a0003f3 	mov	w19, w0
/home/lagadanu/Desktop/qemu/optee_os/lib/libutee/tee_api_objects.c:732
    286c:	35000300 	cbnz	w0, 28cc <TEE_SeekObjectData+0x90>
/home/lagadanu/Desktop/qemu/optee_os/lib/libutee/tee_api_objects.c:735
    2870:	710006bf 	cmp	w21, #0x1
    2874:	540000c0 	b.eq	288c <TEE_SeekObjectData+0x50>
    2878:	34000115 	cbz	w21, 2898 <TEE_SeekObjectData+0x5c>
    287c:	71000abf 	cmp	w21, #0x2
    2880:	54000180 	b.eq	28b0 <TEE_SeekObjectData+0x74>
/home/lagadanu/Desktop/qemu/optee_os/lib/libutee/tee_api_objects.c:761
    2884:	129ffef3 	mov	w19, #0xffff0008            	// #-65528
    2888:	14000011 	b	28cc <TEE_SeekObjectData+0x90>
/home/lagadanu/Desktop/qemu/optee_os/lib/libutee/tee_api_objects.c:746
    288c:	b94047a0 	ldr	w0, [x29,#68]
/home/lagadanu/Desktop/qemu/optee_os/lib/libutee/tee_api_objects.c:743
    2890:	7100029f 	cmp	w20, #0x0
    2894:	5400014c 	b.gt	28bc <TEE_SeekObjectData+0x80>
/home/lagadanu/Desktop/qemu/optee_os/lib/libutee/tee_api_objects.c:765
    2898:	2a1503e2 	mov	w2, w21
    289c:	2a1403e1 	mov	w1, w20
    28a0:	aa1603e0 	mov	x0, x22
    28a4:	9400016f 	bl	2e60 <utee_storage_obj_seek>
    28a8:	2a0003f3 	mov	w19, w0
    28ac:	14000008 	b	28cc <TEE_SeekObjectData+0x90>
/home/lagadanu/Desktop/qemu/optee_os/lib/libutee/tee_api_objects.c:753
    28b0:	7100029f 	cmp	w20, #0x0
    28b4:	54ffff2d 	b.le	2898 <TEE_SeekObjectData+0x5c>
/home/lagadanu/Desktop/qemu/optee_os/lib/libutee/tee_api_objects.c:755 (discriminator 1)
    28b8:	b94043a0 	ldr	w0, [x29,#64]
    28bc:	0b000281 	add	w1, w20, w0
/home/lagadanu/Desktop/qemu/optee_os/lib/libutee/tee_api_objects.c:748 (discriminator 1)
    28c0:	1299fe13 	mov	w19, #0xffff300f            	// #-53233
/home/lagadanu/Desktop/qemu/optee_os/lib/libutee/tee_api_objects.c:753 (discriminator 1)
    28c4:	6b01001f 	cmp	w0, w1
    28c8:	54fffe89 	b.ls	2898 <TEE_SeekObjectData+0x5c>
/home/lagadanu/Desktop/qemu/optee_os/lib/libutee/tee_api_objects.c:768
    28cc:	7100027f 	cmp	w19, #0x0
    28d0:	1299fe00 	mov	w0, #0xffff300f            	// #-53233
    28d4:	7a401264 	ccmp	w19, w0, #0x4, ne
    28d8:	54000100 	b.eq	28f8 <TEE_SeekObjectData+0xbc>
/home/lagadanu/Desktop/qemu/optee_os/lib/libutee/tee_api_objects.c:770
    28dc:	121e7a61 	and	w1, w19, #0xfffffffd
    28e0:	52800020 	mov	w0, #0x1                   	// #1
    28e4:	72be0200 	movk	w0, #0xf010, lsl #16
    28e8:	6b00003f 	cmp	w1, w0
    28ec:	54000060 	b.eq	28f8 <TEE_SeekObjectData+0xbc>
/home/lagadanu/Desktop/qemu/optee_os/lib/libutee/tee_api_objects.c:772
    28f0:	2a1303e0 	mov	w0, w19
    28f4:	94000006 	bl	290c <TEE_Panic>
/home/lagadanu/Desktop/qemu/optee_os/lib/libutee/tee_api_objects.c:775
    28f8:	2a1303e0 	mov	w0, w19
    28fc:	a94153f3 	ldp	x19, x20, [sp,#16]
    2900:	a9425bf5 	ldp	x21, x22, [sp,#32]
    2904:	a8c57bfd 	ldp	x29, x30, [sp],#80
    2908:	d65f03c0 	ret

000000000000290c <TEE_Panic>:
TEE_Panic():
/home/lagadanu/Desktop/qemu/optee_os/lib/libutee/tee_api_panic.c:12
    290c:	2a0003e0 	mov	w0, w0
    2910:	140000b2 	b	2bd8 <utee_panic>

0000000000002914 <ta_header_get_session>:
ta_header_get_session():
/home/lagadanu/Desktop/qemu/optee_os/lib/libutee/arch/arm/user_ta_entry.c:78
    2914:	2a0003e1 	mov	w1, w0
/home/lagadanu/Desktop/qemu/optee_os/lib/libutee/arch/arm/user_ta_entry.c:81
    2918:	b0000040 	adrp	x0, b000 <filename>
    291c:	f9406400 	ldr	x0, [x0,#200]
/home/lagadanu/Desktop/qemu/optee_os/lib/libutee/arch/arm/user_ta_entry.c:81 (discriminator 1)
    2920:	b5000040 	cbnz	x0, 2928 <ta_header_get_session+0x14>
/home/lagadanu/Desktop/qemu/optee_os/lib/libutee/arch/arm/user_ta_entry.c:86
    2924:	d65f03c0 	ret
/home/lagadanu/Desktop/qemu/optee_os/lib/libutee/arch/arm/user_ta_entry.c:82
    2928:	b9400002 	ldr	w2, [x0]
    292c:	6b01005f 	cmp	w2, w1
    2930:	54ffffa0 	b.eq	2924 <ta_header_get_session+0x10>
/home/lagadanu/Desktop/qemu/optee_os/lib/libutee/arch/arm/user_ta_entry.c:81 (discriminator 2)
    2934:	f9400800 	ldr	x0, [x0,#16]
    2938:	17fffffa 	b	2920 <ta_header_get_session+0xc>

000000000000293c <ta_header_remove_session>:
ta_header_remove_session():
/home/lagadanu/Desktop/qemu/optee_os/lib/libutee/arch/arm/user_ta_entry.c:115
    293c:	a9be7bfd 	stp	x29, x30, [sp,#-32]!
    2940:	2a0003e2 	mov	w2, w0
    2944:	910003fd 	mov	x29, sp
    2948:	f9000bf3 	str	x19, [sp,#16]
/home/lagadanu/Desktop/qemu/optee_os/lib/libutee/arch/arm/user_ta_entry.c:119
    294c:	b0000053 	adrp	x19, b000 <filename>
    2950:	f9406660 	ldr	x0, [x19,#200]
/home/lagadanu/Desktop/qemu/optee_os/lib/libutee/arch/arm/user_ta_entry.c:119 (discriminator 1)
    2954:	b5000080 	cbnz	x0, 2964 <ta_header_remove_session+0x28>
/home/lagadanu/Desktop/qemu/optee_os/lib/libutee/arch/arm/user_ta_entry.c:133
    2958:	f9400bf3 	ldr	x19, [sp,#16]
    295c:	a8c27bfd 	ldp	x29, x30, [sp],#32
    2960:	d65f03c0 	ret
/home/lagadanu/Desktop/qemu/optee_os/lib/libutee/arch/arm/user_ta_entry.c:120
    2964:	b9400001 	ldr	w1, [x0]
    2968:	6b02003f 	cmp	w1, w2
    296c:	f9400801 	ldr	x1, [x0,#16]
    2970:	540002c1 	b.ne	29c8 <ta_header_remove_session+0x8c>
    2974:	f9400c02 	ldr	x2, [x0,#24]
/home/lagadanu/Desktop/qemu/optee_os/lib/libutee/arch/arm/user_ta_entry.c:121
    2978:	b4000221 	cbz	x1, 29bc <ta_header_remove_session+0x80>
/home/lagadanu/Desktop/qemu/optee_os/lib/libutee/arch/arm/user_ta_entry.c:121 (discriminator 1)
    297c:	f9000c22 	str	x2, [x1,#24]
/home/lagadanu/Desktop/qemu/optee_os/lib/libutee/arch/arm/user_ta_entry.c:121 (discriminator 4)
    2980:	f9400c02 	ldr	x2, [x0,#24]
    2984:	f9000041 	str	x1, [x2]
/home/lagadanu/Desktop/qemu/optee_os/lib/libutee/arch/arm/user_ta_entry.c:122 (discriminator 4)
    2988:	97fffcad 	bl	1c3c <TEE_Free>
/home/lagadanu/Desktop/qemu/optee_os/lib/libutee/arch/arm/user_ta_entry.c:125 (discriminator 4)
    298c:	f0000020 	adrp	x0, 9000 <PRIME_TABLE+0x960>
/home/lagadanu/Desktop/qemu/optee_os/lib/libutee/arch/arm/user_ta_entry.c:127 (discriminator 4)
    2990:	f9406661 	ldr	x1, [x19,#200]
/home/lagadanu/Desktop/qemu/optee_os/lib/libutee/arch/arm/user_ta_entry.c:125 (discriminator 4)
    2994:	52800282 	mov	w2, #0x14                  	// #20
    2998:	f9476c00 	ldr	x0, [x0,#3800]
/home/lagadanu/Desktop/qemu/optee_os/lib/libutee/arch/arm/user_ta_entry.c:127 (discriminator 4)
    299c:	f100003f 	cmp	x1, #0x0
/home/lagadanu/Desktop/qemu/optee_os/lib/libutee/arch/arm/user_ta_entry.c:125 (discriminator 4)
    29a0:	b9401400 	ldr	w0, [x0,#20]
    29a4:	0a020000 	and	w0, w0, w2
/home/lagadanu/Desktop/qemu/optee_os/lib/libutee/arch/arm/user_ta_entry.c:127 (discriminator 4)
    29a8:	7a420004 	ccmp	w0, w2, #0x4, eq
    29ac:	54fffd60 	b.eq	2958 <ta_header_remove_session+0x1c>
/home/lagadanu/Desktop/qemu/optee_os/lib/libutee/arch/arm/user_ta_entry.c:133
    29b0:	f9400bf3 	ldr	x19, [sp,#16]
    29b4:	a8c27bfd 	ldp	x29, x30, [sp],#32
uninit_instance():
/home/lagadanu/Desktop/qemu/optee_os/lib/libutee/arch/arm/user_ta_entry.c:63
    29b8:	17fff733 	b	684 <TA_DestroyEntryPoint>
ta_header_remove_session():
/home/lagadanu/Desktop/qemu/optee_os/lib/libutee/arch/arm/user_ta_entry.c:121 (discriminator 2)
    29bc:	91032263 	add	x3, x19, #0xc8
    29c0:	f9000462 	str	x2, [x3,#8]
    29c4:	17ffffef 	b	2980 <ta_header_remove_session+0x44>
/home/lagadanu/Desktop/qemu/optee_os/lib/libutee/arch/arm/user_ta_entry.c:119 (discriminator 2)
    29c8:	aa0103e0 	mov	x0, x1
    29cc:	17ffffe2 	b	2954 <ta_header_remove_session+0x18>

00000000000029d0 <__utee_entry>:
__utee_entry():
/home/lagadanu/Desktop/qemu/optee_os/lib/libutee/arch/arm/user_ta_entry.c:200
    29d0:	a9b77bfd 	stp	x29, x30, [sp,#-144]!
/home/lagadanu/Desktop/qemu/optee_os/lib/libutee/arch/arm/user_ta_entry.c:211
    29d4:	f100041f 	cmp	x0, #0x1
/home/lagadanu/Desktop/qemu/optee_os/lib/libutee/arch/arm/user_ta_entry.c:200
    29d8:	910003fd 	mov	x29, sp
    29dc:	a90153f3 	stp	x19, x20, [sp,#16]
    29e0:	aa0103f4 	mov	x20, x1
    29e4:	a9025bf5 	stp	x21, x22, [sp,#32]
    29e8:	f9001bf7 	str	x23, [sp,#48]
/home/lagadanu/Desktop/qemu/optee_os/lib/libutee/arch/arm/user_ta_entry.c:211
    29ec:	54000a60 	b.eq	2b38 <__utee_entry+0x168>
    29f0:	aa0203f6 	mov	x22, x2
    29f4:	b40000e0 	cbz	x0, 2a10 <__utee_entry+0x40>
    29f8:	f100081f 	cmp	x0, #0x2
    29fc:	54000b20 	b.eq	2b60 <__utee_entry+0x190>
/home/lagadanu/Desktop/qemu/optee_os/lib/libutee/arch/arm/user_ta_entry.c:223
    2a00:	52800000 	mov	w0, #0x0                   	// #0
/home/lagadanu/Desktop/qemu/optee_os/lib/libutee/arch/arm/user_ta_entry.c:222
    2a04:	12800013 	mov	w19, #0xffffffff            	// #-1
/home/lagadanu/Desktop/qemu/optee_os/lib/libutee/arch/arm/user_ta_entry.c:223
    2a08:	97ffffc1 	bl	290c <TEE_Panic>
/home/lagadanu/Desktop/qemu/optee_os/lib/libutee/arch/arm/user_ta_entry.c:224
    2a0c:	1400000c 	b	2a3c <__utee_entry+0x6c>
ta_header_add_session():
/home/lagadanu/Desktop/qemu/optee_os/lib/libutee/arch/arm/user_ta_entry.c:90
    2a10:	2a0103e0 	mov	w0, w1
    2a14:	97ffffc0 	bl	2914 <ta_header_get_session>
/home/lagadanu/Desktop/qemu/optee_os/lib/libutee/arch/arm/user_ta_entry.c:93
    2a18:	b5000520 	cbnz	x0, 2abc <__utee_entry+0xec>
/home/lagadanu/Desktop/qemu/optee_os/lib/libutee/arch/arm/user_ta_entry.c:96
    2a1c:	f0000080 	adrp	x0, 15000 <buf.3610+0x500>
    2a20:	396d4001 	ldrb	w1, [x0,#2896]
    2a24:	340001e1 	cbz	w1, 2a60 <__utee_entry+0x90>
/home/lagadanu/Desktop/qemu/optee_os/lib/libutee/arch/arm/user_ta_entry.c:103
    2a28:	52b00001 	mov	w1, #0x80000000            	// #-2147483648
    2a2c:	52800400 	mov	w0, #0x20                  	// #32
/home/lagadanu/Desktop/qemu/optee_os/lib/libutee/arch/arm/user_ta_entry.c:106
    2a30:	129ffe73 	mov	w19, #0xffff000c            	// #-65524
/home/lagadanu/Desktop/qemu/optee_os/lib/libutee/arch/arm/user_ta_entry.c:103
    2a34:	97fffc69 	bl	1bd8 <TEE_Malloc>
/home/lagadanu/Desktop/qemu/optee_os/lib/libutee/arch/arm/user_ta_entry.c:105
    2a38:	b5000300 	cbnz	x0, 2a98 <__utee_entry+0xc8>
ta_header_save_params():
/home/lagadanu/Desktop/qemu/optee_os/lib/libutee/arch/arm/user_ta_entry.c:69
    2a3c:	f0000020 	adrp	x0, 9000 <PRIME_TABLE+0x960>
/home/lagadanu/Desktop/qemu/optee_os/lib/libutee/arch/arm/user_ta_entry.c:74
    2a40:	d2800802 	mov	x2, #0x40                  	// #64
/home/lagadanu/Desktop/qemu/optee_os/lib/libutee/arch/arm/user_ta_entry.c:69
    2a44:	f9476001 	ldr	x1, [x0,#3776]
/home/lagadanu/Desktop/qemu/optee_os/lib/libutee/arch/arm/user_ta_entry.c:74
    2a48:	f9476800 	ldr	x0, [x0,#3792]
/home/lagadanu/Desktop/qemu/optee_os/lib/libutee/arch/arm/user_ta_entry.c:69
    2a4c:	b900003f 	str	wzr, [x1]
/home/lagadanu/Desktop/qemu/optee_os/lib/libutee/arch/arm/user_ta_entry.c:74
    2a50:	52800001 	mov	w1, #0x0                   	// #0
    2a54:	9400165d 	bl	83c8 <memset>
__utee_entry():
/home/lagadanu/Desktop/qemu/optee_os/lib/libutee/arch/arm/user_ta_entry.c:227
    2a58:	2a1303e0 	mov	w0, w19
    2a5c:	94000062 	bl	2be4 <utee_return>
ta_header_add_session():
/home/lagadanu/Desktop/qemu/optee_os/lib/libutee/arch/arm/user_ta_entry.c:97
    2a60:	52800021 	mov	w1, #0x1                   	// #1
    2a64:	392d4001 	strb	w1, [x0,#2896]
init_instance():
/home/lagadanu/Desktop/qemu/optee_os/lib/libutee/arch/arm/user_ta_entry.c:53
    2a68:	97fff70f 	bl	6a4 <tahead_get_trace_level>
    2a6c:	97fff710 	bl	6ac <trace_set_level>
/home/lagadanu/Desktop/qemu/optee_os/lib/libutee/arch/arm/user_ta_entry.c:55
    2a70:	f0000020 	adrp	x0, 9000 <PRIME_TABLE+0x960>
    2a74:	f9474c01 	ldr	x1, [x0,#3736]
    2a78:	f9475c00 	ldr	x0, [x0,#3768]
    2a7c:	f9400021 	ldr	x1, [x1]
    2a80:	94001538 	bl	7f60 <malloc_add_pool>
/home/lagadanu/Desktop/qemu/optee_os/lib/libutee/arch/arm/user_ta_entry.c:56
    2a84:	9400012e 	bl	2f3c <_TEE_MathAPI_Init>
/home/lagadanu/Desktop/qemu/optee_os/lib/libutee/arch/arm/user_ta_entry.c:57
    2a88:	97fff6fd 	bl	67c <TA_CreateEntryPoint>
    2a8c:	2a0003f3 	mov	w19, w0
ta_header_add_session():
/home/lagadanu/Desktop/qemu/optee_os/lib/libutee/arch/arm/user_ta_entry.c:99
    2a90:	34fffcc0 	cbz	w0, 2a28 <__utee_entry+0x58>
    2a94:	17ffffea 	b	2a3c <__utee_entry+0x6c>
/home/lagadanu/Desktop/qemu/optee_os/lib/libutee/arch/arm/user_ta_entry.c:109
    2a98:	b0000041 	adrp	x1, b000 <filename>
    2a9c:	91032021 	add	x1, x1, #0xc8
    2aa0:	f9400422 	ldr	x2, [x1,#8]
    2aa4:	f9000c02 	str	x2, [x0,#24]
/home/lagadanu/Desktop/qemu/optee_os/lib/libutee/arch/arm/user_ta_entry.c:107
    2aa8:	b9000014 	str	w20, [x0]
/home/lagadanu/Desktop/qemu/optee_os/lib/libutee/arch/arm/user_ta_entry.c:109
    2aac:	a900fc1f 	stp	xzr, xzr, [x0,#8]
    2ab0:	f9000040 	str	x0, [x2]
    2ab4:	91004000 	add	x0, x0, #0x10
    2ab8:	f9000420 	str	x0, [x1,#8]
entry_open_session():
/home/lagadanu/Desktop/qemu/optee_os/lib/libutee/arch/arm/user_ta_entry.c:147
    2abc:	2a1403e0 	mov	w0, w20
/home/lagadanu/Desktop/qemu/optee_os/lib/libutee/arch/arm/user_ta_entry.c:149
    2ac0:	129fff13 	mov	w19, #0xffff0007            	// #-65529
/home/lagadanu/Desktop/qemu/optee_os/lib/libutee/arch/arm/user_ta_entry.c:147
    2ac4:	97ffff94 	bl	2914 <ta_header_get_session>
    2ac8:	aa0003f7 	mov	x23, x0
/home/lagadanu/Desktop/qemu/optee_os/lib/libutee/arch/arm/user_ta_entry.c:148
    2acc:	b4fffb80 	cbz	x0, 2a3c <__utee_entry+0x6c>
/home/lagadanu/Desktop/qemu/optee_os/lib/libutee/arch/arm/user_ta_entry.c:151
    2ad0:	910143b5 	add	x21, x29, #0x50
    2ad4:	aa1603e2 	mov	x2, x22
    2ad8:	910133a1 	add	x1, x29, #0x4c
    2adc:	aa1503e0 	mov	x0, x21
    2ae0:	97fffb43 	bl	17ec <__utee_to_param>
/home/lagadanu/Desktop/qemu/optee_os/lib/libutee/arch/arm/user_ta_entry.c:152
    2ae4:	b9404fb3 	ldr	w19, [x29,#76]
ta_header_save_params():
/home/lagadanu/Desktop/qemu/optee_os/lib/libutee/arch/arm/user_ta_entry.c:69
    2ae8:	f0000020 	adrp	x0, 9000 <PRIME_TABLE+0x960>
/home/lagadanu/Desktop/qemu/optee_os/lib/libutee/arch/arm/user_ta_entry.c:72
    2aec:	d2800802 	mov	x2, #0x40                  	// #64
/home/lagadanu/Desktop/qemu/optee_os/lib/libutee/arch/arm/user_ta_entry.c:69
    2af0:	f9476001 	ldr	x1, [x0,#3776]
/home/lagadanu/Desktop/qemu/optee_os/lib/libutee/arch/arm/user_ta_entry.c:72
    2af4:	f9476800 	ldr	x0, [x0,#3792]
/home/lagadanu/Desktop/qemu/optee_os/lib/libutee/arch/arm/user_ta_entry.c:69
    2af8:	b9000033 	str	w19, [x1]
/home/lagadanu/Desktop/qemu/optee_os/lib/libutee/arch/arm/user_ta_entry.c:72
    2afc:	aa1503e1 	mov	x1, x21
    2b00:	97fffab0 	bl	15c0 <memcpy>
entry_open_session():
/home/lagadanu/Desktop/qemu/optee_os/lib/libutee/arch/arm/user_ta_entry.c:154
    2b04:	910022e2 	add	x2, x23, #0x8
    2b08:	aa1503e1 	mov	x1, x21
    2b0c:	2a1303e0 	mov	w0, w19
    2b10:	97fff6de 	bl	688 <TA_OpenSessionEntryPoint>
/home/lagadanu/Desktop/qemu/optee_os/lib/libutee/arch/arm/user_ta_entry.c:157
    2b14:	b9404fa1 	ldr	w1, [x29,#76]
/home/lagadanu/Desktop/qemu/optee_os/lib/libutee/arch/arm/user_ta_entry.c:154
    2b18:	2a0003f3 	mov	w19, w0
/home/lagadanu/Desktop/qemu/optee_os/lib/libutee/arch/arm/user_ta_entry.c:157
    2b1c:	aa1503e2 	mov	x2, x21
    2b20:	aa1603e0 	mov	x0, x22
    2b24:	97fffb14 	bl	1774 <__utee_from_param>
/home/lagadanu/Desktop/qemu/optee_os/lib/libutee/arch/arm/user_ta_entry.c:159
    2b28:	34fff8b3 	cbz	w19, 2a3c <__utee_entry+0x6c>
/home/lagadanu/Desktop/qemu/optee_os/lib/libutee/arch/arm/user_ta_entry.c:160
    2b2c:	2a1403e0 	mov	w0, w20
    2b30:	97ffff83 	bl	293c <ta_header_remove_session>
    2b34:	17ffffc2 	b	2a3c <__utee_entry+0x6c>
entry_close_session():
/home/lagadanu/Desktop/qemu/optee_os/lib/libutee/arch/arm/user_ta_entry.c:166
    2b38:	2a0103e0 	mov	w0, w1
/home/lagadanu/Desktop/qemu/optee_os/lib/libutee/arch/arm/user_ta_entry.c:169
    2b3c:	129fff13 	mov	w19, #0xffff0007            	// #-65529
/home/lagadanu/Desktop/qemu/optee_os/lib/libutee/arch/arm/user_ta_entry.c:166
    2b40:	97ffff75 	bl	2914 <ta_header_get_session>
/home/lagadanu/Desktop/qemu/optee_os/lib/libutee/arch/arm/user_ta_entry.c:168
    2b44:	b4fff7c0 	cbz	x0, 2a3c <__utee_entry+0x6c>
/home/lagadanu/Desktop/qemu/optee_os/lib/libutee/arch/arm/user_ta_entry.c:171
    2b48:	f9400400 	ldr	x0, [x0,#8]
/home/lagadanu/Desktop/qemu/optee_os/lib/libutee/arch/arm/user_ta_entry.c:174
    2b4c:	52800013 	mov	w19, #0x0                   	// #0
/home/lagadanu/Desktop/qemu/optee_os/lib/libutee/arch/arm/user_ta_entry.c:171
    2b50:	97fff6d0 	bl	690 <TA_CloseSessionEntryPoint>
/home/lagadanu/Desktop/qemu/optee_os/lib/libutee/arch/arm/user_ta_entry.c:173
    2b54:	2a1403e0 	mov	w0, w20
    2b58:	97ffff79 	bl	293c <ta_header_remove_session>
    2b5c:	17ffffb8 	b	2a3c <__utee_entry+0x6c>
entry_invoke_command():
/home/lagadanu/Desktop/qemu/optee_os/lib/libutee/arch/arm/user_ta_entry.c:183
    2b60:	2a0103e0 	mov	w0, w1
/home/lagadanu/Desktop/qemu/optee_os/lib/libutee/arch/arm/user_ta_entry.c:186
    2b64:	129fff13 	mov	w19, #0xffff0007            	// #-65529
/home/lagadanu/Desktop/qemu/optee_os/lib/libutee/arch/arm/user_ta_entry.c:183
    2b68:	97ffff6b 	bl	2914 <ta_header_get_session>
    2b6c:	aa0003f5 	mov	x21, x0
/home/lagadanu/Desktop/qemu/optee_os/lib/libutee/arch/arm/user_ta_entry.c:185
    2b70:	b4fff660 	cbz	x0, 2a3c <__utee_entry+0x6c>
/home/lagadanu/Desktop/qemu/optee_os/lib/libutee/arch/arm/user_ta_entry.c:188
    2b74:	910143b4 	add	x20, x29, #0x50
    2b78:	aa0303f7 	mov	x23, x3
    2b7c:	aa1603e2 	mov	x2, x22
    2b80:	910133a1 	add	x1, x29, #0x4c
    2b84:	aa1403e0 	mov	x0, x20
    2b88:	97fffb19 	bl	17ec <__utee_to_param>
ta_header_save_params():
/home/lagadanu/Desktop/qemu/optee_os/lib/libutee/arch/arm/user_ta_entry.c:69
    2b8c:	f0000020 	adrp	x0, 9000 <PRIME_TABLE+0x960>
entry_invoke_command():
/home/lagadanu/Desktop/qemu/optee_os/lib/libutee/arch/arm/user_ta_entry.c:189
    2b90:	b9404fb3 	ldr	w19, [x29,#76]
ta_header_save_params():
/home/lagadanu/Desktop/qemu/optee_os/lib/libutee/arch/arm/user_ta_entry.c:72
    2b94:	d2800802 	mov	x2, #0x40                  	// #64
/home/lagadanu/Desktop/qemu/optee_os/lib/libutee/arch/arm/user_ta_entry.c:69
    2b98:	f9476001 	ldr	x1, [x0,#3776]
/home/lagadanu/Desktop/qemu/optee_os/lib/libutee/arch/arm/user_ta_entry.c:72
    2b9c:	f9476800 	ldr	x0, [x0,#3792]
/home/lagadanu/Desktop/qemu/optee_os/lib/libutee/arch/arm/user_ta_entry.c:69
    2ba0:	b9000033 	str	w19, [x1]
/home/lagadanu/Desktop/qemu/optee_os/lib/libutee/arch/arm/user_ta_entry.c:72
    2ba4:	aa1403e1 	mov	x1, x20
    2ba8:	97fffa86 	bl	15c0 <memcpy>
entry_invoke_command():
/home/lagadanu/Desktop/qemu/optee_os/lib/libutee/arch/arm/user_ta_entry.c:191
    2bac:	f94006a0 	ldr	x0, [x21,#8]
    2bb0:	2a1303e2 	mov	w2, w19
    2bb4:	2a1703e1 	mov	w1, w23
    2bb8:	aa1403e3 	mov	x3, x20
    2bbc:	97fff6b6 	bl	694 <TA_InvokeCommandEntryPoint>
    2bc0:	2a0003f3 	mov	w19, w0
/home/lagadanu/Desktop/qemu/optee_os/lib/libutee/arch/arm/user_ta_entry.c:194
    2bc4:	b9404fa1 	ldr	w1, [x29,#76]
    2bc8:	aa1403e2 	mov	x2, x20
    2bcc:	aa1603e0 	mov	x0, x22
    2bd0:	97fffae9 	bl	1774 <__utee_from_param>
    2bd4:	17ffff9a 	b	2a3c <__utee_entry+0x6c>

0000000000002bd8 <utee_panic>:
utee_panic():
/home/lagadanu/Desktop/qemu/optee_os/lib/libutee/arch/arm/utee_syscalls_a64.S:24
    2bd8:	a9bf7bfd 	stp	x29, x30, [sp,#-16]!
/home/lagadanu/Desktop/qemu/optee_os/lib/libutee/arch/arm/utee_syscalls_a64.S:25
    2bdc:	910003e1 	mov	x1, sp
/home/lagadanu/Desktop/qemu/optee_os/lib/libutee/arch/arm/utee_syscalls_a64.S:26
    2be0:	94000007 	bl	2bfc <__utee_panic>

0000000000002be4 <utee_return>:
utee_return():
/home/lagadanu/Desktop/qemu/optee_os/lib/libutee/arch/arm/utee_syscalls_asm.S:8
    2be4:	d2800008 	mov	x8, #0x0                   	// #0
    2be8:	d4000001 	svc	#0x0
    2bec:	d65f03c0 	ret

0000000000002bf0 <utee_log>:
utee_log():
/home/lagadanu/Desktop/qemu/optee_os/lib/libutee/arch/arm/utee_syscalls_asm.S:10
    2bf0:	d2800028 	mov	x8, #0x1                   	// #1
    2bf4:	d4000001 	svc	#0x0
    2bf8:	d65f03c0 	ret

0000000000002bfc <__utee_panic>:
__utee_panic():
/home/lagadanu/Desktop/qemu/optee_os/lib/libutee/arch/arm/utee_syscalls_asm.S:12
    2bfc:	d2800048 	mov	x8, #0x2                   	// #2
    2c00:	d4000001 	svc	#0x0
    2c04:	d65f03c0 	ret

0000000000002c08 <utee_get_property>:
utee_get_property():
/home/lagadanu/Desktop/qemu/optee_os/lib/libutee/arch/arm/utee_syscalls_asm.S:14
    2c08:	d2800068 	mov	x8, #0x3                   	// #3
    2c0c:	d4000001 	svc	#0x0
    2c10:	d65f03c0 	ret

0000000000002c14 <utee_get_property_name_to_index>:
utee_get_property_name_to_index():
/home/lagadanu/Desktop/qemu/optee_os/lib/libutee/arch/arm/utee_syscalls_asm.S:16
    2c14:	d2800088 	mov	x8, #0x4                   	// #4
    2c18:	d4000001 	svc	#0x0
    2c1c:	d65f03c0 	ret

0000000000002c20 <utee_open_ta_session>:
utee_open_ta_session():
/home/lagadanu/Desktop/qemu/optee_os/lib/libutee/arch/arm/utee_syscalls_asm.S:19
    2c20:	d28000a8 	mov	x8, #0x5                   	// #5
    2c24:	d4000001 	svc	#0x0
    2c28:	d65f03c0 	ret

0000000000002c2c <utee_close_ta_session>:
utee_close_ta_session():
/home/lagadanu/Desktop/qemu/optee_os/lib/libutee/arch/arm/utee_syscalls_asm.S:21
    2c2c:	d28000c8 	mov	x8, #0x6                   	// #6
    2c30:	d4000001 	svc	#0x0
    2c34:	d65f03c0 	ret

0000000000002c38 <utee_invoke_ta_command>:
utee_invoke_ta_command():
/home/lagadanu/Desktop/qemu/optee_os/lib/libutee/arch/arm/utee_syscalls_asm.S:23
    2c38:	d28000e8 	mov	x8, #0x7                   	// #7
    2c3c:	d4000001 	svc	#0x0
    2c40:	d65f03c0 	ret

0000000000002c44 <utee_get_cancellation_flag>:
utee_get_cancellation_flag():
/home/lagadanu/Desktop/qemu/optee_os/lib/libutee/arch/arm/utee_syscalls_asm.S:25
    2c44:	d2800128 	mov	x8, #0x9                   	// #9
    2c48:	d4000001 	svc	#0x0
    2c4c:	d65f03c0 	ret

0000000000002c50 <utee_check_access_rights>:
utee_check_access_rights():
/home/lagadanu/Desktop/qemu/optee_os/lib/libutee/arch/arm/utee_syscalls_asm.S:28
    2c50:	d2800108 	mov	x8, #0x8                   	// #8
    2c54:	d4000001 	svc	#0x0
    2c58:	d65f03c0 	ret

0000000000002c5c <utee_unmask_cancellation>:
utee_unmask_cancellation():
/home/lagadanu/Desktop/qemu/optee_os/lib/libutee/arch/arm/utee_syscalls_asm.S:30
    2c5c:	d2800148 	mov	x8, #0xa                   	// #10
    2c60:	d4000001 	svc	#0x0
    2c64:	d65f03c0 	ret

0000000000002c68 <utee_mask_cancellation>:
utee_mask_cancellation():
/home/lagadanu/Desktop/qemu/optee_os/lib/libutee/arch/arm/utee_syscalls_asm.S:32
    2c68:	d2800168 	mov	x8, #0xb                   	// #11
    2c6c:	d4000001 	svc	#0x0
    2c70:	d65f03c0 	ret

0000000000002c74 <utee_wait>:
utee_wait():
/home/lagadanu/Desktop/qemu/optee_os/lib/libutee/arch/arm/utee_syscalls_asm.S:34
    2c74:	d2800188 	mov	x8, #0xc                   	// #12
    2c78:	d4000001 	svc	#0x0
    2c7c:	d65f03c0 	ret

0000000000002c80 <utee_get_time>:
utee_get_time():
/home/lagadanu/Desktop/qemu/optee_os/lib/libutee/arch/arm/utee_syscalls_asm.S:36
    2c80:	d28001a8 	mov	x8, #0xd                   	// #13
    2c84:	d4000001 	svc	#0x0
    2c88:	d65f03c0 	ret

0000000000002c8c <utee_set_ta_time>:
utee_set_ta_time():
/home/lagadanu/Desktop/qemu/optee_os/lib/libutee/arch/arm/utee_syscalls_asm.S:38
    2c8c:	d28001c8 	mov	x8, #0xe                   	// #14
    2c90:	d4000001 	svc	#0x0
    2c94:	d65f03c0 	ret

0000000000002c98 <utee_cryp_state_alloc>:
utee_cryp_state_alloc():
/home/lagadanu/Desktop/qemu/optee_os/lib/libutee/arch/arm/utee_syscalls_asm.S:40
    2c98:	d28001e8 	mov	x8, #0xf                   	// #15
    2c9c:	d4000001 	svc	#0x0
    2ca0:	d65f03c0 	ret

0000000000002ca4 <utee_cryp_state_copy>:
utee_cryp_state_copy():
/home/lagadanu/Desktop/qemu/optee_os/lib/libutee/arch/arm/utee_syscalls_asm.S:42
    2ca4:	d2800208 	mov	x8, #0x10                  	// #16
    2ca8:	d4000001 	svc	#0x0
    2cac:	d65f03c0 	ret

0000000000002cb0 <utee_cryp_state_free>:
utee_cryp_state_free():
/home/lagadanu/Desktop/qemu/optee_os/lib/libutee/arch/arm/utee_syscalls_asm.S:44
    2cb0:	d2800228 	mov	x8, #0x11                  	// #17
    2cb4:	d4000001 	svc	#0x0
    2cb8:	d65f03c0 	ret

0000000000002cbc <utee_hash_init>:
utee_hash_init():
/home/lagadanu/Desktop/qemu/optee_os/lib/libutee/arch/arm/utee_syscalls_asm.S:46
    2cbc:	d2800248 	mov	x8, #0x12                  	// #18
    2cc0:	d4000001 	svc	#0x0
    2cc4:	d65f03c0 	ret

0000000000002cc8 <utee_hash_update>:
utee_hash_update():
/home/lagadanu/Desktop/qemu/optee_os/lib/libutee/arch/arm/utee_syscalls_asm.S:48
    2cc8:	d2800268 	mov	x8, #0x13                  	// #19
    2ccc:	d4000001 	svc	#0x0
    2cd0:	d65f03c0 	ret

0000000000002cd4 <utee_hash_final>:
utee_hash_final():
/home/lagadanu/Desktop/qemu/optee_os/lib/libutee/arch/arm/utee_syscalls_asm.S:50
    2cd4:	d2800288 	mov	x8, #0x14                  	// #20
    2cd8:	d4000001 	svc	#0x0
    2cdc:	d65f03c0 	ret

0000000000002ce0 <utee_cipher_init>:
utee_cipher_init():
/home/lagadanu/Desktop/qemu/optee_os/lib/libutee/arch/arm/utee_syscalls_asm.S:52
    2ce0:	d28002a8 	mov	x8, #0x15                  	// #21
    2ce4:	d4000001 	svc	#0x0
    2ce8:	d65f03c0 	ret

0000000000002cec <utee_cipher_update>:
utee_cipher_update():
/home/lagadanu/Desktop/qemu/optee_os/lib/libutee/arch/arm/utee_syscalls_asm.S:54
    2cec:	d28002c8 	mov	x8, #0x16                  	// #22
    2cf0:	d4000001 	svc	#0x0
    2cf4:	d65f03c0 	ret

0000000000002cf8 <utee_cipher_final>:
utee_cipher_final():
/home/lagadanu/Desktop/qemu/optee_os/lib/libutee/arch/arm/utee_syscalls_asm.S:56
    2cf8:	d28002e8 	mov	x8, #0x17                  	// #23
    2cfc:	d4000001 	svc	#0x0
    2d00:	d65f03c0 	ret

0000000000002d04 <utee_cryp_obj_get_info>:
utee_cryp_obj_get_info():
/home/lagadanu/Desktop/qemu/optee_os/lib/libutee/arch/arm/utee_syscalls_asm.S:58
    2d04:	d2800308 	mov	x8, #0x18                  	// #24
    2d08:	d4000001 	svc	#0x0
    2d0c:	d65f03c0 	ret

0000000000002d10 <utee_cryp_obj_restrict_usage>:
utee_cryp_obj_restrict_usage():
/home/lagadanu/Desktop/qemu/optee_os/lib/libutee/arch/arm/utee_syscalls_asm.S:60
    2d10:	d2800328 	mov	x8, #0x19                  	// #25
    2d14:	d4000001 	svc	#0x0
    2d18:	d65f03c0 	ret

0000000000002d1c <utee_cryp_obj_get_attr>:
utee_cryp_obj_get_attr():
/home/lagadanu/Desktop/qemu/optee_os/lib/libutee/arch/arm/utee_syscalls_asm.S:63
    2d1c:	d2800348 	mov	x8, #0x1a                  	// #26
    2d20:	d4000001 	svc	#0x0
    2d24:	d65f03c0 	ret

0000000000002d28 <utee_cryp_obj_alloc>:
utee_cryp_obj_alloc():
/home/lagadanu/Desktop/qemu/optee_os/lib/libutee/arch/arm/utee_syscalls_asm.S:65
    2d28:	d2800368 	mov	x8, #0x1b                  	// #27
    2d2c:	d4000001 	svc	#0x0
    2d30:	d65f03c0 	ret

0000000000002d34 <utee_cryp_obj_close>:
utee_cryp_obj_close():
/home/lagadanu/Desktop/qemu/optee_os/lib/libutee/arch/arm/utee_syscalls_asm.S:67
    2d34:	d2800388 	mov	x8, #0x1c                  	// #28
    2d38:	d4000001 	svc	#0x0
    2d3c:	d65f03c0 	ret

0000000000002d40 <utee_cryp_obj_reset>:
utee_cryp_obj_reset():
/home/lagadanu/Desktop/qemu/optee_os/lib/libutee/arch/arm/utee_syscalls_asm.S:69
    2d40:	d28003a8 	mov	x8, #0x1d                  	// #29
    2d44:	d4000001 	svc	#0x0
    2d48:	d65f03c0 	ret

0000000000002d4c <utee_cryp_obj_populate>:
utee_cryp_obj_populate():
/home/lagadanu/Desktop/qemu/optee_os/lib/libutee/arch/arm/utee_syscalls_asm.S:71
    2d4c:	d28003c8 	mov	x8, #0x1e                  	// #30
    2d50:	d4000001 	svc	#0x0
    2d54:	d65f03c0 	ret

0000000000002d58 <utee_cryp_obj_copy>:
utee_cryp_obj_copy():
/home/lagadanu/Desktop/qemu/optee_os/lib/libutee/arch/arm/utee_syscalls_asm.S:73
    2d58:	d28003e8 	mov	x8, #0x1f                  	// #31
    2d5c:	d4000001 	svc	#0x0
    2d60:	d65f03c0 	ret

0000000000002d64 <utee_cryp_derive_key>:
utee_cryp_derive_key():
/home/lagadanu/Desktop/qemu/optee_os/lib/libutee/arch/arm/utee_syscalls_asm.S:75
    2d64:	d2800408 	mov	x8, #0x20                  	// #32
    2d68:	d4000001 	svc	#0x0
    2d6c:	d65f03c0 	ret

0000000000002d70 <utee_cryp_random_number_generate>:
utee_cryp_random_number_generate():
/home/lagadanu/Desktop/qemu/optee_os/lib/libutee/arch/arm/utee_syscalls_asm.S:77
    2d70:	d2800428 	mov	x8, #0x21                  	// #33
    2d74:	d4000001 	svc	#0x0
    2d78:	d65f03c0 	ret

0000000000002d7c <utee_authenc_init>:
utee_authenc_init():
/home/lagadanu/Desktop/qemu/optee_os/lib/libutee/arch/arm/utee_syscalls_asm.S:80
    2d7c:	d2800448 	mov	x8, #0x22                  	// #34
    2d80:	d4000001 	svc	#0x0
    2d84:	d65f03c0 	ret

0000000000002d88 <utee_authenc_update_aad>:
utee_authenc_update_aad():
/home/lagadanu/Desktop/qemu/optee_os/lib/libutee/arch/arm/utee_syscalls_asm.S:82
    2d88:	d2800468 	mov	x8, #0x23                  	// #35
    2d8c:	d4000001 	svc	#0x0
    2d90:	d65f03c0 	ret

0000000000002d94 <utee_authenc_update_payload>:
utee_authenc_update_payload():
/home/lagadanu/Desktop/qemu/optee_os/lib/libutee/arch/arm/utee_syscalls_asm.S:84
    2d94:	d2800488 	mov	x8, #0x24                  	// #36
    2d98:	d4000001 	svc	#0x0
    2d9c:	d65f03c0 	ret

0000000000002da0 <utee_authenc_enc_final>:
utee_authenc_enc_final():
/home/lagadanu/Desktop/qemu/optee_os/lib/libutee/arch/arm/utee_syscalls_asm.S:87
    2da0:	d28004a8 	mov	x8, #0x25                  	// #37
    2da4:	d4000001 	svc	#0x0
    2da8:	d65f03c0 	ret

0000000000002dac <utee_authenc_dec_final>:
utee_authenc_dec_final():
/home/lagadanu/Desktop/qemu/optee_os/lib/libutee/arch/arm/utee_syscalls_asm.S:89
    2dac:	d28004c8 	mov	x8, #0x26                  	// #38
    2db0:	d4000001 	svc	#0x0
    2db4:	d65f03c0 	ret

0000000000002db8 <utee_asymm_operate>:
utee_asymm_operate():
/home/lagadanu/Desktop/qemu/optee_os/lib/libutee/arch/arm/utee_syscalls_asm.S:91
    2db8:	d28004e8 	mov	x8, #0x27                  	// #39
    2dbc:	d4000001 	svc	#0x0
    2dc0:	d65f03c0 	ret

0000000000002dc4 <utee_asymm_verify>:
utee_asymm_verify():
/home/lagadanu/Desktop/qemu/optee_os/lib/libutee/arch/arm/utee_syscalls_asm.S:93
    2dc4:	d2800508 	mov	x8, #0x28                  	// #40
    2dc8:	d4000001 	svc	#0x0
    2dcc:	d65f03c0 	ret

0000000000002dd0 <utee_storage_obj_open>:
utee_storage_obj_open():
/home/lagadanu/Desktop/qemu/optee_os/lib/libutee/arch/arm/utee_syscalls_asm.S:95
    2dd0:	d2800528 	mov	x8, #0x29                  	// #41
    2dd4:	d4000001 	svc	#0x0
    2dd8:	d65f03c0 	ret

0000000000002ddc <utee_storage_obj_create>:
utee_storage_obj_create():
/home/lagadanu/Desktop/qemu/optee_os/lib/libutee/arch/arm/utee_syscalls_asm.S:97
    2ddc:	d2800548 	mov	x8, #0x2a                  	// #42
    2de0:	d4000001 	svc	#0x0
    2de4:	d65f03c0 	ret

0000000000002de8 <utee_storage_obj_del>:
utee_storage_obj_del():
/home/lagadanu/Desktop/qemu/optee_os/lib/libutee/arch/arm/utee_syscalls_asm.S:99
    2de8:	d2800568 	mov	x8, #0x2b                  	// #43
    2dec:	d4000001 	svc	#0x0
    2df0:	d65f03c0 	ret

0000000000002df4 <utee_storage_obj_rename>:
utee_storage_obj_rename():
/home/lagadanu/Desktop/qemu/optee_os/lib/libutee/arch/arm/utee_syscalls_asm.S:101
    2df4:	d2800588 	mov	x8, #0x2c                  	// #44
    2df8:	d4000001 	svc	#0x0
    2dfc:	d65f03c0 	ret

0000000000002e00 <utee_storage_alloc_enum>:
utee_storage_alloc_enum():
/home/lagadanu/Desktop/qemu/optee_os/lib/libutee/arch/arm/utee_syscalls_asm.S:103
    2e00:	d28005a8 	mov	x8, #0x2d                  	// #45
    2e04:	d4000001 	svc	#0x0
    2e08:	d65f03c0 	ret

0000000000002e0c <utee_storage_free_enum>:
utee_storage_free_enum():
/home/lagadanu/Desktop/qemu/optee_os/lib/libutee/arch/arm/utee_syscalls_asm.S:105
    2e0c:	d28005c8 	mov	x8, #0x2e                  	// #46
    2e10:	d4000001 	svc	#0x0
    2e14:	d65f03c0 	ret

0000000000002e18 <utee_storage_reset_enum>:
utee_storage_reset_enum():
/home/lagadanu/Desktop/qemu/optee_os/lib/libutee/arch/arm/utee_syscalls_asm.S:107
    2e18:	d28005e8 	mov	x8, #0x2f                  	// #47
    2e1c:	d4000001 	svc	#0x0
    2e20:	d65f03c0 	ret

0000000000002e24 <utee_storage_start_enum>:
utee_storage_start_enum():
/home/lagadanu/Desktop/qemu/optee_os/lib/libutee/arch/arm/utee_syscalls_asm.S:109
    2e24:	d2800608 	mov	x8, #0x30                  	// #48
    2e28:	d4000001 	svc	#0x0
    2e2c:	d65f03c0 	ret

0000000000002e30 <utee_storage_next_enum>:
utee_storage_next_enum():
/home/lagadanu/Desktop/qemu/optee_os/lib/libutee/arch/arm/utee_syscalls_asm.S:111
    2e30:	d2800628 	mov	x8, #0x31                  	// #49
    2e34:	d4000001 	svc	#0x0
    2e38:	d65f03c0 	ret

0000000000002e3c <utee_storage_obj_read>:
utee_storage_obj_read():
/home/lagadanu/Desktop/qemu/optee_os/lib/libutee/arch/arm/utee_syscalls_asm.S:113
    2e3c:	d2800648 	mov	x8, #0x32                  	// #50
    2e40:	d4000001 	svc	#0x0
    2e44:	d65f03c0 	ret

0000000000002e48 <utee_storage_obj_write>:
utee_storage_obj_write():
/home/lagadanu/Desktop/qemu/optee_os/lib/libutee/arch/arm/utee_syscalls_asm.S:115
    2e48:	d2800668 	mov	x8, #0x33                  	// #51
    2e4c:	d4000001 	svc	#0x0
    2e50:	d65f03c0 	ret

0000000000002e54 <utee_storage_obj_trunc>:
utee_storage_obj_trunc():
/home/lagadanu/Desktop/qemu/optee_os/lib/libutee/arch/arm/utee_syscalls_asm.S:117
    2e54:	d2800688 	mov	x8, #0x34                  	// #52
    2e58:	d4000001 	svc	#0x0
    2e5c:	d65f03c0 	ret

0000000000002e60 <utee_storage_obj_seek>:
utee_storage_obj_seek():
/home/lagadanu/Desktop/qemu/optee_os/lib/libutee/arch/arm/utee_syscalls_asm.S:119
    2e60:	d28006a8 	mov	x8, #0x35                  	// #53
    2e64:	d4000001 	svc	#0x0
    2e68:	d65f03c0 	ret

0000000000002e6c <utee_cryp_obj_generate_key>:
utee_cryp_obj_generate_key():
/home/lagadanu/Desktop/qemu/optee_os/lib/libutee/arch/arm/utee_syscalls_asm.S:121
    2e6c:	d28006c8 	mov	x8, #0x36                  	// #54
    2e70:	d4000001 	svc	#0x0
    2e74:	d65f03c0 	ret

0000000000002e78 <utee_se_service_open>:
utee_se_service_open():
/home/lagadanu/Desktop/qemu/optee_os/lib/libutee/arch/arm/utee_syscalls_asm.S:124
    2e78:	d28006e8 	mov	x8, #0x37                  	// #55
    2e7c:	d4000001 	svc	#0x0
    2e80:	d65f03c0 	ret

0000000000002e84 <utee_se_service_close>:
utee_se_service_close():
/home/lagadanu/Desktop/qemu/optee_os/lib/libutee/arch/arm/utee_syscalls_asm.S:126
    2e84:	d2800708 	mov	x8, #0x38                  	// #56
    2e88:	d4000001 	svc	#0x0
    2e8c:	d65f03c0 	ret

0000000000002e90 <utee_se_service_get_readers>:
utee_se_service_get_readers():
/home/lagadanu/Desktop/qemu/optee_os/lib/libutee/arch/arm/utee_syscalls_asm.S:128
    2e90:	d2800728 	mov	x8, #0x39                  	// #57
    2e94:	d4000001 	svc	#0x0
