
out/5b9e0e40-2636-11e1-ad9e-0002a5d5c51b.elf:     file format elf64-littleaarch64
out/5b9e0e40-2636-11e1-ad9e-0002a5d5c51b.elf
architecture: aarch64, flags 0x00000150:
HAS_SYMS, DYNAMIC, D_PAGED
start address 0x0000000000000020

Program Header:
    LOAD off    0x0000000000010000 vaddr 0x0000000000000000 paddr 0x0000000000000000 align 2**16
         filesz 0x000000000001f528 memsz 0x000000000001f528 flags r-x
    LOAD off    0x000000000002f528 vaddr 0x000000000001f528 paddr 0x000000000001f528 align 2**16
         filesz 0x00000000000067f0 memsz 0x00000000000067f0 flags r--
    LOAD off    0x0000000000036000 vaddr 0x0000000000026000 paddr 0x0000000000026000 align 2**16
         filesz 0x00000000000001d8 memsz 0x00000000000e3c18 flags rw-
 DYNAMIC off    0x00000000000358f8 vaddr 0x00000000000258f8 paddr 0x00000000000258f8 align 2**3
         filesz 0x0000000000000150 memsz 0x0000000000000150 flags rw-

Dynamic Section:
  NEEDED               ffd2bded-ab7d-4988-95ee-e4962fff7154
  HASH                 0x0000000000025cc0
  STRTAB               0x0000000000025be0
  SYMTAB               0x0000000000025a48
  STRSZ                0x00000000000000dd
  SYMENT               0x0000000000000018
  DEBUG                0x0000000000000000
  PLTGOT               0x0000000000025738
  PLTRELSZ             0x0000000000000030
  PLTREL               0x0000000000000007
  JMPREL               0x00000000000258c8
  RELA                 0x00000000000253c0
  RELASZ               0x0000000000000480
  RELAENT              0x0000000000000018
  FLAGS_1              0x0000000008000000
  RELACOUNT            0x0000000000000025
private flags = 0:

Sections:
Idx Name          Size      VMA               LMA               File off  Algn
  0 .ta_head      00000020  0000000000000000  0000000000000000  00010000  2**3
                  CONTENTS, ALLOC, LOAD, DATA
  1 .text         0001f4c8  0000000000000020  0000000000000020  00010020  2**3
                  CONTENTS, ALLOC, LOAD, READONLY, CODE
  2 .plt          00000040  000000000001f4e8  000000000001f4e8  0002f4e8  2**2
                  CONTENTS, ALLOC, LOAD, READONLY, CODE
  3 .rodata       00005e93  000000000001f528  000000000001f528  0002f528  2**3
                  CONTENTS, ALLOC, LOAD, READONLY, DATA
  4 .dynsym       00000198  0000000000025a48  0000000000025a48  00035a48  2**3
                  CONTENTS, ALLOC, LOAD, READONLY, DATA
  5 .rela.dyn     00000378  00000000000253c0  00000000000253c0  000353c0  2**3
                  CONTENTS, ALLOC, LOAD, READONLY, DATA
  6 .got          00000088  0000000000025738  0000000000025738  00035738  2**3
                  CONTENTS, ALLOC, LOAD, DATA
  7 .rela.got     00000108  00000000000257c0  00000000000257c0  000357c0  2**3
                  CONTENTS, ALLOC, LOAD, READONLY, DATA
  8 .rela.plt     00000030  00000000000258c8  00000000000258c8  000358c8  2**3
                  CONTENTS, ALLOC, LOAD, READONLY, DATA
  9 .dynamic      00000150  00000000000258f8  00000000000258f8  000358f8  2**3
                  CONTENTS, ALLOC, LOAD, DATA
 10 .dynstr       000000dd  0000000000025be0  0000000000025be0  00035be0  2**0
                  CONTENTS, ALLOC, LOAD, READONLY, DATA
 11 .hash         00000058  0000000000025cc0  0000000000025cc0  00035cc0  2**3
                  CONTENTS, ALLOC, LOAD, READONLY, DATA
 12 .data         000001d8  0000000000026000  0000000000026000  00036000  2**3
                  CONTENTS, ALLOC, LOAD, DATA
 13 .bss          000e3a40  00000000000261d8  00000000000261d8  000361d8  2**3
                  ALLOC
 14 .debug_info   00044686  0000000000000000  0000000000000000  000361d8  2**0
                  CONTENTS, READONLY, DEBUGGING
 15 .debug_abbrev 00005e20  0000000000000000  0000000000000000  0007a85e  2**0
                  CONTENTS, READONLY, DEBUGGING
 16 .debug_loc    00021b04  0000000000000000  0000000000000000  0008067e  2**0
                  CONTENTS, READONLY, DEBUGGING
 17 .debug_aranges 00000f70  0000000000000000  0000000000000000  000a2190  2**4
                  CONTENTS, READONLY, DEBUGGING
 18 .debug_macro  00007562  0000000000000000  0000000000000000  000a3100  2**0
                  CONTENTS, READONLY, DEBUGGING
 19 .debug_line   0000b0f6  0000000000000000  0000000000000000  000aa662  2**0
                  CONTENTS, READONLY, DEBUGGING
 20 .debug_str    00012c26  0000000000000000  0000000000000000  000b5758  2**0
                  CONTENTS, READONLY, DEBUGGING
 21 .comment      0000002d  0000000000000000  0000000000000000  000c837e  2**0
                  CONTENTS, READONLY
 22 .debug_frame  00003298  0000000000000000  0000000000000000  000c83b0  2**3
                  CONTENTS, READONLY, DEBUGGING
 23 .debug_ranges 00002d50  0000000000000000  0000000000000000  000cb650  2**4
                  CONTENTS, READONLY, DEBUGGING
SYMBOL TABLE:
0000000000000000 l    d  .ta_head	0000000000000000 .ta_head
0000000000000020 l    d  .text	0000000000000000 .text
000000000001f4e8 l    d  .plt	0000000000000000 .plt
000000000001f528 l    d  .rodata	0000000000000000 .rodata
00000000000253c0 l    d  .rela.dyn	0000000000000000 .rela.dyn
0000000000025738 l    d  .got	0000000000000000 .got
00000000000257c0 l    d  .rela.got	0000000000000000 .rela.got
00000000000258c8 l    d  .rela.plt	0000000000000000 .rela.plt
00000000000258f8 l    d  .dynamic	0000000000000000 .dynamic
0000000000025a48 l    d  .dynsym	0000000000000000 .dynsym
0000000000025be0 l    d  .dynstr	0000000000000000 .dynstr
0000000000025cc0 l    d  .hash	0000000000000000 .hash
0000000000026000 l    d  .data	0000000000000000 .data
00000000000261d8 l    d  .bss	0000000000000000 .bss
0000000000000000 l    d  .debug_info	0000000000000000 .debug_info
0000000000000000 l    d  .debug_abbrev	0000000000000000 .debug_abbrev
0000000000000000 l    d  .debug_loc	0000000000000000 .debug_loc
0000000000000000 l    d  .debug_aranges	0000000000000000 .debug_aranges
0000000000000000 l    d  .debug_macro	0000000000000000 .debug_macro
0000000000000000 l    d  .debug_line	0000000000000000 .debug_line
0000000000000000 l    d  .debug_str	0000000000000000 .debug_str
0000000000000000 l    d  .comment	0000000000000000 .comment
0000000000000000 l    d  .debug_frame	0000000000000000 .debug_frame
0000000000000000 l    d  .debug_ranges	0000000000000000 .debug_ranges
0000000000000000 l    df *ABS*	0000000000000000 user_ta_header.c
000000000001f8c8 l     O .rodata	0000000000000014 __compound_literal.8
000000000001f8e0 l     O .rodata	0000000000000010 __compound_literal.7
000000000001f8f0 l     O .rodata	0000000000000004 __compound_literal.6
000000000001f8f4 l     O .rodata	0000000000000001 __compound_literal.5
000000000001f8f8 l     O .rodata	0000000000000004 __compound_literal.4
000000000001f8fc l     O .rodata	0000000000000004 __compound_literal.3
000000000001f900 l     O .rodata	0000000000000001 __compound_literal.2
000000000001f901 l     O .rodata	0000000000000001 __compound_literal.1
000000000001f902 l     O .rodata	0000000000000001 __compound_literal.0
0000000000000000 l    df *ABS*	0000000000000000 os_test.c
0000000000001fe0 l     F .text	0000000000000010 call_longjmp
0000000000000020 l     F .text	0000000000000048 test_setjmp
0000000000000068 l     F .text	00000000000000a8 check_returned_prop
0000000000000110 l     F .text	0000000000000608 print_properties.constprop.2
0000000000000718 l     F .text	0000000000000304 test_properties
000000000001f538 l     O .rodata	000000000000000c __func__.4496
000000000001f548 l     O .rodata	0000000000000014 __func__.4389
000000000001f560 l     O .rodata	0000000000000011 __func__.4406
000000000001f578 l     O .rodata	0000000000000010 __func__.4440
000000000001f588 l     O .rodata	000000000000000c __func__.4431
000000000001f598 l     O .rodata	0000000000000010 test_uuid.4449
000000000001f5a8 l     O .rodata	0000000000000016 __func__.4457
000000000001f5c0 l     O .rodata	000000000000000a __func__.4470
000000000001f5d0 l     O .rodata	0000000000000008 null_time.4465
000000000001f5d8 l     O .rodata	0000000000000008 wrap_time.4466
000000000001f5e0 l     O .rodata	000000000000000b __func__.4487
000000000001f5f0 l     O .rodata	000000000000001d __func__.4515
000000000001f610 l     O .rodata	0000000000000010 os_test_uuid.4511
000000000001f620 l     O .rodata	0000000000000003 sha256_in.4526
000000000001f628 l     O .rodata	0000000000000010 crypt_uuid.4520
000000000001f638 l     O .rodata	0000000000000010 __func__.4530
000000000001f648 l     O .rodata	0000000000000020 sha256_out.4527
000000000001f668 l     O .rodata	0000000000000010 test_uuid.4574
000000000001f678 l     O .rodata	0000000000000016 __func__.4585
0000000000000000 l    df *ABS*	0000000000000000 init.c
0000000000000000 l    df *ABS*	0000000000000000 ta_entry.c
0000000000000000 l    df *ABS*	0000000000000000 tb_addsub.c
000000000001f690 l     O .rodata	000000000000000a __func__.4238
0000000000000000 l    df *ABS*	0000000000000000 tb_cmp.c
00000000000094b0 l     F .text	0000000000000868 test_compare
000000000001f6a0 l     O .rodata	000000000000000d __func__.4238
000000000001f6b0 l     O .rodata	0000000000000013 __func__.4265
0000000000000000 l    df *ABS*	0000000000000000 tb_conv.c
000000000001f6c8 l     O .rodata	0000000000000018 __func__.4236
000000000001f700 l     O .rodata	000000000000001e __func__.4265
0000000000000000 l    df *ABS*	0000000000000000 tb_div.c
000000000000bee4 l     F .text	000000000000022c test_div_random
000000000001f720 l     O .rodata	0000000000000010 __func__.4262
000000000001f730 l     O .rodata	000000000000000f __func__.4240
000000000001f740 l     O .rodata	000000000000000f __func__.4279
0000000000000000 l    df *ABS*	0000000000000000 tb_fmm.c
000000000001f750 l     O .rodata	000000000000000c __func__.4246
0000000000000000 l    df *ABS*	0000000000000000 tb_gcd.c
000000000001f760 l     O .rodata	000000000000001a __func__.4264
000000000001f780 l     O .rodata	0000000000000014 __func__.4273
0000000000000000 l    df *ABS*	0000000000000000 tb_io.c
0000000000000000 l    df *ABS*	0000000000000000 tb_modulus.c
000000000001f798 l     O .rodata	0000000000000017 __func__.4237
000000000001f7b0 l     O .rodata	0000000000000014 __func__.4262
000000000001f7c8 l     O .rodata	0000000000000011 __func__.4283
000000000001f7e0 l     O .rodata	0000000000000011 __func__.4302
0000000000000000 l    df *ABS*	0000000000000000 tb_mul.c
000000000001f7f8 l     O .rodata	0000000000000007 __func__.4238
0000000000000000 l    df *ABS*	0000000000000000 tb_prime.c
000000000001f800 l     O .rodata	0000000000000007 __func__.4233
000000000001f808 l     O .rodata	0000000000000011 __func__.4246
000000000001f820 l     O .rodata	000000000000000d __func__.4258
0000000000000000 l    df *ABS*	0000000000000000 tb_shift.c
00000000000139ac l     F .text	00000000000014a0 tb_shift_left_simple
000000000001f830 l     O .rodata	0000000000000015 __func__.4235
000000000001f848 l     O .rodata	0000000000000014 __func__.4313
000000000001f860 l     O .rodata	0000000000000016 __func__.4329
000000000001f878 l     O .rodata	0000000000000016 __func__.4348
000000000001f890 l     O .rodata	0000000000000015 __func__.4430
000000000001f8a8 l     O .rodata	0000000000000017 __func__.4446
0000000000000000 l    df *ABS*	0000000000000000 tb_var.c
0000000000000000 l    df *ABS*	0000000000000000 testframework.c
00000000000172f8 l     F .text	0000000000000028 myrand
00000000000261d0 l     O .data	0000000000000004 lcg_state.4241
0000000000000000 l    df *ABS*	0000000000000000 test_float_subj.c
0000000000000000 l    df *ABS*	0000000000000000 memcpy.c
0000000000000000 l    df *ABS*	0000000000000000 memset.c
0000000000000000 l    df *ABS*	0000000000000000 strcmp.c
0000000000000000 l    df *ABS*	0000000000000000 strlen.c
0000000000000000 l    df *ABS*	0000000000000000 setjmp_a64.o
0000000000000000 l    df *ABS*	0000000000000000 trace.c
000000000001f918 l     O .rodata	0000000000000005 lvl_strs.3178
0000000000000000 l    df *ABS*	0000000000000000 snprintk.c
000000000001f920 l     O .rodata	0000000000000011 HEXDIGITS
000000000001f938 l     O .rodata	0000000000000011 hexdigits
0000000000000000 l    df *ABS*	0000000000000000 memchr.c
0000000000000000 l    df *ABS*	0000000000000000 tee_api_property.c
0000000000018634 l     F .text	0000000000000070 propset_get
00000000000186a4 l     F .text	0000000000000114 propget_get_ext_prop
00000000000187b8 l     F .text	0000000000000188 propget_get_property
000000000002082c l     O .rodata	0000000000000004 __compound_literal.2
0000000000020830 l     O .rodata	0000000000000004 __compound_literal.1
0000000000020834 l     O .rodata	0000000000000004 __compound_literal.0
0000000000000000 l    df *ABS*	0000000000000000 trace_ext.c
0000000000000000 l    df *ABS*	0000000000000000 assert.c
0000000000000000 l    df *ABS*	0000000000000000 base64.c
000000000001f958 l     O .rodata	0000000000000041 base64_table
0000000000000000 l    df *ABS*	0000000000000000 tee_api_arith.c
0000000000019aac l     F .text	0000000000000028 TEE_BigInt_Panic
00000000001071d8 l     O .bss	0000000000001980 mempool_u32
0000000000108b58 l     O .bss	0000000000000010 mem.4074
0000000000108b68 l     O .bss	0000000000000008 mempool
0000000000000000 l    df *ABS*	0000000000000000 tee_api.c
0000000000108b70 l     O .bss	0000000000000008 tee_api_instance_data
000000000001f9b0 l     O .rodata	000000000000000b __func__.4337
0000000000000000 l    df *ABS*	0000000000000000 tee_api_panic.c
0000000000000000 l    df *ABS*	0000000000000000 user_ta_entry.c
0000000000019fc0 l     F .text	0000000000000028 ta_header_get_session
0000000000019fe8 l     F .text	0000000000000094 ta_header_remove_session
0000000000109c10 l     O .bss	0000000000000001 init_done
0000000000026188 l     O .data	0000000000000010 ta_sessions
0000000000000000 l    df *ABS*	0000000000000000 utee_syscalls_a64.o
0000000000000000 l    df *ABS*	0000000000000000 gprof_a64.o
0000000000000000 l    df *ABS*	0000000000000000 mpa_misc.c
0000000000000000 l    df *ABS*	0000000000000000 mpa_montgomery.c
0000000000000000 l    df *ABS*	0000000000000000 mpa_primetest.c
0000000000020628 l     O .rodata	0000000000000010 const_miller_rabin_proof_limit
0000000000020638 l     O .rodata	000000000000001c proof_a.3550
0000000000020658 l     O .rodata	000000000000000c const_two
0000000000020668 l     O .rodata	00000000000000b8 const_small_prime_factors
0000000000000000 l    df *ABS*	0000000000000000 mpa_conv.c
0000000000000000 l    df *ABS*	0000000000000000 mpa_div.c
0000000000000000 l    df *ABS*	0000000000000000 mpa_gcd.c
000000000001b8f4 l     F .text	0000000000000080 __mpa_divby2
000000000001b974 l     F .text	000000000000016c __mpa_gcd.part.0
000000000001bae0 l     F .text	0000000000000380 __mpa_egcd
0000000000000000 l    df *ABS*	0000000000000000 mpa_mem_static.c
0000000000000000 l    df *ABS*	0000000000000000 mpa_mul.c
0000000000000000 l    df *ABS*	0000000000000000 mpa_random.c
0000000000000000 l    df *ABS*	0000000000000000 mpa_shift.c
0000000000000000 l    df *ABS*	0000000000000000 mpa_addsub.c
0000000000000000 l    df *ABS*	0000000000000000 mpa_cmp.c
0000000000000000 l    df *ABS*	0000000000000000 mpa_expmod.c
0000000000000000 l    df *ABS*	0000000000000000 mpa_init.c
0000000000000000 l    df *ABS*	0000000000000000 mpa_io.c
000000000001d794 l     F .text	0000000000000044 __mpa_word_to_hexstr
000000000001d7d8 l     F .text	0000000000000114 __mpa_mpanum_to_hexstr
000000000001d8ec l     F .text	000000000000003c __mpa_isspace
0000000000020728 l     O .rodata	000000000000000c __func__.3624
0000000000020738 l     O .rodata	000000000000000c __func__.3638
0000000000108bc0 l     O .bss	0000000000001002 buf.3610
0000000000000000 l    df *ABS*	0000000000000000 mpa_modulus.c
0000000000000000 l    df *ABS*	0000000000000000 bget_malloc.c
000000000001e188 l     F .text	0000000000000040 raw_malloc_return_hook.isra.3
000000000001e1c8 l     F .text	0000000000000110 create_free_block.constprop.11
000000000001e498 l     F .text	000000000000005c raw_malloc.constprop.15
0000000000020748 l     O .rodata	0000000000000012 __func__.3464
0000000000020760 l     O .rodata	0000000000000005 __func__.3319
0000000000020768 l     O .rodata	0000000000000006 __func__.3334
0000000000020770 l     O .rodata	0000000000000005 __func__.3351
0000000000020778 l     O .rodata	0000000000000006 __func__.3343
0000000000020780 l     O .rodata	0000000000000006 __func__.3360
0000000000020788 l     O .rodata	0000000000000007 __func__.3370
0000000000020790 l     O .rodata	000000000000000d __func__.3500
00000000000207a0 l     O .rodata	000000000000000c __func__.3474
00000000000207b0 l     O .rodata	000000000000000b __func__.3485
00000000000207c0 l     O .rodata	0000000000000010 __func__.3552
00000000000207d0 l     O .rodata	000000000000000e __func__.3506
00000000000207e0 l     O .rodata	0000000000000013 __func__.3411
0000000000109bc8 l     O .bss	0000000000000038 mstats
0000000000109c00 l     O .bss	0000000000000008 malloc_pool_len
0000000000109c08 l     O .bss	0000000000000008 malloc_pool
0000000000026198 l     O .data	0000000000000038 malloc_poolset
0000000000000000 l    df *ABS*	0000000000000000 snprintf.c
0000000000000000 l    df *ABS*	0000000000000000 memcmp.c
0000000000000000 l    df *ABS*	0000000000000000 memmove.c
0000000000000000 l    df *ABS*	0000000000000000 strlcpy.c
0000000000000000 l    df *ABS*	0000000000000000 mempool.c
00000000000207f8 l     O .rodata	0000000000000013 __func__.3181
0000000000000000 l    df *ABS*	0000000000000000 
00000000000258f8 l     O *ABS*	0000000000000000 _DYNAMIC
0000000000025760 l     O *ABS*	0000000000000000 _GLOBAL_OFFSET_TABLE_
000000000001a5c0 g     F .text	000000000000000c utee_se_channel_transmit
00000000000176e4 g     F .text	000000000000003c longjmp
00000000000190bc g     F .text	000000000000003c putchar
000000000001d710 g     F .text	000000000000001c mpa_init_static
000000000001a63c g     F .text	0000000000000054 mpa_copy
00000000000199ec g     F .text	000000000000001c TEE_BigIntConvertToFMM
00000000000198cc g     F .text	000000000000000c TEE_BigIntSquareMod
0000000000019548 g     F .text	0000000000000004 TEE_BigIntShiftRight
000000000001af44 g     F .text	0000000000000074 mpa_get_S32
000000000000ee34 g     F .text	0000000000000710 tb_gcd
0000000000009d18 g     F .text	0000000000000a24 tb_cmp
000000000001a6c0 g     F .text	0000000000000044 mpa_highest_bit_index
000000000001a488 g     F .text	000000000000000c utee_storage_obj_create
000000000001a59c g     F .text	000000000000000c utee_se_session_close
00000000000176ac g     F .text	0000000000000038 setjmp
000000000001a290 g     F .text	000000000000000c utee_return
000000000001a53c g     F .text	000000000000000c utee_se_service_get_readers
0000000000019f94 g     F .text	0000000000000008 TEE_Realloc
000000000001b034 g     F .text	0000000000000148 __mpa_div_q_r_internal_word
000000000000f5c8 g     F .text	0000000000002038 tb_modulus
000000000001cf48 g     F .text	000000000000019c mpa_sub
0000000000018fb0 g     F .text	00000000000000cc printf
000000000001a29c g     F .text	000000000000000c utee_log
0000000000020720 g     O .rodata	0000000000000004 NR_STORED_PRIMES
000000000001759c g     F .text	0000000000000008 test_float_d2lz
0000000000019c70 g     F .text	00000000000000b4 TEE_InvokeTACommand
000000000001a748 g     F .text	000000000000001c mpa_can_hold
000000000001c21c g     F .text	0000000000000098 __mpa_abs_mul_word
000000000000a73c g     F .text	00000000000017a8 tb_conv
0000000000000a1c g     F .text	0000000000000de0 ta_entry_basic
000000000001aae4 g     F .text	0000000000000088 mpa_montgomery_mul
0000000000018540 g     F .text	0000000000000054 vsnprintk
000000000001a764 g     F .text	000000000000000c mpa_parity
000000000001f33c g     F .text	000000000000004c memmove
000000000001cad0 g     F .text	0000000000000020 __mpa_full_adder_ackum
000000000001f23c g     F .text	0000000000000078 snprintf
0000000000019544 g     F .text	0000000000000004 TEE_BigIntCmpS32
0000000000019580 g     F .text	000000000000000c TEE_BigIntAdd
000000000001a2c0 g     F .text	000000000000000c utee_get_property_name_to_index
0000000000017378 g     F .text	00000000000000cc tb_get_random_str
0000000000017568 g     F .text	000000000000000c test_float_fcmple
000000000001f908 g     O .rodata	0000000000000008 ta_heap_size
0000000000020724 g     O .rodata	0000000000000004 MAX_TABULATED_PRIME
000000000001a344 g     F .text	000000000000000c utee_cryp_state_alloc
000000000001a44c g     F .text	000000000000000c utee_authenc_enc_final
00000000000174d4 g     F .text	0000000000000008 test_float_dmul
000000000001c1fc g     F .text	0000000000000020 __mpa_mul_add_word_cum
000000000000e8d4 g     F .text	0000000000000560 tb_fmm
0000000000019598 g     F .text	0000000000000004 TEE_BigIntNeg
000000000001b804 g     F .text	00000000000000f0 mpa_div
0000000000000020 g       .text	0000000000000000 __text_start
0000000000018edc g     F .text	00000000000000a4 TEE_GetNextProperty
000000000001f9c0 g     O .rodata	000000000000000c const_one
000000000001f1d0 g     F .text	000000000000006c malloc_buffer_overlaps_heap
000000000001d450 g     F .text	0000000000000018 __mpa_abs_less_than
0000000000019758 g     F .text	00000000000000a8 TEE_BigIntSubMod
0000000000018c18 g     F .text	0000000000000080 TEE_GetPropertyAsBinaryBlock
00000000000175ac g     F .text	0000000000000008 test_float_f2iz
000000000001c550 g     F .text	000000000000010c mpa_get_random
0000000000017754 g     F .text	0000000000000240 trace_printf
000000000001a524 g     F .text	000000000000000c utee_se_service_open
0000000000017624 g     F .text	0000000000000020 memcpy
000000000001a35c g     F .text	000000000000000c utee_cryp_state_free
000000000001a60c g     F .text	0000000000000030 mpa_wipe
0000000000019a08 g     F .text	0000000000000094 TEE_BigIntConvertFromFMM
0000000000019fb8 g     F .text	0000000000000008 TEE_Panic
000000000001a5b4 g     F .text	000000000000000c utee_se_channel_get_select_resp
000000000001907c g     F .text	0000000000000040 puts
0000000000019a9c g     F .text	0000000000000010 TEE_BigIntComputeFMM
000000000001afb8 g     F .text	0000000000000014 mpa_set_word
000000000001ea64 g     F .text	0000000000000030 malloc_get_stats
000000000001c7bc g     F .text	0000000000000190 mpa_shift_left
000000000001a3a4 g     F .text	000000000000000c utee_cipher_final
000000000001c3a8 g     F .text	00000000000000e4 mpa_mul
00000000000174ec g     F .text	000000000000000c test_float_dcmpeq
0000000000019f10 g     F .text	0000000000000028 TEE_GetREETime
0000000000026000 g     O .data	0000000000000138 ta_props
00000000000174e4 g     F .text	0000000000000008 test_float_dsub
00000000000175e4 g     F .text	0000000000000008 test_float_ui2d
000000000001ea94 g     F .text	0000000000000004 malloc
000000000001a3e0 g     F .text	000000000000000c utee_cryp_obj_close
000000000001a560 g     F .text	000000000000000c utee_se_reader_open_session
0000000000018de0 g     F .text	0000000000000004 TEE_FreePropertyEnumerator
0000000000017550 g     F .text	000000000000000c test_float_fcmpeq
000000000001f2b4 g     F .text	0000000000000054 vsnprintf
00000000000261d4 g     O .data	0000000000000004 trace_level
0000000000011600 g     F .text	0000000000001970 tb_mul
0000000000019540 g     F .text	0000000000000004 TEE_BigIntCmp
000000000001f8c0 g     O .rodata	0000000000000008 ta_num_props
0000000000000000       F *UND*	0000000000000000 os_test_shlib_add
000000000001e818 g     F .text	00000000000000c8 bgetr
0000000000017208 g     F .text	00000000000000f0 tb_var
000000000001a440 g     F .text	000000000000000c utee_authenc_update_payload
000000000001f4a8 g     F .text	0000000000000040 mempool_free
00000000000194dc g     F .text	0000000000000040 TEE_BigIntConvertToOctetString
000000000001a5d8 g     F .text	000000000000000c utee_cache_operation
000000000001a428 g     F .text	000000000000000c utee_authenc_init
000000000001954c g     F .text	000000000000001c TEE_BigIntGetBit
000000000001f910 g     O .rodata	0000000000000003 trace_ext_prefix
000000000001caf0 g     F .text	00000000000000f4 __mpa_abs_add
0000000000012f70 g     F .text	0000000000000a3c tb_prime
000000000001e4f4 g     F .text	0000000000000088 bgetz
0000000000019dc8 g     F .text	000000000000000c TEE_GetInstanceData
0000000000019e14 g     F .text	000000000000003c TEE_Wait
000000000001a4f4 g     F .text	000000000000000c utee_storage_obj_write
000000000001c1c8 g     F .text	000000000000001c mpa_free_static_temp_var
000000000001ab6c g     F .text	00000000000003ac mpa_is_prob_prime
000000000001a5cc g     F .text	000000000000000c utee_se_channel_close
000000000001c48c g     F .text	00000000000000c4 mpa_mul_word
0000000000019fa8 g     F .text	0000000000000008 TEE_CacheFlush
0000000000001ff8 g     F .text	0000000000000004 TA_DestroyEntryPoint
0000000000001fc8 g     F .text	0000000000000018 ta_entry_init
00000000000190f8 g     F .text	0000000000000044 _assert_log
00000000000194a0 g     F .text	0000000000000014 TEE_BigIntFMMContextSizeInU32
0000000000019150 g     F .text	0000000000000018 base64_enc_len
0000000000001fa4 g     F .text	0000000000000024 ta_entry_call_lib_panic
000000000001b17c g     F .text	0000000000000688 __mpa_div_q_r
00000000000193e8 g     F .text	0000000000000058 _TEE_MathAPI_Init
000000000001a4dc g     F .text	000000000000000c utee_storage_next_enum
000000000001758c g     F .text	0000000000000008 test_float_d2iz
00000000000261d8 g     O .bss	00000000000e1000 ta_heap
00000000000198d8 g     F .text	000000000000006c TEE_BigIntInvMod
0000000000002014 g     F .text	0000000000000004 TA_CloseSessionEntryPoint
0000000000017580 g     F .text	000000000000000c test_float_fcmpgt
000000000001a2a8 g     F .text	000000000000000c __utee_panic
000000000001a350 g     F .text	000000000000000c utee_cryp_state_copy
0000000000002018 g     F .text	0000000000000068 TA_InvokeCommandEntryPoint
000000000001dc4c g     F .text	0000000000000110 mpa_set_oct_str
000000000001a590 g     F .text	000000000000000c utee_se_session_open_channel
000000000001f428 g     F .text	0000000000000080 mempool_alloc
000000000001c6c0 g     F .text	0000000000000098 __mpa_shift_words_left
000000000001a3d4 g     F .text	000000000000000c utee_cryp_obj_alloc
000000000001a338 g     F .text	000000000000000c utee_set_ta_time
0000000000017444 g     F .text	0000000000000048 tb_set_random_value
000000000001a3c8 g     F .text	000000000000000c utee_cryp_obj_get_attr
0000000000026138 g     O .data	0000000000000048 tee_props
000000000001a7f4 g     F .text	0000000000000090 __mpa_montgomery_sub_ack
0000000000018dd4 g     F .text	000000000000000c TEE_ResetPropertyEnumerator
000000000001eaac g     F .text	0000000000000070 calloc
000000000000c110 g     F .text	00000000000027c4 tb_div
0000000000019f38 g     F .text	000000000000005c TEE_Malloc
000000000001a314 g     F .text	000000000000000c utee_mask_cancellation
0000000000019280 g     F .text	0000000000000168 base64_dec
000000000001a3ec g     F .text	000000000000000c utee_cryp_obj_reset
0000000000019da8 g     F .text	0000000000000014 TEE_CheckMemoryAccessRights
0000000000109c18 g       .bss	0000000000000000 __gprof_buf_end
0000000000018c98 g     F .text	0000000000000074 TEE_GetPropertyAsUUID
000000000001d0e4 g     F .text	000000000000002c mpa_neg
000000000001f9f0 g     O .rodata	0000000000000c38 PRIME_TABLE
0000000000002080 g     F .text	0000000000007430 tb_addsub
0000000000001ffc g     F .text	0000000000000018 TA_OpenSessionEntryPoint
000000000001be60 g     F .text	0000000000000120 mpa_gcd
000000000001a690 g     F .text	0000000000000030 mpa_abs
000000000001a4d0 g     F .text	000000000000000c utee_storage_start_enum
000000000001d930 g     F .text	0000000000000298 mpa_set_str
000000000001a4a0 g     F .text	000000000000000c utee_storage_obj_rename
00000000000175fc g     F .text	0000000000000008 test_float_i2f
0000000000017530 g     F .text	0000000000000008 test_float_fdiv
000000000001748c g     F .text	0000000000000038 tb_main
0000000000108b78 g     O .bss	0000000000000004 ta_param_types
00000000000174cc g     F .text	0000000000000008 test_float_ddiv
0000000000001f34 g     F .text	000000000000003c ta_entry_params
00000000000199c8 g     F .text	0000000000000024 TEE_BigIntIsProbablePrime
0000000000001f70 g     F .text	0000000000000034 ta_entry_call_lib
000000000001c1b8 g     F .text	0000000000000010 mpa_alloc_static_temp_var
0000000000018940 g     F .text	00000000000001f4 TEE_GetPropertyAsString
000000000001a2b4 g     F .text	000000000000000c utee_get_property
0000000000019440 g     F .text	0000000000000004 TEE_BigIntInit
0000000000019dd4 g     F .text	0000000000000008 TEE_MemMove
00000000000194b4 g     F .text	0000000000000028 TEE_BigIntConvertFromOctetString
0000000000026180 g     O .data	0000000000000008 _ref__utee_mcount
0000000000018608 g     F .text	000000000000002c memchr
0000000000019d50 g     F .text	000000000000002c TEE_UnmaskCancellation
000000000001dff0 g     F .text	0000000000000084 mpa_mul_mod
000000000001a494 g     F .text	000000000000000c utee_storage_obj_del
000000000001a50c g     F .text	000000000000000c utee_storage_obj_seek
00000000000174f8 g     F .text	000000000000000c test_float_dcmplt
00000000000175c4 g     F .text	0000000000000008 test_float_f2ulz
000000000001a9a8 g     F .text	000000000000013c mpa_compute_fmm_context
000000000001a374 g     F .text	000000000000000c utee_hash_update
000000000001a5e4  w    F .text	0000000000000004 __utee_mcount
000000000001961c g     F .text	0000000000000094 TEE_BigIntMod
000000000001a5a8 g     F .text	000000000000000c utee_se_channel_select_next
000000000001a2d8 g     F .text	000000000000000c utee_close_ta_session
00000000000195b8 g     F .text	0000000000000064 TEE_BigIntDiv
000000000001f388 g     F .text	0000000000000038 strlcpy
000000000001ea4c g     F .text	0000000000000018 malloc_reset_stats
0000000000018d0c g     F .text	0000000000000074 TEE_GetPropertyAsIdentity
000000000001751c g     F .text	000000000000000c test_float_dcmpgt
000000000001a398 g     F .text	000000000000000c utee_cipher_update
000000000001755c g     F .text	000000000000000c test_float_fcmplt
0000000000017324 g     F .text	0000000000000054 TEE_BigIntConvertToString
00000000000174dc g     F .text	0000000000000008 test_float_drsub
000000000001a584 g     F .text	000000000000000c utee_se_session_get_atr
000000000001eb1c g     F .text	000000000000005c realloc
0000000000019168 g     F .text	0000000000000118 base64_enc
000000000001cbe4 g     F .text	00000000000000cc __mpa_abs_add_ackum
000000000001f3c0 g     F .text	0000000000000068 mempool_alloc_pool
0000000000017604 g     F .text	0000000000000008 test_float_ui2f
000000000001a470 g     F .text	000000000000000c utee_asymm_verify
000000000001959c g     F .text	000000000000000c TEE_BigIntMul
000000000001afcc g     F .text	0000000000000018 mpa_get_word
0000000000019de4 g     F .text	0000000000000008 TEE_MemFill
000000000001f308 g     F .text	0000000000000034 memcmp
000000000001ef20 g     F .text	0000000000000130 malloc_add_pool
0000000000017744 g     F .text	0000000000000010 trace_get_level
000000000001a41c g     F .text	000000000000000c utee_cryp_random_number_generate
0000000000019490 g     F .text	0000000000000010 TEE_BigIntFMMSizeInU32
0000000000018b34 g     F .text	0000000000000070 TEE_GetPropertyAsBool
0000000000019444 g     F .text	0000000000000014 TEE_BigIntInitFMM
000000000001a464 g     F .text	000000000000000c utee_asymm_operate
000000000001a07c g     F .text	0000000000000208 __utee_entry
0000000000018ba4 g     F .text	0000000000000074 TEE_GetPropertyAsU32
000000000001f4e8 g       .text	0000000000000000 __text_end
0000000000019944 g     F .text	0000000000000078 TEE_BigIntRelativePrime
00000000000175bc g     F .text	0000000000000008 test_float_f2lz
000000000001c65c g     F .text	0000000000000064 mpa_get_random_digits
000000000001e8e0 g     F .text	00000000000000d4 bpool
0000000000018d80 g     F .text	0000000000000054 TEE_AllocatePropertyEnumerator
000000000001af18 g     F .text	000000000000002c mpa_set_S32
000000000001d72c g     F .text	0000000000000068 mpa_init_static_fmm_context
000000000000f590 g     F .text	0000000000000038 my_strlcpy
0000000000019d24 g     F .text	000000000000002c TEE_GetCancellationFlag
000000000001a530 g     F .text	000000000000000c utee_se_service_close
0000000000017320 g     F .text	0000000000000004 TEE_BigIntConvertFromString
0000000000019ed0 g     F .text	0000000000000040 TEE_SetTAPersistentTime
000000000001d110 g     F .text	000000000000013c mpa_add_word
000000000001a548 g     F .text	000000000000000c utee_se_reader_get_prop
0000000000017644 g     F .text	000000000000001c memset
0000000000001a14 g     F .text	0000000000000160 ta_entry_client
0000000000019e50 g     F .text	0000000000000080 TEE_GetTAPersistentTime
0000000000001ec0 g     F .text	0000000000000074 ta_entry_ta2ta_memref_mix
0000000000017994 g     F .text	0000000000000004 dhex_dump
0000000000019d7c g     F .text	000000000000002c TEE_MaskCancellation
000000000001caac g     F .text	0000000000000024 __mpa_full_sub
000000000001a4e8 g     F .text	000000000000000c utee_storage_obj_read
000000000001a3f8 g     F .text	000000000000000c utee_cryp_obj_populate
000000000001d468 g     F .text	0000000000000068 mpa_cmp
000000000001e074 g     F .text	0000000000000114 mpa_inv_mod
000000000001d24c g     F .text	0000000000000138 mpa_sub_word
000000000001c1e4 g     F .text	0000000000000018 __mpa_mul_add_word
000000000001cdb4 g     F .text	0000000000000194 mpa_add
000000000001d554 g     F .text	00000000000001bc mpa_exp_mod
000000000001c758 g     F .text	0000000000000064 __mpa_shift_words_right
0000000000017720 g     F .text	0000000000000024 trace_set_level
000000000001a578 g     F .text	000000000000000c utee_se_session_is_closed
000000000001a3b0 g     F .text	000000000000000c utee_cryp_obj_get_info
000000000001a4ac g     F .text	000000000000000c utee_storage_alloc_enum
000000000001a4c4 g     F .text	000000000000000c utee_storage_reset_enum
000000000001a500 g     F .text	000000000000000c utee_storage_obj_trunc
0000000000017660 g     F .text	0000000000000030 strcmp
000000000001ded0 g     F .text	0000000000000018 mpa_mod
000000000001d434 g     F .text	000000000000001c __mpa_abs_greater_than
0000000000019520 g     F .text	0000000000000020 TEE_BigIntConvertToS32
000000000001958c g     F .text	000000000000000c TEE_BigIntSub
000000000001a2f0 g     F .text	000000000000000c utee_get_cancellation_flag
0000000000001bf4 g     F .text	0000000000000030 ta_entry_wait
000000000001a368 g     F .text	000000000000000c utee_hash_init
000000000001761c g     F .text	0000000000000008 tahead_get_trace_level
00000000000174c4 g     F .text	0000000000000008 test_float_dadd
00000000000018c4 g     F .text	000000000000003c ta_entry_panic
0000000000019ad4 g     F .text	0000000000000078 __utee_from_param
000000000001f9d0 g     O .rodata	0000000000000010 Const_1_LShift_Base
0000000000019b4c g     F .text	000000000000006c __utee_to_param
000000000001eb78 g     F .text	00000000000003a8 memalign
000000000001951c g     F .text	0000000000000004 TEE_BigIntConvertFromS32
000000000001df6c g     F .text	0000000000000084 mpa_sub_mod
0000000000000000       F *UND*	0000000000000000 os_test_shlib_panic
000000000001a3bc g     F .text	000000000000000c utee_cryp_obj_restrict_usage
000000000001f050 g     F .text	0000000000000180 malloc_buffer_is_within_alloced
000000000001a404 g     F .text	000000000000000c utee_cryp_obj_copy
000000000001c94c g     F .text	0000000000000144 mpa_shift_right
0000000000019458 g     F .text	0000000000000038 TEE_BigIntInitFMMContext
000000000001a410 g     F .text	000000000000000c utee_cryp_derive_key
000000000001a884 g     F .text	0000000000000124 __mpa_montgomery_mul
000000000001dd5c g     F .text	0000000000000174 mpa_get_oct_str
000000000001d4d0 g     F .text	0000000000000084 mpa_cmp_short
0000000000014e4c g     F .text	00000000000023bc tb_shift
000000000001a458 g     F .text	000000000000000c utee_authenc_dec_final
00000000000175d4 g     F .text	0000000000000008 test_float_f2d
000000000001d384 g     F .text	00000000000000b0 __mpa_abs_cmp
00000000000195a8 g     F .text	0000000000000010 TEE_BigIntSquare
0000000000001ff0 g     F .text	0000000000000008 TA_CreateEntryPoint
0000000000017614 g     F .text	0000000000000008 test_float_ul2f
0000000000018594 g     F .text	0000000000000074 snprintk
0000000000019568 g     F .text	0000000000000018 TEE_BigIntGetBitCount
0000000000017528 g     F .text	0000000000000008 test_float_fadd
0000000000019800 g     F .text	00000000000000cc TEE_BigIntMulMod
0000000000108b80 g     O .bss	0000000000000040 ta_params
000000000001c2b4 g     F .text	00000000000000f4 __mpa_abs_mul
00000000000175f4 g     F .text	0000000000000008 test_float_ul2d
000000000001e2d8 g     F .text	00000000000001c0 bget
0000000000017548 g     F .text	0000000000000008 test_float_fsub
0000000000018de4 g     F .text	0000000000000010 TEE_StartPropertyEnumerator
0000000000019f9c g     F .text	0000000000000004 TEE_Free
0000000000017574 g     F .text	000000000000000c test_float_fcmpge
000000000001a554 g     F .text	000000000000000c utee_se_reader_get_name
0000000000019fb0 g     F .text	0000000000000008 TEE_CacheInvalidate
000000000000f560 g     F .text	0000000000000030 my_strcmp
000000000001a38c g     F .text	000000000000000c utee_cipher_init
000000000001913c g     F .text	0000000000000014 _assert_break
00000000000196b0 g     F .text	00000000000000a8 TEE_BigIntAddMod
000000000001a4b8 g     F .text	000000000000000c utee_storage_free_enum
000000000001a434 g     F .text	000000000000000c utee_authenc_update_aad
0000000000018df4 g     F .text	00000000000000e8 TEE_GetPropertyName
000000000001a704 g     F .text	0000000000000044 mpa_get_bit
0000000000019ddc g     F .text	0000000000000008 TEE_MemCompare
0000000000017594 g     F .text	0000000000000008 test_float_d2uiz
00000000000175cc g     F .text	0000000000000008 test_float_d2f
0000000000017998 g     F .text	0000000000000ba8 __vsnprintf
000000000001a284 g     F .text	000000000000000c utee_panic
0000000000019bb8 g     F .text	0000000000000090 TEE_OpenTASession
0000000000001cac g     F .text	0000000000000214 ta_entry_ta2ta_memref
0000000000017540 g     F .text	0000000000000008 test_float_frsub
0000000000018f80 g     F .text	0000000000000028 trace_ext_puts
0000000000018fa8 g     F .text	0000000000000008 trace_ext_get_thread_id
0000000000019fa0 g     F .text	0000000000000008 TEE_CacheClean
000000000001a2cc g     F .text	000000000000000c utee_open_ta_session
000000000001afe4 g     F .text	0000000000000050 __mpa_div_dword
000000000001a5e8 g     F .text	0000000000000024 __mpa_set_unused_digits_to_zero
000000000001f9e0 g     O .rodata	000000000000000c const_largest_deci_base
000000000001d928 g     F .text	0000000000000008 mpa_get_str_size
0000000000017538 g     F .text	0000000000000008 test_float_fmul
000000000001a380 g     F .text	000000000000000c utee_hash_final
0000000000017690 g     F .text	000000000000001c strlen
00000000000199bc g     F .text	000000000000000c TEE_BigIntComputeExtendedGcd
000000000001bf80 g     F .text	00000000000001ec mpa_extended_gcd
000000000001dee8 g     F .text	0000000000000084 mpa_add_mod
000000000001a47c g     F .text	000000000000000c utee_storage_obj_open
00000000000175a4 g     F .text	0000000000000008 test_float_d2ulz
000000000001a2e4 g     F .text	000000000000000c utee_invoke_ta_command
000000000001a320 g     F .text	000000000000000c utee_wait
000000000001dbc8 g     F .text	0000000000000084 mpa_get_str
0000000000017504 g     F .text	000000000000000c test_float_dcmple
0000000000019dec g     F .text	0000000000000028 TEE_GetSystemTime
0000000000000000 g     O .ta_head	0000000000000020 ta_head
000000000001e57c g     F .text	000000000000029c brel
0000000000001c24 g     F .text	0000000000000088 ta_entry_bad_mem_access
0000000000017510 g     F .text	000000000000000c test_float_dcmpge
000000000001c16c g     F .text	000000000000004c mpa_alloc_static_temp_var_size
000000000001a32c g     F .text	000000000000000c utee_get_time
000000000001a77c g     F .text	0000000000000078 __mpa_montgomery_mul_add
0000000000019dbc g     F .text	000000000000000c TEE_SetInstanceData
00000000000175ec g     F .text	0000000000000008 test_float_l2d
000000000001a308 g     F .text	000000000000000c utee_unmask_cancellation
000000000001a2fc g     F .text	000000000000000c utee_check_access_rights
000000000001a56c g     F .text	000000000000000c utee_se_reader_close_sessions
000000000001a518 g     F .text	000000000000000c utee_cryp_obj_generate_key
0000000000001b74 g     F .text	0000000000000080 ta_entry_params_access_rights
000000000001a770 g     F .text	000000000000000c mpa_constant_one
0000000000019c48 g     F .text	0000000000000028 TEE_CloseTASession
000000000001760c g     F .text	0000000000000008 test_float_l2f
0000000000001900 g     F .text	0000000000000114 ta_entry_client_with_timeout
00000000000175dc g     F .text	0000000000000008 test_float_i2d
000000000001ca90 g     F .text	000000000000001c __mpa_full_adder
000000000001ccb0 g     F .text	0000000000000104 __mpa_abs_sub
00000000000175b4 g     F .text	0000000000000008 test_float_f2uiz
0000000000109c18 g       .bss	0000000000000000 __gprof_buf_start
000000000001ea98 g     F .text	0000000000000014 free
000000000001e9b4 g     F .text	0000000000000098 bstats
000000000000f544 g     F .text	000000000000001c my_strlen



Disassembly of section .text:

0000000000000020 <test_setjmp>:
test_setjmp():
/home/lagadanu/Desktop/qemu/out-br/build/optee_test-1.0/ta/os_test/os_test.c:677
      20:	a9b47bfd 	stp	x29, x30, [sp,#-192]!
      24:	910003fd 	mov	x29, sp
/home/lagadanu/Desktop/qemu/out-br/build/optee_test-1.0/ta/os_test/os_test.c:680
      28:	910043a0 	add	x0, x29, #0x10
      2c:	94005da0 	bl	176ac <setjmp>
      30:	35000060 	cbnz	w0, 3c <test_setjmp+0x1c>
/home/lagadanu/Desktop/qemu/out-br/build/optee_test-1.0/ta/os_test/os_test.c:684
      34:	910043a0 	add	x0, x29, #0x10
      38:	940007ea 	bl	1fe0 <call_longjmp>
/home/lagadanu/Desktop/qemu/out-br/build/optee_test-1.0/ta/os_test/os_test.c:681
      3c:	52800023 	mov	w3, #0x1                   	// #1
      40:	52800042 	mov	w2, #0x2                   	// #2
      44:	52805521 	mov	w1, #0x2a9                 	// #681
      48:	90000104 	adrp	x4, 20000 <PRIME_TABLE+0x610>
      4c:	f00000e0 	adrp	x0, 1f000 <malloc_add_pool+0xe0>
      50:	9120e084 	add	x4, x4, #0x838
      54:	9114e000 	add	x0, x0, #0x538
      58:	94005dbf 	bl	17754 <trace_printf>
/home/lagadanu/Desktop/qemu/out-br/build/optee_test-1.0/ta/os_test/os_test.c:687
      5c:	52800000 	mov	w0, #0x0                   	// #0
      60:	a8cc7bfd 	ldp	x29, x30, [sp],#192
      64:	d65f03c0 	ret

0000000000000068 <check_returned_prop>:
check_returned_prop():
/home/lagadanu/Desktop/qemu/out-br/build/optee_test-1.0/ta/os_test/os_test.c:59
      68:	d10083ff 	sub	sp, sp, #0x20
      6c:	2a0003e8 	mov	w8, w0
/home/lagadanu/Desktop/qemu/out-br/build/optee_test-1.0/ta/os_test/os_test.c:60
      70:	6b03005f 	cmp	w2, w3
/home/lagadanu/Desktop/qemu/out-br/build/optee_test-1.0/ta/os_test/os_test.c:59
      74:	a9017bfd 	stp	x29, x30, [sp,#16]
      78:	910043fd 	add	x29, sp, #0x10
/home/lagadanu/Desktop/qemu/out-br/build/optee_test-1.0/ta/os_test/os_test.c:60
      7c:	540002a0 	b.eq	d0 <check_returned_prop+0x68>
/home/lagadanu/Desktop/qemu/out-br/build/optee_test-1.0/ta/os_test/os_test.c:61
      80:	f100003f 	cmp	x1, #0x0
      84:	90000106 	adrp	x6, 20000 <PRIME_TABLE+0x610>
      88:	90000104 	adrp	x4, 20000 <PRIME_TABLE+0x610>
      8c:	912134c6 	add	x6, x6, #0x84d
      90:	2a0003e5 	mov	w5, w0
      94:	91215484 	add	x4, x4, #0x855
      98:	2a0203e7 	mov	w7, w2
      9c:	9a8100c6 	csel	x6, x6, x1, eq
      a0:	b90003e3 	str	w3, [sp]
      a4:	52800022 	mov	w2, #0x1                   	// #1
      a8:	528007e1 	mov	w1, #0x3f                  	// #63
      ac:	52800023 	mov	w3, #0x1                   	// #1
/home/lagadanu/Desktop/qemu/out-br/build/optee_test-1.0/ta/os_test/os_test.c:67
      b0:	f00000e0 	adrp	x0, 1f000 <malloc_add_pool+0xe0>
      b4:	9114e000 	add	x0, x0, #0x538
      b8:	91004000 	add	x0, x0, #0x10
      bc:	94005da6 	bl	17754 <trace_printf>
      c0:	52bfffe0 	mov	w0, #0xffff0000            	// #-65536
/home/lagadanu/Desktop/qemu/out-br/build/optee_test-1.0/ta/os_test/os_test.c:73
      c4:	a9417bfd 	ldp	x29, x30, [sp,#16]
      c8:	910083ff 	add	sp, sp, #0x20
      cc:	d65f03c0 	ret
/home/lagadanu/Desktop/qemu/out-br/build/optee_test-1.0/ta/os_test/os_test.c:72
      d0:	52800000 	mov	w0, #0x0                   	// #0
/home/lagadanu/Desktop/qemu/out-br/build/optee_test-1.0/ta/os_test/os_test.c:66
      d4:	6b05009f 	cmp	w4, w5
      d8:	54ffff60 	b.eq	c4 <check_returned_prop+0x5c>
/home/lagadanu/Desktop/qemu/out-br/build/optee_test-1.0/ta/os_test/os_test.c:67
      dc:	f100003f 	cmp	x1, #0x0
      e0:	90000106 	adrp	x6, 20000 <PRIME_TABLE+0x610>
      e4:	912134c6 	add	x6, x6, #0x84d
      e8:	2a0403e7 	mov	w7, w4
      ec:	9a8100c6 	csel	x6, x6, x1, eq
      f0:	90000104 	adrp	x4, 20000 <PRIME_TABLE+0x610>
      f4:	b90003e5 	str	w5, [sp]
      f8:	91227484 	add	x4, x4, #0x89d
      fc:	52800023 	mov	w3, #0x1                   	// #1
     100:	52800022 	mov	w2, #0x1                   	// #1
     104:	528008a1 	mov	w1, #0x45                  	// #69
     108:	2a0803e5 	mov	w5, w8
     10c:	17ffffe9 	b	b0 <check_returned_prop+0x48>

0000000000000110 <print_properties.constprop.2>:
print_properties():
/home/lagadanu/Desktop/qemu/out-br/build/optee_test-1.0/ta/os_test/os_test.c:75
     110:	d113c3ff 	sub	sp, sp, #0x4f0
     114:	a9007bfd 	stp	x29, x30, [sp]
     118:	910003fd 	mov	x29, sp
     11c:	a90573fb 	stp	x27, x28, [sp,#80]
/home/lagadanu/Desktop/qemu/out-br/build/optee_test-1.0/ta/os_test/os_test.c:262
     120:	910233bc 	add	x28, x29, #0x8c
/home/lagadanu/Desktop/qemu/out-br/build/optee_test-1.0/ta/os_test/os_test.c:75
     124:	a9046bf9 	stp	x25, x26, [sp,#64]
/home/lagadanu/Desktop/qemu/out-br/build/optee_test-1.0/ta/os_test/os_test.c:192
     128:	f00000fa 	adrp	x26, 1f000 <malloc_add_pool+0xe0>
     12c:	9114a35a 	add	x26, x26, #0x528
/home/lagadanu/Desktop/qemu/out-br/build/optee_test-1.0/ta/os_test/os_test.c:75
     130:	a9025bf5 	stp	x21, x22, [sp,#32]
     134:	a90363f7 	stp	x23, x24, [sp,#48]
     138:	aa0003f5 	mov	x21, x0
     13c:	a90153f3 	stp	x19, x20, [sp,#16]
     140:	aa0103f8 	mov	x24, x1
     144:	aa0203fb 	mov	x27, x2
/home/lagadanu/Desktop/qemu/out-br/build/optee_test-1.0/ta/os_test/os_test.c:82
     148:	94006327 	bl	18de4 <TEE_StartPropertyEnumerator>
/home/lagadanu/Desktop/qemu/out-br/build/optee_test-1.0/ta/os_test/os_test.c:89
     14c:	52802000 	mov	w0, #0x100                 	// #256
/home/lagadanu/Desktop/qemu/out-br/build/optee_test-1.0/ta/os_test/os_test.c:94
     150:	9103c3b4 	add	x20, x29, #0xf0
/home/lagadanu/Desktop/qemu/out-br/build/optee_test-1.0/ta/os_test/os_test.c:89
     154:	b9007fa0 	str	w0, [x29,#124]
/home/lagadanu/Desktop/qemu/out-br/build/optee_test-1.0/ta/os_test/os_test.c:94
     158:	9101f3a2 	add	x2, x29, #0x7c
/home/lagadanu/Desktop/qemu/out-br/build/optee_test-1.0/ta/os_test/os_test.c:92
     15c:	291083a0 	stp	w0, w0, [x29,#132]
/home/lagadanu/Desktop/qemu/out-br/build/optee_test-1.0/ta/os_test/os_test.c:94
     160:	aa1403e1 	mov	x1, x20
     164:	aa1503e0 	mov	x0, x21
     168:	94006323 	bl	18df4 <TEE_GetPropertyName>
     16c:	2a0003f3 	mov	w19, w0
/home/lagadanu/Desktop/qemu/out-br/build/optee_test-1.0/ta/os_test/os_test.c:95
     170:	34000280 	cbz	w0, 1c0 <print_properties.constprop.2+0xb0>
/home/lagadanu/Desktop/qemu/out-br/build/optee_test-1.0/ta/os_test/os_test.c:96
     174:	2a0003e5 	mov	w5, w0
     178:	f00000e0 	adrp	x0, 1f000 <malloc_add_pool+0xe0>
     17c:	9114e000 	add	x0, x0, #0x538
     180:	90000104 	adrp	x4, 20000 <PRIME_TABLE+0x610>
     184:	52800023 	mov	w3, #0x1                   	// #1
     188:	91238484 	add	x4, x4, #0x8e1
     18c:	52800022 	mov	w2, #0x1                   	// #1
     190:	52800c21 	mov	w1, #0x61                  	// #97
     194:	9100a000 	add	x0, x0, #0x28
     198:	94005d6f 	bl	17754 <trace_printf>
/home/lagadanu/Desktop/qemu/out-br/build/optee_test-1.0/ta/os_test/os_test.c:312
     19c:	2a1303e0 	mov	w0, w19
     1a0:	a94153f3 	ldp	x19, x20, [sp,#16]
     1a4:	a9425bf5 	ldp	x21, x22, [sp,#32]
     1a8:	a94363f7 	ldp	x23, x24, [sp,#48]
     1ac:	a9446bf9 	ldp	x25, x26, [sp,#64]
     1b0:	a94573fb 	ldp	x27, x28, [sp,#80]
     1b4:	a9407bfd 	ldp	x29, x30, [sp]
     1b8:	9113c3ff 	add	sp, sp, #0x4f0
     1bc:	d65f03c0 	ret
/home/lagadanu/Desktop/qemu/out-br/build/optee_test-1.0/ta/os_test/os_test.c:100
     1c0:	aa1403e0 	mov	x0, x20
     1c4:	94005d33 	bl	17690 <strlen>
     1c8:	b9407fb3 	ldr	w19, [x29,#124]
     1cc:	91000406 	add	x6, x0, #0x1
     1d0:	eb3340df 	cmp	x6, w19, uxtw
     1d4:	54000180 	b.eq	204 <print_properties.constprop.2+0xf4>
/home/lagadanu/Desktop/qemu/out-br/build/optee_test-1.0/ta/os_test/os_test.c:101
     1d8:	90000104 	adrp	x4, 20000 <PRIME_TABLE+0x610>
     1dc:	2a1303e5 	mov	w5, w19
     1e0:	91241084 	add	x4, x4, #0x904
     1e4:	52800023 	mov	w3, #0x1                   	// #1
     1e8:	52800022 	mov	w2, #0x1                   	// #1
     1ec:	52800ca1 	mov	w1, #0x65                  	// #101
/home/lagadanu/Desktop/qemu/out-br/build/optee_test-1.0/ta/os_test/os_test.c:299
     1f0:	f00000e0 	adrp	x0, 1f000 <malloc_add_pool+0xe0>
     1f4:	9114e000 	add	x0, x0, #0x538
     1f8:	9100a000 	add	x0, x0, #0x28
     1fc:	94005d56 	bl	17754 <trace_printf>
     200:	14000061 	b	384 <print_properties.constprop.2+0x274>
/home/lagadanu/Desktop/qemu/out-br/build/optee_test-1.0/ta/os_test/os_test.c:107
     204:	52800040 	mov	w0, #0x2                   	// #2
/home/lagadanu/Desktop/qemu/out-br/build/optee_test-1.0/ta/os_test/os_test.c:108
     208:	910203b7 	add	x23, x29, #0x80
     20c:	9107c3b6 	add	x22, x29, #0x1f0
     210:	aa1703e2 	mov	x2, x23
     214:	aa1603e1 	mov	x1, x22
/home/lagadanu/Desktop/qemu/out-br/build/optee_test-1.0/ta/os_test/os_test.c:107
     218:	b90083a0 	str	w0, [x29,#128]
/home/lagadanu/Desktop/qemu/out-br/build/optee_test-1.0/ta/os_test/os_test.c:108
     21c:	aa1503e0 	mov	x0, x21
     220:	940062f5 	bl	18df4 <TEE_GetPropertyName>
/home/lagadanu/Desktop/qemu/out-br/build/optee_test-1.0/ta/os_test/os_test.c:109
     224:	294f93a5 	ldp	w5, w4, [x29,#124]
     228:	2a0003e2 	mov	w2, w0
     22c:	129ffde3 	mov	w3, #0xffff0010            	// #-65520
     230:	aa1403e1 	mov	x1, x20
     234:	52800da0 	mov	w0, #0x6d                  	// #109
     238:	97ffff8c 	bl	68 <check_returned_prop>
     23c:	2a0003f3 	mov	w19, w0
/home/lagadanu/Desktop/qemu/out-br/build/optee_test-1.0/ta/os_test/os_test.c:111
     240:	35fffae0 	cbnz	w0, 19c <print_properties.constprop.2+0x8c>
/home/lagadanu/Desktop/qemu/out-br/build/optee_test-1.0/ta/os_test/os_test.c:115
     244:	b9407fa0 	ldr	w0, [x29,#124]
/home/lagadanu/Desktop/qemu/out-br/build/optee_test-1.0/ta/os_test/os_test.c:116
     248:	aa1703e2 	mov	x2, x23
     24c:	aa1603e1 	mov	x1, x22
/home/lagadanu/Desktop/qemu/out-br/build/optee_test-1.0/ta/os_test/os_test.c:115
     250:	51000400 	sub	w0, w0, #0x1
     254:	b90083a0 	str	w0, [x29,#128]
/home/lagadanu/Desktop/qemu/out-br/build/optee_test-1.0/ta/os_test/os_test.c:116
     258:	aa1503e0 	mov	x0, x21
     25c:	940062e6 	bl	18df4 <TEE_GetPropertyName>
/home/lagadanu/Desktop/qemu/out-br/build/optee_test-1.0/ta/os_test/os_test.c:117
     260:	294f93a5 	ldp	w5, w4, [x29,#124]
     264:	2a0003e2 	mov	w2, w0
     268:	129ffde3 	mov	w3, #0xffff0010            	// #-65520
     26c:	aa1403e1 	mov	x1, x20
     270:	52800ea0 	mov	w0, #0x75                  	// #117
     274:	97ffff7d 	bl	68 <check_returned_prop>
     278:	2a0003f3 	mov	w19, w0
/home/lagadanu/Desktop/qemu/out-br/build/optee_test-1.0/ta/os_test/os_test.c:119
     27c:	35fff900 	cbnz	w0, 19c <print_properties.constprop.2+0x8c>
/home/lagadanu/Desktop/qemu/out-br/build/optee_test-1.0/ta/os_test/os_test.c:123
     280:	b9407fa0 	ldr	w0, [x29,#124]
/home/lagadanu/Desktop/qemu/out-br/build/optee_test-1.0/ta/os_test/os_test.c:124
     284:	aa1703e2 	mov	x2, x23
     288:	aa1603e1 	mov	x1, x22
/home/lagadanu/Desktop/qemu/out-br/build/optee_test-1.0/ta/os_test/os_test.c:123
     28c:	b90083a0 	str	w0, [x29,#128]
/home/lagadanu/Desktop/qemu/out-br/build/optee_test-1.0/ta/os_test/os_test.c:124
     290:	aa1503e0 	mov	x0, x21
     294:	940062d8 	bl	18df4 <TEE_GetPropertyName>
/home/lagadanu/Desktop/qemu/out-br/build/optee_test-1.0/ta/os_test/os_test.c:125
     298:	294f93a5 	ldp	w5, w4, [x29,#124]
     29c:	2a0003e2 	mov	w2, w0
     2a0:	52800003 	mov	w3, #0x0                   	// #0
     2a4:	aa1403e1 	mov	x1, x20
     2a8:	52800fa0 	mov	w0, #0x7d                  	// #125
     2ac:	97ffff6f 	bl	68 <check_returned_prop>
     2b0:	2a0003f3 	mov	w19, w0
/home/lagadanu/Desktop/qemu/out-br/build/optee_test-1.0/ta/os_test/os_test.c:127
     2b4:	35fff740 	cbnz	w0, 19c <print_properties.constprop.2+0x8c>
/home/lagadanu/Desktop/qemu/out-br/build/optee_test-1.0/ta/os_test/os_test.c:131
     2b8:	910bc3b7 	add	x23, x29, #0x2f0
     2bc:	910213a3 	add	x3, x29, #0x84
     2c0:	aa1703e2 	mov	x2, x23
     2c4:	d2800001 	mov	x1, #0x0                   	// #0
     2c8:	aa1503e0 	mov	x0, x21
     2cc:	9400619d 	bl	18940 <TEE_GetPropertyAsString>
     2d0:	2a0003f3 	mov	w19, w0
/home/lagadanu/Desktop/qemu/out-br/build/optee_test-1.0/ta/os_test/os_test.c:133
     2d4:	aa1703e0 	mov	x0, x23
     2d8:	94005cee 	bl	17690 <strlen>
/home/lagadanu/Desktop/qemu/out-br/build/optee_test-1.0/ta/os_test/os_test.c:132
     2dc:	11000405 	add	w5, w0, #0x1
     2e0:	b94087a4 	ldr	w4, [x29,#132]
     2e4:	2a1303e2 	mov	w2, w19
     2e8:	52800003 	mov	w3, #0x0                   	// #0
     2ec:	aa1403e1 	mov	x1, x20
     2f0:	52801080 	mov	w0, #0x84                  	// #132
     2f4:	97ffff5d 	bl	68 <check_returned_prop>
     2f8:	2a0003f3 	mov	w19, w0
/home/lagadanu/Desktop/qemu/out-br/build/optee_test-1.0/ta/os_test/os_test.c:134
     2fc:	35fff500 	cbnz	w0, 19c <print_properties.constprop.2+0x8c>
/home/lagadanu/Desktop/qemu/out-br/build/optee_test-1.0/ta/os_test/os_test.c:137
     300:	910fc3b6 	add	x22, x29, #0x3f0
     304:	910223b9 	add	x25, x29, #0x88
     308:	aa1903e3 	mov	x3, x25
     30c:	aa1603e2 	mov	x2, x22
     310:	aa1403e1 	mov	x1, x20
     314:	aa1803e0 	mov	x0, x24
     318:	9400618a 	bl	18940 <TEE_GetPropertyAsString>
     31c:	2a0003f3 	mov	w19, w0
/home/lagadanu/Desktop/qemu/out-br/build/optee_test-1.0/ta/os_test/os_test.c:139
     320:	aa1603e0 	mov	x0, x22
     324:	94005cdb 	bl	17690 <strlen>
/home/lagadanu/Desktop/qemu/out-br/build/optee_test-1.0/ta/os_test/os_test.c:138
     328:	11000405 	add	w5, w0, #0x1
     32c:	b9408ba4 	ldr	w4, [x29,#136]
     330:	2a1303e2 	mov	w2, w19
     334:	52800003 	mov	w3, #0x0                   	// #0
     338:	aa1403e1 	mov	x1, x20
     33c:	52801140 	mov	w0, #0x8a                  	// #138
     340:	97ffff4a 	bl	68 <check_returned_prop>
     344:	2a0003f3 	mov	w19, w0
/home/lagadanu/Desktop/qemu/out-br/build/optee_test-1.0/ta/os_test/os_test.c:140
     348:	35fff2a0 	cbnz	w0, 19c <print_properties.constprop.2+0x8c>
/home/lagadanu/Desktop/qemu/out-br/build/optee_test-1.0/ta/os_test/os_test.c:143
     34c:	aa1603e1 	mov	x1, x22
     350:	aa1703e0 	mov	x0, x23
     354:	94003c83 	bl	f560 <my_strcmp>
     358:	340001a0 	cbz	w0, 38c <print_properties.constprop.2+0x27c>
/home/lagadanu/Desktop/qemu/out-br/build/optee_test-1.0/ta/os_test/os_test.c:144
     35c:	90000104 	adrp	x4, 20000 <PRIME_TABLE+0x610>
     360:	aa1403e5 	mov	x5, x20
     364:	91248c84 	add	x4, x4, #0x923
     368:	52800023 	mov	w3, #0x1                   	// #1
     36c:	52800022 	mov	w2, #0x1                   	// #1
     370:	52801201 	mov	w1, #0x90                  	// #144
     374:	f00000e0 	adrp	x0, 1f000 <malloc_add_pool+0xe0>
     378:	9114e000 	add	x0, x0, #0x538
     37c:	9100a000 	add	x0, x0, #0x28
     380:	94005cf5 	bl	17754 <trace_printf>
/home/lagadanu/Desktop/qemu/out-br/build/optee_test-1.0/ta/os_test/os_test.c:145
     384:	52bffff3 	mov	w19, #0xffff0000            	// #-65536
     388:	17ffff85 	b	19c <print_properties.constprop.2+0x8c>
/home/lagadanu/Desktop/qemu/out-br/build/optee_test-1.0/ta/os_test/os_test.c:149
     38c:	52800020 	mov	w0, #0x1                   	// #1
/home/lagadanu/Desktop/qemu/out-br/build/optee_test-1.0/ta/os_test/os_test.c:150
     390:	aa1903e3 	mov	x3, x25
     394:	aa1603e2 	mov	x2, x22
     398:	aa1403e1 	mov	x1, x20
/home/lagadanu/Desktop/qemu/out-br/build/optee_test-1.0/ta/os_test/os_test.c:149
     39c:	b9008ba0 	str	w0, [x29,#136]
/home/lagadanu/Desktop/qemu/out-br/build/optee_test-1.0/ta/os_test/os_test.c:150
     3a0:	aa1803e0 	mov	x0, x24
     3a4:	94006167 	bl	18940 <TEE_GetPropertyAsString>
/home/lagadanu/Desktop/qemu/out-br/build/optee_test-1.0/ta/os_test/os_test.c:151
     3a8:	2a0003e2 	mov	w2, w0
     3ac:	295093a5 	ldp	w5, w4, [x29,#132]
     3b0:	129ffde3 	mov	w3, #0xffff0010            	// #-65520
     3b4:	aa1403e1 	mov	x1, x20
     3b8:	528012e0 	mov	w0, #0x97                  	// #151
     3bc:	97ffff2b 	bl	68 <check_returned_prop>
     3c0:	2a0003f3 	mov	w19, w0
/home/lagadanu/Desktop/qemu/out-br/build/optee_test-1.0/ta/os_test/os_test.c:153
     3c4:	35ffeec0 	cbnz	w0, 19c <print_properties.constprop.2+0x8c>
/home/lagadanu/Desktop/qemu/out-br/build/optee_test-1.0/ta/os_test/os_test.c:157
     3c8:	b94087a0 	ldr	w0, [x29,#132]
/home/lagadanu/Desktop/qemu/out-br/build/optee_test-1.0/ta/os_test/os_test.c:158
     3cc:	aa1903e3 	mov	x3, x25
     3d0:	aa1603e2 	mov	x2, x22
     3d4:	aa1403e1 	mov	x1, x20
/home/lagadanu/Desktop/qemu/out-br/build/optee_test-1.0/ta/os_test/os_test.c:157
     3d8:	51000400 	sub	w0, w0, #0x1
     3dc:	b9008ba0 	str	w0, [x29,#136]
/home/lagadanu/Desktop/qemu/out-br/build/optee_test-1.0/ta/os_test/os_test.c:158
     3e0:	aa1803e0 	mov	x0, x24
     3e4:	94006157 	bl	18940 <TEE_GetPropertyAsString>
/home/lagadanu/Desktop/qemu/out-br/build/optee_test-1.0/ta/os_test/os_test.c:159
     3e8:	295093a5 	ldp	w5, w4, [x29,#132]
     3ec:	2a0003e2 	mov	w2, w0
     3f0:	129ffde3 	mov	w3, #0xffff0010            	// #-65520
     3f4:	aa1403e1 	mov	x1, x20
     3f8:	528013e0 	mov	w0, #0x9f                  	// #159
     3fc:	97ffff1b 	bl	68 <check_returned_prop>
     400:	2a0003f3 	mov	w19, w0
/home/lagadanu/Desktop/qemu/out-br/build/optee_test-1.0/ta/os_test/os_test.c:161
     404:	35ffecc0 	cbnz	w0, 19c <print_properties.constprop.2+0x8c>
/home/lagadanu/Desktop/qemu/out-br/build/optee_test-1.0/ta/os_test/os_test.c:165
     408:	b94087a0 	ldr	w0, [x29,#132]
/home/lagadanu/Desktop/qemu/out-br/build/optee_test-1.0/ta/os_test/os_test.c:166
     40c:	aa1903e3 	mov	x3, x25
     410:	aa1603e2 	mov	x2, x22
     414:	aa1403e1 	mov	x1, x20
/home/lagadanu/Desktop/qemu/out-br/build/optee_test-1.0/ta/os_test/os_test.c:165
     418:	b9008ba0 	str	w0, [x29,#136]
/home/lagadanu/Desktop/qemu/out-br/build/optee_test-1.0/ta/os_test/os_test.c:166
     41c:	aa1803e0 	mov	x0, x24
     420:	94006148 	bl	18940 <TEE_GetPropertyAsString>
/home/lagadanu/Desktop/qemu/out-br/build/optee_test-1.0/ta/os_test/os_test.c:167
     424:	2a0003e2 	mov	w2, w0
     428:	295093a5 	ldp	w5, w4, [x29,#132]
     42c:	52800003 	mov	w3, #0x0                   	// #0
     430:	aa1403e1 	mov	x1, x20
     434:	528014e0 	mov	w0, #0xa7                  	// #167
     438:	97ffff0c 	bl	68 <check_returned_prop>
     43c:	2a0003f3 	mov	w19, w0
/home/lagadanu/Desktop/qemu/out-br/build/optee_test-1.0/ta/os_test/os_test.c:168
     440:	35ffeae0 	cbnz	w0, 19c <print_properties.constprop.2+0x8c>
/home/lagadanu/Desktop/qemu/out-br/build/optee_test-1.0/ta/os_test/os_test.c:172
     444:	90000100 	adrp	x0, 20000 <PRIME_TABLE+0x610>
     448:	aa1403e1 	mov	x1, x20
     44c:	9124ec00 	add	x0, x0, #0x93b
     450:	94005c84 	bl	17660 <strcmp>
     454:	35000080 	cbnz	w0, 464 <print_properties.constprop.2+0x354>
     458:	b9408ba0 	ldr	w0, [x29,#136]
     45c:	7102201f 	cmp	w0, #0x88
     460:	54000261 	b.ne	4ac <print_properties.constprop.2+0x39c>
     464:	aa1b03f6 	mov	x22, x27
/home/lagadanu/Desktop/qemu/out-br/build/optee_test-1.0/ta/os_test/os_test.c:262
     468:	910283b7 	add	x23, x29, #0xa0
/home/lagadanu/Desktop/qemu/out-br/build/optee_test-1.0/ta/os_test/os_test.c:275
     46c:	910243b9 	add	x25, x29, #0x90
     470:	91074360 	add	x0, x27, #0x1d0
     474:	f90037a0 	str	x0, [x29,#104]
/home/lagadanu/Desktop/qemu/out-br/build/optee_test-1.0/ta/os_test/os_test.c:182
     478:	f94002c1 	ldr	x1, [x22]
     47c:	aa1403e0 	mov	x0, x20
     480:	94003c38 	bl	f560 <my_strcmp>
     484:	35001280 	cbnz	w0, 6d4 <print_properties.constprop.2+0x5c4>
/home/lagadanu/Desktop/qemu/out-br/build/optee_test-1.0/ta/os_test/os_test.c:185
     488:	394032c0 	ldrb	w0, [x22,#12]
     48c:	34000280 	cbz	w0, 4dc <print_properties.constprop.2+0x3cc>
/home/lagadanu/Desktop/qemu/out-br/build/optee_test-1.0/ta/os_test/os_test.c:186
     490:	90000104 	adrp	x4, 20000 <PRIME_TABLE+0x610>
     494:	52800023 	mov	w3, #0x1                   	// #1
     498:	91261084 	add	x4, x4, #0x984
     49c:	52800022 	mov	w2, #0x1                   	// #1
     4a0:	52801761 	mov	w1, #0xbb                  	// #187
     4a4:	f94002c5 	ldr	x5, [x22]
     4a8:	17ffffb3 	b	374 <print_properties.constprop.2+0x264>
/home/lagadanu/Desktop/qemu/out-br/build/optee_test-1.0/ta/os_test/os_test.c:174
     4ac:	f00000e0 	adrp	x0, 1f000 <malloc_add_pool+0xe0>
     4b0:	9114e000 	add	x0, x0, #0x538
     4b4:	aa1703e6 	mov	x6, x23
     4b8:	aa1403e5 	mov	x5, x20
     4bc:	90000104 	adrp	x4, 20000 <PRIME_TABLE+0x610>
     4c0:	52800023 	mov	w3, #0x1                   	// #1
     4c4:	91252084 	add	x4, x4, #0x948
     4c8:	52800022 	mov	w2, #0x1                   	// #1
     4cc:	528015e1 	mov	w1, #0xaf                  	// #175
     4d0:	9100a000 	add	x0, x0, #0x28
     4d4:	94005ca0 	bl	17754 <trace_printf>
     4d8:	17ffffab 	b	384 <print_properties.constprop.2+0x274>
/home/lagadanu/Desktop/qemu/out-br/build/optee_test-1.0/ta/os_test/os_test.c:190
     4dc:	52800023 	mov	w3, #0x1                   	// #1
/home/lagadanu/Desktop/qemu/out-br/build/optee_test-1.0/ta/os_test/os_test.c:192
     4e0:	b9400ac5 	ldr	w5, [x22,#8]
/home/lagadanu/Desktop/qemu/out-br/build/optee_test-1.0/ta/os_test/os_test.c:190
     4e4:	390032c3 	strb	w3, [x22,#12]
/home/lagadanu/Desktop/qemu/out-br/build/optee_test-1.0/ta/os_test/os_test.c:192
     4e8:	710014bf 	cmp	w5, #0x5
     4ec:	540010a8 	b.hi	700 <print_properties.constprop.2+0x5f0>
     4f0:	38654b40 	ldrb	w0, [x26,w5,uxtw]
     4f4:	10000061 	adr	x1, 500 <print_properties.constprop.2+0x3f0>
     4f8:	8b208820 	add	x0, x1, w0, sxtb #2
     4fc:	d61f0000 	br	x0
/home/lagadanu/Desktop/qemu/out-br/build/optee_test-1.0/ta/os_test/os_test.c:197
     500:	aa1703e2 	mov	x2, x23
     504:	d2800001 	mov	x1, #0x0                   	// #0
     508:	aa1503e0 	mov	x0, x21
     50c:	9400618a 	bl	18b34 <TEE_GetPropertyAsBool>
     510:	2a0003f3 	mov	w19, w0
/home/lagadanu/Desktop/qemu/out-br/build/optee_test-1.0/ta/os_test/os_test.c:199
     514:	34000e00 	cbz	w0, 6d4 <print_properties.constprop.2+0x5c4>
/home/lagadanu/Desktop/qemu/out-br/build/optee_test-1.0/ta/os_test/os_test.c:200
     518:	90000104 	adrp	x4, 20000 <PRIME_TABLE+0x610>
     51c:	2a0003e6 	mov	w6, w0
     520:	aa1403e5 	mov	x5, x20
     524:	91268884 	add	x4, x4, #0x9a2
     528:	52800023 	mov	w3, #0x1                   	// #1
     52c:	52800022 	mov	w2, #0x1                   	// #1
     530:	52801941 	mov	w1, #0xca                  	// #202
/home/lagadanu/Desktop/qemu/out-br/build/optee_test-1.0/ta/os_test/os_test.c:268
     534:	f00000e0 	adrp	x0, 1f000 <malloc_add_pool+0xe0>
     538:	9114e000 	add	x0, x0, #0x538
     53c:	9100a000 	add	x0, x0, #0x28
     540:	94005c85 	bl	17754 <trace_printf>
     544:	17ffff16 	b	19c <print_properties.constprop.2+0x8c>
/home/lagadanu/Desktop/qemu/out-br/build/optee_test-1.0/ta/os_test/os_test.c:212
     548:	aa1703e2 	mov	x2, x23
     54c:	d2800001 	mov	x1, #0x0                   	// #0
     550:	aa1503e0 	mov	x0, x21
     554:	94006194 	bl	18ba4 <TEE_GetPropertyAsU32>
     558:	2a0003f3 	mov	w19, w0
/home/lagadanu/Desktop/qemu/out-br/build/optee_test-1.0/ta/os_test/os_test.c:213
     55c:	34000bc0 	cbz	w0, 6d4 <print_properties.constprop.2+0x5c4>
/home/lagadanu/Desktop/qemu/out-br/build/optee_test-1.0/ta/os_test/os_test.c:214
     560:	90000104 	adrp	x4, 20000 <PRIME_TABLE+0x610>
     564:	2a0003e6 	mov	w6, w0
     568:	aa1403e5 	mov	x5, x20
     56c:	91273484 	add	x4, x4, #0x9cd
     570:	52800023 	mov	w3, #0x1                   	// #1
     574:	52800022 	mov	w2, #0x1                   	// #1
     578:	52801b01 	mov	w1, #0xd8                  	// #216
     57c:	17ffffee 	b	534 <print_properties.constprop.2+0x424>
/home/lagadanu/Desktop/qemu/out-br/build/optee_test-1.0/ta/os_test/os_test.c:226
     580:	aa1703e2 	mov	x2, x23
     584:	d2800001 	mov	x1, #0x0                   	// #0
     588:	aa1503e0 	mov	x0, x21
     58c:	940061c3 	bl	18c98 <TEE_GetPropertyAsUUID>
     590:	2a0003f3 	mov	w19, w0
/home/lagadanu/Desktop/qemu/out-br/build/optee_test-1.0/ta/os_test/os_test.c:228
     594:	34000a00 	cbz	w0, 6d4 <print_properties.constprop.2+0x5c4>
/home/lagadanu/Desktop/qemu/out-br/build/optee_test-1.0/ta/os_test/os_test.c:229
     598:	90000104 	adrp	x4, 20000 <PRIME_TABLE+0x610>
     59c:	2a0003e6 	mov	w6, w0
     5a0:	aa1403e5 	mov	x5, x20
     5a4:	9127dc84 	add	x4, x4, #0x9f7
     5a8:	52800023 	mov	w3, #0x1                   	// #1
     5ac:	52800022 	mov	w2, #0x1                   	// #1
     5b0:	52801ce1 	mov	w1, #0xe7                  	// #231
     5b4:	17ffffe0 	b	534 <print_properties.constprop.2+0x424>
/home/lagadanu/Desktop/qemu/out-br/build/optee_test-1.0/ta/os_test/os_test.c:241
     5b8:	aa1703e2 	mov	x2, x23
     5bc:	d2800001 	mov	x1, #0x0                   	// #0
     5c0:	aa1503e0 	mov	x0, x21
     5c4:	940061d2 	bl	18d0c <TEE_GetPropertyAsIdentity>
     5c8:	2a0003f3 	mov	w19, w0
/home/lagadanu/Desktop/qemu/out-br/build/optee_test-1.0/ta/os_test/os_test.c:244
     5cc:	34000840 	cbz	w0, 6d4 <print_properties.constprop.2+0x5c4>
/home/lagadanu/Desktop/qemu/out-br/build/optee_test-1.0/ta/os_test/os_test.c:245
     5d0:	90000104 	adrp	x4, 20000 <PRIME_TABLE+0x610>
     5d4:	2a0003e6 	mov	w6, w0
     5d8:	aa1403e5 	mov	x5, x20
     5dc:	91288884 	add	x4, x4, #0xa22
     5e0:	52800023 	mov	w3, #0x1                   	// #1
     5e4:	52800022 	mov	w2, #0x1                   	// #1
     5e8:	52801ee1 	mov	w1, #0xf7                  	// #247
     5ec:	17ffffd2 	b	534 <print_properties.constprop.2+0x424>
/home/lagadanu/Desktop/qemu/out-br/build/optee_test-1.0/ta/os_test/os_test.c:260
     5f0:	52800a00 	mov	w0, #0x50                  	// #80
/home/lagadanu/Desktop/qemu/out-br/build/optee_test-1.0/ta/os_test/os_test.c:262
     5f4:	aa1c03e3 	mov	x3, x28
/home/lagadanu/Desktop/qemu/out-br/build/optee_test-1.0/ta/os_test/os_test.c:260
     5f8:	b9008fa0 	str	w0, [x29,#140]
/home/lagadanu/Desktop/qemu/out-br/build/optee_test-1.0/ta/os_test/os_test.c:262
     5fc:	aa1703e2 	mov	x2, x23
     600:	d2800001 	mov	x1, #0x0                   	// #0
     604:	aa1503e0 	mov	x0, x21
     608:	94006184 	bl	18c18 <TEE_GetPropertyAsBinaryBlock>
     60c:	2a0003f3 	mov	w19, w0
/home/lagadanu/Desktop/qemu/out-br/build/optee_test-1.0/ta/os_test/os_test.c:267
     610:	34000120 	cbz	w0, 634 <print_properties.constprop.2+0x524>
/home/lagadanu/Desktop/qemu/out-br/build/optee_test-1.0/ta/os_test/os_test.c:268
     614:	90000104 	adrp	x4, 20000 <PRIME_TABLE+0x610>
     618:	2a0003e6 	mov	w6, w0
     61c:	aa1403e5 	mov	x5, x20
     620:	91294484 	add	x4, x4, #0xa51
     624:	52800023 	mov	w3, #0x1                   	// #1
     628:	52800022 	mov	w2, #0x1                   	// #1
     62c:	528021c1 	mov	w1, #0x10e                 	// #270
     630:	17ffffc1 	b	534 <print_properties.constprop.2+0x424>
/home/lagadanu/Desktop/qemu/out-br/build/optee_test-1.0/ta/os_test/os_test.c:273
     634:	90000100 	adrp	x0, 20000 <PRIME_TABLE+0x610>
     638:	aa1403e1 	mov	x1, x20
     63c:	912a0c00 	add	x0, x0, #0xa83
     640:	94003bc8 	bl	f560 <my_strcmp>
     644:	35000480 	cbnz	w0, 6d4 <print_properties.constprop.2+0x5c4>
/home/lagadanu/Desktop/qemu/out-br/build/optee_test-1.0/ta/os_test/os_test.c:275
     648:	90000101 	adrp	x1, 20000 <PRIME_TABLE+0x610>
     64c:	912b9421 	add	x1, x1, #0xae5
     650:	d28001a2 	mov	x2, #0xd                   	// #13
     654:	aa1903e0 	mov	x0, x25
     658:	94005bf3 	bl	17624 <memcpy>
/home/lagadanu/Desktop/qemu/out-br/build/optee_test-1.0/ta/os_test/os_test.c:278
     65c:	b9408fb3 	ldr	w19, [x29,#140]
/home/lagadanu/Desktop/qemu/out-br/build/optee_test-1.0/ta/os_test/os_test.c:279
     660:	aa1903e0 	mov	x0, x25
     664:	94003bb8 	bl	f544 <my_strlen>
/home/lagadanu/Desktop/qemu/out-br/build/optee_test-1.0/ta/os_test/os_test.c:278
     668:	eb00027f 	cmp	x19, x0
     66c:	540002a0 	b.eq	6c0 <print_properties.constprop.2+0x5b0>
/home/lagadanu/Desktop/qemu/out-br/build/optee_test-1.0/ta/os_test/os_test.c:284
     670:	f00000f3 	adrp	x19, 1f000 <malloc_add_pool+0xe0>
     674:	9114e273 	add	x19, x19, #0x538
     678:	9100a273 	add	x19, x19, #0x28
     67c:	aa1403e5 	mov	x5, x20
     680:	52800023 	mov	w3, #0x1                   	// #1
     684:	52800022 	mov	w2, #0x1                   	// #1
     688:	528023c1 	mov	w1, #0x11e                 	// #286
     68c:	aa1303e0 	mov	x0, x19
     690:	aa1903e6 	mov	x6, x25
     694:	90000104 	adrp	x4, 20000 <PRIME_TABLE+0x610>
     698:	912a5884 	add	x4, x4, #0xa96
     69c:	94005c2e 	bl	17754 <trace_printf>
/home/lagadanu/Desktop/qemu/out-br/build/optee_test-1.0/ta/os_test/os_test.c:287
     6a0:	90000104 	adrp	x4, 20000 <PRIME_TABLE+0x610>
     6a4:	aa1703e5 	mov	x5, x23
     6a8:	912afc84 	add	x4, x4, #0xabf
     6ac:	52800023 	mov	w3, #0x1                   	// #1
     6b0:	52800022 	mov	w2, #0x1                   	// #1
     6b4:	52802421 	mov	w1, #0x121                 	// #289
     6b8:	aa1303e0 	mov	x0, x19
     6bc:	17ffff31 	b	380 <print_properties.constprop.2+0x270>
/home/lagadanu/Desktop/qemu/out-br/build/optee_test-1.0/ta/os_test/os_test.c:281
     6c0:	b9408fa2 	ldr	w2, [x29,#140]
     6c4:	aa1703e1 	mov	x1, x23
     6c8:	aa1903e0 	mov	x0, x25
     6cc:	940065c4 	bl	19ddc <TEE_MemCompare>
/home/lagadanu/Desktop/qemu/out-br/build/optee_test-1.0/ta/os_test/os_test.c:280
     6d0:	35fffd00 	cbnz	w0, 670 <print_properties.constprop.2+0x560>
/home/lagadanu/Desktop/qemu/out-br/build/optee_test-1.0/ta/os_test/os_test.c:181
     6d4:	f94037a0 	ldr	x0, [x29,#104]
     6d8:	910042d6 	add	x22, x22, #0x10
     6dc:	eb16001f 	cmp	x0, x22
     6e0:	54ffecc1 	b.ne	478 <print_properties.constprop.2+0x368>
/home/lagadanu/Desktop/qemu/out-br/build/optee_test-1.0/ta/os_test/os_test.c:305
     6e4:	aa1503e0 	mov	x0, x21
     6e8:	940061fd 	bl	18edc <TEE_GetNextProperty>
/home/lagadanu/Desktop/qemu/out-br/build/optee_test-1.0/ta/os_test/os_test.c:306
     6ec:	34ffd300 	cbz	w0, 14c <print_properties.constprop.2+0x3c>
/home/lagadanu/Desktop/qemu/out-br/build/optee_test-1.0/ta/os_test/os_test.c:307
     6f0:	129ffee1 	mov	w1, #0xffff0008            	// #-65528
     6f4:	6b01001f 	cmp	w0, w1
     6f8:	1a8003f3 	csel	w19, wzr, w0, eq
     6fc:	17fffea8 	b	19c <print_properties.constprop.2+0x8c>
/home/lagadanu/Desktop/qemu/out-br/build/optee_test-1.0/ta/os_test/os_test.c:299
     700:	90000104 	adrp	x4, 20000 <PRIME_TABLE+0x610>
     704:	52800022 	mov	w2, #0x1                   	// #1
     708:	912b2484 	add	x4, x4, #0xac9
     70c:	52802581 	mov	w1, #0x12c                 	// #300
     710:	f94002c6 	ldr	x6, [x22]
     714:	17fffeb7 	b	1f0 <print_properties.constprop.2+0xe0>

0000000000000718 <test_properties>:
test_properties():
/home/lagadanu/Desktop/qemu/out-br/build/optee_test-1.0/ta/os_test/os_test.c:329
     718:	d10803ff 	sub	sp, sp, #0x200
/home/lagadanu/Desktop/qemu/out-br/build/optee_test-1.0/ta/os_test/os_test.c:332
     71c:	d2803a02 	mov	x2, #0x1d0                 	// #464
     720:	52800001 	mov	w1, #0x0                   	// #0
/home/lagadanu/Desktop/qemu/out-br/build/optee_test-1.0/ta/os_test/os_test.c:329
     724:	a9007bfd 	stp	x29, x30, [sp]
     728:	910003fd 	mov	x29, sp
     72c:	a90153f3 	stp	x19, x20, [sp,#16]
/home/lagadanu/Desktop/qemu/out-br/build/optee_test-1.0/ta/os_test/os_test.c:332
     730:	9100c3b4 	add	x20, x29, #0x30
     734:	aa1403e0 	mov	x0, x20
     738:	94005bc3 	bl	17644 <memset>
     73c:	90000102 	adrp	x2, 20000 <PRIME_TABLE+0x610>
     740:	912dc842 	add	x2, x2, #0xb72
     744:	f90053a2 	str	x2, [x29,#160]
     748:	90000102 	adrp	x2, 20000 <PRIME_TABLE+0x610>
     74c:	912e1442 	add	x2, x2, #0xb85
     750:	f9005ba2 	str	x2, [x29,#176]
     754:	90000102 	adrp	x2, 20000 <PRIME_TABLE+0x610>
     758:	912e6442 	add	x2, x2, #0xb99
     75c:	f90063a2 	str	x2, [x29,#192]
     760:	90000102 	adrp	x2, 20000 <PRIME_TABLE+0x610>
     764:	912eb042 	add	x2, x2, #0xbac
     768:	90000100 	adrp	x0, 20000 <PRIME_TABLE+0x610>
     76c:	f9006ba2 	str	x2, [x29,#208]
     770:	912bc800 	add	x0, x0, #0xaf2
     774:	90000102 	adrp	x2, 20000 <PRIME_TABLE+0x610>
     778:	912f0042 	add	x2, x2, #0xbc0
     77c:	f9001ba0 	str	x0, [x29,#48]
     780:	90000100 	adrp	x0, 20000 <PRIME_TABLE+0x610>
     784:	f90073a2 	str	x2, [x29,#224]
     788:	912bfc00 	add	x0, x0, #0xaff
     78c:	90000102 	adrp	x2, 20000 <PRIME_TABLE+0x610>
     790:	912f4442 	add	x2, x2, #0xbd1
     794:	f90023a0 	str	x0, [x29,#64]
     798:	90000100 	adrp	x0, 20000 <PRIME_TABLE+0x610>
     79c:	f9007ba2 	str	x2, [x29,#240]
     7a0:	912c5400 	add	x0, x0, #0xb15
     7a4:	90000102 	adrp	x2, 20000 <PRIME_TABLE+0x610>
     7a8:	912fd042 	add	x2, x2, #0xbf4
     7ac:	f9002ba0 	str	x0, [x29,#80]
     7b0:	90000100 	adrp	x0, 20000 <PRIME_TABLE+0x610>
     7b4:	f90083a2 	str	x2, [x29,#256]
     7b8:	912ca400 	add	x0, x0, #0xb29
     7bc:	90000102 	adrp	x2, 20000 <PRIME_TABLE+0x610>
     7c0:	91307442 	add	x2, x2, #0xc1d
     7c4:	f90033a0 	str	x0, [x29,#96]
     7c8:	90000100 	adrp	x0, 20000 <PRIME_TABLE+0x610>
     7cc:	f9008ba2 	str	x2, [x29,#272]
     7d0:	912d0800 	add	x0, x0, #0xb42
     7d4:	90000102 	adrp	x2, 20000 <PRIME_TABLE+0x610>
     7d8:	9130e442 	add	x2, x2, #0xc39
     7dc:	f9003ba0 	str	x0, [x29,#112]
     7e0:	90000100 	adrp	x0, 20000 <PRIME_TABLE+0x610>
     7e4:	f90093a2 	str	x2, [x29,#288]
     7e8:	912d4800 	add	x0, x0, #0xb52
     7ec:	90000102 	adrp	x2, 20000 <PRIME_TABLE+0x610>
     7f0:	91314842 	add	x2, x2, #0xc52
     7f4:	f90043a0 	str	x0, [x29,#128]
     7f8:	90000100 	adrp	x0, 20000 <PRIME_TABLE+0x610>
     7fc:	f9009ba2 	str	x2, [x29,#304]
     800:	912d8c00 	add	x0, x0, #0xb63
     804:	90000102 	adrp	x2, 20000 <PRIME_TABLE+0x610>
     808:	91321842 	add	x2, x2, #0xc86
     80c:	52800033 	mov	w19, #0x1                   	// #1
     810:	52800041 	mov	w1, #0x2                   	// #2
     814:	52800063 	mov	w3, #0x3                   	// #3
     818:	b9003ba1 	str	w1, [x29,#56]
     81c:	b900eba1 	str	w1, [x29,#232]
     820:	f9004ba0 	str	x0, [x29,#144]
     824:	52800080 	mov	w0, #0x4                   	// #4
     828:	f900a3a2 	str	x2, [x29,#320]
     82c:	90000102 	adrp	x2, 20000 <PRIME_TABLE+0x610>
     830:	b9009ba0 	str	w0, [x29,#152]
     834:	9132bc42 	add	x2, x2, #0xcaf
     838:	b900aba0 	str	w0, [x29,#168]
     83c:	b900cba0 	str	w0, [x29,#200]
     840:	b900dba0 	str	w0, [x29,#216]
     844:	b9014ba0 	str	w0, [x29,#328]
     848:	b9007bb3 	str	w19, [x29,#120]
     84c:	b9008bb3 	str	w19, [x29,#136]
     850:	b900bba3 	str	w3, [x29,#184]
     854:	b900fbb3 	str	w19, [x29,#248]
     858:	b9010bb3 	str	w19, [x29,#264]
     85c:	b9011bb3 	str	w19, [x29,#280]
     860:	b9013bb3 	str	w19, [x29,#312]
     864:	f900aba2 	str	x2, [x29,#336]
     868:	90000102 	adrp	x2, 20000 <PRIME_TABLE+0x610>
     86c:	91337842 	add	x2, x2, #0xcde
     870:	f900b3a2 	str	x2, [x29,#352]
     874:	90000102 	adrp	x2, 20000 <PRIME_TABLE+0x610>
     878:	9133f442 	add	x2, x2, #0xcfd
     87c:	f900bba2 	str	x2, [x29,#368]
     880:	90000102 	adrp	x2, 20000 <PRIME_TABLE+0x610>
     884:	91349442 	add	x2, x2, #0xd25
     888:	f900c3a2 	str	x2, [x29,#384]
     88c:	90000102 	adrp	x2, 20000 <PRIME_TABLE+0x610>
     890:	91354c42 	add	x2, x2, #0xd53
     894:	f900cba2 	str	x2, [x29,#400]
     898:	90000102 	adrp	x2, 20000 <PRIME_TABLE+0x610>
     89c:	9135c442 	add	x2, x2, #0xd71
     8a0:	b901cba1 	str	w1, [x29,#456]
     8a4:	f900d3a2 	str	x2, [x29,#416]
     8a8:	90000101 	adrp	x1, 20000 <PRIME_TABLE+0x610>
     8ac:	90000102 	adrp	x2, 20000 <PRIME_TABLE+0x610>
     8b0:	91364821 	add	x1, x1, #0xd92
     8b4:	9135f442 	add	x2, x2, #0xd7d
     8b8:	f900eba1 	str	x1, [x29,#464]
     8bc:	f900dba2 	str	x2, [x29,#432]
     8c0:	90000101 	adrp	x1, 20000 <PRIME_TABLE+0x610>
     8c4:	90000102 	adrp	x2, 20000 <PRIME_TABLE+0x610>
     8c8:	9124ec21 	add	x1, x1, #0x93b
     8cc:	91361c42 	add	x2, x2, #0xd87
     8d0:	b9016ba0 	str	w0, [x29,#360]
     8d4:	b9017ba0 	str	w0, [x29,#376]
     8d8:	b9019ba0 	str	w0, [x29,#408]
     8dc:	b901eba0 	str	w0, [x29,#488]
     8e0:	90000100 	adrp	x0, 20000 <PRIME_TABLE+0x610>
     8e4:	912a0c00 	add	x0, x0, #0xa83
     8e8:	f900fba0 	str	x0, [x29,#496]
     8ec:	528000a0 	mov	w0, #0x5                   	// #5
     8f0:	b9015bb3 	str	w19, [x29,#344]
     8f4:	b901fba0 	str	w0, [x29,#504]
/home/lagadanu/Desktop/qemu/out-br/build/optee_test-1.0/ta/os_test/os_test.c:366
     8f8:	9100a3a0 	add	x0, x29, #0x28
/home/lagadanu/Desktop/qemu/out-br/build/optee_test-1.0/ta/os_test/os_test.c:332
     8fc:	b9018bb3 	str	w19, [x29,#392]
     900:	b901bbb3 	str	w19, [x29,#440]
     904:	b901dba3 	str	w3, [x29,#472]
     908:	f900f3a1 	str	x1, [x29,#480]
     90c:	f900e3a2 	str	x2, [x29,#448]
/home/lagadanu/Desktop/qemu/out-br/build/optee_test-1.0/ta/os_test/os_test.c:366
     910:	9400611c 	bl	18d80 <TEE_AllocatePropertyEnumerator>
/home/lagadanu/Desktop/qemu/out-br/build/optee_test-1.0/ta/os_test/os_test.c:367
     914:	34000200 	cbz	w0, 954 <test_properties+0x23c>
/home/lagadanu/Desktop/qemu/out-br/build/optee_test-1.0/ta/os_test/os_test.c:368
     918:	2a1303e3 	mov	w3, w19
     91c:	2a1303e2 	mov	w2, w19
/home/lagadanu/Desktop/qemu/out-br/build/optee_test-1.0/ta/os_test/os_test.c:370
     920:	52bffff3 	mov	w19, #0xffff0000            	// #-65536
/home/lagadanu/Desktop/qemu/out-br/build/optee_test-1.0/ta/os_test/os_test.c:368
     924:	2a0003e5 	mov	w5, w0
     928:	90000104 	adrp	x4, 20000 <PRIME_TABLE+0x610>
     92c:	52802e21 	mov	w1, #0x171                 	// #369
     930:	91367884 	add	x4, x4, #0xd9e
     934:	f00000e0 	adrp	x0, 1f000 <malloc_add_pool+0xe0>
     938:	9115e000 	add	x0, x0, #0x578
     93c:	94005b86 	bl	17754 <trace_printf>
/home/lagadanu/Desktop/qemu/out-br/build/optee_test-1.0/ta/os_test/os_test.c:401
     940:	2a1303e0 	mov	w0, w19
     944:	a94153f3 	ldp	x19, x20, [sp,#16]
     948:	a9407bfd 	ldp	x29, x30, [sp]
     94c:	910803ff 	add	sp, sp, #0x200
     950:	d65f03c0 	ret
/home/lagadanu/Desktop/qemu/out-br/build/optee_test-1.0/ta/os_test/os_test.c:373
     954:	90000100 	adrp	x0, 20000 <PRIME_TABLE+0x610>
     958:	91373400 	add	x0, x0, #0xdcd
     95c:	940061c8 	bl	1907c <puts>
/home/lagadanu/Desktop/qemu/out-br/build/optee_test-1.0/ta/os_test/os_test.c:374
     960:	f94017a0 	ldr	x0, [x29,#40]
     964:	aa1403e2 	mov	x2, x20
     968:	b2407fe1 	mov	x1, #0xffffffff            	// #4294967295
     96c:	97fffde9 	bl	110 <print_properties.constprop.2>
     970:	2a0003f3 	mov	w19, w0
/home/lagadanu/Desktop/qemu/out-br/build/optee_test-1.0/ta/os_test/os_test.c:375
     974:	35000460 	cbnz	w0, a00 <test_properties+0x2e8>
/home/lagadanu/Desktop/qemu/out-br/build/optee_test-1.0/ta/os_test/os_test.c:378
     978:	90000100 	adrp	x0, 20000 <PRIME_TABLE+0x610>
     97c:	9137bc00 	add	x0, x0, #0xdef
     980:	940061bf 	bl	1907c <puts>
/home/lagadanu/Desktop/qemu/out-br/build/optee_test-1.0/ta/os_test/os_test.c:379
     984:	f94017a0 	ldr	x0, [x29,#40]
     988:	aa1403e2 	mov	x2, x20
     98c:	b27f7be1 	mov	x1, #0xfffffffe            	// #4294967294
     990:	97fffde0 	bl	110 <print_properties.constprop.2>
     994:	2a0003f3 	mov	w19, w0
/home/lagadanu/Desktop/qemu/out-br/build/optee_test-1.0/ta/os_test/os_test.c:381
     998:	35000340 	cbnz	w0, a00 <test_properties+0x2e8>
/home/lagadanu/Desktop/qemu/out-br/build/optee_test-1.0/ta/os_test/os_test.c:384
     99c:	90000100 	adrp	x0, 20000 <PRIME_TABLE+0x610>
     9a0:	91385400 	add	x0, x0, #0xe15
     9a4:	940061b6 	bl	1907c <puts>
/home/lagadanu/Desktop/qemu/out-br/build/optee_test-1.0/ta/os_test/os_test.c:385
     9a8:	f94017a0 	ldr	x0, [x29,#40]
     9ac:	d29fffa1 	mov	x1, #0xfffd                	// #65533
     9b0:	aa1403e2 	mov	x2, x20
     9b4:	f2bfffe1 	movk	x1, #0xffff, lsl #16
     9b8:	97fffdd6 	bl	110 <print_properties.constprop.2>
     9bc:	2a0003f3 	mov	w19, w0
/home/lagadanu/Desktop/qemu/out-br/build/optee_test-1.0/ta/os_test/os_test.c:387
     9c0:	35000200 	cbnz	w0, a00 <test_properties+0x2e8>
     9c4:	d2800000 	mov	x0, #0x0                   	// #0
/home/lagadanu/Desktop/qemu/out-br/build/optee_test-1.0/ta/os_test/os_test.c:391
     9c8:	d37cec01 	lsl	x1, x0, #4
     9cc:	8b010282 	add	x2, x20, x1
     9d0:	39403042 	ldrb	w2, [x2,#12]
     9d4:	350001c2 	cbnz	w2, a0c <test_properties+0x2f4>
/home/lagadanu/Desktop/qemu/out-br/build/optee_test-1.0/ta/os_test/os_test.c:392
     9d8:	f8616a85 	ldr	x5, [x20,x1]
/home/lagadanu/Desktop/qemu/out-br/build/optee_test-1.0/ta/os_test/os_test.c:393
     9dc:	52bffff3 	mov	w19, #0xffff0000            	// #-65536
/home/lagadanu/Desktop/qemu/out-br/build/optee_test-1.0/ta/os_test/os_test.c:392
     9e0:	90000104 	adrp	x4, 20000 <PRIME_TABLE+0x610>
     9e4:	52800023 	mov	w3, #0x1                   	// #1
     9e8:	9138ec84 	add	x4, x4, #0xe3b
     9ec:	52800022 	mov	w2, #0x1                   	// #1
     9f0:	52803101 	mov	w1, #0x188                 	// #392
     9f4:	f00000e0 	adrp	x0, 1f000 <malloc_add_pool+0xe0>
     9f8:	9115e000 	add	x0, x0, #0x578
     9fc:	94005b56 	bl	17754 <trace_printf>
/home/lagadanu/Desktop/qemu/out-br/build/optee_test-1.0/ta/os_test/os_test.c:399
     a00:	f94017a0 	ldr	x0, [x29,#40]
     a04:	940060f7 	bl	18de0 <TEE_FreePropertyEnumerator>
/home/lagadanu/Desktop/qemu/out-br/build/optee_test-1.0/ta/os_test/os_test.c:400
     a08:	17ffffce 	b	940 <test_properties+0x228>
/home/lagadanu/Desktop/qemu/out-br/build/optee_test-1.0/ta/os_test/os_test.c:390 (discriminator 2)
     a0c:	91000400 	add	x0, x0, #0x1
     a10:	f100741f 	cmp	x0, #0x1d
     a14:	54fffda1 	b.ne	9c8 <test_properties+0x2b0>
     a18:	17fffffa 	b	a00 <test_properties+0x2e8>

0000000000000a1c <ta_entry_basic>:
ta_entry_basic():
/home/lagadanu/Desktop/qemu/out-br/build/optee_test-1.0/ta/os_test/os_test.c:690
     a1c:	d10343ff 	sub	sp, sp, #0xd0
     a20:	a9017bfd 	stp	x29, x30, [sp,#16]
     a24:	910043fd 	add	x29, sp, #0x10
     a28:	a90253f3 	stp	x19, x20, [sp,#32]
     a2c:	aa0103f4 	mov	x20, x1
     a30:	a9035bf5 	stp	x21, x22, [sp,#48]
     a34:	2a0003f5 	mov	w21, w0
     a38:	6d04a7e8 	stp	d8, d9, [sp,#72]
/home/lagadanu/Desktop/qemu/out-br/build/optee_test-1.0/ta/os_test/os_test.c:693
     a3c:	90000100 	adrp	x0, 20000 <PRIME_TABLE+0x610>
     a40:	91393c00 	add	x0, x0, #0xe4f
/home/lagadanu/Desktop/qemu/out-br/build/optee_test-1.0/ta/os_test/os_test.c:690
     a44:	f90023f7 	str	x23, [sp,#64]
     a48:	fd002fea 	str	d10, [sp,#88]
/home/lagadanu/Desktop/qemu/out-br/build/optee_test-1.0/ta/os_test/os_test.c:693
     a4c:	9400618c 	bl	1907c <puts>
test_malloc():
/home/lagadanu/Desktop/qemu/out-br/build/optee_test-1.0/ta/os_test/os_test.c:316
     a50:	52800001 	mov	w1, #0x0                   	// #0
     a54:	52800080 	mov	w0, #0x4                   	// #4
     a58:	94006538 	bl	19f38 <TEE_Malloc>
/home/lagadanu/Desktop/qemu/out-br/build/optee_test-1.0/ta/os_test/os_test.c:318
     a5c:	b5000280 	cbnz	x0, aac <ta_entry_basic+0x90>
/home/lagadanu/Desktop/qemu/out-br/build/optee_test-1.0/ta/os_test/os_test.c:320
     a60:	129ffe73 	mov	w19, #0xffff000c            	// #-65524
/home/lagadanu/Desktop/qemu/out-br/build/optee_test-1.0/ta/os_test/os_test.c:319
     a64:	f00000e0 	adrp	x0, 1f000 <malloc_add_pool+0xe0>
     a68:	9115e000 	add	x0, x0, #0x578
     a6c:	90000104 	adrp	x4, 20000 <PRIME_TABLE+0x610>
     a70:	52800023 	mov	w3, #0x1                   	// #1
     a74:	91399484 	add	x4, x4, #0xe65
     a78:	52800022 	mov	w2, #0x1                   	// #1
     a7c:	528027e1 	mov	w1, #0x13f                 	// #319
     a80:	91004000 	add	x0, x0, #0x10
     a84:	94005b34 	bl	17754 <trace_printf>
ta_entry_basic():
/home/lagadanu/Desktop/qemu/out-br/build/optee_test-1.0/ta/os_test/os_test.c:723
     a88:	2a1303e0 	mov	w0, w19
     a8c:	f94023f7 	ldr	x23, [sp,#64]
     a90:	a94253f3 	ldp	x19, x20, [sp,#32]
     a94:	a9435bf5 	ldp	x21, x22, [sp,#48]
     a98:	a9417bfd 	ldp	x29, x30, [sp,#16]
     a9c:	6d44a7e8 	ldp	d8, d9, [sp,#72]
     aa0:	fd402fea 	ldr	d10, [sp,#88]
     aa4:	910343ff 	add	sp, sp, #0xd0
     aa8:	d65f03c0 	ret
test_malloc():
/home/lagadanu/Desktop/qemu/out-br/build/optee_test-1.0/ta/os_test/os_test.c:322
     aac:	9400653c 	bl	19f9c <TEE_Free>
/home/lagadanu/Desktop/qemu/out-br/build/optee_test-1.0/ta/os_test/os_test.c:323
     ab0:	d2800000 	mov	x0, #0x0                   	// #0
     ab4:	9400653a 	bl	19f9c <TEE_Free>
ta_entry_basic():
/home/lagadanu/Desktop/qemu/out-br/build/optee_test-1.0/ta/os_test/os_test.c:699
     ab8:	97ffff18 	bl	718 <test_properties>
     abc:	2a0003f3 	mov	w19, w0
/home/lagadanu/Desktop/qemu/out-br/build/optee_test-1.0/ta/os_test/os_test.c:700
     ac0:	35fffe40 	cbnz	w0, a88 <ta_entry_basic+0x6c>
test_mem_access_right():
/home/lagadanu/Desktop/qemu/out-br/build/optee_test-1.0/ta/os_test/os_test.c:410
     ac4:	a9087fbf 	stp	xzr, xzr, [x29,#128]
/home/lagadanu/Desktop/qemu/out-br/build/optee_test-1.0/ta/os_test/os_test.c:415
     ac8:	710016bf 	cmp	w21, #0x5
/home/lagadanu/Desktop/qemu/out-br/build/optee_test-1.0/ta/os_test/os_test.c:410
     acc:	a9097fbf 	stp	xzr, xzr, [x29,#144]
     ad0:	a90a7fbf 	stp	xzr, xzr, [x29,#160]
     ad4:	a90b7fbf 	stp	xzr, xzr, [x29,#176]
/home/lagadanu/Desktop/qemu/out-br/build/optee_test-1.0/ta/os_test/os_test.c:412
     ad8:	f9002fbf 	str	xzr, [x29,#88]
/home/lagadanu/Desktop/qemu/out-br/build/optee_test-1.0/ta/os_test/os_test.c:415
     adc:	54002481 	b.ne	f6c <ta_entry_basic+0x550>
/home/lagadanu/Desktop/qemu/out-br/build/optee_test-1.0/ta/os_test/os_test.c:420
     ae0:	b9400a82 	ldr	w2, [x20,#8]
     ae4:	2a1503e0 	mov	w0, w21
     ae8:	f9400281 	ldr	x1, [x20]
     aec:	940064af 	bl	19da8 <TEE_CheckMemoryAccessRights>
     af0:	2a0003f3 	mov	w19, w0
/home/lagadanu/Desktop/qemu/out-br/build/optee_test-1.0/ta/os_test/os_test.c:424
     af4:	35fffca0 	cbnz	w0, a88 <ta_entry_basic+0x6c>
/home/lagadanu/Desktop/qemu/out-br/build/optee_test-1.0/ta/os_test/os_test.c:427
     af8:	f9400281 	ldr	x1, [x20]
     afc:	52800020 	mov	w0, #0x1                   	// #1
     b00:	b9400a82 	ldr	w2, [x20,#8]
     b04:	940064a9 	bl	19da8 <TEE_CheckMemoryAccessRights>
/home/lagadanu/Desktop/qemu/out-br/build/optee_test-1.0/ta/os_test/os_test.c:430
     b08:	129fffc1 	mov	w1, #0xffff0001            	// #-65535
     b0c:	6b01001f 	cmp	w0, w1
     b10:	540022e1 	b.ne	f6c <ta_entry_basic+0x550>
/home/lagadanu/Desktop/qemu/out-br/build/optee_test-1.0/ta/os_test/os_test.c:434
     b14:	f00000f4 	adrp	x20, 1f000 <malloc_add_pool+0xe0>
     b18:	9115e295 	add	x21, x20, #0x578
     b1c:	910082b5 	add	x21, x21, #0x20
     b20:	52800202 	mov	w2, #0x10                  	// #16
     b24:	aa1503e1 	mov	x1, x21
     b28:	52800020 	mov	w0, #0x1                   	// #1
     b2c:	9400649f 	bl	19da8 <TEE_CheckMemoryAccessRights>
     b30:	2a0003f3 	mov	w19, w0
/home/lagadanu/Desktop/qemu/out-br/build/optee_test-1.0/ta/os_test/os_test.c:436
     b34:	35fffaa0 	cbnz	w0, a88 <ta_entry_basic+0x6c>
/home/lagadanu/Desktop/qemu/out-br/build/optee_test-1.0/ta/os_test/os_test.c:439
     b38:	52800202 	mov	w2, #0x10                  	// #16
     b3c:	aa1503e1 	mov	x1, x21
     b40:	52800040 	mov	w0, #0x2                   	// #2
     b44:	94006499 	bl	19da8 <TEE_CheckMemoryAccessRights>
/home/lagadanu/Desktop/qemu/out-br/build/optee_test-1.0/ta/os_test/os_test.c:441
     b48:	34002120 	cbz	w0, f6c <ta_entry_basic+0x550>
/home/lagadanu/Desktop/qemu/out-br/build/optee_test-1.0/ta/os_test/os_test.c:444
     b4c:	910153b6 	add	x22, x29, #0x54
     b50:	52800082 	mov	w2, #0x4                   	// #4
     b54:	aa1603e1 	mov	x1, x22
     b58:	52800060 	mov	w0, #0x3                   	// #3
     b5c:	94006493 	bl	19da8 <TEE_CheckMemoryAccessRights>
     b60:	2a0003f3 	mov	w19, w0
/home/lagadanu/Desktop/qemu/out-br/build/optee_test-1.0/ta/os_test/os_test.c:447
     b64:	35fff920 	cbnz	w0, a88 <ta_entry_basic+0x6c>
/home/lagadanu/Desktop/qemu/out-br/build/optee_test-1.0/ta/os_test/os_test.c:450
     b68:	52800001 	mov	w1, #0x0                   	// #0
     b6c:	52800200 	mov	w0, #0x10                  	// #16
/home/lagadanu/Desktop/qemu/out-br/build/optee_test-1.0/ta/os_test/os_test.c:452
     b70:	129ffe73 	mov	w19, #0xffff000c            	// #-65524
/home/lagadanu/Desktop/qemu/out-br/build/optee_test-1.0/ta/os_test/os_test.c:450
     b74:	940064f1 	bl	19f38 <TEE_Malloc>
     b78:	aa0003f5 	mov	x21, x0
/home/lagadanu/Desktop/qemu/out-br/build/optee_test-1.0/ta/os_test/os_test.c:451
     b7c:	b4fff860 	cbz	x0, a88 <ta_entry_basic+0x6c>
/home/lagadanu/Desktop/qemu/out-br/build/optee_test-1.0/ta/os_test/os_test.c:454
     b80:	aa0003e1 	mov	x1, x0
     b84:	52800202 	mov	w2, #0x10                  	// #16
     b88:	52800060 	mov	w0, #0x3                   	// #3
     b8c:	94006487 	bl	19da8 <TEE_CheckMemoryAccessRights>
     b90:	2a0003f3 	mov	w19, w0
/home/lagadanu/Desktop/qemu/out-br/build/optee_test-1.0/ta/os_test/os_test.c:457
     b94:	aa1503e0 	mov	x0, x21
     b98:	94006501 	bl	19f9c <TEE_Free>
/home/lagadanu/Desktop/qemu/out-br/build/optee_test-1.0/ta/os_test/os_test.c:458
     b9c:	35fff773 	cbnz	w19, a88 <ta_entry_basic+0x6c>
/home/lagadanu/Desktop/qemu/out-br/build/optee_test-1.0/ta/os_test/os_test.c:462
     ba0:	52800022 	mov	w2, #0x1                   	// #1
     ba4:	d2800001 	mov	x1, #0x0                   	// #0
     ba8:	2a0203e0 	mov	w0, w2
     bac:	9400647f 	bl	19da8 <TEE_CheckMemoryAccessRights>
/home/lagadanu/Desktop/qemu/out-br/build/optee_test-1.0/ta/os_test/os_test.c:464
     bb0:	34001de0 	cbz	w0, f6c <ta_entry_basic+0x550>
/home/lagadanu/Desktop/qemu/out-br/build/optee_test-1.0/ta/os_test/os_test.c:467
     bb4:	52800022 	mov	w2, #0x1                   	// #1
     bb8:	d2a00081 	mov	x1, #0x40000               	// #262144
     bbc:	2a0203e0 	mov	w0, w2
     bc0:	9400647a 	bl	19da8 <TEE_CheckMemoryAccessRights>
/home/lagadanu/Desktop/qemu/out-br/build/optee_test-1.0/ta/os_test/os_test.c:469
     bc4:	34001d40 	cbz	w0, f6c <ta_entry_basic+0x550>
/home/lagadanu/Desktop/qemu/out-br/build/optee_test-1.0/ta/os_test/os_test.c:472
     bc8:	9115e295 	add	x21, x20, #0x578
     bcc:	aa1603e5 	mov	x5, x22
     bd0:	910163a4 	add	x4, x29, #0x58
     bd4:	d2800003 	mov	x3, #0x0                   	// #0
     bd8:	52800002 	mov	w2, #0x0                   	// #0
     bdc:	52800001 	mov	w1, #0x0                   	// #0
     be0:	910082a0 	add	x0, x21, #0x20
     be4:	940063f5 	bl	19bb8 <TEE_OpenTASession>
     be8:	2a0003f3 	mov	w19, w0
/home/lagadanu/Desktop/qemu/out-br/build/optee_test-1.0/ta/os_test/os_test.c:473
     bec:	34000620 	cbz	w0, cb0 <ta_entry_basic+0x294>
/home/lagadanu/Desktop/qemu/out-br/build/optee_test-1.0/ta/os_test/os_test.c:474
     bf0:	90000104 	adrp	x4, 20000 <PRIME_TABLE+0x610>
     bf4:	9139e084 	add	x4, x4, #0xe78
     bf8:	52800023 	mov	w3, #0x1                   	// #1
     bfc:	52800022 	mov	w2, #0x1                   	// #1
     c00:	52803b41 	mov	w1, #0x1da                 	// #474
/home/lagadanu/Desktop/qemu/out-br/build/optee_test-1.0/ta/os_test/os_test.c:487
     c04:	9100c2a0 	add	x0, x21, #0x30
     c08:	94005ad3 	bl	17754 <trace_printf>
/home/lagadanu/Desktop/qemu/out-br/build/optee_test-1.0/ta/os_test/os_test.c:492
     c0c:	f9402fa0 	ldr	x0, [x29,#88]
     c10:	9400640e 	bl	19c48 <TEE_CloseTASession>
ta_entry_basic():
/home/lagadanu/Desktop/qemu/out-br/build/optee_test-1.0/ta/os_test/os_test.c:704
     c14:	35fff3b3 	cbnz	w19, a88 <ta_entry_basic+0x6c>
test_time():
/home/lagadanu/Desktop/qemu/out-br/build/optee_test-1.0/ta/os_test/os_test.c:505
     c18:	910203a0 	add	x0, x29, #0x80
     c1c:	94006474 	bl	19dec <TEE_GetSystemTime>
/home/lagadanu/Desktop/qemu/out-br/build/optee_test-1.0/ta/os_test/os_test.c:506
     c20:	29500ba1 	ldp	w1, w2, [x29,#128]
/home/lagadanu/Desktop/qemu/out-br/build/optee_test-1.0/ta/os_test/os_test.c:509
     c24:	910183b7 	add	x23, x29, #0x60
/home/lagadanu/Desktop/qemu/out-br/build/optee_test-1.0/ta/os_test/os_test.c:506
     c28:	90000100 	adrp	x0, 20000 <PRIME_TABLE+0x610>
     c2c:	913b7000 	add	x0, x0, #0xedc
     c30:	940060e0 	bl	18fb0 <printf>
/home/lagadanu/Desktop/qemu/out-br/build/optee_test-1.0/ta/os_test/os_test.c:509
     c34:	aa1703e0 	mov	x0, x23
     c38:	940064b6 	bl	19f10 <TEE_GetREETime>
/home/lagadanu/Desktop/qemu/out-br/build/optee_test-1.0/ta/os_test/os_test.c:510
     c3c:	294c0ba1 	ldp	w1, w2, [x29,#96]
     c40:	90000100 	adrp	x0, 20000 <PRIME_TABLE+0x610>
     c44:	913bc400 	add	x0, x0, #0xef1
     c48:	940060da 	bl	18fb0 <printf>
/home/lagadanu/Desktop/qemu/out-br/build/optee_test-1.0/ta/os_test/os_test.c:513
     c4c:	aa1703e0 	mov	x0, x23
     c50:	94006480 	bl	19e50 <TEE_GetTAPersistentTime>
     c54:	2a0003f3 	mov	w19, w0
/home/lagadanu/Desktop/qemu/out-br/build/optee_test-1.0/ta/os_test/os_test.c:514
     c58:	1299fe00 	mov	w0, #0xffff300f            	// #-53233
     c5c:	6b00027f 	cmp	w19, w0
     c60:	54000960 	b.eq	d8c <ta_entry_basic+0x370>
     c64:	54000508 	b.hi	d04 <ta_entry_basic+0x2e8>
     c68:	35fff113 	cbnz	w19, a88 <ta_entry_basic+0x6c>
/home/lagadanu/Desktop/qemu/out-br/build/optee_test-1.0/ta/os_test/os_test.c:516
     c6c:	294c0ba1 	ldp	w1, w2, [x29,#96]
     c70:	90000100 	adrp	x0, 20000 <PRIME_TABLE+0x610>
     c74:	913c0c00 	add	x0, x0, #0xf03
     c78:	940060ce 	bl	18fb0 <printf>
/home/lagadanu/Desktop/qemu/out-br/build/optee_test-1.0/ta/os_test/os_test.c:533
     c7c:	9115e295 	add	x21, x20, #0x578
     c80:	910162a0 	add	x0, x21, #0x58
     c84:	94006493 	bl	19ed0 <TEE_SetTAPersistentTime>
     c88:	2a0003f3 	mov	w19, w0
/home/lagadanu/Desktop/qemu/out-br/build/optee_test-1.0/ta/os_test/os_test.c:534
     c8c:	34000b40 	cbz	w0, df4 <ta_entry_basic+0x3d8>
/home/lagadanu/Desktop/qemu/out-br/build/optee_test-1.0/ta/os_test/os_test.c:535
     c90:	90000104 	adrp	x4, 20000 <PRIME_TABLE+0x610>
     c94:	913d9c84 	add	x4, x4, #0xf67
     c98:	52800023 	mov	w3, #0x1                   	// #1
     c9c:	52800022 	mov	w2, #0x1                   	// #1
     ca0:	528042e1 	mov	w1, #0x217                 	// #535
/home/lagadanu/Desktop/qemu/out-br/build/optee_test-1.0/ta/os_test/os_test.c:541
     ca4:	910122a0 	add	x0, x21, #0x48
     ca8:	94005aab 	bl	17754 <trace_printf>
     cac:	17ffff77 	b	a88 <ta_entry_basic+0x6c>
test_mem_access_right():
/home/lagadanu/Desktop/qemu/out-br/build/optee_test-1.0/ta/os_test/os_test.c:480
     cb0:	910183a0 	add	x0, x29, #0x60
     cb4:	f90043a0 	str	x0, [x29,#128]
/home/lagadanu/Desktop/qemu/out-br/build/optee_test-1.0/ta/os_test/os_test.c:481
     cb8:	52800400 	mov	w0, #0x20                  	// #32
     cbc:	b9008ba0 	str	w0, [x29,#136]
/home/lagadanu/Desktop/qemu/out-br/build/optee_test-1.0/ta/os_test/os_test.c:484
     cc0:	f9402fa0 	ldr	x0, [x29,#88]
     cc4:	aa1603e5 	mov	x5, x22
     cc8:	910203a4 	add	x4, x29, #0x80
     ccc:	52800aa3 	mov	w3, #0x55                  	// #85
     cd0:	52800102 	mov	w2, #0x8                   	// #8
     cd4:	52800001 	mov	w1, #0x0                   	// #0
/home/lagadanu/Desktop/qemu/out-br/build/optee_test-1.0/ta/os_test/os_test.c:482
     cd8:	f9004bbf 	str	xzr, [x29,#144]
/home/lagadanu/Desktop/qemu/out-br/build/optee_test-1.0/ta/os_test/os_test.c:483
     cdc:	b9009bbf 	str	wzr, [x29,#152]
/home/lagadanu/Desktop/qemu/out-br/build/optee_test-1.0/ta/os_test/os_test.c:484
     ce0:	940063e4 	bl	19c70 <TEE_InvokeTACommand>
     ce4:	2a0003f3 	mov	w19, w0
/home/lagadanu/Desktop/qemu/out-br/build/optee_test-1.0/ta/os_test/os_test.c:486
     ce8:	34fff920 	cbz	w0, c0c <ta_entry_basic+0x1f0>
/home/lagadanu/Desktop/qemu/out-br/build/optee_test-1.0/ta/os_test/os_test.c:487
     cec:	90000104 	adrp	x4, 20000 <PRIME_TABLE+0x610>
     cf0:	52800023 	mov	w3, #0x1                   	// #1
     cf4:	913aa484 	add	x4, x4, #0xea9
     cf8:	52800022 	mov	w2, #0x1                   	// #1
     cfc:	52803ce1 	mov	w1, #0x1e7                 	// #487
     d00:	17ffffc1 	b	c04 <ta_entry_basic+0x1e8>
test_time():
/home/lagadanu/Desktop/qemu/out-br/build/optee_test-1.0/ta/os_test/os_test.c:514
     d04:	31402e7f 	cmn	w19, #0xb, lsl #12
     d08:	54000560 	b.eq	db4 <ta_entry_basic+0x398>
     d0c:	1295ffc0 	mov	w0, #0xffff5001            	// #-45055
     d10:	6b00027f 	cmp	w19, w0
     d14:	54000620 	b.eq	dd8 <ta_entry_basic+0x3bc>
ta_entry_basic():
/home/lagadanu/Desktop/qemu/out-br/build/optee_test-1.0/ta/os_test/os_test.c:708
     d18:	35ffeb93 	cbnz	w19, a88 <ta_entry_basic+0x6c>
test_float():
/home/lagadanu/Desktop/qemu/out-br/build/optee_test-1.0/ta/os_test/os_test.c:611
     d1c:	9115e280 	add	x0, x20, #0x578
     d20:	52800023 	mov	w3, #0x1                   	// #1
     d24:	52800042 	mov	w2, #0x2                   	// #2
     d28:	52804c61 	mov	w1, #0x263                 	// #611
     d2c:	9101a000 	add	x0, x0, #0x68
     d30:	b0000104 	adrp	x4, 21000 <__compound_literal.0+0x7cc>
     d34:	91018084 	add	x4, x4, #0x60
     d38:	94005a87 	bl	17754 <trace_printf>
/home/lagadanu/Desktop/qemu/out-br/build/optee_test-1.0/ta/os_test/os_test.c:613
     d3c:	5c005628 	ldr	d8, 1800 <ta_entry_basic+0xde4>
     d40:	5c005649 	ldr	d9, 1808 <ta_entry_basic+0xdec>
     d44:	1e604101 	fmov	d1, d8
     d48:	1e604120 	fmov	d0, d9
     d4c:	940059de 	bl	174c4 <test_float_dadd>
my_dcmpeq():
/home/lagadanu/Desktop/qemu/out-br/build/optee_test-1.0/ta/os_test/os_test.c:588
     d50:	5c005601 	ldr	d1, 1810 <ta_entry_basic+0xdf4>
     d54:	1e612010 	fcmpe	d0, d1
     d58:	5400008d 	b.le	d68 <ta_entry_basic+0x34c>
     d5c:	5c0055e1 	ldr	d1, 1818 <ta_entry_basic+0xdfc>
     d60:	1e612010 	fcmpe	d0, d1
     d64:	54002cc4 	b.mi	12fc <ta_entry_basic+0x8e0>
test_float():
/home/lagadanu/Desktop/qemu/out-br/build/optee_test-1.0/ta/os_test/os_test.c:613
     d68:	b0000105 	adrp	x5, 21000 <__compound_literal.0+0x7cc>
     d6c:	b0000104 	adrp	x4, 21000 <__compound_literal.0+0x7cc>
     d70:	9115e280 	add	x0, x20, #0x578
     d74:	910c24a5 	add	x5, x5, #0x309
     d78:	91029484 	add	x4, x4, #0xa5
     d7c:	52800023 	mov	w3, #0x1                   	// #1
     d80:	52800022 	mov	w2, #0x1                   	// #1
     d84:	52804ca1 	mov	w1, #0x265                 	// #613
     d88:	14000077 	b	f64 <ta_entry_basic+0x548>
test_time():
/home/lagadanu/Desktop/qemu/out-br/build/optee_test-1.0/ta/os_test/os_test.c:520
     d8c:	294c1ba5 	ldp	w5, w6, [x29,#96]
     d90:	9115e280 	add	x0, x20, #0x578
     d94:	90000104 	adrp	x4, 20000 <PRIME_TABLE+0x610>
     d98:	52800023 	mov	w3, #0x1                   	// #1
     d9c:	913c6c84 	add	x4, x4, #0xf1b
     da0:	52800022 	mov	w2, #0x1                   	// #1
     da4:	52804121 	mov	w1, #0x209                 	// #521
     da8:	91012000 	add	x0, x0, #0x48
     dac:	94005a6a 	bl	17754 <trace_printf>
     db0:	17ffffb3 	b	c7c <ta_entry_basic+0x260>
/home/lagadanu/Desktop/qemu/out-br/build/optee_test-1.0/ta/os_test/os_test.c:524
     db4:	90000104 	adrp	x4, 20000 <PRIME_TABLE+0x610>
     db8:	9115e280 	add	x0, x20, #0x578
     dbc:	913cf884 	add	x4, x4, #0xf3e
     dc0:	52800023 	mov	w3, #0x1                   	// #1
     dc4:	52800022 	mov	w2, #0x1                   	// #1
     dc8:	52804181 	mov	w1, #0x20c                 	// #524
/home/lagadanu/Desktop/qemu/out-br/build/optee_test-1.0/ta/os_test/os_test.c:527
     dcc:	91012000 	add	x0, x0, #0x48
     dd0:	94005a61 	bl	17754 <trace_printf>
     dd4:	17ffffaa 	b	c7c <ta_entry_basic+0x260>
     dd8:	90000104 	adrp	x4, 20000 <PRIME_TABLE+0x610>
     ddc:	9115e280 	add	x0, x20, #0x578
     de0:	913d4884 	add	x4, x4, #0xf52
     de4:	52800023 	mov	w3, #0x1                   	// #1
     de8:	52800022 	mov	w2, #0x1                   	// #1
     dec:	528041e1 	mov	w1, #0x20f                 	// #527
     df0:	17fffff7 	b	dcc <ta_entry_basic+0x3b0>
/home/lagadanu/Desktop/qemu/out-br/build/optee_test-1.0/ta/os_test/os_test.c:539
     df4:	aa1703e0 	mov	x0, x23
     df8:	94006416 	bl	19e50 <TEE_GetTAPersistentTime>
     dfc:	2a0003f3 	mov	w19, w0
/home/lagadanu/Desktop/qemu/out-br/build/optee_test-1.0/ta/os_test/os_test.c:540
     e00:	340000e0 	cbz	w0, e1c <ta_entry_basic+0x400>
/home/lagadanu/Desktop/qemu/out-br/build/optee_test-1.0/ta/os_test/os_test.c:541
     e04:	90000104 	adrp	x4, 20000 <PRIME_TABLE+0x610>
     e08:	52800023 	mov	w3, #0x1                   	// #1
     e0c:	913e2084 	add	x4, x4, #0xf88
     e10:	52800022 	mov	w2, #0x1                   	// #1
     e14:	528043a1 	mov	w1, #0x21d                 	// #541
     e18:	17ffffa3 	b	ca4 <ta_entry_basic+0x288>
/home/lagadanu/Desktop/qemu/out-br/build/optee_test-1.0/ta/os_test/os_test.c:544
     e1c:	294c0ba1 	ldp	w1, w2, [x29,#96]
     e20:	90000116 	adrp	x22, 20000 <PRIME_TABLE+0x610>
     e24:	913c2ac0 	add	x0, x22, #0xf0a
     e28:	94006062 	bl	18fb0 <printf>
/home/lagadanu/Desktop/qemu/out-br/build/optee_test-1.0/ta/os_test/os_test.c:551
     e2c:	b94063a5 	ldr	w5, [x29,#96]
     e30:	710004bf 	cmp	w5, #0x1
     e34:	54000088 	b.hi	e44 <ta_entry_basic+0x428>
     e38:	b94067a0 	ldr	w0, [x29,#100]
     e3c:	710f9c1f 	cmp	w0, #0x3e7
     e40:	54000189 	b.ls	e70 <ta_entry_basic+0x454>
/home/lagadanu/Desktop/qemu/out-br/build/optee_test-1.0/ta/os_test/os_test.c:552
     e44:	b94067a6 	ldr	w6, [x29,#100]
     e48:	9115e280 	add	x0, x20, #0x578
     e4c:	90000104 	adrp	x4, 20000 <PRIME_TABLE+0x610>
     e50:	52800023 	mov	w3, #0x1                   	// #1
     e54:	913eb884 	add	x4, x4, #0xfae
     e58:	52800022 	mov	w2, #0x1                   	// #1
     e5c:	52804521 	mov	w1, #0x229                 	// #553
     e60:	91012000 	add	x0, x0, #0x48
     e64:	94005a3c 	bl	17754 <trace_printf>
/home/lagadanu/Desktop/qemu/out-br/build/optee_test-1.0/ta/os_test/os_test.c:570
     e68:	129fff13 	mov	w19, #0xffff0007            	// #-65529
     e6c:	17ffff07 	b	a88 <ta_entry_basic+0x6c>
/home/lagadanu/Desktop/qemu/out-br/build/optee_test-1.0/ta/os_test/os_test.c:557
     e70:	910182a0 	add	x0, x21, #0x60
     e74:	94006417 	bl	19ed0 <TEE_SetTAPersistentTime>
     e78:	2a0003f3 	mov	w19, w0
/home/lagadanu/Desktop/qemu/out-br/build/optee_test-1.0/ta/os_test/os_test.c:558
     e7c:	340000e0 	cbz	w0, e98 <ta_entry_basic+0x47c>
/home/lagadanu/Desktop/qemu/out-br/build/optee_test-1.0/ta/os_test/os_test.c:559
     e80:	90000104 	adrp	x4, 20000 <PRIME_TABLE+0x610>
     e84:	52800023 	mov	w3, #0x1                   	// #1
     e88:	913f4484 	add	x4, x4, #0xfd1
     e8c:	52800022 	mov	w2, #0x1                   	// #1
     e90:	528045e1 	mov	w1, #0x22f                 	// #559
     e94:	17ffff84 	b	ca4 <ta_entry_basic+0x288>
/home/lagadanu/Desktop/qemu/out-br/build/optee_test-1.0/ta/os_test/os_test.c:563
     e98:	52807d00 	mov	w0, #0x3e8                 	// #1000
     e9c:	940063de 	bl	19e14 <TEE_Wait>
/home/lagadanu/Desktop/qemu/out-br/build/optee_test-1.0/ta/os_test/os_test.c:564
     ea0:	34000100 	cbz	w0, ec0 <ta_entry_basic+0x4a4>
/home/lagadanu/Desktop/qemu/out-br/build/optee_test-1.0/ta/os_test/os_test.c:565
     ea4:	90000104 	adrp	x4, 20000 <PRIME_TABLE+0x610>
     ea8:	52800023 	mov	w3, #0x1                   	// #1
     eac:	913fdc84 	add	x4, x4, #0xff7
     eb0:	52800022 	mov	w2, #0x1                   	// #1
     eb4:	528046a1 	mov	w1, #0x235                 	// #565
     eb8:	910122a0 	add	x0, x21, #0x48
     ebc:	94005a26 	bl	17754 <trace_printf>
/home/lagadanu/Desktop/qemu/out-br/build/optee_test-1.0/ta/os_test/os_test.c:567
     ec0:	aa1703e0 	mov	x0, x23
     ec4:	940063e3 	bl	19e50 <TEE_GetTAPersistentTime>
/home/lagadanu/Desktop/qemu/out-br/build/optee_test-1.0/ta/os_test/os_test.c:568
     ec8:	1299fe01 	mov	w1, #0xffff300f            	// #-53233
     ecc:	6b01001f 	cmp	w0, w1
     ed0:	54000140 	b.eq	ef8 <ta_entry_basic+0x4dc>
/home/lagadanu/Desktop/qemu/out-br/build/optee_test-1.0/ta/os_test/os_test.c:569
     ed4:	9115e280 	add	x0, x20, #0x578
     ed8:	b0000104 	adrp	x4, 21000 <__compound_literal.0+0x7cc>
     edc:	52800023 	mov	w3, #0x1                   	// #1
     ee0:	91003884 	add	x4, x4, #0xe
     ee4:	52800022 	mov	w2, #0x1                   	// #1
     ee8:	52804721 	mov	w1, #0x239                 	// #569
     eec:	91012000 	add	x0, x0, #0x48
     ef0:	94005a19 	bl	17754 <trace_printf>
     ef4:	17ffffdd 	b	e68 <ta_entry_basic+0x44c>
/home/lagadanu/Desktop/qemu/out-br/build/optee_test-1.0/ta/os_test/os_test.c:572
     ef8:	294c0ba1 	ldp	w1, w2, [x29,#96]
     efc:	913c2ac0 	add	x0, x22, #0xf0a
     f00:	9400602c 	bl	18fb0 <printf>
/home/lagadanu/Desktop/qemu/out-br/build/optee_test-1.0/ta/os_test/os_test.c:575
     f04:	b94063a5 	ldr	w5, [x29,#96]
     f08:	b94083a7 	ldr	w7, [x29,#128]
     f0c:	6b0700bf 	cmp	w5, w7
     f10:	54fff069 	b.ls	d1c <ta_entry_basic+0x300>
/home/lagadanu/Desktop/qemu/out-br/build/optee_test-1.0/ta/os_test/os_test.c:576
     f14:	b94067a6 	ldr	w6, [x29,#100]
     f18:	9115e280 	add	x0, x20, #0x578
     f1c:	b94087a1 	ldr	w1, [x29,#132]
     f20:	b0000104 	adrp	x4, 21000 <__compound_literal.0+0x7cc>
     f24:	b90003e1 	str	w1, [sp]
     f28:	9100bc84 	add	x4, x4, #0x2f
     f2c:	52800023 	mov	w3, #0x1                   	// #1
     f30:	52800022 	mov	w2, #0x1                   	// #1
     f34:	91012000 	add	x0, x0, #0x48
     f38:	52804841 	mov	w1, #0x242                 	// #578
     f3c:	94005a06 	bl	17754 <trace_printf>
     f40:	17ffffca 	b	e68 <ta_entry_basic+0x44c>
test_float():
/home/lagadanu/Desktop/qemu/out-br/build/optee_test-1.0/ta/os_test/os_test.c:619
     f44:	b0000105 	adrp	x5, 21000 <__compound_literal.0+0x7cc>
     f48:	b0000104 	adrp	x4, 21000 <__compound_literal.0+0x7cc>
     f4c:	9115e280 	add	x0, x20, #0x578
     f50:	910208a5 	add	x5, x5, #0x82
     f54:	91029484 	add	x4, x4, #0xa5
     f58:	52800023 	mov	w3, #0x1                   	// #1
     f5c:	52800022 	mov	w2, #0x1                   	// #1
     f60:	52804d61 	mov	w1, #0x26b                 	// #619
/home/lagadanu/Desktop/qemu/out-br/build/optee_test-1.0/ta/os_test/os_test.c:658
     f64:	9101a000 	add	x0, x0, #0x68
     f68:	940059fb 	bl	17754 <trace_printf>
     f6c:	52bffff3 	mov	w19, #0xffff0000            	// #-65536
     f70:	17fffec6 	b	a88 <ta_entry_basic+0x6c>
/home/lagadanu/Desktop/qemu/out-br/build/optee_test-1.0/ta/os_test/os_test.c:621
     f74:	1e604121 	fmov	d1, d9
     f78:	1e604120 	fmov	d0, d9
     f7c:	94005962 	bl	17504 <test_float_dcmple>
     f80:	2a0003f5 	mov	w21, w0
     f84:	7100041f 	cmp	w0, #0x1
     f88:	54000140 	b.eq	fb0 <ta_entry_basic+0x594>
     f8c:	b0000105 	adrp	x5, 21000 <__compound_literal.0+0x7cc>
     f90:	b0000104 	adrp	x4, 21000 <__compound_literal.0+0x7cc>
     f94:	9115e280 	add	x0, x20, #0x578
     f98:	910374a5 	add	x5, x5, #0xdd
     f9c:	91029484 	add	x4, x4, #0xa5
     fa0:	2a1603e3 	mov	w3, w22
     fa4:	2a1603e2 	mov	w2, w22
     fa8:	52804da1 	mov	w1, #0x26d                 	// #621
     fac:	17ffffee 	b	f64 <ta_entry_basic+0x548>
/home/lagadanu/Desktop/qemu/out-br/build/optee_test-1.0/ta/os_test/os_test.c:622
     fb0:	1e604121 	fmov	d1, d9
     fb4:	1e604120 	fmov	d0, d9
     fb8:	94005956 	bl	17510 <test_float_dcmpge>
     fbc:	2a0003f3 	mov	w19, w0
     fc0:	7100041f 	cmp	w0, #0x1
     fc4:	54000140 	b.eq	fec <ta_entry_basic+0x5d0>
     fc8:	b0000105 	adrp	x5, 21000 <__compound_literal.0+0x7cc>
     fcc:	b0000104 	adrp	x4, 21000 <__compound_literal.0+0x7cc>
     fd0:	9115e280 	add	x0, x20, #0x578
     fd4:	910400a5 	add	x5, x5, #0x100
     fd8:	91029484 	add	x4, x4, #0xa5
     fdc:	2a1503e3 	mov	w3, w21
     fe0:	2a1503e2 	mov	w2, w21
     fe4:	52804dc1 	mov	w1, #0x26e                 	// #622
     fe8:	17ffffdf 	b	f64 <ta_entry_basic+0x548>
/home/lagadanu/Desktop/qemu/out-br/build/optee_test-1.0/ta/os_test/os_test.c:623
     fec:	1e604121 	fmov	d1, d9
     ff0:	1e604100 	fmov	d0, d8
     ff4:	9400594a 	bl	1751c <test_float_dcmpgt>
     ff8:	7100041f 	cmp	w0, #0x1
     ffc:	54000140 	b.eq	1024 <ta_entry_basic+0x608>
    1000:	90000105 	adrp	x5, 21000 <__compound_literal.0+0x7cc>
    1004:	90000104 	adrp	x4, 21000 <__compound_literal.0+0x7cc>
    1008:	9115e280 	add	x0, x20, #0x578
    100c:	91048ca5 	add	x5, x5, #0x123
    1010:	91029484 	add	x4, x4, #0xa5
    1014:	2a1303e3 	mov	w3, w19
    1018:	2a1303e2 	mov	w2, w19
    101c:	52804de1 	mov	w1, #0x26f                 	// #623
    1020:	17ffffd1 	b	f64 <ta_entry_basic+0x548>
/home/lagadanu/Desktop/qemu/out-br/build/optee_test-1.0/ta/os_test/os_test.c:625
    1024:	1c0040ea 	ldr	s10, 1840 <ta_entry_basic+0xe24>
    1028:	1c0040e8 	ldr	s8, 1844 <ta_entry_basic+0xe28>
    102c:	1e204141 	fmov	s1, s10
    1030:	1e204100 	fmov	s0, s8
    1034:	9400593d 	bl	17528 <test_float_fadd>
my_fcmpeq():
/home/lagadanu/Desktop/qemu/out-br/build/optee_test-1.0/ta/os_test/os_test.c:593
    1038:	1c004081 	ldr	s1, 1848 <ta_entry_basic+0xe2c>
    103c:	1e212010 	fcmpe	s0, s1
    1040:	5400008d 	b.le	1050 <ta_entry_basic+0x634>
    1044:	1c004041 	ldr	s1, 184c <ta_entry_basic+0xe30>
    1048:	1e212010 	fcmpe	s0, s1
    104c:	54002124 	b.mi	1470 <ta_entry_basic+0xa54>
test_float():
/home/lagadanu/Desktop/qemu/out-br/build/optee_test-1.0/ta/os_test/os_test.c:625
    1050:	90000105 	adrp	x5, 21000 <__compound_literal.0+0x7cc>
    1054:	90000104 	adrp	x4, 21000 <__compound_literal.0+0x7cc>
    1058:	9115e280 	add	x0, x20, #0x578
    105c:	9110c4a5 	add	x5, x5, #0x431
    1060:	91029484 	add	x4, x4, #0xa5
    1064:	52800023 	mov	w3, #0x1                   	// #1
    1068:	52800022 	mov	w2, #0x1                   	// #1
    106c:	52804e21 	mov	w1, #0x271                 	// #625
    1070:	17ffffbd 	b	f64 <ta_entry_basic+0x548>
/home/lagadanu/Desktop/qemu/out-br/build/optee_test-1.0/ta/os_test/os_test.c:631
    1074:	90000105 	adrp	x5, 21000 <__compound_literal.0+0x7cc>
    1078:	90000104 	adrp	x4, 21000 <__compound_literal.0+0x7cc>
    107c:	910518a5 	add	x5, x5, #0x146
    1080:	91029484 	add	x4, x4, #0xa5
    1084:	52800023 	mov	w3, #0x1                   	// #1
    1088:	52800022 	mov	w2, #0x1                   	// #1
    108c:	52804ee1 	mov	w1, #0x277                 	// #631
/home/lagadanu/Desktop/qemu/out-br/build/optee_test-1.0/ta/os_test/os_test.c:658
    1090:	d00000e0 	adrp	x0, 1f000 <malloc_add_pool+0xe0>
    1094:	9115e000 	add	x0, x0, #0x578
    1098:	17ffffb3 	b	f64 <ta_entry_basic+0x548>
/home/lagadanu/Desktop/qemu/out-br/build/optee_test-1.0/ta/os_test/os_test.c:633
    109c:	1e204101 	fmov	s1, s8
    10a0:	1e204100 	fmov	s0, s8
    10a4:	94005931 	bl	17568 <test_float_fcmple>
    10a8:	2a0003f3 	mov	w19, w0
    10ac:	7100041f 	cmp	w0, #0x1
    10b0:	54000120 	b.eq	10d4 <ta_entry_basic+0x6b8>
    10b4:	90000105 	adrp	x5, 21000 <__compound_literal.0+0x7cc>
    10b8:	90000104 	adrp	x4, 21000 <__compound_literal.0+0x7cc>
    10bc:	910630a5 	add	x5, x5, #0x18c
    10c0:	91029484 	add	x4, x4, #0xa5
    10c4:	2a1403e3 	mov	w3, w20
    10c8:	2a1403e2 	mov	w2, w20
    10cc:	52804f21 	mov	w1, #0x279                 	// #633
    10d0:	17fffff0 	b	1090 <ta_entry_basic+0x674>
/home/lagadanu/Desktop/qemu/out-br/build/optee_test-1.0/ta/os_test/os_test.c:634
    10d4:	1e204101 	fmov	s1, s8
    10d8:	1e204100 	fmov	s0, s8
    10dc:	94005926 	bl	17574 <test_float_fcmpge>
    10e0:	7100041f 	cmp	w0, #0x1
    10e4:	54000120 	b.eq	1108 <ta_entry_basic+0x6ec>
    10e8:	90000105 	adrp	x5, 21000 <__compound_literal.0+0x7cc>
    10ec:	90000104 	adrp	x4, 21000 <__compound_literal.0+0x7cc>
    10f0:	9106bca5 	add	x5, x5, #0x1af
    10f4:	91029484 	add	x4, x4, #0xa5
    10f8:	2a1303e3 	mov	w3, w19
    10fc:	2a1303e2 	mov	w2, w19
    1100:	52804f41 	mov	w1, #0x27a                 	// #634
    1104:	17ffffe3 	b	1090 <ta_entry_basic+0x674>
/home/lagadanu/Desktop/qemu/out-br/build/optee_test-1.0/ta/os_test/os_test.c:635
    1108:	1e204101 	fmov	s1, s8
    110c:	1e204140 	fmov	s0, s10
    1110:	9400591c 	bl	17580 <test_float_fcmpgt>
    1114:	7100041f 	cmp	w0, #0x1
    1118:	54000120 	b.eq	113c <ta_entry_basic+0x720>
    111c:	90000105 	adrp	x5, 21000 <__compound_literal.0+0x7cc>
    1120:	90000104 	adrp	x4, 21000 <__compound_literal.0+0x7cc>
    1124:	910748a5 	add	x5, x5, #0x1d2
    1128:	91029484 	add	x4, x4, #0xa5
    112c:	52800023 	mov	w3, #0x1                   	// #1
    1130:	52800022 	mov	w2, #0x1                   	// #1
    1134:	52804f61 	mov	w1, #0x27b                 	// #635
    1138:	17ffffd6 	b	1090 <ta_entry_basic+0x674>
/home/lagadanu/Desktop/qemu/out-br/build/optee_test-1.0/ta/os_test/os_test.c:637
    113c:	1e604120 	fmov	d0, d9
    1140:	94005913 	bl	1758c <test_float_d2iz>
    1144:	7100081f 	cmp	w0, #0x2
    1148:	54000120 	b.eq	116c <ta_entry_basic+0x750>
    114c:	90000105 	adrp	x5, 21000 <__compound_literal.0+0x7cc>
    1150:	90000104 	adrp	x4, 21000 <__compound_literal.0+0x7cc>
    1154:	9107d4a5 	add	x5, x5, #0x1f5
    1158:	91029484 	add	x4, x4, #0xa5
    115c:	52800023 	mov	w3, #0x1                   	// #1
    1160:	52800022 	mov	w2, #0x1                   	// #1
    1164:	52804fa1 	mov	w1, #0x27d                 	// #637
    1168:	17ffffca 	b	1090 <ta_entry_basic+0x674>
/home/lagadanu/Desktop/qemu/out-br/build/optee_test-1.0/ta/os_test/os_test.c:638
    116c:	1e604120 	fmov	d0, d9
    1170:	94005909 	bl	17594 <test_float_d2uiz>
    1174:	7100081f 	cmp	w0, #0x2
    1178:	54000120 	b.eq	119c <ta_entry_basic+0x780>
    117c:	90000105 	adrp	x5, 21000 <__compound_literal.0+0x7cc>
    1180:	90000104 	adrp	x4, 21000 <__compound_literal.0+0x7cc>
    1184:	91085ca5 	add	x5, x5, #0x217
    1188:	91029484 	add	x4, x4, #0xa5
    118c:	52800023 	mov	w3, #0x1                   	// #1
    1190:	52800022 	mov	w2, #0x1                   	// #1
    1194:	52804fc1 	mov	w1, #0x27e                 	// #638
    1198:	17ffffbe 	b	1090 <ta_entry_basic+0x674>
/home/lagadanu/Desktop/qemu/out-br/build/optee_test-1.0/ta/os_test/os_test.c:639
    119c:	1e604120 	fmov	d0, d9
    11a0:	940058ff 	bl	1759c <test_float_d2lz>
    11a4:	f100081f 	cmp	x0, #0x2
    11a8:	54000120 	b.eq	11cc <ta_entry_basic+0x7b0>
    11ac:	90000105 	adrp	x5, 21000 <__compound_literal.0+0x7cc>
    11b0:	90000104 	adrp	x4, 21000 <__compound_literal.0+0x7cc>
    11b4:	9108e8a5 	add	x5, x5, #0x23a
    11b8:	91029484 	add	x4, x4, #0xa5
    11bc:	52800023 	mov	w3, #0x1                   	// #1
    11c0:	52800022 	mov	w2, #0x1                   	// #1
    11c4:	52804fe1 	mov	w1, #0x27f                 	// #639
    11c8:	17ffffb2 	b	1090 <ta_entry_basic+0x674>
/home/lagadanu/Desktop/qemu/out-br/build/optee_test-1.0/ta/os_test/os_test.c:640
    11cc:	1e604120 	fmov	d0, d9
    11d0:	940058f5 	bl	175a4 <test_float_d2ulz>
    11d4:	f100081f 	cmp	x0, #0x2
    11d8:	54000120 	b.eq	11fc <ta_entry_basic+0x7e0>
    11dc:	90000105 	adrp	x5, 21000 <__compound_literal.0+0x7cc>
    11e0:	90000104 	adrp	x4, 21000 <__compound_literal.0+0x7cc>
    11e4:	910970a5 	add	x5, x5, #0x25c
    11e8:	91029484 	add	x4, x4, #0xa5
    11ec:	52800023 	mov	w3, #0x1                   	// #1
    11f0:	52800022 	mov	w2, #0x1                   	// #1
    11f4:	52805001 	mov	w1, #0x280                 	// #640
    11f8:	17ffffa6 	b	1090 <ta_entry_basic+0x674>
/home/lagadanu/Desktop/qemu/out-br/build/optee_test-1.0/ta/os_test/os_test.c:642
    11fc:	1e204100 	fmov	s0, s8
    1200:	940058eb 	bl	175ac <test_float_f2iz>
    1204:	7100081f 	cmp	w0, #0x2
    1208:	54000120 	b.eq	122c <ta_entry_basic+0x810>
    120c:	90000105 	adrp	x5, 21000 <__compound_literal.0+0x7cc>
    1210:	90000104 	adrp	x4, 21000 <__compound_literal.0+0x7cc>
    1214:	9109fca5 	add	x5, x5, #0x27f
    1218:	91029484 	add	x4, x4, #0xa5
    121c:	52800023 	mov	w3, #0x1                   	// #1
    1220:	52800022 	mov	w2, #0x1                   	// #1
    1224:	52805041 	mov	w1, #0x282                 	// #642
    1228:	17ffff9a 	b	1090 <ta_entry_basic+0x674>
/home/lagadanu/Desktop/qemu/out-br/build/optee_test-1.0/ta/os_test/os_test.c:643
    122c:	1e204100 	fmov	s0, s8
    1230:	940058e1 	bl	175b4 <test_float_f2uiz>
    1234:	7100081f 	cmp	w0, #0x2
    1238:	54000120 	b.eq	125c <ta_entry_basic+0x840>
    123c:	90000105 	adrp	x5, 21000 <__compound_literal.0+0x7cc>
    1240:	90000104 	adrp	x4, 21000 <__compound_literal.0+0x7cc>
    1244:	910a84a5 	add	x5, x5, #0x2a1
    1248:	91029484 	add	x4, x4, #0xa5
    124c:	52800023 	mov	w3, #0x1                   	// #1
    1250:	52800022 	mov	w2, #0x1                   	// #1
    1254:	52805061 	mov	w1, #0x283                 	// #643
    1258:	17ffff8e 	b	1090 <ta_entry_basic+0x674>
/home/lagadanu/Desktop/qemu/out-br/build/optee_test-1.0/ta/os_test/os_test.c:644
    125c:	1e204100 	fmov	s0, s8
    1260:	940058d7 	bl	175bc <test_float_f2lz>
    1264:	f100081f 	cmp	x0, #0x2
    1268:	54000120 	b.eq	128c <ta_entry_basic+0x870>
    126c:	90000105 	adrp	x5, 21000 <__compound_literal.0+0x7cc>
    1270:	90000104 	adrp	x4, 21000 <__compound_literal.0+0x7cc>
    1274:	910b10a5 	add	x5, x5, #0x2c4
    1278:	91029484 	add	x4, x4, #0xa5
    127c:	52800023 	mov	w3, #0x1                   	// #1
    1280:	52800022 	mov	w2, #0x1                   	// #1
    1284:	52805081 	mov	w1, #0x284                 	// #644
    1288:	17ffff82 	b	1090 <ta_entry_basic+0x674>
/home/lagadanu/Desktop/qemu/out-br/build/optee_test-1.0/ta/os_test/os_test.c:645
    128c:	1e204100 	fmov	s0, s8
    1290:	940058cd 	bl	175c4 <test_float_f2ulz>
    1294:	f100081f 	cmp	x0, #0x2
    1298:	54000120 	b.eq	12bc <ta_entry_basic+0x8a0>
    129c:	90000105 	adrp	x5, 21000 <__compound_literal.0+0x7cc>
    12a0:	90000104 	adrp	x4, 21000 <__compound_literal.0+0x7cc>
    12a4:	910b98a5 	add	x5, x5, #0x2e6
    12a8:	91029484 	add	x4, x4, #0xa5
    12ac:	52800023 	mov	w3, #0x1                   	// #1
    12b0:	52800022 	mov	w2, #0x1                   	// #1
    12b4:	528050a1 	mov	w1, #0x285                 	// #645
    12b8:	17ffff76 	b	1090 <ta_entry_basic+0x674>
/home/lagadanu/Desktop/qemu/out-br/build/optee_test-1.0/ta/os_test/os_test.c:647
    12bc:	1e604120 	fmov	d0, d9
    12c0:	940058c3 	bl	175cc <test_float_d2f>
my_fcmpeq():
/home/lagadanu/Desktop/qemu/out-br/build/optee_test-1.0/ta/os_test/os_test.c:593
    12c4:	1c002ce1 	ldr	s1, 1860 <ta_entry_basic+0xe44>
    12c8:	1e212010 	fcmpe	s0, s1
    12cc:	5400008d 	b.le	12dc <ta_entry_basic+0x8c0>
    12d0:	1c002ca1 	ldr	s1, 1864 <ta_entry_basic+0xe48>
    12d4:	1e212010 	fcmpe	s0, s1
    12d8:	54001804 	b.mi	15d8 <ta_entry_basic+0xbbc>
test_float():
/home/lagadanu/Desktop/qemu/out-br/build/optee_test-1.0/ta/os_test/os_test.c:647
    12dc:	90000105 	adrp	x5, 21000 <__compound_literal.0+0x7cc>
    12e0:	90000104 	adrp	x4, 21000 <__compound_literal.0+0x7cc>
    12e4:	911564a5 	add	x5, x5, #0x559
    12e8:	91029484 	add	x4, x4, #0xa5
    12ec:	52800023 	mov	w3, #0x1                   	// #1
    12f0:	52800022 	mov	w2, #0x1                   	// #1
    12f4:	528050e1 	mov	w1, #0x287                 	// #647
    12f8:	17ffff66 	b	1090 <ta_entry_basic+0x674>
/home/lagadanu/Desktop/qemu/out-br/build/optee_test-1.0/ta/os_test/os_test.c:614
    12fc:	1e604101 	fmov	d1, d8
    1300:	1e604120 	fmov	d0, d9
    1304:	94005872 	bl	174cc <test_float_ddiv>
my_dcmpeq():
/home/lagadanu/Desktop/qemu/out-br/build/optee_test-1.0/ta/os_test/os_test.c:588
    1308:	5c002bc1 	ldr	d1, 1880 <ta_entry_basic+0xe64>
    130c:	1e612010 	fcmpe	d0, d1
    1310:	5400008d 	b.le	1320 <ta_entry_basic+0x904>
    1314:	5c002861 	ldr	d1, 1820 <ta_entry_basic+0xe04>
    1318:	1e612010 	fcmpe	d0, d1
    131c:	54000144 	b.mi	1344 <ta_entry_basic+0x928>
test_float():
/home/lagadanu/Desktop/qemu/out-br/build/optee_test-1.0/ta/os_test/os_test.c:614
    1320:	90000105 	adrp	x5, 21000 <__compound_literal.0+0x7cc>
    1324:	90000104 	adrp	x4, 21000 <__compound_literal.0+0x7cc>
    1328:	9115e280 	add	x0, x20, #0x578
    132c:	910d10a5 	add	x5, x5, #0x344
    1330:	91029484 	add	x4, x4, #0xa5
    1334:	52800023 	mov	w3, #0x1                   	// #1
    1338:	52800022 	mov	w2, #0x1                   	// #1
    133c:	52804cc1 	mov	w1, #0x266                 	// #614
    1340:	17ffff09 	b	f64 <ta_entry_basic+0x548>
/home/lagadanu/Desktop/qemu/out-br/build/optee_test-1.0/ta/os_test/os_test.c:615
    1344:	1e604101 	fmov	d1, d8
    1348:	1e604120 	fmov	d0, d9
    134c:	94005862 	bl	174d4 <test_float_dmul>
my_dcmpeq():
/home/lagadanu/Desktop/qemu/out-br/build/optee_test-1.0/ta/os_test/os_test.c:588
    1350:	5c0029c1 	ldr	d1, 1888 <ta_entry_basic+0xe6c>
    1354:	1e612010 	fcmpe	d0, d1
    1358:	5400008d 	b.le	1368 <ta_entry_basic+0x94c>
    135c:	5c002661 	ldr	d1, 1828 <ta_entry_basic+0xe0c>
    1360:	1e612010 	fcmpe	d0, d1
    1364:	54000144 	b.mi	138c <ta_entry_basic+0x970>
test_float():
/home/lagadanu/Desktop/qemu/out-br/build/optee_test-1.0/ta/os_test/os_test.c:615
    1368:	90000105 	adrp	x5, 21000 <__compound_literal.0+0x7cc>
    136c:	90000104 	adrp	x4, 21000 <__compound_literal.0+0x7cc>
    1370:	9115e280 	add	x0, x20, #0x578
    1374:	910dfca5 	add	x5, x5, #0x37f
    1378:	91029484 	add	x4, x4, #0xa5
    137c:	52800023 	mov	w3, #0x1                   	// #1
    1380:	52800022 	mov	w2, #0x1                   	// #1
    1384:	52804ce1 	mov	w1, #0x267                 	// #615
    1388:	17fffef7 	b	f64 <ta_entry_basic+0x548>
/home/lagadanu/Desktop/qemu/out-br/build/optee_test-1.0/ta/os_test/os_test.c:616
    138c:	1e604101 	fmov	d1, d8
    1390:	1e604120 	fmov	d0, d9
    1394:	94005852 	bl	174dc <test_float_drsub>
my_dcmpeq():
/home/lagadanu/Desktop/qemu/out-br/build/optee_test-1.0/ta/os_test/os_test.c:588
    1398:	5c0027c1 	ldr	d1, 1890 <ta_entry_basic+0xe74>
    139c:	1e612010 	fcmpe	d0, d1
    13a0:	5400008d 	b.le	13b0 <ta_entry_basic+0x994>
    13a4:	5c002461 	ldr	d1, 1830 <ta_entry_basic+0xe14>
    13a8:	1e612010 	fcmpe	d0, d1
    13ac:	54000144 	b.mi	13d4 <ta_entry_basic+0x9b8>
test_float():
/home/lagadanu/Desktop/qemu/out-br/build/optee_test-1.0/ta/os_test/os_test.c:616
    13b0:	90000105 	adrp	x5, 21000 <__compound_literal.0+0x7cc>
    13b4:	90000104 	adrp	x4, 21000 <__compound_literal.0+0x7cc>
    13b8:	9115e280 	add	x0, x20, #0x578
    13bc:	910ee8a5 	add	x5, x5, #0x3ba
    13c0:	91029484 	add	x4, x4, #0xa5
    13c4:	52800023 	mov	w3, #0x1                   	// #1
    13c8:	52800022 	mov	w2, #0x1                   	// #1
    13cc:	52804d01 	mov	w1, #0x268                 	// #616
    13d0:	17fffee5 	b	f64 <ta_entry_basic+0x548>
/home/lagadanu/Desktop/qemu/out-br/build/optee_test-1.0/ta/os_test/os_test.c:617
    13d4:	1e604101 	fmov	d1, d8
    13d8:	1e604120 	fmov	d0, d9
    13dc:	94005842 	bl	174e4 <test_float_dsub>
my_dcmpeq():
/home/lagadanu/Desktop/qemu/out-br/build/optee_test-1.0/ta/os_test/os_test.c:588
    13e0:	5c0025c1 	ldr	d1, 1898 <ta_entry_basic+0xe7c>
    13e4:	1e612010 	fcmpe	d0, d1
    13e8:	5400008d 	b.le	13f8 <ta_entry_basic+0x9dc>
    13ec:	5c002261 	ldr	d1, 1838 <ta_entry_basic+0xe1c>
    13f0:	1e612010 	fcmpe	d0, d1
    13f4:	54000144 	b.mi	141c <ta_entry_basic+0xa00>
test_float():
/home/lagadanu/Desktop/qemu/out-br/build/optee_test-1.0/ta/os_test/os_test.c:617
    13f8:	90000105 	adrp	x5, 21000 <__compound_literal.0+0x7cc>
    13fc:	90000104 	adrp	x4, 21000 <__compound_literal.0+0x7cc>
    1400:	9115e280 	add	x0, x20, #0x578
    1404:	910fd8a5 	add	x5, x5, #0x3f6
    1408:	91029484 	add	x4, x4, #0xa5
    140c:	52800023 	mov	w3, #0x1                   	// #1
    1410:	52800022 	mov	w2, #0x1                   	// #1
    1414:	52804d21 	mov	w1, #0x269                 	// #617
    1418:	17fffed3 	b	f64 <ta_entry_basic+0x548>
/home/lagadanu/Desktop/qemu/out-br/build/optee_test-1.0/ta/os_test/os_test.c:619
    141c:	1e604121 	fmov	d1, d9
    1420:	1e604120 	fmov	d0, d9
    1424:	94005832 	bl	174ec <test_float_dcmpeq>
    1428:	2a0003f3 	mov	w19, w0
    142c:	7100041f 	cmp	w0, #0x1
    1430:	54ffd8a1 	b.ne	f44 <ta_entry_basic+0x528>
/home/lagadanu/Desktop/qemu/out-br/build/optee_test-1.0/ta/os_test/os_test.c:620
    1434:	1e604101 	fmov	d1, d8
    1438:	1e604120 	fmov	d0, d9
    143c:	9400582f 	bl	174f8 <test_float_dcmplt>
    1440:	2a0003f6 	mov	w22, w0
    1444:	7100041f 	cmp	w0, #0x1
    1448:	54ffd960 	b.eq	f74 <ta_entry_basic+0x558>
    144c:	90000105 	adrp	x5, 21000 <__compound_literal.0+0x7cc>
    1450:	90000104 	adrp	x4, 21000 <__compound_literal.0+0x7cc>
    1454:	9115e280 	add	x0, x20, #0x578
    1458:	9102e8a5 	add	x5, x5, #0xba
    145c:	91029484 	add	x4, x4, #0xa5
    1460:	2a1303e3 	mov	w3, w19
    1464:	2a1303e2 	mov	w2, w19
    1468:	52804d81 	mov	w1, #0x26c                 	// #620
    146c:	17fffebe 	b	f64 <ta_entry_basic+0x548>
/home/lagadanu/Desktop/qemu/out-br/build/optee_test-1.0/ta/os_test/os_test.c:626
    1470:	1e204141 	fmov	s1, s10
    1474:	1e204100 	fmov	s0, s8
    1478:	9400582e 	bl	17530 <test_float_fdiv>
my_fcmpeq():
/home/lagadanu/Desktop/qemu/out-br/build/optee_test-1.0/ta/os_test/os_test.c:593
    147c:	1c002121 	ldr	s1, 18a0 <ta_entry_basic+0xe84>
    1480:	1e212010 	fcmpe	s0, s1
    1484:	5400008d 	b.le	1494 <ta_entry_basic+0xa78>
    1488:	1c001e41 	ldr	s1, 1850 <ta_entry_basic+0xe34>
    148c:	1e212010 	fcmpe	s0, s1
    1490:	54000144 	b.mi	14b8 <ta_entry_basic+0xa9c>
test_float():
/home/lagadanu/Desktop/qemu/out-br/build/optee_test-1.0/ta/os_test/os_test.c:626
    1494:	90000105 	adrp	x5, 21000 <__compound_literal.0+0x7cc>
    1498:	90000104 	adrp	x4, 21000 <__compound_literal.0+0x7cc>
    149c:	9115e280 	add	x0, x20, #0x578
    14a0:	9111b0a5 	add	x5, x5, #0x46c
    14a4:	91029484 	add	x4, x4, #0xa5
    14a8:	52800023 	mov	w3, #0x1                   	// #1
    14ac:	52800022 	mov	w2, #0x1                   	// #1
    14b0:	52804e41 	mov	w1, #0x272                 	// #626
    14b4:	17fffeac 	b	f64 <ta_entry_basic+0x548>
/home/lagadanu/Desktop/qemu/out-br/build/optee_test-1.0/ta/os_test/os_test.c:627
    14b8:	1e204141 	fmov	s1, s10
    14bc:	1e204100 	fmov	s0, s8
    14c0:	9400581e 	bl	17538 <test_float_fmul>
my_fcmpeq():
/home/lagadanu/Desktop/qemu/out-br/build/optee_test-1.0/ta/os_test/os_test.c:593
    14c4:	1c001f01 	ldr	s1, 18a4 <ta_entry_basic+0xe88>
    14c8:	1e212010 	fcmpe	s0, s1
    14cc:	5400008d 	b.le	14dc <ta_entry_basic+0xac0>
    14d0:	1c001c21 	ldr	s1, 1854 <ta_entry_basic+0xe38>
    14d4:	1e212010 	fcmpe	s0, s1
    14d8:	54000144 	b.mi	1500 <ta_entry_basic+0xae4>
test_float():
/home/lagadanu/Desktop/qemu/out-br/build/optee_test-1.0/ta/os_test/os_test.c:627
    14dc:	90000105 	adrp	x5, 21000 <__compound_literal.0+0x7cc>
    14e0:	90000104 	adrp	x4, 21000 <__compound_literal.0+0x7cc>
    14e4:	9115e280 	add	x0, x20, #0x578
    14e8:	91129ca5 	add	x5, x5, #0x4a7
    14ec:	91029484 	add	x4, x4, #0xa5
    14f0:	52800023 	mov	w3, #0x1                   	// #1
    14f4:	52800022 	mov	w2, #0x1                   	// #1
    14f8:	52804e61 	mov	w1, #0x273                 	// #627
    14fc:	17fffe9a 	b	f64 <ta_entry_basic+0x548>
/home/lagadanu/Desktop/qemu/out-br/build/optee_test-1.0/ta/os_test/os_test.c:628
    1500:	1e204141 	fmov	s1, s10
    1504:	1e204100 	fmov	s0, s8
    1508:	9400580e 	bl	17540 <test_float_frsub>
my_fcmpeq():
/home/lagadanu/Desktop/qemu/out-br/build/optee_test-1.0/ta/os_test/os_test.c:593
    150c:	1c001ce1 	ldr	s1, 18a8 <ta_entry_basic+0xe8c>
    1510:	1e212010 	fcmpe	s0, s1
    1514:	5400008d 	b.le	1524 <ta_entry_basic+0xb08>
    1518:	1c001a01 	ldr	s1, 1858 <ta_entry_basic+0xe3c>
    151c:	1e212010 	fcmpe	s0, s1
    1520:	54000124 	b.mi	1544 <ta_entry_basic+0xb28>
test_float():
/home/lagadanu/Desktop/qemu/out-br/build/optee_test-1.0/ta/os_test/os_test.c:628
    1524:	90000105 	adrp	x5, 21000 <__compound_literal.0+0x7cc>
    1528:	90000104 	adrp	x4, 21000 <__compound_literal.0+0x7cc>
    152c:	911388a5 	add	x5, x5, #0x4e2
    1530:	91029484 	add	x4, x4, #0xa5
    1534:	52800023 	mov	w3, #0x1                   	// #1
    1538:	52800022 	mov	w2, #0x1                   	// #1
    153c:	52804e81 	mov	w1, #0x274                 	// #628
    1540:	17fffed4 	b	1090 <ta_entry_basic+0x674>
/home/lagadanu/Desktop/qemu/out-br/build/optee_test-1.0/ta/os_test/os_test.c:629
    1544:	1e204141 	fmov	s1, s10
    1548:	1e204100 	fmov	s0, s8
    154c:	940057ff 	bl	17548 <test_float_fsub>
my_fcmpeq():
/home/lagadanu/Desktop/qemu/out-br/build/optee_test-1.0/ta/os_test/os_test.c:593
    1550:	1c001ae1 	ldr	s1, 18ac <ta_entry_basic+0xe90>
    1554:	1e212010 	fcmpe	s0, s1
    1558:	5400008d 	b.le	1568 <ta_entry_basic+0xb4c>
    155c:	1c001801 	ldr	s1, 185c <ta_entry_basic+0xe40>
    1560:	1e212010 	fcmpe	s0, s1
    1564:	54000124 	b.mi	1588 <ta_entry_basic+0xb6c>
test_float():
/home/lagadanu/Desktop/qemu/out-br/build/optee_test-1.0/ta/os_test/os_test.c:629
    1568:	90000105 	adrp	x5, 21000 <__compound_literal.0+0x7cc>
    156c:	90000104 	adrp	x4, 21000 <__compound_literal.0+0x7cc>
    1570:	911478a5 	add	x5, x5, #0x51e
    1574:	91029484 	add	x4, x4, #0xa5
    1578:	52800023 	mov	w3, #0x1                   	// #1
    157c:	52800022 	mov	w2, #0x1                   	// #1
    1580:	52804ea1 	mov	w1, #0x275                 	// #629
    1584:	17fffec3 	b	1090 <ta_entry_basic+0x674>
/home/lagadanu/Desktop/qemu/out-br/build/optee_test-1.0/ta/os_test/os_test.c:631
    1588:	1e204101 	fmov	s1, s8
    158c:	1e204100 	fmov	s0, s8
    1590:	940057f0 	bl	17550 <test_float_fcmpeq>
    1594:	2a0003f3 	mov	w19, w0
    1598:	7100041f 	cmp	w0, #0x1
    159c:	54ffd6c1 	b.ne	1074 <ta_entry_basic+0x658>
/home/lagadanu/Desktop/qemu/out-br/build/optee_test-1.0/ta/os_test/os_test.c:632
    15a0:	1e204141 	fmov	s1, s10
    15a4:	1e204100 	fmov	s0, s8
    15a8:	940057ed 	bl	1755c <test_float_fcmplt>
    15ac:	2a0003f4 	mov	w20, w0
    15b0:	7100041f 	cmp	w0, #0x1
    15b4:	54ffd740 	b.eq	109c <ta_entry_basic+0x680>
    15b8:	90000105 	adrp	x5, 21000 <__compound_literal.0+0x7cc>
    15bc:	90000104 	adrp	x4, 21000 <__compound_literal.0+0x7cc>
    15c0:	9105a4a5 	add	x5, x5, #0x169
    15c4:	91029484 	add	x4, x4, #0xa5
    15c8:	2a1303e3 	mov	w3, w19
    15cc:	2a1303e2 	mov	w2, w19
    15d0:	52804f01 	mov	w1, #0x278                 	// #632
    15d4:	17fffeaf 	b	1090 <ta_entry_basic+0x674>
/home/lagadanu/Desktop/qemu/out-br/build/optee_test-1.0/ta/os_test/os_test.c:648
    15d8:	1e204100 	fmov	s0, s8
    15dc:	940057fe 	bl	175d4 <test_float_f2d>
my_dcmpeq():
/home/lagadanu/Desktop/qemu/out-br/build/optee_test-1.0/ta/os_test/os_test.c:588
    15e0:	5c001681 	ldr	d1, 18b0 <ta_entry_basic+0xe94>
    15e4:	1e612010 	fcmpe	d0, d1
    15e8:	5400008d 	b.le	15f8 <ta_entry_basic+0xbdc>
    15ec:	5c0013e1 	ldr	d1, 1868 <ta_entry_basic+0xe4c>
    15f0:	1e612010 	fcmpe	d0, d1
    15f4:	54000124 	b.mi	1618 <ta_entry_basic+0xbfc>
test_float():
/home/lagadanu/Desktop/qemu/out-br/build/optee_test-1.0/ta/os_test/os_test.c:648
    15f8:	90000105 	adrp	x5, 21000 <__compound_literal.0+0x7cc>
    15fc:	90000104 	adrp	x4, 21000 <__compound_literal.0+0x7cc>
    1600:	911618a5 	add	x5, x5, #0x586
    1604:	91029484 	add	x4, x4, #0xa5
    1608:	52800023 	mov	w3, #0x1                   	// #1
    160c:	52800022 	mov	w2, #0x1                   	// #1
    1610:	52805101 	mov	w1, #0x288                 	// #648
    1614:	17fffe9f 	b	1090 <ta_entry_basic+0x674>
/home/lagadanu/Desktop/qemu/out-br/build/optee_test-1.0/ta/os_test/os_test.c:650
    1618:	52800040 	mov	w0, #0x2                   	// #2
    161c:	940057f0 	bl	175dc <test_float_i2d>
my_dcmpeq():
/home/lagadanu/Desktop/qemu/out-br/build/optee_test-1.0/ta/os_test/os_test.c:588
    1620:	5c0014c8 	ldr	d8, 18b8 <ta_entry_basic+0xe9c>
    1624:	1e682010 	fcmpe	d0, d8
    1628:	5400008d 	b.le	1638 <ta_entry_basic+0xc1c>
    162c:	5c001229 	ldr	d9, 1870 <ta_entry_basic+0xe54>
    1630:	1e692010 	fcmpe	d0, d9
    1634:	54000124 	b.mi	1658 <ta_entry_basic+0xc3c>
test_float():
/home/lagadanu/Desktop/qemu/out-br/build/optee_test-1.0/ta/os_test/os_test.c:650
    1638:	90000105 	adrp	x5, 21000 <__compound_literal.0+0x7cc>
    163c:	90000104 	adrp	x4, 21000 <__compound_literal.0+0x7cc>
    1640:	9116cca5 	add	x5, x5, #0x5b3
    1644:	91029484 	add	x4, x4, #0xa5
    1648:	52800023 	mov	w3, #0x1                   	// #1
    164c:	52800022 	mov	w2, #0x1                   	// #1
    1650:	52805141 	mov	w1, #0x28a                 	// #650
    1654:	17fffe8f 	b	1090 <ta_entry_basic+0x674>
/home/lagadanu/Desktop/qemu/out-br/build/optee_test-1.0/ta/os_test/os_test.c:651
    1658:	52800040 	mov	w0, #0x2                   	// #2
    165c:	940057e2 	bl	175e4 <test_float_ui2d>
my_dcmpeq():
/home/lagadanu/Desktop/qemu/out-br/build/optee_test-1.0/ta/os_test/os_test.c:588
    1660:	1e682010 	fcmpe	d0, d8
    1664:	5400006d 	b.le	1670 <ta_entry_basic+0xc54>
    1668:	1e692010 	fcmpe	d0, d9
    166c:	54000124 	b.mi	1690 <ta_entry_basic+0xc74>
test_float():
/home/lagadanu/Desktop/qemu/out-br/build/optee_test-1.0/ta/os_test/os_test.c:651
    1670:	90000105 	adrp	x5, 21000 <__compound_literal.0+0x7cc>
    1674:	90000104 	adrp	x4, 21000 <__compound_literal.0+0x7cc>
    1678:	9117a0a5 	add	x5, x5, #0x5e8
    167c:	91029484 	add	x4, x4, #0xa5
    1680:	52800023 	mov	w3, #0x1                   	// #1
    1684:	52800022 	mov	w2, #0x1                   	// #1
    1688:	52805161 	mov	w1, #0x28b                 	// #651
    168c:	17fffe81 	b	1090 <ta_entry_basic+0x674>
/home/lagadanu/Desktop/qemu/out-br/build/optee_test-1.0/ta/os_test/os_test.c:652
    1690:	d2800040 	mov	x0, #0x2                   	// #2
    1694:	940057d6 	bl	175ec <test_float_l2d>
my_dcmpeq():
/home/lagadanu/Desktop/qemu/out-br/build/optee_test-1.0/ta/os_test/os_test.c:588
    1698:	1e682010 	fcmpe	d0, d8
    169c:	5400006d 	b.le	16a8 <ta_entry_basic+0xc8c>
    16a0:	1e692010 	fcmpe	d0, d9
    16a4:	54000124 	b.mi	16c8 <ta_entry_basic+0xcac>
test_float():
/home/lagadanu/Desktop/qemu/out-br/build/optee_test-1.0/ta/os_test/os_test.c:652
    16a8:	90000105 	adrp	x5, 21000 <__compound_literal.0+0x7cc>
    16ac:	90000104 	adrp	x4, 21000 <__compound_literal.0+0x7cc>
    16b0:	911878a5 	add	x5, x5, #0x61e
    16b4:	91029484 	add	x4, x4, #0xa5
    16b8:	52800023 	mov	w3, #0x1                   	// #1
    16bc:	52800022 	mov	w2, #0x1                   	// #1
    16c0:	52805181 	mov	w1, #0x28c                 	// #652
    16c4:	17fffe73 	b	1090 <ta_entry_basic+0x674>
/home/lagadanu/Desktop/qemu/out-br/build/optee_test-1.0/ta/os_test/os_test.c:653
    16c8:	d2800040 	mov	x0, #0x2                   	// #2
    16cc:	940057ca 	bl	175f4 <test_float_ul2d>
my_dcmpeq():
/home/lagadanu/Desktop/qemu/out-br/build/optee_test-1.0/ta/os_test/os_test.c:588
    16d0:	1e682010 	fcmpe	d0, d8
    16d4:	5400006d 	b.le	16e0 <ta_entry_basic+0xcc4>
    16d8:	1e692010 	fcmpe	d0, d9
    16dc:	54000124 	b.mi	1700 <ta_entry_basic+0xce4>
test_float():
/home/lagadanu/Desktop/qemu/out-br/build/optee_test-1.0/ta/os_test/os_test.c:653
    16e0:	90000105 	adrp	x5, 21000 <__compound_literal.0+0x7cc>
    16e4:	90000104 	adrp	x4, 21000 <__compound_literal.0+0x7cc>
    16e8:	91194ca5 	add	x5, x5, #0x653
    16ec:	91029484 	add	x4, x4, #0xa5
    16f0:	52800023 	mov	w3, #0x1                   	// #1
    16f4:	52800022 	mov	w2, #0x1                   	// #1
    16f8:	528051a1 	mov	w1, #0x28d                 	// #653
    16fc:	17fffe65 	b	1090 <ta_entry_basic+0x674>
/home/lagadanu/Desktop/qemu/out-br/build/optee_test-1.0/ta/os_test/os_test.c:655
    1700:	52800040 	mov	w0, #0x2                   	// #2
    1704:	940057be 	bl	175fc <test_float_i2f>
my_fcmpeq():
/home/lagadanu/Desktop/qemu/out-br/build/optee_test-1.0/ta/os_test/os_test.c:593
    1708:	1c000dc8 	ldr	s8, 18c0 <ta_entry_basic+0xea4>
    170c:	1e282010 	fcmpe	s0, s8
    1710:	5400008d 	b.le	1720 <ta_entry_basic+0xd04>
    1714:	1c000b29 	ldr	s9, 1878 <ta_entry_basic+0xe5c>
    1718:	1e292010 	fcmpe	s0, s9
    171c:	54000124 	b.mi	1740 <ta_entry_basic+0xd24>
test_float():
/home/lagadanu/Desktop/qemu/out-br/build/optee_test-1.0/ta/os_test/os_test.c:655
    1720:	90000105 	adrp	x5, 21000 <__compound_literal.0+0x7cc>
    1724:	90000104 	adrp	x4, 21000 <__compound_literal.0+0x7cc>
    1728:	911a24a5 	add	x5, x5, #0x689
    172c:	91029484 	add	x4, x4, #0xa5
    1730:	52800023 	mov	w3, #0x1                   	// #1
    1734:	52800022 	mov	w2, #0x1                   	// #1
    1738:	528051e1 	mov	w1, #0x28f                 	// #655
    173c:	17fffe55 	b	1090 <ta_entry_basic+0x674>
/home/lagadanu/Desktop/qemu/out-br/build/optee_test-1.0/ta/os_test/os_test.c:656
    1740:	52800040 	mov	w0, #0x2                   	// #2
    1744:	940057b0 	bl	17604 <test_float_ui2f>
my_fcmpeq():
/home/lagadanu/Desktop/qemu/out-br/build/optee_test-1.0/ta/os_test/os_test.c:593
    1748:	1e282010 	fcmpe	s0, s8
    174c:	5400006d 	b.le	1758 <ta_entry_basic+0xd3c>
    1750:	1e292010 	fcmpe	s0, s9
    1754:	54000124 	b.mi	1778 <ta_entry_basic+0xd5c>
test_float():
/home/lagadanu/Desktop/qemu/out-br/build/optee_test-1.0/ta/os_test/os_test.c:656
    1758:	90000105 	adrp	x5, 21000 <__compound_literal.0+0x7cc>
    175c:	90000104 	adrp	x4, 21000 <__compound_literal.0+0x7cc>
    1760:	911af8a5 	add	x5, x5, #0x6be
    1764:	91029484 	add	x4, x4, #0xa5
    1768:	52800023 	mov	w3, #0x1                   	// #1
    176c:	52800022 	mov	w2, #0x1                   	// #1
    1770:	52805201 	mov	w1, #0x290                 	// #656
    1774:	17fffe47 	b	1090 <ta_entry_basic+0x674>
/home/lagadanu/Desktop/qemu/out-br/build/optee_test-1.0/ta/os_test/os_test.c:657
    1778:	d2800040 	mov	x0, #0x2                   	// #2
    177c:	940057a4 	bl	1760c <test_float_l2f>
my_fcmpeq():
/home/lagadanu/Desktop/qemu/out-br/build/optee_test-1.0/ta/os_test/os_test.c:593
    1780:	1e282010 	fcmpe	s0, s8
    1784:	5400006d 	b.le	1790 <ta_entry_basic+0xd74>
    1788:	1e292010 	fcmpe	s0, s9
    178c:	54000124 	b.mi	17b0 <ta_entry_basic+0xd94>
test_float():
/home/lagadanu/Desktop/qemu/out-br/build/optee_test-1.0/ta/os_test/os_test.c:657
    1790:	90000105 	adrp	x5, 21000 <__compound_literal.0+0x7cc>
    1794:	90000104 	adrp	x4, 21000 <__compound_literal.0+0x7cc>
    1798:	911bd0a5 	add	x5, x5, #0x6f4
    179c:	91029484 	add	x4, x4, #0xa5
    17a0:	52800023 	mov	w3, #0x1                   	// #1
    17a4:	52800022 	mov	w2, #0x1                   	// #1
    17a8:	52805221 	mov	w1, #0x291                 	// #657
    17ac:	17fffe39 	b	1090 <ta_entry_basic+0x674>
/home/lagadanu/Desktop/qemu/out-br/build/optee_test-1.0/ta/os_test/os_test.c:658
    17b0:	d2800040 	mov	x0, #0x2                   	// #2
    17b4:	94005798 	bl	17614 <test_float_ul2f>
my_fcmpeq():
/home/lagadanu/Desktop/qemu/out-br/build/optee_test-1.0/ta/os_test/os_test.c:593
    17b8:	1e282010 	fcmpe	s0, s8
    17bc:	5400006d 	b.le	17c8 <ta_entry_basic+0xdac>
    17c0:	1e292010 	fcmpe	s0, s9
    17c4:	54000124 	b.mi	17e8 <ta_entry_basic+0xdcc>
test_float():
/home/lagadanu/Desktop/qemu/out-br/build/optee_test-1.0/ta/os_test/os_test.c:658
    17c8:	90000105 	adrp	x5, 21000 <__compound_literal.0+0x7cc>
    17cc:	90000104 	adrp	x4, 21000 <__compound_literal.0+0x7cc>
    17d0:	911ca4a5 	add	x5, x5, #0x729
    17d4:	91029484 	add	x4, x4, #0xa5
    17d8:	52800023 	mov	w3, #0x1                   	// #1
    17dc:	52800022 	mov	w2, #0x1                   	// #1
    17e0:	52805241 	mov	w1, #0x292                 	// #658
    17e4:	17fffe2b 	b	1090 <ta_entry_basic+0x674>
ta_entry_basic():
/home/lagadanu/Desktop/qemu/out-br/build/optee_test-1.0/ta/os_test/os_test.c:715
    17e8:	97fffa0e 	bl	20 <test_setjmp>
    17ec:	2a0003f3 	mov	w19, w0
/home/lagadanu/Desktop/qemu/out-br/build/optee_test-1.0/ta/os_test/os_test.c:716
    17f0:	35ff94c0 	cbnz	w0, a88 <ta_entry_basic+0x6c>
/home/lagadanu/Desktop/qemu/out-br/build/optee_test-1.0/ta/os_test/os_test.c:720
    17f4:	94005726 	bl	1748c <tb_main>
/home/lagadanu/Desktop/qemu/out-br/build/optee_test-1.0/ta/os_test/os_test.c:722
    17f8:	17fffca4 	b	a88 <ta_entry_basic+0x6c>
    17fc:	d503201f 	nop
    1800:	33333333 	.word	0x33333333
    1804:	40153333 	.word	0x40153333
    1808:	cccccccd 	.word	0xcccccccd
    180c:	4004cccc 	.word	0x4004cccc
    1810:	99999999 	.word	0x99999999
    1814:	401f9999 	.word	0x401f9999
    1818:	9999999b 	.word	0x9999999b
    181c:	401f9999 	.word	0x401f9999
    1820:	1826a44d 	.word	0x1826a44d
    1824:	3fdf656f 	.word	0x3fdf656f
    1828:	28f5c290 	.word	0x28f5c290
    182c:	402b8f5c 	.word	0x402b8f5c
    1830:	9999999b 	.word	0x9999999b
    1834:	40059999 	.word	0x40059999
    1838:	99999997 	.word	0x99999997
    183c:	c0059999 	.word	0xc0059999
    1840:	40a9999a 	.word	0x40a9999a
    1844:	40266666 	.word	0x40266666
    1848:	40fccccb 	.word	0x40fccccb
    184c:	40fccccf 	.word	0x40fccccf
    1850:	3efb2b9b 	.word	0x3efb2b9b
    1854:	415c7ae2 	.word	0x415c7ae2
    1858:	402cccd1 	.word	0x402cccd1
    185c:	c02cccc9 	.word	0xc02cccc9
    1860:	40266662 	.word	0x40266662
    1864:	4026666a 	.word	0x4026666a
    1868:	530489d3 	.word	0x530489d3
    186c:	4004cccd 	.word	0x4004cccd
    1870:	00000002 	.word	0x00000002
    1874:	40000000 	.word	0x40000000
    1878:	40000004 	.word	0x40000004
    187c:	d503201f 	nop
    1880:	1826a429 	.word	0x1826a429
    1884:	3fdf656f 	.word	0x3fdf656f
    1888:	28f5c28e 	.word	0x28f5c28e
    188c:	402b8f5c 	.word	0x402b8f5c
    1890:	99999997 	.word	0x99999997
    1894:	40059999 	.word	0x40059999
    1898:	9999999b 	.word	0x9999999b
    189c:	c0059999 	.word	0xc0059999
    18a0:	3efb2b57 	.word	0x3efb2b57
    18a4:	415c7ae0 	.word	0x415c7ae0
    18a8:	402cccc9 	.word	0x402cccc9
    18ac:	c02cccd1 	.word	0xc02cccd1
    18b0:	46950fc7 	.word	0x46950fc7
    18b4:	4004cccc 	.word	0x4004cccc
    18b8:	fffffffb 	.word	0xfffffffb
    18bc:	3fffffff 	.word	0x3fffffff
    18c0:	3ffffff8 	.word	0x3ffffff8

00000000000018c4 <ta_entry_panic>:
ta_entry_panic():
/home/lagadanu/Desktop/qemu/out-br/build/optee_test-1.0/ta/os_test/os_test.c:726
    18c4:	a9be7bfd 	stp	x29, x30, [sp,#-32]!
/home/lagadanu/Desktop/qemu/out-br/build/optee_test-1.0/ta/os_test/os_test.c:727
    18c8:	52800020 	mov	w0, #0x1                   	// #1
/home/lagadanu/Desktop/qemu/out-br/build/optee_test-1.0/ta/os_test/os_test.c:726
    18cc:	910003fd 	mov	x29, sp
/home/lagadanu/Desktop/qemu/out-br/build/optee_test-1.0/ta/os_test/os_test.c:727
    18d0:	39007fa0 	strb	w0, [x29,#31]
/home/lagadanu/Desktop/qemu/out-br/build/optee_test-1.0/ta/os_test/os_test.c:731
    18d4:	90000100 	adrp	x0, 21000 <__compound_literal.0+0x7cc>
    18d8:	911d7c00 	add	x0, x0, #0x75f
    18dc:	94005de8 	bl	1907c <puts>
/home/lagadanu/Desktop/qemu/out-br/build/optee_test-1.0/ta/os_test/os_test.c:736
    18e0:	39407fa0 	ldrb	w0, [x29,#31]
    18e4:	72001c1f 	tst	w0, #0xff
    18e8:	54000060 	b.eq	18f4 <ta_entry_panic+0x30>
/home/lagadanu/Desktop/qemu/out-br/build/optee_test-1.0/ta/os_test/os_test.c:737
    18ec:	5297dde0 	mov	w0, #0xbeef                	// #48879
    18f0:	940061b2 	bl	19fb8 <TEE_Panic>
/home/lagadanu/Desktop/qemu/out-br/build/optee_test-1.0/ta/os_test/os_test.c:744
    18f4:	52800000 	mov	w0, #0x0                   	// #0
    18f8:	a8c27bfd 	ldp	x29, x30, [sp],#32
    18fc:	d65f03c0 	ret

0000000000001900 <ta_entry_client_with_timeout>:
ta_entry_client_with_timeout():
/home/lagadanu/Desktop/qemu/out-br/build/optee_test-1.0/ta/os_test/os_test.c:748
    1900:	a9bb7bfd 	stp	x29, x30, [sp,#-80]!
/home/lagadanu/Desktop/qemu/out-br/build/optee_test-1.0/ta/os_test/os_test.c:754
    1904:	7100041f 	cmp	w0, #0x1
/home/lagadanu/Desktop/qemu/out-br/build/optee_test-1.0/ta/os_test/os_test.c:748
    1908:	910003fd 	mov	x29, sp
    190c:	a90153f3 	stp	x19, x20, [sp,#16]
    1910:	d00000f3 	adrp	x19, 1f000 <malloc_add_pool+0xe0>
    1914:	a9025bf5 	stp	x21, x22, [sp,#32]
    1918:	f9001bf7 	str	x23, [sp,#48]
/home/lagadanu/Desktop/qemu/out-br/build/optee_test-1.0/ta/os_test/os_test.c:754
    191c:	54000200 	b.eq	195c <ta_entry_client_with_timeout+0x5c>
/home/lagadanu/Desktop/qemu/out-br/build/optee_test-1.0/ta/os_test/os_test.c:759
    1920:	129fff35 	mov	w21, #0xffff0006            	// #-65530
/home/lagadanu/Desktop/qemu/out-br/build/optee_test-1.0/ta/os_test/os_test.c:758
    1924:	9115e273 	add	x19, x19, #0x578
    1928:	90000104 	adrp	x4, 21000 <__compound_literal.0+0x7cc>
    192c:	52800023 	mov	w3, #0x1                   	// #1
    1930:	911dd484 	add	x4, x4, #0x775
    1934:	52800022 	mov	w2, #0x1                   	// #1
    1938:	52805ec1 	mov	w1, #0x2f6                 	// #758
    193c:	9101e260 	add	x0, x19, #0x78
    1940:	94005785 	bl	17754 <trace_printf>
/home/lagadanu/Desktop/qemu/out-br/build/optee_test-1.0/ta/os_test/os_test.c:785
    1944:	2a1503e0 	mov	w0, w21
    1948:	f9401bf7 	ldr	x23, [sp,#48]
    194c:	a94153f3 	ldp	x19, x20, [sp,#16]
    1950:	a9425bf5 	ldp	x21, x22, [sp,#32]
    1954:	a8c57bfd 	ldp	x29, x30, [sp],#80
    1958:	d65f03c0 	ret
/home/lagadanu/Desktop/qemu/out-br/build/optee_test-1.0/ta/os_test/os_test.c:762
    195c:	910113b7 	add	x23, x29, #0x44
    1960:	9115e273 	add	x19, x19, #0x578
    1964:	2a0003f4 	mov	w20, w0
    1968:	aa0103f6 	mov	x22, x1
    196c:	aa1703e5 	mov	x5, x23
    1970:	910123a4 	add	x4, x29, #0x48
    1974:	d2800003 	mov	x3, #0x0                   	// #0
    1978:	52800002 	mov	w2, #0x0                   	// #0
    197c:	52800001 	mov	w1, #0x0                   	// #0
    1980:	91026260 	add	x0, x19, #0x98
    1984:	9400608d 	bl	19bb8 <TEE_OpenTASession>
    1988:	2a0003f5 	mov	w21, w0
/home/lagadanu/Desktop/qemu/out-br/build/optee_test-1.0/ta/os_test/os_test.c:763
    198c:	34000120 	cbz	w0, 19b0 <ta_entry_client_with_timeout+0xb0>
/home/lagadanu/Desktop/qemu/out-br/build/optee_test-1.0/ta/os_test/os_test.c:764
    1990:	90000104 	adrp	x4, 21000 <__compound_literal.0+0x7cc>
    1994:	2a1403e3 	mov	w3, w20
    1998:	911e8c84 	add	x4, x4, #0x7a3
    199c:	2a1403e2 	mov	w2, w20
    19a0:	52805fa1 	mov	w1, #0x2fd                 	// #765
    19a4:	9101e260 	add	x0, x19, #0x78
    19a8:	9400576b 	bl	17754 <trace_printf>
/home/lagadanu/Desktop/qemu/out-br/build/optee_test-1.0/ta/os_test/os_test.c:766
    19ac:	17ffffe6 	b	1944 <ta_entry_client_with_timeout+0x44>
/home/lagadanu/Desktop/qemu/out-br/build/optee_test-1.0/ta/os_test/os_test.c:769
    19b0:	f94027a0 	ldr	x0, [x29,#72]
    19b4:	aa1703e5 	mov	x5, x23
/home/lagadanu/Desktop/qemu/out-br/build/optee_test-1.0/ta/os_test/os_test.c:770
    19b8:	b94002c1 	ldr	w1, [x22]
/home/lagadanu/Desktop/qemu/out-br/build/optee_test-1.0/ta/os_test/os_test.c:769
    19bc:	aa1603e4 	mov	x4, x22
    19c0:	2a1403e3 	mov	w3, w20
    19c4:	52800122 	mov	w2, #0x9                   	// #9
    19c8:	53017c21 	lsr	w1, w1, #1
    19cc:	940060a9 	bl	19c70 <TEE_InvokeTACommand>
/home/lagadanu/Desktop/qemu/out-br/build/optee_test-1.0/ta/os_test/os_test.c:774
    19d0:	b94047a6 	ldr	w6, [x29,#68]
    19d4:	129fffa1 	mov	w1, #0xffff0002            	// #-65534
    19d8:	6b01001f 	cmp	w0, w1
    19dc:	7a4408c0 	ccmp	w6, #0x4, #0x0, eq
    19e0:	54000140 	b.eq	1a08 <ta_entry_client_with_timeout+0x108>
/home/lagadanu/Desktop/qemu/out-br/build/optee_test-1.0/ta/os_test/os_test.c:778
    19e4:	52bffff5 	mov	w21, #0xffff0000            	// #-65536
/home/lagadanu/Desktop/qemu/out-br/build/optee_test-1.0/ta/os_test/os_test.c:775
    19e8:	2a0003e5 	mov	w5, w0
    19ec:	90000104 	adrp	x4, 21000 <__compound_literal.0+0x7cc>
    19f0:	2a1403e3 	mov	w3, w20
    19f4:	911f6c84 	add	x4, x4, #0x7db
    19f8:	2a1403e2 	mov	w2, w20
    19fc:	52806121 	mov	w1, #0x309                 	// #777
    1a00:	9101e260 	add	x0, x19, #0x78
    1a04:	94005754 	bl	17754 <trace_printf>
/home/lagadanu/Desktop/qemu/out-br/build/optee_test-1.0/ta/os_test/os_test.c:782
    1a08:	f94027a0 	ldr	x0, [x29,#72]
    1a0c:	9400608f 	bl	19c48 <TEE_CloseTASession>
/home/lagadanu/Desktop/qemu/out-br/build/optee_test-1.0/ta/os_test/os_test.c:783
    1a10:	17ffffcd 	b	1944 <ta_entry_client_with_timeout+0x44>

0000000000001a14 <ta_entry_client>:
ta_entry_client():
/home/lagadanu/Desktop/qemu/out-br/build/optee_test-1.0/ta/os_test/os_test.c:788
    1a14:	a9b57bfd 	stp	x29, x30, [sp,#-176]!
/home/lagadanu/Desktop/qemu/out-br/build/optee_test-1.0/ta/os_test/os_test.c:808
    1a18:	90000100 	adrp	x0, 21000 <__compound_literal.0+0x7cc>
    1a1c:	91209800 	add	x0, x0, #0x826
/home/lagadanu/Desktop/qemu/out-br/build/optee_test-1.0/ta/os_test/os_test.c:788
    1a20:	910003fd 	mov	x29, sp
    1a24:	a90153f3 	stp	x19, x20, [sp,#16]
    1a28:	129ffe74 	mov	w20, #0xffff000c            	// #-65524
    1a2c:	a9025bf5 	stp	x21, x22, [sp,#32]
    1a30:	a90363f7 	stp	x23, x24, [sp,#48]
/home/lagadanu/Desktop/qemu/out-br/build/optee_test-1.0/ta/os_test/os_test.c:792
    1a34:	a9077fbf 	stp	xzr, xzr, [x29,#112]
    1a38:	a9087fbf 	stp	xzr, xzr, [x29,#128]
    1a3c:	a9097fbf 	stp	xzr, xzr, [x29,#144]
    1a40:	a90a7fbf 	stp	xzr, xzr, [x29,#160]
/home/lagadanu/Desktop/qemu/out-br/build/optee_test-1.0/ta/os_test/os_test.c:802
    1a44:	a9057fbf 	stp	xzr, xzr, [x29,#80]
    1a48:	a9067fbf 	stp	xzr, xzr, [x29,#96]
/home/lagadanu/Desktop/qemu/out-br/build/optee_test-1.0/ta/os_test/os_test.c:808
    1a4c:	94005d8c 	bl	1907c <puts>
/home/lagadanu/Desktop/qemu/out-br/build/optee_test-1.0/ta/os_test/os_test.c:810
    1a50:	52800001 	mov	w1, #0x0                   	// #0
    1a54:	52800060 	mov	w0, #0x3                   	// #3
    1a58:	94006138 	bl	19f38 <TEE_Malloc>
/home/lagadanu/Desktop/qemu/out-br/build/optee_test-1.0/ta/os_test/os_test.c:811
    1a5c:	b4000380 	cbz	x0, 1acc <ta_entry_client+0xb8>
/home/lagadanu/Desktop/qemu/out-br/build/optee_test-1.0/ta/os_test/os_test.c:813
    1a60:	d00000f3 	adrp	x19, 1f000 <malloc_add_pool+0xe0>
    1a64:	9115e273 	add	x19, x19, #0x578
    1a68:	52800062 	mov	w2, #0x3                   	// #3
    1a6c:	9102a261 	add	x1, x19, #0xa8
    1a70:	aa0003f5 	mov	x21, x0
/home/lagadanu/Desktop/qemu/out-br/build/optee_test-1.0/ta/os_test/os_test.c:815
    1a74:	910113b8 	add	x24, x29, #0x44
/home/lagadanu/Desktop/qemu/out-br/build/optee_test-1.0/ta/os_test/os_test.c:813
    1a78:	940060d7 	bl	19dd4 <TEE_MemMove>
/home/lagadanu/Desktop/qemu/out-br/build/optee_test-1.0/ta/os_test/os_test.c:815
    1a7c:	aa1803e5 	mov	x5, x24
    1a80:	910123a4 	add	x4, x29, #0x48
    1a84:	d2800003 	mov	x3, #0x0                   	// #0
    1a88:	52800002 	mov	w2, #0x0                   	// #0
    1a8c:	52800001 	mov	w1, #0x0                   	// #0
    1a90:	9102c260 	add	x0, x19, #0xb0
    1a94:	94006049 	bl	19bb8 <TEE_OpenTASession>
    1a98:	2a0003f4 	mov	w20, w0
/home/lagadanu/Desktop/qemu/out-br/build/optee_test-1.0/ta/os_test/os_test.c:816
    1a9c:	34000240 	cbz	w0, 1ae4 <ta_entry_client+0xd0>
/home/lagadanu/Desktop/qemu/out-br/build/optee_test-1.0/ta/os_test/os_test.c:817
    1aa0:	90000104 	adrp	x4, 21000 <__compound_literal.0+0x7cc>
    1aa4:	9120f484 	add	x4, x4, #0x83d
    1aa8:	52800023 	mov	w3, #0x1                   	// #1
    1aac:	52800022 	mov	w2, #0x1                   	// #1
    1ab0:	52806621 	mov	w1, #0x331                 	// #817
/home/lagadanu/Desktop/qemu/out-br/build/optee_test-1.0/ta/os_test/os_test.c:831
    1ab4:	91030260 	add	x0, x19, #0xc0
    1ab8:	94005727 	bl	17754 <trace_printf>
/home/lagadanu/Desktop/qemu/out-br/build/optee_test-1.0/ta/os_test/os_test.c:842
    1abc:	aa1503e0 	mov	x0, x21
    1ac0:	94006137 	bl	19f9c <TEE_Free>
/home/lagadanu/Desktop/qemu/out-br/build/optee_test-1.0/ta/os_test/os_test.c:843
    1ac4:	f94027a0 	ldr	x0, [x29,#72]
    1ac8:	94006060 	bl	19c48 <TEE_CloseTASession>
/home/lagadanu/Desktop/qemu/out-br/build/optee_test-1.0/ta/os_test/os_test.c:845
    1acc:	2a1403e0 	mov	w0, w20
    1ad0:	a94153f3 	ldp	x19, x20, [sp,#16]
    1ad4:	a9425bf5 	ldp	x21, x22, [sp,#32]
    1ad8:	a94363f7 	ldp	x23, x24, [sp,#48]
    1adc:	a8cb7bfd 	ldp	x29, x30, [sp],#176
    1ae0:	d65f03c0 	ret
/home/lagadanu/Desktop/qemu/out-br/build/optee_test-1.0/ta/os_test/os_test.c:824
    1ae4:	52800060 	mov	w0, #0x3                   	// #3
    1ae8:	b9007ba0 	str	w0, [x29,#120]
/home/lagadanu/Desktop/qemu/out-br/build/optee_test-1.0/ta/os_test/os_test.c:828
    1aec:	f94027a0 	ldr	x0, [x29,#72]
/home/lagadanu/Desktop/qemu/out-br/build/optee_test-1.0/ta/os_test/os_test.c:825
    1af0:	910143b6 	add	x22, x29, #0x50
/home/lagadanu/Desktop/qemu/out-br/build/optee_test-1.0/ta/os_test/os_test.c:826
    1af4:	52800417 	mov	w23, #0x20                  	// #32
/home/lagadanu/Desktop/qemu/out-br/build/optee_test-1.0/ta/os_test/os_test.c:828
    1af8:	aa1803e5 	mov	x5, x24
    1afc:	9101c3a4 	add	x4, x29, #0x70
    1b00:	52800ca3 	mov	w3, #0x65                  	// #101
    1b04:	52800042 	mov	w2, #0x2                   	// #2
    1b08:	52800001 	mov	w1, #0x0                   	// #0
/home/lagadanu/Desktop/qemu/out-br/build/optee_test-1.0/ta/os_test/os_test.c:823
    1b0c:	f9003bb5 	str	x21, [x29,#112]
/home/lagadanu/Desktop/qemu/out-br/build/optee_test-1.0/ta/os_test/os_test.c:825
    1b10:	f90043b6 	str	x22, [x29,#128]
/home/lagadanu/Desktop/qemu/out-br/build/optee_test-1.0/ta/os_test/os_test.c:826
    1b14:	b9008bb7 	str	w23, [x29,#136]
/home/lagadanu/Desktop/qemu/out-br/build/optee_test-1.0/ta/os_test/os_test.c:828
    1b18:	94006056 	bl	19c70 <TEE_InvokeTACommand>
    1b1c:	2a0003f4 	mov	w20, w0
/home/lagadanu/Desktop/qemu/out-br/build/optee_test-1.0/ta/os_test/os_test.c:830
    1b20:	340000e0 	cbz	w0, 1b3c <ta_entry_client+0x128>
/home/lagadanu/Desktop/qemu/out-br/build/optee_test-1.0/ta/os_test/os_test.c:831
    1b24:	90000104 	adrp	x4, 21000 <__compound_literal.0+0x7cc>
    1b28:	52800023 	mov	w3, #0x1                   	// #1
    1b2c:	9121a084 	add	x4, x4, #0x868
    1b30:	52800022 	mov	w2, #0x1                   	// #1
    1b34:	528067e1 	mov	w1, #0x33f                 	// #831
    1b38:	17ffffdf 	b	1ab4 <ta_entry_client+0xa0>
/home/lagadanu/Desktop/qemu/out-br/build/optee_test-1.0/ta/os_test/os_test.c:835
    1b3c:	2a1703e2 	mov	w2, w23
    1b40:	aa1603e1 	mov	x1, x22
    1b44:	91034260 	add	x0, x19, #0xd0
    1b48:	940060a5 	bl	19ddc <TEE_MemCompare>
    1b4c:	34fffb80 	cbz	w0, 1abc <ta_entry_client+0xa8>
/home/lagadanu/Desktop/qemu/out-br/build/optee_test-1.0/ta/os_test/os_test.c:836
    1b50:	90000104 	adrp	x4, 21000 <__compound_literal.0+0x7cc>
    1b54:	52800023 	mov	w3, #0x1                   	// #1
    1b58:	91225484 	add	x4, x4, #0x895
    1b5c:	52800022 	mov	w2, #0x1                   	// #1
    1b60:	52806881 	mov	w1, #0x344                 	// #836
    1b64:	91030260 	add	x0, x19, #0xc0
/home/lagadanu/Desktop/qemu/out-br/build/optee_test-1.0/ta/os_test/os_test.c:837
    1b68:	52bffff4 	mov	w20, #0xffff0000            	// #-65536
/home/lagadanu/Desktop/qemu/out-br/build/optee_test-1.0/ta/os_test/os_test.c:836
    1b6c:	940056fa 	bl	17754 <trace_printf>
/home/lagadanu/Desktop/qemu/out-br/build/optee_test-1.0/ta/os_test/os_test.c:838
    1b70:	17ffffd3 	b	1abc <ta_entry_client+0xa8>

0000000000001b74 <ta_entry_params_access_rights>:
ta_entry_params_access_rights():
/home/lagadanu/Desktop/qemu/out-br/build/optee_test-1.0/ta/os_test/os_test.c:851
    1b74:	7101541f 	cmp	w0, #0x55
    1b78:	540000e0 	b.eq	1b94 <ta_entry_params_access_rights+0x20>
/home/lagadanu/Desktop/qemu/out-br/build/optee_test-1.0/ta/os_test/os_test.c:854
    1b7c:	52bfffe0 	mov	w0, #0xffff0000            	// #-65536
/home/lagadanu/Desktop/qemu/out-br/build/optee_test-1.0/ta/os_test/os_test.c:872
    1b80:	d65f03c0 	ret
/home/lagadanu/Desktop/qemu/out-br/build/optee_test-1.0/ta/os_test/os_test.c:854
    1b84:	52bfffe0 	mov	w0, #0xffff0000            	// #-65536
/home/lagadanu/Desktop/qemu/out-br/build/optee_test-1.0/ta/os_test/os_test.c:872
    1b88:	f9400bf3 	ldr	x19, [sp,#16]
    1b8c:	a8c27bfd 	ldp	x29, x30, [sp],#32
    1b90:	d65f03c0 	ret
/home/lagadanu/Desktop/qemu/out-br/build/optee_test-1.0/ta/os_test/os_test.c:848
    1b94:	a9be7bfd 	stp	x29, x30, [sp,#-32]!
/home/lagadanu/Desktop/qemu/out-br/build/optee_test-1.0/ta/os_test/os_test.c:856
    1b98:	528000a0 	mov	w0, #0x5                   	// #5
/home/lagadanu/Desktop/qemu/out-br/build/optee_test-1.0/ta/os_test/os_test.c:848
    1b9c:	910003fd 	mov	x29, sp
    1ba0:	f9000bf3 	str	x19, [sp,#16]
    1ba4:	aa0103f3 	mov	x19, x1
/home/lagadanu/Desktop/qemu/out-br/build/optee_test-1.0/ta/os_test/os_test.c:856
    1ba8:	b9400822 	ldr	w2, [x1,#8]
    1bac:	f9400021 	ldr	x1, [x1]
    1bb0:	9400607e 	bl	19da8 <TEE_CheckMemoryAccessRights>
/home/lagadanu/Desktop/qemu/out-br/build/optee_test-1.0/ta/os_test/os_test.c:860
    1bb4:	35fffea0 	cbnz	w0, 1b88 <ta_entry_params_access_rights+0x14>
/home/lagadanu/Desktop/qemu/out-br/build/optee_test-1.0/ta/os_test/os_test.c:863
    1bb8:	f9400261 	ldr	x1, [x19]
    1bbc:	52800020 	mov	w0, #0x1                   	// #1
    1bc0:	b9400a62 	ldr	w2, [x19,#8]
    1bc4:	94006079 	bl	19da8 <TEE_CheckMemoryAccessRights>
/home/lagadanu/Desktop/qemu/out-br/build/optee_test-1.0/ta/os_test/os_test.c:866
    1bc8:	129fffc1 	mov	w1, #0xffff0001            	// #-65535
    1bcc:	6b01001f 	cmp	w0, w1
    1bd0:	54fffda1 	b.ne	1b84 <ta_entry_params_access_rights+0x10>
/home/lagadanu/Desktop/qemu/out-br/build/optee_test-1.0/ta/os_test/os_test.c:868
    1bd4:	f9400a62 	ldr	x2, [x19,#16]
/home/lagadanu/Desktop/qemu/out-br/build/optee_test-1.0/ta/os_test/os_test.c:869
    1bd8:	129fff20 	mov	w0, #0xffff0006            	// #-65530
/home/lagadanu/Desktop/qemu/out-br/build/optee_test-1.0/ta/os_test/os_test.c:868
    1bdc:	b5fffd62 	cbnz	x2, 1b88 <ta_entry_params_access_rights+0x14>
/home/lagadanu/Desktop/qemu/out-br/build/optee_test-1.0/ta/os_test/os_test.c:868 (discriminator 1)
    1be0:	b9401a60 	ldr	w0, [x19,#24]
/home/lagadanu/Desktop/qemu/out-br/build/optee_test-1.0/ta/os_test/os_test.c:869 (discriminator 1)
    1be4:	7100001f 	cmp	w0, #0x0
    1be8:	129fff20 	mov	w0, #0xffff0006            	// #-65530
    1bec:	1a8003e0 	csel	w0, wzr, w0, eq
    1bf0:	17ffffe6 	b	1b88 <ta_entry_params_access_rights+0x14>

0000000000001bf4 <ta_entry_wait>:
ta_entry_wait():
/home/lagadanu/Desktop/qemu/out-br/build/optee_test-1.0/ta/os_test/os_test.c:875
    1bf4:	a9be7bfd 	stp	x29, x30, [sp,#-32]!
/home/lagadanu/Desktop/qemu/out-br/build/optee_test-1.0/ta/os_test/os_test.c:879
    1bf8:	90000100 	adrp	x0, 21000 <__compound_literal.0+0x7cc>
    1bfc:	9122f000 	add	x0, x0, #0x8bc
/home/lagadanu/Desktop/qemu/out-br/build/optee_test-1.0/ta/os_test/os_test.c:875
    1c00:	910003fd 	mov	x29, sp
    1c04:	f9000bf3 	str	x19, [sp,#16]
    1c08:	aa0103f3 	mov	x19, x1
/home/lagadanu/Desktop/qemu/out-br/build/optee_test-1.0/ta/os_test/os_test.c:879
    1c0c:	b9400021 	ldr	w1, [x1]
    1c10:	94005ce8 	bl	18fb0 <printf>
/home/lagadanu/Desktop/qemu/out-br/build/optee_test-1.0/ta/os_test/os_test.c:881
    1c14:	b9400260 	ldr	w0, [x19]
/home/lagadanu/Desktop/qemu/out-br/build/optee_test-1.0/ta/os_test/os_test.c:884
    1c18:	f9400bf3 	ldr	x19, [sp,#16]
    1c1c:	a8c27bfd 	ldp	x29, x30, [sp],#32
/home/lagadanu/Desktop/qemu/out-br/build/optee_test-1.0/ta/os_test/os_test.c:881
    1c20:	1400607d 	b	19e14 <TEE_Wait>

0000000000001c24 <ta_entry_bad_mem_access>:
ta_entry_bad_mem_access():
/home/lagadanu/Desktop/qemu/out-br/build/optee_test-1.0/ta/os_test/os_test.c:902
    1c24:	7101c41f 	cmp	w0, #0x71
    1c28:	7a411804 	ccmp	w0, #0x1, #0x4, ne
    1c2c:	540003c1 	b.ne	1ca4 <ta_entry_bad_mem_access+0x80>
/home/lagadanu/Desktop/qemu/out-br/build/optee_test-1.0/ta/os_test/os_test.c:898
    1c30:	a9be7bfd 	stp	x29, x30, [sp,#-32]!
    1c34:	910003fd 	mov	x29, sp
/home/lagadanu/Desktop/qemu/out-br/build/optee_test-1.0/ta/os_test/os_test.c:907
    1c38:	b9400021 	ldr	w1, [x1]
/home/lagadanu/Desktop/qemu/out-br/build/optee_test-1.0/ta/os_test/os_test.c:900
    1c3c:	910063a0 	add	x0, x29, #0x18
/home/lagadanu/Desktop/qemu/out-br/build/optee_test-1.0/ta/os_test/os_test.c:907
    1c40:	51000421 	sub	w1, w1, #0x1
    1c44:	7100103f 	cmp	w1, #0x4
    1c48:	54000188 	b.hi	1c78 <ta_entry_bad_mem_access+0x54>
    1c4c:	d00000e2 	adrp	x2, 1f000 <malloc_add_pool+0xe0>
    1c50:	9114c042 	add	x2, x2, #0x530
    1c54:	38614841 	ldrb	w1, [x2,w1,uxtw]
    1c58:	10000062 	adr	x2, 1c64 <ta_entry_bad_mem_access+0x40>
    1c5c:	8b218841 	add	x1, x2, w1, sxtb #2
    1c60:	d61f0020 	br	x1
/home/lagadanu/Desktop/qemu/out-br/build/optee_test-1.0/ta/os_test/os_test.c:909
    1c64:	d2800000 	mov	x0, #0x0                   	// #0
    1c68:	b900001f 	str	wzr, [x0]
    1c6c:	d4207d00 	brk	#0x3e8
/home/lagadanu/Desktop/qemu/out-br/build/optee_test-1.0/ta/os_test/os_test.c:912
    1c70:	d2a80001 	mov	x1, #0x40000000            	// #1073741824
    1c74:	b821681f 	str	wzr, [x0,x1]
/home/lagadanu/Desktop/qemu/out-br/build/optee_test-1.0/ta/os_test/os_test.c:927
    1c78:	52800000 	mov	w0, #0x0                   	// #0
/home/lagadanu/Desktop/qemu/out-br/build/optee_test-1.0/ta/os_test/os_test.c:928
    1c7c:	a8c27bfd 	ldp	x29, x30, [sp],#32
    1c80:	d65f03c0 	ret
/home/lagadanu/Desktop/qemu/out-br/build/optee_test-1.0/ta/os_test/os_test.c:915
    1c84:	d2800000 	mov	x0, #0x0                   	// #0
/home/lagadanu/Desktop/qemu/out-br/build/optee_test-1.0/ta/os_test/os_test.c:918
    1c88:	d63f0000 	blr	x0
    1c8c:	17fffffb 	b	1c78 <ta_entry_bad_mem_access+0x54>
    1c90:	d2a80001 	mov	x1, #0x40000000            	// #1073741824
    1c94:	8b010000 	add	x0, x0, x1
    1c98:	17fffffc 	b	1c88 <ta_entry_bad_mem_access+0x64>
undef_instr():
    1c9c:	00000000 	.word	0x00000000
/home/lagadanu/Desktop/qemu/out-br/build/optee_test-1.0/ta/os_test/os_test.c:889
    1ca0:	17fffff6 	b	1c78 <ta_entry_bad_mem_access+0x54>
ta_entry_bad_mem_access():
/home/lagadanu/Desktop/qemu/out-br/build/optee_test-1.0/ta/os_test/os_test.c:905
    1ca4:	52bfffe0 	mov	w0, #0xffff0000            	// #-65536
    1ca8:	d65f03c0 	ret

0000000000001cac <ta_entry_ta2ta_memref>:
ta_entry_ta2ta_memref():
/home/lagadanu/Desktop/qemu/out-br/build/optee_test-1.0/ta/os_test/os_test.c:940
    1cac:	a9b67bfd 	stp	x29, x30, [sp,#-160]!
    1cb0:	910003fd 	mov	x29, sp
    1cb4:	a90363f7 	stp	x23, x24, [sp,#48]
    1cb8:	f90023f9 	str	x25, [sp,#64]
    1cbc:	a90153f3 	stp	x19, x20, [sp,#16]
    1cc0:	a9025bf5 	stp	x21, x22, [sp,#32]
/home/lagadanu/Desktop/qemu/out-br/build/optee_test-1.0/ta/os_test/os_test.c:945
    1cc4:	d12003ff 	sub	sp, sp, #0x800
/home/lagadanu/Desktop/qemu/out-br/build/optee_test-1.0/ta/os_test/os_test.c:943
    1cc8:	a9067fbf 	stp	xzr, xzr, [x29,#96]
/home/lagadanu/Desktop/qemu/out-br/build/optee_test-1.0/ta/os_test/os_test.c:945
    1ccc:	910003f8 	mov	x24, sp
/home/lagadanu/Desktop/qemu/out-br/build/optee_test-1.0/ta/os_test/os_test.c:943
    1cd0:	a9077fbf 	stp	xzr, xzr, [x29,#112]
/home/lagadanu/Desktop/qemu/out-br/build/optee_test-1.0/ta/os_test/os_test.c:946
    1cd4:	d12003ff 	sub	sp, sp, #0x800
/home/lagadanu/Desktop/qemu/out-br/build/optee_test-1.0/ta/os_test/os_test.c:943
    1cd8:	a9087fbf 	stp	xzr, xzr, [x29,#128]
/home/lagadanu/Desktop/qemu/out-br/build/optee_test-1.0/ta/os_test/os_test.c:946
    1cdc:	910003f9 	mov	x25, sp
/home/lagadanu/Desktop/qemu/out-br/build/optee_test-1.0/ta/os_test/os_test.c:943
    1ce0:	a9097fbf 	stp	xzr, xzr, [x29,#144]
/home/lagadanu/Desktop/qemu/out-br/build/optee_test-1.0/ta/os_test/os_test.c:947
    1ce4:	d12003ff 	sub	sp, sp, #0x800
/home/lagadanu/Desktop/qemu/out-br/build/optee_test-1.0/ta/os_test/os_test.c:942
    1ce8:	f9002fbf 	str	xzr, [x29,#88]
/home/lagadanu/Desktop/qemu/out-br/build/optee_test-1.0/ta/os_test/os_test.c:954
    1cec:	35000e60 	cbnz	w0, 1eb8 <ta_entry_ta2ta_memref+0x20c>
/home/lagadanu/Desktop/qemu/out-br/build/optee_test-1.0/ta/os_test/os_test.c:957
    1cf0:	910153b6 	add	x22, x29, #0x54
    1cf4:	d00000f3 	adrp	x19, 1f000 <malloc_add_pool+0xe0>
    1cf8:	9115e277 	add	x23, x19, #0x578
    1cfc:	aa1603e5 	mov	x5, x22
    1d00:	910163a4 	add	x4, x29, #0x58
    1d04:	d2800003 	mov	x3, #0x0                   	// #0
    1d08:	52800002 	mov	w2, #0x0                   	// #0
    1d0c:	52800001 	mov	w1, #0x0                   	// #0
    1d10:	9103c2e0 	add	x0, x23, #0xf0
    1d14:	94005fa9 	bl	19bb8 <TEE_OpenTASession>
    1d18:	2a0003f4 	mov	w20, w0
/home/lagadanu/Desktop/qemu/out-br/build/optee_test-1.0/ta/os_test/os_test.c:958
    1d1c:	34000240 	cbz	w0, 1d64 <ta_entry_ta2ta_memref+0xb8>
/home/lagadanu/Desktop/qemu/out-br/build/optee_test-1.0/ta/os_test/os_test.c:959
    1d20:	90000104 	adrp	x4, 21000 <__compound_literal.0+0x7cc>
    1d24:	910402e0 	add	x0, x23, #0x100
    1d28:	91235c84 	add	x4, x4, #0x8d7
    1d2c:	52800023 	mov	w3, #0x1                   	// #1
    1d30:	52800022 	mov	w2, #0x1                   	// #1
    1d34:	528077e1 	mov	w1, #0x3bf                 	// #959
/home/lagadanu/Desktop/qemu/out-br/build/optee_test-1.0/ta/os_test/os_test.c:987
    1d38:	94005687 	bl	17754 <trace_printf>
/home/lagadanu/Desktop/qemu/out-br/build/optee_test-1.0/ta/os_test/os_test.c:1020
    1d3c:	f9402fa0 	ldr	x0, [x29,#88]
    1d40:	94005fc2 	bl	19c48 <TEE_CloseTASession>
/home/lagadanu/Desktop/qemu/out-br/build/optee_test-1.0/ta/os_test/os_test.c:1022
    1d44:	910003bf 	mov	sp, x29
    1d48:	2a1403e0 	mov	w0, w20
    1d4c:	f94023f9 	ldr	x25, [sp,#64]
    1d50:	a94153f3 	ldp	x19, x20, [sp,#16]
    1d54:	a9425bf5 	ldp	x21, x22, [sp,#32]
    1d58:	a94363f7 	ldp	x23, x24, [sp,#48]
    1d5c:	a8ca7bfd 	ldp	x29, x30, [sp],#160
    1d60:	d65f03c0 	ret
/home/lagadanu/Desktop/qemu/out-br/build/optee_test-1.0/ta/os_test/os_test.c:967
    1d64:	52810000 	mov	w0, #0x800                 	// #2048
    1d68:	910003f5 	mov	x21, sp
    1d6c:	b9006ba0 	str	w0, [x29,#104]
/home/lagadanu/Desktop/qemu/out-br/build/optee_test-1.0/ta/os_test/os_test.c:975
    1d70:	528000a2 	mov	w2, #0x5                   	// #5
/home/lagadanu/Desktop/qemu/out-br/build/optee_test-1.0/ta/os_test/os_test.c:969
    1d74:	b9007ba0 	str	w0, [x29,#120]
/home/lagadanu/Desktop/qemu/out-br/build/optee_test-1.0/ta/os_test/os_test.c:976
    1d78:	52800141 	mov	w1, #0xa                   	// #10
/home/lagadanu/Desktop/qemu/out-br/build/optee_test-1.0/ta/os_test/os_test.c:971
    1d7c:	b9008ba0 	str	w0, [x29,#136]
/home/lagadanu/Desktop/qemu/out-br/build/optee_test-1.0/ta/os_test/os_test.c:974
    1d80:	d2800000 	mov	x0, #0x0                   	// #0
/home/lagadanu/Desktop/qemu/out-br/build/optee_test-1.0/ta/os_test/os_test.c:966
    1d84:	f90033b8 	str	x24, [x29,#96]
/home/lagadanu/Desktop/qemu/out-br/build/optee_test-1.0/ta/os_test/os_test.c:968
    1d88:	f9003bb9 	str	x25, [x29,#112]
/home/lagadanu/Desktop/qemu/out-br/build/optee_test-1.0/ta/os_test/os_test.c:970
    1d8c:	f90043b5 	str	x21, [x29,#128]
/home/lagadanu/Desktop/qemu/out-br/build/optee_test-1.0/ta/os_test/os_test.c:975 (discriminator 3)
    1d90:	38206b02 	strb	w2, [x24,x0]
/home/lagadanu/Desktop/qemu/out-br/build/optee_test-1.0/ta/os_test/os_test.c:976 (discriminator 3)
    1d94:	38206b21 	strb	w1, [x25,x0]
/home/lagadanu/Desktop/qemu/out-br/build/optee_test-1.0/ta/os_test/os_test.c:977 (discriminator 3)
    1d98:	38206abf 	strb	wzr, [x21,x0]
/home/lagadanu/Desktop/qemu/out-br/build/optee_test-1.0/ta/os_test/os_test.c:974 (discriminator 3)
    1d9c:	91000400 	add	x0, x0, #0x1
    1da0:	f120001f 	cmp	x0, #0x800
    1da4:	54ffff61 	b.ne	1d90 <ta_entry_ta2ta_memref+0xe4>
/home/lagadanu/Desktop/qemu/out-br/build/optee_test-1.0/ta/os_test/os_test.c:984
    1da8:	f9402fa0 	ldr	x0, [x29,#88]
    1dac:	910183b7 	add	x23, x29, #0x60
    1db0:	aa1603e5 	mov	x5, x22
    1db4:	aa1703e4 	mov	x4, x23
    1db8:	5280cea3 	mov	w3, #0x675                 	// #1653
    1dbc:	52800182 	mov	w2, #0xc                   	// #12
    1dc0:	52800001 	mov	w1, #0x0                   	// #0
    1dc4:	94005fab 	bl	19c70 <TEE_InvokeTACommand>
    1dc8:	2a0003f4 	mov	w20, w0
/home/lagadanu/Desktop/qemu/out-br/build/optee_test-1.0/ta/os_test/os_test.c:986
    1dcc:	34000120 	cbz	w0, 1df0 <ta_entry_ta2ta_memref+0x144>
/home/lagadanu/Desktop/qemu/out-br/build/optee_test-1.0/ta/os_test/os_test.c:987
    1dd0:	90000104 	adrp	x4, 21000 <__compound_literal.0+0x7cc>
    1dd4:	9115e260 	add	x0, x19, #0x578
    1dd8:	9123c084 	add	x4, x4, #0x8f0
    1ddc:	52800023 	mov	w3, #0x1                   	// #1
    1de0:	52800022 	mov	w2, #0x1                   	// #1
    1de4:	52807b61 	mov	w1, #0x3db                 	// #987
    1de8:	91040000 	add	x0, x0, #0x100
    1dec:	17ffffd3 	b	1d38 <ta_entry_ta2ta_memref+0x8c>
    1df0:	d2800000 	mov	x0, #0x0                   	// #0
incr_values():
/home/lagadanu/Desktop/qemu/out-br/build/optee_test-1.0/ta/os_test/os_test.c:935
    1df4:	38606b01 	ldrb	w1, [x24,x0]
    1df8:	11000421 	add	w1, w1, #0x1
    1dfc:	38206b01 	strb	w1, [x24,x0]
    1e00:	38606b21 	ldrb	w1, [x25,x0]
    1e04:	11000421 	add	w1, w1, #0x1
    1e08:	38206b21 	strb	w1, [x25,x0]
    1e0c:	38606aa1 	ldrb	w1, [x21,x0]
    1e10:	11000421 	add	w1, w1, #0x1
    1e14:	38206aa1 	strb	w1, [x21,x0]
/home/lagadanu/Desktop/qemu/out-br/build/optee_test-1.0/ta/os_test/os_test.c:934
    1e18:	91000400 	add	x0, x0, #0x1
    1e1c:	f120001f 	cmp	x0, #0x800
    1e20:	54fffea1 	b.ne	1df4 <ta_entry_ta2ta_memref+0x148>
ta_entry_ta2ta_memref():
/home/lagadanu/Desktop/qemu/out-br/build/optee_test-1.0/ta/os_test/os_test.c:1001
    1e24:	f9402fa0 	ldr	x0, [x29,#88]
    1e28:	aa1603e5 	mov	x5, x22
    1e2c:	aa1703e4 	mov	x4, x23
    1e30:	5280cea3 	mov	w3, #0x675                 	// #1653
    1e34:	52800182 	mov	w2, #0xc                   	// #12
    1e38:	52800001 	mov	w1, #0x0                   	// #0
    1e3c:	94005f8d 	bl	19c70 <TEE_InvokeTACommand>
    1e40:	2a0003f4 	mov	w20, w0
    1e44:	d2800000 	mov	x0, #0x0                   	// #0
/home/lagadanu/Desktop/qemu/out-br/build/optee_test-1.0/ta/os_test/os_test.c:1003
    1e48:	34000174 	cbz	w20, 1e74 <ta_entry_ta2ta_memref+0x1c8>
/home/lagadanu/Desktop/qemu/out-br/build/optee_test-1.0/ta/os_test/os_test.c:1004
    1e4c:	90000104 	adrp	x4, 21000 <__compound_literal.0+0x7cc>
    1e50:	9115e260 	add	x0, x19, #0x578
    1e54:	9123c084 	add	x4, x4, #0x8f0
    1e58:	52800023 	mov	w3, #0x1                   	// #1
    1e5c:	52800022 	mov	w2, #0x1                   	// #1
    1e60:	52807d81 	mov	w1, #0x3ec                 	// #1004
    1e64:	17ffffe1 	b	1de8 <ta_entry_ta2ta_memref+0x13c>
/home/lagadanu/Desktop/qemu/out-br/build/optee_test-1.0/ta/os_test/os_test.c:1009 (discriminator 2)
    1e68:	91000400 	add	x0, x0, #0x1
    1e6c:	f120001f 	cmp	x0, #0x800
    1e70:	54fff660 	b.eq	1d3c <ta_entry_ta2ta_memref+0x90>
/home/lagadanu/Desktop/qemu/out-br/build/optee_test-1.0/ta/os_test/os_test.c:1010
    1e74:	38606b01 	ldrb	w1, [x24,x0]
    1e78:	7100183f 	cmp	w1, #0x6
    1e7c:	540000e1 	b.ne	1e98 <ta_entry_ta2ta_memref+0x1ec>
/home/lagadanu/Desktop/qemu/out-br/build/optee_test-1.0/ta/os_test/os_test.c:1010 (discriminator 1)
    1e80:	38606b21 	ldrb	w1, [x25,x0]
    1e84:	7100343f 	cmp	w1, #0xd
    1e88:	54000081 	b.ne	1e98 <ta_entry_ta2ta_memref+0x1ec>
/home/lagadanu/Desktop/qemu/out-br/build/optee_test-1.0/ta/os_test/os_test.c:1010 (discriminator 2)
    1e8c:	38606aa1 	ldrb	w1, [x21,x0]
    1e90:	71004c3f 	cmp	w1, #0x13
    1e94:	54fffea0 	b.eq	1e68 <ta_entry_ta2ta_memref+0x1bc>
/home/lagadanu/Desktop/qemu/out-br/build/optee_test-1.0/ta/os_test/os_test.c:1011
    1e98:	9115e260 	add	x0, x19, #0x578
    1e9c:	90000104 	adrp	x4, 21000 <__compound_literal.0+0x7cc>
    1ea0:	52800023 	mov	w3, #0x1                   	// #1
    1ea4:	91242c84 	add	x4, x4, #0x90b
    1ea8:	52800022 	mov	w2, #0x1                   	// #1
    1eac:	52807e61 	mov	w1, #0x3f3                 	// #1011
    1eb0:	91040000 	add	x0, x0, #0x100
    1eb4:	94005628 	bl	17754 <trace_printf>
/home/lagadanu/Desktop/qemu/out-br/build/optee_test-1.0/ta/os_test/os_test.c:955
    1eb8:	52bffff4 	mov	w20, #0xffff0000            	// #-65536
    1ebc:	17ffffa2 	b	1d44 <ta_entry_ta2ta_memref+0x98>

0000000000001ec0 <ta_entry_ta2ta_memref_mix>:
ta_entry_ta2ta_memref_mix():
/home/lagadanu/Desktop/qemu/out-br/build/optee_test-1.0/ta/os_test/os_test.c:1032
    1ec0:	7119d41f 	cmp	w0, #0x675
    1ec4:	54000341 	b.ne	1f2c <ta_entry_ta2ta_memref_mix+0x6c>
/home/lagadanu/Desktop/qemu/out-br/build/optee_test-1.0/ta/os_test/os_test.c:1037
    1ec8:	b9400822 	ldr	w2, [x1,#8]
/home/lagadanu/Desktop/qemu/out-br/build/optee_test-1.0/ta/os_test/os_test.c:1035
    1ecc:	52bfffe0 	mov	w0, #0xffff0000            	// #-65536
/home/lagadanu/Desktop/qemu/out-br/build/optee_test-1.0/ta/os_test/os_test.c:1038
    1ed0:	b9401823 	ldr	w3, [x1,#24]
    1ed4:	eb03005f 	cmp	x2, x3
    1ed8:	540002c1 	b.ne	1f30 <ta_entry_ta2ta_memref_mix+0x70>
/home/lagadanu/Desktop/qemu/out-br/build/optee_test-1.0/ta/os_test/os_test.c:1039 (discriminator 1)
    1edc:	b9402823 	ldr	w3, [x1,#40]
/home/lagadanu/Desktop/qemu/out-br/build/optee_test-1.0/ta/os_test/os_test.c:1038 (discriminator 1)
    1ee0:	eb03005f 	cmp	x2, x3
    1ee4:	54000261 	b.ne	1f30 <ta_entry_ta2ta_memref_mix+0x70>
/home/lagadanu/Desktop/qemu/out-br/build/optee_test-1.0/ta/os_test/os_test.c:1042
    1ee8:	f9400024 	ldr	x4, [x1]
/home/lagadanu/Desktop/qemu/out-br/build/optee_test-1.0/ta/os_test/os_test.c:1043
    1eec:	f9400823 	ldr	x3, [x1,#16]
/home/lagadanu/Desktop/qemu/out-br/build/optee_test-1.0/ta/os_test/os_test.c:1044
    1ef0:	f9401025 	ldr	x5, [x1,#32]
/home/lagadanu/Desktop/qemu/out-br/build/optee_test-1.0/ta/os_test/os_test.c:1046
    1ef4:	d2800001 	mov	x1, #0x0                   	// #0
/home/lagadanu/Desktop/qemu/out-br/build/optee_test-1.0/ta/os_test/os_test.c:1046 (discriminator 1)
    1ef8:	eb02003f 	cmp	x1, x2
    1efc:	54000063 	b.cc	1f08 <ta_entry_ta2ta_memref_mix+0x48>
/home/lagadanu/Desktop/qemu/out-br/build/optee_test-1.0/ta/os_test/os_test.c:1049
    1f00:	52800000 	mov	w0, #0x0                   	// #0
    1f04:	d65f03c0 	ret
/home/lagadanu/Desktop/qemu/out-br/build/optee_test-1.0/ta/os_test/os_test.c:1047 (discriminator 3)
    1f08:	38616860 	ldrb	w0, [x3,x1]
    1f0c:	11000400 	add	w0, w0, #0x1
    1f10:	12001c00 	and	w0, w0, #0xff
    1f14:	38216860 	strb	w0, [x3,x1]
    1f18:	38616886 	ldrb	w6, [x4,x1]
    1f1c:	0b060000 	add	w0, w0, w6
    1f20:	382168a0 	strb	w0, [x5,x1]
/home/lagadanu/Desktop/qemu/out-br/build/optee_test-1.0/ta/os_test/os_test.c:1046 (discriminator 3)
    1f24:	91000421 	add	x1, x1, #0x1
    1f28:	17fffff4 	b	1ef8 <ta_entry_ta2ta_memref_mix+0x38>
/home/lagadanu/Desktop/qemu/out-br/build/optee_test-1.0/ta/os_test/os_test.c:1035
    1f2c:	52bfffe0 	mov	w0, #0xffff0000            	// #-65536
/home/lagadanu/Desktop/qemu/out-br/build/optee_test-1.0/ta/os_test/os_test.c:1050
    1f30:	d65f03c0 	ret

0000000000001f34 <ta_entry_params>:
ta_entry_params():
/home/lagadanu/Desktop/qemu/out-br/build/optee_test-1.0/ta/os_test/os_test.c:1056
    1f34:	528ccaa2 	mov	w2, #0x6655                	// #26197
    1f38:	6b02001f 	cmp	w0, w2
    1f3c:	54000161 	b.ne	1f68 <ta_entry_params+0x34>
    1f40:	91010020 	add	x0, x1, #0x40
/home/lagadanu/Desktop/qemu/out-br/build/optee_test-1.0/ta/os_test/os_test.c:1063
    1f44:	f9400022 	ldr	x2, [x1]
    1f48:	b4000102 	cbz	x2, 1f68 <ta_entry_params+0x34>
/home/lagadanu/Desktop/qemu/out-br/build/optee_test-1.0/ta/os_test/os_test.c:1063 (discriminator 1)
    1f4c:	b9400822 	ldr	w2, [x1,#8]
    1f50:	340000c2 	cbz	w2, 1f68 <ta_entry_params+0x34>
    1f54:	91004021 	add	x1, x1, #0x10
/home/lagadanu/Desktop/qemu/out-br/build/optee_test-1.0/ta/os_test/os_test.c:1062 (discriminator 2)
    1f58:	eb00003f 	cmp	x1, x0
    1f5c:	54ffff41 	b.ne	1f44 <ta_entry_params+0x10>
/home/lagadanu/Desktop/qemu/out-br/build/optee_test-1.0/ta/os_test/os_test.c:1066
    1f60:	52800000 	mov	w0, #0x0                   	// #0
    1f64:	d65f03c0 	ret
/home/lagadanu/Desktop/qemu/out-br/build/optee_test-1.0/ta/os_test/os_test.c:1060
    1f68:	129fff20 	mov	w0, #0xffff0006            	// #-65530
/home/lagadanu/Desktop/qemu/out-br/build/optee_test-1.0/ta/os_test/os_test.c:1067
    1f6c:	d65f03c0 	ret

0000000000001f70 <ta_entry_call_lib>:
ta_entry_call_lib():
/home/lagadanu/Desktop/qemu/out-br/build/optee_test-1.0/ta/os_test/os_test.c:1072
    1f70:	35000160 	cbnz	w0, 1f9c <ta_entry_call_lib+0x2c>
/home/lagadanu/Desktop/qemu/out-br/build/optee_test-1.0/ta/os_test/os_test.c:1071
    1f74:	a9bf7bfd 	stp	x29, x30, [sp,#-16]!
/home/lagadanu/Desktop/qemu/out-br/build/optee_test-1.0/ta/os_test/os_test.c:1078
    1f78:	52800041 	mov	w1, #0x2                   	// #2
    1f7c:	52800020 	mov	w0, #0x1                   	// #1
/home/lagadanu/Desktop/qemu/out-br/build/optee_test-1.0/ta/os_test/os_test.c:1071
    1f80:	910003fd 	mov	x29, sp
/home/lagadanu/Desktop/qemu/out-br/build/optee_test-1.0/ta/os_test/os_test.c:1078
    1f84:	94007561 	bl	1f508 <os_test_shlib_add@plt>
/home/lagadanu/Desktop/qemu/out-br/build/optee_test-1.0/ta/os_test/os_test.c:1081
    1f88:	71000c1f 	cmp	w0, #0x3
/home/lagadanu/Desktop/qemu/out-br/build/optee_test-1.0/ta/os_test/os_test.c:1082
    1f8c:	a8c17bfd 	ldp	x29, x30, [sp],#16
/home/lagadanu/Desktop/qemu/out-br/build/optee_test-1.0/ta/os_test/os_test.c:1081
    1f90:	52bfffe0 	mov	w0, #0xffff0000            	// #-65536
    1f94:	1a9f1000 	csel	w0, w0, wzr, ne
/home/lagadanu/Desktop/qemu/out-br/build/optee_test-1.0/ta/os_test/os_test.c:1082
    1f98:	d65f03c0 	ret
/home/lagadanu/Desktop/qemu/out-br/build/optee_test-1.0/ta/os_test/os_test.c:1076
    1f9c:	129fff20 	mov	w0, #0xffff0006            	// #-65530
    1fa0:	d65f03c0 	ret

0000000000001fa4 <ta_entry_call_lib_panic>:
ta_entry_call_lib_panic():
/home/lagadanu/Desktop/qemu/out-br/build/optee_test-1.0/ta/os_test/os_test.c:1087
    1fa4:	350000e0 	cbnz	w0, 1fc0 <ta_entry_call_lib_panic+0x1c>
/home/lagadanu/Desktop/qemu/out-br/build/optee_test-1.0/ta/os_test/os_test.c:1086
    1fa8:	a9bf7bfd 	stp	x29, x30, [sp,#-16]!
    1fac:	910003fd 	mov	x29, sp
/home/lagadanu/Desktop/qemu/out-br/build/optee_test-1.0/ta/os_test/os_test.c:1093
    1fb0:	9400755a 	bl	1f518 <os_test_shlib_panic@plt>
/home/lagadanu/Desktop/qemu/out-br/build/optee_test-1.0/ta/os_test/os_test.c:1095
    1fb4:	52bfffe0 	mov	w0, #0xffff0000            	// #-65536
/home/lagadanu/Desktop/qemu/out-br/build/optee_test-1.0/ta/os_test/os_test.c:1096
    1fb8:	a8c17bfd 	ldp	x29, x30, [sp],#16
    1fbc:	d65f03c0 	ret
/home/lagadanu/Desktop/qemu/out-br/build/optee_test-1.0/ta/os_test/os_test.c:1091
    1fc0:	129fff20 	mov	w0, #0xffff0006            	// #-65530
    1fc4:	d65f03c0 	ret

0000000000001fc8 <ta_entry_init>:
ta_entry_init():
/home/lagadanu/Desktop/qemu/out-br/build/optee_test-1.0/ta/os_test/init.c:32
    1fc8:	a9be7bfd 	stp	x29, x30, [sp,#-32]!
    1fcc:	910003fd 	mov	x29, sp
/home/lagadanu/Desktop/qemu/out-br/build/optee_test-1.0/ta/os_test/init.c:37
    1fd0:	910063a0 	add	x0, x29, #0x18
    1fd4:	94005f9f 	bl	19e50 <TEE_GetTAPersistentTime>
/home/lagadanu/Desktop/qemu/out-br/build/optee_test-1.0/ta/os_test/init.c:38
    1fd8:	a8c27bfd 	ldp	x29, x30, [sp],#32
    1fdc:	d65f03c0 	ret

0000000000001fe0 <call_longjmp>:
call_longjmp():
/home/lagadanu/Desktop/qemu/out-br/build/optee_test-1.0/ta/os_test/os_test.c:670
    1fe0:	a9bf7bfd 	stp	x29, x30, [sp,#-16]!
/home/lagadanu/Desktop/qemu/out-br/build/optee_test-1.0/ta/os_test/os_test.c:672
    1fe4:	52800021 	mov	w1, #0x1                   	// #1
/home/lagadanu/Desktop/qemu/out-br/build/optee_test-1.0/ta/os_test/os_test.c:670
    1fe8:	910003fd 	mov	x29, sp
/home/lagadanu/Desktop/qemu/out-br/build/optee_test-1.0/ta/os_test/os_test.c:672
    1fec:	940055be 	bl	176e4 <longjmp>

0000000000001ff0 <TA_CreateEntryPoint>:
TA_CreateEntryPoint():
/home/lagadanu/Desktop/qemu/out-br/build/optee_test-1.0/ta/os_test/ta_entry.c:43
    1ff0:	52800000 	mov	w0, #0x0                   	// #0
    1ff4:	d65f03c0 	ret

0000000000001ff8 <TA_DestroyEntryPoint>:
TA_DestroyEntryPoint():
/home/lagadanu/Desktop/qemu/out-br/build/optee_test-1.0/ta/os_test/ta_entry.c:47
    1ff8:	d65f03c0 	ret

0000000000001ffc <TA_OpenSessionEntryPoint>:
TA_OpenSessionEntryPoint():
/home/lagadanu/Desktop/qemu/out-br/build/optee_test-1.0/ta/os_test/ta_entry.c:55
    1ffc:	a9bf7bfd 	stp	x29, x30, [sp,#-16]!
    2000:	910003fd 	mov	x29, sp
/home/lagadanu/Desktop/qemu/out-br/build/optee_test-1.0/ta/os_test/ta_entry.c:60
    2004:	94005f53 	bl	19d50 <TEE_UnmaskCancellation>
/home/lagadanu/Desktop/qemu/out-br/build/optee_test-1.0/ta/os_test/ta_entry.c:62
    2008:	52800000 	mov	w0, #0x0                   	// #0
    200c:	a8c17bfd 	ldp	x29, x30, [sp],#16
    2010:	d65f03c0 	ret

0000000000002014 <TA_CloseSessionEntryPoint>:
TA_CloseSessionEntryPoint():
/home/lagadanu/Desktop/qemu/out-br/build/optee_test-1.0/ta/os_test/ta_entry.c:66
    2014:	d65f03c0 	ret

0000000000002018 <TA_InvokeCommandEntryPoint>:
TA_InvokeCommandEntryPoint():
/home/lagadanu/Desktop/qemu/out-br/build/optee_test-1.0/ta/os_test/ta_entry.c:75
    2018:	2a0103e4 	mov	w4, w1
    201c:	2a0203e0 	mov	w0, w2
    2020:	aa0303e1 	mov	x1, x3
/home/lagadanu/Desktop/qemu/out-br/build/optee_test-1.0/ta/os_test/ta_entry.c:78
    2024:	71003c9f 	cmp	w4, #0xf
    2028:	54000288 	b.hi	2078 <TA_InvokeCommandEntryPoint+0x60>
    202c:	d00000e2 	adrp	x2, 20000 <PRIME_TABLE+0x610>
    2030:	91203042 	add	x2, x2, #0x80c
    2034:	38644842 	ldrb	w2, [x2,w4,uxtw]
    2038:	10000063 	adr	x3, 2044 <TA_InvokeCommandEntryPoint+0x2c>
    203c:	8b228862 	add	x2, x3, w2, sxtb #2
    2040:	d61f0040 	br	x2
/home/lagadanu/Desktop/qemu/out-br/build/optee_test-1.0/ta/os_test/ta_entry.c:80
    2044:	17ffffe1 	b	1fc8 <ta_entry_init>
/home/lagadanu/Desktop/qemu/out-br/build/optee_test-1.0/ta/os_test/ta_entry.c:83
    2048:	17fffe2e 	b	1900 <ta_entry_client_with_timeout>
/home/lagadanu/Desktop/qemu/out-br/build/optee_test-1.0/ta/os_test/ta_entry.c:86
    204c:	17fffa74 	b	a1c <ta_entry_basic>
/home/lagadanu/Desktop/qemu/out-br/build/optee_test-1.0/ta/os_test/ta_entry.c:89
    2050:	17fffe1d 	b	18c4 <ta_entry_panic>
/home/lagadanu/Desktop/qemu/out-br/build/optee_test-1.0/ta/os_test/ta_entry.c:92
    2054:	17fffe70 	b	1a14 <ta_entry_client>
/home/lagadanu/Desktop/qemu/out-br/build/optee_test-1.0/ta/os_test/ta_entry.c:95
    2058:	17fffec7 	b	1b74 <ta_entry_params_access_rights>
/home/lagadanu/Desktop/qemu/out-br/build/optee_test-1.0/ta/os_test/ta_entry.c:98
    205c:	17fffee6 	b	1bf4 <ta_entry_wait>
/home/lagadanu/Desktop/qemu/out-br/build/optee_test-1.0/ta/os_test/ta_entry.c:101
    2060:	17fffef1 	b	1c24 <ta_entry_bad_mem_access>
/home/lagadanu/Desktop/qemu/out-br/build/optee_test-1.0/ta/os_test/ta_entry.c:104
    2064:	17ffff12 	b	1cac <ta_entry_ta2ta_memref>
/home/lagadanu/Desktop/qemu/out-br/build/optee_test-1.0/ta/os_test/ta_entry.c:107
    2068:	17ffff96 	b	1ec0 <ta_entry_ta2ta_memref_mix>
/home/lagadanu/Desktop/qemu/out-br/build/optee_test-1.0/ta/os_test/ta_entry.c:110
    206c:	17ffffb2 	b	1f34 <ta_entry_params>
/home/lagadanu/Desktop/qemu/out-br/build/optee_test-1.0/ta/os_test/ta_entry.c:113
    2070:	17ffffc0 	b	1f70 <ta_entry_call_lib>
/home/lagadanu/Desktop/qemu/out-br/build/optee_test-1.0/ta/os_test/ta_entry.c:116
    2074:	17ffffcc 	b	1fa4 <ta_entry_call_lib_panic>
/home/lagadanu/Desktop/qemu/out-br/build/optee_test-1.0/ta/os_test/ta_entry.c:121
    2078:	129fff20 	mov	w0, #0xffff0006            	// #-65530
    207c:	d65f03c0 	ret

0000000000002080 <tb_addsub>:
tb_addsub():
/home/lagadanu/Desktop/qemu/out-br/build/optee_test-1.0/ta/os_test/tb_addsub.c:81
    2080:	a9b97bfd 	stp	x29, x30, [sp,#-112]!
/home/lagadanu/Desktop/qemu/out-br/build/optee_test-1.0/ta/os_test/tb_addsub.c:84
    2084:	f00000e1 	adrp	x1, 21000 <__compound_literal.0+0x7cc>
    2088:	f00000e0 	adrp	x0, 21000 <__compound_literal.0+0x7cc>
    208c:	9124a421 	add	x1, x1, #0x929
/home/lagadanu/Desktop/qemu/out-br/build/optee_test-1.0/ta/os_test/tb_addsub.c:81
    2090:	910003fd 	mov	x29, sp
    2094:	a90153f3 	stp	x19, x20, [sp,#16]
/home/lagadanu/Desktop/qemu/out-br/build/optee_test-1.0/ta/os_test/tb_addsub.c:84
    2098:	91250800 	add	x0, x0, #0x942
/home/lagadanu/Desktop/qemu/out-br/build/optee_test-1.0/ta/os_test/tb_addsub.c:81
    209c:	a9025bf5 	stp	x21, x22, [sp,#32]
    20a0:	a9046bf9 	stp	x25, x26, [sp,#64]
/home/lagadanu/Desktop/qemu/out-br/build/optee_test-1.0/ta/os_test/tb_addsub.c:89
    20a4:	f00000f9 	adrp	x25, 21000 <__compound_literal.0+0x7cc>
/home/lagadanu/Desktop/qemu/out-br/build/optee_test-1.0/ta/os_test/tb_addsub.c:81
    20a8:	a90363f7 	stp	x23, x24, [sp,#48]
/home/lagadanu/Desktop/qemu/out-br/build/optee_test-1.0/ta/os_test/tb_addsub.c:90
    20ac:	f00000f8 	adrp	x24, 21000 <__compound_literal.0+0x7cc>
/home/lagadanu/Desktop/qemu/out-br/build/optee_test-1.0/ta/os_test/tb_addsub.c:81
    20b0:	a90573fb 	stp	x27, x28, [sp,#80]
/home/lagadanu/Desktop/qemu/out-br/build/optee_test-1.0/ta/os_test/tb_addsub.c:84
    20b4:	94005bbf 	bl	18fb0 <printf>
/home/lagadanu/Desktop/qemu/out-br/build/optee_test-1.0/ta/os_test/tb_addsub.c:85
    20b8:	52800001 	mov	w1, #0x0                   	// #0
    20bc:	52801100 	mov	w0, #0x88                  	// #136
    20c0:	94005f9e 	bl	19f38 <TEE_Malloc>
    20c4:	aa0003f3 	mov	x19, x0
    20c8:	52800441 	mov	w1, #0x22                  	// #34
    20cc:	94005cdd 	bl	19440 <TEE_BigIntInit>
/home/lagadanu/Desktop/qemu/out-br/build/optee_test-1.0/ta/os_test/tb_addsub.c:86
    20d0:	52800001 	mov	w1, #0x0                   	// #0
    20d4:	52801100 	mov	w0, #0x88                  	// #136
    20d8:	94005f98 	bl	19f38 <TEE_Malloc>
    20dc:	aa0003f4 	mov	x20, x0
    20e0:	52800441 	mov	w1, #0x22                  	// #34
    20e4:	94005cd7 	bl	19440 <TEE_BigIntInit>
/home/lagadanu/Desktop/qemu/out-br/build/optee_test-1.0/ta/os_test/tb_addsub.c:87
    20e8:	52800001 	mov	w1, #0x0                   	// #0
    20ec:	52801100 	mov	w0, #0x88                  	// #136
    20f0:	94005f92 	bl	19f38 <TEE_Malloc>
    20f4:	aa0003f5 	mov	x21, x0
    20f8:	52800441 	mov	w1, #0x22                  	// #34
    20fc:	94005cd1 	bl	19440 <TEE_BigIntInit>
/home/lagadanu/Desktop/qemu/out-br/build/optee_test-1.0/ta/os_test/tb_addsub.c:90
    2100:	91048716 	add	x22, x24, #0x121
/home/lagadanu/Desktop/qemu/out-br/build/optee_test-1.0/ta/os_test/tb_addsub.c:89
    2104:	90000101 	adrp	x1, 22000 <__compound_literal.0+0x17cc>
    2108:	9126a720 	add	x0, x25, #0x9a9
    210c:	91017021 	add	x1, x1, #0x5c
    2110:	94005ba8 	bl	18fb0 <printf>
/home/lagadanu/Desktop/qemu/out-br/build/optee_test-1.0/ta/os_test/tb_addsub.c:90
    2114:	aa1603e1 	mov	x1, x22
    2118:	aa1303e0 	mov	x0, x19
    211c:	94005481 	bl	17320 <TEE_BigIntConvertFromString>
    2120:	aa1603e1 	mov	x1, x22
    2124:	aa1403e0 	mov	x0, x20
    2128:	9400547e 	bl	17320 <TEE_BigIntConvertFromString>
    212c:	90000116 	adrp	x22, 22000 <__compound_literal.0+0x17cc>
    2130:	aa1403e2 	mov	x2, x20
    2134:	aa1303e1 	mov	x1, x19
    2138:	aa1503e0 	mov	x0, x21
    213c:	94005d11 	bl	19580 <TEE_BigIntAdd>
    2140:	aa1503e2 	mov	x2, x21
    2144:	52800201 	mov	w1, #0x10                  	// #16
    2148:	d2800000 	mov	x0, #0x0                   	// #0
    214c:	91342edb 	add	x27, x22, #0xd0b
    2150:	94005475 	bl	17324 <TEE_BigIntConvertToString>
    2154:	aa0003fa 	mov	x26, x0
    2158:	aa1b03e1 	mov	x1, x27
    215c:	94003501 	bl	f560 <my_strcmp>
    2160:	340002c0 	cbz	w0, 21b8 <tb_addsub+0x138>
/home/lagadanu/Desktop/qemu/out-br/build/optee_test-1.0/ta/os_test/tb_addsub.c:90 (discriminator 1)
    2164:	b00000f7 	adrp	x23, 1f000 <malloc_add_pool+0xe0>
    2168:	911a42f7 	add	x23, x23, #0x690
    216c:	aa1b03e6 	mov	x6, x27
    2170:	aa1a03e5 	mov	x5, x26
    2174:	52800023 	mov	w3, #0x1                   	// #1
    2178:	52800022 	mov	w2, #0x1                   	// #1
    217c:	52800b41 	mov	w1, #0x5a                  	// #90
    2180:	aa1703e0 	mov	x0, x23
    2184:	f00000e4 	adrp	x4, 21000 <__compound_literal.0+0x7cc>
    2188:	9126e484 	add	x4, x4, #0x9b9
    218c:	94005572 	bl	17754 <trace_printf>
    2190:	aa1703e2 	mov	x2, x23
    2194:	52800b41 	mov	w1, #0x5a                  	// #90
    2198:	f00000e0 	adrp	x0, 21000 <__compound_literal.0+0x7cc>
    219c:	91275000 	add	x0, x0, #0x9d4
    21a0:	94005b84 	bl	18fb0 <printf>
    21a4:	f00000e0 	adrp	x0, 21000 <__compound_literal.0+0x7cc>
    21a8:	91284000 	add	x0, x0, #0xa10
    21ac:	94005bb4 	bl	1907c <puts>
    21b0:	52800000 	mov	w0, #0x0                   	// #0
    21b4:	94005f81 	bl	19fb8 <TEE_Panic>
/home/lagadanu/Desktop/qemu/out-br/build/optee_test-1.0/ta/os_test/tb_addsub.c:90 (discriminator 3)
    21b8:	aa1a03e0 	mov	x0, x26
    21bc:	94005f78 	bl	19f9c <TEE_Free>
    21c0:	aa1403e2 	mov	x2, x20
    21c4:	aa1303e1 	mov	x1, x19
    21c8:	aa1303e0 	mov	x0, x19
    21cc:	94005ced 	bl	19580 <TEE_BigIntAdd>
    21d0:	aa1303e2 	mov	x2, x19
    21d4:	52800201 	mov	w1, #0x10                  	// #16
    21d8:	d2800000 	mov	x0, #0x0                   	// #0
    21dc:	91342edb 	add	x27, x22, #0xd0b
    21e0:	94005451 	bl	17324 <TEE_BigIntConvertToString>
    21e4:	aa0003fa 	mov	x26, x0
    21e8:	aa1b03e1 	mov	x1, x27
    21ec:	940034dd 	bl	f560 <my_strcmp>
    21f0:	340002c0 	cbz	w0, 2248 <tb_addsub+0x1c8>
/home/lagadanu/Desktop/qemu/out-br/build/optee_test-1.0/ta/os_test/tb_addsub.c:90 (discriminator 4)
    21f4:	b00000f7 	adrp	x23, 1f000 <malloc_add_pool+0xe0>
    21f8:	911a42f7 	add	x23, x23, #0x690
    21fc:	aa1b03e6 	mov	x6, x27
    2200:	aa1a03e5 	mov	x5, x26
    2204:	52800023 	mov	w3, #0x1                   	// #1
    2208:	52800022 	mov	w2, #0x1                   	// #1
    220c:	52800b41 	mov	w1, #0x5a                  	// #90
    2210:	aa1703e0 	mov	x0, x23
    2214:	f00000e4 	adrp	x4, 21000 <__compound_literal.0+0x7cc>
    2218:	9126e484 	add	x4, x4, #0x9b9
    221c:	9400554e 	bl	17754 <trace_printf>
    2220:	aa1703e2 	mov	x2, x23
    2224:	52800b41 	mov	w1, #0x5a                  	// #90
    2228:	f00000e0 	adrp	x0, 21000 <__compound_literal.0+0x7cc>
    222c:	91275000 	add	x0, x0, #0x9d4
    2230:	94005b60 	bl	18fb0 <printf>
    2234:	f00000e0 	adrp	x0, 21000 <__compound_literal.0+0x7cc>
    2238:	91284000 	add	x0, x0, #0xa10
    223c:	94005b90 	bl	1907c <puts>
    2240:	52800000 	mov	w0, #0x0                   	// #0
    2244:	94005f5d 	bl	19fb8 <TEE_Panic>
/home/lagadanu/Desktop/qemu/out-br/build/optee_test-1.0/ta/os_test/tb_addsub.c:90 (discriminator 6)
    2248:	aa1a03e0 	mov	x0, x26
    224c:	94005f54 	bl	19f9c <TEE_Free>
    2250:	aa1403e2 	mov	x2, x20
    2254:	aa1303e1 	mov	x1, x19
    2258:	aa1303e0 	mov	x0, x19
    225c:	94005ccc 	bl	1958c <TEE_BigIntSub>
    2260:	aa1403e2 	mov	x2, x20
    2264:	aa1303e1 	mov	x1, x19
    2268:	aa1403e0 	mov	x0, x20
    226c:	94005cc5 	bl	19580 <TEE_BigIntAdd>
    2270:	aa1403e2 	mov	x2, x20
    2274:	52800201 	mov	w1, #0x10                  	// #16
    2278:	d2800000 	mov	x0, #0x0                   	// #0
    227c:	91342edb 	add	x27, x22, #0xd0b
    2280:	94005429 	bl	17324 <TEE_BigIntConvertToString>
    2284:	aa0003fa 	mov	x26, x0
    2288:	aa1b03e1 	mov	x1, x27
    228c:	940034b5 	bl	f560 <my_strcmp>
    2290:	340002c0 	cbz	w0, 22e8 <tb_addsub+0x268>
/home/lagadanu/Desktop/qemu/out-br/build/optee_test-1.0/ta/os_test/tb_addsub.c:90 (discriminator 7)
    2294:	b00000f7 	adrp	x23, 1f000 <malloc_add_pool+0xe0>
    2298:	911a42f7 	add	x23, x23, #0x690
    229c:	aa1b03e6 	mov	x6, x27
    22a0:	aa1a03e5 	mov	x5, x26
    22a4:	52800023 	mov	w3, #0x1                   	// #1
    22a8:	52800022 	mov	w2, #0x1                   	// #1
    22ac:	52800b41 	mov	w1, #0x5a                  	// #90
    22b0:	aa1703e0 	mov	x0, x23
    22b4:	f00000e4 	adrp	x4, 21000 <__compound_literal.0+0x7cc>
    22b8:	9126e484 	add	x4, x4, #0x9b9
    22bc:	94005526 	bl	17754 <trace_printf>
    22c0:	aa1703e2 	mov	x2, x23
    22c4:	52800b41 	mov	w1, #0x5a                  	// #90
    22c8:	f00000e0 	adrp	x0, 21000 <__compound_literal.0+0x7cc>
    22cc:	91275000 	add	x0, x0, #0x9d4
    22d0:	94005b38 	bl	18fb0 <printf>
    22d4:	f00000e0 	adrp	x0, 21000 <__compound_literal.0+0x7cc>
    22d8:	91284000 	add	x0, x0, #0xa10
    22dc:	94005b68 	bl	1907c <puts>
    22e0:	52800000 	mov	w0, #0x0                   	// #0
    22e4:	94005f35 	bl	19fb8 <TEE_Panic>
/home/lagadanu/Desktop/qemu/out-br/build/optee_test-1.0/ta/os_test/tb_addsub.c:90 (discriminator 9)
    22e8:	aa1a03e0 	mov	x0, x26
    22ec:	94005f2c 	bl	19f9c <TEE_Free>
/home/lagadanu/Desktop/qemu/out-br/build/optee_test-1.0/ta/os_test/tb_addsub.c:91 (discriminator 9)
    22f0:	91342ec1 	add	x1, x22, #0xd0b
    22f4:	91048717 	add	x23, x24, #0x121
    22f8:	aa1303e0 	mov	x0, x19
    22fc:	94005409 	bl	17320 <TEE_BigIntConvertFromString>
    2300:	aa1703e1 	mov	x1, x23
    2304:	aa1403e0 	mov	x0, x20
    2308:	94005406 	bl	17320 <TEE_BigIntConvertFromString>
    230c:	aa1403e2 	mov	x2, x20
    2310:	aa1303e1 	mov	x1, x19
    2314:	aa1503e0 	mov	x0, x21
    2318:	94005c9d 	bl	1958c <TEE_BigIntSub>
    231c:	aa1503e2 	mov	x2, x21
    2320:	52800201 	mov	w1, #0x10                  	// #16
    2324:	d2800000 	mov	x0, #0x0                   	// #0
    2328:	940053ff 	bl	17324 <TEE_BigIntConvertToString>
    232c:	aa1703e1 	mov	x1, x23
    2330:	aa0003fa 	mov	x26, x0
    2334:	9400348b 	bl	f560 <my_strcmp>
    2338:	340002c0 	cbz	w0, 2390 <tb_addsub+0x310>
/home/lagadanu/Desktop/qemu/out-br/build/optee_test-1.0/ta/os_test/tb_addsub.c:91 (discriminator 1)
    233c:	b00000f6 	adrp	x22, 1f000 <malloc_add_pool+0xe0>
    2340:	911a42d6 	add	x22, x22, #0x690
    2344:	aa1703e6 	mov	x6, x23
    2348:	aa1a03e5 	mov	x5, x26
    234c:	52800023 	mov	w3, #0x1                   	// #1
    2350:	52800022 	mov	w2, #0x1                   	// #1
    2354:	52800b61 	mov	w1, #0x5b                  	// #91
    2358:	aa1603e0 	mov	x0, x22
    235c:	f00000e4 	adrp	x4, 21000 <__compound_literal.0+0x7cc>
    2360:	9126e484 	add	x4, x4, #0x9b9
    2364:	940054fc 	bl	17754 <trace_printf>
    2368:	aa1603e2 	mov	x2, x22
    236c:	52800b61 	mov	w1, #0x5b                  	// #91
    2370:	f00000e0 	adrp	x0, 21000 <__compound_literal.0+0x7cc>
    2374:	91275000 	add	x0, x0, #0x9d4
    2378:	94005b0e 	bl	18fb0 <printf>
    237c:	f00000e0 	adrp	x0, 21000 <__compound_literal.0+0x7cc>
    2380:	91284000 	add	x0, x0, #0xa10
    2384:	94005b3e 	bl	1907c <puts>
    2388:	52800000 	mov	w0, #0x0                   	// #0
    238c:	94005f0b 	bl	19fb8 <TEE_Panic>
/home/lagadanu/Desktop/qemu/out-br/build/optee_test-1.0/ta/os_test/tb_addsub.c:91 (discriminator 3)
    2390:	aa1a03e0 	mov	x0, x26
    2394:	94005f02 	bl	19f9c <TEE_Free>
    2398:	aa1403e2 	mov	x2, x20
    239c:	aa1303e1 	mov	x1, x19
    23a0:	aa1303e0 	mov	x0, x19
    23a4:	94005c7a 	bl	1958c <TEE_BigIntSub>
    23a8:	aa1303e2 	mov	x2, x19
    23ac:	52800201 	mov	w1, #0x10                  	// #16
    23b0:	d2800000 	mov	x0, #0x0                   	// #0
    23b4:	9104871a 	add	x26, x24, #0x121
    23b8:	940053db 	bl	17324 <TEE_BigIntConvertToString>
    23bc:	aa0003f7 	mov	x23, x0
    23c0:	aa1a03e1 	mov	x1, x26
    23c4:	94003467 	bl	f560 <my_strcmp>
    23c8:	340002c0 	cbz	w0, 2420 <tb_addsub+0x3a0>
/home/lagadanu/Desktop/qemu/out-br/build/optee_test-1.0/ta/os_test/tb_addsub.c:91 (discriminator 4)
    23cc:	b00000f6 	adrp	x22, 1f000 <malloc_add_pool+0xe0>
    23d0:	911a42d6 	add	x22, x22, #0x690
    23d4:	aa1a03e6 	mov	x6, x26
    23d8:	aa1703e5 	mov	x5, x23
    23dc:	52800023 	mov	w3, #0x1                   	// #1
    23e0:	52800022 	mov	w2, #0x1                   	// #1
    23e4:	52800b61 	mov	w1, #0x5b                  	// #91
    23e8:	aa1603e0 	mov	x0, x22
    23ec:	f00000e4 	adrp	x4, 21000 <__compound_literal.0+0x7cc>
    23f0:	9126e484 	add	x4, x4, #0x9b9
    23f4:	940054d8 	bl	17754 <trace_printf>
    23f8:	aa1603e2 	mov	x2, x22
    23fc:	52800b61 	mov	w1, #0x5b                  	// #91
    2400:	f00000e0 	adrp	x0, 21000 <__compound_literal.0+0x7cc>
    2404:	91275000 	add	x0, x0, #0x9d4
    2408:	94005aea 	bl	18fb0 <printf>
    240c:	f00000e0 	adrp	x0, 21000 <__compound_literal.0+0x7cc>
    2410:	91284000 	add	x0, x0, #0xa10
    2414:	94005b1a 	bl	1907c <puts>
    2418:	52800000 	mov	w0, #0x0                   	// #0
    241c:	94005ee7 	bl	19fb8 <TEE_Panic>
/home/lagadanu/Desktop/qemu/out-br/build/optee_test-1.0/ta/os_test/tb_addsub.c:91 (discriminator 6)
    2420:	aa1703e0 	mov	x0, x23
    2424:	94005ede 	bl	19f9c <TEE_Free>
    2428:	aa1403e2 	mov	x2, x20
    242c:	aa1303e1 	mov	x1, x19
    2430:	aa1303e0 	mov	x0, x19
    2434:	94005c53 	bl	19580 <TEE_BigIntAdd>
    2438:	aa1403e2 	mov	x2, x20
    243c:	aa1303e1 	mov	x1, x19
    2440:	aa1403e0 	mov	x0, x20
    2444:	94005c52 	bl	1958c <TEE_BigIntSub>
    2448:	aa1403e2 	mov	x2, x20
    244c:	52800201 	mov	w1, #0x10                  	// #16
    2450:	d2800000 	mov	x0, #0x0                   	// #0
    2454:	9104871a 	add	x26, x24, #0x121
    2458:	940053b3 	bl	17324 <TEE_BigIntConvertToString>
    245c:	aa0003f7 	mov	x23, x0
    2460:	aa1a03e1 	mov	x1, x26
    2464:	9400343f 	bl	f560 <my_strcmp>
    2468:	340002c0 	cbz	w0, 24c0 <tb_addsub+0x440>
/home/lagadanu/Desktop/qemu/out-br/build/optee_test-1.0/ta/os_test/tb_addsub.c:91 (discriminator 7)
    246c:	b00000f6 	adrp	x22, 1f000 <malloc_add_pool+0xe0>
    2470:	911a42d6 	add	x22, x22, #0x690
    2474:	aa1a03e6 	mov	x6, x26
    2478:	aa1703e5 	mov	x5, x23
    247c:	52800023 	mov	w3, #0x1                   	// #1
    2480:	52800022 	mov	w2, #0x1                   	// #1
    2484:	52800b61 	mov	w1, #0x5b                  	// #91
    2488:	aa1603e0 	mov	x0, x22
    248c:	f00000e4 	adrp	x4, 21000 <__compound_literal.0+0x7cc>
    2490:	9126e484 	add	x4, x4, #0x9b9
    2494:	940054b0 	bl	17754 <trace_printf>
    2498:	aa1603e2 	mov	x2, x22
    249c:	52800b61 	mov	w1, #0x5b                  	// #91
    24a0:	f00000e0 	adrp	x0, 21000 <__compound_literal.0+0x7cc>
    24a4:	91275000 	add	x0, x0, #0x9d4
    24a8:	94005ac2 	bl	18fb0 <printf>
    24ac:	f00000e0 	adrp	x0, 21000 <__compound_literal.0+0x7cc>
    24b0:	91284000 	add	x0, x0, #0xa10
    24b4:	94005af2 	bl	1907c <puts>
    24b8:	52800000 	mov	w0, #0x0                   	// #0
    24bc:	94005ebf 	bl	19fb8 <TEE_Panic>
/home/lagadanu/Desktop/qemu/out-br/build/optee_test-1.0/ta/os_test/tb_addsub.c:91 (discriminator 9)
    24c0:	aa1703e0 	mov	x0, x23
    24c4:	94005eb6 	bl	19f9c <TEE_Free>
/home/lagadanu/Desktop/qemu/out-br/build/optee_test-1.0/ta/os_test/tb_addsub.c:92 (discriminator 9)
    24c8:	f00000f7 	adrp	x23, 21000 <__compound_literal.0+0x7cc>
    24cc:	aa1303e0 	mov	x0, x19
    24d0:	9128eee1 	add	x1, x23, #0xa3b
    24d4:	94005393 	bl	17320 <TEE_BigIntConvertFromString>
    24d8:	91048701 	add	x1, x24, #0x121
    24dc:	aa1403e0 	mov	x0, x20
    24e0:	94005390 	bl	17320 <TEE_BigIntConvertFromString>
    24e4:	f0000116 	adrp	x22, 25000 <__compound_literal.0+0x47cc>
    24e8:	aa1403e2 	mov	x2, x20
    24ec:	aa1303e1 	mov	x1, x19
    24f0:	aa1503e0 	mov	x0, x21
    24f4:	94005c23 	bl	19580 <TEE_BigIntAdd>
    24f8:	aa1503e2 	mov	x2, x21
    24fc:	52800201 	mov	w1, #0x10                  	// #16
    2500:	d2800000 	mov	x0, #0x0                   	// #0
    2504:	91043edc 	add	x28, x22, #0x10f
    2508:	94005387 	bl	17324 <TEE_BigIntConvertToString>
    250c:	aa0003fb 	mov	x27, x0
    2510:	aa1c03e1 	mov	x1, x28
    2514:	94003413 	bl	f560 <my_strcmp>
    2518:	340002c0 	cbz	w0, 2570 <tb_addsub+0x4f0>
/home/lagadanu/Desktop/qemu/out-br/build/optee_test-1.0/ta/os_test/tb_addsub.c:92 (discriminator 1)
    251c:	b00000fa 	adrp	x26, 1f000 <malloc_add_pool+0xe0>
    2520:	911a435a 	add	x26, x26, #0x690
    2524:	aa1c03e6 	mov	x6, x28
    2528:	aa1b03e5 	mov	x5, x27
    252c:	52800023 	mov	w3, #0x1                   	// #1
    2530:	52800022 	mov	w2, #0x1                   	// #1
    2534:	52800b81 	mov	w1, #0x5c                  	// #92
    2538:	aa1a03e0 	mov	x0, x26
    253c:	f00000e4 	adrp	x4, 21000 <__compound_literal.0+0x7cc>
    2540:	9126e484 	add	x4, x4, #0x9b9
    2544:	94005484 	bl	17754 <trace_printf>
    2548:	aa1a03e2 	mov	x2, x26
    254c:	52800b81 	mov	w1, #0x5c                  	// #92
    2550:	f00000e0 	adrp	x0, 21000 <__compound_literal.0+0x7cc>
    2554:	91275000 	add	x0, x0, #0x9d4
    2558:	94005a96 	bl	18fb0 <printf>
    255c:	f00000e0 	adrp	x0, 21000 <__compound_literal.0+0x7cc>
    2560:	91284000 	add	x0, x0, #0xa10
    2564:	94005ac6 	bl	1907c <puts>
    2568:	52800000 	mov	w0, #0x0                   	// #0
    256c:	94005e93 	bl	19fb8 <TEE_Panic>
/home/lagadanu/Desktop/qemu/out-br/build/optee_test-1.0/ta/os_test/tb_addsub.c:92 (discriminator 3)
    2570:	aa1b03e0 	mov	x0, x27
    2574:	94005e8a 	bl	19f9c <TEE_Free>
    2578:	aa1403e2 	mov	x2, x20
    257c:	aa1303e1 	mov	x1, x19
    2580:	aa1303e0 	mov	x0, x19
    2584:	94005bff 	bl	19580 <TEE_BigIntAdd>
    2588:	aa1303e2 	mov	x2, x19
    258c:	52800201 	mov	w1, #0x10                  	// #16
    2590:	d2800000 	mov	x0, #0x0                   	// #0
    2594:	91043edc 	add	x28, x22, #0x10f
    2598:	94005363 	bl	17324 <TEE_BigIntConvertToString>
    259c:	aa0003fb 	mov	x27, x0
    25a0:	aa1c03e1 	mov	x1, x28
    25a4:	940033ef 	bl	f560 <my_strcmp>
    25a8:	340002c0 	cbz	w0, 2600 <tb_addsub+0x580>
/home/lagadanu/Desktop/qemu/out-br/build/optee_test-1.0/ta/os_test/tb_addsub.c:92 (discriminator 4)
    25ac:	b00000fa 	adrp	x26, 1f000 <malloc_add_pool+0xe0>
    25b0:	911a435a 	add	x26, x26, #0x690
    25b4:	aa1c03e6 	mov	x6, x28
    25b8:	aa1b03e5 	mov	x5, x27
    25bc:	52800023 	mov	w3, #0x1                   	// #1
    25c0:	52800022 	mov	w2, #0x1                   	// #1
    25c4:	52800b81 	mov	w1, #0x5c                  	// #92
    25c8:	aa1a03e0 	mov	x0, x26
    25cc:	f00000e4 	adrp	x4, 21000 <__compound_literal.0+0x7cc>
    25d0:	9126e484 	add	x4, x4, #0x9b9
    25d4:	94005460 	bl	17754 <trace_printf>
    25d8:	aa1a03e2 	mov	x2, x26
    25dc:	52800b81 	mov	w1, #0x5c                  	// #92
    25e0:	f00000e0 	adrp	x0, 21000 <__compound_literal.0+0x7cc>
    25e4:	91275000 	add	x0, x0, #0x9d4
    25e8:	94005a72 	bl	18fb0 <printf>
    25ec:	f00000e0 	adrp	x0, 21000 <__compound_literal.0+0x7cc>
    25f0:	91284000 	add	x0, x0, #0xa10
    25f4:	94005aa2 	bl	1907c <puts>
    25f8:	52800000 	mov	w0, #0x0                   	// #0
    25fc:	94005e6f 	bl	19fb8 <TEE_Panic>
/home/lagadanu/Desktop/qemu/out-br/build/optee_test-1.0/ta/os_test/tb_addsub.c:92 (discriminator 6)
    2600:	aa1b03e0 	mov	x0, x27
    2604:	94005e66 	bl	19f9c <TEE_Free>
    2608:	aa1403e2 	mov	x2, x20
    260c:	aa1303e1 	mov	x1, x19
    2610:	aa1303e0 	mov	x0, x19
    2614:	94005bde 	bl	1958c <TEE_BigIntSub>
    2618:	aa1403e2 	mov	x2, x20
    261c:	aa1303e1 	mov	x1, x19
    2620:	aa1403e0 	mov	x0, x20
    2624:	94005bd7 	bl	19580 <TEE_BigIntAdd>
    2628:	aa1403e2 	mov	x2, x20
    262c:	52800201 	mov	w1, #0x10                  	// #16
    2630:	d2800000 	mov	x0, #0x0                   	// #0
    2634:	91043edc 	add	x28, x22, #0x10f
    2638:	9400533b 	bl	17324 <TEE_BigIntConvertToString>
    263c:	aa0003fb 	mov	x27, x0
    2640:	aa1c03e1 	mov	x1, x28
    2644:	940033c7 	bl	f560 <my_strcmp>
    2648:	340002c0 	cbz	w0, 26a0 <tb_addsub+0x620>
/home/lagadanu/Desktop/qemu/out-br/build/optee_test-1.0/ta/os_test/tb_addsub.c:92 (discriminator 7)
    264c:	b00000fa 	adrp	x26, 1f000 <malloc_add_pool+0xe0>
    2650:	911a435a 	add	x26, x26, #0x690
    2654:	aa1c03e6 	mov	x6, x28
    2658:	aa1b03e5 	mov	x5, x27
    265c:	52800023 	mov	w3, #0x1                   	// #1
    2660:	52800022 	mov	w2, #0x1                   	// #1
    2664:	52800b81 	mov	w1, #0x5c                  	// #92
    2668:	aa1a03e0 	mov	x0, x26
    266c:	f00000e4 	adrp	x4, 21000 <__compound_literal.0+0x7cc>
    2670:	9126e484 	add	x4, x4, #0x9b9
    2674:	94005438 	bl	17754 <trace_printf>
    2678:	aa1a03e2 	mov	x2, x26
    267c:	52800b81 	mov	w1, #0x5c                  	// #92
    2680:	f00000e0 	adrp	x0, 21000 <__compound_literal.0+0x7cc>
    2684:	91275000 	add	x0, x0, #0x9d4
    2688:	94005a4a 	bl	18fb0 <printf>
    268c:	f00000e0 	adrp	x0, 21000 <__compound_literal.0+0x7cc>
    2690:	91284000 	add	x0, x0, #0xa10
    2694:	94005a7a 	bl	1907c <puts>
    2698:	52800000 	mov	w0, #0x0                   	// #0
    269c:	94005e47 	bl	19fb8 <TEE_Panic>
/home/lagadanu/Desktop/qemu/out-br/build/optee_test-1.0/ta/os_test/tb_addsub.c:92 (discriminator 9)
    26a0:	aa1b03e0 	mov	x0, x27
    26a4:	94005e3e 	bl	19f9c <TEE_Free>
/home/lagadanu/Desktop/qemu/out-br/build/optee_test-1.0/ta/os_test/tb_addsub.c:93 (discriminator 9)
    26a8:	91043ec1 	add	x1, x22, #0x10f
    26ac:	aa1303e0 	mov	x0, x19
    26b0:	9400531c 	bl	17320 <TEE_BigIntConvertFromString>
    26b4:	9128eefb 	add	x27, x23, #0xa3b
    26b8:	91048701 	add	x1, x24, #0x121
    26bc:	aa1403e0 	mov	x0, x20
    26c0:	94005318 	bl	17320 <TEE_BigIntConvertFromString>
    26c4:	aa1403e2 	mov	x2, x20
    26c8:	aa1303e1 	mov	x1, x19
    26cc:	aa1503e0 	mov	x0, x21
    26d0:	94005baf 	bl	1958c <TEE_BigIntSub>
    26d4:	aa1503e2 	mov	x2, x21
    26d8:	52800201 	mov	w1, #0x10                  	// #16
    26dc:	d2800000 	mov	x0, #0x0                   	// #0
    26e0:	94005311 	bl	17324 <TEE_BigIntConvertToString>
    26e4:	aa1b03e1 	mov	x1, x27
    26e8:	aa0003fa 	mov	x26, x0
    26ec:	9400339d 	bl	f560 <my_strcmp>
    26f0:	340002c0 	cbz	w0, 2748 <tb_addsub+0x6c8>
/home/lagadanu/Desktop/qemu/out-br/build/optee_test-1.0/ta/os_test/tb_addsub.c:93 (discriminator 1)
    26f4:	b00000f8 	adrp	x24, 1f000 <malloc_add_pool+0xe0>
    26f8:	911a4318 	add	x24, x24, #0x690
    26fc:	aa1b03e6 	mov	x6, x27
    2700:	aa1a03e5 	mov	x5, x26
    2704:	52800023 	mov	w3, #0x1                   	// #1
    2708:	52800022 	mov	w2, #0x1                   	// #1
    270c:	52800ba1 	mov	w1, #0x5d                  	// #93
    2710:	aa1803e0 	mov	x0, x24
    2714:	f00000e4 	adrp	x4, 21000 <__compound_literal.0+0x7cc>
    2718:	9126e484 	add	x4, x4, #0x9b9
    271c:	9400540e 	bl	17754 <trace_printf>
    2720:	aa1803e2 	mov	x2, x24
    2724:	52800ba1 	mov	w1, #0x5d                  	// #93
    2728:	f00000e0 	adrp	x0, 21000 <__compound_literal.0+0x7cc>
    272c:	91275000 	add	x0, x0, #0x9d4
    2730:	94005a20 	bl	18fb0 <printf>
    2734:	f00000e0 	adrp	x0, 21000 <__compound_literal.0+0x7cc>
    2738:	91284000 	add	x0, x0, #0xa10
    273c:	94005a50 	bl	1907c <puts>
    2740:	52800000 	mov	w0, #0x0                   	// #0
    2744:	94005e1d 	bl	19fb8 <TEE_Panic>
/home/lagadanu/Desktop/qemu/out-br/build/optee_test-1.0/ta/os_test/tb_addsub.c:93 (discriminator 3)
    2748:	aa1a03e0 	mov	x0, x26
    274c:	94005e14 	bl	19f9c <TEE_Free>
    2750:	aa1403e2 	mov	x2, x20
    2754:	aa1303e1 	mov	x1, x19
    2758:	aa1303e0 	mov	x0, x19
    275c:	94005b8c 	bl	1958c <TEE_BigIntSub>
    2760:	aa1303e2 	mov	x2, x19
    2764:	52800201 	mov	w1, #0x10                  	// #16
    2768:	d2800000 	mov	x0, #0x0                   	// #0
    276c:	9128eefb 	add	x27, x23, #0xa3b
    2770:	940052ed 	bl	17324 <TEE_BigIntConvertToString>
    2774:	aa0003fa 	mov	x26, x0
    2778:	aa1b03e1 	mov	x1, x27
    277c:	94003379 	bl	f560 <my_strcmp>
    2780:	340002c0 	cbz	w0, 27d8 <tb_addsub+0x758>
/home/lagadanu/Desktop/qemu/out-br/build/optee_test-1.0/ta/os_test/tb_addsub.c:93 (discriminator 4)
    2784:	b00000f8 	adrp	x24, 1f000 <malloc_add_pool+0xe0>
    2788:	911a4318 	add	x24, x24, #0x690
    278c:	aa1b03e6 	mov	x6, x27
    2790:	aa1a03e5 	mov	x5, x26
    2794:	52800023 	mov	w3, #0x1                   	// #1
    2798:	52800022 	mov	w2, #0x1                   	// #1
    279c:	52800ba1 	mov	w1, #0x5d                  	// #93
    27a0:	aa1803e0 	mov	x0, x24
    27a4:	f00000e4 	adrp	x4, 21000 <__compound_literal.0+0x7cc>
    27a8:	9126e484 	add	x4, x4, #0x9b9
    27ac:	940053ea 	bl	17754 <trace_printf>
    27b0:	aa1803e2 	mov	x2, x24
    27b4:	52800ba1 	mov	w1, #0x5d                  	// #93
    27b8:	f00000e0 	adrp	x0, 21000 <__compound_literal.0+0x7cc>
    27bc:	91275000 	add	x0, x0, #0x9d4
    27c0:	940059fc 	bl	18fb0 <printf>
    27c4:	f00000e0 	adrp	x0, 21000 <__compound_literal.0+0x7cc>
    27c8:	91284000 	add	x0, x0, #0xa10
    27cc:	94005a2c 	bl	1907c <puts>
    27d0:	52800000 	mov	w0, #0x0                   	// #0
    27d4:	94005df9 	bl	19fb8 <TEE_Panic>
/home/lagadanu/Desktop/qemu/out-br/build/optee_test-1.0/ta/os_test/tb_addsub.c:93 (discriminator 6)
    27d8:	aa1a03e0 	mov	x0, x26
    27dc:	94005df0 	bl	19f9c <TEE_Free>
    27e0:	aa1403e2 	mov	x2, x20
    27e4:	aa1303e1 	mov	x1, x19
    27e8:	aa1303e0 	mov	x0, x19
    27ec:	94005b65 	bl	19580 <TEE_BigIntAdd>
    27f0:	aa1403e2 	mov	x2, x20
    27f4:	aa1303e1 	mov	x1, x19
    27f8:	aa1403e0 	mov	x0, x20
    27fc:	94005b64 	bl	1958c <TEE_BigIntSub>
    2800:	aa1403e2 	mov	x2, x20
    2804:	52800201 	mov	w1, #0x10                  	// #16
    2808:	d2800000 	mov	x0, #0x0                   	// #0
    280c:	9128eef7 	add	x23, x23, #0xa3b
    2810:	940052c5 	bl	17324 <TEE_BigIntConvertToString>
    2814:	aa0003fa 	mov	x26, x0
    2818:	aa1703e1 	mov	x1, x23
    281c:	94003351 	bl	f560 <my_strcmp>
    2820:	340002c0 	cbz	w0, 2878 <tb_addsub+0x7f8>
/home/lagadanu/Desktop/qemu/out-br/build/optee_test-1.0/ta/os_test/tb_addsub.c:93 (discriminator 7)
    2824:	b00000f8 	adrp	x24, 1f000 <malloc_add_pool+0xe0>
    2828:	911a4318 	add	x24, x24, #0x690
    282c:	aa1703e6 	mov	x6, x23
    2830:	aa1a03e5 	mov	x5, x26
    2834:	52800023 	mov	w3, #0x1                   	// #1
    2838:	52800022 	mov	w2, #0x1                   	// #1
    283c:	52800ba1 	mov	w1, #0x5d                  	// #93
    2840:	aa1803e0 	mov	x0, x24
    2844:	f00000e4 	adrp	x4, 21000 <__compound_literal.0+0x7cc>
    2848:	9126e484 	add	x4, x4, #0x9b9
    284c:	940053c2 	bl	17754 <trace_printf>
    2850:	aa1803e2 	mov	x2, x24
    2854:	52800ba1 	mov	w1, #0x5d                  	// #93
    2858:	f00000e0 	adrp	x0, 21000 <__compound_literal.0+0x7cc>
    285c:	91275000 	add	x0, x0, #0x9d4
    2860:	940059d4 	bl	18fb0 <printf>
    2864:	f00000e0 	adrp	x0, 21000 <__compound_literal.0+0x7cc>
    2868:	91284000 	add	x0, x0, #0xa10
    286c:	94005a04 	bl	1907c <puts>
    2870:	52800000 	mov	w0, #0x0                   	// #0
    2874:	94005dd1 	bl	19fb8 <TEE_Panic>
/home/lagadanu/Desktop/qemu/out-br/build/optee_test-1.0/ta/os_test/tb_addsub.c:93 (discriminator 9)
    2878:	aa1a03e0 	mov	x0, x26
/home/lagadanu/Desktop/qemu/out-br/build/optee_test-1.0/ta/os_test/tb_addsub.c:94 (discriminator 9)
    287c:	91043ed8 	add	x24, x22, #0x10f
/home/lagadanu/Desktop/qemu/out-br/build/optee_test-1.0/ta/os_test/tb_addsub.c:93 (discriminator 9)
    2880:	94005dc7 	bl	19f9c <TEE_Free>
/home/lagadanu/Desktop/qemu/out-br/build/optee_test-1.0/ta/os_test/tb_addsub.c:94 (discriminator 9)
    2884:	aa1803e1 	mov	x1, x24
    2888:	aa1303e0 	mov	x0, x19
    288c:	940052a5 	bl	17320 <TEE_BigIntConvertFromString>
    2890:	aa1803e1 	mov	x1, x24
    2894:	aa1403e0 	mov	x0, x20
    2898:	940052a2 	bl	17320 <TEE_BigIntConvertFromString>
    289c:	aa1403e2 	mov	x2, x20
    28a0:	aa1303e1 	mov	x1, x19
    28a4:	aa1503e0 	mov	x0, x21
    28a8:	94005b36 	bl	19580 <TEE_BigIntAdd>
    28ac:	aa1503e2 	mov	x2, x21
    28b0:	52800201 	mov	w1, #0x10                  	// #16
    28b4:	d2800000 	mov	x0, #0x0                   	// #0
    28b8:	9400529b 	bl	17324 <TEE_BigIntConvertToString>
    28bc:	aa1803e1 	mov	x1, x24
    28c0:	aa0003fa 	mov	x26, x0
    28c4:	94003327 	bl	f560 <my_strcmp>
    28c8:	340002c0 	cbz	w0, 2920 <tb_addsub+0x8a0>
/home/lagadanu/Desktop/qemu/out-br/build/optee_test-1.0/ta/os_test/tb_addsub.c:94 (discriminator 1)
    28cc:	b00000f7 	adrp	x23, 1f000 <malloc_add_pool+0xe0>
    28d0:	911a42f7 	add	x23, x23, #0x690
    28d4:	aa1803e6 	mov	x6, x24
    28d8:	aa1a03e5 	mov	x5, x26
    28dc:	52800023 	mov	w3, #0x1                   	// #1
    28e0:	52800022 	mov	w2, #0x1                   	// #1
    28e4:	52800bc1 	mov	w1, #0x5e                  	// #94
    28e8:	aa1703e0 	mov	x0, x23
    28ec:	f00000e4 	adrp	x4, 21000 <__compound_literal.0+0x7cc>
    28f0:	9126e484 	add	x4, x4, #0x9b9
    28f4:	94005398 	bl	17754 <trace_printf>
    28f8:	aa1703e2 	mov	x2, x23
    28fc:	52800bc1 	mov	w1, #0x5e                  	// #94
    2900:	f00000e0 	adrp	x0, 21000 <__compound_literal.0+0x7cc>
    2904:	91275000 	add	x0, x0, #0x9d4
    2908:	940059aa 	bl	18fb0 <printf>
    290c:	f00000e0 	adrp	x0, 21000 <__compound_literal.0+0x7cc>
    2910:	91284000 	add	x0, x0, #0xa10
    2914:	940059da 	bl	1907c <puts>
    2918:	52800000 	mov	w0, #0x0                   	// #0
    291c:	94005da7 	bl	19fb8 <TEE_Panic>
/home/lagadanu/Desktop/qemu/out-br/build/optee_test-1.0/ta/os_test/tb_addsub.c:94 (discriminator 3)
    2920:	aa1a03e0 	mov	x0, x26
    2924:	94005d9e 	bl	19f9c <TEE_Free>
    2928:	aa1403e2 	mov	x2, x20
    292c:	aa1303e1 	mov	x1, x19
    2930:	aa1303e0 	mov	x0, x19
    2934:	94005b13 	bl	19580 <TEE_BigIntAdd>
    2938:	aa1303e2 	mov	x2, x19
    293c:	52800201 	mov	w1, #0x10                  	// #16
    2940:	d2800000 	mov	x0, #0x0                   	// #0
    2944:	91043eda 	add	x26, x22, #0x10f
    2948:	94005277 	bl	17324 <TEE_BigIntConvertToString>
    294c:	aa0003f8 	mov	x24, x0
    2950:	aa1a03e1 	mov	x1, x26
    2954:	94003303 	bl	f560 <my_strcmp>
    2958:	340002c0 	cbz	w0, 29b0 <tb_addsub+0x930>
/home/lagadanu/Desktop/qemu/out-br/build/optee_test-1.0/ta/os_test/tb_addsub.c:94 (discriminator 4)
    295c:	b00000f7 	adrp	x23, 1f000 <malloc_add_pool+0xe0>
    2960:	911a42f7 	add	x23, x23, #0x690
    2964:	aa1a03e6 	mov	x6, x26
    2968:	aa1803e5 	mov	x5, x24
    296c:	52800023 	mov	w3, #0x1                   	// #1
    2970:	52800022 	mov	w2, #0x1                   	// #1
    2974:	52800bc1 	mov	w1, #0x5e                  	// #94
    2978:	aa1703e0 	mov	x0, x23
    297c:	f00000e4 	adrp	x4, 21000 <__compound_literal.0+0x7cc>
    2980:	9126e484 	add	x4, x4, #0x9b9
    2984:	94005374 	bl	17754 <trace_printf>
    2988:	aa1703e2 	mov	x2, x23
    298c:	52800bc1 	mov	w1, #0x5e                  	// #94
    2990:	f00000e0 	adrp	x0, 21000 <__compound_literal.0+0x7cc>
    2994:	91275000 	add	x0, x0, #0x9d4
    2998:	94005986 	bl	18fb0 <printf>
    299c:	f00000e0 	adrp	x0, 21000 <__compound_literal.0+0x7cc>
    29a0:	91284000 	add	x0, x0, #0xa10
    29a4:	940059b6 	bl	1907c <puts>
    29a8:	52800000 	mov	w0, #0x0                   	// #0
    29ac:	94005d83 	bl	19fb8 <TEE_Panic>
/home/lagadanu/Desktop/qemu/out-br/build/optee_test-1.0/ta/os_test/tb_addsub.c:94 (discriminator 6)
    29b0:	aa1803e0 	mov	x0, x24
    29b4:	94005d7a 	bl	19f9c <TEE_Free>
    29b8:	aa1403e2 	mov	x2, x20
    29bc:	aa1303e1 	mov	x1, x19
    29c0:	aa1303e0 	mov	x0, x19
    29c4:	94005af2 	bl	1958c <TEE_BigIntSub>
    29c8:	aa1403e2 	mov	x2, x20
    29cc:	aa1303e1 	mov	x1, x19
    29d0:	aa1403e0 	mov	x0, x20
    29d4:	94005aeb 	bl	19580 <TEE_BigIntAdd>
    29d8:	aa1403e2 	mov	x2, x20
    29dc:	52800201 	mov	w1, #0x10                  	// #16
    29e0:	d2800000 	mov	x0, #0x0                   	// #0
    29e4:	91043eda 	add	x26, x22, #0x10f
    29e8:	9400524f 	bl	17324 <TEE_BigIntConvertToString>
    29ec:	aa0003f8 	mov	x24, x0
    29f0:	aa1a03e1 	mov	x1, x26
    29f4:	940032db 	bl	f560 <my_strcmp>
    29f8:	340002c0 	cbz	w0, 2a50 <tb_addsub+0x9d0>
/home/lagadanu/Desktop/qemu/out-br/build/optee_test-1.0/ta/os_test/tb_addsub.c:94 (discriminator 7)
    29fc:	b00000f7 	adrp	x23, 1f000 <malloc_add_pool+0xe0>
    2a00:	911a42f7 	add	x23, x23, #0x690
    2a04:	aa1a03e6 	mov	x6, x26
    2a08:	aa1803e5 	mov	x5, x24
    2a0c:	52800023 	mov	w3, #0x1                   	// #1
    2a10:	52800022 	mov	w2, #0x1                   	// #1
    2a14:	52800bc1 	mov	w1, #0x5e                  	// #94
    2a18:	aa1703e0 	mov	x0, x23
    2a1c:	f00000e4 	adrp	x4, 21000 <__compound_literal.0+0x7cc>
    2a20:	9126e484 	add	x4, x4, #0x9b9
    2a24:	9400534c 	bl	17754 <trace_printf>
    2a28:	aa1703e2 	mov	x2, x23
    2a2c:	52800bc1 	mov	w1, #0x5e                  	// #94
    2a30:	f00000e0 	adrp	x0, 21000 <__compound_literal.0+0x7cc>
    2a34:	91275000 	add	x0, x0, #0x9d4
    2a38:	9400595e 	bl	18fb0 <printf>
    2a3c:	f00000e0 	adrp	x0, 21000 <__compound_literal.0+0x7cc>
    2a40:	91284000 	add	x0, x0, #0xa10
    2a44:	9400598e 	bl	1907c <puts>
    2a48:	52800000 	mov	w0, #0x0                   	// #0
    2a4c:	94005d5b 	bl	19fb8 <TEE_Panic>
/home/lagadanu/Desktop/qemu/out-br/build/optee_test-1.0/ta/os_test/tb_addsub.c:94 (discriminator 9)
    2a50:	aa1803e0 	mov	x0, x24
/home/lagadanu/Desktop/qemu/out-br/build/optee_test-1.0/ta/os_test/tb_addsub.c:95 (discriminator 9)
    2a54:	91043ed8 	add	x24, x22, #0x10f
/home/lagadanu/Desktop/qemu/out-br/build/optee_test-1.0/ta/os_test/tb_addsub.c:94 (discriminator 9)
    2a58:	94005d51 	bl	19f9c <TEE_Free>
/home/lagadanu/Desktop/qemu/out-br/build/optee_test-1.0/ta/os_test/tb_addsub.c:95 (discriminator 9)
    2a5c:	aa1803e1 	mov	x1, x24
    2a60:	aa1303e0 	mov	x0, x19
    2a64:	9400522f 	bl	17320 <TEE_BigIntConvertFromString>
    2a68:	aa1803e1 	mov	x1, x24
    2a6c:	aa1403e0 	mov	x0, x20
    2a70:	9400522c 	bl	17320 <TEE_BigIntConvertFromString>
    2a74:	aa1403e2 	mov	x2, x20
    2a78:	aa1303e1 	mov	x1, x19
    2a7c:	aa1503e0 	mov	x0, x21
    2a80:	94005ac3 	bl	1958c <TEE_BigIntSub>
    2a84:	aa1503e2 	mov	x2, x21
    2a88:	52800201 	mov	w1, #0x10                  	// #16
    2a8c:	d2800000 	mov	x0, #0x0                   	// #0
    2a90:	94005225 	bl	17324 <TEE_BigIntConvertToString>
    2a94:	aa1803e1 	mov	x1, x24
    2a98:	aa0003fa 	mov	x26, x0
    2a9c:	940032b1 	bl	f560 <my_strcmp>
    2aa0:	340002c0 	cbz	w0, 2af8 <tb_addsub+0xa78>
/home/lagadanu/Desktop/qemu/out-br/build/optee_test-1.0/ta/os_test/tb_addsub.c:95 (discriminator 1)
    2aa4:	b00000f7 	adrp	x23, 1f000 <malloc_add_pool+0xe0>
    2aa8:	911a42f7 	add	x23, x23, #0x690
    2aac:	aa1803e6 	mov	x6, x24
    2ab0:	aa1a03e5 	mov	x5, x26
    2ab4:	52800023 	mov	w3, #0x1                   	// #1
    2ab8:	52800022 	mov	w2, #0x1                   	// #1
    2abc:	52800be1 	mov	w1, #0x5f                  	// #95
    2ac0:	aa1703e0 	mov	x0, x23
    2ac4:	f00000e4 	adrp	x4, 21000 <__compound_literal.0+0x7cc>
    2ac8:	9126e484 	add	x4, x4, #0x9b9
    2acc:	94005322 	bl	17754 <trace_printf>
    2ad0:	aa1703e2 	mov	x2, x23
    2ad4:	52800be1 	mov	w1, #0x5f                  	// #95
    2ad8:	f00000e0 	adrp	x0, 21000 <__compound_literal.0+0x7cc>
    2adc:	91275000 	add	x0, x0, #0x9d4
    2ae0:	94005934 	bl	18fb0 <printf>
    2ae4:	f00000e0 	adrp	x0, 21000 <__compound_literal.0+0x7cc>
    2ae8:	91284000 	add	x0, x0, #0xa10
    2aec:	94005964 	bl	1907c <puts>
    2af0:	52800000 	mov	w0, #0x0                   	// #0
    2af4:	94005d31 	bl	19fb8 <TEE_Panic>
/home/lagadanu/Desktop/qemu/out-br/build/optee_test-1.0/ta/os_test/tb_addsub.c:95 (discriminator 3)
    2af8:	aa1a03e0 	mov	x0, x26
    2afc:	94005d28 	bl	19f9c <TEE_Free>
    2b00:	aa1403e2 	mov	x2, x20
    2b04:	aa1303e1 	mov	x1, x19
    2b08:	aa1303e0 	mov	x0, x19
    2b0c:	94005aa0 	bl	1958c <TEE_BigIntSub>
    2b10:	aa1303e2 	mov	x2, x19
    2b14:	52800201 	mov	w1, #0x10                  	// #16
    2b18:	d2800000 	mov	x0, #0x0                   	// #0
    2b1c:	91043eda 	add	x26, x22, #0x10f
    2b20:	94005201 	bl	17324 <TEE_BigIntConvertToString>
    2b24:	aa0003f8 	mov	x24, x0
    2b28:	aa1a03e1 	mov	x1, x26
    2b2c:	9400328d 	bl	f560 <my_strcmp>
    2b30:	340002c0 	cbz	w0, 2b88 <tb_addsub+0xb08>
/home/lagadanu/Desktop/qemu/out-br/build/optee_test-1.0/ta/os_test/tb_addsub.c:95 (discriminator 4)
    2b34:	b00000f7 	adrp	x23, 1f000 <malloc_add_pool+0xe0>
    2b38:	911a42f7 	add	x23, x23, #0x690
    2b3c:	aa1a03e6 	mov	x6, x26
    2b40:	aa1803e5 	mov	x5, x24
    2b44:	52800023 	mov	w3, #0x1                   	// #1
    2b48:	52800022 	mov	w2, #0x1                   	// #1
    2b4c:	52800be1 	mov	w1, #0x5f                  	// #95
    2b50:	aa1703e0 	mov	x0, x23
    2b54:	f00000e4 	adrp	x4, 21000 <__compound_literal.0+0x7cc>
    2b58:	9126e484 	add	x4, x4, #0x9b9
    2b5c:	940052fe 	bl	17754 <trace_printf>
    2b60:	aa1703e2 	mov	x2, x23
    2b64:	52800be1 	mov	w1, #0x5f                  	// #95
    2b68:	f00000e0 	adrp	x0, 21000 <__compound_literal.0+0x7cc>
    2b6c:	91275000 	add	x0, x0, #0x9d4
    2b70:	94005910 	bl	18fb0 <printf>
    2b74:	f00000e0 	adrp	x0, 21000 <__compound_literal.0+0x7cc>
    2b78:	91284000 	add	x0, x0, #0xa10
    2b7c:	94005940 	bl	1907c <puts>
    2b80:	52800000 	mov	w0, #0x0                   	// #0
    2b84:	94005d0d 	bl	19fb8 <TEE_Panic>
/home/lagadanu/Desktop/qemu/out-br/build/optee_test-1.0/ta/os_test/tb_addsub.c:95 (discriminator 6)
    2b88:	aa1803e0 	mov	x0, x24
    2b8c:	94005d04 	bl	19f9c <TEE_Free>
    2b90:	aa1403e2 	mov	x2, x20
    2b94:	aa1303e1 	mov	x1, x19
    2b98:	aa1303e0 	mov	x0, x19
    2b9c:	94005a79 	bl	19580 <TEE_BigIntAdd>
    2ba0:	aa1403e2 	mov	x2, x20
    2ba4:	aa1303e1 	mov	x1, x19
    2ba8:	aa1403e0 	mov	x0, x20
    2bac:	94005a78 	bl	1958c <TEE_BigIntSub>
    2bb0:	aa1403e2 	mov	x2, x20
    2bb4:	52800201 	mov	w1, #0x10                  	// #16
    2bb8:	d2800000 	mov	x0, #0x0                   	// #0
    2bbc:	91043eda 	add	x26, x22, #0x10f
    2bc0:	940051d9 	bl	17324 <TEE_BigIntConvertToString>
    2bc4:	aa0003f8 	mov	x24, x0
    2bc8:	aa1a03e1 	mov	x1, x26
    2bcc:	94003265 	bl	f560 <my_strcmp>
    2bd0:	340002c0 	cbz	w0, 2c28 <tb_addsub+0xba8>
/home/lagadanu/Desktop/qemu/out-br/build/optee_test-1.0/ta/os_test/tb_addsub.c:95 (discriminator 7)
    2bd4:	b00000f7 	adrp	x23, 1f000 <malloc_add_pool+0xe0>
    2bd8:	911a42f7 	add	x23, x23, #0x690
    2bdc:	aa1a03e6 	mov	x6, x26
    2be0:	aa1803e5 	mov	x5, x24
    2be4:	52800023 	mov	w3, #0x1                   	// #1
    2be8:	52800022 	mov	w2, #0x1                   	// #1
    2bec:	52800be1 	mov	w1, #0x5f                  	// #95
    2bf0:	aa1703e0 	mov	x0, x23
    2bf4:	f00000e4 	adrp	x4, 21000 <__compound_literal.0+0x7cc>
    2bf8:	9126e484 	add	x4, x4, #0x9b9
    2bfc:	940052d6 	bl	17754 <trace_printf>
    2c00:	aa1703e2 	mov	x2, x23
    2c04:	52800be1 	mov	w1, #0x5f                  	// #95
    2c08:	f00000e0 	adrp	x0, 21000 <__compound_literal.0+0x7cc>
    2c0c:	91275000 	add	x0, x0, #0x9d4
    2c10:	940058e8 	bl	18fb0 <printf>
    2c14:	f00000e0 	adrp	x0, 21000 <__compound_literal.0+0x7cc>
    2c18:	91284000 	add	x0, x0, #0xa10
    2c1c:	94005918 	bl	1907c <puts>
    2c20:	52800000 	mov	w0, #0x0                   	// #0
    2c24:	94005ce5 	bl	19fb8 <TEE_Panic>
/home/lagadanu/Desktop/qemu/out-br/build/optee_test-1.0/ta/os_test/tb_addsub.c:95 (discriminator 9)
    2c28:	aa1803e0 	mov	x0, x24
    2c2c:	94005cdc 	bl	19f9c <TEE_Free>
/home/lagadanu/Desktop/qemu/out-br/build/optee_test-1.0/ta/os_test/tb_addsub.c:96 (discriminator 9)
    2c30:	91043ec1 	add	x1, x22, #0x10f
    2c34:	aa1303e0 	mov	x0, x19
    2c38:	f00000f7 	adrp	x23, 21000 <__compound_literal.0+0x7cc>
    2c3c:	940051b9 	bl	17320 <TEE_BigIntConvertFromString>
    2c40:	9128fafa 	add	x26, x23, #0xa3e
    2c44:	aa1403e0 	mov	x0, x20
    2c48:	aa1a03e1 	mov	x1, x26
    2c4c:	940051b5 	bl	17320 <TEE_BigIntConvertFromString>
    2c50:	aa1403e2 	mov	x2, x20
    2c54:	aa1303e1 	mov	x1, x19
    2c58:	aa1503e0 	mov	x0, x21
    2c5c:	94005a49 	bl	19580 <TEE_BigIntAdd>
    2c60:	aa1503e2 	mov	x2, x21
    2c64:	52800201 	mov	w1, #0x10                  	// #16
    2c68:	d2800000 	mov	x0, #0x0                   	// #0
    2c6c:	940051ae 	bl	17324 <TEE_BigIntConvertToString>
    2c70:	aa1a03e1 	mov	x1, x26
    2c74:	aa0003fb 	mov	x27, x0
    2c78:	9400323a 	bl	f560 <my_strcmp>
    2c7c:	340002c0 	cbz	w0, 2cd4 <tb_addsub+0xc54>
/home/lagadanu/Desktop/qemu/out-br/build/optee_test-1.0/ta/os_test/tb_addsub.c:96 (discriminator 1)
    2c80:	b00000f8 	adrp	x24, 1f000 <malloc_add_pool+0xe0>
    2c84:	911a4318 	add	x24, x24, #0x690
    2c88:	aa1a03e6 	mov	x6, x26
    2c8c:	aa1b03e5 	mov	x5, x27
    2c90:	52800023 	mov	w3, #0x1                   	// #1
    2c94:	52800022 	mov	w2, #0x1                   	// #1
    2c98:	52800c21 	mov	w1, #0x61                  	// #97
    2c9c:	aa1803e0 	mov	x0, x24
    2ca0:	f00000e4 	adrp	x4, 21000 <__compound_literal.0+0x7cc>
    2ca4:	9126e484 	add	x4, x4, #0x9b9
    2ca8:	940052ab 	bl	17754 <trace_printf>
    2cac:	aa1803e2 	mov	x2, x24
    2cb0:	52800c21 	mov	w1, #0x61                  	// #97
    2cb4:	f00000e0 	adrp	x0, 21000 <__compound_literal.0+0x7cc>
    2cb8:	91275000 	add	x0, x0, #0x9d4
    2cbc:	940058bd 	bl	18fb0 <printf>
    2cc0:	f00000e0 	adrp	x0, 21000 <__compound_literal.0+0x7cc>
    2cc4:	91284000 	add	x0, x0, #0xa10
    2cc8:	940058ed 	bl	1907c <puts>
    2ccc:	52800000 	mov	w0, #0x0                   	// #0
    2cd0:	94005cba 	bl	19fb8 <TEE_Panic>
/home/lagadanu/Desktop/qemu/out-br/build/optee_test-1.0/ta/os_test/tb_addsub.c:96 (discriminator 3)
    2cd4:	aa1b03e0 	mov	x0, x27
    2cd8:	94005cb1 	bl	19f9c <TEE_Free>
    2cdc:	aa1403e2 	mov	x2, x20
    2ce0:	aa1303e1 	mov	x1, x19
    2ce4:	aa1303e0 	mov	x0, x19
    2ce8:	94005a26 	bl	19580 <TEE_BigIntAdd>
    2cec:	aa1303e2 	mov	x2, x19
    2cf0:	52800201 	mov	w1, #0x10                  	// #16
    2cf4:	d2800000 	mov	x0, #0x0                   	// #0
    2cf8:	9128fafb 	add	x27, x23, #0xa3e
    2cfc:	9400518a 	bl	17324 <TEE_BigIntConvertToString>
    2d00:	aa0003fa 	mov	x26, x0
    2d04:	aa1b03e1 	mov	x1, x27
    2d08:	94003216 	bl	f560 <my_strcmp>
    2d0c:	340002c0 	cbz	w0, 2d64 <tb_addsub+0xce4>
/home/lagadanu/Desktop/qemu/out-br/build/optee_test-1.0/ta/os_test/tb_addsub.c:96 (discriminator 4)
    2d10:	b00000f8 	adrp	x24, 1f000 <malloc_add_pool+0xe0>
    2d14:	911a4318 	add	x24, x24, #0x690
    2d18:	aa1b03e6 	mov	x6, x27
    2d1c:	aa1a03e5 	mov	x5, x26
    2d20:	52800023 	mov	w3, #0x1                   	// #1
    2d24:	52800022 	mov	w2, #0x1                   	// #1
    2d28:	52800c21 	mov	w1, #0x61                  	// #97
    2d2c:	aa1803e0 	mov	x0, x24
    2d30:	f00000e4 	adrp	x4, 21000 <__compound_literal.0+0x7cc>
    2d34:	9126e484 	add	x4, x4, #0x9b9
    2d38:	94005287 	bl	17754 <trace_printf>
    2d3c:	aa1803e2 	mov	x2, x24
    2d40:	52800c21 	mov	w1, #0x61                  	// #97
    2d44:	f00000e0 	adrp	x0, 21000 <__compound_literal.0+0x7cc>
    2d48:	91275000 	add	x0, x0, #0x9d4
    2d4c:	94005899 	bl	18fb0 <printf>
    2d50:	f00000e0 	adrp	x0, 21000 <__compound_literal.0+0x7cc>
    2d54:	91284000 	add	x0, x0, #0xa10
    2d58:	940058c9 	bl	1907c <puts>
    2d5c:	52800000 	mov	w0, #0x0                   	// #0
    2d60:	94005c96 	bl	19fb8 <TEE_Panic>
/home/lagadanu/Desktop/qemu/out-br/build/optee_test-1.0/ta/os_test/tb_addsub.c:96 (discriminator 6)
    2d64:	aa1a03e0 	mov	x0, x26
    2d68:	94005c8d 	bl	19f9c <TEE_Free>
    2d6c:	aa1403e2 	mov	x2, x20
    2d70:	aa1303e1 	mov	x1, x19
    2d74:	aa1303e0 	mov	x0, x19
    2d78:	94005a05 	bl	1958c <TEE_BigIntSub>
    2d7c:	aa1403e2 	mov	x2, x20
    2d80:	aa1303e1 	mov	x1, x19
    2d84:	aa1403e0 	mov	x0, x20
    2d88:	940059fe 	bl	19580 <TEE_BigIntAdd>
    2d8c:	aa1403e2 	mov	x2, x20
    2d90:	52800201 	mov	w1, #0x10                  	// #16
    2d94:	d2800000 	mov	x0, #0x0                   	// #0
    2d98:	9128fafb 	add	x27, x23, #0xa3e
    2d9c:	94005162 	bl	17324 <TEE_BigIntConvertToString>
    2da0:	aa0003fa 	mov	x26, x0
    2da4:	aa1b03e1 	mov	x1, x27
    2da8:	940031ee 	bl	f560 <my_strcmp>
    2dac:	340002c0 	cbz	w0, 2e04 <tb_addsub+0xd84>
/home/lagadanu/Desktop/qemu/out-br/build/optee_test-1.0/ta/os_test/tb_addsub.c:96 (discriminator 7)
    2db0:	b00000f8 	adrp	x24, 1f000 <malloc_add_pool+0xe0>
    2db4:	911a4318 	add	x24, x24, #0x690
    2db8:	aa1b03e6 	mov	x6, x27
    2dbc:	aa1a03e5 	mov	x5, x26
    2dc0:	52800023 	mov	w3, #0x1                   	// #1
    2dc4:	52800022 	mov	w2, #0x1                   	// #1
    2dc8:	52800c21 	mov	w1, #0x61                  	// #97
    2dcc:	aa1803e0 	mov	x0, x24
    2dd0:	f00000e4 	adrp	x4, 21000 <__compound_literal.0+0x7cc>
    2dd4:	9126e484 	add	x4, x4, #0x9b9
    2dd8:	9400525f 	bl	17754 <trace_printf>
    2ddc:	aa1803e2 	mov	x2, x24
    2de0:	52800c21 	mov	w1, #0x61                  	// #97
    2de4:	f00000e0 	adrp	x0, 21000 <__compound_literal.0+0x7cc>
    2de8:	91275000 	add	x0, x0, #0x9d4
    2dec:	94005871 	bl	18fb0 <printf>
    2df0:	f00000e0 	adrp	x0, 21000 <__compound_literal.0+0x7cc>
    2df4:	91284000 	add	x0, x0, #0xa10
    2df8:	940058a1 	bl	1907c <puts>
    2dfc:	52800000 	mov	w0, #0x0                   	// #0
    2e00:	94005c6e 	bl	19fb8 <TEE_Panic>
/home/lagadanu/Desktop/qemu/out-br/build/optee_test-1.0/ta/os_test/tb_addsub.c:96 (discriminator 9)
    2e04:	aa1a03e0 	mov	x0, x26
/home/lagadanu/Desktop/qemu/out-br/build/optee_test-1.0/ta/os_test/tb_addsub.c:98 (discriminator 9)
    2e08:	9128faf7 	add	x23, x23, #0xa3e
/home/lagadanu/Desktop/qemu/out-br/build/optee_test-1.0/ta/os_test/tb_addsub.c:96 (discriminator 9)
    2e0c:	94005c64 	bl	19f9c <TEE_Free>
/home/lagadanu/Desktop/qemu/out-br/build/optee_test-1.0/ta/os_test/tb_addsub.c:98 (discriminator 9)
    2e10:	91043eda 	add	x26, x22, #0x10f
    2e14:	aa1703e1 	mov	x1, x23
    2e18:	aa1303e0 	mov	x0, x19
    2e1c:	94005141 	bl	17320 <TEE_BigIntConvertFromString>
    2e20:	aa1703e1 	mov	x1, x23
    2e24:	aa1403e0 	mov	x0, x20
    2e28:	9400513e 	bl	17320 <TEE_BigIntConvertFromString>
    2e2c:	aa1403e2 	mov	x2, x20
    2e30:	aa1303e1 	mov	x1, x19
    2e34:	aa1503e0 	mov	x0, x21
    2e38:	940059d5 	bl	1958c <TEE_BigIntSub>
    2e3c:	aa1503e2 	mov	x2, x21
    2e40:	52800201 	mov	w1, #0x10                  	// #16
    2e44:	d2800000 	mov	x0, #0x0                   	// #0
    2e48:	94005137 	bl	17324 <TEE_BigIntConvertToString>
    2e4c:	aa1a03e1 	mov	x1, x26
    2e50:	aa0003f8 	mov	x24, x0
    2e54:	940031c3 	bl	f560 <my_strcmp>
    2e58:	340002c0 	cbz	w0, 2eb0 <tb_addsub+0xe30>
/home/lagadanu/Desktop/qemu/out-br/build/optee_test-1.0/ta/os_test/tb_addsub.c:98 (discriminator 1)
    2e5c:	b00000f7 	adrp	x23, 1f000 <malloc_add_pool+0xe0>
    2e60:	911a42f7 	add	x23, x23, #0x690
    2e64:	aa1a03e6 	mov	x6, x26
    2e68:	aa1803e5 	mov	x5, x24
    2e6c:	52800023 	mov	w3, #0x1                   	// #1
    2e70:	52800022 	mov	w2, #0x1                   	// #1
    2e74:	52800c61 	mov	w1, #0x63                  	// #99
    2e78:	aa1703e0 	mov	x0, x23
    2e7c:	f00000e4 	adrp	x4, 21000 <__compound_literal.0+0x7cc>
    2e80:	9126e484 	add	x4, x4, #0x9b9
    2e84:	94005234 	bl	17754 <trace_printf>
    2e88:	aa1703e2 	mov	x2, x23
    2e8c:	52800c61 	mov	w1, #0x63                  	// #99
    2e90:	f00000e0 	adrp	x0, 21000 <__compound_literal.0+0x7cc>
    2e94:	91275000 	add	x0, x0, #0x9d4
    2e98:	94005846 	bl	18fb0 <printf>
    2e9c:	f00000e0 	adrp	x0, 21000 <__compound_literal.0+0x7cc>
    2ea0:	91284000 	add	x0, x0, #0xa10
    2ea4:	94005876 	bl	1907c <puts>
    2ea8:	52800000 	mov	w0, #0x0                   	// #0
    2eac:	94005c43 	bl	19fb8 <TEE_Panic>
/home/lagadanu/Desktop/qemu/out-br/build/optee_test-1.0/ta/os_test/tb_addsub.c:98 (discriminator 3)
    2eb0:	aa1803e0 	mov	x0, x24
    2eb4:	94005c3a 	bl	19f9c <TEE_Free>
    2eb8:	aa1403e2 	mov	x2, x20
    2ebc:	aa1303e1 	mov	x1, x19
    2ec0:	aa1303e0 	mov	x0, x19
    2ec4:	940059b2 	bl	1958c <TEE_BigIntSub>
    2ec8:	aa1303e2 	mov	x2, x19
    2ecc:	52800201 	mov	w1, #0x10                  	// #16
    2ed0:	d2800000 	mov	x0, #0x0                   	// #0
    2ed4:	91043eda 	add	x26, x22, #0x10f
    2ed8:	94005113 	bl	17324 <TEE_BigIntConvertToString>
    2edc:	aa0003f8 	mov	x24, x0
    2ee0:	aa1a03e1 	mov	x1, x26
    2ee4:	9400319f 	bl	f560 <my_strcmp>
    2ee8:	340002c0 	cbz	w0, 2f40 <tb_addsub+0xec0>
/home/lagadanu/Desktop/qemu/out-br/build/optee_test-1.0/ta/os_test/tb_addsub.c:98 (discriminator 4)
    2eec:	b00000f7 	adrp	x23, 1f000 <malloc_add_pool+0xe0>
    2ef0:	911a42f7 	add	x23, x23, #0x690
    2ef4:	aa1a03e6 	mov	x6, x26
    2ef8:	aa1803e5 	mov	x5, x24
    2efc:	52800023 	mov	w3, #0x1                   	// #1
    2f00:	52800022 	mov	w2, #0x1                   	// #1
    2f04:	52800c61 	mov	w1, #0x63                  	// #99
    2f08:	aa1703e0 	mov	x0, x23
    2f0c:	f00000e4 	adrp	x4, 21000 <__compound_literal.0+0x7cc>
    2f10:	9126e484 	add	x4, x4, #0x9b9
    2f14:	94005210 	bl	17754 <trace_printf>
    2f18:	aa1703e2 	mov	x2, x23
    2f1c:	52800c61 	mov	w1, #0x63                  	// #99
    2f20:	f00000e0 	adrp	x0, 21000 <__compound_literal.0+0x7cc>
    2f24:	91275000 	add	x0, x0, #0x9d4
    2f28:	94005822 	bl	18fb0 <printf>
    2f2c:	f00000e0 	adrp	x0, 21000 <__compound_literal.0+0x7cc>
    2f30:	91284000 	add	x0, x0, #0xa10
    2f34:	94005852 	bl	1907c <puts>
    2f38:	52800000 	mov	w0, #0x0                   	// #0
    2f3c:	94005c1f 	bl	19fb8 <TEE_Panic>
/home/lagadanu/Desktop/qemu/out-br/build/optee_test-1.0/ta/os_test/tb_addsub.c:98 (discriminator 6)
    2f40:	aa1803e0 	mov	x0, x24
    2f44:	94005c16 	bl	19f9c <TEE_Free>
    2f48:	aa1403e2 	mov	x2, x20
    2f4c:	aa1303e1 	mov	x1, x19
    2f50:	aa1303e0 	mov	x0, x19
    2f54:	9400598b 	bl	19580 <TEE_BigIntAdd>
    2f58:	aa1403e2 	mov	x2, x20
    2f5c:	aa1303e1 	mov	x1, x19
    2f60:	aa1403e0 	mov	x0, x20
    2f64:	9400598a 	bl	1958c <TEE_BigIntSub>
    2f68:	aa1403e2 	mov	x2, x20
    2f6c:	52800201 	mov	w1, #0x10                  	// #16
    2f70:	d2800000 	mov	x0, #0x0                   	// #0
    2f74:	91043ed6 	add	x22, x22, #0x10f
    2f78:	940050eb 	bl	17324 <TEE_BigIntConvertToString>
    2f7c:	aa0003f8 	mov	x24, x0
    2f80:	aa1603e1 	mov	x1, x22
    2f84:	94003177 	bl	f560 <my_strcmp>
    2f88:	340002c0 	cbz	w0, 2fe0 <tb_addsub+0xf60>
/home/lagadanu/Desktop/qemu/out-br/build/optee_test-1.0/ta/os_test/tb_addsub.c:98 (discriminator 7)
    2f8c:	b00000f7 	adrp	x23, 1f000 <malloc_add_pool+0xe0>
    2f90:	911a42f7 	add	x23, x23, #0x690
    2f94:	aa1603e6 	mov	x6, x22
    2f98:	aa1803e5 	mov	x5, x24
    2f9c:	52800023 	mov	w3, #0x1                   	// #1
    2fa0:	52800022 	mov	w2, #0x1                   	// #1
    2fa4:	52800c61 	mov	w1, #0x63                  	// #99
    2fa8:	aa1703e0 	mov	x0, x23
    2fac:	f00000e4 	adrp	x4, 21000 <__compound_literal.0+0x7cc>
    2fb0:	9126e484 	add	x4, x4, #0x9b9
    2fb4:	940051e8 	bl	17754 <trace_printf>
    2fb8:	aa1703e2 	mov	x2, x23
    2fbc:	52800c61 	mov	w1, #0x63                  	// #99
    2fc0:	f00000e0 	adrp	x0, 21000 <__compound_literal.0+0x7cc>
    2fc4:	91275000 	add	x0, x0, #0x9d4
    2fc8:	940057fa 	bl	18fb0 <printf>
    2fcc:	f00000e0 	adrp	x0, 21000 <__compound_literal.0+0x7cc>
    2fd0:	91284000 	add	x0, x0, #0xa10
    2fd4:	9400582a 	bl	1907c <puts>
    2fd8:	52800000 	mov	w0, #0x0                   	// #0
    2fdc:	94005bf7 	bl	19fb8 <TEE_Panic>
/home/lagadanu/Desktop/qemu/out-br/build/optee_test-1.0/ta/os_test/tb_addsub.c:98 (discriminator 9)
    2fe0:	aa1803e0 	mov	x0, x24
    2fe4:	94005bee 	bl	19f9c <TEE_Free>
/home/lagadanu/Desktop/qemu/out-br/build/optee_test-1.0/ta/os_test/tb_addsub.c:101 (discriminator 9)
    2fe8:	9126a720 	add	x0, x25, #0x9a9
    2fec:	f00000e1 	adrp	x1, 21000 <__compound_literal.0+0x7cc>
/home/lagadanu/Desktop/qemu/out-br/build/optee_test-1.0/ta/os_test/tb_addsub.c:104 (discriminator 9)
    2ff0:	f00000f6 	adrp	x22, 21000 <__compound_literal.0+0x7cc>
/home/lagadanu/Desktop/qemu/out-br/build/optee_test-1.0/ta/os_test/tb_addsub.c:101 (discriminator 9)
    2ff4:	9129a421 	add	x1, x1, #0xa69
/home/lagadanu/Desktop/qemu/out-br/build/optee_test-1.0/ta/os_test/tb_addsub.c:104 (discriminator 9)
    2ff8:	912a3ad7 	add	x23, x22, #0xa8e
/home/lagadanu/Desktop/qemu/out-br/build/optee_test-1.0/ta/os_test/tb_addsub.c:101 (discriminator 9)
    2ffc:	940057ed 	bl	18fb0 <printf>
/home/lagadanu/Desktop/qemu/out-br/build/optee_test-1.0/ta/os_test/tb_addsub.c:104 (discriminator 9)
    3000:	aa1703e1 	mov	x1, x23
    3004:	aa1303e0 	mov	x0, x19
    3008:	940050c6 	bl	17320 <TEE_BigIntConvertFromString>
    300c:	aa1703e1 	mov	x1, x23
    3010:	aa1403e0 	mov	x0, x20
    3014:	940050c3 	bl	17320 <TEE_BigIntConvertFromString>
    3018:	d00000f7 	adrp	x23, 21000 <__compound_literal.0+0x7cc>
    301c:	aa1403e2 	mov	x2, x20
    3020:	aa1303e1 	mov	x1, x19
    3024:	aa1503e0 	mov	x0, x21
    3028:	94005956 	bl	19580 <TEE_BigIntAdd>
    302c:	aa1503e2 	mov	x2, x21
    3030:	52800201 	mov	w1, #0x10                  	// #16
    3034:	d2800000 	mov	x0, #0x0                   	// #0
    3038:	912a4afa 	add	x26, x23, #0xa92
    303c:	940050ba 	bl	17324 <TEE_BigIntConvertToString>
    3040:	aa0003f9 	mov	x25, x0
    3044:	aa1a03e1 	mov	x1, x26
    3048:	94003146 	bl	f560 <my_strcmp>
    304c:	340002c0 	cbz	w0, 30a4 <tb_addsub+0x1024>
/home/lagadanu/Desktop/qemu/out-br/build/optee_test-1.0/ta/os_test/tb_addsub.c:104 (discriminator 1)
    3050:	900000f8 	adrp	x24, 1f000 <malloc_add_pool+0xe0>
    3054:	911a4318 	add	x24, x24, #0x690
    3058:	aa1a03e6 	mov	x6, x26
    305c:	aa1903e5 	mov	x5, x25
    3060:	52800023 	mov	w3, #0x1                   	// #1
    3064:	52800022 	mov	w2, #0x1                   	// #1
    3068:	52800d01 	mov	w1, #0x68                  	// #104
    306c:	aa1803e0 	mov	x0, x24
    3070:	d00000e4 	adrp	x4, 21000 <__compound_literal.0+0x7cc>
    3074:	9126e484 	add	x4, x4, #0x9b9
    3078:	940051b7 	bl	17754 <trace_printf>
    307c:	aa1803e2 	mov	x2, x24
    3080:	52800d01 	mov	w1, #0x68                  	// #104
    3084:	d00000e0 	adrp	x0, 21000 <__compound_literal.0+0x7cc>
    3088:	91275000 	add	x0, x0, #0x9d4
    308c:	940057c9 	bl	18fb0 <printf>
    3090:	d00000e0 	adrp	x0, 21000 <__compound_literal.0+0x7cc>
    3094:	91284000 	add	x0, x0, #0xa10
    3098:	940057f9 	bl	1907c <puts>
    309c:	52800000 	mov	w0, #0x0                   	// #0
    30a0:	94005bc6 	bl	19fb8 <TEE_Panic>
/home/lagadanu/Desktop/qemu/out-br/build/optee_test-1.0/ta/os_test/tb_addsub.c:104 (discriminator 3)
    30a4:	aa1903e0 	mov	x0, x25
    30a8:	94005bbd 	bl	19f9c <TEE_Free>
    30ac:	aa1403e2 	mov	x2, x20
    30b0:	aa1303e1 	mov	x1, x19
    30b4:	aa1303e0 	mov	x0, x19
    30b8:	94005932 	bl	19580 <TEE_BigIntAdd>
    30bc:	aa1303e2 	mov	x2, x19
    30c0:	52800201 	mov	w1, #0x10                  	// #16
    30c4:	d2800000 	mov	x0, #0x0                   	// #0
    30c8:	912a4afa 	add	x26, x23, #0xa92
    30cc:	94005096 	bl	17324 <TEE_BigIntConvertToString>
    30d0:	aa0003f9 	mov	x25, x0
    30d4:	aa1a03e1 	mov	x1, x26
    30d8:	94003122 	bl	f560 <my_strcmp>
    30dc:	340002c0 	cbz	w0, 3134 <tb_addsub+0x10b4>
/home/lagadanu/Desktop/qemu/out-br/build/optee_test-1.0/ta/os_test/tb_addsub.c:104 (discriminator 4)
    30e0:	900000f8 	adrp	x24, 1f000 <malloc_add_pool+0xe0>
    30e4:	911a4318 	add	x24, x24, #0x690
    30e8:	aa1a03e6 	mov	x6, x26
    30ec:	aa1903e5 	mov	x5, x25
    30f0:	52800023 	mov	w3, #0x1                   	// #1
    30f4:	52800022 	mov	w2, #0x1                   	// #1
    30f8:	52800d01 	mov	w1, #0x68                  	// #104
    30fc:	aa1803e0 	mov	x0, x24
    3100:	d00000e4 	adrp	x4, 21000 <__compound_literal.0+0x7cc>
    3104:	9126e484 	add	x4, x4, #0x9b9
    3108:	94005193 	bl	17754 <trace_printf>
    310c:	aa1803e2 	mov	x2, x24
    3110:	52800d01 	mov	w1, #0x68                  	// #104
    3114:	d00000e0 	adrp	x0, 21000 <__compound_literal.0+0x7cc>
    3118:	91275000 	add	x0, x0, #0x9d4
    311c:	940057a5 	bl	18fb0 <printf>
    3120:	d00000e0 	adrp	x0, 21000 <__compound_literal.0+0x7cc>
    3124:	91284000 	add	x0, x0, #0xa10
    3128:	940057d5 	bl	1907c <puts>
    312c:	52800000 	mov	w0, #0x0                   	// #0
    3130:	94005ba2 	bl	19fb8 <TEE_Panic>
/home/lagadanu/Desktop/qemu/out-br/build/optee_test-1.0/ta/os_test/tb_addsub.c:104 (discriminator 6)
    3134:	aa1903e0 	mov	x0, x25
    3138:	94005b99 	bl	19f9c <TEE_Free>
    313c:	aa1403e2 	mov	x2, x20
    3140:	aa1303e1 	mov	x1, x19
    3144:	aa1303e0 	mov	x0, x19
    3148:	94005911 	bl	1958c <TEE_BigIntSub>
    314c:	aa1403e2 	mov	x2, x20
    3150:	aa1303e1 	mov	x1, x19
    3154:	aa1403e0 	mov	x0, x20
    3158:	9400590a 	bl	19580 <TEE_BigIntAdd>
    315c:	aa1403e2 	mov	x2, x20
    3160:	52800201 	mov	w1, #0x10                  	// #16
    3164:	d2800000 	mov	x0, #0x0                   	// #0
    3168:	912a4afa 	add	x26, x23, #0xa92
    316c:	9400506e 	bl	17324 <TEE_BigIntConvertToString>
    3170:	aa0003f9 	mov	x25, x0
    3174:	aa1a03e1 	mov	x1, x26
    3178:	940030fa 	bl	f560 <my_strcmp>
    317c:	340002c0 	cbz	w0, 31d4 <tb_addsub+0x1154>
/home/lagadanu/Desktop/qemu/out-br/build/optee_test-1.0/ta/os_test/tb_addsub.c:104 (discriminator 7)
    3180:	900000f8 	adrp	x24, 1f000 <malloc_add_pool+0xe0>
    3184:	911a4318 	add	x24, x24, #0x690
    3188:	aa1a03e6 	mov	x6, x26
    318c:	aa1903e5 	mov	x5, x25
    3190:	52800023 	mov	w3, #0x1                   	// #1
    3194:	52800022 	mov	w2, #0x1                   	// #1
    3198:	52800d01 	mov	w1, #0x68                  	// #104
    319c:	aa1803e0 	mov	x0, x24
    31a0:	d00000e4 	adrp	x4, 21000 <__compound_literal.0+0x7cc>
    31a4:	9126e484 	add	x4, x4, #0x9b9
    31a8:	9400516b 	bl	17754 <trace_printf>
    31ac:	aa1803e2 	mov	x2, x24
    31b0:	52800d01 	mov	w1, #0x68                  	// #104
    31b4:	d00000e0 	adrp	x0, 21000 <__compound_literal.0+0x7cc>
    31b8:	91275000 	add	x0, x0, #0x9d4
    31bc:	9400577d 	bl	18fb0 <printf>
    31c0:	d00000e0 	adrp	x0, 21000 <__compound_literal.0+0x7cc>
    31c4:	91284000 	add	x0, x0, #0xa10
    31c8:	940057ad 	bl	1907c <puts>
    31cc:	52800000 	mov	w0, #0x0                   	// #0
    31d0:	94005b7a 	bl	19fb8 <TEE_Panic>
/home/lagadanu/Desktop/qemu/out-br/build/optee_test-1.0/ta/os_test/tb_addsub.c:104 (discriminator 9)
    31d4:	aa1903e0 	mov	x0, x25
    31d8:	94005b71 	bl	19f9c <TEE_Free>
/home/lagadanu/Desktop/qemu/out-br/build/optee_test-1.0/ta/os_test/tb_addsub.c:105 (discriminator 9)
    31dc:	912a4ae1 	add	x1, x23, #0xa92
    31e0:	912a3ad8 	add	x24, x22, #0xa8e
    31e4:	aa1303e0 	mov	x0, x19
    31e8:	9400504e 	bl	17320 <TEE_BigIntConvertFromString>
    31ec:	aa1803e1 	mov	x1, x24
    31f0:	aa1403e0 	mov	x0, x20
    31f4:	9400504b 	bl	17320 <TEE_BigIntConvertFromString>
    31f8:	aa1403e2 	mov	x2, x20
    31fc:	aa1303e1 	mov	x1, x19
    3200:	aa1503e0 	mov	x0, x21
    3204:	940058e2 	bl	1958c <TEE_BigIntSub>
    3208:	aa1503e2 	mov	x2, x21
    320c:	52800201 	mov	w1, #0x10                  	// #16
    3210:	d2800000 	mov	x0, #0x0                   	// #0
    3214:	94005044 	bl	17324 <TEE_BigIntConvertToString>
    3218:	aa1803e1 	mov	x1, x24
    321c:	aa0003f9 	mov	x25, x0
    3220:	940030d0 	bl	f560 <my_strcmp>
    3224:	340002c0 	cbz	w0, 327c <tb_addsub+0x11fc>
/home/lagadanu/Desktop/qemu/out-br/build/optee_test-1.0/ta/os_test/tb_addsub.c:105 (discriminator 1)
    3228:	900000f7 	adrp	x23, 1f000 <malloc_add_pool+0xe0>
    322c:	911a42f7 	add	x23, x23, #0x690
    3230:	aa1803e6 	mov	x6, x24
    3234:	aa1903e5 	mov	x5, x25
    3238:	52800023 	mov	w3, #0x1                   	// #1
    323c:	52800022 	mov	w2, #0x1                   	// #1
    3240:	52800d21 	mov	w1, #0x69                  	// #105
    3244:	aa1703e0 	mov	x0, x23
    3248:	d00000e4 	adrp	x4, 21000 <__compound_literal.0+0x7cc>
    324c:	9126e484 	add	x4, x4, #0x9b9
    3250:	94005141 	bl	17754 <trace_printf>
    3254:	aa1703e2 	mov	x2, x23
    3258:	52800d21 	mov	w1, #0x69                  	// #105
    325c:	d00000e0 	adrp	x0, 21000 <__compound_literal.0+0x7cc>
    3260:	91275000 	add	x0, x0, #0x9d4
    3264:	94005753 	bl	18fb0 <printf>
    3268:	d00000e0 	adrp	x0, 21000 <__compound_literal.0+0x7cc>
    326c:	91284000 	add	x0, x0, #0xa10
    3270:	94005783 	bl	1907c <puts>
    3274:	52800000 	mov	w0, #0x0                   	// #0
    3278:	94005b50 	bl	19fb8 <TEE_Panic>
/home/lagadanu/Desktop/qemu/out-br/build/optee_test-1.0/ta/os_test/tb_addsub.c:105 (discriminator 3)
    327c:	aa1903e0 	mov	x0, x25
    3280:	94005b47 	bl	19f9c <TEE_Free>
    3284:	aa1403e2 	mov	x2, x20
    3288:	aa1303e1 	mov	x1, x19
    328c:	aa1303e0 	mov	x0, x19
    3290:	940058bf 	bl	1958c <TEE_BigIntSub>
    3294:	aa1303e2 	mov	x2, x19
    3298:	52800201 	mov	w1, #0x10                  	// #16
    329c:	d2800000 	mov	x0, #0x0                   	// #0
    32a0:	912a3ad9 	add	x25, x22, #0xa8e
    32a4:	94005020 	bl	17324 <TEE_BigIntConvertToString>
    32a8:	aa0003f8 	mov	x24, x0
    32ac:	aa1903e1 	mov	x1, x25
    32b0:	940030ac 	bl	f560 <my_strcmp>
    32b4:	340002c0 	cbz	w0, 330c <tb_addsub+0x128c>
/home/lagadanu/Desktop/qemu/out-br/build/optee_test-1.0/ta/os_test/tb_addsub.c:105 (discriminator 4)
    32b8:	900000f7 	adrp	x23, 1f000 <malloc_add_pool+0xe0>
    32bc:	911a42f7 	add	x23, x23, #0x690
    32c0:	aa1903e6 	mov	x6, x25
    32c4:	aa1803e5 	mov	x5, x24
    32c8:	52800023 	mov	w3, #0x1                   	// #1
    32cc:	52800022 	mov	w2, #0x1                   	// #1
    32d0:	52800d21 	mov	w1, #0x69                  	// #105
    32d4:	aa1703e0 	mov	x0, x23
    32d8:	d00000e4 	adrp	x4, 21000 <__compound_literal.0+0x7cc>
    32dc:	9126e484 	add	x4, x4, #0x9b9
    32e0:	9400511d 	bl	17754 <trace_printf>
    32e4:	aa1703e2 	mov	x2, x23
    32e8:	52800d21 	mov	w1, #0x69                  	// #105
    32ec:	d00000e0 	adrp	x0, 21000 <__compound_literal.0+0x7cc>
    32f0:	91275000 	add	x0, x0, #0x9d4
    32f4:	9400572f 	bl	18fb0 <printf>
    32f8:	d00000e0 	adrp	x0, 21000 <__compound_literal.0+0x7cc>
    32fc:	91284000 	add	x0, x0, #0xa10
    3300:	9400575f 	bl	1907c <puts>
    3304:	52800000 	mov	w0, #0x0                   	// #0
    3308:	94005b2c 	bl	19fb8 <TEE_Panic>
/home/lagadanu/Desktop/qemu/out-br/build/optee_test-1.0/ta/os_test/tb_addsub.c:105 (discriminator 6)
    330c:	aa1803e0 	mov	x0, x24
    3310:	94005b23 	bl	19f9c <TEE_Free>
    3314:	aa1403e2 	mov	x2, x20
    3318:	aa1303e1 	mov	x1, x19
    331c:	aa1303e0 	mov	x0, x19
    3320:	94005898 	bl	19580 <TEE_BigIntAdd>
    3324:	aa1403e2 	mov	x2, x20
    3328:	aa1303e1 	mov	x1, x19
    332c:	aa1403e0 	mov	x0, x20
    3330:	94005897 	bl	1958c <TEE_BigIntSub>
    3334:	aa1403e2 	mov	x2, x20
    3338:	52800201 	mov	w1, #0x10                  	// #16
    333c:	d2800000 	mov	x0, #0x0                   	// #0
    3340:	912a3ad6 	add	x22, x22, #0xa8e
    3344:	94004ff8 	bl	17324 <TEE_BigIntConvertToString>
    3348:	aa0003f8 	mov	x24, x0
    334c:	aa1603e1 	mov	x1, x22
    3350:	94003084 	bl	f560 <my_strcmp>
    3354:	340002c0 	cbz	w0, 33ac <tb_addsub+0x132c>
/home/lagadanu/Desktop/qemu/out-br/build/optee_test-1.0/ta/os_test/tb_addsub.c:105 (discriminator 7)
    3358:	900000f7 	adrp	x23, 1f000 <malloc_add_pool+0xe0>
    335c:	911a42f7 	add	x23, x23, #0x690
    3360:	aa1603e6 	mov	x6, x22
    3364:	aa1803e5 	mov	x5, x24
    3368:	52800023 	mov	w3, #0x1                   	// #1
    336c:	52800022 	mov	w2, #0x1                   	// #1
    3370:	52800d21 	mov	w1, #0x69                  	// #105
    3374:	aa1703e0 	mov	x0, x23
    3378:	d00000e4 	adrp	x4, 21000 <__compound_literal.0+0x7cc>
    337c:	9126e484 	add	x4, x4, #0x9b9
    3380:	940050f5 	bl	17754 <trace_printf>
    3384:	aa1703e2 	mov	x2, x23
    3388:	52800d21 	mov	w1, #0x69                  	// #105
    338c:	d00000e0 	adrp	x0, 21000 <__compound_literal.0+0x7cc>
    3390:	91275000 	add	x0, x0, #0x9d4
    3394:	94005707 	bl	18fb0 <printf>
    3398:	d00000e0 	adrp	x0, 21000 <__compound_literal.0+0x7cc>
    339c:	91284000 	add	x0, x0, #0xa10
    33a0:	94005737 	bl	1907c <puts>
    33a4:	52800000 	mov	w0, #0x0                   	// #0
    33a8:	94005b04 	bl	19fb8 <TEE_Panic>
/home/lagadanu/Desktop/qemu/out-br/build/optee_test-1.0/ta/os_test/tb_addsub.c:105 (discriminator 9)
    33ac:	aa1803e0 	mov	x0, x24
/home/lagadanu/Desktop/qemu/out-br/build/optee_test-1.0/ta/os_test/tb_addsub.c:108 (discriminator 9)
    33b0:	d00000f6 	adrp	x22, 21000 <__compound_literal.0+0x7cc>
/home/lagadanu/Desktop/qemu/out-br/build/optee_test-1.0/ta/os_test/tb_addsub.c:105 (discriminator 9)
    33b4:	94005afa 	bl	19f9c <TEE_Free>
/home/lagadanu/Desktop/qemu/out-br/build/optee_test-1.0/ta/os_test/tb_addsub.c:108 (discriminator 9)
    33b8:	912a5ed7 	add	x23, x22, #0xa97
    33bc:	aa1703e1 	mov	x1, x23
    33c0:	aa1303e0 	mov	x0, x19
    33c4:	94004fd7 	bl	17320 <TEE_BigIntConvertFromString>
    33c8:	aa1703e1 	mov	x1, x23
    33cc:	aa1403e0 	mov	x0, x20
    33d0:	94004fd4 	bl	17320 <TEE_BigIntConvertFromString>
    33d4:	d00000f7 	adrp	x23, 21000 <__compound_literal.0+0x7cc>
    33d8:	aa1403e2 	mov	x2, x20
    33dc:	aa1303e1 	mov	x1, x19
    33e0:	aa1503e0 	mov	x0, x21
    33e4:	94005867 	bl	19580 <TEE_BigIntAdd>
    33e8:	aa1503e2 	mov	x2, x21
    33ec:	52800201 	mov	w1, #0x10                  	// #16
    33f0:	d2800000 	mov	x0, #0x0                   	// #0
    33f4:	912a86fa 	add	x26, x23, #0xaa1
    33f8:	94004fcb 	bl	17324 <TEE_BigIntConvertToString>
    33fc:	aa0003f9 	mov	x25, x0
    3400:	aa1a03e1 	mov	x1, x26
    3404:	94003057 	bl	f560 <my_strcmp>
    3408:	340002c0 	cbz	w0, 3460 <tb_addsub+0x13e0>
/home/lagadanu/Desktop/qemu/out-br/build/optee_test-1.0/ta/os_test/tb_addsub.c:108 (discriminator 1)
    340c:	900000f8 	adrp	x24, 1f000 <malloc_add_pool+0xe0>
    3410:	911a4318 	add	x24, x24, #0x690
    3414:	aa1a03e6 	mov	x6, x26
    3418:	aa1903e5 	mov	x5, x25
    341c:	52800023 	mov	w3, #0x1                   	// #1
    3420:	52800022 	mov	w2, #0x1                   	// #1
    3424:	52800d81 	mov	w1, #0x6c                  	// #108
    3428:	aa1803e0 	mov	x0, x24
    342c:	d00000e4 	adrp	x4, 21000 <__compound_literal.0+0x7cc>
    3430:	9126e484 	add	x4, x4, #0x9b9
    3434:	940050c8 	bl	17754 <trace_printf>
    3438:	aa1803e2 	mov	x2, x24
    343c:	52800d81 	mov	w1, #0x6c                  	// #108
    3440:	d00000e0 	adrp	x0, 21000 <__compound_literal.0+0x7cc>
    3444:	91275000 	add	x0, x0, #0x9d4
    3448:	940056da 	bl	18fb0 <printf>
    344c:	d00000e0 	adrp	x0, 21000 <__compound_literal.0+0x7cc>
    3450:	91284000 	add	x0, x0, #0xa10
    3454:	9400570a 	bl	1907c <puts>
    3458:	52800000 	mov	w0, #0x0                   	// #0
    345c:	94005ad7 	bl	19fb8 <TEE_Panic>
/home/lagadanu/Desktop/qemu/out-br/build/optee_test-1.0/ta/os_test/tb_addsub.c:108 (discriminator 3)
    3460:	aa1903e0 	mov	x0, x25
    3464:	94005ace 	bl	19f9c <TEE_Free>
    3468:	aa1403e2 	mov	x2, x20
    346c:	aa1303e1 	mov	x1, x19
    3470:	aa1303e0 	mov	x0, x19
    3474:	94005843 	bl	19580 <TEE_BigIntAdd>
    3478:	aa1303e2 	mov	x2, x19
    347c:	52800201 	mov	w1, #0x10                  	// #16
    3480:	d2800000 	mov	x0, #0x0                   	// #0
    3484:	912a86fa 	add	x26, x23, #0xaa1
    3488:	94004fa7 	bl	17324 <TEE_BigIntConvertToString>
    348c:	aa0003f9 	mov	x25, x0
    3490:	aa1a03e1 	mov	x1, x26
    3494:	94003033 	bl	f560 <my_strcmp>
    3498:	340002c0 	cbz	w0, 34f0 <tb_addsub+0x1470>
